; ModuleID = '../elements/standard/bwratedunqueue.cc'
source_filename = "../elements/standard/bwratedunqueue.cc"
target datalayout = "e-m:e-p270:32:32-p271:32:32-p272:64:64-i64:64-f80:128-n8:16:32:64-S128"
target triple = "x86_64-pc-linux-gnu"

%class.BandwidthRatedUnqueue = type { %class.RatedUnqueue.base, [7 x i8] }
%class.RatedUnqueue.base = type <{ %class.Element.base, %class.TokenBucketX, %class.Task, %class.Timer, %class.NotifierSignal, i32, i32, i32, i32, i8 }>
%class.Element.base = type <{ i32 (...)**, [2 x %"class.Element::Port"*], [4 x %"class.Element::Port"], [2 x i32], %class.Router*, i32 }>
%"class.Element::Port" = type <{ %class.Element*, i32, [4 x i8] }>
%class.Element = type <{ i32 (...)**, [2 x %"class.Element::Port"*], [4 x %"class.Element::Port"], [2 x i32], %class.Router*, i32, [4 x i8] }>
%class.Router = type opaque
%class.TokenBucketX = type { %class.TokenRateX, %class.TokenCounterX }
%class.TokenRateX = type { i32, i32, i32 }
%class.TokenCounterX = type { i32, i32 }
%class.Task = type { %struct.TaskLink.base, i32, i32, %"union.Task::Status", i1 (%class.Task*, i8*)*, i8*, %class.RouterThread*, %class.Element*, %"union.Task::Pending" }
%struct.TaskLink.base = type <{ %struct.TaskLink*, %struct.TaskLink*, i32 }>
%struct.TaskLink = type <{ %struct.TaskLink*, %struct.TaskLink*, i32, [4 x i8] }>
%"union.Task::Status" = type { i32 }
%class.RouterThread = type { %struct.TaskLink, i8, [7 x i8], %class.TimerSet, %class.SelectSet, [32 x i8], %class.Spinlock, %class.atomic_uint32_t, %class.atomic_uint32_t, %"union.Task::Pending", %"union.Task::Pending"*, %class.SpinlockIRQ, [31 x i8], %class.Master*, i32, i8, i32, i32, [40 x i8] }
%class.TimerSet = type <{ %class.Timestamp, i32, i32, i32, [4 x i8], %class.Vector, %class.Vector.0, %class.SimpleSpinlock, [7 x i8], %class.Timestamp, i32, [4 x i8] }>
%class.Vector = type { %class.vector_memory }
%class.vector_memory = type { %struct.char_array*, i32, i32 }
%struct.char_array = type { [16 x i8] }
%class.Vector.0 = type { %class.vector_memory.1 }
%class.vector_memory.1 = type { %struct.char_array.2*, i32, i32 }
%struct.char_array.2 = type opaque
%class.SimpleSpinlock = type { i8 }
%class.Timestamp = type { %"union.Timestamp::rep_t" }
%"union.Timestamp::rep_t" = type { i64 }
%class.SelectSet = type { [2 x i32], i8, %class.Vector.3, %class.Vector.4 }
%class.Vector.3 = type { %class.vector_memory.1 }
%class.Vector.4 = type { %class.vector_memory.5 }
%class.vector_memory.5 = type { %struct.char_array.6*, i32, i32 }
%struct.char_array.6 = type opaque
%class.Spinlock = type { i8 }
%class.atomic_uint32_t = type { i32 }
%class.SpinlockIRQ = type { i8 }
%class.Master = type opaque
%"union.Task::Pending" = type { %class.Task* }
%class.Timer = type { i32, %class.Timestamp, %union.anon, i8*, %class.Element*, %class.RouterThread* }
%union.anon = type { void (%class.Timer*, i8*)* }
%class.NotifierSignal = type <{ %"union.NotifierSignal::vmvalue", i32, [4 x i8] }>
%"union.NotifierSignal::vmvalue" = type { %class.atomic_uint32_t* }
%class.RatedUnqueue = type <{ %class.Element.base, %class.TokenBucketX, %class.Task, %class.Timer, %class.NotifierSignal, i32, i32, i32, i32, i8, [7 x i8] }>
%class.Packet = type { %class.atomic_uint32_t, %class.Packet*, i8*, i8*, i8*, i8*, %"struct.Packet::AllAnno", void (i8*, i64, i8*)*, i8* }
%"struct.Packet::AllAnno" = type { %"union.Packet::Anno", i8*, i8*, i8*, i32, [8 x i8], %class.Packet*, %class.Packet* }
%"union.Packet::Anno" = type { [6 x i64] }
%struct.anon = type { i16, i8, i8 }
%"struct.NotifierSignal::vmpair" = type { %class.atomic_uint32_t*, i32 }
%class.Vector.7 = type opaque
%class.ErrorHandler = type opaque
%class.String = type { %"struct.String::rep_t" }
%"struct.String::rep_t" = type { i8*, i32, %"struct.String::memo_t"* }
%"struct.String::memo_t" = type { i32, i32, i32, [8 x i8] }

$_ZNK7Element5inputEi = comdat any

$_ZNK7Element6outputEi = comdat any

$_ZNK7Element4Port4pushEP6Packet = comdat any

$_ZN12RatedUnqueueD2Ev = comdat any

$_ZN21BandwidthRatedUnqueueD0Ev = comdat any

$_ZNK21BandwidthRatedUnqueue10class_nameEv = comdat any

$_ZNK12RatedUnqueue10port_countEv = comdat any

$_ZNK12RatedUnqueue10processingEv = comdat any

$_ZNK12RatedUnqueue20can_live_reconfigureEv = comdat any

$_ZNK7Element4portEbi = comdat any

$_ZNK14NotifierSignal6activeEv = comdat any

$__clang_call_terminate = comdat any

@_ZTV21BandwidthRatedUnqueue = dso_local unnamed_addr constant { [29 x i8*] } { [29 x i8*] [i8* null, i8* bitcast ({ i8*, i8*, i8* }* @_ZTI21BandwidthRatedUnqueue to i8*), i8* bitcast (void (%class.RatedUnqueue*)* @_ZN12RatedUnqueueD2Ev to i8*), i8* bitcast (void (%class.BandwidthRatedUnqueue*)* @_ZN21BandwidthRatedUnqueueD0Ev to i8*), i8* bitcast (void (%class.Element*, i32, %class.Packet*)* @_ZN7Element4pushEiP6Packet to i8*), i8* bitcast (%class.Packet* (%class.Element*, i32)* @_ZN7Element4pullEi to i8*), i8* bitcast (%class.Packet* (%class.Element*, %class.Packet*)* @_ZN7Element13simple_actionEP6Packet to i8*), i8* bitcast (i1 (%class.BandwidthRatedUnqueue*, %class.Task*)* @_ZN21BandwidthRatedUnqueue8run_taskEP4Task to i8*), i8* bitcast (void (%class.Element*, %class.Timer*)* @_ZN7Element9run_timerEP5Timer to i8*), i8* bitcast (void (%class.Element*, i32, i32)* @_ZN7Element8selectedEii to i8*), i8* bitcast (void (%class.Element*, i32)* @_ZN7Element8selectedEi to i8*), i8* bitcast (i8* (%class.BandwidthRatedUnqueue*)* @_ZNK21BandwidthRatedUnqueue10class_nameEv to i8*), i8* bitcast (i8* (%class.RatedUnqueue*)* @_ZNK12RatedUnqueue10port_countEv to i8*), i8* bitcast (i8* (%class.RatedUnqueue*)* @_ZNK12RatedUnqueue10processingEv to i8*), i8* bitcast (i8* (%class.Element*)* @_ZNK7Element9flow_codeEv to i8*), i8* bitcast (i8* (%class.Element*)* @_ZNK7Element5flagsEv to i8*), i8* bitcast (i8* (%class.Element*, i8*)* @_ZN7Element4castEPKc to i8*), i8* bitcast (i8* (%class.Element*, i1, i32, i8*)* @_ZN7Element9port_castEbiPKc to i8*), i8* bitcast (i32 (%class.Element*)* @_ZNK7Element15configure_phaseEv to i8*), i8* bitcast (i32 (%class.RatedUnqueue*, %class.Vector.7*, %class.ErrorHandler*)* @_ZN12RatedUnqueue9configureER6VectorI6StringEP12ErrorHandler to i8*), i8* bitcast (void (%class.RatedUnqueue*)* @_ZN12RatedUnqueue12add_handlersEv to i8*), i8* bitcast (i32 (%class.RatedUnqueue*, %class.ErrorHandler*)* @_ZN12RatedUnqueue10initializeEP12ErrorHandler to i8*), i8* bitcast (void (%class.Element*, %class.Element*, %class.ErrorHandler*)* @_ZN7Element10take_stateEPS_P12ErrorHandler to i8*), i8* bitcast (%class.Element* (%class.Element*)* @_ZNK7Element15hotswap_elementEv to i8*), i8* bitcast (void (%class.Element*, i32)* @_ZN7Element7cleanupENS_12CleanupStageE to i8*), i8* bitcast (void (%class.String*, %class.Element*)* @_ZNK7Element11declarationEv to i8*), i8* bitcast (i1 (%class.RatedUnqueue*)* @_ZNK12RatedUnqueue20can_live_reconfigureEv to i8*), i8* bitcast (i32 (%class.Element*, %class.Vector.7*, %class.ErrorHandler*)* @_ZN7Element16live_reconfigureER6VectorI6StringEP12ErrorHandler to i8*), i8* bitcast (i32 (%class.Element*, i32, i8*)* @_ZN7Element5llrpcEjPv to i8*)] }, align 8
@_ZTVN10__cxxabiv120__si_class_type_infoE = external global i8*
@_ZTS21BandwidthRatedUnqueue = dso_local constant [24 x i8] c"21BandwidthRatedUnqueue\00", align 1
@_ZTI12RatedUnqueue = external constant i8*
@_ZTI21BandwidthRatedUnqueue = dso_local constant { i8*, i8*, i8* } { i8* bitcast (i8** getelementptr inbounds (i8*, i8** @_ZTVN10__cxxabiv120__si_class_type_infoE, i64 2) to i8*), i8* getelementptr inbounds ([24 x i8], [24 x i8]* @_ZTS21BandwidthRatedUnqueue, i32 0, i32 0), i8* bitcast (i8** @_ZTI12RatedUnqueue to i8*) }, align 8
@.str = private unnamed_addr constant [47 x i8] c"(unsigned) port < (unsigned) _nports[isoutput]\00", align 1
@.str.1 = private unnamed_addr constant [30 x i8] c"../dummy_inc/click/element.hh\00", align 1
@__PRETTY_FUNCTION__._ZNK7Element4portEbi = private unnamed_addr constant [52 x i8] c"const Element::Port &Element::port(bool, int) const\00", align 1
@.str.2 = private unnamed_addr constant [3 x i8] c"_e\00", align 1
@__PRETTY_FUNCTION__._ZNK7Element4Port4pullEv = private unnamed_addr constant [36 x i8] c"Packet *Element::Port::pull() const\00", align 1
@.str.3 = private unnamed_addr constant [8 x i8] c"_e && p\00", align 1
@__PRETTY_FUNCTION__._ZNK7Element4Port4pushEP6Packet = private unnamed_addr constant [41 x i8] c"void Element::Port::push(Packet *) const\00", align 1
@_ZTV12RatedUnqueue = external unnamed_addr constant { [29 x i8*] }, align 8
@.str.4 = private unnamed_addr constant [22 x i8] c"BandwidthRatedUnqueue\00", align 1
@_ZN7Element9PORTS_1_1E = external constant [0 x i8], align 1
@_ZN7Element12PULL_TO_PUSHE = external constant [0 x i8], align 1

@_ZN21BandwidthRatedUnqueueC1Ev = dso_local unnamed_addr alias void (%class.BandwidthRatedUnqueue*), void (%class.BandwidthRatedUnqueue*)* @_ZN21BandwidthRatedUnqueueC2Ev

; Function Attrs: sspstrong uwtable
define dso_local void @_ZN21BandwidthRatedUnqueueC2Ev(%class.BandwidthRatedUnqueue* %0) unnamed_addr #0 align 2 !dbg !1980 {
  call void @llvm.dbg.value(metadata %class.BandwidthRatedUnqueue* %0, metadata !3166, metadata !DIExpression()), !dbg !3168
  %2 = bitcast %class.BandwidthRatedUnqueue* %0 to %class.RatedUnqueue*, !dbg !3169
  tail call void @_ZN12RatedUnqueueC2Ev(%class.RatedUnqueue* %2), !dbg !3170
  %3 = getelementptr %class.BandwidthRatedUnqueue, %class.BandwidthRatedUnqueue* %0, i64 0, i32 0, i32 0, i32 0, !dbg !3169
  store i32 (...)** bitcast (i8** getelementptr inbounds ({ [29 x i8*] }, { [29 x i8*] }* @_ZTV21BandwidthRatedUnqueue, i64 0, inrange i32 0, i64 2) to i32 (...)**), i32 (...)*** %3, align 8, !dbg !3169, !tbaa !3171
  ret void, !dbg !3174
}

; Function Attrs: nounwind readnone speculatable willreturn
declare void @llvm.dbg.declare(metadata, metadata, metadata) #1

declare void @_ZN12RatedUnqueueC2Ev(%class.RatedUnqueue*) unnamed_addr #2

; Function Attrs: sspstrong uwtable
define dso_local zeroext i1 @_ZN21BandwidthRatedUnqueue8run_taskEP4Task(%class.BandwidthRatedUnqueue* %0, %class.Task* nocapture readnone %1) unnamed_addr #0 align 2 !dbg !3175 {
  %3 = alloca %class.Timestamp, align 8
  call void @llvm.dbg.value(metadata %class.BandwidthRatedUnqueue* %0, metadata !3177, metadata !DIExpression()), !dbg !3184
  call void @llvm.dbg.value(metadata %class.Task* undef, metadata !3178, metadata !DIExpression()), !dbg !3184
  call void @llvm.dbg.value(metadata i8 0, metadata !3179, metadata !DIExpression()), !dbg !3184
  %4 = getelementptr inbounds %class.BandwidthRatedUnqueue, %class.BandwidthRatedUnqueue* %0, i64 0, i32 0, i32 5, !dbg !3185
  %5 = load i32, i32* %4, align 8, !dbg !3186, !tbaa !3187
  %6 = add i32 %5, 1, !dbg !3186
  store i32 %6, i32* %4, align 8, !dbg !3186, !tbaa !3187
  %7 = getelementptr inbounds %class.BandwidthRatedUnqueue, %class.BandwidthRatedUnqueue* %0, i64 0, i32 0, i32 9, !dbg !3200
  %8 = load i8, i8* %7, align 8, !dbg !3200, !tbaa !3202, !range !3203
  %9 = icmp eq i8 %8, 0, !dbg !3200
  br i1 %9, label %148, label %10, !dbg !3204

10:                                               ; preds = %2
  %11 = getelementptr inbounds %class.BandwidthRatedUnqueue, %class.BandwidthRatedUnqueue* %0, i64 0, i32 0, i32 1, !dbg !3205
  call void @llvm.dbg.value(metadata %class.TokenBucketX* %11, metadata !3206, metadata !DIExpression()), !dbg !3279
  %12 = getelementptr inbounds %class.BandwidthRatedUnqueue, %class.BandwidthRatedUnqueue* %0, i64 0, i32 0, i32 1, i32 1, !dbg !3281
  call void @llvm.dbg.value(metadata %class.TokenCounterX* %12, metadata !3282, metadata !DIExpression()), !dbg !3287
  call void @llvm.dbg.value(metadata %class.TokenBucketX* %11, metadata !3285, metadata !DIExpression()), !dbg !3287
  call void @llvm.dbg.value(metadata %class.TokenBucketX* %11, metadata !3289, metadata !DIExpression()), !dbg !3293
  %13 = tail call i32 @_Z13click_jiffiesv(), !dbg !3295
  call void @llvm.dbg.value(metadata %class.TokenCounterX* %12, metadata !3298, metadata !DIExpression()), !dbg !3308
  call void @llvm.dbg.value(metadata %class.TokenBucketX* %11, metadata !3301, metadata !DIExpression()), !dbg !3308
  call void @llvm.dbg.value(metadata i32 %13, metadata !3302, metadata !DIExpression()), !dbg !3308
  %14 = getelementptr inbounds %class.BandwidthRatedUnqueue, %class.BandwidthRatedUnqueue* %0, i64 0, i32 0, i32 1, i32 1, i32 1, !dbg !3310
  %15 = load i32, i32* %14, align 4, !dbg !3310, !tbaa !3311
  call void @llvm.dbg.value(metadata %class.TokenBucketX* %11, metadata !3312, metadata !DIExpression()), !dbg !3317
  call void @llvm.dbg.value(metadata i32 %15, metadata !3315, metadata !DIExpression()), !dbg !3317
  call void @llvm.dbg.value(metadata i32 %13, metadata !3316, metadata !DIExpression()), !dbg !3317
  call void @llvm.dbg.value(metadata i32 %15, metadata !3319, metadata !DIExpression()) #13, !dbg !3323
  call void @llvm.dbg.value(metadata i32 %13, metadata !3322, metadata !DIExpression()) #13, !dbg !3323
  %16 = tail call i32 @llvm.usub.sat.i32(i32 %13, i32 %15) #13, !dbg !3325
  call void @llvm.dbg.value(metadata i32 %16, metadata !3303, metadata !DIExpression()), !dbg !3308
  call void @llvm.dbg.value(metadata %class.TokenBucketX* %11, metadata !3326, metadata !DIExpression()), !dbg !3329
  %17 = getelementptr inbounds %class.BandwidthRatedUnqueue, %class.BandwidthRatedUnqueue* %0, i64 0, i32 0, i32 1, i32 0, i32 2, !dbg !3331
  %18 = load i32, i32* %17, align 4, !dbg !3331, !tbaa !3332
  %19 = icmp ult i32 %16, %18, !dbg !3333
  br i1 %19, label %22, label %20, !dbg !3334

20:                                               ; preds = %10
  %21 = getelementptr inbounds %class.TokenCounterX, %class.TokenCounterX* %12, i64 0, i32 0, !dbg !3335
  store i32 -1, i32* %21, align 4, !dbg !3337, !tbaa !3338
  br label %31, !dbg !3339

22:                                               ; preds = %10
  %23 = icmp ult i32 %15, %13, !dbg !3340
  br i1 %23, label %24, label %31, !dbg !3341

24:                                               ; preds = %22
  %25 = getelementptr inbounds %class.TokenCounterX, %class.TokenCounterX* %12, i64 0, i32 0, !dbg !3342
  %26 = load i32, i32* %25, align 4, !dbg !3342, !tbaa !3338
  call void @llvm.dbg.value(metadata %class.TokenBucketX* %11, metadata !3343, metadata !DIExpression()), !dbg !3346
  %27 = getelementptr inbounds %class.TokenBucketX, %class.TokenBucketX* %11, i64 0, i32 0, i32 0, !dbg !3348
  %28 = load i32, i32* %27, align 4, !dbg !3348, !tbaa !3349
  %29 = mul i32 %28, %16, !dbg !3350
  call void @llvm.dbg.value(metadata i32 undef, metadata !3304, metadata !DIExpression()), !dbg !3351
  %30 = tail call i32 @llvm.uadd.sat.i32(i32 %26, i32 %29), !dbg !3352
  store i32 %30, i32* %25, align 4, !dbg !3353, !tbaa !3338
  br label %31, !dbg !3354

31:                                               ; preds = %20, %22, %24
  store i32 %13, i32* %14, align 4, !dbg !3355, !tbaa !3311
  call void @llvm.dbg.value(metadata %class.TokenBucketX* %11, metadata !3356, metadata !DIExpression()), !dbg !3361
  call void @llvm.dbg.value(metadata i32 131072, metadata !3359, metadata !DIExpression()), !dbg !3361
  call void @llvm.dbg.value(metadata %class.TokenBucketX* %11, metadata !3363, metadata !DIExpression(DW_OP_plus_uconst, 12, DW_OP_stack_value)), !dbg !3369
  call void @llvm.dbg.value(metadata %class.TokenBucketX* %11, metadata !3366, metadata !DIExpression()), !dbg !3369
  call void @llvm.dbg.value(metadata i32 131072, metadata !3367, metadata !DIExpression()), !dbg !3369
  call void @llvm.dbg.value(metadata %class.TokenBucketX* %11, metadata !3371, metadata !DIExpression()), !dbg !3386
  call void @llvm.dbg.value(metadata %class.TokenBucketX* %11, metadata !3388, metadata !DIExpression()), !dbg !3391
  %32 = getelementptr inbounds %class.BandwidthRatedUnqueue, %class.BandwidthRatedUnqueue* %0, i64 0, i32 0, i32 1, i32 0, i32 1, !dbg !3393
  %33 = load i32, i32* %32, align 4, !dbg !3393, !tbaa !3394
  call void @llvm.dbg.value(metadata i32 131072, metadata !3395, metadata !DIExpression()) #13, !dbg !3405
  call void @llvm.dbg.value(metadata i32 %33, metadata !3402, metadata !DIExpression()) #13, !dbg !3405
  %34 = tail call { i32, i32 } asm "mul $2", "={ax},={dx},r,{ax},~{cc},~{dirflag},~{fpsr},~{flags}"(i32 131072, i32 %33) #14, !dbg !3407, !srcloc !3408
  %35 = extractvalue { i32, i32 } %34, 1, !dbg !3407
  call void @llvm.dbg.value(metadata i32 %35, metadata !3385, metadata !DIExpression()), !dbg !3386
  %36 = icmp eq i32 %35, 0, !dbg !3409
  br i1 %36, label %37, label %115, !dbg !3411

37:                                               ; preds = %31
  call void @llvm.dbg.value(metadata %class.TokenBucketX* %11, metadata !3363, metadata !DIExpression(DW_OP_plus_uconst, 12, DW_OP_stack_value)), !dbg !3369
  %38 = extractvalue { i32, i32 } %34, 0, !dbg !3407
  call void @llvm.dbg.value(metadata i32 %38, metadata !3367, metadata !DIExpression()), !dbg !3369
  call void @llvm.dbg.value(metadata %class.TokenBucketX* %11, metadata !3412, metadata !DIExpression(DW_OP_plus_uconst, 12, DW_OP_stack_value)), !dbg !3416
  call void @llvm.dbg.value(metadata i32 %38, metadata !3415, metadata !DIExpression()), !dbg !3416
  %39 = getelementptr inbounds %class.BandwidthRatedUnqueue, %class.BandwidthRatedUnqueue* %0, i64 0, i32 0, i32 1, i32 1, i32 0, !dbg !3418
  %40 = load i32, i32* %39, align 4, !dbg !3418, !tbaa !3338
  %41 = icmp ult i32 %40, %38, !dbg !3419
  br i1 %41, label %118, label %42, !dbg !3420

42:                                               ; preds = %37
  %43 = bitcast %class.BandwidthRatedUnqueue* %0 to %class.Element*, !dbg !3421
  %44 = tail call dereferenceable(16) %"class.Element::Port"* @_ZNK7Element5inputEi(%class.Element* %43, i32 0), !dbg !3421
  call void @llvm.dbg.value(metadata %"class.Element::Port"* %44, metadata !3422, metadata !DIExpression()), !dbg !3458
  %45 = getelementptr inbounds %"class.Element::Port", %"class.Element::Port"* %44, i64 0, i32 0, !dbg !3460
  %46 = load %class.Element*, %class.Element** %45, align 8, !dbg !3460, !tbaa !3461
  %47 = icmp eq %class.Element* %46, null, !dbg !3460
  br i1 %47, label %48, label %49, !dbg !3460

48:                                               ; preds = %42
  tail call void @__assert_fail(i8* getelementptr inbounds ([3 x i8], [3 x i8]* @.str.2, i64 0, i64 0), i8* getelementptr inbounds ([30 x i8], [30 x i8]* @.str.1, i64 0, i64 0), i32 657, i8* getelementptr inbounds ([36 x i8], [36 x i8]* @__PRETTY_FUNCTION__._ZNK7Element4Port4pullEv, i64 0, i64 0)) #15, !dbg !3460
  unreachable, !dbg !3460

49:                                               ; preds = %42
  %50 = getelementptr inbounds %"class.Element::Port", %"class.Element::Port"* %44, i64 0, i32 1, !dbg !3463
  %51 = load i32, i32* %50, align 8, !dbg !3463, !tbaa !3464
  %52 = bitcast %class.Element* %46 to %class.Packet* (%class.Element*, i32)***, !dbg !3465
  %53 = load %class.Packet* (%class.Element*, i32)**, %class.Packet* (%class.Element*, i32)*** %52, align 8, !dbg !3465, !tbaa !3171
  %54 = getelementptr inbounds %class.Packet* (%class.Element*, i32)*, %class.Packet* (%class.Element*, i32)** %53, i64 3, !dbg !3465
  %55 = load %class.Packet* (%class.Element*, i32)*, %class.Packet* (%class.Element*, i32)** %54, align 8, !dbg !3465
  %56 = tail call %class.Packet* %55(%class.Element* nonnull %46, i32 %51), !dbg !3465
  call void @llvm.dbg.value(metadata %class.Packet* %56, metadata !3456, metadata !DIExpression()), !dbg !3458
  call void @llvm.dbg.value(metadata %class.Packet* %56, metadata !3180, metadata !DIExpression()), !dbg !3466
  %57 = icmp eq %class.Packet* %56, null, !dbg !3467
  br i1 %57, label %75, label %58, !dbg !3468

58:                                               ; preds = %49
  %59 = tail call i32 @_ZNK6Packet6lengthEv(%class.Packet* nonnull %56), !dbg !3469
  call void @llvm.dbg.value(metadata %class.TokenBucketX* %11, metadata !3471, metadata !DIExpression()), !dbg !3475
  call void @llvm.dbg.value(metadata i32 %59, metadata !3474, metadata !DIExpression()), !dbg !3475
  call void @llvm.dbg.value(metadata %class.TokenBucketX* %11, metadata !3477, metadata !DIExpression(DW_OP_plus_uconst, 12, DW_OP_stack_value)), !dbg !3482
  call void @llvm.dbg.value(metadata %class.TokenBucketX* %11, metadata !3480, metadata !DIExpression()), !dbg !3482
  call void @llvm.dbg.value(metadata i32 %59, metadata !3481, metadata !DIExpression()), !dbg !3482
  call void @llvm.dbg.value(metadata %class.TokenBucketX* %11, metadata !3371, metadata !DIExpression()), !dbg !3484
  call void @llvm.dbg.value(metadata %class.TokenBucketX* %11, metadata !3388, metadata !DIExpression()), !dbg !3486
  %60 = load i32, i32* %32, align 4, !dbg !3488, !tbaa !3394
  call void @llvm.dbg.value(metadata i32 %59, metadata !3395, metadata !DIExpression()) #13, !dbg !3489
  call void @llvm.dbg.value(metadata i32 %60, metadata !3402, metadata !DIExpression()) #13, !dbg !3489
  %61 = tail call { i32, i32 } asm "mul $2", "={ax},={dx},r,{ax},~{cc},~{dirflag},~{fpsr},~{flags}"(i32 %59, i32 %60) #14, !dbg !3491, !srcloc !3408
  %62 = extractvalue { i32, i32 } %61, 0, !dbg !3491
  %63 = extractvalue { i32, i32 } %61, 1, !dbg !3491
  call void @llvm.dbg.value(metadata i32 %63, metadata !3385, metadata !DIExpression()), !dbg !3484
  %64 = icmp eq i32 %63, 0, !dbg !3492
  %65 = select i1 %64, i32 %62, i32 -1, !dbg !3493
  call void @llvm.dbg.value(metadata i32 %65, metadata !3481, metadata !DIExpression()), !dbg !3482
  call void @llvm.dbg.value(metadata %class.TokenBucketX* %11, metadata !3494, metadata !DIExpression(DW_OP_plus_uconst, 12, DW_OP_stack_value)) #13, !dbg !3498
  call void @llvm.dbg.value(metadata i32 %65, metadata !3497, metadata !DIExpression()) #13, !dbg !3498
  %66 = load i32, i32* %39, align 4, !dbg !3500, !tbaa !3338
  %67 = tail call i32 @llvm.usub.sat.i32(i32 %66, i32 %65) #13, !dbg !3501
  store i32 %67, i32* %39, align 4, !dbg !3502, !tbaa !3338
  %68 = getelementptr inbounds %class.BandwidthRatedUnqueue, %class.BandwidthRatedUnqueue* %0, i64 0, i32 0, i32 6, !dbg !3503
  %69 = load i32, i32* %68, align 4, !dbg !3504, !tbaa !3505
  %70 = add i32 %69, 1, !dbg !3504
  store i32 %70, i32* %68, align 4, !dbg !3504, !tbaa !3505
  call void @llvm.dbg.value(metadata i8 1, metadata !3179, metadata !DIExpression()), !dbg !3184
  %71 = tail call dereferenceable(16) %"class.Element::Port"* @_ZNK7Element6outputEi(%class.Element* %43, i32 0), !dbg !3506
  tail call void @_ZNK7Element4Port4pushEP6Packet(%"class.Element::Port"* nonnull %71, %class.Packet* nonnull %56), !dbg !3507
  call void @llvm.dbg.value(metadata i8 undef, metadata !3179, metadata !DIExpression()), !dbg !3184
  call void @llvm.dbg.value(metadata i8 undef, metadata !3179, metadata !DIExpression()), !dbg !3184
  call void @llvm.dbg.value(metadata %class.BandwidthRatedUnqueue* %0, metadata !3508, metadata !DIExpression(DW_OP_plus_uconst, 128, DW_OP_stack_value)), !dbg !3511
  %72 = getelementptr inbounds %class.BandwidthRatedUnqueue, %class.BandwidthRatedUnqueue* %0, i64 0, i32 0, i32 2, i32 3, !dbg !3513
  %73 = bitcast %"union.Task::Status"* %72 to %struct.anon*, !dbg !3514
  %74 = getelementptr inbounds %struct.anon, %struct.anon* %73, i64 0, i32 1, !dbg !3514
  store i8 1, i8* %74, align 2, !dbg !3515, !tbaa !3516
  br label %148, !dbg !3517

75:                                               ; preds = %49
  %76 = getelementptr inbounds %class.BandwidthRatedUnqueue, %class.BandwidthRatedUnqueue* %0, i64 0, i32 0, i32 7, !dbg !3518
  %77 = load i32, i32* %76, align 8, !dbg !3520, !tbaa !3521
  %78 = add i32 %77, 1, !dbg !3520
  store i32 %78, i32* %76, align 8, !dbg !3520, !tbaa !3521
  %79 = getelementptr inbounds %class.BandwidthRatedUnqueue, %class.BandwidthRatedUnqueue* %0, i64 0, i32 0, i32 4, !dbg !3522
  call void @llvm.dbg.value(metadata %class.NotifierSignal* %79, metadata !3524, metadata !DIExpression()), !dbg !3598
  call void @llvm.dbg.value(metadata %class.NotifierSignal* %79, metadata !3600, metadata !DIExpression()), !dbg !3607
  tail call void asm sideeffect "", "~{memory},~{dirflag},~{fpsr},~{flags}"() #13, !dbg !3609, !srcloc !3615
  %80 = getelementptr inbounds %class.BandwidthRatedUnqueue, %class.BandwidthRatedUnqueue* %0, i64 0, i32 0, i32 4, i32 1, !dbg !3616
  %81 = load i32, i32* %80, align 8, !dbg !3616, !tbaa !3617
  %82 = icmp eq i32 %81, 0, !dbg !3616
  br i1 %82, label %83, label %103, !dbg !3618, !prof !3619, !misexpect !3620

83:                                               ; preds = %75
  %84 = bitcast %class.NotifierSignal* %79 to %"struct.NotifierSignal::vmpair"**, !dbg !3621
  %85 = load %"struct.NotifierSignal::vmpair"*, %"struct.NotifierSignal::vmpair"** %84, align 8, !dbg !3621, !tbaa !3516
  call void @llvm.dbg.value(metadata %"struct.NotifierSignal::vmpair"* %85, metadata !3603, metadata !DIExpression()), !dbg !3622
  %86 = getelementptr inbounds %"struct.NotifierSignal::vmpair", %"struct.NotifierSignal::vmpair"* %85, i64 0, i32 1, !dbg !3623
  %87 = load i32, i32* %86, align 8, !dbg !3623, !tbaa !3625
  %88 = icmp eq i32 %87, 0, !dbg !3627
  br i1 %88, label %111, label %94, !dbg !3628

89:                                               ; preds = %94
  %90 = getelementptr inbounds %"struct.NotifierSignal::vmpair", %"struct.NotifierSignal::vmpair"* %96, i64 1, !dbg !3629
  call void @llvm.dbg.value(metadata %"struct.NotifierSignal::vmpair"* %90, metadata !3603, metadata !DIExpression()), !dbg !3622
  call void @llvm.dbg.value(metadata %"struct.NotifierSignal::vmpair"* %90, metadata !3603, metadata !DIExpression()), !dbg !3622
  %91 = getelementptr inbounds %"struct.NotifierSignal::vmpair", %"struct.NotifierSignal::vmpair"* %96, i64 1, i32 1, !dbg !3623
  %92 = load i32, i32* %91, align 8, !dbg !3623, !tbaa !3625
  %93 = icmp eq i32 %92, 0, !dbg !3627
  br i1 %93, label %111, label %94, !dbg !3628, !llvm.loop !3630

94:                                               ; preds = %83, %89
  %95 = phi i32 [ %92, %89 ], [ %87, %83 ]
  %96 = phi %"struct.NotifierSignal::vmpair"* [ %90, %89 ], [ %85, %83 ]
  call void @llvm.dbg.value(metadata %"struct.NotifierSignal::vmpair"* %96, metadata !3603, metadata !DIExpression()), !dbg !3622
  %97 = getelementptr inbounds %"struct.NotifierSignal::vmpair", %"struct.NotifierSignal::vmpair"* %96, i64 0, i32 0, !dbg !3632
  %98 = load %class.atomic_uint32_t*, %class.atomic_uint32_t** %97, align 8, !dbg !3632, !tbaa !3634
  call void @llvm.dbg.value(metadata %class.atomic_uint32_t* %98, metadata !3635, metadata !DIExpression()), !dbg !3639
  call void @llvm.dbg.value(metadata %class.atomic_uint32_t* %98, metadata !3641, metadata !DIExpression()), !dbg !3644
  %99 = getelementptr inbounds %class.atomic_uint32_t, %class.atomic_uint32_t* %98, i64 0, i32 0, !dbg !3646
  %100 = load i32, i32* %99, align 4, !dbg !3646, !tbaa !3647
  %101 = and i32 %100, %95, !dbg !3649
  %102 = icmp eq i32 %101, 0, !dbg !3650
  call void @llvm.dbg.value(metadata %"struct.NotifierSignal::vmpair"* %96, metadata !3603, metadata !DIExpression(DW_OP_plus_uconst, 16, DW_OP_stack_value)), !dbg !3622
  br i1 %102, label %89, label %110, !dbg !3651

103:                                              ; preds = %75
  %104 = getelementptr inbounds %class.NotifierSignal, %class.NotifierSignal* %79, i64 0, i32 0, i32 0, !dbg !3652
  %105 = load %class.atomic_uint32_t*, %class.atomic_uint32_t** %104, align 8, !dbg !3652, !tbaa !3516
  call void @llvm.dbg.value(metadata %class.atomic_uint32_t* %105, metadata !3635, metadata !DIExpression()), !dbg !3653
  call void @llvm.dbg.value(metadata %class.atomic_uint32_t* %105, metadata !3641, metadata !DIExpression()), !dbg !3655
  %106 = getelementptr inbounds %class.atomic_uint32_t, %class.atomic_uint32_t* %105, i64 0, i32 0, !dbg !3657
  %107 = load i32, i32* %106, align 4, !dbg !3657, !tbaa !3647
  %108 = and i32 %107, %81, !dbg !3658
  %109 = icmp eq i32 %108, 0, !dbg !3659
  br i1 %109, label %111, label %110, !dbg !3660

110:                                              ; preds = %94, %103
  br label %111, !dbg !3660

111:                                              ; preds = %89, %83, %103, %110
  %112 = phi { i64, i64 } [ { i64 ptrtoint (i1 (%class.NotifierSignal*)* @_ZNK14NotifierSignal6activeEv to i64), i64 0 }, %110 ], [ zeroinitializer, %103 ], [ zeroinitializer, %83 ], [ zeroinitializer, %89 ]
  %113 = extractvalue { i64, i64 } %112, 0, !dbg !3522
  %114 = icmp eq i64 %113, 0, !dbg !3522
  br i1 %114, label %148, label %141, !dbg !3661

115:                                              ; preds = %31
  %116 = getelementptr inbounds %class.BandwidthRatedUnqueue, %class.BandwidthRatedUnqueue* %0, i64 0, i32 0, i32 3, !dbg !3662
  %117 = bitcast %class.Timestamp* %3 to i8*, !dbg !3664
  call void @llvm.lifetime.start.p0i8(i64 8, i8* nonnull %117) #13, !dbg !3664
  call void @llvm.dbg.value(metadata %class.TokenBucketX* %11, metadata !3665, metadata !DIExpression()), !dbg !3669
  call void @llvm.dbg.value(metadata i32 131072, metadata !3668, metadata !DIExpression()), !dbg !3669
  call void @llvm.dbg.value(metadata %class.TokenBucketX* %11, metadata !3671, metadata !DIExpression(DW_OP_plus_uconst, 12, DW_OP_stack_value)), !dbg !3676
  call void @llvm.dbg.value(metadata %class.TokenBucketX* %11, metadata !3674, metadata !DIExpression()), !dbg !3676
  call void @llvm.dbg.value(metadata i32 131072, metadata !3675, metadata !DIExpression()), !dbg !3676
  call void @llvm.dbg.value(metadata %class.TokenBucketX* %11, metadata !3371, metadata !DIExpression()), !dbg !3678
  call void @llvm.dbg.value(metadata %class.TokenBucketX* %11, metadata !3388, metadata !DIExpression()), !dbg !3681
  call void @llvm.dbg.value(metadata i32 131072, metadata !3395, metadata !DIExpression()) #13, !dbg !3683
  call void @llvm.dbg.value(metadata i32 %33, metadata !3402, metadata !DIExpression()) #13, !dbg !3683
  call void @llvm.dbg.value(metadata i32 %35, metadata !3385, metadata !DIExpression()), !dbg !3678
  br label %133, !dbg !3685

118:                                              ; preds = %37
  %119 = getelementptr inbounds %class.BandwidthRatedUnqueue, %class.BandwidthRatedUnqueue* %0, i64 0, i32 0, i32 3, !dbg !3662
  %120 = bitcast %class.Timestamp* %3 to i8*, !dbg !3664
  call void @llvm.lifetime.start.p0i8(i64 8, i8* nonnull %120) #13, !dbg !3664
  call void @llvm.dbg.value(metadata %class.TokenBucketX* %11, metadata !3665, metadata !DIExpression()), !dbg !3669
  call void @llvm.dbg.value(metadata i32 131072, metadata !3668, metadata !DIExpression()), !dbg !3669
  call void @llvm.dbg.value(metadata %class.TokenBucketX* %11, metadata !3671, metadata !DIExpression(DW_OP_plus_uconst, 12, DW_OP_stack_value)), !dbg !3676
  call void @llvm.dbg.value(metadata %class.TokenBucketX* %11, metadata !3674, metadata !DIExpression()), !dbg !3676
  call void @llvm.dbg.value(metadata i32 131072, metadata !3675, metadata !DIExpression()), !dbg !3676
  call void @llvm.dbg.value(metadata %class.TokenBucketX* %11, metadata !3371, metadata !DIExpression()), !dbg !3678
  call void @llvm.dbg.value(metadata %class.TokenBucketX* %11, metadata !3388, metadata !DIExpression()), !dbg !3681
  call void @llvm.dbg.value(metadata i32 131072, metadata !3395, metadata !DIExpression()) #13, !dbg !3683
  call void @llvm.dbg.value(metadata i32 %33, metadata !3402, metadata !DIExpression()) #13, !dbg !3683
  call void @llvm.dbg.value(metadata i32 %35, metadata !3385, metadata !DIExpression()), !dbg !3678
  call void @llvm.dbg.value(metadata %class.TokenBucketX* %11, metadata !3671, metadata !DIExpression(DW_OP_plus_uconst, 12, DW_OP_stack_value)), !dbg !3676
  call void @llvm.dbg.value(metadata i32 -1, metadata !3675, metadata !DIExpression()), !dbg !3676
  call void @llvm.dbg.value(metadata %class.TokenBucketX* %11, metadata !3686, metadata !DIExpression(DW_OP_plus_uconst, 12, DW_OP_stack_value)), !dbg !3691
  call void @llvm.dbg.value(metadata %class.TokenBucketX* %11, metadata !3689, metadata !DIExpression()), !dbg !3691
  call void @llvm.dbg.value(metadata i32 -1, metadata !3690, metadata !DIExpression()), !dbg !3691
  %121 = icmp eq i32 %18, 0, !dbg !3693
  call void @llvm.dbg.value(metadata %class.TokenBucketX* %11, metadata !3326, metadata !DIExpression()), !dbg !3695
  br i1 %121, label %133, label %122, !dbg !3697

122:                                              ; preds = %118
  call void @llvm.dbg.value(metadata %class.TokenBucketX* %11, metadata !3343, metadata !DIExpression()), !dbg !3698
  %123 = getelementptr inbounds %class.TokenBucketX, %class.TokenBucketX* %11, i64 0, i32 0, i32 0, !dbg !3701
  %124 = load i32, i32* %123, align 4, !dbg !3701, !tbaa !3349
  %125 = icmp eq i32 %124, 0, !dbg !3702
  br i1 %125, label %133, label %126, !dbg !3703

126:                                              ; preds = %122
  %127 = xor i32 %40, -1, !dbg !3704
  %128 = add i32 %38, %127, !dbg !3704
  call void @llvm.dbg.value(metadata %class.TokenBucketX* %11, metadata !3343, metadata !DIExpression()), !dbg !3705
  %129 = udiv i32 %128, %124, !dbg !3707
  %130 = add i32 %129, 1, !dbg !3708
  %131 = zext i32 %130 to i64, !dbg !3709
  %132 = mul nuw nsw i64 %131, 1000000, !dbg !3709
  br label %133, !dbg !3709

133:                                              ; preds = %118, %115, %122, %126
  %134 = phi i8* [ %117, %115 ], [ %120, %126 ], [ %120, %118 ], [ %120, %122 ]
  %135 = phi %class.Timer* [ %116, %115 ], [ %119, %126 ], [ %119, %118 ], [ %119, %122 ]
  %136 = phi i64 [ 4294967295000000, %115 ], [ %132, %126 ], [ 0, %118 ], [ 4294967295000000, %122 ]
  %137 = getelementptr inbounds %class.Timestamp, %class.Timestamp* %3, i64 0, i32 0, i32 0, !dbg !3664
  store i64 %136, i64* %137, align 8, !dbg !3664
  call void @_ZN5Timer14schedule_afterERK9Timestamp(%class.Timer* nonnull %135, %class.Timestamp* nonnull dereferenceable(8) %3), !dbg !3710
  call void @llvm.lifetime.end.p0i8(i64 8, i8* nonnull %134) #13, !dbg !3662
  %138 = getelementptr inbounds %class.BandwidthRatedUnqueue, %class.BandwidthRatedUnqueue* %0, i64 0, i32 0, i32 8, !dbg !3711
  %139 = load i32, i32* %138, align 4, !dbg !3712, !tbaa !3713
  %140 = add i32 %139, 1, !dbg !3712
  store i32 %140, i32* %138, align 4, !dbg !3712, !tbaa !3713
  br label %148, !dbg !3714

141:                                              ; preds = %111
  call void @llvm.dbg.value(metadata i8 undef, metadata !3179, metadata !DIExpression()), !dbg !3184
  call void @llvm.dbg.value(metadata i8 undef, metadata !3179, metadata !DIExpression()), !dbg !3184
  call void @llvm.dbg.value(metadata %class.BandwidthRatedUnqueue* %0, metadata !3508, metadata !DIExpression(DW_OP_plus_uconst, 128, DW_OP_stack_value)), !dbg !3511
  %142 = getelementptr inbounds %class.BandwidthRatedUnqueue, %class.BandwidthRatedUnqueue* %0, i64 0, i32 0, i32 2, i32 3, !dbg !3513
  %143 = bitcast %"union.Task::Status"* %142 to %struct.anon*, !dbg !3514
  %144 = getelementptr inbounds %struct.anon, %struct.anon* %143, i64 0, i32 1, !dbg !3514
  store i8 1, i8* %144, align 2, !dbg !3515, !tbaa !3516
  %145 = getelementptr inbounds %class.BandwidthRatedUnqueue, %class.BandwidthRatedUnqueue* %0, i64 0, i32 0, i32 8, !dbg !3715
  %146 = load i32, i32* %145, align 4, !dbg !3717, !tbaa !3713
  %147 = add i32 %146, 1, !dbg !3717
  store i32 %147, i32* %145, align 4, !dbg !3717, !tbaa !3713
  br label %148, !dbg !3715

148:                                              ; preds = %58, %111, %141, %2, %133
  %149 = phi i1 [ false, %133 ], [ false, %2 ], [ false, %141 ], [ false, %111 ], [ true, %58 ]
  ret i1 %149, !dbg !3718
}

; Function Attrs: argmemonly nounwind willreturn
declare void @llvm.lifetime.start.p0i8(i64 immarg, i8* nocapture) #3

; Function Attrs: noinline optnone sspstrong uwtable
define linkonce_odr dso_local dereferenceable(16) %"class.Element::Port"* @_ZNK7Element5inputEi(%class.Element* %0, i32 %1) local_unnamed_addr #4 comdat align 2 !dbg !3719 {
  %3 = alloca %class.Element*, align 8
  %4 = alloca i32, align 4
  store %class.Element* %0, %class.Element** %3, align 8, !tbaa !3730
  call void @llvm.dbg.declare(metadata %class.Element** %3, metadata !3727, metadata !DIExpression()), !dbg !3731
  store i32 %1, i32* %4, align 4, !tbaa !3732
  call void @llvm.dbg.declare(metadata i32* %4, metadata !3729, metadata !DIExpression()), !dbg !3733
  %5 = load %class.Element*, %class.Element** %3, align 8
  %6 = load i32, i32* %4, align 4, !dbg !3734, !tbaa !3732
  %7 = call dereferenceable(16) %"class.Element::Port"* @_ZNK7Element4portEbi(%class.Element* %5, i1 zeroext false, i32 %6), !dbg !3735
  ret %"class.Element::Port"* %7, !dbg !3736
}

declare i32 @_ZNK6Packet6lengthEv(%class.Packet*) local_unnamed_addr #2

; Function Attrs: noinline nounwind optnone sspstrong uwtable
define linkonce_odr dso_local dereferenceable(16) %"class.Element::Port"* @_ZNK7Element6outputEi(%class.Element* %0, i32 %1) local_unnamed_addr #5 comdat align 2 !dbg !3737 {
  %3 = alloca %class.Element*, align 8
  %4 = alloca i32, align 4
  store %class.Element* %0, %class.Element** %3, align 8, !tbaa !3730
  call void @llvm.dbg.declare(metadata %class.Element** %3, metadata !3740, metadata !DIExpression()), !dbg !3742
  store i32 %1, i32* %4, align 4, !tbaa !3732
  call void @llvm.dbg.declare(metadata i32* %4, metadata !3741, metadata !DIExpression()), !dbg !3743
  %5 = load %class.Element*, %class.Element** %3, align 8
  %6 = load i32, i32* %4, align 4, !dbg !3744, !tbaa !3732
  %7 = call dereferenceable(16) %"class.Element::Port"* @_ZNK7Element4portEbi(%class.Element* %5, i1 zeroext true, i32 %6), !dbg !3745
  ret %"class.Element::Port"* %7, !dbg !3746
}

; Function Attrs: noinline optnone sspstrong uwtable
define linkonce_odr dso_local void @_ZNK7Element4Port4pushEP6Packet(%"class.Element::Port"* %0, %class.Packet* %1) local_unnamed_addr #4 comdat align 2 !dbg !3747 {
  %3 = alloca %"class.Element::Port"*, align 8
  %4 = alloca %class.Packet*, align 8
  store %"class.Element::Port"* %0, %"class.Element::Port"** %3, align 8, !tbaa !3730
  call void @llvm.dbg.declare(metadata %"class.Element::Port"** %3, metadata !3749, metadata !DIExpression()), !dbg !3751
  store %class.Packet* %1, %class.Packet** %4, align 8, !tbaa !3730
  call void @llvm.dbg.declare(metadata %class.Packet** %4, metadata !3750, metadata !DIExpression()), !dbg !3752
  %5 = load %"class.Element::Port"*, %"class.Element::Port"** %3, align 8
  %6 = getelementptr inbounds %"class.Element::Port", %"class.Element::Port"* %5, i32 0, i32 0, !dbg !3753
  %7 = load %class.Element*, %class.Element** %6, align 8, !dbg !3753, !tbaa !3461
  %8 = icmp ne %class.Element* %7, null, !dbg !3753
  br i1 %8, label %9, label %12, !dbg !3753

9:                                                ; preds = %2
  %10 = load %class.Packet*, %class.Packet** %4, align 8, !dbg !3753, !tbaa !3730
  %11 = icmp ne %class.Packet* %10, null, !dbg !3753
  br label %12

12:                                               ; preds = %9, %2
  %13 = phi i1 [ false, %2 ], [ %11, %9 ], !dbg !3751
  br i1 %13, label %14, label %15, !dbg !3753

14:                                               ; preds = %12
  br label %16, !dbg !3753

15:                                               ; preds = %12
  call void @__assert_fail(i8* getelementptr inbounds ([8 x i8], [8 x i8]* @.str.3, i64 0, i64 0), i8* getelementptr inbounds ([30 x i8], [30 x i8]* @.str.1, i64 0, i64 0), i32 611, i8* getelementptr inbounds ([41 x i8], [41 x i8]* @__PRETTY_FUNCTION__._ZNK7Element4Port4pushEP6Packet, i64 0, i64 0)) #15, !dbg !3753
  unreachable, !dbg !3753

16:                                               ; preds = %14
  %17 = getelementptr inbounds %"class.Element::Port", %"class.Element::Port"* %5, i32 0, i32 0, !dbg !3754
  %18 = load %class.Element*, %class.Element** %17, align 8, !dbg !3754, !tbaa !3461
  %19 = getelementptr inbounds %"class.Element::Port", %"class.Element::Port"* %5, i32 0, i32 1, !dbg !3755
  %20 = load i32, i32* %19, align 8, !dbg !3755, !tbaa !3464
  %21 = load %class.Packet*, %class.Packet** %4, align 8, !dbg !3756, !tbaa !3730
  %22 = bitcast %class.Element* %18 to void (%class.Element*, i32, %class.Packet*)***, !dbg !3757
  %23 = load void (%class.Element*, i32, %class.Packet*)**, void (%class.Element*, i32, %class.Packet*)*** %22, align 8, !dbg !3757, !tbaa !3171
  %24 = getelementptr inbounds void (%class.Element*, i32, %class.Packet*)*, void (%class.Element*, i32, %class.Packet*)** %23, i64 2, !dbg !3757
  %25 = load void (%class.Element*, i32, %class.Packet*)*, void (%class.Element*, i32, %class.Packet*)** %24, align 8, !dbg !3757
  call void %25(%class.Element* %18, i32 %20, %class.Packet* %21), !dbg !3757
  ret void, !dbg !3758
}

; Function Attrs: argmemonly nounwind willreturn
declare void @llvm.lifetime.end.p0i8(i64 immarg, i8* nocapture) #3

declare void @_ZN5Timer14schedule_afterERK9Timestamp(%class.Timer*, %class.Timestamp* dereferenceable(8)) local_unnamed_addr #2

; Function Attrs: inlinehint nounwind sspstrong uwtable
define linkonce_odr dso_local void @_ZN12RatedUnqueueD2Ev(%class.RatedUnqueue* %0) unnamed_addr #6 comdat align 2 personality i32 (...)* @__gxx_personality_v0 !dbg !3759 {
  call void @llvm.dbg.value(metadata %class.RatedUnqueue* %0, metadata !3765, metadata !DIExpression()), !dbg !3767
  %2 = getelementptr %class.RatedUnqueue, %class.RatedUnqueue* %0, i64 0, i32 0, i32 0, !dbg !3768
  store i32 (...)** bitcast (i8** getelementptr inbounds ({ [29 x i8*] }, { [29 x i8*] }* @_ZTV12RatedUnqueue, i64 0, inrange i32 0, i64 2) to i32 (...)**), i32 (...)*** %2, align 8, !dbg !3768, !tbaa !3171
  call void @llvm.dbg.value(metadata %class.RatedUnqueue* %0, metadata !3769, metadata !DIExpression(DW_OP_plus_uconst, 248, DW_OP_stack_value)) #13, !dbg !3773
  %3 = getelementptr inbounds %class.RatedUnqueue, %class.RatedUnqueue* %0, i64 0, i32 4, i32 1, !dbg !3776
  %4 = load i32, i32* %3, align 8, !dbg !3776, !tbaa !3617
  %5 = icmp eq i32 %4, 0, !dbg !3776
  br i1 %5, label %6, label %13, !dbg !3779, !prof !3619, !misexpect !3780

6:                                                ; preds = %1
  %7 = getelementptr inbounds %class.RatedUnqueue, %class.RatedUnqueue* %0, i64 0, i32 4, !dbg !3781
  call void @llvm.dbg.value(metadata %class.NotifierSignal* %7, metadata !3769, metadata !DIExpression()) #13, !dbg !3773
  %8 = bitcast %class.NotifierSignal* %7 to %"struct.NotifierSignal::vmpair"**, !dbg !3782
  %9 = load %"struct.NotifierSignal::vmpair"*, %"struct.NotifierSignal::vmpair"** %8, align 8, !dbg !3782, !tbaa !3516
  %10 = icmp eq %"struct.NotifierSignal::vmpair"* %9, null, !dbg !3783
  br i1 %10, label %13, label %11, !dbg !3783

11:                                               ; preds = %6
  %12 = bitcast %"struct.NotifierSignal::vmpair"* %9 to i8*, !dbg !3783
  tail call void @_ZdaPv(i8* %12) #16, !dbg !3783
  br label %13, !dbg !3783

13:                                               ; preds = %1, %6, %11
  %14 = getelementptr inbounds %class.RatedUnqueue, %class.RatedUnqueue* %0, i64 0, i32 3, !dbg !3781
  call void @llvm.dbg.value(metadata %class.Timer* %14, metadata !3784, metadata !DIExpression()) #13, !dbg !3787
  call void @llvm.dbg.value(metadata %class.Timer* %14, metadata !3789, metadata !DIExpression()) #13, !dbg !3793
  %15 = getelementptr inbounds %class.Timer, %class.Timer* %14, i64 0, i32 0, !dbg !3797
  %16 = load i32, i32* %15, align 8, !dbg !3797, !tbaa !3798
  %17 = icmp eq i32 %16, 0, !dbg !3799
  br i1 %17, label %22, label %18, !dbg !3800

18:                                               ; preds = %13
  invoke void @_ZN5Timer10unscheduleEv(%class.Timer* nonnull %14)
          to label %22 unwind label %19, !dbg !3801

19:                                               ; preds = %18
  %20 = landingpad { i8*, i32 }
          catch i8* null, !dbg !3802
  %21 = extractvalue { i8*, i32 } %20, 0, !dbg !3802
  tail call void @__clang_call_terminate(i8* %21) #15, !dbg !3802
  unreachable, !dbg !3802

22:                                               ; preds = %13, %18
  %23 = getelementptr inbounds %class.RatedUnqueue, %class.RatedUnqueue* %0, i64 0, i32 2, !dbg !3781
  tail call void @_ZN4TaskD1Ev(%class.Task* nonnull %23) #13, !dbg !3781
  %24 = bitcast %class.RatedUnqueue* %0 to %class.Element*, !dbg !3781
  tail call void @_ZN7ElementD2Ev(%class.Element* %24) #13, !dbg !3781
  ret void, !dbg !3768
}

; Function Attrs: inlinehint nounwind sspstrong uwtable
define linkonce_odr dso_local void @_ZN21BandwidthRatedUnqueueD0Ev(%class.BandwidthRatedUnqueue* %0) unnamed_addr #6 comdat align 2 personality i32 (...)* @__gxx_personality_v0 !dbg !3803 {
  call void @llvm.dbg.value(metadata %class.BandwidthRatedUnqueue* %0, metadata !3806, metadata !DIExpression()), !dbg !3807
  call void @llvm.dbg.value(metadata %class.BandwidthRatedUnqueue* %0, metadata !3765, metadata !DIExpression()) #13, !dbg !3808
  %2 = getelementptr %class.BandwidthRatedUnqueue, %class.BandwidthRatedUnqueue* %0, i64 0, i32 0, i32 0, i32 0, !dbg !3810
  store i32 (...)** bitcast (i8** getelementptr inbounds ({ [29 x i8*] }, { [29 x i8*] }* @_ZTV12RatedUnqueue, i64 0, inrange i32 0, i64 2) to i32 (...)**), i32 (...)*** %2, align 8, !dbg !3810, !tbaa !3171
  call void @llvm.dbg.value(metadata %class.BandwidthRatedUnqueue* %0, metadata !3769, metadata !DIExpression(DW_OP_plus_uconst, 248, DW_OP_stack_value)) #13, !dbg !3811
  %3 = getelementptr inbounds %class.BandwidthRatedUnqueue, %class.BandwidthRatedUnqueue* %0, i64 0, i32 0, i32 4, i32 1, !dbg !3813
  %4 = load i32, i32* %3, align 8, !dbg !3813, !tbaa !3617
  %5 = icmp eq i32 %4, 0, !dbg !3813
  br i1 %5, label %6, label %13, !dbg !3814, !prof !3619, !misexpect !3780

6:                                                ; preds = %1
  call void @llvm.dbg.value(metadata %class.BandwidthRatedUnqueue* %0, metadata !3765, metadata !DIExpression()) #13, !dbg !3808
  call void @llvm.dbg.value(metadata %class.BandwidthRatedUnqueue* %0, metadata !3769, metadata !DIExpression(DW_OP_plus_uconst, 248, DW_OP_stack_value)) #13, !dbg !3811
  %7 = getelementptr inbounds %class.BandwidthRatedUnqueue, %class.BandwidthRatedUnqueue* %0, i64 0, i32 0, i32 4, !dbg !3815
  call void @llvm.dbg.value(metadata %class.NotifierSignal* %7, metadata !3769, metadata !DIExpression()) #13, !dbg !3811
  %8 = bitcast %class.NotifierSignal* %7 to %"struct.NotifierSignal::vmpair"**, !dbg !3816
  %9 = load %"struct.NotifierSignal::vmpair"*, %"struct.NotifierSignal::vmpair"** %8, align 8, !dbg !3816, !tbaa !3516
  %10 = icmp eq %"struct.NotifierSignal::vmpair"* %9, null, !dbg !3817
  br i1 %10, label %13, label %11, !dbg !3817

11:                                               ; preds = %6
  %12 = bitcast %"struct.NotifierSignal::vmpair"* %9 to i8*, !dbg !3817
  tail call void @_ZdaPv(i8* %12) #16, !dbg !3817
  br label %13, !dbg !3817

13:                                               ; preds = %11, %6, %1
  %14 = getelementptr inbounds %class.BandwidthRatedUnqueue, %class.BandwidthRatedUnqueue* %0, i64 0, i32 0, i32 3, !dbg !3815
  call void @llvm.dbg.value(metadata %class.Timer* %14, metadata !3784, metadata !DIExpression()) #13, !dbg !3818
  call void @llvm.dbg.value(metadata %class.Timer* %14, metadata !3789, metadata !DIExpression()) #13, !dbg !3820
  %15 = getelementptr inbounds %class.Timer, %class.Timer* %14, i64 0, i32 0, !dbg !3822
  %16 = load i32, i32* %15, align 8, !dbg !3822, !tbaa !3798
  %17 = icmp eq i32 %16, 0, !dbg !3823
  br i1 %17, label %22, label %18, !dbg !3824

18:                                               ; preds = %13
  invoke void @_ZN5Timer10unscheduleEv(%class.Timer* nonnull %14)
          to label %22 unwind label %19, !dbg !3825

19:                                               ; preds = %18
  %20 = landingpad { i8*, i32 }
          catch i8* null, !dbg !3826
  %21 = extractvalue { i8*, i32 } %20, 0, !dbg !3826
  tail call void @__clang_call_terminate(i8* %21) #15, !dbg !3826
  unreachable, !dbg !3826

22:                                               ; preds = %13, %18
  %23 = getelementptr inbounds %class.BandwidthRatedUnqueue, %class.BandwidthRatedUnqueue* %0, i64 0, i32 0, i32 2, !dbg !3815
  tail call void @_ZN4TaskD1Ev(%class.Task* nonnull %23) #13, !dbg !3815
  %24 = bitcast %class.BandwidthRatedUnqueue* %0 to %class.Element*, !dbg !3815
  tail call void @_ZN7ElementD2Ev(%class.Element* %24) #13, !dbg !3815
  %25 = bitcast %class.BandwidthRatedUnqueue* %0 to i8*, !dbg !3827
  tail call void @_ZdlPv(i8* %25) #16, !dbg !3827
  ret void, !dbg !3827
}

declare void @_ZN7Element4pushEiP6Packet(%class.Element*, i32, %class.Packet*) unnamed_addr #2

declare %class.Packet* @_ZN7Element4pullEi(%class.Element*, i32) unnamed_addr #2

declare %class.Packet* @_ZN7Element13simple_actionEP6Packet(%class.Element*, %class.Packet*) unnamed_addr #2

declare void @_ZN7Element9run_timerEP5Timer(%class.Element*, %class.Timer*) unnamed_addr #2

declare void @_ZN7Element8selectedEii(%class.Element*, i32, i32) unnamed_addr #2

declare void @_ZN7Element8selectedEi(%class.Element*, i32) unnamed_addr #2

; Function Attrs: nounwind sspstrong uwtable
define linkonce_odr dso_local i8* @_ZNK21BandwidthRatedUnqueue10class_nameEv(%class.BandwidthRatedUnqueue* %0) unnamed_addr #7 comdat align 2 !dbg !3828 {
  call void @llvm.dbg.value(metadata %class.BandwidthRatedUnqueue* %0, metadata !3830, metadata !DIExpression()), !dbg !3832
  ret i8* getelementptr inbounds ([22 x i8], [22 x i8]* @.str.4, i64 0, i64 0), !dbg !3833
}

; Function Attrs: nounwind sspstrong uwtable
define linkonce_odr dso_local i8* @_ZNK12RatedUnqueue10port_countEv(%class.RatedUnqueue* %0) unnamed_addr #7 comdat align 2 !dbg !3834 {
  call void @llvm.dbg.value(metadata %class.RatedUnqueue* %0, metadata !3841, metadata !DIExpression()), !dbg !3843
  ret i8* getelementptr inbounds ([0 x i8], [0 x i8]* @_ZN7Element9PORTS_1_1E, i64 0, i64 0), !dbg !3844
}

; Function Attrs: nounwind sspstrong uwtable
define linkonce_odr dso_local i8* @_ZNK12RatedUnqueue10processingEv(%class.RatedUnqueue* %0) unnamed_addr #7 comdat align 2 !dbg !3845 {
  call void @llvm.dbg.value(metadata %class.RatedUnqueue* %0, metadata !3848, metadata !DIExpression()), !dbg !3849
  ret i8* getelementptr inbounds ([0 x i8], [0 x i8]* @_ZN7Element12PULL_TO_PUSHE, i64 0, i64 0), !dbg !3850
}

declare i8* @_ZNK7Element9flow_codeEv(%class.Element*) unnamed_addr #2

declare i8* @_ZNK7Element5flagsEv(%class.Element*) unnamed_addr #2

declare i8* @_ZN7Element4castEPKc(%class.Element*, i8*) unnamed_addr #2

declare i8* @_ZN7Element9port_castEbiPKc(%class.Element*, i1 zeroext, i32, i8*) unnamed_addr #2

declare i32 @_ZNK7Element15configure_phaseEv(%class.Element*) unnamed_addr #2

declare i32 @_ZN12RatedUnqueue9configureER6VectorI6StringEP12ErrorHandler(%class.RatedUnqueue*, %class.Vector.7* nonnull, %class.ErrorHandler*) unnamed_addr #2

declare void @_ZN12RatedUnqueue12add_handlersEv(%class.RatedUnqueue*) unnamed_addr #2

declare i32 @_ZN12RatedUnqueue10initializeEP12ErrorHandler(%class.RatedUnqueue*, %class.ErrorHandler*) unnamed_addr #2

declare void @_ZN7Element10take_stateEPS_P12ErrorHandler(%class.Element*, %class.Element*, %class.ErrorHandler*) unnamed_addr #2

declare %class.Element* @_ZNK7Element15hotswap_elementEv(%class.Element*) unnamed_addr #2

declare void @_ZN7Element7cleanupENS_12CleanupStageE(%class.Element*, i32) unnamed_addr #2

declare void @_ZNK7Element11declarationEv(%class.String* sret, %class.Element*) unnamed_addr #2

; Function Attrs: nounwind sspstrong uwtable
define linkonce_odr dso_local zeroext i1 @_ZNK12RatedUnqueue20can_live_reconfigureEv(%class.RatedUnqueue* %0) unnamed_addr #7 comdat align 2 !dbg !3851 {
  call void @llvm.dbg.value(metadata %class.RatedUnqueue* %0, metadata !3856, metadata !DIExpression()), !dbg !3857
  ret i1 true, !dbg !3858
}

declare i32 @_ZN7Element16live_reconfigureER6VectorI6StringEP12ErrorHandler(%class.Element*, %class.Vector.7* nonnull, %class.ErrorHandler*) unnamed_addr #2

declare i32 @_ZN7Element5llrpcEjPv(%class.Element*, i32, i8*) unnamed_addr #2

; Function Attrs: noinline nounwind optnone sspstrong uwtable
define linkonce_odr dso_local dereferenceable(16) %"class.Element::Port"* @_ZNK7Element4portEbi(%class.Element* %0, i1 zeroext %1, i32 %2) local_unnamed_addr #5 comdat align 2 !dbg !3859 {
  %4 = alloca %class.Element*, align 8
  %5 = alloca i8, align 1
  %6 = alloca i32, align 4
  store %class.Element* %0, %class.Element** %4, align 8, !tbaa !3730
  call void @llvm.dbg.declare(metadata %class.Element** %4, metadata !3864, metadata !DIExpression()), !dbg !3867
  %7 = zext i1 %1 to i8
  store i8 %7, i8* %5, align 1, !tbaa !3868
  call void @llvm.dbg.declare(metadata i8* %5, metadata !3865, metadata !DIExpression()), !dbg !3869
  store i32 %2, i32* %6, align 4, !tbaa !3732
  call void @llvm.dbg.declare(metadata i32* %6, metadata !3866, metadata !DIExpression()), !dbg !3870
  %8 = load %class.Element*, %class.Element** %4, align 8
  %9 = load i32, i32* %6, align 4, !dbg !3871, !tbaa !3732
  %10 = getelementptr inbounds %class.Element, %class.Element* %8, i32 0, i32 3, !dbg !3871
  %11 = load i8, i8* %5, align 1, !dbg !3871, !tbaa !3868, !range !3203
  %12 = trunc i8 %11 to i1, !dbg !3871
  %13 = zext i1 %12 to i64, !dbg !3871
  %14 = getelementptr inbounds [2 x i32], [2 x i32]* %10, i64 0, i64 %13, !dbg !3871
  %15 = load i32, i32* %14, align 4, !dbg !3871, !tbaa !3732
  %16 = icmp ult i32 %9, %15, !dbg !3871
  br i1 %16, label %17, label %18, !dbg !3871

17:                                               ; preds = %3
  br label %19, !dbg !3871

18:                                               ; preds = %3
  call void @__assert_fail(i8* getelementptr inbounds ([47 x i8], [47 x i8]* @.str, i64 0, i64 0), i8* getelementptr inbounds ([30 x i8], [30 x i8]* @.str.1, i64 0, i64 0), i32 437, i8* getelementptr inbounds ([52 x i8], [52 x i8]* @__PRETTY_FUNCTION__._ZNK7Element4portEbi, i64 0, i64 0)) #15, !dbg !3871
  unreachable, !dbg !3871

19:                                               ; preds = %17
  %20 = getelementptr inbounds %class.Element, %class.Element* %8, i32 0, i32 1, !dbg !3872
  %21 = load i8, i8* %5, align 1, !dbg !3873, !tbaa !3868, !range !3203
  %22 = trunc i8 %21 to i1, !dbg !3873
  %23 = zext i1 %22 to i64, !dbg !3872
  %24 = getelementptr inbounds [2 x %"class.Element::Port"*], [2 x %"class.Element::Port"*]* %20, i64 0, i64 %23, !dbg !3872
  %25 = load %"class.Element::Port"*, %"class.Element::Port"** %24, align 8, !dbg !3872, !tbaa !3730
  %26 = load i32, i32* %6, align 4, !dbg !3874, !tbaa !3732
  %27 = sext i32 %26 to i64, !dbg !3872
  %28 = getelementptr inbounds %"class.Element::Port", %"class.Element::Port"* %25, i64 %27, !dbg !3872
  ret %"class.Element::Port"* %28, !dbg !3875
}

; Function Attrs: noreturn nounwind
declare void @__assert_fail(i8*, i8*, i32, i8*) local_unnamed_addr #8

; Function Attrs: inlinehint sspstrong uwtable
define linkonce_odr dso_local zeroext i1 @_ZNK14NotifierSignal6activeEv(%class.NotifierSignal* %0) #9 comdat align 2 !dbg !3601 {
  call void @llvm.dbg.value(metadata %class.NotifierSignal* %0, metadata !3600, metadata !DIExpression()), !dbg !3876
  tail call void asm sideeffect "", "~{memory},~{dirflag},~{fpsr},~{flags}"() #13, !dbg !3877, !srcloc !3615
  %2 = getelementptr inbounds %class.NotifierSignal, %class.NotifierSignal* %0, i64 0, i32 1, !dbg !3880
  %3 = load i32, i32* %2, align 8, !dbg !3880, !tbaa !3617
  %4 = icmp eq i32 %3, 0, !dbg !3880
  br i1 %4, label %12, label %5, !dbg !3881, !prof !3619, !misexpect !3620

5:                                                ; preds = %1
  %6 = getelementptr inbounds %class.NotifierSignal, %class.NotifierSignal* %0, i64 0, i32 0, i32 0, !dbg !3882
  %7 = load %class.atomic_uint32_t*, %class.atomic_uint32_t** %6, align 8, !dbg !3882, !tbaa !3516
  call void @llvm.dbg.value(metadata %class.atomic_uint32_t* %7, metadata !3635, metadata !DIExpression()), !dbg !3883
  call void @llvm.dbg.value(metadata %class.atomic_uint32_t* %7, metadata !3641, metadata !DIExpression()), !dbg !3885
  %8 = getelementptr inbounds %class.atomic_uint32_t, %class.atomic_uint32_t* %7, i64 0, i32 0, !dbg !3887
  %9 = load i32, i32* %8, align 4, !dbg !3887, !tbaa !3647
  %10 = and i32 %9, %3, !dbg !3888
  %11 = icmp ne i32 %10, 0, !dbg !3889
  ret i1 %11, !dbg !3890

12:                                               ; preds = %1
  %13 = bitcast %class.NotifierSignal* %0 to %"struct.NotifierSignal::vmpair"**, !dbg !3891
  %14 = load %"struct.NotifierSignal::vmpair"*, %"struct.NotifierSignal::vmpair"** %13, align 8, !dbg !3891, !tbaa !3516
  call void @llvm.dbg.value(metadata %"struct.NotifierSignal::vmpair"* %14, metadata !3603, metadata !DIExpression()), !dbg !3892
  %15 = getelementptr inbounds %"struct.NotifierSignal::vmpair", %"struct.NotifierSignal::vmpair"* %14, i64 0, i32 1, !dbg !3893
  %16 = load i32, i32* %15, align 8, !dbg !3893, !tbaa !3625
  %17 = icmp eq i32 %16, 0, !dbg !3894
  br i1 %17, label %32, label %23, !dbg !3895

18:                                               ; preds = %23
  %19 = getelementptr inbounds %"struct.NotifierSignal::vmpair", %"struct.NotifierSignal::vmpair"* %25, i64 1, !dbg !3896
  call void @llvm.dbg.value(metadata %"struct.NotifierSignal::vmpair"* %19, metadata !3603, metadata !DIExpression()), !dbg !3892
  call void @llvm.dbg.value(metadata %"struct.NotifierSignal::vmpair"* %19, metadata !3603, metadata !DIExpression()), !dbg !3892
  %20 = getelementptr inbounds %"struct.NotifierSignal::vmpair", %"struct.NotifierSignal::vmpair"* %25, i64 1, i32 1, !dbg !3893
  %21 = load i32, i32* %20, align 8, !dbg !3893, !tbaa !3625
  %22 = icmp eq i32 %21, 0, !dbg !3894
  br i1 %22, label %32, label %23, !dbg !3895, !llvm.loop !3897

23:                                               ; preds = %12, %18
  %24 = phi i32 [ %21, %18 ], [ %16, %12 ]
  %25 = phi %"struct.NotifierSignal::vmpair"* [ %19, %18 ], [ %14, %12 ]
  call void @llvm.dbg.value(metadata %"struct.NotifierSignal::vmpair"* %25, metadata !3603, metadata !DIExpression()), !dbg !3892
  %26 = getelementptr inbounds %"struct.NotifierSignal::vmpair", %"struct.NotifierSignal::vmpair"* %25, i64 0, i32 0, !dbg !3899
  %27 = load %class.atomic_uint32_t*, %class.atomic_uint32_t** %26, align 8, !dbg !3899, !tbaa !3634
  call void @llvm.dbg.value(metadata %class.atomic_uint32_t* %27, metadata !3635, metadata !DIExpression()), !dbg !3900
  call void @llvm.dbg.value(metadata %class.atomic_uint32_t* %27, metadata !3641, metadata !DIExpression()), !dbg !3902
  %28 = getelementptr inbounds %class.atomic_uint32_t, %class.atomic_uint32_t* %27, i64 0, i32 0, !dbg !3904
  %29 = load i32, i32* %28, align 4, !dbg !3904, !tbaa !3647
  %30 = and i32 %29, %24, !dbg !3905
  %31 = icmp eq i32 %30, 0, !dbg !3906
  call void @llvm.dbg.value(metadata %"struct.NotifierSignal::vmpair"* %25, metadata !3603, metadata !DIExpression(DW_OP_plus_uconst, 16, DW_OP_stack_value)), !dbg !3892
  br i1 %31, label %18, label %32, !dbg !3907

32:                                               ; preds = %23, %18, %12
  %33 = phi i1 [ false, %12 ], [ false, %18 ], [ true, %23 ]
  ret i1 %33
}

; Function Attrs: nounwind
declare void @_ZN4TaskD1Ev(%class.Task*) unnamed_addr #10

; Function Attrs: nounwind
declare void @_ZN7ElementD2Ev(%class.Element*) unnamed_addr #10

; Function Attrs: nobuiltin nounwind
declare void @_ZdaPv(i8*) local_unnamed_addr #11

declare i32 @__gxx_personality_v0(...)

; Function Attrs: noinline noreturn nounwind
define linkonce_odr hidden void @__clang_call_terminate(i8* %0) local_unnamed_addr #12 comdat {
  %2 = tail call i8* @__cxa_begin_catch(i8* %0) #13
  tail call void @_ZSt9terminatev() #15
  unreachable
}

declare i8* @__cxa_begin_catch(i8*) local_unnamed_addr

declare void @_ZSt9terminatev() local_unnamed_addr

declare void @_ZN5Timer10unscheduleEv(%class.Timer*) local_unnamed_addr #2

; Function Attrs: nobuiltin nounwind
declare void @_ZdlPv(i8*) local_unnamed_addr #11

declare !dbg !1350 i32 @_Z13click_jiffiesv() local_unnamed_addr #2

; Function Attrs: nounwind readnone speculatable willreturn
declare void @llvm.dbg.value(metadata, metadata, metadata) #1

; Function Attrs: nounwind readnone speculatable willreturn
declare i32 @llvm.usub.sat.i32(i32, i32) #1

; Function Attrs: nounwind readnone speculatable willreturn
declare i32 @llvm.uadd.sat.i32(i32, i32) #1

attributes #0 = { sspstrong uwtable "correctly-rounded-divide-sqrt-fp-math"="false" "disable-tail-calls"="false" "frame-pointer"="none" "less-precise-fpmad"="false" "min-legal-vector-width"="0" "no-infs-fp-math"="false" "no-jump-tables"="false" "no-nans-fp-math"="false" "no-signed-zeros-fp-math"="false" "no-trapping-math"="false" "stack-protector-buffer-size"="8" "target-cpu"="x86-64" "target-features"="+cx8,+fxsr,+mmx,+sse,+sse2,+x87" "unsafe-fp-math"="false" "use-soft-float"="false" }
attributes #1 = { nounwind readnone speculatable willreturn }
attributes #2 = { "correctly-rounded-divide-sqrt-fp-math"="false" "disable-tail-calls"="false" "frame-pointer"="none" "less-precise-fpmad"="false" "no-infs-fp-math"="false" "no-nans-fp-math"="false" "no-signed-zeros-fp-math"="false" "no-trapping-math"="false" "stack-protector-buffer-size"="8" "target-cpu"="x86-64" "target-features"="+cx8,+fxsr,+mmx,+sse,+sse2,+x87" "unsafe-fp-math"="false" "use-soft-float"="false" }
attributes #3 = { argmemonly nounwind willreturn }
attributes #4 = { noinline optnone sspstrong uwtable "correctly-rounded-divide-sqrt-fp-math"="false" "disable-tail-calls"="false" "frame-pointer"="none" "less-precise-fpmad"="false" "min-legal-vector-width"="0" "no-infs-fp-math"="false" "no-jump-tables"="false" "no-nans-fp-math"="false" "no-signed-zeros-fp-math"="false" "no-trapping-math"="false" "stack-protector-buffer-size"="8" "target-cpu"="x86-64" "target-features"="+cx8,+fxsr,+mmx,+sse,+sse2,+x87" "unsafe-fp-math"="false" "use-soft-float"="false" }
attributes #5 = { noinline nounwind optnone sspstrong uwtable "correctly-rounded-divide-sqrt-fp-math"="false" "disable-tail-calls"="false" "frame-pointer"="none" "less-precise-fpmad"="false" "min-legal-vector-width"="0" "no-infs-fp-math"="false" "no-jump-tables"="false" "no-nans-fp-math"="false" "no-signed-zeros-fp-math"="false" "no-trapping-math"="false" "stack-protector-buffer-size"="8" "target-cpu"="x86-64" "target-features"="+cx8,+fxsr,+mmx,+sse,+sse2,+x87" "unsafe-fp-math"="false" "use-soft-float"="false" }
attributes #6 = { inlinehint nounwind sspstrong uwtable "correctly-rounded-divide-sqrt-fp-math"="false" "disable-tail-calls"="false" "frame-pointer"="none" "less-precise-fpmad"="false" "min-legal-vector-width"="0" "no-infs-fp-math"="false" "no-jump-tables"="false" "no-nans-fp-math"="false" "no-signed-zeros-fp-math"="false" "no-trapping-math"="false" "stack-protector-buffer-size"="8" "target-cpu"="x86-64" "target-features"="+cx8,+fxsr,+mmx,+sse,+sse2,+x87" "unsafe-fp-math"="false" "use-soft-float"="false" }
attributes #7 = { nounwind sspstrong uwtable "correctly-rounded-divide-sqrt-fp-math"="false" "disable-tail-calls"="false" "frame-pointer"="none" "less-precise-fpmad"="false" "min-legal-vector-width"="0" "no-infs-fp-math"="false" "no-jump-tables"="false" "no-nans-fp-math"="false" "no-signed-zeros-fp-math"="false" "no-trapping-math"="false" "stack-protector-buffer-size"="8" "target-cpu"="x86-64" "target-features"="+cx8,+fxsr,+mmx,+sse,+sse2,+x87" "unsafe-fp-math"="false" "use-soft-float"="false" }
attributes #8 = { noreturn nounwind "correctly-rounded-divide-sqrt-fp-math"="false" "disable-tail-calls"="false" "frame-pointer"="none" "less-precise-fpmad"="false" "no-infs-fp-math"="false" "no-nans-fp-math"="false" "no-signed-zeros-fp-math"="false" "no-trapping-math"="false" "stack-protector-buffer-size"="8" "target-cpu"="x86-64" "target-features"="+cx8,+fxsr,+mmx,+sse,+sse2,+x87" "unsafe-fp-math"="false" "use-soft-float"="false" }
attributes #9 = { inlinehint sspstrong uwtable "correctly-rounded-divide-sqrt-fp-math"="false" "disable-tail-calls"="false" "frame-pointer"="none" "less-precise-fpmad"="false" "min-legal-vector-width"="0" "no-infs-fp-math"="false" "no-jump-tables"="false" "no-nans-fp-math"="false" "no-signed-zeros-fp-math"="false" "no-trapping-math"="false" "stack-protector-buffer-size"="8" "target-cpu"="x86-64" "target-features"="+cx8,+fxsr,+mmx,+sse,+sse2,+x87" "unsafe-fp-math"="false" "use-soft-float"="false" }
attributes #10 = { nounwind "correctly-rounded-divide-sqrt-fp-math"="false" "disable-tail-calls"="false" "frame-pointer"="none" "less-precise-fpmad"="false" "no-infs-fp-math"="false" "no-nans-fp-math"="false" "no-signed-zeros-fp-math"="false" "no-trapping-math"="false" "stack-protector-buffer-size"="8" "target-cpu"="x86-64" "target-features"="+cx8,+fxsr,+mmx,+sse,+sse2,+x87" "unsafe-fp-math"="false" "use-soft-float"="false" }
attributes #11 = { nobuiltin nounwind "correctly-rounded-divide-sqrt-fp-math"="false" "disable-tail-calls"="false" "frame-pointer"="none" "less-precise-fpmad"="false" "no-infs-fp-math"="false" "no-nans-fp-math"="false" "no-signed-zeros-fp-math"="false" "no-trapping-math"="false" "stack-protector-buffer-size"="8" "target-cpu"="x86-64" "target-features"="+cx8,+fxsr,+mmx,+sse,+sse2,+x87" "unsafe-fp-math"="false" "use-soft-float"="false" }
attributes #12 = { noinline noreturn nounwind }
attributes #13 = { nounwind }
attributes #14 = { nounwind readnone }
attributes #15 = { noreturn nounwind }
attributes #16 = { builtin nounwind }

!llvm.dbg.cu = !{!0}
!llvm.module.flags = !{!1974, !1975, !1976, !1977, !1978}
!llvm.ident = !{!1979}

!0 = distinct !DICompileUnit(language: DW_LANG_C_plus_plus_14, file: !1, producer: "clang version 10.0.0 ", isOptimized: true, runtimeVersion: 0, emissionKind: FullDebug, enums: !2, retainedTypes: !1349, imports: !1351, splitDebugInlining: false, nameTableKind: None)
!1 = !DIFile(filename: "../elements/standard/bwratedunqueue.cc", directory: "/home/john/projects/click/ir-dir")
!2 = !{!3, !538, !543, !1167, !1178, !1348}
!3 = !DICompositeType(tag: DW_TAG_enumeration_type, name: "warp_class_type", scope: !5, file: !4, line: 571, baseType: !26, size: 32, elements: !533, identifier: "_ZTSN9Timestamp15warp_class_typeE")
!4 = !DIFile(filename: "../dummy_inc/click/timestamp.hh", directory: "/home/john/projects/click/ir-dir")
!5 = distinct !DICompositeType(tag: DW_TAG_class_type, name: "Timestamp", file: !4, line: 122, size: 64, flags: DIFlagTypePassByValue | DIFlagNonTrivial, elements: !6, identifier: "_ZTS9Timestamp")
!6 = !{!7, !16, !20, !27, !31, !35, !38, !42, !54, !65, !70, !79, !91, !95, !96, !99, !100, !101, !102, !105, !108, !109, !110, !111, !114, !115, !118, !121, !125, !126, !127, !130, !131, !132, !137, !141, !144, !147, !150, !153, !154, !155, !156, !157, !160, !161, !164, !165, !166, !167, !168, !169, !170, !173, !174, !175, !176, !177, !178, !179, !180, !181, !481, !482, !485, !486, !487, !488, !489, !490, !491, !494, !497, !501, !502, !505, !508, !509, !510, !511, !512, !513, !514, !517, !521, !524, !527, !530}
!7 = !DIDerivedType(tag: DW_TAG_member, name: "_t", scope: !5, file: !4, line: 672, baseType: !8, size: 64)
!8 = distinct !DICompositeType(tag: DW_TAG_union_type, name: "rep_t", scope: !5, file: !4, line: 539, size: 64, flags: DIFlagTypePassByValue, elements: !9, identifier: "_ZTSN9Timestamp5rep_tE")
!9 = !{!10}
!10 = !DIDerivedType(tag: DW_TAG_member, name: "x", scope: !8, file: !4, line: 541, baseType: !11, size: 64)
!11 = !DIDerivedType(tag: DW_TAG_typedef, name: "int64_t", file: !12, line: 27, baseType: !13)
!12 = !DIFile(filename: "/usr/include/bits/stdint-intn.h", directory: "")
!13 = !DIDerivedType(tag: DW_TAG_typedef, name: "__int64_t", file: !14, line: 44, baseType: !15)
!14 = !DIFile(filename: "/usr/include/bits/types.h", directory: "")
!15 = !DIBasicType(name: "long int", size: 64, encoding: DW_ATE_signed)
!16 = !DISubprogram(name: "Timestamp", scope: !5, file: !4, line: 174, type: !17, scopeLine: 174, flags: DIFlagPublic | DIFlagPrototyped, spFlags: DISPFlagOptimized)
!17 = !DISubroutineType(types: !18)
!18 = !{null, !19}
!19 = !DIDerivedType(tag: DW_TAG_pointer_type, baseType: !5, size: 64, flags: DIFlagArtificial | DIFlagObjectPointer)
!20 = !DISubprogram(name: "Timestamp", scope: !5, file: !4, line: 187, type: !21, scopeLine: 187, flags: DIFlagPublic | DIFlagExplicit | DIFlagPrototyped, spFlags: DISPFlagOptimized)
!21 = !DISubroutineType(types: !22)
!22 = !{null, !19, !15, !23}
!23 = !DIDerivedType(tag: DW_TAG_typedef, name: "uint32_t", file: !24, line: 26, baseType: !25)
!24 = !DIFile(filename: "/usr/include/bits/stdint-uintn.h", directory: "")
!25 = !DIDerivedType(tag: DW_TAG_typedef, name: "__uint32_t", file: !14, line: 42, baseType: !26)
!26 = !DIBasicType(name: "unsigned int", size: 32, encoding: DW_ATE_unsigned)
!27 = !DISubprogram(name: "Timestamp", scope: !5, file: !4, line: 191, type: !28, scopeLine: 191, flags: DIFlagPublic | DIFlagExplicit | DIFlagPrototyped, spFlags: DISPFlagOptimized)
!28 = !DISubroutineType(types: !29)
!29 = !{null, !19, !30, !23}
!30 = !DIBasicType(name: "int", size: 32, encoding: DW_ATE_signed)
!31 = !DISubprogram(name: "Timestamp", scope: !5, file: !4, line: 195, type: !32, scopeLine: 195, flags: DIFlagPublic | DIFlagExplicit | DIFlagPrototyped, spFlags: DISPFlagOptimized)
!32 = !DISubroutineType(types: !33)
!33 = !{null, !19, !34, !23}
!34 = !DIBasicType(name: "long unsigned int", size: 64, encoding: DW_ATE_unsigned)
!35 = !DISubprogram(name: "Timestamp", scope: !5, file: !4, line: 199, type: !36, scopeLine: 199, flags: DIFlagPublic | DIFlagExplicit | DIFlagPrototyped, spFlags: DISPFlagOptimized)
!36 = !DISubroutineType(types: !37)
!37 = !{null, !19, !26, !23}
!38 = !DISubprogram(name: "Timestamp", scope: !5, file: !4, line: 203, type: !39, scopeLine: 203, flags: DIFlagPublic | DIFlagExplicit | DIFlagPrototyped, spFlags: DISPFlagOptimized)
!39 = !DISubroutineType(types: !40)
!40 = !{null, !19, !41}
!41 = !DIBasicType(name: "double", size: 64, encoding: DW_ATE_float)
!42 = !DISubprogram(name: "Timestamp", scope: !5, file: !4, line: 206, type: !43, scopeLine: 206, flags: DIFlagPublic | DIFlagPrototyped, spFlags: DISPFlagOptimized)
!43 = !DISubroutineType(types: !44)
!44 = !{null, !19, !45}
!45 = !DIDerivedType(tag: DW_TAG_reference_type, baseType: !46, size: 64)
!46 = !DIDerivedType(tag: DW_TAG_const_type, baseType: !47)
!47 = distinct !DICompositeType(tag: DW_TAG_structure_type, name: "timeval", file: !48, line: 8, size: 128, flags: DIFlagTypePassByValue, elements: !49, identifier: "_ZTS7timeval")
!48 = !DIFile(filename: "/usr/include/bits/types/struct_timeval.h", directory: "")
!49 = !{!50, !52}
!50 = !DIDerivedType(tag: DW_TAG_member, name: "tv_sec", scope: !47, file: !48, line: 10, baseType: !51, size: 64)
!51 = !DIDerivedType(tag: DW_TAG_typedef, name: "__time_t", file: !14, line: 160, baseType: !15)
!52 = !DIDerivedType(tag: DW_TAG_member, name: "tv_usec", scope: !47, file: !48, line: 11, baseType: !53, size: 64, offset: 64)
!53 = !DIDerivedType(tag: DW_TAG_typedef, name: "__suseconds_t", file: !14, line: 162, baseType: !15)
!54 = !DISubprogram(name: "Timestamp", scope: !5, file: !4, line: 208, type: !55, scopeLine: 208, flags: DIFlagPublic | DIFlagPrototyped, spFlags: DISPFlagOptimized)
!55 = !DISubroutineType(types: !56)
!56 = !{null, !19, !57}
!57 = !DIDerivedType(tag: DW_TAG_reference_type, baseType: !58, size: 64)
!58 = !DIDerivedType(tag: DW_TAG_const_type, baseType: !59)
!59 = distinct !DICompositeType(tag: DW_TAG_structure_type, name: "timespec", file: !60, line: 10, size: 128, flags: DIFlagTypePassByValue, elements: !61, identifier: "_ZTS8timespec")
!60 = !DIFile(filename: "/usr/include/bits/types/struct_timespec.h", directory: "")
!61 = !{!62, !63}
!62 = !DIDerivedType(tag: DW_TAG_member, name: "tv_sec", scope: !59, file: !60, line: 12, baseType: !51, size: 64)
!63 = !DIDerivedType(tag: DW_TAG_member, name: "tv_nsec", scope: !59, file: !60, line: 16, baseType: !64, size: 64, offset: 64)
!64 = !DIDerivedType(tag: DW_TAG_typedef, name: "__syscall_slong_t", file: !14, line: 196, baseType: !15)
!65 = !DISubprogram(name: "Timestamp", scope: !5, file: !4, line: 212, type: !66, scopeLine: 212, flags: DIFlagPublic | DIFlagPrototyped, spFlags: DISPFlagOptimized)
!66 = !DISubroutineType(types: !67)
!67 = !{null, !19, !68}
!68 = !DIDerivedType(tag: DW_TAG_reference_type, baseType: !69, size: 64)
!69 = !DIDerivedType(tag: DW_TAG_const_type, baseType: !8)
!70 = !DISubprogram(name: "Timestamp", scope: !5, file: !4, line: 217, type: !71, scopeLine: 217, flags: DIFlagPublic | DIFlagPrototyped, spFlags: DISPFlagOptimized)
!71 = !DISubroutineType(types: !72)
!72 = !{null, !19, !73}
!73 = !DIDerivedType(tag: DW_TAG_reference_type, baseType: !74, size: 64)
!74 = !DIDerivedType(tag: DW_TAG_const_type, baseType: !75)
!75 = !DIDerivedType(tag: DW_TAG_typedef, name: "uninitialized_t", scope: !5, file: !4, line: 168, baseType: !76)
!76 = distinct !DICompositeType(tag: DW_TAG_structure_type, name: "uninitialized_type", file: !77, line: 317, size: 8, flags: DIFlagTypePassByValue, elements: !78, identifier: "_ZTS18uninitialized_type")
!77 = !DIFile(filename: "../dummy_inc/click/config.h", directory: "/home/john/projects/click/ir-dir")
!78 = !{}
!79 = !DISubprogram(name: "operator int (Timestamp::*)() const", linkageName: "_ZNK9TimestampcvMS_KFivEEv", scope: !5, file: !4, line: 222, type: !80, scopeLine: 222, flags: DIFlagPublic | DIFlagPrototyped, spFlags: DISPFlagOptimized)
!80 = !DISubroutineType(types: !81)
!81 = !{!82, !89}
!82 = !DIDerivedType(tag: DW_TAG_typedef, name: "unspecified_bool_type", scope: !5, file: !4, line: 221, baseType: !83)
!83 = !DIDerivedType(tag: DW_TAG_ptr_to_member_type, baseType: !84, size: 128, extraData: !5)
!84 = !DISubroutineType(types: !85)
!85 = !{!86, !89}
!86 = !DIDerivedType(tag: DW_TAG_typedef, name: "seconds_type", scope: !5, file: !4, line: 125, baseType: !87)
!87 = !DIDerivedType(tag: DW_TAG_typedef, name: "int32_t", file: !12, line: 26, baseType: !88)
!88 = !DIDerivedType(tag: DW_TAG_typedef, name: "__int32_t", file: !14, line: 41, baseType: !30)
!89 = !DIDerivedType(tag: DW_TAG_pointer_type, baseType: !90, size: 64, flags: DIFlagArtificial | DIFlagObjectPointer)
!90 = !DIDerivedType(tag: DW_TAG_const_type, baseType: !5)
!91 = !DISubprogram(name: "is_negative", linkageName: "_ZNK9Timestamp11is_negativeEv", scope: !5, file: !4, line: 225, type: !92, scopeLine: 225, flags: DIFlagPublic | DIFlagPrototyped, spFlags: DISPFlagOptimized)
!92 = !DISubroutineType(types: !93)
!93 = !{!94, !89}
!94 = !DIBasicType(name: "bool", size: 8, encoding: DW_ATE_boolean)
!95 = !DISubprogram(name: "sec", linkageName: "_ZNK9Timestamp3secEv", scope: !5, file: !4, line: 233, type: !84, scopeLine: 233, flags: DIFlagPublic | DIFlagPrototyped, spFlags: DISPFlagOptimized)
!96 = !DISubprogram(name: "subsec", linkageName: "_ZNK9Timestamp6subsecEv", scope: !5, file: !4, line: 234, type: !97, scopeLine: 234, flags: DIFlagPublic | DIFlagPrototyped, spFlags: DISPFlagOptimized)
!97 = !DISubroutineType(types: !98)
!98 = !{!23, !89}
!99 = !DISubprogram(name: "msec", linkageName: "_ZNK9Timestamp4msecEv", scope: !5, file: !4, line: 235, type: !97, scopeLine: 235, flags: DIFlagPublic | DIFlagPrototyped, spFlags: DISPFlagOptimized)
!100 = !DISubprogram(name: "usec", linkageName: "_ZNK9Timestamp4usecEv", scope: !5, file: !4, line: 236, type: !97, scopeLine: 236, flags: DIFlagPublic | DIFlagPrototyped, spFlags: DISPFlagOptimized)
!101 = !DISubprogram(name: "nsec", linkageName: "_ZNK9Timestamp4nsecEv", scope: !5, file: !4, line: 237, type: !97, scopeLine: 237, flags: DIFlagPublic | DIFlagPrototyped, spFlags: DISPFlagOptimized)
!102 = !DISubprogram(name: "set_sec", linkageName: "_ZN9Timestamp7set_secEi", scope: !5, file: !4, line: 239, type: !103, scopeLine: 239, flags: DIFlagPublic | DIFlagPrototyped, spFlags: DISPFlagOptimized)
!103 = !DISubroutineType(types: !104)
!104 = !{null, !19, !86}
!105 = !DISubprogram(name: "set_subsec", linkageName: "_ZN9Timestamp10set_subsecEj", scope: !5, file: !4, line: 240, type: !106, scopeLine: 240, flags: DIFlagPublic | DIFlagPrototyped, spFlags: DISPFlagOptimized)
!106 = !DISubroutineType(types: !107)
!107 = !{null, !19, !23}
!108 = !DISubprogram(name: "msec1", linkageName: "_ZNK9Timestamp5msec1Ev", scope: !5, file: !4, line: 242, type: !84, scopeLine: 242, flags: DIFlagPublic | DIFlagPrototyped, spFlags: DISPFlagOptimized)
!109 = !DISubprogram(name: "usec1", linkageName: "_ZNK9Timestamp5usec1Ev", scope: !5, file: !4, line: 243, type: !84, scopeLine: 243, flags: DIFlagPublic | DIFlagPrototyped, spFlags: DISPFlagOptimized)
!110 = !DISubprogram(name: "nsec1", linkageName: "_ZNK9Timestamp5nsec1Ev", scope: !5, file: !4, line: 244, type: !84, scopeLine: 244, flags: DIFlagPublic | DIFlagPrototyped, spFlags: DISPFlagOptimized)
!111 = !DISubprogram(name: "timeval", linkageName: "_ZNK9Timestamp7timevalEv", scope: !5, file: !4, line: 250, type: !112, scopeLine: 250, flags: DIFlagPublic | DIFlagPrototyped, spFlags: DISPFlagOptimized)
!112 = !DISubroutineType(types: !113)
!113 = !{!47, !89}
!114 = !DISubprogram(name: "timeval_ceil", linkageName: "_ZNK9Timestamp12timeval_ceilEv", scope: !5, file: !4, line: 251, type: !112, scopeLine: 251, flags: DIFlagPublic | DIFlagPrototyped, spFlags: DISPFlagOptimized)
!115 = !DISubprogram(name: "timespec", linkageName: "_ZNK9Timestamp8timespecEv", scope: !5, file: !4, line: 257, type: !116, scopeLine: 257, flags: DIFlagPublic | DIFlagPrototyped, spFlags: DISPFlagOptimized)
!116 = !DISubroutineType(types: !117)
!117 = !{!59, !89}
!118 = !DISubprogram(name: "doubleval", linkageName: "_ZNK9Timestamp9doublevalEv", scope: !5, file: !4, line: 262, type: !119, scopeLine: 262, flags: DIFlagPublic | DIFlagPrototyped, spFlags: DISPFlagOptimized)
!119 = !DISubroutineType(types: !120)
!120 = !{!41, !89}
!121 = !DISubprogram(name: "msecval", linkageName: "_ZNK9Timestamp7msecvalEv", scope: !5, file: !4, line: 265, type: !122, scopeLine: 265, flags: DIFlagPublic | DIFlagPrototyped, spFlags: DISPFlagOptimized)
!122 = !DISubroutineType(types: !123)
!123 = !{!124, !89}
!124 = !DIDerivedType(tag: DW_TAG_typedef, name: "value_type", scope: !5, file: !4, line: 128, baseType: !11)
!125 = !DISubprogram(name: "usecval", linkageName: "_ZNK9Timestamp7usecvalEv", scope: !5, file: !4, line: 273, type: !122, scopeLine: 273, flags: DIFlagPublic | DIFlagPrototyped, spFlags: DISPFlagOptimized)
!126 = !DISubprogram(name: "nsecval", linkageName: "_ZNK9Timestamp7nsecvalEv", scope: !5, file: !4, line: 281, type: !122, scopeLine: 281, flags: DIFlagPublic | DIFlagPrototyped, spFlags: DISPFlagOptimized)
!127 = !DISubprogram(name: "msec_ceil", linkageName: "_ZNK9Timestamp9msec_ceilEv", scope: !5, file: !4, line: 290, type: !128, scopeLine: 290, flags: DIFlagPublic | DIFlagPrototyped, spFlags: DISPFlagOptimized)
!128 = !DISubroutineType(types: !129)
!129 = !{!5, !89}
!130 = !DISubprogram(name: "usec_ceil", linkageName: "_ZNK9Timestamp9usec_ceilEv", scope: !5, file: !4, line: 295, type: !128, scopeLine: 295, flags: DIFlagPublic | DIFlagPrototyped, spFlags: DISPFlagOptimized)
!131 = !DISubprogram(name: "nsec_ceil", linkageName: "_ZNK9Timestamp9nsec_ceilEv", scope: !5, file: !4, line: 304, type: !128, scopeLine: 304, flags: DIFlagPublic | DIFlagPrototyped, spFlags: DISPFlagOptimized)
!132 = !DISubprogram(name: "make_jiffies", linkageName: "_ZN9Timestamp12make_jiffiesEj", scope: !5, file: !4, line: 310, type: !133, scopeLine: 310, flags: DIFlagPublic | DIFlagPrototyped | DIFlagStaticMember, spFlags: DISPFlagOptimized)
!133 = !DISubroutineType(types: !134)
!134 = !{!5, !135}
!135 = !DIDerivedType(tag: DW_TAG_typedef, name: "click_jiffies_t", file: !136, line: 477, baseType: !26)
!136 = !DIFile(filename: "../dummy_inc/click/glue.hh", directory: "/home/john/projects/click/ir-dir")
!137 = !DISubprogram(name: "make_jiffies", linkageName: "_ZN9Timestamp12make_jiffiesEi", scope: !5, file: !4, line: 312, type: !138, scopeLine: 312, flags: DIFlagPublic | DIFlagPrototyped | DIFlagStaticMember, spFlags: DISPFlagOptimized)
!138 = !DISubroutineType(types: !139)
!139 = !{!5, !140}
!140 = !DIDerivedType(tag: DW_TAG_typedef, name: "click_jiffies_difference_t", file: !136, line: 478, baseType: !30)
!141 = !DISubprogram(name: "jiffies", linkageName: "_ZNK9Timestamp7jiffiesEv", scope: !5, file: !4, line: 314, type: !142, scopeLine: 314, flags: DIFlagPublic | DIFlagPrototyped, spFlags: DISPFlagOptimized)
!142 = !DISubroutineType(types: !143)
!143 = !{!135, !89}
!144 = !DISubprogram(name: "make_sec", linkageName: "_ZN9Timestamp8make_secEi", scope: !5, file: !4, line: 318, type: !145, scopeLine: 318, flags: DIFlagPublic | DIFlagPrototyped | DIFlagStaticMember, spFlags: DISPFlagOptimized)
!145 = !DISubroutineType(types: !146)
!146 = !{!5, !86}
!147 = !DISubprogram(name: "make_msec", linkageName: "_ZN9Timestamp9make_msecEij", scope: !5, file: !4, line: 324, type: !148, scopeLine: 324, flags: DIFlagPublic | DIFlagPrototyped | DIFlagStaticMember, spFlags: DISPFlagOptimized)
!148 = !DISubroutineType(types: !149)
!149 = !{!5, !86, !23}
!150 = !DISubprogram(name: "make_msec", linkageName: "_ZN9Timestamp9make_msecEl", scope: !5, file: !4, line: 328, type: !151, scopeLine: 328, flags: DIFlagPublic | DIFlagPrototyped | DIFlagStaticMember, spFlags: DISPFlagOptimized)
!151 = !DISubroutineType(types: !152)
!152 = !{!5, !124}
!153 = !DISubprogram(name: "make_usec", linkageName: "_ZN9Timestamp9make_usecEij", scope: !5, file: !4, line: 341, type: !148, scopeLine: 341, flags: DIFlagPublic | DIFlagPrototyped | DIFlagStaticMember, spFlags: DISPFlagOptimized)
!154 = !DISubprogram(name: "make_usec", linkageName: "_ZN9Timestamp9make_usecEl", scope: !5, file: !4, line: 345, type: !151, scopeLine: 345, flags: DIFlagPublic | DIFlagPrototyped | DIFlagStaticMember, spFlags: DISPFlagOptimized)
!155 = !DISubprogram(name: "make_nsec", linkageName: "_ZN9Timestamp9make_nsecEij", scope: !5, file: !4, line: 358, type: !148, scopeLine: 358, flags: DIFlagPublic | DIFlagPrototyped | DIFlagStaticMember, spFlags: DISPFlagOptimized)
!156 = !DISubprogram(name: "make_nsec", linkageName: "_ZN9Timestamp9make_nsecEl", scope: !5, file: !4, line: 362, type: !151, scopeLine: 362, flags: DIFlagPublic | DIFlagPrototyped | DIFlagStaticMember, spFlags: DISPFlagOptimized)
!157 = !DISubprogram(name: "epsilon", linkageName: "_ZN9Timestamp7epsilonEv", scope: !5, file: !4, line: 375, type: !158, scopeLine: 375, flags: DIFlagPublic | DIFlagPrototyped | DIFlagStaticMember, spFlags: DISPFlagOptimized)
!158 = !DISubroutineType(types: !159)
!159 = !{!5}
!160 = !DISubprogram(name: "clear", linkageName: "_ZN9Timestamp5clearEv", scope: !5, file: !4, line: 380, type: !17, scopeLine: 380, flags: DIFlagPublic | DIFlagPrototyped, spFlags: DISPFlagOptimized)
!161 = !DISubprogram(name: "assign", linkageName: "_ZN9Timestamp6assignEij", scope: !5, file: !4, line: 388, type: !162, scopeLine: 388, flags: DIFlagPublic | DIFlagPrototyped, spFlags: DISPFlagOptimized)
!162 = !DISubroutineType(types: !163)
!163 = !{null, !19, !86, !23}
!164 = !DISubprogram(name: "assign_usec", linkageName: "_ZN9Timestamp11assign_usecEij", scope: !5, file: !4, line: 397, type: !162, scopeLine: 397, flags: DIFlagPublic | DIFlagPrototyped, spFlags: DISPFlagOptimized)
!165 = !DISubprogram(name: "assign_nsec", linkageName: "_ZN9Timestamp11assign_nsecEij", scope: !5, file: !4, line: 401, type: !162, scopeLine: 401, flags: DIFlagPublic | DIFlagPrototyped, spFlags: DISPFlagOptimized)
!166 = !DISubprogram(name: "set", linkageName: "_ZN9Timestamp3setEij", scope: !5, file: !4, line: 408, type: !162, scopeLine: 408, flags: DIFlagPublic | DIFlagPrototyped, spFlags: DISPFlagOptimized)
!167 = !DISubprogram(name: "set_usec", linkageName: "_ZN9Timestamp8set_usecEij", scope: !5, file: !4, line: 411, type: !162, scopeLine: 411, flags: DIFlagPublic | DIFlagPrototyped, spFlags: DISPFlagOptimized)
!168 = !DISubprogram(name: "set_nsec", linkageName: "_ZN9Timestamp8set_nsecEij", scope: !5, file: !4, line: 414, type: !162, scopeLine: 414, flags: DIFlagPublic | DIFlagPrototyped, spFlags: DISPFlagOptimized)
!169 = !DISubprogram(name: "set_now", linkageName: "_ZN9Timestamp7set_nowEv", scope: !5, file: !4, line: 417, type: !17, scopeLine: 417, flags: DIFlagPublic | DIFlagPrototyped, spFlags: DISPFlagOptimized)
!170 = !DISubprogram(name: "set_timeval_ioctl", linkageName: "_ZN9Timestamp17set_timeval_ioctlEii", scope: !5, file: !4, line: 420, type: !171, scopeLine: 420, flags: DIFlagPublic | DIFlagPrototyped, spFlags: DISPFlagOptimized)
!171 = !DISubroutineType(types: !172)
!172 = !{!30, !19, !30, !30}
!173 = !DISubprogram(name: "now", linkageName: "_ZN9Timestamp3nowEv", scope: !5, file: !4, line: 432, type: !158, scopeLine: 432, flags: DIFlagPublic | DIFlagPrototyped | DIFlagStaticMember, spFlags: DISPFlagOptimized)
!174 = !DISubprogram(name: "assign_now", linkageName: "_ZN9Timestamp10assign_nowEv", scope: !5, file: !4, line: 438, type: !17, scopeLine: 438, flags: DIFlagPublic | DIFlagPrototyped, spFlags: DISPFlagOptimized)
!175 = !DISubprogram(name: "recent", linkageName: "_ZN9Timestamp6recentEv", scope: !5, file: !4, line: 446, type: !158, scopeLine: 446, flags: DIFlagPublic | DIFlagPrototyped | DIFlagStaticMember, spFlags: DISPFlagOptimized)
!176 = !DISubprogram(name: "assign_recent", linkageName: "_ZN9Timestamp13assign_recentEv", scope: !5, file: !4, line: 452, type: !17, scopeLine: 452, flags: DIFlagPublic | DIFlagPrototyped, spFlags: DISPFlagOptimized)
!177 = !DISubprogram(name: "now_steady", linkageName: "_ZN9Timestamp10now_steadyEv", scope: !5, file: !4, line: 466, type: !158, scopeLine: 466, flags: DIFlagPublic | DIFlagPrototyped | DIFlagStaticMember, spFlags: DISPFlagOptimized)
!178 = !DISubprogram(name: "assign_now_steady", linkageName: "_ZN9Timestamp17assign_now_steadyEv", scope: !5, file: !4, line: 472, type: !17, scopeLine: 472, flags: DIFlagPublic | DIFlagPrototyped, spFlags: DISPFlagOptimized)
!179 = !DISubprogram(name: "recent_steady", linkageName: "_ZN9Timestamp13recent_steadyEv", scope: !5, file: !4, line: 481, type: !158, scopeLine: 481, flags: DIFlagPublic | DIFlagPrototyped | DIFlagStaticMember, spFlags: DISPFlagOptimized)
!180 = !DISubprogram(name: "assign_recent_steady", linkageName: "_ZN9Timestamp20assign_recent_steadyEv", scope: !5, file: !4, line: 487, type: !17, scopeLine: 487, flags: DIFlagPublic | DIFlagPrototyped, spFlags: DISPFlagOptimized)
!181 = !DISubprogram(name: "unparse", linkageName: "_ZNK9Timestamp7unparseEv", scope: !5, file: !4, line: 496, type: !182, scopeLine: 496, flags: DIFlagPublic | DIFlagPrototyped, spFlags: DISPFlagOptimized)
!182 = !DISubroutineType(types: !183)
!183 = !{!184, !89}
!184 = distinct !DICompositeType(tag: DW_TAG_class_type, name: "String", file: !185, line: 19, size: 192, flags: DIFlagTypePassByReference | DIFlagNonTrivial, elements: !186, identifier: "_ZTS6String")
!185 = !DIFile(filename: "../dummy_inc/click/string.hh", directory: "/home/john/projects/click/ir-dir")
!186 = !{!187, !193, !211, !212, !216, !220, !222, !223, !227, !232, !236, !239, !242, !248, !251, !254, !257, !260, !263, !266, !269, !272, !275, !279, !283, !286, !287, !290, !293, !294, !297, !300, !303, !307, !313, !317, !320, !321, !326, !329, !330, !334, !335, !338, !339, !342, !343, !346, !349, !352, !355, !358, !361, !364, !367, !370, !373, !376, !379, !380, !381, !382, !385, !388, !389, !390, !391, !392, !393, !394, !398, !401, !404, !407, !408, !409, !410, !411, !412, !415, !419, !420, !421, !422, !425, !426, !427, !428, !429, !430, !433, !434, !435, !436, !439, !442, !443, !446, !449, !452, !455, !458, !461, !464, !465, !466, !467, !470, !473, !476, !477, !478}
!187 = !DIDerivedType(tag: DW_TAG_member, name: "bool_data", scope: !184, file: !185, line: 184, baseType: !188, flags: DIFlagPublic | DIFlagStaticMember)
!188 = !DICompositeType(tag: DW_TAG_array_type, baseType: !189, size: 88, elements: !191)
!189 = !DIDerivedType(tag: DW_TAG_const_type, baseType: !190)
!190 = !DIBasicType(name: "char", size: 8, encoding: DW_ATE_signed_char)
!191 = !{!192}
!192 = !DISubrange(count: 11)
!193 = !DIDerivedType(tag: DW_TAG_member, name: "_r", scope: !184, file: !185, line: 211, baseType: !194, size: 192)
!194 = distinct !DICompositeType(tag: DW_TAG_structure_type, name: "rep_t", scope: !184, file: !185, line: 204, size: 192, flags: DIFlagTypePassByValue, elements: !195, identifier: "_ZTSN6String5rep_tE")
!195 = !{!196, !198, !199}
!196 = !DIDerivedType(tag: DW_TAG_member, name: "data", scope: !194, file: !185, line: 205, baseType: !197, size: 64)
!197 = !DIDerivedType(tag: DW_TAG_pointer_type, baseType: !189, size: 64)
!198 = !DIDerivedType(tag: DW_TAG_member, name: "length", scope: !194, file: !185, line: 206, baseType: !30, size: 32, offset: 64)
!199 = !DIDerivedType(tag: DW_TAG_member, name: "memo", scope: !194, file: !185, line: 207, baseType: !200, size: 64, offset: 128)
!200 = !DIDerivedType(tag: DW_TAG_pointer_type, baseType: !201, size: 64)
!201 = distinct !DICompositeType(tag: DW_TAG_structure_type, name: "memo_t", scope: !184, file: !185, line: 189, size: 160, flags: DIFlagTypePassByValue, elements: !202, identifier: "_ZTSN6String6memo_tE")
!202 = !{!203, !205, !206, !207}
!203 = !DIDerivedType(tag: DW_TAG_member, name: "refcount", scope: !201, file: !185, line: 190, baseType: !204, size: 32)
!204 = !DIDerivedType(tag: DW_TAG_volatile_type, baseType: !23)
!205 = !DIDerivedType(tag: DW_TAG_member, name: "capacity", scope: !201, file: !185, line: 191, baseType: !23, size: 32, offset: 32)
!206 = !DIDerivedType(tag: DW_TAG_member, name: "dirty", scope: !201, file: !185, line: 192, baseType: !204, size: 32, offset: 64)
!207 = !DIDerivedType(tag: DW_TAG_member, name: "real_data", scope: !201, file: !185, line: 197, baseType: !208, size: 64, offset: 96)
!208 = !DICompositeType(tag: DW_TAG_array_type, baseType: !190, size: 64, elements: !209)
!209 = !{!210}
!210 = !DISubrange(count: 8)
!211 = !DIDerivedType(tag: DW_TAG_member, name: "null_data", scope: !184, file: !185, line: 292, baseType: !189, flags: DIFlagStaticMember)
!212 = !DIDerivedType(tag: DW_TAG_member, name: "oom_data", scope: !184, file: !185, line: 293, baseType: !213, flags: DIFlagStaticMember)
!213 = !DICompositeType(tag: DW_TAG_array_type, baseType: !189, size: 120, elements: !214)
!214 = !{!215}
!215 = !DISubrange(count: 15)
!216 = !DIDerivedType(tag: DW_TAG_member, name: "int_data", scope: !184, file: !185, line: 294, baseType: !217, flags: DIFlagStaticMember)
!217 = !DICompositeType(tag: DW_TAG_array_type, baseType: !189, size: 160, elements: !218)
!218 = !{!219}
!219 = !DISubrange(count: 20)
!220 = !DIDerivedType(tag: DW_TAG_member, name: "null_string_rep", scope: !184, file: !185, line: 295, baseType: !221, flags: DIFlagStaticMember)
!221 = !DIDerivedType(tag: DW_TAG_const_type, baseType: !194)
!222 = !DIDerivedType(tag: DW_TAG_member, name: "oom_string_rep", scope: !184, file: !185, line: 296, baseType: !221, flags: DIFlagStaticMember)
!223 = !DISubprogram(name: "String", scope: !184, file: !185, line: 39, type: !224, scopeLine: 39, flags: DIFlagPublic | DIFlagPrototyped, spFlags: DISPFlagOptimized)
!224 = !DISubroutineType(types: !225)
!225 = !{null, !226}
!226 = !DIDerivedType(tag: DW_TAG_pointer_type, baseType: !184, size: 64, flags: DIFlagArtificial | DIFlagObjectPointer)
!227 = !DISubprogram(name: "String", scope: !184, file: !185, line: 40, type: !228, scopeLine: 40, flags: DIFlagPublic | DIFlagPrototyped, spFlags: DISPFlagOptimized)
!228 = !DISubroutineType(types: !229)
!229 = !{null, !226, !230}
!230 = !DIDerivedType(tag: DW_TAG_reference_type, baseType: !231, size: 64)
!231 = !DIDerivedType(tag: DW_TAG_const_type, baseType: !184)
!232 = !DISubprogram(name: "String", scope: !184, file: !185, line: 42, type: !233, scopeLine: 42, flags: DIFlagPublic | DIFlagPrototyped, spFlags: DISPFlagOptimized)
!233 = !DISubroutineType(types: !234)
!234 = !{null, !226, !235}
!235 = !DIDerivedType(tag: DW_TAG_rvalue_reference_type, baseType: !184, size: 64)
!236 = !DISubprogram(name: "String", scope: !184, file: !185, line: 44, type: !237, scopeLine: 44, flags: DIFlagPublic | DIFlagPrototyped, spFlags: DISPFlagOptimized)
!237 = !DISubroutineType(types: !238)
!238 = !{null, !226, !197}
!239 = !DISubprogram(name: "String", scope: !184, file: !185, line: 45, type: !240, scopeLine: 45, flags: DIFlagPublic | DIFlagPrototyped, spFlags: DISPFlagOptimized)
!240 = !DISubroutineType(types: !241)
!241 = !{null, !226, !197, !30}
!242 = !DISubprogram(name: "String", scope: !184, file: !185, line: 46, type: !243, scopeLine: 46, flags: DIFlagPublic | DIFlagPrototyped, spFlags: DISPFlagOptimized)
!243 = !DISubroutineType(types: !244)
!244 = !{null, !226, !245, !30}
!245 = !DIDerivedType(tag: DW_TAG_pointer_type, baseType: !246, size: 64)
!246 = !DIDerivedType(tag: DW_TAG_const_type, baseType: !247)
!247 = !DIBasicType(name: "unsigned char", size: 8, encoding: DW_ATE_unsigned_char)
!248 = !DISubprogram(name: "String", scope: !184, file: !185, line: 47, type: !249, scopeLine: 47, flags: DIFlagPublic | DIFlagPrototyped, spFlags: DISPFlagOptimized)
!249 = !DISubroutineType(types: !250)
!250 = !{null, !226, !197, !197}
!251 = !DISubprogram(name: "String", scope: !184, file: !185, line: 48, type: !252, scopeLine: 48, flags: DIFlagPublic | DIFlagPrototyped, spFlags: DISPFlagOptimized)
!252 = !DISubroutineType(types: !253)
!253 = !{null, !226, !245, !245}
!254 = !DISubprogram(name: "String", scope: !184, file: !185, line: 49, type: !255, scopeLine: 49, flags: DIFlagPublic | DIFlagExplicit | DIFlagPrototyped, spFlags: DISPFlagOptimized)
!255 = !DISubroutineType(types: !256)
!256 = !{null, !226, !94}
!257 = !DISubprogram(name: "String", scope: !184, file: !185, line: 50, type: !258, scopeLine: 50, flags: DIFlagPublic | DIFlagExplicit | DIFlagPrototyped, spFlags: DISPFlagOptimized)
!258 = !DISubroutineType(types: !259)
!259 = !{null, !226, !190}
!260 = !DISubprogram(name: "String", scope: !184, file: !185, line: 51, type: !261, scopeLine: 51, flags: DIFlagPublic | DIFlagExplicit | DIFlagPrototyped, spFlags: DISPFlagOptimized)
!261 = !DISubroutineType(types: !262)
!262 = !{null, !226, !247}
!263 = !DISubprogram(name: "String", scope: !184, file: !185, line: 52, type: !264, scopeLine: 52, flags: DIFlagPublic | DIFlagExplicit | DIFlagPrototyped, spFlags: DISPFlagOptimized)
!264 = !DISubroutineType(types: !265)
!265 = !{null, !226, !30}
!266 = !DISubprogram(name: "String", scope: !184, file: !185, line: 53, type: !267, scopeLine: 53, flags: DIFlagPublic | DIFlagExplicit | DIFlagPrototyped, spFlags: DISPFlagOptimized)
!267 = !DISubroutineType(types: !268)
!268 = !{null, !226, !26}
!269 = !DISubprogram(name: "String", scope: !184, file: !185, line: 54, type: !270, scopeLine: 54, flags: DIFlagPublic | DIFlagExplicit | DIFlagPrototyped, spFlags: DISPFlagOptimized)
!270 = !DISubroutineType(types: !271)
!271 = !{null, !226, !15}
!272 = !DISubprogram(name: "String", scope: !184, file: !185, line: 55, type: !273, scopeLine: 55, flags: DIFlagPublic | DIFlagExplicit | DIFlagPrototyped, spFlags: DISPFlagOptimized)
!273 = !DISubroutineType(types: !274)
!274 = !{null, !226, !34}
!275 = !DISubprogram(name: "String", scope: !184, file: !185, line: 57, type: !276, scopeLine: 57, flags: DIFlagPublic | DIFlagExplicit | DIFlagPrototyped, spFlags: DISPFlagOptimized)
!276 = !DISubroutineType(types: !277)
!277 = !{null, !226, !278}
!278 = !DIBasicType(name: "long long int", size: 64, encoding: DW_ATE_signed)
!279 = !DISubprogram(name: "String", scope: !184, file: !185, line: 58, type: !280, scopeLine: 58, flags: DIFlagPublic | DIFlagExplicit | DIFlagPrototyped, spFlags: DISPFlagOptimized)
!280 = !DISubroutineType(types: !281)
!281 = !{null, !226, !282}
!282 = !DIBasicType(name: "long long unsigned int", size: 64, encoding: DW_ATE_unsigned)
!283 = !DISubprogram(name: "String", scope: !184, file: !185, line: 65, type: !284, scopeLine: 65, flags: DIFlagPublic | DIFlagExplicit | DIFlagPrototyped, spFlags: DISPFlagOptimized)
!284 = !DISubroutineType(types: !285)
!285 = !{null, !226, !41}
!286 = !DISubprogram(name: "~String", scope: !184, file: !185, line: 67, type: !224, scopeLine: 67, flags: DIFlagPublic | DIFlagPrototyped, spFlags: DISPFlagOptimized)
!287 = !DISubprogram(name: "make_empty", linkageName: "_ZN6String10make_emptyEv", scope: !184, file: !185, line: 69, type: !288, scopeLine: 69, flags: DIFlagPublic | DIFlagPrototyped | DIFlagStaticMember, spFlags: DISPFlagOptimized)
!288 = !DISubroutineType(types: !289)
!289 = !{!230}
!290 = !DISubprogram(name: "make_uninitialized", linkageName: "_ZN6String18make_uninitializedEi", scope: !184, file: !185, line: 70, type: !291, scopeLine: 70, flags: DIFlagPublic | DIFlagPrototyped | DIFlagStaticMember, spFlags: DISPFlagOptimized)
!291 = !DISubroutineType(types: !292)
!292 = !{!184, !30}
!293 = !DISubprogram(name: "make_garbage", linkageName: "_ZN6String12make_garbageEi", scope: !184, file: !185, line: 71, type: !291, scopeLine: 71, flags: DIFlagPublic | DIFlagPrototyped | DIFlagStaticMember, spFlags: DISPFlagOptimized)
!294 = !DISubprogram(name: "make_stable", linkageName: "_ZN6String11make_stableEPKc", scope: !184, file: !185, line: 72, type: !295, scopeLine: 72, flags: DIFlagPublic | DIFlagPrototyped | DIFlagStaticMember, spFlags: DISPFlagOptimized)
!295 = !DISubroutineType(types: !296)
!296 = !{!184, !197}
!297 = !DISubprogram(name: "make_stable", linkageName: "_ZN6String11make_stableEPKci", scope: !184, file: !185, line: 73, type: !298, scopeLine: 73, flags: DIFlagPublic | DIFlagPrototyped | DIFlagStaticMember, spFlags: DISPFlagOptimized)
!298 = !DISubroutineType(types: !299)
!299 = !{!184, !197, !30}
!300 = !DISubprogram(name: "make_stable", linkageName: "_ZN6String11make_stableEPKcS1_", scope: !184, file: !185, line: 74, type: !301, scopeLine: 74, flags: DIFlagPublic | DIFlagPrototyped | DIFlagStaticMember, spFlags: DISPFlagOptimized)
!301 = !DISubroutineType(types: !302)
!302 = !{!184, !197, !197}
!303 = !DISubprogram(name: "make_numeric", linkageName: "_ZN6String12make_numericElib", scope: !184, file: !185, line: 75, type: !304, scopeLine: 75, flags: DIFlagPublic | DIFlagPrototyped | DIFlagStaticMember, spFlags: DISPFlagOptimized)
!304 = !DISubroutineType(types: !305)
!305 = !{!184, !306, !30, !94}
!306 = !DIDerivedType(tag: DW_TAG_typedef, name: "intmax_t", scope: !184, file: !185, line: 27, baseType: !11)
!307 = !DISubprogram(name: "make_numeric", linkageName: "_ZN6String12make_numericEmib", scope: !184, file: !185, line: 76, type: !308, scopeLine: 76, flags: DIFlagPublic | DIFlagPrototyped | DIFlagStaticMember, spFlags: DISPFlagOptimized)
!308 = !DISubroutineType(types: !309)
!309 = !{!184, !310, !30, !94}
!310 = !DIDerivedType(tag: DW_TAG_typedef, name: "uintmax_t", scope: !184, file: !185, line: 28, baseType: !311)
!311 = !DIDerivedType(tag: DW_TAG_typedef, name: "uint64_t", file: !24, line: 27, baseType: !312)
!312 = !DIDerivedType(tag: DW_TAG_typedef, name: "__uint64_t", file: !14, line: 45, baseType: !34)
!313 = !DISubprogram(name: "data", linkageName: "_ZNK6String4dataEv", scope: !184, file: !185, line: 78, type: !314, scopeLine: 78, flags: DIFlagPublic | DIFlagPrototyped, spFlags: DISPFlagOptimized)
!314 = !DISubroutineType(types: !315)
!315 = !{!197, !316}
!316 = !DIDerivedType(tag: DW_TAG_pointer_type, baseType: !231, size: 64, flags: DIFlagArtificial | DIFlagObjectPointer)
!317 = !DISubprogram(name: "length", linkageName: "_ZNK6String6lengthEv", scope: !184, file: !185, line: 79, type: !318, scopeLine: 79, flags: DIFlagPublic | DIFlagPrototyped, spFlags: DISPFlagOptimized)
!318 = !DISubroutineType(types: !319)
!319 = !{!30, !316}
!320 = !DISubprogram(name: "c_str", linkageName: "_ZNK6String5c_strEv", scope: !184, file: !185, line: 81, type: !314, scopeLine: 81, flags: DIFlagPublic | DIFlagPrototyped, spFlags: DISPFlagOptimized)
!321 = !DISubprogram(name: "operator int (String::*)() const", linkageName: "_ZNK6StringcvMS_KFivEEv", scope: !184, file: !185, line: 83, type: !322, scopeLine: 83, flags: DIFlagPublic | DIFlagPrototyped, spFlags: DISPFlagOptimized)
!322 = !DISubroutineType(types: !323)
!323 = !{!324, !316}
!324 = !DIDerivedType(tag: DW_TAG_typedef, name: "unspecified_bool_type", scope: !184, file: !185, line: 24, baseType: !325)
!325 = !DIDerivedType(tag: DW_TAG_ptr_to_member_type, baseType: !318, size: 128, extraData: !184)
!326 = !DISubprogram(name: "empty", linkageName: "_ZNK6String5emptyEv", scope: !184, file: !185, line: 84, type: !327, scopeLine: 84, flags: DIFlagPublic | DIFlagPrototyped, spFlags: DISPFlagOptimized)
!327 = !DISubroutineType(types: !328)
!328 = !{!94, !316}
!329 = !DISubprogram(name: "operator!", linkageName: "_ZNK6StringntEv", scope: !184, file: !185, line: 85, type: !327, scopeLine: 85, flags: DIFlagPublic | DIFlagPrototyped, spFlags: DISPFlagOptimized)
!330 = !DISubprogram(name: "begin", linkageName: "_ZNK6String5beginEv", scope: !184, file: !185, line: 87, type: !331, scopeLine: 87, flags: DIFlagPublic | DIFlagPrototyped, spFlags: DISPFlagOptimized)
!331 = !DISubroutineType(types: !332)
!332 = !{!333, !316}
!333 = !DIDerivedType(tag: DW_TAG_typedef, name: "const_iterator", scope: !184, file: !185, line: 21, baseType: !197)
!334 = !DISubprogram(name: "end", linkageName: "_ZNK6String3endEv", scope: !184, file: !185, line: 88, type: !331, scopeLine: 88, flags: DIFlagPublic | DIFlagPrototyped, spFlags: DISPFlagOptimized)
!335 = !DISubprogram(name: "operator[]", linkageName: "_ZNK6StringixEi", scope: !184, file: !185, line: 90, type: !336, scopeLine: 90, flags: DIFlagPublic | DIFlagPrototyped, spFlags: DISPFlagOptimized)
!336 = !DISubroutineType(types: !337)
!337 = !{!190, !316, !30}
!338 = !DISubprogram(name: "at", linkageName: "_ZNK6String2atEi", scope: !184, file: !185, line: 91, type: !336, scopeLine: 91, flags: DIFlagPublic | DIFlagPrototyped, spFlags: DISPFlagOptimized)
!339 = !DISubprogram(name: "front", linkageName: "_ZNK6String5frontEv", scope: !184, file: !185, line: 92, type: !340, scopeLine: 92, flags: DIFlagPublic | DIFlagPrototyped, spFlags: DISPFlagOptimized)
!340 = !DISubroutineType(types: !341)
!341 = !{!190, !316}
!342 = !DISubprogram(name: "back", linkageName: "_ZNK6String4backEv", scope: !184, file: !185, line: 93, type: !340, scopeLine: 93, flags: DIFlagPublic | DIFlagPrototyped, spFlags: DISPFlagOptimized)
!343 = !DISubprogram(name: "hashcode", linkageName: "_ZN6String8hashcodeEPKcS1_", scope: !184, file: !185, line: 95, type: !344, scopeLine: 95, flags: DIFlagPublic | DIFlagPrototyped | DIFlagStaticMember, spFlags: DISPFlagOptimized)
!344 = !DISubroutineType(types: !345)
!345 = !{!23, !197, !197}
!346 = !DISubprogram(name: "hashcode", linkageName: "_ZN6String8hashcodeEPKhS1_", scope: !184, file: !185, line: 96, type: !347, scopeLine: 96, flags: DIFlagPublic | DIFlagPrototyped | DIFlagStaticMember, spFlags: DISPFlagOptimized)
!347 = !DISubroutineType(types: !348)
!348 = !{!23, !245, !245}
!349 = !DISubprogram(name: "hashcode", linkageName: "_ZNK6String8hashcodeEv", scope: !184, file: !185, line: 98, type: !350, scopeLine: 98, flags: DIFlagPublic | DIFlagPrototyped, spFlags: DISPFlagOptimized)
!350 = !DISubroutineType(types: !351)
!351 = !{!23, !316}
!352 = !DISubprogram(name: "substring", linkageName: "_ZNK6String9substringEPKcS1_", scope: !184, file: !185, line: 100, type: !353, scopeLine: 100, flags: DIFlagPublic | DIFlagPrototyped, spFlags: DISPFlagOptimized)
!353 = !DISubroutineType(types: !354)
!354 = !{!184, !316, !197, !197}
!355 = !DISubprogram(name: "substring", linkageName: "_ZNK6String9substringEii", scope: !184, file: !185, line: 101, type: !356, scopeLine: 101, flags: DIFlagPublic | DIFlagPrototyped, spFlags: DISPFlagOptimized)
!356 = !DISubroutineType(types: !357)
!357 = !{!184, !316, !30, !30}
!358 = !DISubprogram(name: "substring", linkageName: "_ZNK6String9substringEi", scope: !184, file: !185, line: 102, type: !359, scopeLine: 102, flags: DIFlagPublic | DIFlagPrototyped, spFlags: DISPFlagOptimized)
!359 = !DISubroutineType(types: !360)
!360 = !{!184, !316, !30}
!361 = !DISubprogram(name: "trim_space", linkageName: "_ZNK6String10trim_spaceEv", scope: !184, file: !185, line: 103, type: !362, scopeLine: 103, flags: DIFlagPublic | DIFlagPrototyped, spFlags: DISPFlagOptimized)
!362 = !DISubroutineType(types: !363)
!363 = !{!184, !316}
!364 = !DISubprogram(name: "equals", linkageName: "_ZNK6String6equalsERKS_", scope: !184, file: !185, line: 105, type: !365, scopeLine: 105, flags: DIFlagPublic | DIFlagPrototyped, spFlags: DISPFlagOptimized)
!365 = !DISubroutineType(types: !366)
!366 = !{!94, !316, !230}
!367 = !DISubprogram(name: "equals", linkageName: "_ZNK6String6equalsEPKci", scope: !184, file: !185, line: 106, type: !368, scopeLine: 106, flags: DIFlagPublic | DIFlagPrototyped, spFlags: DISPFlagOptimized)
!368 = !DISubroutineType(types: !369)
!369 = !{!94, !316, !197, !30}
!370 = !DISubprogram(name: "compare", linkageName: "_ZN6String7compareERKS_S1_", scope: !184, file: !185, line: 107, type: !371, scopeLine: 107, flags: DIFlagPublic | DIFlagPrototyped | DIFlagStaticMember, spFlags: DISPFlagOptimized)
!371 = !DISubroutineType(types: !372)
!372 = !{!30, !230, !230}
!373 = !DISubprogram(name: "compare", linkageName: "_ZNK6String7compareERKS_", scope: !184, file: !185, line: 108, type: !374, scopeLine: 108, flags: DIFlagPublic | DIFlagPrototyped, spFlags: DISPFlagOptimized)
!374 = !DISubroutineType(types: !375)
!375 = !{!30, !316, !230}
!376 = !DISubprogram(name: "compare", linkageName: "_ZNK6String7compareEPKci", scope: !184, file: !185, line: 109, type: !377, scopeLine: 109, flags: DIFlagPublic | DIFlagPrototyped, spFlags: DISPFlagOptimized)
!377 = !DISubroutineType(types: !378)
!378 = !{!30, !316, !197, !30}
!379 = !DISubprogram(name: "starts_with", linkageName: "_ZNK6String11starts_withERKS_", scope: !184, file: !185, line: 110, type: !365, scopeLine: 110, flags: DIFlagPublic | DIFlagPrototyped, spFlags: DISPFlagOptimized)
!380 = !DISubprogram(name: "starts_with", linkageName: "_ZNK6String11starts_withEPKci", scope: !184, file: !185, line: 111, type: !368, scopeLine: 111, flags: DIFlagPublic | DIFlagPrototyped, spFlags: DISPFlagOptimized)
!381 = !DISubprogram(name: "glob_match", linkageName: "_ZNK6String10glob_matchERKS_", scope: !184, file: !185, line: 112, type: !365, scopeLine: 112, flags: DIFlagPublic | DIFlagPrototyped, spFlags: DISPFlagOptimized)
!382 = !DISubprogram(name: "find_left", linkageName: "_ZNK6String9find_leftEci", scope: !184, file: !185, line: 125, type: !383, scopeLine: 125, flags: DIFlagPublic | DIFlagPrototyped, spFlags: DISPFlagOptimized)
!383 = !DISubroutineType(types: !384)
!384 = !{!30, !316, !190, !30}
!385 = !DISubprogram(name: "find_left", linkageName: "_ZNK6String9find_leftERKS_i", scope: !184, file: !185, line: 126, type: !386, scopeLine: 126, flags: DIFlagPublic | DIFlagPrototyped, spFlags: DISPFlagOptimized)
!386 = !DISubroutineType(types: !387)
!387 = !{!30, !316, !230, !30}
!388 = !DISubprogram(name: "find_right", linkageName: "_ZNK6String10find_rightEci", scope: !184, file: !185, line: 127, type: !383, scopeLine: 127, flags: DIFlagPublic | DIFlagPrototyped, spFlags: DISPFlagOptimized)
!389 = !DISubprogram(name: "lower", linkageName: "_ZNK6String5lowerEv", scope: !184, file: !185, line: 129, type: !362, scopeLine: 129, flags: DIFlagPublic | DIFlagPrototyped, spFlags: DISPFlagOptimized)
!390 = !DISubprogram(name: "upper", linkageName: "_ZNK6String5upperEv", scope: !184, file: !185, line: 130, type: !362, scopeLine: 130, flags: DIFlagPublic | DIFlagPrototyped, spFlags: DISPFlagOptimized)
!391 = !DISubprogram(name: "printable", linkageName: "_ZNK6String9printableEv", scope: !184, file: !185, line: 131, type: !362, scopeLine: 131, flags: DIFlagPublic | DIFlagPrototyped, spFlags: DISPFlagOptimized)
!392 = !DISubprogram(name: "quoted_hex", linkageName: "_ZNK6String10quoted_hexEv", scope: !184, file: !185, line: 132, type: !362, scopeLine: 132, flags: DIFlagPublic | DIFlagPrototyped, spFlags: DISPFlagOptimized)
!393 = !DISubprogram(name: "encode_json", linkageName: "_ZNK6String11encode_jsonEv", scope: !184, file: !185, line: 133, type: !362, scopeLine: 133, flags: DIFlagPublic | DIFlagPrototyped, spFlags: DISPFlagOptimized)
!394 = !DISubprogram(name: "operator=", linkageName: "_ZN6StringaSERKS_", scope: !184, file: !185, line: 135, type: !395, scopeLine: 135, flags: DIFlagPublic | DIFlagPrototyped, spFlags: DISPFlagOptimized)
!395 = !DISubroutineType(types: !396)
!396 = !{!397, !226, !230}
!397 = !DIDerivedType(tag: DW_TAG_reference_type, baseType: !184, size: 64)
!398 = !DISubprogram(name: "operator=", linkageName: "_ZN6StringaSEOS_", scope: !184, file: !185, line: 137, type: !399, scopeLine: 137, flags: DIFlagPublic | DIFlagPrototyped, spFlags: DISPFlagOptimized)
!399 = !DISubroutineType(types: !400)
!400 = !{!397, !226, !235}
!401 = !DISubprogram(name: "operator=", linkageName: "_ZN6StringaSEPKc", scope: !184, file: !185, line: 139, type: !402, scopeLine: 139, flags: DIFlagPublic | DIFlagPrototyped, spFlags: DISPFlagOptimized)
!402 = !DISubroutineType(types: !403)
!403 = !{!397, !226, !197}
!404 = !DISubprogram(name: "swap", linkageName: "_ZN6String4swapERS_", scope: !184, file: !185, line: 141, type: !405, scopeLine: 141, flags: DIFlagPublic | DIFlagPrototyped, spFlags: DISPFlagOptimized)
!405 = !DISubroutineType(types: !406)
!406 = !{null, !226, !397}
!407 = !DISubprogram(name: "append", linkageName: "_ZN6String6appendERKS_", scope: !184, file: !185, line: 143, type: !228, scopeLine: 143, flags: DIFlagPublic | DIFlagPrototyped, spFlags: DISPFlagOptimized)
!408 = !DISubprogram(name: "append", linkageName: "_ZN6String6appendEPKc", scope: !184, file: !185, line: 144, type: !237, scopeLine: 144, flags: DIFlagPublic | DIFlagPrototyped, spFlags: DISPFlagOptimized)
!409 = !DISubprogram(name: "append", linkageName: "_ZN6String6appendEPKci", scope: !184, file: !185, line: 145, type: !240, scopeLine: 145, flags: DIFlagPublic | DIFlagPrototyped, spFlags: DISPFlagOptimized)
!410 = !DISubprogram(name: "append", linkageName: "_ZN6String6appendEPKcS1_", scope: !184, file: !185, line: 146, type: !249, scopeLine: 146, flags: DIFlagPublic | DIFlagPrototyped, spFlags: DISPFlagOptimized)
!411 = !DISubprogram(name: "append", linkageName: "_ZN6String6appendEc", scope: !184, file: !185, line: 147, type: !258, scopeLine: 147, flags: DIFlagPublic | DIFlagPrototyped, spFlags: DISPFlagOptimized)
!412 = !DISubprogram(name: "append_fill", linkageName: "_ZN6String11append_fillEii", scope: !184, file: !185, line: 148, type: !413, scopeLine: 148, flags: DIFlagPublic | DIFlagPrototyped, spFlags: DISPFlagOptimized)
!413 = !DISubroutineType(types: !414)
!414 = !{null, !226, !30, !30}
!415 = !DISubprogram(name: "append_uninitialized", linkageName: "_ZN6String20append_uninitializedEi", scope: !184, file: !185, line: 149, type: !416, scopeLine: 149, flags: DIFlagPublic | DIFlagPrototyped, spFlags: DISPFlagOptimized)
!416 = !DISubroutineType(types: !417)
!417 = !{!418, !226, !30}
!418 = !DIDerivedType(tag: DW_TAG_pointer_type, baseType: !190, size: 64)
!419 = !DISubprogram(name: "append_garbage", linkageName: "_ZN6String14append_garbageEi", scope: !184, file: !185, line: 150, type: !416, scopeLine: 150, flags: DIFlagPublic | DIFlagPrototyped, spFlags: DISPFlagOptimized)
!420 = !DISubprogram(name: "operator+=", linkageName: "_ZN6StringpLERKS_", scope: !184, file: !185, line: 152, type: !395, scopeLine: 152, flags: DIFlagPublic | DIFlagPrototyped, spFlags: DISPFlagOptimized)
!421 = !DISubprogram(name: "operator+=", linkageName: "_ZN6StringpLEPKc", scope: !184, file: !185, line: 153, type: !402, scopeLine: 153, flags: DIFlagPublic | DIFlagPrototyped, spFlags: DISPFlagOptimized)
!422 = !DISubprogram(name: "operator+=", linkageName: "_ZN6StringpLEc", scope: !184, file: !185, line: 154, type: !423, scopeLine: 154, flags: DIFlagPublic | DIFlagPrototyped, spFlags: DISPFlagOptimized)
!423 = !DISubroutineType(types: !424)
!424 = !{!397, !226, !190}
!425 = !DISubprogram(name: "is_shared", linkageName: "_ZNK6String9is_sharedEv", scope: !184, file: !185, line: 160, type: !327, scopeLine: 160, flags: DIFlagPublic | DIFlagPrototyped, spFlags: DISPFlagOptimized)
!426 = !DISubprogram(name: "is_stable", linkageName: "_ZNK6String9is_stableEv", scope: !184, file: !185, line: 161, type: !327, scopeLine: 161, flags: DIFlagPublic | DIFlagPrototyped, spFlags: DISPFlagOptimized)
!427 = !DISubprogram(name: "unique", linkageName: "_ZNK6String6uniqueEv", scope: !184, file: !185, line: 163, type: !362, scopeLine: 163, flags: DIFlagPublic | DIFlagPrototyped, spFlags: DISPFlagOptimized)
!428 = !DISubprogram(name: "unshared", linkageName: "_ZNK6String8unsharedEv", scope: !184, file: !185, line: 164, type: !362, scopeLine: 164, flags: DIFlagPublic | DIFlagPrototyped, spFlags: DISPFlagOptimized)
!429 = !DISubprogram(name: "compact", linkageName: "_ZNK6String7compactEv", scope: !184, file: !185, line: 165, type: !362, scopeLine: 165, flags: DIFlagPublic | DIFlagPrototyped, spFlags: DISPFlagOptimized)
!430 = !DISubprogram(name: "mutable_data", linkageName: "_ZN6String12mutable_dataEv", scope: !184, file: !185, line: 167, type: !431, scopeLine: 167, flags: DIFlagPublic | DIFlagPrototyped, spFlags: DISPFlagOptimized)
!431 = !DISubroutineType(types: !432)
!432 = !{!418, !226}
!433 = !DISubprogram(name: "mutable_c_str", linkageName: "_ZN6String13mutable_c_strEv", scope: !184, file: !185, line: 168, type: !431, scopeLine: 168, flags: DIFlagPublic | DIFlagPrototyped, spFlags: DISPFlagOptimized)
!434 = !DISubprogram(name: "make_out_of_memory", linkageName: "_ZN6String18make_out_of_memoryEv", scope: !184, file: !185, line: 170, type: !288, scopeLine: 170, flags: DIFlagPublic | DIFlagPrototyped | DIFlagStaticMember, spFlags: DISPFlagOptimized)
!435 = !DISubprogram(name: "out_of_memory", linkageName: "_ZNK6String13out_of_memoryEv", scope: !184, file: !185, line: 171, type: !327, scopeLine: 171, flags: DIFlagPublic | DIFlagPrototyped, spFlags: DISPFlagOptimized)
!436 = !DISubprogram(name: "out_of_memory_data", linkageName: "_ZN6String18out_of_memory_dataEv", scope: !184, file: !185, line: 172, type: !437, scopeLine: 172, flags: DIFlagPublic | DIFlagPrototyped | DIFlagStaticMember, spFlags: DISPFlagOptimized)
!437 = !DISubroutineType(types: !438)
!438 = !{!197}
!439 = !DISubprogram(name: "out_of_memory_length", linkageName: "_ZN6String20out_of_memory_lengthEv", scope: !184, file: !185, line: 173, type: !440, scopeLine: 173, flags: DIFlagPublic | DIFlagPrototyped | DIFlagStaticMember, spFlags: DISPFlagOptimized)
!440 = !DISubroutineType(types: !441)
!441 = !{!30}
!442 = !DISubprogram(name: "empty_data", linkageName: "_ZN6String10empty_dataEv", scope: !184, file: !185, line: 174, type: !437, scopeLine: 174, flags: DIFlagPublic | DIFlagPrototyped | DIFlagStaticMember, spFlags: DISPFlagOptimized)
!443 = !DISubprogram(name: "skip_utf8_char", linkageName: "_ZN6String14skip_utf8_charEPKcS1_", scope: !184, file: !185, line: 180, type: !444, scopeLine: 180, flags: DIFlagPublic | DIFlagPrototyped | DIFlagStaticMember, spFlags: DISPFlagOptimized)
!444 = !DISubroutineType(types: !445)
!445 = !{!197, !197, !197}
!446 = !DISubprogram(name: "skip_utf8_char", linkageName: "_ZN6String14skip_utf8_charEPKhS1_", scope: !184, file: !185, line: 181, type: !447, scopeLine: 181, flags: DIFlagPublic | DIFlagPrototyped | DIFlagStaticMember, spFlags: DISPFlagOptimized)
!447 = !DISubroutineType(types: !448)
!448 = !{!245, !245, !245}
!449 = !DISubprogram(name: "assign_memo", linkageName: "_ZNK6String11assign_memoEPKciPNS_6memo_tE", scope: !184, file: !185, line: 256, type: !450, scopeLine: 256, flags: DIFlagPrototyped, spFlags: DISPFlagOptimized)
!450 = !DISubroutineType(types: !451)
!451 = !{null, !316, !197, !30, !200}
!452 = !DISubprogram(name: "String", scope: !184, file: !185, line: 263, type: !453, scopeLine: 263, flags: DIFlagPrototyped, spFlags: DISPFlagOptimized)
!453 = !DISubroutineType(types: !454)
!454 = !{null, !226, !197, !30, !200}
!455 = !DISubprogram(name: "assign", linkageName: "_ZNK6String6assignERKS_", scope: !184, file: !185, line: 267, type: !456, scopeLine: 267, flags: DIFlagPrototyped, spFlags: DISPFlagOptimized)
!456 = !DISubroutineType(types: !457)
!457 = !{null, !316, !230}
!458 = !DISubprogram(name: "deref", linkageName: "_ZNK6String5derefEv", scope: !184, file: !185, line: 271, type: !459, scopeLine: 271, flags: DIFlagPrototyped, spFlags: DISPFlagOptimized)
!459 = !DISubroutineType(types: !460)
!460 = !{null, !316}
!461 = !DISubprogram(name: "assign", linkageName: "_ZN6String6assignEPKcib", scope: !184, file: !185, line: 280, type: !462, scopeLine: 280, flags: DIFlagPrototyped, spFlags: DISPFlagOptimized)
!462 = !DISubroutineType(types: !463)
!463 = !{null, !226, !197, !30, !94}
!464 = !DISubprogram(name: "assign_out_of_memory", linkageName: "_ZN6String20assign_out_of_memoryEv", scope: !184, file: !185, line: 281, type: !224, scopeLine: 281, flags: DIFlagPrototyped, spFlags: DISPFlagOptimized)
!465 = !DISubprogram(name: "append", linkageName: "_ZN6String6appendEPKciPNS_6memo_tE", scope: !184, file: !185, line: 282, type: !453, scopeLine: 282, flags: DIFlagPrototyped, spFlags: DISPFlagOptimized)
!466 = !DISubprogram(name: "hard_make_stable", linkageName: "_ZN6String16hard_make_stableEPKci", scope: !184, file: !185, line: 283, type: !298, scopeLine: 283, flags: DIFlagPrototyped | DIFlagStaticMember, spFlags: DISPFlagOptimized)
!467 = !DISubprogram(name: "absent_memo", linkageName: "_ZN6String11absent_memoEv", scope: !184, file: !185, line: 284, type: !468, scopeLine: 284, flags: DIFlagPrototyped | DIFlagStaticMember, spFlags: DISPFlagOptimized)
!468 = !DISubroutineType(types: !469)
!469 = !{!200}
!470 = !DISubprogram(name: "create_memo", linkageName: "_ZN6String11create_memoEPcii", scope: !184, file: !185, line: 287, type: !471, scopeLine: 287, flags: DIFlagPrototyped | DIFlagStaticMember, spFlags: DISPFlagOptimized)
!471 = !DISubroutineType(types: !472)
!472 = !{!200, !418, !30, !30}
!473 = !DISubprogram(name: "delete_memo", linkageName: "_ZN6String11delete_memoEPNS_6memo_tE", scope: !184, file: !185, line: 288, type: !474, scopeLine: 288, flags: DIFlagPrototyped | DIFlagStaticMember, spFlags: DISPFlagOptimized)
!474 = !DISubroutineType(types: !475)
!475 = !{null, !200}
!476 = !DISubprogram(name: "hard_c_str", linkageName: "_ZNK6String10hard_c_strEv", scope: !184, file: !185, line: 289, type: !314, scopeLine: 289, flags: DIFlagPrototyped, spFlags: DISPFlagOptimized)
!477 = !DISubprogram(name: "hard_equals", linkageName: "_ZNK6String11hard_equalsEPKci", scope: !184, file: !185, line: 290, type: !368, scopeLine: 290, flags: DIFlagPrototyped, spFlags: DISPFlagOptimized)
!478 = !DISubprogram(name: "make_claim", linkageName: "_ZN6String10make_claimEPcii", scope: !184, file: !185, line: 299, type: !479, scopeLine: 299, flags: DIFlagPrototyped | DIFlagStaticMember, spFlags: DISPFlagOptimized)
!479 = !DISubroutineType(types: !480)
!480 = !{!184, !418, !30, !30}
!481 = !DISubprogram(name: "unparse_interval", linkageName: "_ZNK9Timestamp16unparse_intervalEv", scope: !5, file: !4, line: 501, type: !182, scopeLine: 501, flags: DIFlagPublic | DIFlagPrototyped, spFlags: DISPFlagOptimized)
!482 = !DISubprogram(name: "msec_to_subsec", linkageName: "_ZN9Timestamp14msec_to_subsecEj", scope: !5, file: !4, line: 510, type: !483, scopeLine: 510, flags: DIFlagPublic | DIFlagPrototyped | DIFlagStaticMember, spFlags: DISPFlagOptimized)
!483 = !DISubroutineType(types: !484)
!484 = !{!23, !23}
!485 = !DISubprogram(name: "usec_to_subsec", linkageName: "_ZN9Timestamp14usec_to_subsecEj", scope: !5, file: !4, line: 514, type: !483, scopeLine: 514, flags: DIFlagPublic | DIFlagPrototyped | DIFlagStaticMember, spFlags: DISPFlagOptimized)
!486 = !DISubprogram(name: "nsec_to_subsec", linkageName: "_ZN9Timestamp14nsec_to_subsecEj", scope: !5, file: !4, line: 518, type: !483, scopeLine: 518, flags: DIFlagPublic | DIFlagPrototyped | DIFlagStaticMember, spFlags: DISPFlagOptimized)
!487 = !DISubprogram(name: "subsec_to_msec", linkageName: "_ZN9Timestamp14subsec_to_msecEj", scope: !5, file: !4, line: 522, type: !483, scopeLine: 522, flags: DIFlagPublic | DIFlagPrototyped | DIFlagStaticMember, spFlags: DISPFlagOptimized)
!488 = !DISubprogram(name: "subsec_to_usec", linkageName: "_ZN9Timestamp14subsec_to_usecEj", scope: !5, file: !4, line: 526, type: !483, scopeLine: 526, flags: DIFlagPublic | DIFlagPrototyped | DIFlagStaticMember, spFlags: DISPFlagOptimized)
!489 = !DISubprogram(name: "subsec_to_nsec", linkageName: "_ZN9Timestamp14subsec_to_nsecEj", scope: !5, file: !4, line: 530, type: !483, scopeLine: 530, flags: DIFlagPublic | DIFlagPrototyped | DIFlagStaticMember, spFlags: DISPFlagOptimized)
!490 = !DISubprogram(name: "warp_class", linkageName: "_ZN9Timestamp10warp_classEv", scope: !5, file: !4, line: 581, type: !440, scopeLine: 581, flags: DIFlagPublic | DIFlagPrototyped | DIFlagStaticMember, spFlags: DISPFlagOptimized)
!491 = !DISubprogram(name: "warp_speed", linkageName: "_ZN9Timestamp10warp_speedEv", scope: !5, file: !4, line: 588, type: !492, scopeLine: 588, flags: DIFlagPublic | DIFlagPrototyped | DIFlagStaticMember, spFlags: DISPFlagOptimized)
!492 = !DISubroutineType(types: !493)
!493 = !{!41}
!494 = !DISubprogram(name: "warp_set_class", linkageName: "_ZN9Timestamp14warp_set_classENS_15warp_class_typeEd", scope: !5, file: !4, line: 621, type: !495, scopeLine: 621, flags: DIFlagPublic | DIFlagPrototyped | DIFlagStaticMember, spFlags: DISPFlagOptimized)
!495 = !DISubroutineType(types: !496)
!496 = !{null, !3, !41}
!497 = !DISubprogram(name: "warp_set_now", linkageName: "_ZN9Timestamp12warp_set_nowERKS_S1_", scope: !5, file: !4, line: 628, type: !498, scopeLine: 628, flags: DIFlagPublic | DIFlagPrototyped | DIFlagStaticMember, spFlags: DISPFlagOptimized)
!498 = !DISubroutineType(types: !499)
!499 = !{null, !500, !500}
!500 = !DIDerivedType(tag: DW_TAG_reference_type, baseType: !90, size: 64)
!501 = !DISubprogram(name: "warp_real_delay", linkageName: "_ZNK9Timestamp15warp_real_delayEv", scope: !5, file: !4, line: 632, type: !128, scopeLine: 632, flags: DIFlagPublic | DIFlagPrototyped, spFlags: DISPFlagOptimized)
!502 = !DISubprogram(name: "warp_jumping", linkageName: "_ZN9Timestamp12warp_jumpingEv", scope: !5, file: !4, line: 635, type: !503, scopeLine: 635, flags: DIFlagPublic | DIFlagPrototyped | DIFlagStaticMember, spFlags: DISPFlagOptimized)
!503 = !DISubroutineType(types: !504)
!504 = !{!94}
!505 = !DISubprogram(name: "warp_jump_steady", linkageName: "_ZN9Timestamp16warp_jump_steadyERKS_", scope: !5, file: !4, line: 640, type: !506, scopeLine: 640, flags: DIFlagPublic | DIFlagPrototyped | DIFlagStaticMember, spFlags: DISPFlagOptimized)
!506 = !DISubroutineType(types: !507)
!507 = !{null, !500}
!508 = !DISubprogram(name: "now_unwarped", linkageName: "_ZN9Timestamp12now_unwarpedEv", scope: !5, file: !4, line: 647, type: !158, scopeLine: 647, flags: DIFlagPublic | DIFlagPrototyped | DIFlagStaticMember, spFlags: DISPFlagOptimized)
!509 = !DISubprogram(name: "assign_now_unwarped", linkageName: "_ZN9Timestamp19assign_now_unwarpedEv", scope: !5, file: !4, line: 653, type: !17, scopeLine: 653, flags: DIFlagPublic | DIFlagPrototyped, spFlags: DISPFlagOptimized)
!510 = !DISubprogram(name: "now_steady_unwarped", linkageName: "_ZN9Timestamp19now_steady_unwarpedEv", scope: !5, file: !4, line: 659, type: !158, scopeLine: 659, flags: DIFlagPublic | DIFlagPrototyped | DIFlagStaticMember, spFlags: DISPFlagOptimized)
!511 = !DISubprogram(name: "assign_now_steady_unwarped", linkageName: "_ZN9Timestamp26assign_now_steady_unwarpedEv", scope: !5, file: !4, line: 666, type: !17, scopeLine: 666, flags: DIFlagPublic | DIFlagPrototyped, spFlags: DISPFlagOptimized)
!512 = !DISubprogram(name: "add_fix", linkageName: "_ZN9Timestamp7add_fixEv", scope: !5, file: !4, line: 674, type: !17, scopeLine: 674, flags: DIFlagPrototyped, spFlags: DISPFlagOptimized)
!513 = !DISubprogram(name: "sub_fix", linkageName: "_ZN9Timestamp7sub_fixEv", scope: !5, file: !4, line: 686, type: !17, scopeLine: 686, flags: DIFlagPrototyped, spFlags: DISPFlagOptimized)
!514 = !DISubprogram(name: "value_div", linkageName: "_ZN9Timestamp9value_divElj", scope: !5, file: !4, line: 698, type: !515, scopeLine: 698, flags: DIFlagPrototyped | DIFlagStaticMember, spFlags: DISPFlagOptimized)
!515 = !DISubroutineType(types: !516)
!516 = !{!124, !124, !23}
!517 = !DISubprogram(name: "value_div_mod", linkageName: "_ZN9Timestamp13value_div_modERiS0_lj", scope: !5, file: !4, line: 702, type: !518, scopeLine: 702, flags: DIFlagPrototyped | DIFlagStaticMember, spFlags: DISPFlagOptimized)
!518 = !DISubroutineType(types: !519)
!519 = !{null, !520, !520, !124, !23}
!520 = !DIDerivedType(tag: DW_TAG_reference_type, baseType: !87, size: 64)
!521 = !DISubprogram(name: "assign_now", linkageName: "_ZN9Timestamp10assign_nowEbbb", scope: !5, file: !4, line: 709, type: !522, scopeLine: 709, flags: DIFlagPrototyped, spFlags: DISPFlagOptimized)
!522 = !DISubroutineType(types: !523)
!523 = !{null, !19, !94, !94, !94}
!524 = !DISubprogram(name: "warp_adjust", linkageName: "_ZN9Timestamp11warp_adjustEbRKS_S1_", scope: !5, file: !4, line: 712, type: !525, scopeLine: 712, flags: DIFlagPrototyped | DIFlagStaticMember, spFlags: DISPFlagOptimized)
!525 = !DISubroutineType(types: !526)
!526 = !{null, !94, !500, !500}
!527 = !DISubprogram(name: "warped", linkageName: "_ZNK9Timestamp6warpedEb", scope: !5, file: !4, line: 713, type: !528, scopeLine: 713, flags: DIFlagPrototyped, spFlags: DISPFlagOptimized)
!528 = !DISubroutineType(types: !529)
!529 = !{!5, !89, !94}
!530 = !DISubprogram(name: "warp", linkageName: "_ZN9Timestamp4warpEbb", scope: !5, file: !4, line: 714, type: !531, scopeLine: 714, flags: DIFlagPrototyped, spFlags: DISPFlagOptimized)
!531 = !DISubroutineType(types: !532)
!532 = !{null, !19, !94, !94}
!533 = !{!534, !535, !536, !537}
!534 = !DIEnumerator(name: "warp_none", value: 0, isUnsigned: true)
!535 = !DIEnumerator(name: "warp_linear", value: 1, isUnsigned: true)
!536 = !DIEnumerator(name: "warp_nowait", value: 2, isUnsigned: true)
!537 = !DIEnumerator(name: "warp_simulation", value: 3, isUnsigned: true)
!538 = !DICompositeType(tag: DW_TAG_enumeration_type, scope: !540, file: !539, line: 56, baseType: !26, size: 32, elements: !541, identifier: "_ZTSN12RatedUnqueueUt_E")
!539 = !DIFile(filename: "../elements/standard/ratedunqueue.hh", directory: "/home/john/projects/click/ir-dir")
!540 = !DICompositeType(tag: DW_TAG_class_type, name: "RatedUnqueue", file: !539, line: 45, flags: DIFlagFwdDecl, identifier: "_ZTS12RatedUnqueue")
!541 = !{!542}
!542 = !DIEnumerator(name: "tb_bandwidth_thresh", value: 131072, isUnsigned: true)
!543 = !DICompositeType(tag: DW_TAG_enumeration_type, name: "PacketType", scope: !545, file: !544, line: 368, baseType: !26, size: 32, elements: !1159, identifier: "_ZTSN6Packet10PacketTypeE")
!544 = !DIFile(filename: "../dummy_inc/click/packet.hh", directory: "/home/john/projects/click/ir-dir")
!545 = distinct !DICompositeType(tag: DW_TAG_class_type, name: "Packet", file: !544, line: 35, size: 1344, flags: DIFlagTypePassByReference | DIFlagNonTrivial, elements: !546, identifier: "_ZTS6Packet")
!546 = !{!547, !606, !608, !610, !611, !612, !613, !649, !657, !658, !747, !750, !753, !756, !759, !763, !767, !770, !773, !776, !777, !780, !781, !782, !783, !784, !785, !788, !791, !794, !795, !798, !799, !802, !805, !806, !807, !808, !811, !814, !817, !820, !821, !822, !825, !826, !827, !830, !831, !832, !833, !834, !835, !836, !837, !838, !839, !840, !841, !842, !843, !844, !845, !850, !853, !858, !859, !860, !863, !868, !869, !870, !873, !876, !881, !886, !891, !896, !900, !903, !907, !910, !916, !919, !922, !925, !928, !932, !935, !936, !937, !938, !1028, !1031, !1032, !1035, !1039, !1044, !1048, !1053, !1056, !1059, !1062, !1065, !1071, !1074, !1077, !1080, !1083, !1086, !1089, !1092, !1095, !1098, !1099, !1102, !1106, !1107, !1108, !1109, !1110, !1111, !1112, !1113, !1114, !1115, !1116, !1117, !1118, !1119, !1120, !1121, !1122, !1123, !1124, !1125, !1126, !1127, !1128, !1129, !1130, !1131, !1132, !1133, !1134, !1135, !1136, !1137, !1138, !1139, !1140, !1143, !1144, !1148, !1151, !1154, !1157, !1158}
!547 = !DIDerivedType(tag: DW_TAG_member, name: "_use_count", scope: !545, file: !544, line: 731, baseType: !548, size: 32)
!548 = distinct !DICompositeType(tag: DW_TAG_class_type, name: "atomic_uint32_t", file: !549, line: 52, size: 32, flags: DIFlagTypePassByValue, elements: !550, identifier: "_ZTS15atomic_uint32_t")
!549 = !DIFile(filename: "../dummy_inc/click/atomic.hh", directory: "/home/john/projects/click/ir-dir")
!550 = !{!551, !552, !557, !558, !563, !566, !567, !568, !569, !572, !575, !576, !577, !580, !581, !584, !587, !590, !594, !597, !600, !603}
!551 = !DIDerivedType(tag: DW_TAG_member, name: "_val", scope: !548, file: !549, line: 91, baseType: !23, size: 32)
!552 = !DISubprogram(name: "value", linkageName: "_ZNK15atomic_uint32_t5valueEv", scope: !548, file: !549, line: 57, type: !553, scopeLine: 57, flags: DIFlagPublic | DIFlagPrototyped, spFlags: DISPFlagOptimized)
!553 = !DISubroutineType(types: !554)
!554 = !{!23, !555}
!555 = !DIDerivedType(tag: DW_TAG_pointer_type, baseType: !556, size: 64, flags: DIFlagArtificial | DIFlagObjectPointer)
!556 = !DIDerivedType(tag: DW_TAG_const_type, baseType: !548)
!557 = !DISubprogram(name: "operator unsigned int", linkageName: "_ZNK15atomic_uint32_tcvjEv", scope: !548, file: !549, line: 58, type: !553, scopeLine: 58, flags: DIFlagPublic | DIFlagPrototyped, spFlags: DISPFlagOptimized)
!558 = !DISubprogram(name: "operator=", linkageName: "_ZN15atomic_uint32_taSEj", scope: !548, file: !549, line: 60, type: !559, scopeLine: 60, flags: DIFlagPublic | DIFlagPrototyped, spFlags: DISPFlagOptimized)
!559 = !DISubroutineType(types: !560)
!560 = !{!561, !562, !23}
!561 = !DIDerivedType(tag: DW_TAG_reference_type, baseType: !548, size: 64)
!562 = !DIDerivedType(tag: DW_TAG_pointer_type, baseType: !548, size: 64, flags: DIFlagArtificial | DIFlagObjectPointer)
!563 = !DISubprogram(name: "operator+=", linkageName: "_ZN15atomic_uint32_tpLEi", scope: !548, file: !549, line: 62, type: !564, scopeLine: 62, flags: DIFlagPublic | DIFlagPrototyped, spFlags: DISPFlagOptimized)
!564 = !DISubroutineType(types: !565)
!565 = !{!561, !562, !87}
!566 = !DISubprogram(name: "operator-=", linkageName: "_ZN15atomic_uint32_tmIEi", scope: !548, file: !549, line: 63, type: !564, scopeLine: 63, flags: DIFlagPublic | DIFlagPrototyped, spFlags: DISPFlagOptimized)
!567 = !DISubprogram(name: "operator|=", linkageName: "_ZN15atomic_uint32_toREj", scope: !548, file: !549, line: 64, type: !559, scopeLine: 64, flags: DIFlagPublic | DIFlagPrototyped, spFlags: DISPFlagOptimized)
!568 = !DISubprogram(name: "operator&=", linkageName: "_ZN15atomic_uint32_taNEj", scope: !548, file: !549, line: 65, type: !559, scopeLine: 65, flags: DIFlagPublic | DIFlagPrototyped, spFlags: DISPFlagOptimized)
!569 = !DISubprogram(name: "operator++", linkageName: "_ZN15atomic_uint32_tppEv", scope: !548, file: !549, line: 67, type: !570, scopeLine: 67, flags: DIFlagPublic | DIFlagPrototyped, spFlags: DISPFlagOptimized)
!570 = !DISubroutineType(types: !571)
!571 = !{null, !562}
!572 = !DISubprogram(name: "operator++", linkageName: "_ZN15atomic_uint32_tppEi", scope: !548, file: !549, line: 68, type: !573, scopeLine: 68, flags: DIFlagPublic | DIFlagPrototyped, spFlags: DISPFlagOptimized)
!573 = !DISubroutineType(types: !574)
!574 = !{null, !562, !30}
!575 = !DISubprogram(name: "operator--", linkageName: "_ZN15atomic_uint32_tmmEv", scope: !548, file: !549, line: 69, type: !570, scopeLine: 69, flags: DIFlagPublic | DIFlagPrototyped, spFlags: DISPFlagOptimized)
!576 = !DISubprogram(name: "operator--", linkageName: "_ZN15atomic_uint32_tmmEi", scope: !548, file: !549, line: 70, type: !573, scopeLine: 70, flags: DIFlagPublic | DIFlagPrototyped, spFlags: DISPFlagOptimized)
!577 = !DISubprogram(name: "swap", linkageName: "_ZN15atomic_uint32_t4swapEj", scope: !548, file: !549, line: 72, type: !578, scopeLine: 72, flags: DIFlagPublic | DIFlagPrototyped, spFlags: DISPFlagOptimized)
!578 = !DISubroutineType(types: !579)
!579 = !{!23, !562, !23}
!580 = !DISubprogram(name: "fetch_and_add", linkageName: "_ZN15atomic_uint32_t13fetch_and_addEj", scope: !548, file: !549, line: 73, type: !578, scopeLine: 73, flags: DIFlagPublic | DIFlagPrototyped, spFlags: DISPFlagOptimized)
!581 = !DISubprogram(name: "dec_and_test", linkageName: "_ZN15atomic_uint32_t12dec_and_testEv", scope: !548, file: !549, line: 74, type: !582, scopeLine: 74, flags: DIFlagPublic | DIFlagPrototyped, spFlags: DISPFlagOptimized)
!582 = !DISubroutineType(types: !583)
!583 = !{!94, !562}
!584 = !DISubprogram(name: "compare_swap", linkageName: "_ZN15atomic_uint32_t12compare_swapEjj", scope: !548, file: !549, line: 75, type: !585, scopeLine: 75, flags: DIFlagPublic | DIFlagPrototyped, spFlags: DISPFlagOptimized)
!585 = !DISubroutineType(types: !586)
!586 = !{!23, !562, !23, !23}
!587 = !DISubprogram(name: "compare_and_swap", linkageName: "_ZN15atomic_uint32_t16compare_and_swapEjj", scope: !548, file: !549, line: 76, type: !588, scopeLine: 76, flags: DIFlagPublic | DIFlagPrototyped, spFlags: DISPFlagOptimized)
!588 = !DISubroutineType(types: !589)
!589 = !{!94, !562, !23, !23}
!590 = !DISubprogram(name: "swap", linkageName: "_ZN15atomic_uint32_t4swapERVjj", scope: !548, file: !549, line: 78, type: !591, scopeLine: 78, flags: DIFlagPublic | DIFlagPrototyped | DIFlagStaticMember, spFlags: DISPFlagOptimized)
!591 = !DISubroutineType(types: !592)
!592 = !{!23, !593, !23}
!593 = !DIDerivedType(tag: DW_TAG_reference_type, baseType: !204, size: 64)
!594 = !DISubprogram(name: "inc", linkageName: "_ZN15atomic_uint32_t3incERVj", scope: !548, file: !549, line: 79, type: !595, scopeLine: 79, flags: DIFlagPublic | DIFlagPrototyped | DIFlagStaticMember, spFlags: DISPFlagOptimized)
!595 = !DISubroutineType(types: !596)
!596 = !{null, !593}
!597 = !DISubprogram(name: "dec_and_test", linkageName: "_ZN15atomic_uint32_t12dec_and_testERVj", scope: !548, file: !549, line: 80, type: !598, scopeLine: 80, flags: DIFlagPublic | DIFlagPrototyped | DIFlagStaticMember, spFlags: DISPFlagOptimized)
!598 = !DISubroutineType(types: !599)
!599 = !{!94, !593}
!600 = !DISubprogram(name: "compare_swap", linkageName: "_ZN15atomic_uint32_t12compare_swapERVjjj", scope: !548, file: !549, line: 81, type: !601, scopeLine: 81, flags: DIFlagPublic | DIFlagPrototyped | DIFlagStaticMember, spFlags: DISPFlagOptimized)
!601 = !DISubroutineType(types: !602)
!602 = !{!23, !593, !23, !23}
!603 = !DISubprogram(name: "compare_and_swap", linkageName: "_ZN15atomic_uint32_t16compare_and_swapERVjjj", scope: !548, file: !549, line: 82, type: !604, scopeLine: 82, flags: DIFlagPublic | DIFlagPrototyped | DIFlagStaticMember, spFlags: DISPFlagOptimized)
!604 = !DISubroutineType(types: !605)
!605 = !{!94, !593, !23, !23}
!606 = !DIDerivedType(tag: DW_TAG_member, name: "_data_packet", scope: !545, file: !544, line: 732, baseType: !607, size: 64, offset: 64)
!607 = !DIDerivedType(tag: DW_TAG_pointer_type, baseType: !545, size: 64)
!608 = !DIDerivedType(tag: DW_TAG_member, name: "_head", scope: !545, file: !544, line: 734, baseType: !609, size: 64, offset: 128)
!609 = !DIDerivedType(tag: DW_TAG_pointer_type, baseType: !247, size: 64)
!610 = !DIDerivedType(tag: DW_TAG_member, name: "_data", scope: !545, file: !544, line: 735, baseType: !609, size: 64, offset: 192)
!611 = !DIDerivedType(tag: DW_TAG_member, name: "_tail", scope: !545, file: !544, line: 736, baseType: !609, size: 64, offset: 256)
!612 = !DIDerivedType(tag: DW_TAG_member, name: "_end", scope: !545, file: !544, line: 737, baseType: !609, size: 64, offset: 320)
!613 = !DIDerivedType(tag: DW_TAG_member, name: "_aa", scope: !545, file: !544, line: 741, baseType: !614, size: 832, offset: 384)
!614 = distinct !DICompositeType(tag: DW_TAG_structure_type, name: "AllAnno", scope: !545, file: !544, line: 716, size: 832, flags: DIFlagTypePassByValue, elements: !615, identifier: "_ZTSN6Packet7AllAnnoE")
!615 = !{!616, !642, !643, !644, !645, !646, !647, !648}
!616 = !DIDerivedType(tag: DW_TAG_member, name: "cb", scope: !614, file: !544, line: 717, baseType: !617, size: 384)
!617 = distinct !DICompositeType(tag: DW_TAG_union_type, name: "Anno", scope: !545, file: !544, line: 702, size: 384, flags: DIFlagTypePassByValue, elements: !618, identifier: "_ZTSN6Packet4AnnoE")
!618 = !{!619, !623, !627, !634, !638}
!619 = !DIDerivedType(tag: DW_TAG_member, name: "c", scope: !617, file: !544, line: 703, baseType: !620, size: 384)
!620 = !DICompositeType(tag: DW_TAG_array_type, baseType: !190, size: 384, elements: !621)
!621 = !{!622}
!622 = !DISubrange(count: 48)
!623 = !DIDerivedType(tag: DW_TAG_member, name: "u8", scope: !617, file: !544, line: 704, baseType: !624, size: 384)
!624 = !DICompositeType(tag: DW_TAG_array_type, baseType: !625, size: 384, elements: !621)
!625 = !DIDerivedType(tag: DW_TAG_typedef, name: "uint8_t", file: !24, line: 24, baseType: !626)
!626 = !DIDerivedType(tag: DW_TAG_typedef, name: "__uint8_t", file: !14, line: 38, baseType: !247)
!627 = !DIDerivedType(tag: DW_TAG_member, name: "u16", scope: !617, file: !544, line: 705, baseType: !628, size: 384)
!628 = !DICompositeType(tag: DW_TAG_array_type, baseType: !629, size: 384, elements: !632)
!629 = !DIDerivedType(tag: DW_TAG_typedef, name: "uint16_t", file: !24, line: 25, baseType: !630)
!630 = !DIDerivedType(tag: DW_TAG_typedef, name: "__uint16_t", file: !14, line: 40, baseType: !631)
!631 = !DIBasicType(name: "unsigned short", size: 16, encoding: DW_ATE_unsigned)
!632 = !{!633}
!633 = !DISubrange(count: 24)
!634 = !DIDerivedType(tag: DW_TAG_member, name: "u32", scope: !617, file: !544, line: 706, baseType: !635, size: 384)
!635 = !DICompositeType(tag: DW_TAG_array_type, baseType: !23, size: 384, elements: !636)
!636 = !{!637}
!637 = !DISubrange(count: 12)
!638 = !DIDerivedType(tag: DW_TAG_member, name: "u64", scope: !617, file: !544, line: 708, baseType: !639, size: 384)
!639 = !DICompositeType(tag: DW_TAG_array_type, baseType: !311, size: 384, elements: !640)
!640 = !{!641}
!641 = !DISubrange(count: 6)
!642 = !DIDerivedType(tag: DW_TAG_member, name: "mac", scope: !614, file: !544, line: 718, baseType: !609, size: 64, offset: 384)
!643 = !DIDerivedType(tag: DW_TAG_member, name: "nh", scope: !614, file: !544, line: 719, baseType: !609, size: 64, offset: 448)
!644 = !DIDerivedType(tag: DW_TAG_member, name: "h", scope: !614, file: !544, line: 720, baseType: !609, size: 64, offset: 512)
!645 = !DIDerivedType(tag: DW_TAG_member, name: "pkt_type", scope: !614, file: !544, line: 721, baseType: !543, size: 32, offset: 576)
!646 = !DIDerivedType(tag: DW_TAG_member, name: "timestamp", scope: !614, file: !544, line: 722, baseType: !208, size: 64, offset: 608)
!647 = !DIDerivedType(tag: DW_TAG_member, name: "next", scope: !614, file: !544, line: 723, baseType: !607, size: 64, offset: 704)
!648 = !DIDerivedType(tag: DW_TAG_member, name: "prev", scope: !614, file: !544, line: 724, baseType: !607, size: 64, offset: 768)
!649 = !DIDerivedType(tag: DW_TAG_member, name: "_destructor", scope: !545, file: !544, line: 746, baseType: !650, size: 64, offset: 1216)
!650 = !DIDerivedType(tag: DW_TAG_typedef, name: "buffer_destructor_type", scope: !545, file: !544, line: 65, baseType: !651)
!651 = !DIDerivedType(tag: DW_TAG_pointer_type, baseType: !652, size: 64)
!652 = !DISubroutineType(types: !653)
!653 = !{null, !609, !654, !656}
!654 = !DIDerivedType(tag: DW_TAG_typedef, name: "size_t", file: !655, line: 46, baseType: !34)
!655 = !DIFile(filename: "/usr/lib/clang/10.0.0/include/stddef.h", directory: "")
!656 = !DIDerivedType(tag: DW_TAG_pointer_type, baseType: null, size: 64)
!657 = !DIDerivedType(tag: DW_TAG_member, name: "_destructor_argument", scope: !545, file: !544, line: 747, baseType: !656, size: 64, offset: 1280)
!658 = !DISubprogram(name: "make", linkageName: "_ZN6Packet4makeEjPKvjj", scope: !545, file: !544, line: 52, type: !659, scopeLine: 52, flags: DIFlagPublic | DIFlagPrototyped | DIFlagStaticMember, spFlags: DISPFlagOptimized)
!659 = !DISubroutineType(types: !660)
!660 = !{!661, !23, !745, !23, !23}
!661 = !DIDerivedType(tag: DW_TAG_pointer_type, baseType: !662, size: 64)
!662 = distinct !DICompositeType(tag: DW_TAG_class_type, name: "WritablePacket", file: !544, line: 778, size: 1344, flags: DIFlagTypePassByReference | DIFlagNonTrivial, elements: !663, identifier: "_ZTS14WritablePacket")
!663 = !{!664, !665, !670, !671, !672, !673, !674, !679, !680, !703, !708, !709, !714, !719, !724, !725, !729, !730, !735, !736, !739, !742}
!664 = !DIDerivedType(tag: DW_TAG_inheritance, scope: !662, baseType: !545, flags: DIFlagPublic, extraData: i32 0)
!665 = !DISubprogram(name: "data", linkageName: "_ZNK14WritablePacket4dataEv", scope: !662, file: !544, line: 780, type: !666, scopeLine: 780, flags: DIFlagPublic | DIFlagPrototyped, spFlags: DISPFlagOptimized)
!666 = !DISubroutineType(types: !667)
!667 = !{!609, !668}
!668 = !DIDerivedType(tag: DW_TAG_pointer_type, baseType: !669, size: 64, flags: DIFlagArtificial | DIFlagObjectPointer)
!669 = !DIDerivedType(tag: DW_TAG_const_type, baseType: !662)
!670 = !DISubprogram(name: "end_data", linkageName: "_ZNK14WritablePacket8end_dataEv", scope: !662, file: !544, line: 781, type: !666, scopeLine: 781, flags: DIFlagPublic | DIFlagPrototyped, spFlags: DISPFlagOptimized)
!671 = !DISubprogram(name: "buffer", linkageName: "_ZNK14WritablePacket6bufferEv", scope: !662, file: !544, line: 782, type: !666, scopeLine: 782, flags: DIFlagPublic | DIFlagPrototyped, spFlags: DISPFlagOptimized)
!672 = !DISubprogram(name: "end_buffer", linkageName: "_ZNK14WritablePacket10end_bufferEv", scope: !662, file: !544, line: 783, type: !666, scopeLine: 783, flags: DIFlagPublic | DIFlagPrototyped, spFlags: DISPFlagOptimized)
!673 = !DISubprogram(name: "mac_header", linkageName: "_ZNK14WritablePacket10mac_headerEv", scope: !662, file: !544, line: 784, type: !666, scopeLine: 784, flags: DIFlagPublic | DIFlagPrototyped, spFlags: DISPFlagOptimized)
!674 = !DISubprogram(name: "ether_header", linkageName: "_ZNK14WritablePacket12ether_headerEv", scope: !662, file: !544, line: 785, type: !675, scopeLine: 785, flags: DIFlagPublic | DIFlagPrototyped, spFlags: DISPFlagOptimized)
!675 = !DISubroutineType(types: !676)
!676 = !{!677, !668}
!677 = !DIDerivedType(tag: DW_TAG_pointer_type, baseType: !678, size: 64)
!678 = !DICompositeType(tag: DW_TAG_structure_type, name: "click_ether", file: !544, line: 24, flags: DIFlagFwdDecl, identifier: "_ZTS11click_ether")
!679 = !DISubprogram(name: "network_header", linkageName: "_ZNK14WritablePacket14network_headerEv", scope: !662, file: !544, line: 786, type: !666, scopeLine: 786, flags: DIFlagPublic | DIFlagPrototyped, spFlags: DISPFlagOptimized)
!680 = !DISubprogram(name: "ip_header", linkageName: "_ZNK14WritablePacket9ip_headerEv", scope: !662, file: !544, line: 787, type: !681, scopeLine: 787, flags: DIFlagPublic | DIFlagPrototyped, spFlags: DISPFlagOptimized)
!681 = !DISubroutineType(types: !682)
!682 = !{!683, !668}
!683 = !DIDerivedType(tag: DW_TAG_pointer_type, baseType: !684, size: 64)
!684 = distinct !DICompositeType(tag: DW_TAG_structure_type, name: "click_ip", file: !685, line: 23, size: 160, flags: DIFlagTypePassByValue, elements: !686, identifier: "_ZTS8click_ip")
!685 = !DIFile(filename: "../dummy_inc/clicknet/ip.h", directory: "/home/john/projects/click/ir-dir")
!686 = !{!687, !688, !689, !690, !691, !692, !693, !694, !695, !696, !702}
!687 = !DIDerivedType(tag: DW_TAG_member, name: "ip_hl", scope: !684, file: !685, line: 28, baseType: !26, size: 4, flags: DIFlagBitField, extraData: i64 0)
!688 = !DIDerivedType(tag: DW_TAG_member, name: "ip_v", scope: !684, file: !685, line: 29, baseType: !26, size: 4, offset: 4, flags: DIFlagBitField, extraData: i64 0)
!689 = !DIDerivedType(tag: DW_TAG_member, name: "ip_tos", scope: !684, file: !685, line: 33, baseType: !625, size: 8, offset: 8)
!690 = !DIDerivedType(tag: DW_TAG_member, name: "ip_len", scope: !684, file: !685, line: 40, baseType: !629, size: 16, offset: 16)
!691 = !DIDerivedType(tag: DW_TAG_member, name: "ip_id", scope: !684, file: !685, line: 41, baseType: !629, size: 16, offset: 32)
!692 = !DIDerivedType(tag: DW_TAG_member, name: "ip_off", scope: !684, file: !685, line: 42, baseType: !629, size: 16, offset: 48)
!693 = !DIDerivedType(tag: DW_TAG_member, name: "ip_ttl", scope: !684, file: !685, line: 47, baseType: !625, size: 8, offset: 64)
!694 = !DIDerivedType(tag: DW_TAG_member, name: "ip_p", scope: !684, file: !685, line: 48, baseType: !625, size: 8, offset: 72)
!695 = !DIDerivedType(tag: DW_TAG_member, name: "ip_sum", scope: !684, file: !685, line: 49, baseType: !629, size: 16, offset: 80)
!696 = !DIDerivedType(tag: DW_TAG_member, name: "ip_src", scope: !684, file: !685, line: 50, baseType: !697, size: 32, offset: 96)
!697 = distinct !DICompositeType(tag: DW_TAG_structure_type, name: "in_addr", file: !698, line: 31, size: 32, flags: DIFlagTypePassByValue, elements: !699, identifier: "_ZTS7in_addr")
!698 = !DIFile(filename: "/usr/include/netinet/in.h", directory: "")
!699 = !{!700}
!700 = !DIDerivedType(tag: DW_TAG_member, name: "s_addr", scope: !697, file: !698, line: 33, baseType: !701, size: 32)
!701 = !DIDerivedType(tag: DW_TAG_typedef, name: "in_addr_t", file: !698, line: 30, baseType: !23)
!702 = !DIDerivedType(tag: DW_TAG_member, name: "ip_dst", scope: !684, file: !685, line: 51, baseType: !697, size: 32, offset: 128)
!703 = !DISubprogram(name: "ip6_header", linkageName: "_ZNK14WritablePacket10ip6_headerEv", scope: !662, file: !544, line: 788, type: !704, scopeLine: 788, flags: DIFlagPublic | DIFlagPrototyped, spFlags: DISPFlagOptimized)
!704 = !DISubroutineType(types: !705)
!705 = !{!706, !668}
!706 = !DIDerivedType(tag: DW_TAG_pointer_type, baseType: !707, size: 64)
!707 = !DICompositeType(tag: DW_TAG_structure_type, name: "click_ip6", file: !544, line: 27, flags: DIFlagFwdDecl, identifier: "_ZTS9click_ip6")
!708 = !DISubprogram(name: "transport_header", linkageName: "_ZNK14WritablePacket16transport_headerEv", scope: !662, file: !544, line: 789, type: !666, scopeLine: 789, flags: DIFlagPublic | DIFlagPrototyped, spFlags: DISPFlagOptimized)
!709 = !DISubprogram(name: "icmp_header", linkageName: "_ZNK14WritablePacket11icmp_headerEv", scope: !662, file: !544, line: 790, type: !710, scopeLine: 790, flags: DIFlagPublic | DIFlagPrototyped, spFlags: DISPFlagOptimized)
!710 = !DISubroutineType(types: !711)
!711 = !{!712, !668}
!712 = !DIDerivedType(tag: DW_TAG_pointer_type, baseType: !713, size: 64)
!713 = !DICompositeType(tag: DW_TAG_structure_type, name: "click_icmp", file: !544, line: 26, flags: DIFlagFwdDecl, identifier: "_ZTS10click_icmp")
!714 = !DISubprogram(name: "tcp_header", linkageName: "_ZNK14WritablePacket10tcp_headerEv", scope: !662, file: !544, line: 791, type: !715, scopeLine: 791, flags: DIFlagPublic | DIFlagPrototyped, spFlags: DISPFlagOptimized)
!715 = !DISubroutineType(types: !716)
!716 = !{!717, !668}
!717 = !DIDerivedType(tag: DW_TAG_pointer_type, baseType: !718, size: 64)
!718 = !DICompositeType(tag: DW_TAG_structure_type, name: "click_tcp", file: !544, line: 28, flags: DIFlagFwdDecl, identifier: "_ZTS9click_tcp")
!719 = !DISubprogram(name: "udp_header", linkageName: "_ZNK14WritablePacket10udp_headerEv", scope: !662, file: !544, line: 792, type: !720, scopeLine: 792, flags: DIFlagPublic | DIFlagPrototyped, spFlags: DISPFlagOptimized)
!720 = !DISubroutineType(types: !721)
!721 = !{!722, !668}
!722 = !DIDerivedType(tag: DW_TAG_pointer_type, baseType: !723, size: 64)
!723 = !DICompositeType(tag: DW_TAG_structure_type, name: "click_udp", file: !544, line: 29, flags: DIFlagFwdDecl, identifier: "_ZTS9click_udp")
!724 = !DISubprogram(name: "buffer_data", linkageName: "_ZNK14WritablePacket11buffer_dataEv", scope: !662, file: !544, line: 795, type: !666, scopeLine: 795, flags: DIFlagPublic | DIFlagPrototyped, spFlags: DISPFlagOptimized)
!725 = !DISubprogram(name: "WritablePacket", scope: !662, file: !544, line: 800, type: !726, scopeLine: 800, flags: DIFlagPrototyped, spFlags: DISPFlagOptimized)
!726 = !DISubroutineType(types: !727)
!727 = !{null, !728}
!728 = !DIDerivedType(tag: DW_TAG_pointer_type, baseType: !662, size: 64, flags: DIFlagArtificial | DIFlagObjectPointer)
!729 = !DISubprogram(name: "initialize", linkageName: "_ZN14WritablePacket10initializeEv", scope: !662, file: !544, line: 802, type: !726, scopeLine: 802, flags: DIFlagPrototyped, spFlags: DISPFlagOptimized)
!730 = !DISubprogram(name: "WritablePacket", scope: !662, file: !544, line: 804, type: !731, scopeLine: 804, flags: DIFlagPrototyped, spFlags: DISPFlagOptimized)
!731 = !DISubroutineType(types: !732)
!732 = !{null, !728, !733}
!733 = !DIDerivedType(tag: DW_TAG_reference_type, baseType: !734, size: 64)
!734 = !DIDerivedType(tag: DW_TAG_const_type, baseType: !545)
!735 = !DISubprogram(name: "~WritablePacket", scope: !662, file: !544, line: 805, type: !726, scopeLine: 805, flags: DIFlagPrototyped, spFlags: DISPFlagOptimized)
!736 = !DISubprogram(name: "pool_allocate", linkageName: "_ZN14WritablePacket13pool_allocateEb", scope: !662, file: !544, line: 808, type: !737, scopeLine: 808, flags: DIFlagPrototyped | DIFlagStaticMember, spFlags: DISPFlagOptimized)
!737 = !DISubroutineType(types: !738)
!738 = !{!661, !94}
!739 = !DISubprogram(name: "pool_allocate", linkageName: "_ZN14WritablePacket13pool_allocateEjjj", scope: !662, file: !544, line: 809, type: !740, scopeLine: 809, flags: DIFlagPrototyped | DIFlagStaticMember, spFlags: DISPFlagOptimized)
!740 = !DISubroutineType(types: !741)
!741 = !{!661, !23, !23, !23}
!742 = !DISubprogram(name: "recycle", linkageName: "_ZN14WritablePacket7recycleEPS_", scope: !662, file: !544, line: 811, type: !743, scopeLine: 811, flags: DIFlagPrototyped | DIFlagStaticMember, spFlags: DISPFlagOptimized)
!743 = !DISubroutineType(types: !744)
!744 = !{null, !661}
!745 = !DIDerivedType(tag: DW_TAG_pointer_type, baseType: !746, size: 64)
!746 = !DIDerivedType(tag: DW_TAG_const_type, baseType: null)
!747 = !DISubprogram(name: "make", linkageName: "_ZN6Packet4makeEPKvj", scope: !545, file: !544, line: 54, type: !748, scopeLine: 54, flags: DIFlagPublic | DIFlagPrototyped | DIFlagStaticMember, spFlags: DISPFlagOptimized)
!748 = !DISubroutineType(types: !749)
!749 = !{!661, !745, !23}
!750 = !DISubprogram(name: "make", linkageName: "_ZN6Packet4makeEj", scope: !545, file: !544, line: 55, type: !751, scopeLine: 55, flags: DIFlagPublic | DIFlagPrototyped | DIFlagStaticMember, spFlags: DISPFlagOptimized)
!751 = !DISubroutineType(types: !752)
!752 = !{!661, !23}
!753 = !DISubprogram(name: "make", linkageName: "_ZN6Packet4makeEPhjPFvS0_mPvES1_ii", scope: !545, file: !544, line: 66, type: !754, scopeLine: 66, flags: DIFlagPublic | DIFlagPrototyped | DIFlagStaticMember, spFlags: DISPFlagOptimized)
!754 = !DISubroutineType(types: !755)
!755 = !{!661, !609, !23, !650, !656, !30, !30}
!756 = !DISubprogram(name: "static_cleanup", linkageName: "_ZN6Packet14static_cleanupEv", scope: !545, file: !544, line: 71, type: !757, scopeLine: 71, flags: DIFlagPublic | DIFlagPrototyped | DIFlagStaticMember, spFlags: DISPFlagOptimized)
!757 = !DISubroutineType(types: !758)
!758 = !{null}
!759 = !DISubprogram(name: "kill", linkageName: "_ZN6Packet4killEv", scope: !545, file: !544, line: 73, type: !760, scopeLine: 73, flags: DIFlagPublic | DIFlagPrototyped, spFlags: DISPFlagOptimized)
!760 = !DISubroutineType(types: !761)
!761 = !{null, !762}
!762 = !DIDerivedType(tag: DW_TAG_pointer_type, baseType: !545, size: 64, flags: DIFlagArtificial | DIFlagObjectPointer)
!763 = !DISubprogram(name: "shared", linkageName: "_ZNK6Packet6sharedEv", scope: !545, file: !544, line: 75, type: !764, scopeLine: 75, flags: DIFlagPublic | DIFlagPrototyped, spFlags: DISPFlagOptimized)
!764 = !DISubroutineType(types: !765)
!765 = !{!94, !766}
!766 = !DIDerivedType(tag: DW_TAG_pointer_type, baseType: !734, size: 64, flags: DIFlagArtificial | DIFlagObjectPointer)
!767 = !DISubprogram(name: "clone", linkageName: "_ZN6Packet5cloneEv", scope: !545, file: !544, line: 76, type: !768, scopeLine: 76, flags: DIFlagPublic | DIFlagPrototyped, spFlags: DISPFlagOptimized)
!768 = !DISubroutineType(types: !769)
!769 = !{!607, !762}
!770 = !DISubprogram(name: "uniqueify", linkageName: "_ZN6Packet9uniqueifyEv", scope: !545, file: !544, line: 77, type: !771, scopeLine: 77, flags: DIFlagPublic | DIFlagPrototyped, spFlags: DISPFlagOptimized)
!771 = !DISubroutineType(types: !772)
!772 = !{!661, !762}
!773 = !DISubprogram(name: "data", linkageName: "_ZNK6Packet4dataEv", scope: !545, file: !544, line: 79, type: !774, scopeLine: 79, flags: DIFlagPublic | DIFlagPrototyped, spFlags: DISPFlagOptimized)
!774 = !DISubroutineType(types: !775)
!775 = !{!245, !766}
!776 = !DISubprogram(name: "end_data", linkageName: "_ZNK6Packet8end_dataEv", scope: !545, file: !544, line: 80, type: !774, scopeLine: 80, flags: DIFlagPublic | DIFlagPrototyped, spFlags: DISPFlagOptimized)
!777 = !DISubprogram(name: "length", linkageName: "_ZNK6Packet6lengthEv", scope: !545, file: !544, line: 81, type: !778, scopeLine: 81, flags: DIFlagPublic | DIFlagPrototyped, spFlags: DISPFlagOptimized)
!778 = !DISubroutineType(types: !779)
!779 = !{!23, !766}
!780 = !DISubprogram(name: "headroom", linkageName: "_ZNK6Packet8headroomEv", scope: !545, file: !544, line: 82, type: !778, scopeLine: 82, flags: DIFlagPublic | DIFlagPrototyped, spFlags: DISPFlagOptimized)
!781 = !DISubprogram(name: "tailroom", linkageName: "_ZNK6Packet8tailroomEv", scope: !545, file: !544, line: 83, type: !778, scopeLine: 83, flags: DIFlagPublic | DIFlagPrototyped, spFlags: DISPFlagOptimized)
!782 = !DISubprogram(name: "buffer", linkageName: "_ZNK6Packet6bufferEv", scope: !545, file: !544, line: 84, type: !774, scopeLine: 84, flags: DIFlagPublic | DIFlagPrototyped, spFlags: DISPFlagOptimized)
!783 = !DISubprogram(name: "end_buffer", linkageName: "_ZNK6Packet10end_bufferEv", scope: !545, file: !544, line: 85, type: !774, scopeLine: 85, flags: DIFlagPublic | DIFlagPrototyped, spFlags: DISPFlagOptimized)
!784 = !DISubprogram(name: "buffer_length", linkageName: "_ZNK6Packet13buffer_lengthEv", scope: !545, file: !544, line: 86, type: !778, scopeLine: 86, flags: DIFlagPublic | DIFlagPrototyped, spFlags: DISPFlagOptimized)
!785 = !DISubprogram(name: "buffer_destructor", linkageName: "_ZNK6Packet17buffer_destructorEv", scope: !545, file: !544, line: 97, type: !786, scopeLine: 97, flags: DIFlagPublic | DIFlagPrototyped, spFlags: DISPFlagOptimized)
!786 = !DISubroutineType(types: !787)
!787 = !{!650, !766}
!788 = !DISubprogram(name: "set_buffer_destructor", linkageName: "_ZN6Packet21set_buffer_destructorEPFvPhmPvE", scope: !545, file: !544, line: 101, type: !789, scopeLine: 101, flags: DIFlagPublic | DIFlagPrototyped, spFlags: DISPFlagOptimized)
!789 = !DISubroutineType(types: !790)
!790 = !{null, !762, !650}
!791 = !DISubprogram(name: "destructor_argument", linkageName: "_ZN6Packet19destructor_argumentEv", scope: !545, file: !544, line: 105, type: !792, scopeLine: 105, flags: DIFlagPublic | DIFlagPrototyped, spFlags: DISPFlagOptimized)
!792 = !DISubroutineType(types: !793)
!793 = !{!656, !762}
!794 = !DISubprogram(name: "reset_buffer", linkageName: "_ZN6Packet12reset_bufferEv", scope: !545, file: !544, line: 109, type: !760, scopeLine: 109, flags: DIFlagPublic | DIFlagPrototyped, spFlags: DISPFlagOptimized)
!795 = !DISubprogram(name: "push", linkageName: "_ZN6Packet4pushEj", scope: !545, file: !544, line: 141, type: !796, scopeLine: 141, flags: DIFlagPublic | DIFlagPrototyped, spFlags: DISPFlagOptimized)
!796 = !DISubroutineType(types: !797)
!797 = !{!661, !762, !23}
!798 = !DISubprogram(name: "push_mac_header", linkageName: "_ZN6Packet15push_mac_headerEj", scope: !545, file: !544, line: 152, type: !796, scopeLine: 152, flags: DIFlagPublic | DIFlagPrototyped, spFlags: DISPFlagOptimized)
!799 = !DISubprogram(name: "nonunique_push", linkageName: "_ZN6Packet14nonunique_pushEj", scope: !545, file: !544, line: 171, type: !800, scopeLine: 171, flags: DIFlagPublic | DIFlagPrototyped, spFlags: DISPFlagOptimized)
!800 = !DISubroutineType(types: !801)
!801 = !{!607, !762, !23}
!802 = !DISubprogram(name: "pull", linkageName: "_ZN6Packet4pullEj", scope: !545, file: !544, line: 187, type: !803, scopeLine: 187, flags: DIFlagPublic | DIFlagPrototyped, spFlags: DISPFlagOptimized)
!803 = !DISubroutineType(types: !804)
!804 = !{null, !762, !23}
!805 = !DISubprogram(name: "put", linkageName: "_ZN6Packet3putEj", scope: !545, file: !544, line: 213, type: !796, scopeLine: 213, flags: DIFlagPublic | DIFlagPrototyped, spFlags: DISPFlagOptimized)
!806 = !DISubprogram(name: "nonunique_put", linkageName: "_ZN6Packet13nonunique_putEj", scope: !545, file: !544, line: 230, type: !800, scopeLine: 230, flags: DIFlagPublic | DIFlagPrototyped, spFlags: DISPFlagOptimized)
!807 = !DISubprogram(name: "take", linkageName: "_ZN6Packet4takeEj", scope: !545, file: !544, line: 245, type: !803, scopeLine: 245, flags: DIFlagPublic | DIFlagPrototyped, spFlags: DISPFlagOptimized)
!808 = !DISubprogram(name: "shift_data", linkageName: "_ZN6Packet10shift_dataEib", scope: !545, file: !544, line: 269, type: !809, scopeLine: 269, flags: DIFlagPublic | DIFlagPrototyped, spFlags: DISPFlagOptimized)
!809 = !DISubroutineType(types: !810)
!810 = !{!607, !762, !30, !94}
!811 = !DISubprogram(name: "shrink_data", linkageName: "_ZN6Packet11shrink_dataEPKhj", scope: !545, file: !544, line: 271, type: !812, scopeLine: 271, flags: DIFlagPublic | DIFlagPrototyped, spFlags: DISPFlagOptimized)
!812 = !DISubroutineType(types: !813)
!813 = !{null, !762, !245, !23}
!814 = !DISubprogram(name: "change_headroom_and_length", linkageName: "_ZN6Packet26change_headroom_and_lengthEjj", scope: !545, file: !544, line: 272, type: !815, scopeLine: 272, flags: DIFlagPublic | DIFlagPrototyped, spFlags: DISPFlagOptimized)
!815 = !DISubroutineType(types: !816)
!816 = !{null, !762, !23, !23}
!817 = !DISubprogram(name: "copy", linkageName: "_ZN6Packet4copyEPS_i", scope: !545, file: !544, line: 274, type: !818, scopeLine: 274, flags: DIFlagPublic | DIFlagPrototyped, spFlags: DISPFlagOptimized)
!818 = !DISubroutineType(types: !819)
!819 = !{!94, !762, !607, !30}
!820 = !DISubprogram(name: "has_mac_header", linkageName: "_ZNK6Packet14has_mac_headerEv", scope: !545, file: !544, line: 279, type: !764, scopeLine: 279, flags: DIFlagPublic | DIFlagPrototyped, spFlags: DISPFlagOptimized)
!821 = !DISubprogram(name: "mac_header", linkageName: "_ZNK6Packet10mac_headerEv", scope: !545, file: !544, line: 280, type: !774, scopeLine: 280, flags: DIFlagPublic | DIFlagPrototyped, spFlags: DISPFlagOptimized)
!822 = !DISubprogram(name: "mac_header_offset", linkageName: "_ZNK6Packet17mac_header_offsetEv", scope: !545, file: !544, line: 281, type: !823, scopeLine: 281, flags: DIFlagPublic | DIFlagPrototyped, spFlags: DISPFlagOptimized)
!823 = !DISubroutineType(types: !824)
!824 = !{!30, !766}
!825 = !DISubprogram(name: "mac_header_length", linkageName: "_ZNK6Packet17mac_header_lengthEv", scope: !545, file: !544, line: 282, type: !778, scopeLine: 282, flags: DIFlagPublic | DIFlagPrototyped, spFlags: DISPFlagOptimized)
!826 = !DISubprogram(name: "mac_length", linkageName: "_ZNK6Packet10mac_lengthEv", scope: !545, file: !544, line: 283, type: !823, scopeLine: 283, flags: DIFlagPublic | DIFlagPrototyped, spFlags: DISPFlagOptimized)
!827 = !DISubprogram(name: "set_mac_header", linkageName: "_ZN6Packet14set_mac_headerEPKh", scope: !545, file: !544, line: 284, type: !828, scopeLine: 284, flags: DIFlagPublic | DIFlagPrototyped, spFlags: DISPFlagOptimized)
!828 = !DISubroutineType(types: !829)
!829 = !{null, !762, !245}
!830 = !DISubprogram(name: "set_mac_header", linkageName: "_ZN6Packet14set_mac_headerEPKhj", scope: !545, file: !544, line: 285, type: !812, scopeLine: 285, flags: DIFlagPublic | DIFlagPrototyped, spFlags: DISPFlagOptimized)
!831 = !DISubprogram(name: "clear_mac_header", linkageName: "_ZN6Packet16clear_mac_headerEv", scope: !545, file: !544, line: 286, type: !760, scopeLine: 286, flags: DIFlagPublic | DIFlagPrototyped, spFlags: DISPFlagOptimized)
!832 = !DISubprogram(name: "has_network_header", linkageName: "_ZNK6Packet18has_network_headerEv", scope: !545, file: !544, line: 288, type: !764, scopeLine: 288, flags: DIFlagPublic | DIFlagPrototyped, spFlags: DISPFlagOptimized)
!833 = !DISubprogram(name: "network_header", linkageName: "_ZNK6Packet14network_headerEv", scope: !545, file: !544, line: 289, type: !774, scopeLine: 289, flags: DIFlagPublic | DIFlagPrototyped, spFlags: DISPFlagOptimized)
!834 = !DISubprogram(name: "network_header_offset", linkageName: "_ZNK6Packet21network_header_offsetEv", scope: !545, file: !544, line: 290, type: !823, scopeLine: 290, flags: DIFlagPublic | DIFlagPrototyped, spFlags: DISPFlagOptimized)
!835 = !DISubprogram(name: "network_header_length", linkageName: "_ZNK6Packet21network_header_lengthEv", scope: !545, file: !544, line: 291, type: !778, scopeLine: 291, flags: DIFlagPublic | DIFlagPrototyped, spFlags: DISPFlagOptimized)
!836 = !DISubprogram(name: "network_length", linkageName: "_ZNK6Packet14network_lengthEv", scope: !545, file: !544, line: 292, type: !823, scopeLine: 292, flags: DIFlagPublic | DIFlagPrototyped, spFlags: DISPFlagOptimized)
!837 = !DISubprogram(name: "set_network_header", linkageName: "_ZN6Packet18set_network_headerEPKhj", scope: !545, file: !544, line: 293, type: !812, scopeLine: 293, flags: DIFlagPublic | DIFlagPrototyped, spFlags: DISPFlagOptimized)
!838 = !DISubprogram(name: "set_network_header_length", linkageName: "_ZN6Packet25set_network_header_lengthEj", scope: !545, file: !544, line: 294, type: !803, scopeLine: 294, flags: DIFlagPublic | DIFlagPrototyped, spFlags: DISPFlagOptimized)
!839 = !DISubprogram(name: "clear_network_header", linkageName: "_ZN6Packet20clear_network_headerEv", scope: !545, file: !544, line: 295, type: !760, scopeLine: 295, flags: DIFlagPublic | DIFlagPrototyped, spFlags: DISPFlagOptimized)
!840 = !DISubprogram(name: "has_transport_header", linkageName: "_ZNK6Packet20has_transport_headerEv", scope: !545, file: !544, line: 297, type: !764, scopeLine: 297, flags: DIFlagPublic | DIFlagPrototyped, spFlags: DISPFlagOptimized)
!841 = !DISubprogram(name: "transport_header", linkageName: "_ZNK6Packet16transport_headerEv", scope: !545, file: !544, line: 298, type: !774, scopeLine: 298, flags: DIFlagPublic | DIFlagPrototyped, spFlags: DISPFlagOptimized)
!842 = !DISubprogram(name: "transport_header_offset", linkageName: "_ZNK6Packet23transport_header_offsetEv", scope: !545, file: !544, line: 299, type: !823, scopeLine: 299, flags: DIFlagPublic | DIFlagPrototyped, spFlags: DISPFlagOptimized)
!843 = !DISubprogram(name: "transport_length", linkageName: "_ZNK6Packet16transport_lengthEv", scope: !545, file: !544, line: 300, type: !823, scopeLine: 300, flags: DIFlagPublic | DIFlagPrototyped, spFlags: DISPFlagOptimized)
!844 = !DISubprogram(name: "clear_transport_header", linkageName: "_ZN6Packet22clear_transport_headerEv", scope: !545, file: !544, line: 301, type: !760, scopeLine: 301, flags: DIFlagPublic | DIFlagPrototyped, spFlags: DISPFlagOptimized)
!845 = !DISubprogram(name: "ether_header", linkageName: "_ZNK6Packet12ether_headerEv", scope: !545, file: !544, line: 304, type: !846, scopeLine: 304, flags: DIFlagPublic | DIFlagPrototyped, spFlags: DISPFlagOptimized)
!846 = !DISubroutineType(types: !847)
!847 = !{!848, !766}
!848 = !DIDerivedType(tag: DW_TAG_pointer_type, baseType: !849, size: 64)
!849 = !DIDerivedType(tag: DW_TAG_const_type, baseType: !678)
!850 = !DISubprogram(name: "set_ether_header", linkageName: "_ZN6Packet16set_ether_headerEPK11click_ether", scope: !545, file: !544, line: 305, type: !851, scopeLine: 305, flags: DIFlagPublic | DIFlagPrototyped, spFlags: DISPFlagOptimized)
!851 = !DISubroutineType(types: !852)
!852 = !{null, !762, !848}
!853 = !DISubprogram(name: "ip_header", linkageName: "_ZNK6Packet9ip_headerEv", scope: !545, file: !544, line: 307, type: !854, scopeLine: 307, flags: DIFlagPublic | DIFlagPrototyped, spFlags: DISPFlagOptimized)
!854 = !DISubroutineType(types: !855)
!855 = !{!856, !766}
!856 = !DIDerivedType(tag: DW_TAG_pointer_type, baseType: !857, size: 64)
!857 = !DIDerivedType(tag: DW_TAG_const_type, baseType: !684)
!858 = !DISubprogram(name: "ip_header_offset", linkageName: "_ZNK6Packet16ip_header_offsetEv", scope: !545, file: !544, line: 308, type: !823, scopeLine: 308, flags: DIFlagPublic | DIFlagPrototyped, spFlags: DISPFlagOptimized)
!859 = !DISubprogram(name: "ip_header_length", linkageName: "_ZNK6Packet16ip_header_lengthEv", scope: !545, file: !544, line: 309, type: !778, scopeLine: 309, flags: DIFlagPublic | DIFlagPrototyped, spFlags: DISPFlagOptimized)
!860 = !DISubprogram(name: "set_ip_header", linkageName: "_ZN6Packet13set_ip_headerEPK8click_ipj", scope: !545, file: !544, line: 310, type: !861, scopeLine: 310, flags: DIFlagPublic | DIFlagPrototyped, spFlags: DISPFlagOptimized)
!861 = !DISubroutineType(types: !862)
!862 = !{null, !762, !856, !23}
!863 = !DISubprogram(name: "ip6_header", linkageName: "_ZNK6Packet10ip6_headerEv", scope: !545, file: !544, line: 312, type: !864, scopeLine: 312, flags: DIFlagPublic | DIFlagPrototyped, spFlags: DISPFlagOptimized)
!864 = !DISubroutineType(types: !865)
!865 = !{!866, !766}
!866 = !DIDerivedType(tag: DW_TAG_pointer_type, baseType: !867, size: 64)
!867 = !DIDerivedType(tag: DW_TAG_const_type, baseType: !707)
!868 = !DISubprogram(name: "ip6_header_offset", linkageName: "_ZNK6Packet17ip6_header_offsetEv", scope: !545, file: !544, line: 313, type: !823, scopeLine: 313, flags: DIFlagPublic | DIFlagPrototyped, spFlags: DISPFlagOptimized)
!869 = !DISubprogram(name: "ip6_header_length", linkageName: "_ZNK6Packet17ip6_header_lengthEv", scope: !545, file: !544, line: 314, type: !778, scopeLine: 314, flags: DIFlagPublic | DIFlagPrototyped, spFlags: DISPFlagOptimized)
!870 = !DISubprogram(name: "set_ip6_header", linkageName: "_ZN6Packet14set_ip6_headerEPK9click_ip6", scope: !545, file: !544, line: 315, type: !871, scopeLine: 315, flags: DIFlagPublic | DIFlagPrototyped, spFlags: DISPFlagOptimized)
!871 = !DISubroutineType(types: !872)
!872 = !{null, !762, !866}
!873 = !DISubprogram(name: "set_ip6_header", linkageName: "_ZN6Packet14set_ip6_headerEPK9click_ip6j", scope: !545, file: !544, line: 316, type: !874, scopeLine: 316, flags: DIFlagPublic | DIFlagPrototyped, spFlags: DISPFlagOptimized)
!874 = !DISubroutineType(types: !875)
!875 = !{null, !762, !866, !23}
!876 = !DISubprogram(name: "icmp_header", linkageName: "_ZNK6Packet11icmp_headerEv", scope: !545, file: !544, line: 318, type: !877, scopeLine: 318, flags: DIFlagPublic | DIFlagPrototyped, spFlags: DISPFlagOptimized)
!877 = !DISubroutineType(types: !878)
!878 = !{!879, !766}
!879 = !DIDerivedType(tag: DW_TAG_pointer_type, baseType: !880, size: 64)
!880 = !DIDerivedType(tag: DW_TAG_const_type, baseType: !713)
!881 = !DISubprogram(name: "tcp_header", linkageName: "_ZNK6Packet10tcp_headerEv", scope: !545, file: !544, line: 319, type: !882, scopeLine: 319, flags: DIFlagPublic | DIFlagPrototyped, spFlags: DISPFlagOptimized)
!882 = !DISubroutineType(types: !883)
!883 = !{!884, !766}
!884 = !DIDerivedType(tag: DW_TAG_pointer_type, baseType: !885, size: 64)
!885 = !DIDerivedType(tag: DW_TAG_const_type, baseType: !718)
!886 = !DISubprogram(name: "udp_header", linkageName: "_ZNK6Packet10udp_headerEv", scope: !545, file: !544, line: 320, type: !887, scopeLine: 320, flags: DIFlagPublic | DIFlagPrototyped, spFlags: DISPFlagOptimized)
!887 = !DISubroutineType(types: !888)
!888 = !{!889, !766}
!889 = !DIDerivedType(tag: DW_TAG_pointer_type, baseType: !890, size: 64)
!890 = !DIDerivedType(tag: DW_TAG_const_type, baseType: !723)
!891 = !DISubprogram(name: "xanno", linkageName: "_ZNK6Packet5xannoEv", scope: !545, file: !544, line: 340, type: !892, scopeLine: 340, flags: DIFlagPrototyped, spFlags: DISPFlagOptimized)
!892 = !DISubroutineType(types: !893)
!893 = !{!894, !766}
!894 = !DIDerivedType(tag: DW_TAG_pointer_type, baseType: !895, size: 64)
!895 = !DIDerivedType(tag: DW_TAG_const_type, baseType: !617)
!896 = !DISubprogram(name: "xanno", linkageName: "_ZN6Packet5xannoEv", scope: !545, file: !544, line: 341, type: !897, scopeLine: 341, flags: DIFlagPrototyped, spFlags: DISPFlagOptimized)
!897 = !DISubroutineType(types: !898)
!898 = !{!899, !762}
!899 = !DIDerivedType(tag: DW_TAG_pointer_type, baseType: !617, size: 64)
!900 = !DISubprogram(name: "timestamp_anno", linkageName: "_ZNK6Packet14timestamp_annoEv", scope: !545, file: !544, line: 354, type: !901, scopeLine: 354, flags: DIFlagPublic | DIFlagPrototyped, spFlags: DISPFlagOptimized)
!901 = !DISubroutineType(types: !902)
!902 = !{!500, !766}
!903 = !DISubprogram(name: "timestamp_anno", linkageName: "_ZN6Packet14timestamp_annoEv", scope: !545, file: !544, line: 356, type: !904, scopeLine: 356, flags: DIFlagPublic | DIFlagPrototyped, spFlags: DISPFlagOptimized)
!904 = !DISubroutineType(types: !905)
!905 = !{!906, !762}
!906 = !DIDerivedType(tag: DW_TAG_reference_type, baseType: !5, size: 64)
!907 = !DISubprogram(name: "set_timestamp_anno", linkageName: "_ZN6Packet18set_timestamp_annoERK9Timestamp", scope: !545, file: !544, line: 359, type: !908, scopeLine: 359, flags: DIFlagPublic | DIFlagPrototyped, spFlags: DISPFlagOptimized)
!908 = !DISubroutineType(types: !909)
!909 = !{null, !762, !500}
!910 = !DISubprogram(name: "device_anno", linkageName: "_ZNK6Packet11device_annoEv", scope: !545, file: !544, line: 362, type: !911, scopeLine: 362, flags: DIFlagPublic | DIFlagPrototyped, spFlags: DISPFlagOptimized)
!911 = !DISubroutineType(types: !912)
!912 = !{!913, !766}
!913 = !DIDerivedType(tag: DW_TAG_pointer_type, baseType: !914, size: 64)
!914 = !DIDerivedType(tag: DW_TAG_typedef, name: "net_device", file: !136, line: 326, baseType: !915)
!915 = !DICompositeType(tag: DW_TAG_structure_type, name: "device", file: !136, line: 326, flags: DIFlagFwdDecl, identifier: "_ZTS6device")
!916 = !DISubprogram(name: "set_device_anno", linkageName: "_ZN6Packet15set_device_annoEP6device", scope: !545, file: !544, line: 364, type: !917, scopeLine: 364, flags: DIFlagPublic | DIFlagPrototyped, spFlags: DISPFlagOptimized)
!917 = !DISubroutineType(types: !918)
!918 = !{null, !762, !913}
!919 = !DISubprogram(name: "packet_type_anno", linkageName: "_ZNK6Packet16packet_type_annoEv", scope: !545, file: !544, line: 383, type: !920, scopeLine: 383, flags: DIFlagPublic | DIFlagPrototyped, spFlags: DISPFlagOptimized)
!920 = !DISubroutineType(types: !921)
!921 = !{!543, !766}
!922 = !DISubprogram(name: "set_packet_type_anno", linkageName: "_ZN6Packet20set_packet_type_annoENS_10PacketTypeE", scope: !545, file: !544, line: 385, type: !923, scopeLine: 385, flags: DIFlagPublic | DIFlagPrototyped, spFlags: DISPFlagOptimized)
!923 = !DISubroutineType(types: !924)
!924 = !{null, !762, !543}
!925 = !DISubprogram(name: "next", linkageName: "_ZNK6Packet4nextEv", scope: !545, file: !544, line: 410, type: !926, scopeLine: 410, flags: DIFlagPublic | DIFlagPrototyped, spFlags: DISPFlagOptimized)
!926 = !DISubroutineType(types: !927)
!927 = !{!607, !766}
!928 = !DISubprogram(name: "next", linkageName: "_ZN6Packet4nextEv", scope: !545, file: !544, line: 412, type: !929, scopeLine: 412, flags: DIFlagPublic | DIFlagPrototyped, spFlags: DISPFlagOptimized)
!929 = !DISubroutineType(types: !930)
!930 = !{!931, !762}
!931 = !DIDerivedType(tag: DW_TAG_reference_type, baseType: !607, size: 64)
!932 = !DISubprogram(name: "set_next", linkageName: "_ZN6Packet8set_nextEPS_", scope: !545, file: !544, line: 414, type: !933, scopeLine: 414, flags: DIFlagPublic | DIFlagPrototyped, spFlags: DISPFlagOptimized)
!933 = !DISubroutineType(types: !934)
!934 = !{null, !762, !607}
!935 = !DISubprogram(name: "prev", linkageName: "_ZNK6Packet4prevEv", scope: !545, file: !544, line: 417, type: !926, scopeLine: 417, flags: DIFlagPublic | DIFlagPrototyped, spFlags: DISPFlagOptimized)
!936 = !DISubprogram(name: "prev", linkageName: "_ZN6Packet4prevEv", scope: !545, file: !544, line: 419, type: !929, scopeLine: 419, flags: DIFlagPublic | DIFlagPrototyped, spFlags: DISPFlagOptimized)
!937 = !DISubprogram(name: "set_prev", linkageName: "_ZN6Packet8set_prevEPS_", scope: !545, file: !544, line: 421, type: !933, scopeLine: 421, flags: DIFlagPublic | DIFlagPrototyped, spFlags: DISPFlagOptimized)
!938 = !DISubprogram(name: "dst_ip_anno", linkageName: "_ZNK6Packet11dst_ip_annoEv", scope: !545, file: !544, line: 431, type: !939, scopeLine: 431, flags: DIFlagPublic | DIFlagPrototyped, spFlags: DISPFlagOptimized)
!939 = !DISubroutineType(types: !940)
!940 = !{!941, !766}
!941 = distinct !DICompositeType(tag: DW_TAG_class_type, name: "IPAddress", file: !942, line: 15, size: 32, flags: DIFlagTypePassByValue | DIFlagNonTrivial, elements: !943, identifier: "_ZTS9IPAddress")
!942 = !DIFile(filename: "../dummy_inc/click/ipaddress.hh", directory: "/home/john/projects/click/ir-dir")
!943 = !{!944, !945, !949, !952, !955, !958, !961, !964, !967, !970, !975, !978, !981, !986, !989, !990, !991, !992, !995, !996, !999, !1002, !1003, !1006, !1009, !1012, !1013, !1017, !1018, !1019, !1022, !1023, !1026, !1027}
!944 = !DIDerivedType(tag: DW_TAG_member, name: "_addr", scope: !941, file: !942, line: 152, baseType: !23, size: 32)
!945 = !DISubprogram(name: "IPAddress", scope: !941, file: !942, line: 20, type: !946, scopeLine: 20, flags: DIFlagPublic | DIFlagPrototyped, spFlags: DISPFlagOptimized)
!946 = !DISubroutineType(types: !947)
!947 = !{null, !948}
!948 = !DIDerivedType(tag: DW_TAG_pointer_type, baseType: !941, size: 64, flags: DIFlagArtificial | DIFlagObjectPointer)
!949 = !DISubprogram(name: "IPAddress", scope: !941, file: !942, line: 25, type: !950, scopeLine: 25, flags: DIFlagPublic | DIFlagPrototyped, spFlags: DISPFlagOptimized)
!950 = !DISubroutineType(types: !951)
!951 = !{null, !948, !26}
!952 = !DISubprogram(name: "IPAddress", scope: !941, file: !942, line: 29, type: !953, scopeLine: 29, flags: DIFlagPublic | DIFlagExplicit | DIFlagPrototyped, spFlags: DISPFlagOptimized)
!953 = !DISubroutineType(types: !954)
!954 = !{null, !948, !30}
!955 = !DISubprogram(name: "IPAddress", scope: !941, file: !942, line: 33, type: !956, scopeLine: 33, flags: DIFlagPublic | DIFlagExplicit | DIFlagPrototyped, spFlags: DISPFlagOptimized)
!956 = !DISubroutineType(types: !957)
!957 = !{null, !948, !34}
!958 = !DISubprogram(name: "IPAddress", scope: !941, file: !942, line: 37, type: !959, scopeLine: 37, flags: DIFlagPublic | DIFlagExplicit | DIFlagPrototyped, spFlags: DISPFlagOptimized)
!959 = !DISubroutineType(types: !960)
!960 = !{null, !948, !15}
!961 = !DISubprogram(name: "IPAddress", scope: !941, file: !942, line: 42, type: !962, scopeLine: 42, flags: DIFlagPublic | DIFlagPrototyped, spFlags: DISPFlagOptimized)
!962 = !DISubroutineType(types: !963)
!963 = !{null, !948, !697}
!964 = !DISubprogram(name: "IPAddress", scope: !941, file: !942, line: 50, type: !965, scopeLine: 50, flags: DIFlagPublic | DIFlagExplicit | DIFlagPrototyped, spFlags: DISPFlagOptimized)
!965 = !DISubroutineType(types: !966)
!966 = !{null, !948, !245}
!967 = !DISubprogram(name: "IPAddress", scope: !941, file: !942, line: 63, type: !968, scopeLine: 63, flags: DIFlagPublic | DIFlagExplicit | DIFlagPrototyped, spFlags: DISPFlagOptimized)
!968 = !DISubroutineType(types: !969)
!969 = !{null, !948, !230}
!970 = !DISubprogram(name: "IPAddress", scope: !941, file: !942, line: 66, type: !971, scopeLine: 66, flags: DIFlagPublic | DIFlagPrototyped, spFlags: DISPFlagOptimized)
!971 = !DISubroutineType(types: !972)
!972 = !{null, !948, !973}
!973 = !DIDerivedType(tag: DW_TAG_reference_type, baseType: !974, size: 64)
!974 = !DIDerivedType(tag: DW_TAG_const_type, baseType: !76)
!975 = !DISubprogram(name: "make_prefix", linkageName: "_ZN9IPAddress11make_prefixEi", scope: !941, file: !942, line: 78, type: !976, scopeLine: 78, flags: DIFlagPublic | DIFlagPrototyped | DIFlagStaticMember, spFlags: DISPFlagOptimized)
!976 = !DISubroutineType(types: !977)
!977 = !{!941, !30}
!978 = !DISubprogram(name: "make_broadcast", linkageName: "_ZN9IPAddress14make_broadcastEv", scope: !941, file: !942, line: 81, type: !979, scopeLine: 81, flags: DIFlagPublic | DIFlagPrototyped | DIFlagStaticMember, spFlags: DISPFlagOptimized)
!979 = !DISubroutineType(types: !980)
!980 = !{!941}
!981 = !DISubprogram(name: "empty", linkageName: "_ZNK9IPAddress5emptyEv", scope: !941, file: !942, line: 86, type: !982, scopeLine: 86, flags: DIFlagPublic | DIFlagPrototyped, spFlags: DISPFlagOptimized)
!982 = !DISubroutineType(types: !983)
!983 = !{!94, !984}
!984 = !DIDerivedType(tag: DW_TAG_pointer_type, baseType: !985, size: 64, flags: DIFlagArtificial | DIFlagObjectPointer)
!985 = !DIDerivedType(tag: DW_TAG_const_type, baseType: !941)
!986 = !DISubprogram(name: "addr", linkageName: "_ZNK9IPAddress4addrEv", scope: !941, file: !942, line: 91, type: !987, scopeLine: 91, flags: DIFlagPublic | DIFlagPrototyped, spFlags: DISPFlagOptimized)
!987 = !DISubroutineType(types: !988)
!988 = !{!23, !984}
!989 = !DISubprogram(name: "operator unsigned int", linkageName: "_ZNK9IPAddresscvjEv", scope: !941, file: !942, line: 99, type: !987, scopeLine: 99, flags: DIFlagPublic | DIFlagPrototyped, spFlags: DISPFlagOptimized)
!990 = !DISubprogram(name: "is_multicast", linkageName: "_ZNK9IPAddress12is_multicastEv", scope: !941, file: !942, line: 106, type: !982, scopeLine: 106, flags: DIFlagPublic | DIFlagPrototyped, spFlags: DISPFlagOptimized)
!991 = !DISubprogram(name: "is_link_local", linkageName: "_ZNK9IPAddress13is_link_localEv", scope: !941, file: !942, line: 110, type: !982, scopeLine: 110, flags: DIFlagPublic | DIFlagPrototyped, spFlags: DISPFlagOptimized)
!992 = !DISubprogram(name: "in_addr", linkageName: "_ZNK9IPAddress7in_addrEv", scope: !941, file: !942, line: 114, type: !993, scopeLine: 114, flags: DIFlagPublic | DIFlagPrototyped, spFlags: DISPFlagOptimized)
!993 = !DISubroutineType(types: !994)
!994 = !{!697, !984}
!995 = !DISubprogram(name: "operator in_addr", linkageName: "_ZNK9IPAddresscv7in_addrEv", scope: !941, file: !942, line: 115, type: !993, scopeLine: 115, flags: DIFlagPublic | DIFlagPrototyped, spFlags: DISPFlagOptimized)
!996 = !DISubprogram(name: "data", linkageName: "_ZN9IPAddress4dataEv", scope: !941, file: !942, line: 117, type: !997, scopeLine: 117, flags: DIFlagPublic | DIFlagPrototyped, spFlags: DISPFlagOptimized)
!997 = !DISubroutineType(types: !998)
!998 = !{!609, !948}
!999 = !DISubprogram(name: "data", linkageName: "_ZNK9IPAddress4dataEv", scope: !941, file: !942, line: 118, type: !1000, scopeLine: 118, flags: DIFlagPublic | DIFlagPrototyped, spFlags: DISPFlagOptimized)
!1000 = !DISubroutineType(types: !1001)
!1001 = !{!245, !984}
!1002 = !DISubprogram(name: "hashcode", linkageName: "_ZNK9IPAddress8hashcodeEv", scope: !941, file: !942, line: 120, type: !987, scopeLine: 120, flags: DIFlagPublic | DIFlagPrototyped, spFlags: DISPFlagOptimized)
!1003 = !DISubprogram(name: "mask_to_prefix_len", linkageName: "_ZNK9IPAddress18mask_to_prefix_lenEv", scope: !941, file: !942, line: 122, type: !1004, scopeLine: 122, flags: DIFlagPublic | DIFlagPrototyped, spFlags: DISPFlagOptimized)
!1004 = !DISubroutineType(types: !1005)
!1005 = !{!30, !984}
!1006 = !DISubprogram(name: "matches_prefix", linkageName: "_ZNK9IPAddress14matches_prefixES_S_", scope: !941, file: !942, line: 123, type: !1007, scopeLine: 123, flags: DIFlagPublic | DIFlagPrototyped, spFlags: DISPFlagOptimized)
!1007 = !DISubroutineType(types: !1008)
!1008 = !{!94, !984, !941, !941}
!1009 = !DISubprogram(name: "mask_as_specific", linkageName: "_ZNK9IPAddress16mask_as_specificES_", scope: !941, file: !942, line: 124, type: !1010, scopeLine: 124, flags: DIFlagPublic | DIFlagPrototyped, spFlags: DISPFlagOptimized)
!1010 = !DISubroutineType(types: !1011)
!1011 = !{!94, !984, !941}
!1012 = !DISubprogram(name: "mask_more_specific", linkageName: "_ZNK9IPAddress18mask_more_specificES_", scope: !941, file: !942, line: 125, type: !1010, scopeLine: 125, flags: DIFlagPublic | DIFlagPrototyped, spFlags: DISPFlagOptimized)
!1013 = !DISubprogram(name: "operator&=", linkageName: "_ZN9IPAddressaNES_", scope: !941, file: !942, line: 137, type: !1014, scopeLine: 137, flags: DIFlagPublic | DIFlagPrototyped, spFlags: DISPFlagOptimized)
!1014 = !DISubroutineType(types: !1015)
!1015 = !{!1016, !948, !941}
!1016 = !DIDerivedType(tag: DW_TAG_reference_type, baseType: !941, size: 64)
!1017 = !DISubprogram(name: "operator|=", linkageName: "_ZN9IPAddressoRES_", scope: !941, file: !942, line: 138, type: !1014, scopeLine: 138, flags: DIFlagPublic | DIFlagPrototyped, spFlags: DISPFlagOptimized)
!1018 = !DISubprogram(name: "operator^=", linkageName: "_ZN9IPAddresseOES_", scope: !941, file: !942, line: 139, type: !1014, scopeLine: 139, flags: DIFlagPublic | DIFlagPrototyped, spFlags: DISPFlagOptimized)
!1019 = !DISubprogram(name: "unparse", linkageName: "_ZNK9IPAddress7unparseEv", scope: !941, file: !942, line: 141, type: !1020, scopeLine: 141, flags: DIFlagPublic | DIFlagPrototyped, spFlags: DISPFlagOptimized)
!1020 = !DISubroutineType(types: !1021)
!1021 = !{!184, !984}
!1022 = !DISubprogram(name: "unparse_mask", linkageName: "_ZNK9IPAddress12unparse_maskEv", scope: !941, file: !942, line: 142, type: !1020, scopeLine: 142, flags: DIFlagPublic | DIFlagPrototyped, spFlags: DISPFlagOptimized)
!1023 = !DISubprogram(name: "unparse_with_mask", linkageName: "_ZNK9IPAddress17unparse_with_maskES_", scope: !941, file: !942, line: 143, type: !1024, scopeLine: 143, flags: DIFlagPublic | DIFlagPrototyped, spFlags: DISPFlagOptimized)
!1024 = !DISubroutineType(types: !1025)
!1025 = !{!184, !984, !941}
!1026 = !DISubprogram(name: "s", linkageName: "_ZNK9IPAddress1sEv", scope: !941, file: !942, line: 145, type: !1020, scopeLine: 145, flags: DIFlagPublic | DIFlagPrototyped, spFlags: DISPFlagOptimized)
!1027 = !DISubprogram(name: "operator String", linkageName: "_ZNK9IPAddresscv6StringEv", scope: !941, file: !942, line: 146, type: !1020, scopeLine: 146, flags: DIFlagPublic | DIFlagPrototyped, spFlags: DISPFlagOptimized)
!1028 = !DISubprogram(name: "set_dst_ip_anno", linkageName: "_ZN6Packet15set_dst_ip_annoE9IPAddress", scope: !545, file: !544, line: 436, type: !1029, scopeLine: 436, flags: DIFlagPublic | DIFlagPrototyped, spFlags: DISPFlagOptimized)
!1029 = !DISubroutineType(types: !1030)
!1030 = !{null, !762, !941}
!1031 = !DISubprogram(name: "anno", linkageName: "_ZN6Packet4annoEv", scope: !545, file: !544, line: 441, type: !792, scopeLine: 441, flags: DIFlagPublic | DIFlagPrototyped, spFlags: DISPFlagOptimized)
!1032 = !DISubprogram(name: "anno", linkageName: "_ZNK6Packet4annoEv", scope: !545, file: !544, line: 444, type: !1033, scopeLine: 444, flags: DIFlagPublic | DIFlagPrototyped, spFlags: DISPFlagOptimized)
!1033 = !DISubroutineType(types: !1034)
!1034 = !{!745, !766}
!1035 = !DISubprogram(name: "anno_u8", linkageName: "_ZN6Packet7anno_u8Ev", scope: !545, file: !544, line: 447, type: !1036, scopeLine: 447, flags: DIFlagPublic | DIFlagPrototyped, spFlags: DISPFlagOptimized)
!1036 = !DISubroutineType(types: !1037)
!1037 = !{!1038, !762}
!1038 = !DIDerivedType(tag: DW_TAG_pointer_type, baseType: !625, size: 64)
!1039 = !DISubprogram(name: "anno_u8", linkageName: "_ZNK6Packet7anno_u8Ev", scope: !545, file: !544, line: 450, type: !1040, scopeLine: 450, flags: DIFlagPublic | DIFlagPrototyped, spFlags: DISPFlagOptimized)
!1040 = !DISubroutineType(types: !1041)
!1041 = !{!1042, !766}
!1042 = !DIDerivedType(tag: DW_TAG_pointer_type, baseType: !1043, size: 64)
!1043 = !DIDerivedType(tag: DW_TAG_const_type, baseType: !625)
!1044 = !DISubprogram(name: "anno_u32", linkageName: "_ZN6Packet8anno_u32Ev", scope: !545, file: !544, line: 453, type: !1045, scopeLine: 453, flags: DIFlagPublic | DIFlagPrototyped, spFlags: DISPFlagOptimized)
!1045 = !DISubroutineType(types: !1046)
!1046 = !{!1047, !762}
!1047 = !DIDerivedType(tag: DW_TAG_pointer_type, baseType: !23, size: 64)
!1048 = !DISubprogram(name: "anno_u32", linkageName: "_ZNK6Packet8anno_u32Ev", scope: !545, file: !544, line: 456, type: !1049, scopeLine: 456, flags: DIFlagPublic | DIFlagPrototyped, spFlags: DISPFlagOptimized)
!1049 = !DISubroutineType(types: !1050)
!1050 = !{!1051, !766}
!1051 = !DIDerivedType(tag: DW_TAG_pointer_type, baseType: !1052, size: 64)
!1052 = !DIDerivedType(tag: DW_TAG_const_type, baseType: !23)
!1053 = !DISubprogram(name: "anno_u8", linkageName: "_ZNK6Packet7anno_u8Ei", scope: !545, file: !544, line: 460, type: !1054, scopeLine: 460, flags: DIFlagPublic | DIFlagPrototyped, spFlags: DISPFlagOptimized)
!1054 = !DISubroutineType(types: !1055)
!1055 = !{!625, !766, !30}
!1056 = !DISubprogram(name: "set_anno_u8", linkageName: "_ZN6Packet11set_anno_u8Eih", scope: !545, file: !544, line: 469, type: !1057, scopeLine: 469, flags: DIFlagPublic | DIFlagPrototyped, spFlags: DISPFlagOptimized)
!1057 = !DISubroutineType(types: !1058)
!1058 = !{null, !762, !30, !625}
!1059 = !DISubprogram(name: "anno_u16", linkageName: "_ZNK6Packet8anno_u16Ei", scope: !545, file: !544, line: 479, type: !1060, scopeLine: 479, flags: DIFlagPublic | DIFlagPrototyped, spFlags: DISPFlagOptimized)
!1060 = !DISubroutineType(types: !1061)
!1061 = !{!629, !766, !30}
!1062 = !DISubprogram(name: "set_anno_u16", linkageName: "_ZN6Packet12set_anno_u16Eit", scope: !545, file: !544, line: 494, type: !1063, scopeLine: 494, flags: DIFlagPublic | DIFlagPrototyped, spFlags: DISPFlagOptimized)
!1063 = !DISubroutineType(types: !1064)
!1064 = !{null, !762, !30, !629}
!1065 = !DISubprogram(name: "anno_s16", linkageName: "_ZNK6Packet8anno_s16Ei", scope: !545, file: !544, line: 507, type: !1066, scopeLine: 507, flags: DIFlagPublic | DIFlagPrototyped, spFlags: DISPFlagOptimized)
!1066 = !DISubroutineType(types: !1067)
!1067 = !{!1068, !766, !30}
!1068 = !DIDerivedType(tag: DW_TAG_typedef, name: "int16_t", file: !12, line: 25, baseType: !1069)
!1069 = !DIDerivedType(tag: DW_TAG_typedef, name: "__int16_t", file: !14, line: 39, baseType: !1070)
!1070 = !DIBasicType(name: "short", size: 16, encoding: DW_ATE_signed)
!1071 = !DISubprogram(name: "set_anno_s16", linkageName: "_ZN6Packet12set_anno_s16Eis", scope: !545, file: !544, line: 522, type: !1072, scopeLine: 522, flags: DIFlagPublic | DIFlagPrototyped, spFlags: DISPFlagOptimized)
!1072 = !DISubroutineType(types: !1073)
!1073 = !{null, !762, !30, !1068}
!1074 = !DISubprogram(name: "anno_u32", linkageName: "_ZNK6Packet8anno_u32Ei", scope: !545, file: !544, line: 535, type: !1075, scopeLine: 535, flags: DIFlagPublic | DIFlagPrototyped, spFlags: DISPFlagOptimized)
!1075 = !DISubroutineType(types: !1076)
!1076 = !{!23, !766, !30}
!1077 = !DISubprogram(name: "set_anno_u32", linkageName: "_ZN6Packet12set_anno_u32Eij", scope: !545, file: !544, line: 550, type: !1078, scopeLine: 550, flags: DIFlagPublic | DIFlagPrototyped, spFlags: DISPFlagOptimized)
!1078 = !DISubroutineType(types: !1079)
!1079 = !{null, !762, !30, !23}
!1080 = !DISubprogram(name: "anno_s32", linkageName: "_ZNK6Packet8anno_s32Ei", scope: !545, file: !544, line: 556, type: !1081, scopeLine: 556, flags: DIFlagPublic | DIFlagPrototyped, spFlags: DISPFlagOptimized)
!1081 = !DISubroutineType(types: !1082)
!1082 = !{!87, !766, !30}
!1083 = !DISubprogram(name: "set_anno_s32", linkageName: "_ZN6Packet12set_anno_s32Eii", scope: !545, file: !544, line: 571, type: !1084, scopeLine: 571, flags: DIFlagPublic | DIFlagPrototyped, spFlags: DISPFlagOptimized)
!1084 = !DISubroutineType(types: !1085)
!1085 = !{null, !762, !30, !87}
!1086 = !DISubprogram(name: "anno_u64", linkageName: "_ZNK6Packet8anno_u64Ei", scope: !545, file: !544, line: 585, type: !1087, scopeLine: 585, flags: DIFlagPublic | DIFlagPrototyped, spFlags: DISPFlagOptimized)
!1087 = !DISubroutineType(types: !1088)
!1088 = !{!311, !766, !30}
!1089 = !DISubprogram(name: "set_anno_u64", linkageName: "_ZN6Packet12set_anno_u64Eim", scope: !545, file: !544, line: 600, type: !1090, scopeLine: 600, flags: DIFlagPublic | DIFlagPrototyped, spFlags: DISPFlagOptimized)
!1090 = !DISubroutineType(types: !1091)
!1091 = !{null, !762, !30, !311}
!1092 = !DISubprogram(name: "anno_ptr", linkageName: "_ZNK6Packet8anno_ptrEi", scope: !545, file: !544, line: 614, type: !1093, scopeLine: 614, flags: DIFlagPublic | DIFlagPrototyped, spFlags: DISPFlagOptimized)
!1093 = !DISubroutineType(types: !1094)
!1094 = !{!656, !766, !30}
!1095 = !DISubprogram(name: "set_anno_ptr", linkageName: "_ZN6Packet12set_anno_ptrEiPKv", scope: !545, file: !544, line: 629, type: !1096, scopeLine: 629, flags: DIFlagPublic | DIFlagPrototyped, spFlags: DISPFlagOptimized)
!1096 = !DISubroutineType(types: !1097)
!1097 = !{null, !762, !30, !745}
!1098 = !DISubprogram(name: "data_packet", linkageName: "_ZN6Packet11data_packetEv", scope: !545, file: !544, line: 638, type: !768, scopeLine: 638, flags: DIFlagPublic | DIFlagPrototyped, spFlags: DISPFlagOptimized)
!1099 = !DISubprogram(name: "clear_annotations", linkageName: "_ZN6Packet17clear_annotationsEb", scope: !545, file: !544, line: 643, type: !1100, scopeLine: 643, flags: DIFlagPublic | DIFlagPrototyped, spFlags: DISPFlagOptimized)
!1100 = !DISubroutineType(types: !1101)
!1101 = !{null, !762, !94}
!1102 = !DISubprogram(name: "copy_annotations", linkageName: "_ZN6Packet16copy_annotationsEPKS_", scope: !545, file: !544, line: 644, type: !1103, scopeLine: 644, flags: DIFlagPublic | DIFlagPrototyped, spFlags: DISPFlagOptimized)
!1103 = !DISubroutineType(types: !1104)
!1104 = !{null, !762, !1105}
!1105 = !DIDerivedType(tag: DW_TAG_pointer_type, baseType: !734, size: 64)
!1106 = !DISubprogram(name: "buffer_data", linkageName: "_ZNK6Packet11buffer_dataEv", scope: !545, file: !544, line: 661, type: !774, scopeLine: 661, flags: DIFlagPublic | DIFlagPrototyped, spFlags: DISPFlagOptimized)
!1107 = !DISubprogram(name: "addr_anno", linkageName: "_ZN6Packet9addr_annoEv", scope: !545, file: !544, line: 662, type: !792, scopeLine: 662, flags: DIFlagPublic | DIFlagPrototyped, spFlags: DISPFlagOptimized)
!1108 = !DISubprogram(name: "addr_anno", linkageName: "_ZNK6Packet9addr_annoEv", scope: !545, file: !544, line: 663, type: !1033, scopeLine: 663, flags: DIFlagPublic | DIFlagPrototyped, spFlags: DISPFlagOptimized)
!1109 = !DISubprogram(name: "user_anno", linkageName: "_ZN6Packet9user_annoEv", scope: !545, file: !544, line: 664, type: !792, scopeLine: 664, flags: DIFlagPublic | DIFlagPrototyped, spFlags: DISPFlagOptimized)
!1110 = !DISubprogram(name: "user_anno", linkageName: "_ZNK6Packet9user_annoEv", scope: !545, file: !544, line: 665, type: !1033, scopeLine: 665, flags: DIFlagPublic | DIFlagPrototyped, spFlags: DISPFlagOptimized)
!1111 = !DISubprogram(name: "user_anno_u8", linkageName: "_ZN6Packet12user_anno_u8Ev", scope: !545, file: !544, line: 666, type: !1036, scopeLine: 666, flags: DIFlagPublic | DIFlagPrototyped, spFlags: DISPFlagOptimized)
!1112 = !DISubprogram(name: "user_anno_u8", linkageName: "_ZNK6Packet12user_anno_u8Ev", scope: !545, file: !544, line: 667, type: !1040, scopeLine: 667, flags: DIFlagPublic | DIFlagPrototyped, spFlags: DISPFlagOptimized)
!1113 = !DISubprogram(name: "user_anno_u32", linkageName: "_ZN6Packet13user_anno_u32Ev", scope: !545, file: !544, line: 668, type: !1045, scopeLine: 668, flags: DIFlagPublic | DIFlagPrototyped, spFlags: DISPFlagOptimized)
!1114 = !DISubprogram(name: "user_anno_u32", linkageName: "_ZNK6Packet13user_anno_u32Ev", scope: !545, file: !544, line: 669, type: !1049, scopeLine: 669, flags: DIFlagPublic | DIFlagPrototyped, spFlags: DISPFlagOptimized)
!1115 = !DISubprogram(name: "user_anno_u8", linkageName: "_ZNK6Packet12user_anno_u8Ei", scope: !545, file: !544, line: 670, type: !1054, scopeLine: 670, flags: DIFlagPublic | DIFlagPrototyped, spFlags: DISPFlagOptimized)
!1116 = !DISubprogram(name: "set_user_anno_u8", linkageName: "_ZN6Packet16set_user_anno_u8Eih", scope: !545, file: !544, line: 671, type: !1057, scopeLine: 671, flags: DIFlagPublic | DIFlagPrototyped, spFlags: DISPFlagOptimized)
!1117 = !DISubprogram(name: "user_anno_u16", linkageName: "_ZNK6Packet13user_anno_u16Ei", scope: !545, file: !544, line: 672, type: !1060, scopeLine: 672, flags: DIFlagPublic | DIFlagPrototyped, spFlags: DISPFlagOptimized)
!1118 = !DISubprogram(name: "set_user_anno_u16", linkageName: "_ZN6Packet17set_user_anno_u16Eit", scope: !545, file: !544, line: 673, type: !1063, scopeLine: 673, flags: DIFlagPublic | DIFlagPrototyped, spFlags: DISPFlagOptimized)
!1119 = !DISubprogram(name: "user_anno_u32", linkageName: "_ZNK6Packet13user_anno_u32Ei", scope: !545, file: !544, line: 674, type: !1075, scopeLine: 674, flags: DIFlagPublic | DIFlagPrototyped, spFlags: DISPFlagOptimized)
!1120 = !DISubprogram(name: "set_user_anno_u32", linkageName: "_ZN6Packet17set_user_anno_u32Eij", scope: !545, file: !544, line: 675, type: !1078, scopeLine: 675, flags: DIFlagPublic | DIFlagPrototyped, spFlags: DISPFlagOptimized)
!1121 = !DISubprogram(name: "user_anno_s32", linkageName: "_ZNK6Packet13user_anno_s32Ei", scope: !545, file: !544, line: 676, type: !1081, scopeLine: 676, flags: DIFlagPublic | DIFlagPrototyped, spFlags: DISPFlagOptimized)
!1122 = !DISubprogram(name: "set_user_anno_s32", linkageName: "_ZN6Packet17set_user_anno_s32Eii", scope: !545, file: !544, line: 677, type: !1084, scopeLine: 677, flags: DIFlagPublic | DIFlagPrototyped, spFlags: DISPFlagOptimized)
!1123 = !DISubprogram(name: "user_anno_u64", linkageName: "_ZNK6Packet13user_anno_u64Ei", scope: !545, file: !544, line: 679, type: !1087, scopeLine: 679, flags: DIFlagPublic | DIFlagPrototyped, spFlags: DISPFlagOptimized)
!1124 = !DISubprogram(name: "set_user_anno_u64", linkageName: "_ZN6Packet17set_user_anno_u64Eim", scope: !545, file: !544, line: 680, type: !1090, scopeLine: 680, flags: DIFlagPublic | DIFlagPrototyped, spFlags: DISPFlagOptimized)
!1125 = !DISubprogram(name: "all_user_anno", linkageName: "_ZNK6Packet13all_user_annoEv", scope: !545, file: !544, line: 682, type: !1040, scopeLine: 682, flags: DIFlagPublic | DIFlagPrototyped, spFlags: DISPFlagOptimized)
!1126 = !DISubprogram(name: "all_user_anno", linkageName: "_ZN6Packet13all_user_annoEv", scope: !545, file: !544, line: 683, type: !1036, scopeLine: 683, flags: DIFlagPublic | DIFlagPrototyped, spFlags: DISPFlagOptimized)
!1127 = !DISubprogram(name: "all_user_anno_u", linkageName: "_ZNK6Packet15all_user_anno_uEv", scope: !545, file: !544, line: 684, type: !1049, scopeLine: 684, flags: DIFlagPublic | DIFlagPrototyped, spFlags: DISPFlagOptimized)
!1128 = !DISubprogram(name: "all_user_anno_u", linkageName: "_ZN6Packet15all_user_anno_uEv", scope: !545, file: !544, line: 685, type: !1045, scopeLine: 685, flags: DIFlagPublic | DIFlagPrototyped, spFlags: DISPFlagOptimized)
!1129 = !DISubprogram(name: "user_anno_c", linkageName: "_ZNK6Packet11user_anno_cEi", scope: !545, file: !544, line: 686, type: !1054, scopeLine: 686, flags: DIFlagPublic | DIFlagPrototyped, spFlags: DISPFlagOptimized)
!1130 = !DISubprogram(name: "set_user_anno_c", linkageName: "_ZN6Packet15set_user_anno_cEih", scope: !545, file: !544, line: 687, type: !1057, scopeLine: 687, flags: DIFlagPublic | DIFlagPrototyped, spFlags: DISPFlagOptimized)
!1131 = !DISubprogram(name: "user_anno_s", linkageName: "_ZNK6Packet11user_anno_sEi", scope: !545, file: !544, line: 688, type: !1066, scopeLine: 688, flags: DIFlagPublic | DIFlagPrototyped, spFlags: DISPFlagOptimized)
!1132 = !DISubprogram(name: "set_user_anno_s", linkageName: "_ZN6Packet15set_user_anno_sEis", scope: !545, file: !544, line: 689, type: !1072, scopeLine: 689, flags: DIFlagPublic | DIFlagPrototyped, spFlags: DISPFlagOptimized)
!1133 = !DISubprogram(name: "user_anno_us", linkageName: "_ZNK6Packet12user_anno_usEi", scope: !545, file: !544, line: 690, type: !1060, scopeLine: 690, flags: DIFlagPublic | DIFlagPrototyped, spFlags: DISPFlagOptimized)
!1134 = !DISubprogram(name: "set_user_anno_us", linkageName: "_ZN6Packet16set_user_anno_usEit", scope: !545, file: !544, line: 691, type: !1063, scopeLine: 691, flags: DIFlagPublic | DIFlagPrototyped, spFlags: DISPFlagOptimized)
!1135 = !DISubprogram(name: "user_anno_i", linkageName: "_ZNK6Packet11user_anno_iEi", scope: !545, file: !544, line: 692, type: !1081, scopeLine: 692, flags: DIFlagPublic | DIFlagPrototyped, spFlags: DISPFlagOptimized)
!1136 = !DISubprogram(name: "set_user_anno_i", linkageName: "_ZN6Packet15set_user_anno_iEii", scope: !545, file: !544, line: 693, type: !1084, scopeLine: 693, flags: DIFlagPublic | DIFlagPrototyped, spFlags: DISPFlagOptimized)
!1137 = !DISubprogram(name: "user_anno_u", linkageName: "_ZNK6Packet11user_anno_uEi", scope: !545, file: !544, line: 694, type: !1075, scopeLine: 694, flags: DIFlagPublic | DIFlagPrototyped, spFlags: DISPFlagOptimized)
!1138 = !DISubprogram(name: "set_user_anno_u", linkageName: "_ZN6Packet15set_user_anno_uEij", scope: !545, file: !544, line: 695, type: !1078, scopeLine: 695, flags: DIFlagPublic | DIFlagPrototyped, spFlags: DISPFlagOptimized)
!1139 = !DISubprogram(name: "Packet", scope: !545, file: !544, line: 751, type: !760, scopeLine: 751, flags: DIFlagPrototyped, spFlags: DISPFlagOptimized)
!1140 = !DISubprogram(name: "Packet", scope: !545, file: !544, line: 756, type: !1141, scopeLine: 756, flags: DIFlagPrototyped, spFlags: DISPFlagOptimized)
!1141 = !DISubroutineType(types: !1142)
!1142 = !{null, !762, !733}
!1143 = !DISubprogram(name: "~Packet", scope: !545, file: !544, line: 757, type: !760, scopeLine: 757, flags: DIFlagPrototyped, spFlags: DISPFlagOptimized)
!1144 = !DISubprogram(name: "operator=", linkageName: "_ZN6PacketaSERKS_", scope: !545, file: !544, line: 758, type: !1145, scopeLine: 758, flags: DIFlagPrototyped, spFlags: DISPFlagOptimized)
!1145 = !DISubroutineType(types: !1146)
!1146 = !{!1147, !762, !733}
!1147 = !DIDerivedType(tag: DW_TAG_reference_type, baseType: !545, size: 64)
!1148 = !DISubprogram(name: "alloc_data", linkageName: "_ZN6Packet10alloc_dataEjjj", scope: !545, file: !544, line: 761, type: !1149, scopeLine: 761, flags: DIFlagPrototyped, spFlags: DISPFlagOptimized)
!1149 = !DISubroutineType(types: !1150)
!1150 = !{!94, !762, !23, !23, !23}
!1151 = !DISubprogram(name: "shift_header_annotations", linkageName: "_ZN6Packet24shift_header_annotationsEPKhi", scope: !545, file: !544, line: 768, type: !1152, scopeLine: 768, flags: DIFlagPrototyped, spFlags: DISPFlagOptimized)
!1152 = !DISubroutineType(types: !1153)
!1153 = !{null, !762, !245, !87}
!1154 = !DISubprogram(name: "expensive_uniqueify", linkageName: "_ZN6Packet19expensive_uniqueifyEiib", scope: !545, file: !544, line: 769, type: !1155, scopeLine: 769, flags: DIFlagPrototyped, spFlags: DISPFlagOptimized)
!1155 = !DISubroutineType(types: !1156)
!1156 = !{!661, !762, !87, !87, !94}
!1157 = !DISubprogram(name: "expensive_push", linkageName: "_ZN6Packet14expensive_pushEj", scope: !545, file: !544, line: 770, type: !796, scopeLine: 770, flags: DIFlagPrototyped, spFlags: DISPFlagOptimized)
!1158 = !DISubprogram(name: "expensive_put", linkageName: "_ZN6Packet13expensive_putEj", scope: !545, file: !544, line: 771, type: !796, scopeLine: 771, flags: DIFlagPrototyped, spFlags: DISPFlagOptimized)
!1159 = !{!1160, !1161, !1162, !1163, !1164, !1165, !1166}
!1160 = !DIEnumerator(name: "HOST", value: 0, isUnsigned: true)
!1161 = !DIEnumerator(name: "BROADCAST", value: 1, isUnsigned: true)
!1162 = !DIEnumerator(name: "MULTICAST", value: 2, isUnsigned: true)
!1163 = !DIEnumerator(name: "OTHERHOST", value: 3, isUnsigned: true)
!1164 = !DIEnumerator(name: "OUTGOING", value: 4, isUnsigned: true)
!1165 = !DIEnumerator(name: "LOOPBACK", value: 5, isUnsigned: true)
!1166 = !DIEnumerator(name: "FASTROUTE", value: 6, isUnsigned: true)
!1167 = !DICompositeType(tag: DW_TAG_enumeration_type, scope: !5, file: !4, line: 142, baseType: !26, size: 32, elements: !1168, identifier: "_ZTSN9TimestampUt0_E")
!1168 = !{!1169, !1170, !1171, !1172, !1173, !1174, !1175, !1176, !1177}
!1169 = !DIEnumerator(name: "nsec_per_sec", value: 1000000000, isUnsigned: true)
!1170 = !DIEnumerator(name: "nsec_per_msec", value: 1000000, isUnsigned: true)
!1171 = !DIEnumerator(name: "nsec_per_usec", value: 1000, isUnsigned: true)
!1172 = !DIEnumerator(name: "usec_per_sec", value: 1000000, isUnsigned: true)
!1173 = !DIEnumerator(name: "usec_per_msec", value: 1000, isUnsigned: true)
!1174 = !DIEnumerator(name: "msec_per_sec", value: 1000, isUnsigned: true)
!1175 = !DIEnumerator(name: "subsec_per_sec", value: 1000000000, isUnsigned: true)
!1176 = !DIEnumerator(name: "subsec_per_msec", value: 1000000, isUnsigned: true)
!1177 = !DIEnumerator(name: "subsec_per_usec", value: 1000, isUnsigned: true)
!1178 = !DICompositeType(tag: DW_TAG_enumeration_type, scope: !1180, file: !1179, line: 340, baseType: !26, size: 32, elements: !1346, identifier: "_ZTSN13TokenCounterXI10TokenRateXI26TokenBucketJiffyParametersIjEEEUt_E")
!1179 = !DIFile(filename: "../dummy_inc/click/tokenbucket.hh", directory: "/home/john/projects/click/ir-dir")
!1180 = distinct !DICompositeType(tag: DW_TAG_class_type, name: "TokenCounterX<TokenRateX<TokenBucketJiffyParameters<unsigned int> > >", file: !1179, line: 326, size: 64, flags: DIFlagTypePassByValue | DIFlagNonTrivial, elements: !1181, templateParams: !1344, identifier: "_ZTS13TokenCounterXI10TokenRateXI26TokenBucketJiffyParametersIjEEE")
!1181 = !{!1182, !1279, !1281, !1285, !1288, !1296, !1299, !1302, !1303, !1306, !1309, !1310, !1311, !1314, !1317, !1320, !1323, !1326, !1329, !1330, !1333, !1334, !1337, !1341, !1342, !1343}
!1182 = !DIDerivedType(tag: DW_TAG_member, name: "_tokens", scope: !1180, file: !1179, line: 572, baseType: !1183, size: 32)
!1183 = !DIDerivedType(tag: DW_TAG_typedef, name: "token_type", scope: !1180, file: !1179, line: 332, baseType: !1184)
!1184 = !DIDerivedType(tag: DW_TAG_typedef, name: "token_type", scope: !1185, file: !1179, line: 64, baseType: !1278)
!1185 = distinct !DICompositeType(tag: DW_TAG_class_type, name: "TokenRateX<TokenBucketJiffyParameters<unsigned int> >", file: !1179, line: 58, size: 96, flags: DIFlagTypePassByValue | DIFlagNonTrivial, elements: !1186, templateParams: !1276, identifier: "_ZTS10TokenRateXI26TokenBucketJiffyParametersIjEE")
!1186 = !{!1187, !1217, !1218, !1219, !1240, !1244, !1247, !1250, !1251, !1252, !1257, !1258, !1261, !1262, !1263, !1264, !1267, !1271, !1274, !1275}
!1187 = !DIDerivedType(tag: DW_TAG_inheritance, scope: !1185, baseType: !1188, flags: DIFlagPublic, extraData: i32 0)
!1188 = distinct !DICompositeType(tag: DW_TAG_class_type, name: "TokenBucketJiffyParameters<unsigned int>", file: !1179, line: 629, size: 8, flags: DIFlagTypePassByValue, elements: !1189, templateParams: !1215, identifier: "_ZTS26TokenBucketJiffyParametersIjE")
!1189 = !{!1190, !1194, !1198, !1202, !1205, !1208, !1211}
!1190 = !DISubprogram(name: "now", linkageName: "_ZN26TokenBucketJiffyParametersIjE3nowEv", scope: !1188, file: !1179, line: 642, type: !1191, scopeLine: 642, flags: DIFlagPublic | DIFlagPrototyped | DIFlagStaticMember, spFlags: DISPFlagOptimized)
!1191 = !DISubroutineType(types: !1192)
!1192 = !{!1193}
!1193 = !DIDerivedType(tag: DW_TAG_typedef, name: "time_point_type", file: !1179, line: 635, baseType: !135)
!1194 = !DISubprogram(name: "time_point", linkageName: "_ZN26TokenBucketJiffyParametersIjE10time_pointEj", scope: !1188, file: !1179, line: 646, type: !1195, scopeLine: 646, flags: DIFlagPublic | DIFlagPrototyped | DIFlagStaticMember, spFlags: DISPFlagOptimized)
!1195 = !DISubroutineType(types: !1196)
!1196 = !{!1197, !1193}
!1197 = !DIDerivedType(tag: DW_TAG_typedef, name: "time_point_type", scope: !1188, file: !1179, line: 635, baseType: !135)
!1198 = !DISubprogram(name: "time_monotonic_difference", linkageName: "_ZN26TokenBucketJiffyParametersIjE25time_monotonic_differenceEjj", scope: !1188, file: !1179, line: 656, type: !1199, scopeLine: 656, flags: DIFlagPublic | DIFlagPrototyped | DIFlagStaticMember, spFlags: DISPFlagOptimized)
!1199 = !DISubroutineType(types: !1200)
!1200 = !{!1201, !1193, !1193}
!1201 = !DIDerivedType(tag: DW_TAG_typedef, name: "duration_type", scope: !1188, file: !1179, line: 638, baseType: !140)
!1202 = !DISubprogram(name: "time_less", linkageName: "_ZN26TokenBucketJiffyParametersIjE9time_lessEjj", scope: !1188, file: !1179, line: 665, type: !1203, scopeLine: 665, flags: DIFlagPublic | DIFlagPrototyped | DIFlagStaticMember, spFlags: DISPFlagOptimized)
!1203 = !DISubroutineType(types: !1204)
!1204 = !{!94, !1193, !1193}
!1205 = !DISubprogram(name: "frequency", linkageName: "_ZN26TokenBucketJiffyParametersIjE9frequencyEv", scope: !1188, file: !1179, line: 672, type: !1206, scopeLine: 672, flags: DIFlagPublic | DIFlagPrototyped | DIFlagStaticMember, spFlags: DISPFlagOptimized)
!1206 = !DISubroutineType(types: !1207)
!1207 = !{!26}
!1208 = !DISubprogram(name: "timestamp", linkageName: "_ZN26TokenBucketJiffyParametersIjE9timestampEj", scope: !1188, file: !1179, line: 677, type: !1209, scopeLine: 677, flags: DIFlagPublic | DIFlagPrototyped | DIFlagStaticMember, spFlags: DISPFlagOptimized)
!1209 = !DISubroutineType(types: !1210)
!1210 = !{!5, !1193}
!1211 = !DISubprogram(name: "timestamp", linkageName: "_ZN26TokenBucketJiffyParametersIjE9timestampEi", scope: !1188, file: !1179, line: 682, type: !1212, scopeLine: 682, flags: DIFlagPublic | DIFlagPrototyped | DIFlagStaticMember, spFlags: DISPFlagOptimized)
!1212 = !DISubroutineType(types: !1213)
!1213 = !{!5, !1214}
!1214 = !DIDerivedType(tag: DW_TAG_typedef, name: "duration_type", file: !1179, line: 638, baseType: !140)
!1215 = !{!1216}
!1216 = !DITemplateTypeParameter(name: "T", type: !26)
!1217 = !DIDerivedType(tag: DW_TAG_member, name: "_tokens_per_tick", scope: !1185, file: !1179, line: 187, baseType: !1184, size: 32)
!1218 = !DIDerivedType(tag: DW_TAG_member, name: "_token_scale", scope: !1185, file: !1179, line: 188, baseType: !1184, size: 32, offset: 32)
!1219 = !DIDerivedType(tag: DW_TAG_member, name: "_time_until_full", scope: !1185, file: !1179, line: 189, baseType: !1220, size: 32, offset: 64)
!1220 = !DIDerivedType(tag: DW_TAG_typedef, name: "ticks_type", scope: !1185, file: !1179, line: 70, baseType: !1221)
!1221 = !DIDerivedType(tag: DW_TAG_typedef, name: "type", scope: !1223, file: !1222, line: 461, baseType: !1226)
!1222 = !DIFile(filename: "../dummy_inc/click/type_traits.hh", directory: "/home/john/projects/click/ir-dir")
!1223 = distinct !DICompositeType(tag: DW_TAG_structure_type, name: "make_unsigned<int>", file: !1222, line: 460, size: 8, flags: DIFlagTypePassByValue, elements: !78, templateParams: !1224, identifier: "_ZTS13make_unsignedIiE")
!1224 = !{!1225}
!1225 = !DITemplateTypeParameter(name: "T", type: !30)
!1226 = !DIDerivedType(tag: DW_TAG_typedef, name: "unsigned_type", scope: !1227, file: !1222, line: 345, baseType: !26)
!1227 = distinct !DICompositeType(tag: DW_TAG_structure_type, name: "integer_traits<int>", file: !1222, line: 338, size: 8, flags: DIFlagTypePassByValue, elements: !1228, templateParams: !1224, identifier: "_ZTS14integer_traitsIiE")
!1228 = !{!1229, !1231, !1232, !1234, !1235, !1236}
!1229 = !DIDerivedType(tag: DW_TAG_member, name: "is_numeric", scope: !1227, file: !1222, line: 339, baseType: !1230, flags: DIFlagStaticMember, extraData: i1 true)
!1230 = !DIDerivedType(tag: DW_TAG_const_type, baseType: !94)
!1231 = !DIDerivedType(tag: DW_TAG_member, name: "is_integral", scope: !1227, file: !1222, line: 340, baseType: !1230, flags: DIFlagStaticMember, extraData: i1 true)
!1232 = !DIDerivedType(tag: DW_TAG_member, name: "const_min", scope: !1227, file: !1222, line: 341, baseType: !1233, flags: DIFlagStaticMember, extraData: i32 -2147483648)
!1233 = !DIDerivedType(tag: DW_TAG_const_type, baseType: !30)
!1234 = !DIDerivedType(tag: DW_TAG_member, name: "const_max", scope: !1227, file: !1222, line: 342, baseType: !1233, flags: DIFlagStaticMember, extraData: i32 2147483647)
!1235 = !DIDerivedType(tag: DW_TAG_member, name: "is_signed", scope: !1227, file: !1222, line: 343, baseType: !1230, flags: DIFlagStaticMember, extraData: i1 true)
!1236 = !DISubprogram(name: "negative", linkageName: "_ZN14integer_traitsIiE8negativeEi", scope: !1227, file: !1222, line: 348, type: !1237, scopeLine: 348, flags: DIFlagPrototyped | DIFlagStaticMember, spFlags: DISPFlagOptimized)
!1237 = !DISubroutineType(types: !1238)
!1238 = !{!94, !1239}
!1239 = !DIDerivedType(tag: DW_TAG_typedef, name: "type", scope: !1227, file: !1222, line: 346, baseType: !30)
!1240 = !DISubprogram(name: "TokenRateX", scope: !1185, file: !1179, line: 77, type: !1241, scopeLine: 77, flags: DIFlagPublic | DIFlagPrototyped, spFlags: DISPFlagOptimized)
!1241 = !DISubroutineType(types: !1242)
!1242 = !{null, !1243}
!1243 = !DIDerivedType(tag: DW_TAG_pointer_type, baseType: !1185, size: 64, flags: DIFlagArtificial | DIFlagObjectPointer)
!1244 = !DISubprogram(name: "TokenRateX", scope: !1185, file: !1179, line: 83, type: !1245, scopeLine: 83, flags: DIFlagPublic | DIFlagExplicit | DIFlagPrototyped, spFlags: DISPFlagOptimized)
!1245 = !DISubroutineType(types: !1246)
!1246 = !{null, !1243, !94}
!1247 = !DISubprogram(name: "TokenRateX", scope: !1185, file: !1179, line: 94, type: !1248, scopeLine: 94, flags: DIFlagPublic | DIFlagPrototyped, spFlags: DISPFlagOptimized)
!1248 = !DISubroutineType(types: !1249)
!1249 = !{null, !1243, !1184, !1184}
!1250 = !DISubprogram(name: "assign", linkageName: "_ZN10TokenRateXI26TokenBucketJiffyParametersIjEE6assignEb", scope: !1185, file: !1179, line: 100, type: !1245, scopeLine: 100, flags: DIFlagPublic | DIFlagPrototyped, spFlags: DISPFlagOptimized)
!1251 = !DISubprogram(name: "assign", linkageName: "_ZN10TokenRateXI26TokenBucketJiffyParametersIjEE6assignEjj", scope: !1185, file: !1179, line: 108, type: !1248, scopeLine: 108, flags: DIFlagPublic | DIFlagPrototyped, spFlags: DISPFlagOptimized)
!1252 = !DISubprogram(name: "unlimited", linkageName: "_ZNK10TokenRateXI26TokenBucketJiffyParametersIjEE9unlimitedEv", scope: !1185, file: !1179, line: 111, type: !1253, scopeLine: 111, flags: DIFlagPublic | DIFlagPrototyped, spFlags: DISPFlagOptimized)
!1253 = !DISubroutineType(types: !1254)
!1254 = !{!94, !1255}
!1255 = !DIDerivedType(tag: DW_TAG_pointer_type, baseType: !1256, size: 64, flags: DIFlagArtificial | DIFlagObjectPointer)
!1256 = !DIDerivedType(tag: DW_TAG_const_type, baseType: !1185)
!1257 = !DISubprogram(name: "idle", linkageName: "_ZNK10TokenRateXI26TokenBucketJiffyParametersIjEE4idleEv", scope: !1185, file: !1179, line: 116, type: !1253, scopeLine: 116, flags: DIFlagPublic | DIFlagPrototyped, spFlags: DISPFlagOptimized)
!1258 = !DISubprogram(name: "rate", linkageName: "_ZNK10TokenRateXI26TokenBucketJiffyParametersIjEE4rateEv", scope: !1185, file: !1179, line: 124, type: !1259, scopeLine: 124, flags: DIFlagPublic | DIFlagPrototyped, spFlags: DISPFlagOptimized)
!1259 = !DISubroutineType(types: !1260)
!1260 = !{!1184, !1255}
!1261 = !DISubprogram(name: "capacity", linkageName: "_ZNK10TokenRateXI26TokenBucketJiffyParametersIjEE8capacityEv", scope: !1185, file: !1179, line: 130, type: !1259, scopeLine: 130, flags: DIFlagPublic | DIFlagPrototyped, spFlags: DISPFlagOptimized)
!1262 = !DISubprogram(name: "tokens_per_tick", linkageName: "_ZNK10TokenRateXI26TokenBucketJiffyParametersIjEE15tokens_per_tickEv", scope: !1185, file: !1179, line: 135, type: !1259, scopeLine: 135, flags: DIFlagPublic | DIFlagPrototyped, spFlags: DISPFlagOptimized)
!1263 = !DISubprogram(name: "token_scale", linkageName: "_ZNK10TokenRateXI26TokenBucketJiffyParametersIjEE11token_scaleEv", scope: !1185, file: !1179, line: 140, type: !1259, scopeLine: 140, flags: DIFlagPublic | DIFlagPrototyped, spFlags: DISPFlagOptimized)
!1264 = !DISubprogram(name: "time_until_full", linkageName: "_ZNK10TokenRateXI26TokenBucketJiffyParametersIjEE15time_until_fullEv", scope: !1185, file: !1179, line: 148, type: !1265, scopeLine: 148, flags: DIFlagPublic | DIFlagPrototyped, spFlags: DISPFlagOptimized)
!1265 = !DISubroutineType(types: !1266)
!1266 = !{!1220, !1255}
!1267 = !DISubprogram(name: "now", linkageName: "_ZNK10TokenRateXI26TokenBucketJiffyParametersIjEE3nowEv", scope: !1185, file: !1179, line: 155, type: !1268, scopeLine: 155, flags: DIFlagPublic | DIFlagPrototyped, spFlags: DISPFlagOptimized)
!1268 = !DISubroutineType(types: !1269)
!1269 = !{!1270, !1255}
!1270 = !DIDerivedType(tag: DW_TAG_typedef, name: "time_point_type", scope: !1185, file: !1179, line: 67, baseType: !1197)
!1271 = !DISubprogram(name: "time_monotonic_difference", linkageName: "_ZNK10TokenRateXI26TokenBucketJiffyParametersIjEE25time_monotonic_differenceEjj", scope: !1185, file: !1179, line: 174, type: !1272, scopeLine: 174, flags: DIFlagPublic | DIFlagPrototyped, spFlags: DISPFlagOptimized)
!1272 = !DISubroutineType(types: !1273)
!1273 = !{!1220, !1255, !1270, !1270}
!1274 = !DISubprogram(name: "tokens_per_epoch", linkageName: "_ZNK10TokenRateXI26TokenBucketJiffyParametersIjEE16tokens_per_epochEv", scope: !1185, file: !1179, line: 181, type: !1259, scopeLine: 181, flags: DIFlagPublic | DIFlagPrototyped, spFlags: DISPFlagOptimized)
!1275 = !DISubprogram(name: "epochs_until_full", linkageName: "_ZNK10TokenRateXI26TokenBucketJiffyParametersIjEE17epochs_until_fullEv", scope: !1185, file: !1179, line: 182, type: !1265, scopeLine: 182, flags: DIFlagPublic | DIFlagPrototyped, spFlags: DISPFlagOptimized)
!1276 = !{!1277}
!1277 = !DITemplateTypeParameter(name: "P", type: !1188)
!1278 = !DIDerivedType(tag: DW_TAG_typedef, name: "token_type", scope: !1188, file: !1179, line: 632, baseType: !26)
!1279 = !DIDerivedType(tag: DW_TAG_member, name: "_time_point", scope: !1180, file: !1179, line: 573, baseType: !1280, size: 32, offset: 32)
!1280 = !DIDerivedType(tag: DW_TAG_typedef, name: "time_point_type", scope: !1180, file: !1179, line: 335, baseType: !1270)
!1281 = !DISubprogram(name: "TokenCounterX", scope: !1180, file: !1179, line: 347, type: !1282, scopeLine: 347, flags: DIFlagPublic | DIFlagPrototyped, spFlags: DISPFlagOptimized)
!1282 = !DISubroutineType(types: !1283)
!1283 = !{null, !1284}
!1284 = !DIDerivedType(tag: DW_TAG_pointer_type, baseType: !1180, size: 64, flags: DIFlagArtificial | DIFlagObjectPointer)
!1285 = !DISubprogram(name: "TokenCounterX", scope: !1180, file: !1179, line: 356, type: !1286, scopeLine: 356, flags: DIFlagPublic | DIFlagExplicit | DIFlagPrototyped, spFlags: DISPFlagOptimized)
!1286 = !DISubroutineType(types: !1287)
!1287 = !{null, !1284, !94}
!1288 = !DISubprogram(name: "size", linkageName: "_ZNK13TokenCounterXI10TokenRateXI26TokenBucketJiffyParametersIjEEE4sizeERKS3_", scope: !1180, file: !1179, line: 365, type: !1289, scopeLine: 365, flags: DIFlagPublic | DIFlagPrototyped, spFlags: DISPFlagOptimized)
!1289 = !DISubroutineType(types: !1290)
!1290 = !{!1183, !1291, !1293}
!1291 = !DIDerivedType(tag: DW_TAG_pointer_type, baseType: !1292, size: 64, flags: DIFlagArtificial | DIFlagObjectPointer)
!1292 = !DIDerivedType(tag: DW_TAG_const_type, baseType: !1180)
!1293 = !DIDerivedType(tag: DW_TAG_reference_type, baseType: !1294, size: 64)
!1294 = !DIDerivedType(tag: DW_TAG_const_type, baseType: !1295)
!1295 = !DIDerivedType(tag: DW_TAG_typedef, name: "rate_type", scope: !1180, file: !1179, line: 329, baseType: !1185)
!1296 = !DISubprogram(name: "fraction", linkageName: "_ZNK13TokenCounterXI10TokenRateXI26TokenBucketJiffyParametersIjEEE8fractionEv", scope: !1180, file: !1179, line: 373, type: !1297, scopeLine: 373, flags: DIFlagPublic | DIFlagPrototyped, spFlags: DISPFlagOptimized)
!1297 = !DISubroutineType(types: !1298)
!1298 = !{!1183, !1291}
!1299 = !DISubprogram(name: "empty", linkageName: "_ZNK13TokenCounterXI10TokenRateXI26TokenBucketJiffyParametersIjEEE5emptyEv", scope: !1180, file: !1179, line: 378, type: !1300, scopeLine: 378, flags: DIFlagPublic | DIFlagPrototyped, spFlags: DISPFlagOptimized)
!1300 = !DISubroutineType(types: !1301)
!1301 = !{!94, !1291}
!1302 = !DISubprogram(name: "full", linkageName: "_ZNK13TokenCounterXI10TokenRateXI26TokenBucketJiffyParametersIjEEE4fullEv", scope: !1180, file: !1179, line: 383, type: !1300, scopeLine: 383, flags: DIFlagPublic | DIFlagPrototyped, spFlags: DISPFlagOptimized)
!1303 = !DISubprogram(name: "contains", linkageName: "_ZNK13TokenCounterXI10TokenRateXI26TokenBucketJiffyParametersIjEEE8containsERKS3_j", scope: !1180, file: !1179, line: 393, type: !1304, scopeLine: 393, flags: DIFlagPublic | DIFlagPrototyped, spFlags: DISPFlagOptimized)
!1304 = !DISubroutineType(types: !1305)
!1305 = !{!94, !1291, !1293, !1183}
!1306 = !DISubprogram(name: "contains_fraction", linkageName: "_ZNK13TokenCounterXI10TokenRateXI26TokenBucketJiffyParametersIjEEE17contains_fractionEj", scope: !1180, file: !1179, line: 399, type: !1307, scopeLine: 399, flags: DIFlagPublic | DIFlagPrototyped, spFlags: DISPFlagOptimized)
!1307 = !DISubroutineType(types: !1308)
!1308 = !{!94, !1291, !1183}
!1309 = !DISubprogram(name: "clear", linkageName: "_ZN13TokenCounterXI10TokenRateXI26TokenBucketJiffyParametersIjEEE5clearEv", scope: !1180, file: !1179, line: 406, type: !1282, scopeLine: 406, flags: DIFlagPublic | DIFlagPrototyped, spFlags: DISPFlagOptimized)
!1310 = !DISubprogram(name: "set_full", linkageName: "_ZN13TokenCounterXI10TokenRateXI26TokenBucketJiffyParametersIjEEE8set_fullEv", scope: !1180, file: !1179, line: 413, type: !1282, scopeLine: 413, flags: DIFlagPublic | DIFlagPrototyped, spFlags: DISPFlagOptimized)
!1311 = !DISubprogram(name: "set", linkageName: "_ZN13TokenCounterXI10TokenRateXI26TokenBucketJiffyParametersIjEEE3setERKS3_j", scope: !1180, file: !1179, line: 422, type: !1312, scopeLine: 422, flags: DIFlagPublic | DIFlagPrototyped, spFlags: DISPFlagOptimized)
!1312 = !DISubroutineType(types: !1313)
!1313 = !{null, !1284, !1293, !1183}
!1314 = !DISubprogram(name: "set_fraction", linkageName: "_ZN13TokenCounterXI10TokenRateXI26TokenBucketJiffyParametersIjEEE12set_fractionEj", scope: !1180, file: !1179, line: 429, type: !1315, scopeLine: 429, flags: DIFlagPublic | DIFlagPrototyped, spFlags: DISPFlagOptimized)
!1315 = !DISubroutineType(types: !1316)
!1316 = !{null, !1284, !1183}
!1317 = !DISubprogram(name: "adjust", linkageName: "_ZN13TokenCounterXI10TokenRateXI26TokenBucketJiffyParametersIjEEE6adjustERKS3_S6_", scope: !1180, file: !1179, line: 443, type: !1318, scopeLine: 443, flags: DIFlagPublic | DIFlagPrototyped, spFlags: DISPFlagOptimized)
!1318 = !DISubroutineType(types: !1319)
!1319 = !{null, !1284, !1293, !1293}
!1320 = !DISubprogram(name: "refill", linkageName: "_ZN13TokenCounterXI10TokenRateXI26TokenBucketJiffyParametersIjEEE6refillERKS3_", scope: !1180, file: !1179, line: 464, type: !1321, scopeLine: 464, flags: DIFlagPublic | DIFlagPrototyped, spFlags: DISPFlagOptimized)
!1321 = !DISubroutineType(types: !1322)
!1322 = !{null, !1284, !1293}
!1323 = !DISubprogram(name: "refill", linkageName: "_ZN13TokenCounterXI10TokenRateXI26TokenBucketJiffyParametersIjEEE6refillERKS3_j", scope: !1180, file: !1179, line: 469, type: !1324, scopeLine: 469, flags: DIFlagPublic | DIFlagPrototyped, spFlags: DISPFlagOptimized)
!1324 = !DISubroutineType(types: !1325)
!1325 = !{null, !1284, !1293, !1280}
!1326 = !DISubprogram(name: "set_time_point", linkageName: "_ZN13TokenCounterXI10TokenRateXI26TokenBucketJiffyParametersIjEEE14set_time_pointEj", scope: !1180, file: !1179, line: 482, type: !1327, scopeLine: 482, flags: DIFlagPublic | DIFlagPrototyped, spFlags: DISPFlagOptimized)
!1327 = !DISubroutineType(types: !1328)
!1328 = !{null, !1284, !1280}
!1329 = !DISubprogram(name: "remove", linkageName: "_ZN13TokenCounterXI10TokenRateXI26TokenBucketJiffyParametersIjEEE6removeERKS3_j", scope: !1180, file: !1179, line: 492, type: !1312, scopeLine: 492, flags: DIFlagPublic | DIFlagPrototyped, spFlags: DISPFlagOptimized)
!1330 = !DISubprogram(name: "remove_if", linkageName: "_ZN13TokenCounterXI10TokenRateXI26TokenBucketJiffyParametersIjEEE9remove_ifERKS3_j", scope: !1180, file: !1179, line: 505, type: !1331, scopeLine: 505, flags: DIFlagPublic | DIFlagPrototyped, spFlags: DISPFlagOptimized)
!1331 = !DISubroutineType(types: !1332)
!1332 = !{!94, !1284, !1293, !1183}
!1333 = !DISubprogram(name: "remove_fraction", linkageName: "_ZN13TokenCounterXI10TokenRateXI26TokenBucketJiffyParametersIjEEE15remove_fractionEj", scope: !1180, file: !1179, line: 513, type: !1315, scopeLine: 513, flags: DIFlagPublic | DIFlagPrototyped, spFlags: DISPFlagOptimized)
!1334 = !DISubprogram(name: "remove_fraction_if", linkageName: "_ZN13TokenCounterXI10TokenRateXI26TokenBucketJiffyParametersIjEEE18remove_fraction_ifEj", scope: !1180, file: !1179, line: 523, type: !1335, scopeLine: 523, flags: DIFlagPublic | DIFlagPrototyped, spFlags: DISPFlagOptimized)
!1335 = !DISubroutineType(types: !1336)
!1336 = !{!94, !1284, !1183}
!1337 = !DISubprogram(name: "time_until_contains", linkageName: "_ZNK13TokenCounterXI10TokenRateXI26TokenBucketJiffyParametersIjEEE19time_until_containsERKS3_j", scope: !1180, file: !1179, line: 539, type: !1338, scopeLine: 539, flags: DIFlagPublic | DIFlagPrototyped, spFlags: DISPFlagOptimized)
!1338 = !DISubroutineType(types: !1339)
!1339 = !{!1340, !1291, !1293, !1183}
!1340 = !DIDerivedType(tag: DW_TAG_typedef, name: "ticks_type", scope: !1180, file: !1179, line: 338, baseType: !1220)
!1341 = !DISubprogram(name: "time_until_contains_fraction", linkageName: "_ZNK13TokenCounterXI10TokenRateXI26TokenBucketJiffyParametersIjEEE28time_until_contains_fractionERKS3_j", scope: !1180, file: !1179, line: 554, type: !1338, scopeLine: 554, flags: DIFlagPublic | DIFlagPrototyped, spFlags: DISPFlagOptimized)
!1342 = !DISubprogram(name: "epochs_until_contains", linkageName: "_ZNK13TokenCounterXI10TokenRateXI26TokenBucketJiffyParametersIjEEE21epochs_until_containsERKS3_j", scope: !1180, file: !1179, line: 566, type: !1338, scopeLine: 566, flags: DIFlagPublic | DIFlagPrototyped, spFlags: DISPFlagOptimized)
!1343 = !DISubprogram(name: "epochs_until_contains_fraction", linkageName: "_ZNK13TokenCounterXI10TokenRateXI26TokenBucketJiffyParametersIjEEE30epochs_until_contains_fractionERKS3_j", scope: !1180, file: !1179, line: 567, type: !1338, scopeLine: 567, flags: DIFlagPublic | DIFlagPrototyped, spFlags: DISPFlagOptimized)
!1344 = !{!1345}
!1345 = !DITemplateTypeParameter(name: "R", type: !1185)
!1346 = !{!1347}
!1347 = !DIEnumerator(name: "max_tokens", value: 4294967295, isUnsigned: true)
!1348 = !DICompositeType(tag: DW_TAG_enumeration_type, scope: !1185, file: !1179, line: 72, baseType: !26, size: 32, elements: !1346, identifier: "_ZTSN10TokenRateXI26TokenBucketJiffyParametersIjEEUt_E")
!1349 = !{!94, !26, !11, !1183, !1350, !1340}
!1350 = !DISubprogram(name: "click_jiffies", linkageName: "_Z13click_jiffiesv", scope: !136, file: !136, line: 479, type: !1206, flags: DIFlagPrototyped, spFlags: DISPFlagOptimized, retainedNodes: !78)
!1351 = !{!1352, !1408, !1412, !1418, !1422, !1428, !1430, !1435, !1437, !1442, !1446, !1450, !1459, !1463, !1467, !1471, !1475, !1479, !1483, !1487, !1491, !1495, !1503, !1507, !1511, !1513, !1515, !1519, !1523, !1529, !1533, !1537, !1539, !1547, !1551, !1558, !1560, !1564, !1568, !1572, !1576, !1580, !1585, !1590, !1591, !1592, !1593, !1595, !1596, !1597, !1598, !1599, !1600, !1601, !1603, !1604, !1605, !1606, !1607, !1608, !1609, !1614, !1615, !1616, !1617, !1618, !1619, !1620, !1621, !1622, !1623, !1624, !1625, !1626, !1627, !1628, !1629, !1630, !1631, !1632, !1633, !1634, !1635, !1636, !1637, !1638, !1644, !1646, !1648, !1652, !1654, !1656, !1658, !1660, !1662, !1664, !1666, !1671, !1675, !1677, !1679, !1684, !1686, !1688, !1690, !1692, !1694, !1696, !1699, !1701, !1703, !1707, !1711, !1713, !1715, !1717, !1719, !1721, !1723, !1725, !1727, !1729, !1731, !1735, !1739, !1741, !1743, !1745, !1747, !1749, !1751, !1753, !1755, !1757, !1759, !1761, !1763, !1765, !1767, !1769, !1773, !1777, !1781, !1783, !1785, !1787, !1789, !1791, !1793, !1795, !1797, !1799, !1803, !1807, !1811, !1813, !1815, !1817, !1821, !1825, !1829, !1831, !1833, !1835, !1837, !1839, !1841, !1843, !1845, !1847, !1849, !1851, !1853, !1857, !1861, !1865, !1867, !1869, !1871, !1873, !1877, !1881, !1883, !1885, !1887, !1889, !1891, !1893, !1897, !1901, !1903, !1905, !1907, !1909, !1913, !1917, !1921, !1923, !1925, !1927, !1929, !1931, !1933, !1937, !1941, !1945, !1947, !1951, !1955, !1957, !1959, !1961, !1963, !1965, !1967, !1969}
!1352 = !DIImportedEntity(tag: DW_TAG_imported_declaration, scope: !1353, entity: !1354, file: !1355, line: 58)
!1353 = !DINamespace(name: "std", scope: null)
!1354 = distinct !DICompositeType(tag: DW_TAG_class_type, name: "exception_ptr", scope: !1356, file: !1355, line: 80, size: 64, flags: DIFlagTypePassByReference | DIFlagNonTrivial, elements: !1357, identifier: "_ZTSNSt15__exception_ptr13exception_ptrE")
!1355 = !DIFile(filename: "/usr/bin/../lib64/gcc/x86_64-pc-linux-gnu/10.1.0/../../../../include/c++/10.1.0/bits/exception_ptr.h", directory: "")
!1356 = !DINamespace(name: "__exception_ptr", scope: !1353)
!1357 = !{!1358, !1359, !1363, !1366, !1367, !1372, !1373, !1377, !1383, !1387, !1391, !1394, !1395, !1398, !1401}
!1358 = !DIDerivedType(tag: DW_TAG_member, name: "_M_exception_object", scope: !1354, file: !1355, line: 82, baseType: !656, size: 64)
!1359 = !DISubprogram(name: "exception_ptr", scope: !1354, file: !1355, line: 84, type: !1360, scopeLine: 84, flags: DIFlagExplicit | DIFlagPrototyped, spFlags: DISPFlagOptimized)
!1360 = !DISubroutineType(types: !1361)
!1361 = !{null, !1362, !656}
!1362 = !DIDerivedType(tag: DW_TAG_pointer_type, baseType: !1354, size: 64, flags: DIFlagArtificial | DIFlagObjectPointer)
!1363 = !DISubprogram(name: "_M_addref", linkageName: "_ZNSt15__exception_ptr13exception_ptr9_M_addrefEv", scope: !1354, file: !1355, line: 86, type: !1364, scopeLine: 86, flags: DIFlagPrototyped, spFlags: DISPFlagOptimized)
!1364 = !DISubroutineType(types: !1365)
!1365 = !{null, !1362}
!1366 = !DISubprogram(name: "_M_release", linkageName: "_ZNSt15__exception_ptr13exception_ptr10_M_releaseEv", scope: !1354, file: !1355, line: 87, type: !1364, scopeLine: 87, flags: DIFlagPrototyped, spFlags: DISPFlagOptimized)
!1367 = !DISubprogram(name: "_M_get", linkageName: "_ZNKSt15__exception_ptr13exception_ptr6_M_getEv", scope: !1354, file: !1355, line: 89, type: !1368, scopeLine: 89, flags: DIFlagPrototyped, spFlags: DISPFlagOptimized)
!1368 = !DISubroutineType(types: !1369)
!1369 = !{!656, !1370}
!1370 = !DIDerivedType(tag: DW_TAG_pointer_type, baseType: !1371, size: 64, flags: DIFlagArtificial | DIFlagObjectPointer)
!1371 = !DIDerivedType(tag: DW_TAG_const_type, baseType: !1354)
!1372 = !DISubprogram(name: "exception_ptr", scope: !1354, file: !1355, line: 97, type: !1364, scopeLine: 97, flags: DIFlagPublic | DIFlagPrototyped, spFlags: DISPFlagOptimized)
!1373 = !DISubprogram(name: "exception_ptr", scope: !1354, file: !1355, line: 99, type: !1374, scopeLine: 99, flags: DIFlagPublic | DIFlagPrototyped, spFlags: DISPFlagOptimized)
!1374 = !DISubroutineType(types: !1375)
!1375 = !{null, !1362, !1376}
!1376 = !DIDerivedType(tag: DW_TAG_reference_type, baseType: !1371, size: 64)
!1377 = !DISubprogram(name: "exception_ptr", scope: !1354, file: !1355, line: 102, type: !1378, scopeLine: 102, flags: DIFlagPublic | DIFlagPrototyped, spFlags: DISPFlagOptimized)
!1378 = !DISubroutineType(types: !1379)
!1379 = !{null, !1362, !1380}
!1380 = !DIDerivedType(tag: DW_TAG_typedef, name: "nullptr_t", scope: !1353, file: !1381, line: 264, baseType: !1382)
!1381 = !DIFile(filename: "/usr/bin/../lib64/gcc/x86_64-pc-linux-gnu/10.1.0/../../../../include/c++/10.1.0/x86_64-pc-linux-gnu/bits/c++config.h", directory: "")
!1382 = !DIBasicType(tag: DW_TAG_unspecified_type, name: "decltype(nullptr)")
!1383 = !DISubprogram(name: "exception_ptr", scope: !1354, file: !1355, line: 106, type: !1384, scopeLine: 106, flags: DIFlagPublic | DIFlagPrototyped, spFlags: DISPFlagOptimized)
!1384 = !DISubroutineType(types: !1385)
!1385 = !{null, !1362, !1386}
!1386 = !DIDerivedType(tag: DW_TAG_rvalue_reference_type, baseType: !1354, size: 64)
!1387 = !DISubprogram(name: "operator=", linkageName: "_ZNSt15__exception_ptr13exception_ptraSERKS0_", scope: !1354, file: !1355, line: 119, type: !1388, scopeLine: 119, flags: DIFlagPublic | DIFlagPrototyped, spFlags: DISPFlagOptimized)
!1388 = !DISubroutineType(types: !1389)
!1389 = !{!1390, !1362, !1376}
!1390 = !DIDerivedType(tag: DW_TAG_reference_type, baseType: !1354, size: 64)
!1391 = !DISubprogram(name: "operator=", linkageName: "_ZNSt15__exception_ptr13exception_ptraSEOS0_", scope: !1354, file: !1355, line: 123, type: !1392, scopeLine: 123, flags: DIFlagPublic | DIFlagPrototyped, spFlags: DISPFlagOptimized)
!1392 = !DISubroutineType(types: !1393)
!1393 = !{!1390, !1362, !1386}
!1394 = !DISubprogram(name: "~exception_ptr", scope: !1354, file: !1355, line: 130, type: !1364, scopeLine: 130, flags: DIFlagPublic | DIFlagPrototyped, spFlags: DISPFlagOptimized)
!1395 = !DISubprogram(name: "swap", linkageName: "_ZNSt15__exception_ptr13exception_ptr4swapERS0_", scope: !1354, file: !1355, line: 133, type: !1396, scopeLine: 133, flags: DIFlagPublic | DIFlagPrototyped, spFlags: DISPFlagOptimized)
!1396 = !DISubroutineType(types: !1397)
!1397 = !{null, !1362, !1390}
!1398 = !DISubprogram(name: "operator bool", linkageName: "_ZNKSt15__exception_ptr13exception_ptrcvbEv", scope: !1354, file: !1355, line: 145, type: !1399, scopeLine: 145, flags: DIFlagPublic | DIFlagExplicit | DIFlagPrototyped, spFlags: DISPFlagOptimized)
!1399 = !DISubroutineType(types: !1400)
!1400 = !{!94, !1370}
!1401 = !DISubprogram(name: "__cxa_exception_type", linkageName: "_ZNKSt15__exception_ptr13exception_ptr20__cxa_exception_typeEv", scope: !1354, file: !1355, line: 154, type: !1402, scopeLine: 154, flags: DIFlagPublic | DIFlagPrototyped, spFlags: DISPFlagOptimized)
!1402 = !DISubroutineType(types: !1403)
!1403 = !{!1404, !1370}
!1404 = !DIDerivedType(tag: DW_TAG_pointer_type, baseType: !1405, size: 64)
!1405 = !DIDerivedType(tag: DW_TAG_const_type, baseType: !1406)
!1406 = !DICompositeType(tag: DW_TAG_class_type, name: "type_info", scope: !1353, file: !1407, line: 88, flags: DIFlagFwdDecl, identifier: "_ZTSSt9type_info")
!1407 = !DIFile(filename: "/usr/bin/../lib64/gcc/x86_64-pc-linux-gnu/10.1.0/../../../../include/c++/10.1.0/typeinfo", directory: "")
!1408 = !DIImportedEntity(tag: DW_TAG_imported_declaration, scope: !1356, entity: !1409, file: !1355, line: 74)
!1409 = !DISubprogram(name: "rethrow_exception", linkageName: "_ZSt17rethrow_exceptionNSt15__exception_ptr13exception_ptrE", scope: !1353, file: !1355, line: 70, type: !1410, flags: DIFlagPrototyped | DIFlagNoReturn, spFlags: DISPFlagOptimized)
!1410 = !DISubroutineType(types: !1411)
!1411 = !{null, !1354}
!1412 = !DIImportedEntity(tag: DW_TAG_imported_declaration, scope: !1353, entity: !1413, file: !1417, line: 52)
!1413 = !DISubprogram(name: "abs", scope: !1414, file: !1414, line: 840, type: !1415, flags: DIFlagPrototyped, spFlags: DISPFlagOptimized)
!1414 = !DIFile(filename: "/usr/include/stdlib.h", directory: "")
!1415 = !DISubroutineType(types: !1416)
!1416 = !{!30, !30}
!1417 = !DIFile(filename: "/usr/bin/../lib64/gcc/x86_64-pc-linux-gnu/10.1.0/../../../../include/c++/10.1.0/bits/std_abs.h", directory: "")
!1418 = !DIImportedEntity(tag: DW_TAG_imported_declaration, scope: !1353, entity: !1419, file: !1421, line: 127)
!1419 = !DIDerivedType(tag: DW_TAG_typedef, name: "div_t", file: !1414, line: 62, baseType: !1420)
!1420 = !DICompositeType(tag: DW_TAG_structure_type, file: !1414, line: 58, flags: DIFlagFwdDecl, identifier: "_ZTS5div_t")
!1421 = !DIFile(filename: "/usr/bin/../lib64/gcc/x86_64-pc-linux-gnu/10.1.0/../../../../include/c++/10.1.0/cstdlib", directory: "")
!1422 = !DIImportedEntity(tag: DW_TAG_imported_declaration, scope: !1353, entity: !1423, file: !1421, line: 128)
!1423 = !DIDerivedType(tag: DW_TAG_typedef, name: "ldiv_t", file: !1414, line: 70, baseType: !1424)
!1424 = distinct !DICompositeType(tag: DW_TAG_structure_type, file: !1414, line: 66, size: 128, flags: DIFlagTypePassByValue, elements: !1425, identifier: "_ZTS6ldiv_t")
!1425 = !{!1426, !1427}
!1426 = !DIDerivedType(tag: DW_TAG_member, name: "quot", scope: !1424, file: !1414, line: 68, baseType: !15, size: 64)
!1427 = !DIDerivedType(tag: DW_TAG_member, name: "rem", scope: !1424, file: !1414, line: 69, baseType: !15, size: 64, offset: 64)
!1428 = !DIImportedEntity(tag: DW_TAG_imported_declaration, scope: !1353, entity: !1429, file: !1421, line: 130)
!1429 = !DISubprogram(name: "abort", scope: !1414, file: !1414, line: 591, type: !757, flags: DIFlagPrototyped | DIFlagNoReturn, spFlags: DISPFlagOptimized)
!1430 = !DIImportedEntity(tag: DW_TAG_imported_declaration, scope: !1353, entity: !1431, file: !1421, line: 134)
!1431 = !DISubprogram(name: "atexit", scope: !1414, file: !1414, line: 595, type: !1432, flags: DIFlagPrototyped, spFlags: DISPFlagOptimized)
!1432 = !DISubroutineType(types: !1433)
!1433 = !{!30, !1434}
!1434 = !DIDerivedType(tag: DW_TAG_pointer_type, baseType: !757, size: 64)
!1435 = !DIImportedEntity(tag: DW_TAG_imported_declaration, scope: !1353, entity: !1436, file: !1421, line: 137)
!1436 = !DISubprogram(name: "at_quick_exit", scope: !1414, file: !1414, line: 600, type: !1432, flags: DIFlagPrototyped, spFlags: DISPFlagOptimized)
!1437 = !DIImportedEntity(tag: DW_TAG_imported_declaration, scope: !1353, entity: !1438, file: !1421, line: 140)
!1438 = !DISubprogram(name: "atof", scope: !1439, file: !1439, line: 25, type: !1440, flags: DIFlagPrototyped, spFlags: DISPFlagOptimized)
!1439 = !DIFile(filename: "/usr/include/bits/stdlib-float.h", directory: "")
!1440 = !DISubroutineType(types: !1441)
!1441 = !{!41, !197}
!1442 = !DIImportedEntity(tag: DW_TAG_imported_declaration, scope: !1353, entity: !1443, file: !1421, line: 141)
!1443 = !DISubprogram(name: "atoi", scope: !1414, file: !1414, line: 361, type: !1444, flags: DIFlagPrototyped, spFlags: DISPFlagOptimized)
!1444 = !DISubroutineType(types: !1445)
!1445 = !{!30, !197}
!1446 = !DIImportedEntity(tag: DW_TAG_imported_declaration, scope: !1353, entity: !1447, file: !1421, line: 142)
!1447 = !DISubprogram(name: "atol", scope: !1414, file: !1414, line: 366, type: !1448, flags: DIFlagPrototyped, spFlags: DISPFlagOptimized)
!1448 = !DISubroutineType(types: !1449)
!1449 = !{!15, !197}
!1450 = !DIImportedEntity(tag: DW_TAG_imported_declaration, scope: !1353, entity: !1451, file: !1421, line: 143)
!1451 = !DISubprogram(name: "bsearch", scope: !1452, file: !1452, line: 20, type: !1453, flags: DIFlagPrototyped, spFlags: DISPFlagOptimized)
!1452 = !DIFile(filename: "/usr/include/bits/stdlib-bsearch.h", directory: "")
!1453 = !DISubroutineType(types: !1454)
!1454 = !{!656, !745, !745, !654, !654, !1455}
!1455 = !DIDerivedType(tag: DW_TAG_typedef, name: "__compar_fn_t", file: !1414, line: 808, baseType: !1456)
!1456 = !DIDerivedType(tag: DW_TAG_pointer_type, baseType: !1457, size: 64)
!1457 = !DISubroutineType(types: !1458)
!1458 = !{!30, !745, !745}
!1459 = !DIImportedEntity(tag: DW_TAG_imported_declaration, scope: !1353, entity: !1460, file: !1421, line: 144)
!1460 = !DISubprogram(name: "calloc", scope: !1414, file: !1414, line: 542, type: !1461, flags: DIFlagPrototyped, spFlags: DISPFlagOptimized)
!1461 = !DISubroutineType(types: !1462)
!1462 = !{!656, !654, !654}
!1463 = !DIImportedEntity(tag: DW_TAG_imported_declaration, scope: !1353, entity: !1464, file: !1421, line: 145)
!1464 = !DISubprogram(name: "div", scope: !1414, file: !1414, line: 852, type: !1465, flags: DIFlagPrototyped, spFlags: DISPFlagOptimized)
!1465 = !DISubroutineType(types: !1466)
!1466 = !{!1419, !30, !30}
!1467 = !DIImportedEntity(tag: DW_TAG_imported_declaration, scope: !1353, entity: !1468, file: !1421, line: 146)
!1468 = !DISubprogram(name: "exit", scope: !1414, file: !1414, line: 617, type: !1469, flags: DIFlagPrototyped | DIFlagNoReturn, spFlags: DISPFlagOptimized)
!1469 = !DISubroutineType(types: !1470)
!1470 = !{null, !30}
!1471 = !DIImportedEntity(tag: DW_TAG_imported_declaration, scope: !1353, entity: !1472, file: !1421, line: 147)
!1472 = !DISubprogram(name: "free", scope: !1414, file: !1414, line: 565, type: !1473, flags: DIFlagPrototyped, spFlags: DISPFlagOptimized)
!1473 = !DISubroutineType(types: !1474)
!1474 = !{null, !656}
!1475 = !DIImportedEntity(tag: DW_TAG_imported_declaration, scope: !1353, entity: !1476, file: !1421, line: 148)
!1476 = !DISubprogram(name: "getenv", scope: !1414, file: !1414, line: 634, type: !1477, flags: DIFlagPrototyped, spFlags: DISPFlagOptimized)
!1477 = !DISubroutineType(types: !1478)
!1478 = !{!418, !197}
!1479 = !DIImportedEntity(tag: DW_TAG_imported_declaration, scope: !1353, entity: !1480, file: !1421, line: 149)
!1480 = !DISubprogram(name: "labs", scope: !1414, file: !1414, line: 841, type: !1481, flags: DIFlagPrototyped, spFlags: DISPFlagOptimized)
!1481 = !DISubroutineType(types: !1482)
!1482 = !{!15, !15}
!1483 = !DIImportedEntity(tag: DW_TAG_imported_declaration, scope: !1353, entity: !1484, file: !1421, line: 150)
!1484 = !DISubprogram(name: "ldiv", scope: !1414, file: !1414, line: 854, type: !1485, flags: DIFlagPrototyped, spFlags: DISPFlagOptimized)
!1485 = !DISubroutineType(types: !1486)
!1486 = !{!1423, !15, !15}
!1487 = !DIImportedEntity(tag: DW_TAG_imported_declaration, scope: !1353, entity: !1488, file: !1421, line: 151)
!1488 = !DISubprogram(name: "malloc", scope: !1414, file: !1414, line: 539, type: !1489, flags: DIFlagPrototyped, spFlags: DISPFlagOptimized)
!1489 = !DISubroutineType(types: !1490)
!1490 = !{!656, !654}
!1491 = !DIImportedEntity(tag: DW_TAG_imported_declaration, scope: !1353, entity: !1492, file: !1421, line: 153)
!1492 = !DISubprogram(name: "mblen", scope: !1414, file: !1414, line: 922, type: !1493, flags: DIFlagPrototyped, spFlags: DISPFlagOptimized)
!1493 = !DISubroutineType(types: !1494)
!1494 = !{!30, !197, !654}
!1495 = !DIImportedEntity(tag: DW_TAG_imported_declaration, scope: !1353, entity: !1496, file: !1421, line: 154)
!1496 = !DISubprogram(name: "mbstowcs", scope: !1414, file: !1414, line: 933, type: !1497, flags: DIFlagPrototyped, spFlags: DISPFlagOptimized)
!1497 = !DISubroutineType(types: !1498)
!1498 = !{!654, !1499, !1502, !654}
!1499 = !DIDerivedType(tag: DW_TAG_restrict_type, baseType: !1500)
!1500 = !DIDerivedType(tag: DW_TAG_pointer_type, baseType: !1501, size: 64)
!1501 = !DIBasicType(name: "wchar_t", size: 32, encoding: DW_ATE_signed)
!1502 = !DIDerivedType(tag: DW_TAG_restrict_type, baseType: !197)
!1503 = !DIImportedEntity(tag: DW_TAG_imported_declaration, scope: !1353, entity: !1504, file: !1421, line: 155)
!1504 = !DISubprogram(name: "mbtowc", scope: !1414, file: !1414, line: 925, type: !1505, flags: DIFlagPrototyped, spFlags: DISPFlagOptimized)
!1505 = !DISubroutineType(types: !1506)
!1506 = !{!30, !1499, !1502, !654}
!1507 = !DIImportedEntity(tag: DW_TAG_imported_declaration, scope: !1353, entity: !1508, file: !1421, line: 157)
!1508 = !DISubprogram(name: "qsort", scope: !1414, file: !1414, line: 830, type: !1509, flags: DIFlagPrototyped, spFlags: DISPFlagOptimized)
!1509 = !DISubroutineType(types: !1510)
!1510 = !{null, !656, !654, !654, !1455}
!1511 = !DIImportedEntity(tag: DW_TAG_imported_declaration, scope: !1353, entity: !1512, file: !1421, line: 160)
!1512 = !DISubprogram(name: "quick_exit", scope: !1414, file: !1414, line: 623, type: !1469, flags: DIFlagPrototyped | DIFlagNoReturn, spFlags: DISPFlagOptimized)
!1513 = !DIImportedEntity(tag: DW_TAG_imported_declaration, scope: !1353, entity: !1514, file: !1421, line: 163)
!1514 = !DISubprogram(name: "rand", scope: !1414, file: !1414, line: 453, type: !440, flags: DIFlagPrototyped, spFlags: DISPFlagOptimized)
!1515 = !DIImportedEntity(tag: DW_TAG_imported_declaration, scope: !1353, entity: !1516, file: !1421, line: 164)
!1516 = !DISubprogram(name: "realloc", scope: !1414, file: !1414, line: 550, type: !1517, flags: DIFlagPrototyped, spFlags: DISPFlagOptimized)
!1517 = !DISubroutineType(types: !1518)
!1518 = !{!656, !656, !654}
!1519 = !DIImportedEntity(tag: DW_TAG_imported_declaration, scope: !1353, entity: !1520, file: !1421, line: 165)
!1520 = !DISubprogram(name: "srand", scope: !1414, file: !1414, line: 455, type: !1521, flags: DIFlagPrototyped, spFlags: DISPFlagOptimized)
!1521 = !DISubroutineType(types: !1522)
!1522 = !{null, !26}
!1523 = !DIImportedEntity(tag: DW_TAG_imported_declaration, scope: !1353, entity: !1524, file: !1421, line: 166)
!1524 = !DISubprogram(name: "strtod", scope: !1414, file: !1414, line: 117, type: !1525, flags: DIFlagPrototyped, spFlags: DISPFlagOptimized)
!1525 = !DISubroutineType(types: !1526)
!1526 = !{!41, !1502, !1527}
!1527 = !DIDerivedType(tag: DW_TAG_restrict_type, baseType: !1528)
!1528 = !DIDerivedType(tag: DW_TAG_pointer_type, baseType: !418, size: 64)
!1529 = !DIImportedEntity(tag: DW_TAG_imported_declaration, scope: !1353, entity: !1530, file: !1421, line: 167)
!1530 = !DISubprogram(name: "strtol", scope: !1414, file: !1414, line: 176, type: !1531, flags: DIFlagPrototyped, spFlags: DISPFlagOptimized)
!1531 = !DISubroutineType(types: !1532)
!1532 = !{!15, !1502, !1527, !30}
!1533 = !DIImportedEntity(tag: DW_TAG_imported_declaration, scope: !1353, entity: !1534, file: !1421, line: 168)
!1534 = !DISubprogram(name: "strtoul", scope: !1414, file: !1414, line: 180, type: !1535, flags: DIFlagPrototyped, spFlags: DISPFlagOptimized)
!1535 = !DISubroutineType(types: !1536)
!1536 = !{!34, !1502, !1527, !30}
!1537 = !DIImportedEntity(tag: DW_TAG_imported_declaration, scope: !1353, entity: !1538, file: !1421, line: 169)
!1538 = !DISubprogram(name: "system", scope: !1414, file: !1414, line: 784, type: !1444, flags: DIFlagPrototyped, spFlags: DISPFlagOptimized)
!1539 = !DIImportedEntity(tag: DW_TAG_imported_declaration, scope: !1353, entity: !1540, file: !1421, line: 171)
!1540 = !DISubprogram(name: "wcstombs", scope: !1414, file: !1414, line: 936, type: !1541, flags: DIFlagPrototyped, spFlags: DISPFlagOptimized)
!1541 = !DISubroutineType(types: !1542)
!1542 = !{!654, !1543, !1544, !654}
!1543 = !DIDerivedType(tag: DW_TAG_restrict_type, baseType: !418)
!1544 = !DIDerivedType(tag: DW_TAG_restrict_type, baseType: !1545)
!1545 = !DIDerivedType(tag: DW_TAG_pointer_type, baseType: !1546, size: 64)
!1546 = !DIDerivedType(tag: DW_TAG_const_type, baseType: !1501)
!1547 = !DIImportedEntity(tag: DW_TAG_imported_declaration, scope: !1353, entity: !1548, file: !1421, line: 172)
!1548 = !DISubprogram(name: "wctomb", scope: !1414, file: !1414, line: 929, type: !1549, flags: DIFlagPrototyped, spFlags: DISPFlagOptimized)
!1549 = !DISubroutineType(types: !1550)
!1550 = !{!30, !418, !1501}
!1551 = !DIImportedEntity(tag: DW_TAG_imported_declaration, scope: !1552, entity: !1553, file: !1421, line: 200)
!1552 = !DINamespace(name: "__gnu_cxx", scope: null)
!1553 = !DIDerivedType(tag: DW_TAG_typedef, name: "lldiv_t", file: !1414, line: 80, baseType: !1554)
!1554 = distinct !DICompositeType(tag: DW_TAG_structure_type, file: !1414, line: 76, size: 128, flags: DIFlagTypePassByValue, elements: !1555, identifier: "_ZTS7lldiv_t")
!1555 = !{!1556, !1557}
!1556 = !DIDerivedType(tag: DW_TAG_member, name: "quot", scope: !1554, file: !1414, line: 78, baseType: !278, size: 64)
!1557 = !DIDerivedType(tag: DW_TAG_member, name: "rem", scope: !1554, file: !1414, line: 79, baseType: !278, size: 64, offset: 64)
!1558 = !DIImportedEntity(tag: DW_TAG_imported_declaration, scope: !1552, entity: !1559, file: !1421, line: 206)
!1559 = !DISubprogram(name: "_Exit", scope: !1414, file: !1414, line: 629, type: !1469, flags: DIFlagPrototyped | DIFlagNoReturn, spFlags: DISPFlagOptimized)
!1560 = !DIImportedEntity(tag: DW_TAG_imported_declaration, scope: !1552, entity: !1561, file: !1421, line: 210)
!1561 = !DISubprogram(name: "llabs", scope: !1414, file: !1414, line: 844, type: !1562, flags: DIFlagPrototyped, spFlags: DISPFlagOptimized)
!1562 = !DISubroutineType(types: !1563)
!1563 = !{!278, !278}
!1564 = !DIImportedEntity(tag: DW_TAG_imported_declaration, scope: !1552, entity: !1565, file: !1421, line: 216)
!1565 = !DISubprogram(name: "lldiv", scope: !1414, file: !1414, line: 858, type: !1566, flags: DIFlagPrototyped, spFlags: DISPFlagOptimized)
!1566 = !DISubroutineType(types: !1567)
!1567 = !{!1553, !278, !278}
!1568 = !DIImportedEntity(tag: DW_TAG_imported_declaration, scope: !1552, entity: !1569, file: !1421, line: 227)
!1569 = !DISubprogram(name: "atoll", scope: !1414, file: !1414, line: 373, type: !1570, flags: DIFlagPrototyped, spFlags: DISPFlagOptimized)
!1570 = !DISubroutineType(types: !1571)
!1571 = !{!278, !197}
!1572 = !DIImportedEntity(tag: DW_TAG_imported_declaration, scope: !1552, entity: !1573, file: !1421, line: 228)
!1573 = !DISubprogram(name: "strtoll", scope: !1414, file: !1414, line: 200, type: !1574, flags: DIFlagPrototyped, spFlags: DISPFlagOptimized)
!1574 = !DISubroutineType(types: !1575)
!1575 = !{!278, !1502, !1527, !30}
!1576 = !DIImportedEntity(tag: DW_TAG_imported_declaration, scope: !1552, entity: !1577, file: !1421, line: 229)
!1577 = !DISubprogram(name: "strtoull", scope: !1414, file: !1414, line: 205, type: !1578, flags: DIFlagPrototyped, spFlags: DISPFlagOptimized)
!1578 = !DISubroutineType(types: !1579)
!1579 = !{!282, !1502, !1527, !30}
!1580 = !DIImportedEntity(tag: DW_TAG_imported_declaration, scope: !1552, entity: !1581, file: !1421, line: 231)
!1581 = !DISubprogram(name: "strtof", scope: !1414, file: !1414, line: 123, type: !1582, flags: DIFlagPrototyped, spFlags: DISPFlagOptimized)
!1582 = !DISubroutineType(types: !1583)
!1583 = !{!1584, !1502, !1527}
!1584 = !DIBasicType(name: "float", size: 32, encoding: DW_ATE_float)
!1585 = !DIImportedEntity(tag: DW_TAG_imported_declaration, scope: !1552, entity: !1586, file: !1421, line: 232)
!1586 = !DISubprogram(name: "strtold", scope: !1414, file: !1414, line: 126, type: !1587, flags: DIFlagPrototyped, spFlags: DISPFlagOptimized)
!1587 = !DISubroutineType(types: !1588)
!1588 = !{!1589, !1502, !1527}
!1589 = !DIBasicType(name: "long double", size: 128, encoding: DW_ATE_float)
!1590 = !DIImportedEntity(tag: DW_TAG_imported_declaration, scope: !1353, entity: !1553, file: !1421, line: 240)
!1591 = !DIImportedEntity(tag: DW_TAG_imported_declaration, scope: !1353, entity: !1559, file: !1421, line: 242)
!1592 = !DIImportedEntity(tag: DW_TAG_imported_declaration, scope: !1353, entity: !1561, file: !1421, line: 244)
!1593 = !DIImportedEntity(tag: DW_TAG_imported_declaration, scope: !1353, entity: !1594, file: !1421, line: 245)
!1594 = !DISubprogram(name: "div", linkageName: "_ZN9__gnu_cxx3divExx", scope: !1552, file: !1421, line: 213, type: !1566, flags: DIFlagPrototyped, spFlags: DISPFlagOptimized)
!1595 = !DIImportedEntity(tag: DW_TAG_imported_declaration, scope: !1353, entity: !1565, file: !1421, line: 246)
!1596 = !DIImportedEntity(tag: DW_TAG_imported_declaration, scope: !1353, entity: !1569, file: !1421, line: 248)
!1597 = !DIImportedEntity(tag: DW_TAG_imported_declaration, scope: !1353, entity: !1581, file: !1421, line: 249)
!1598 = !DIImportedEntity(tag: DW_TAG_imported_declaration, scope: !1353, entity: !1573, file: !1421, line: 250)
!1599 = !DIImportedEntity(tag: DW_TAG_imported_declaration, scope: !1353, entity: !1577, file: !1421, line: 251)
!1600 = !DIImportedEntity(tag: DW_TAG_imported_declaration, scope: !1353, entity: !1586, file: !1421, line: 252)
!1601 = !DIImportedEntity(tag: DW_TAG_imported_declaration, scope: !0, entity: !1429, file: !1602, line: 38)
!1602 = !DIFile(filename: "/usr/bin/../lib64/gcc/x86_64-pc-linux-gnu/10.1.0/../../../../include/c++/10.1.0/stdlib.h", directory: "")
!1603 = !DIImportedEntity(tag: DW_TAG_imported_declaration, scope: !0, entity: !1431, file: !1602, line: 39)
!1604 = !DIImportedEntity(tag: DW_TAG_imported_declaration, scope: !0, entity: !1468, file: !1602, line: 40)
!1605 = !DIImportedEntity(tag: DW_TAG_imported_declaration, scope: !0, entity: !1436, file: !1602, line: 43)
!1606 = !DIImportedEntity(tag: DW_TAG_imported_declaration, scope: !0, entity: !1512, file: !1602, line: 46)
!1607 = !DIImportedEntity(tag: DW_TAG_imported_declaration, scope: !0, entity: !1419, file: !1602, line: 51)
!1608 = !DIImportedEntity(tag: DW_TAG_imported_declaration, scope: !0, entity: !1423, file: !1602, line: 52)
!1609 = !DIImportedEntity(tag: DW_TAG_imported_declaration, scope: !0, entity: !1610, file: !1602, line: 54)
!1610 = !DISubprogram(name: "abs", linkageName: "_ZSt3absg", scope: !1353, file: !1417, line: 103, type: !1611, flags: DIFlagPrototyped, spFlags: DISPFlagOptimized)
!1611 = !DISubroutineType(types: !1612)
!1612 = !{!1613, !1613}
!1613 = !DIBasicType(name: "__float128", size: 128, encoding: DW_ATE_float)
!1614 = !DIImportedEntity(tag: DW_TAG_imported_declaration, scope: !0, entity: !1438, file: !1602, line: 55)
!1615 = !DIImportedEntity(tag: DW_TAG_imported_declaration, scope: !0, entity: !1443, file: !1602, line: 56)
!1616 = !DIImportedEntity(tag: DW_TAG_imported_declaration, scope: !0, entity: !1447, file: !1602, line: 57)
!1617 = !DIImportedEntity(tag: DW_TAG_imported_declaration, scope: !0, entity: !1451, file: !1602, line: 58)
!1618 = !DIImportedEntity(tag: DW_TAG_imported_declaration, scope: !0, entity: !1460, file: !1602, line: 59)
!1619 = !DIImportedEntity(tag: DW_TAG_imported_declaration, scope: !0, entity: !1594, file: !1602, line: 60)
!1620 = !DIImportedEntity(tag: DW_TAG_imported_declaration, scope: !0, entity: !1472, file: !1602, line: 61)
!1621 = !DIImportedEntity(tag: DW_TAG_imported_declaration, scope: !0, entity: !1476, file: !1602, line: 62)
!1622 = !DIImportedEntity(tag: DW_TAG_imported_declaration, scope: !0, entity: !1480, file: !1602, line: 63)
!1623 = !DIImportedEntity(tag: DW_TAG_imported_declaration, scope: !0, entity: !1484, file: !1602, line: 64)
!1624 = !DIImportedEntity(tag: DW_TAG_imported_declaration, scope: !0, entity: !1488, file: !1602, line: 65)
!1625 = !DIImportedEntity(tag: DW_TAG_imported_declaration, scope: !0, entity: !1492, file: !1602, line: 67)
!1626 = !DIImportedEntity(tag: DW_TAG_imported_declaration, scope: !0, entity: !1496, file: !1602, line: 68)
!1627 = !DIImportedEntity(tag: DW_TAG_imported_declaration, scope: !0, entity: !1504, file: !1602, line: 69)
!1628 = !DIImportedEntity(tag: DW_TAG_imported_declaration, scope: !0, entity: !1508, file: !1602, line: 71)
