; ModuleID = '../elements/standard/bypass.cc'
source_filename = "../elements/standard/bypass.cc"
target datalayout = "e-m:e-p270:32:32-p271:32:32-p272:64:64-i64:64-f80:128-n8:16:32:64-S128"
target triple = "x86_64-pc-linux-gnu"

%class.ArgContext = type <{ %class.Element*, %class.ErrorHandler*, i8*, i8, [7 x i8] }>
%class.Element = type <{ i32 (...)**, [2 x %"class.Element::Port"*], [4 x %"class.Element::Port"], [2 x i32], %class.Router*, i32, [4 x i8] }>
%"class.Element::Port" = type <{ %class.Element*, i32, [4 x i8] }>
%class.Router = type { %class.Master*, %class.atomic_uint32_t, i32, i8, i32, %class.atomic_uint32_t, %class.Vector, %class.Vector.0, %class.Vector.0, %class.Vector.2, %class.Vector.5, %class.Vector.6, i32, %class.Vector.5, [2 x %class.Vector.5], %class.Vector.5, %class.Vector.8, %class.Vector.5, %class.Vector.0, %class.Vector.5, %class.Vector.5, %class.Vector.5, %class.Vector.5, %class.Handler**, i32, i32, %class.Vector.0, %class.Vector.12, %class.Element*, %class.String, %"struct.Router::notifier_signals_t"*, %class.HashMap_ArenaFactory*, %class.Router*, %class.ThreadSched*, %class.NameInfo*, %class.Vector.5, %class.Vector.0, %class.Router* }
%class.Master = type opaque
%class.atomic_uint32_t = type { i32 }
%class.Vector = type { %class.vector_memory }
%class.vector_memory = type { %struct.char_array*, i32, i32 }
%struct.char_array = type { [8 x i8] }
%class.Vector.2 = type { %class.vector_memory.3 }
%class.vector_memory.3 = type { %struct.char_array.4*, i32, i32 }
%struct.char_array.4 = type { [4 x i8] }
%class.Vector.6 = type { %class.vector_memory.7 }
%class.vector_memory.7 = type { %"struct.Router::element_landmark_t"*, i32, i32 }
%"struct.Router::element_landmark_t" = type { i32, %class.String }
%class.Vector.8 = type { %class.vector_memory.9 }
%class.vector_memory.9 = type { %struct.char_array.10*, i32, i32 }
%struct.char_array.10 = type { [16 x i8] }
%class.Handler = type <{ %class.String, %union.anon, %union.anon.11, i8*, i8*, i32, i32, i32, [4 x i8] }>
%union.anon = type { i32 (i32, %class.String*, %class.Element*, %class.Handler*, %class.ErrorHandler*)* }
%union.anon.11 = type { i32 (i32, %class.String*, %class.Element*, %class.Handler*, %class.ErrorHandler*)* }
%class.Vector.12 = type { %class.vector_memory }
%class.String = type { %"struct.String::rep_t" }
%"struct.String::rep_t" = type { i8*, i32, %"struct.String::memo_t"* }
%"struct.String::memo_t" = type { i32, i32, i32, [8 x i8] }
%"struct.Router::notifier_signals_t" = type { %class.String, i32, [128 x %class.atomic_uint32_t], %"struct.Router::notifier_signals_t"* }
%class.HashMap_ArenaFactory = type opaque
%class.ThreadSched = type { i32 (...)** }
%class.NameInfo = type opaque
%class.Vector.5 = type { %class.vector_memory.3 }
%class.Vector.0 = type { %class.vector_memory.1 }
%class.vector_memory.1 = type { %class.String*, i32, i32 }
%class.ErrorHandler = type <{ i32 (...)**, i32, [4 x i8] }>
%class.Bypass = type { %class.Element.base, i8, i8, [2 x i8] }
%class.Element.base = type <{ i32 (...)**, [2 x %"class.Element::Port"*], [4 x %"class.Element::Port"], [2 x i32], %class.Router*, i32 }>
%"struct.Bypass::Locator" = type { %class.RouterVisitor, %class.Element*, i32, i32 }
%class.RouterVisitor = type { i32 (...)** }
%"struct.Bypass::Assigner" = type { %class.RouterVisitor, %class.Element*, i32, %class.Vector.5 }
%class.Args = type { %class.ArgContext.base, i8, i8, i8, %class.Vector.0*, %class.Vector.5, %"struct.Args::Slot"*, [48 x i8] }
%class.ArgContext.base = type <{ %class.Element*, %class.ErrorHandler*, i8*, i8 }>
%"struct.Args::Slot" = type { i32 (...)**, %"struct.Args::Slot"* }
%class.Packet = type { %class.atomic_uint32_t, %class.Packet*, i8*, i8*, i8*, i8*, %"struct.Packet::AllAnno", void (i8*, i64, i8*)*, i8* }
%"struct.Packet::AllAnno" = type { %"union.Packet::Anno", i8*, i8*, i8*, i32, [8 x i8], %class.Packet*, %class.Packet* }
%"union.Packet::Anno" = type { [6 x i64] }
%class.Task = type { %struct.TaskLink.base, i32, i32, %"union.Task::Status", i1 (%class.Task*, i8*)*, i8*, %class.RouterThread*, %class.Element*, %"union.Task::Pending" }
%struct.TaskLink.base = type <{ %struct.TaskLink*, %struct.TaskLink*, i32 }>
%struct.TaskLink = type <{ %struct.TaskLink*, %struct.TaskLink*, i32, [4 x i8] }>
%"union.Task::Status" = type { i32 }
%class.RouterThread = type { %struct.TaskLink, i8, [7 x i8], %class.TimerSet, %class.SelectSet, [32 x i8], %class.Spinlock, %class.atomic_uint32_t, %class.atomic_uint32_t, %"union.Task::Pending", %"union.Task::Pending"*, %class.SpinlockIRQ, [31 x i8], %class.Master*, i32, i8, i32, i32, [40 x i8] }
%class.TimerSet = type <{ %class.Timestamp, i32, i32, i32, [4 x i8], %class.Vector.13, %class.Vector.14, %class.SimpleSpinlock, [7 x i8], %class.Timestamp, i32, [4 x i8] }>
%class.Vector.13 = type { %class.vector_memory.9 }
%class.Vector.14 = type { %class.vector_memory }
%class.SimpleSpinlock = type { i8 }
%class.Timestamp = type { %"union.Timestamp::rep_t" }
%"union.Timestamp::rep_t" = type { i64 }
%class.SelectSet = type { [2 x i32], i8, %class.Vector.15, %class.Vector.16 }
%class.Vector.15 = type { %class.vector_memory }
%class.Vector.16 = type { %class.vector_memory.17 }
%class.vector_memory.17 = type { %struct.char_array.18*, i32, i32 }
%struct.char_array.18 = type opaque
%class.Spinlock = type { i8 }
%class.SpinlockIRQ = type { i8 }
%"union.Task::Pending" = type { %class.Task* }
%class.Timer = type { i32, %class.Timestamp, %union.anon.19, i8*, %class.Element*, %class.RouterThread* }
%union.anon.19 = type { void (%class.Timer*, i8*)* }

$_ZNK7Element6outputEi = comdat any

$_ZNK7Element4Port4pushEP6Packet = comdat any

$_ZNK7Element5inputEi = comdat any

$_ZNK7Element4portEbi = comdat any

$_ZN6Bypass8AssignerD2Ev = comdat any

$_ZN13RouterVisitorD2Ev = comdat any

$_ZN6BypassD0Ev = comdat any

$_ZNK6Bypass10class_nameEv = comdat any

$_ZNK6Bypass10port_countEv = comdat any

$_ZNK6Bypass9flow_codeEv = comdat any

$_ZN6Bypass7LocatorD0Ev = comdat any

$_ZN6Bypass8AssignerD0Ev = comdat any

$__clang_call_terminate = comdat any

$_Z14args_base_readIbEvP4ArgsPKciRT_ = comdat any

$_ZN4Args9base_readIbEEvPKciRT_ = comdat any

$_ZNK6String6lengthEv = comdat any

@_ZTV6Bypass = dso_local unnamed_addr constant { [29 x i8*] } { [29 x i8*] [i8* null, i8* bitcast ({ i8*, i8*, i8* }* @_ZTI6Bypass to i8*), i8* bitcast (void (%class.Element*)* @_ZN7ElementD2Ev to i8*), i8* bitcast (void (%class.Bypass*)* @_ZN6BypassD0Ev to i8*), i8* bitcast (void (%class.Bypass*, i32, %class.Packet*)* @_ZN6Bypass4pushEiP6Packet to i8*), i8* bitcast (%class.Packet* (%class.Bypass*, i32)* @_ZN6Bypass4pullEi to i8*), i8* bitcast (%class.Packet* (%class.Element*, %class.Packet*)* @_ZN7Element13simple_actionEP6Packet to i8*), i8* bitcast (i1 (%class.Element*, %class.Task*)* @_ZN7Element8run_taskEP4Task to i8*), i8* bitcast (void (%class.Element*, %class.Timer*)* @_ZN7Element9run_timerEP5Timer to i8*), i8* bitcast (void (%class.Element*, i32, i32)* @_ZN7Element8selectedEii to i8*), i8* bitcast (void (%class.Element*, i32)* @_ZN7Element8selectedEi to i8*), i8* bitcast (i8* (%class.Bypass*)* @_ZNK6Bypass10class_nameEv to i8*), i8* bitcast (i8* (%class.Bypass*)* @_ZNK6Bypass10port_countEv to i8*), i8* bitcast (i8* (%class.Element*)* @_ZNK7Element10processingEv to i8*), i8* bitcast (i8* (%class.Bypass*)* @_ZNK6Bypass9flow_codeEv to i8*), i8* bitcast (i8* (%class.Element*)* @_ZNK7Element5flagsEv to i8*), i8* bitcast (i8* (%class.Bypass*, i8*)* @_ZN6Bypass4castEPKc to i8*), i8* bitcast (i8* (%class.Element*, i1, i32, i8*)* @_ZN7Element9port_castEbiPKc to i8*), i8* bitcast (i32 (%class.Element*)* @_ZNK7Element15configure_phaseEv to i8*), i8* bitcast (i32 (%class.Bypass*, %class.Vector.0*, %class.ErrorHandler*)* @_ZN6Bypass9configureER6VectorI6StringEP12ErrorHandler to i8*), i8* bitcast (void (%class.Bypass*)* @_ZN6Bypass12add_handlersEv to i8*), i8* bitcast (i32 (%class.Bypass*, %class.ErrorHandler*)* @_ZN6Bypass10initializeEP12ErrorHandler to i8*), i8* bitcast (void (%class.Element*, %class.Element*, %class.ErrorHandler*)* @_ZN7Element10take_stateEPS_P12ErrorHandler to i8*), i8* bitcast (%class.Element* (%class.Element*)* @_ZNK7Element15hotswap_elementEv to i8*), i8* bitcast (void (%class.Element*, i32)* @_ZN7Element7cleanupENS_12CleanupStageE to i8*), i8* bitcast (void (%class.String*, %class.Element*)* @_ZNK7Element11declarationEv to i8*), i8* bitcast (i1 (%class.Element*)* @_ZNK7Element20can_live_reconfigureEv to i8*), i8* bitcast (i32 (%class.Element*, %class.Vector.0*, %class.ErrorHandler*)* @_ZN7Element16live_reconfigureER6VectorI6StringEP12ErrorHandler to i8*), i8* bitcast (i32 (%class.Element*, i32, i8*)* @_ZN7Element5llrpcEjPv to i8*)] }, align 8
@.str = private unnamed_addr constant [7 x i8] c"Bypass\00", align 1
@.str.1 = private unnamed_addr constant [7 x i8] c"ACTIVE\00", align 1
@.str.2 = private unnamed_addr constant [7 x i8] c"INLINE\00", align 1
@_ZTVN6Bypass7LocatorE = dso_local unnamed_addr constant { [5 x i8*] } { [5 x i8*] [i8* null, i8* bitcast ({ i8*, i8*, i8* }* @_ZTIN6Bypass7LocatorE to i8*), i8* bitcast (void (%class.RouterVisitor*)* @_ZN13RouterVisitorD2Ev to i8*), i8* bitcast (void (%"struct.Bypass::Locator"*)* @_ZN6Bypass7LocatorD0Ev to i8*), i8* bitcast (i1 (%"struct.Bypass::Locator"*, %class.Element*, i1, i32, %class.Element*, i32, i32)* @_ZN6Bypass7Locator5visitEP7ElementbiS2_ii to i8*)] }, align 8
@_ZTVN6Bypass8AssignerE = dso_local unnamed_addr constant { [5 x i8*] } { [5 x i8*] [i8* null, i8* bitcast ({ i8*, i8*, i8* }* @_ZTIN6Bypass8AssignerE to i8*), i8* bitcast (void (%"struct.Bypass::Assigner"*)* @_ZN6Bypass8AssignerD2Ev to i8*), i8* bitcast (void (%"struct.Bypass::Assigner"*)* @_ZN6Bypass8AssignerD0Ev to i8*), i8* bitcast (i1 (%"struct.Bypass::Assigner"*, %class.Element*, i1, i32, %class.Element*, i32, i32)* @_ZN6Bypass8Assigner5visitEP7ElementbiS2_ii to i8*)] }, align 8
@blank_args = external global %class.ArgContext, align 8
@.str.3 = private unnamed_addr constant [13 x i8] c"syntax error\00", align 1
@.str.4 = private unnamed_addr constant [7 x i8] c"active\00", align 1
@_ZTVN10__cxxabiv120__si_class_type_infoE = external global i8*
@_ZTS6Bypass = dso_local constant [8 x i8] c"6Bypass\00", align 1
@_ZTI7Element = external constant i8*
@_ZTI6Bypass = dso_local constant { i8*, i8*, i8* } { i8* bitcast (i8** getelementptr inbounds (i8*, i8** @_ZTVN10__cxxabiv120__si_class_type_infoE, i64 2) to i8*), i8* getelementptr inbounds ([8 x i8], [8 x i8]* @_ZTS6Bypass, i32 0, i32 0), i8* bitcast (i8** @_ZTI7Element to i8*) }, align 8
@_ZTSN6Bypass7LocatorE = dso_local constant [18 x i8] c"N6Bypass7LocatorE\00", align 1
@_ZTI13RouterVisitor = external constant i8*
@_ZTIN6Bypass7LocatorE = dso_local constant { i8*, i8*, i8* } { i8* bitcast (i8** getelementptr inbounds (i8*, i8** @_ZTVN10__cxxabiv120__si_class_type_infoE, i64 2) to i8*), i8* getelementptr inbounds ([18 x i8], [18 x i8]* @_ZTSN6Bypass7LocatorE, i32 0, i32 0), i8* bitcast (i8** @_ZTI13RouterVisitor to i8*) }, align 8
@_ZTSN6Bypass8AssignerE = dso_local constant [19 x i8] c"N6Bypass8AssignerE\00", align 1
@_ZTIN6Bypass8AssignerE = dso_local constant { i8*, i8*, i8* } { i8* bitcast (i8** getelementptr inbounds (i8*, i8** @_ZTVN10__cxxabiv120__si_class_type_infoE, i64 2) to i8*), i8* getelementptr inbounds ([19 x i8], [19 x i8]* @_ZTSN6Bypass8AssignerE, i32 0, i32 0), i8* bitcast (i8** @_ZTI13RouterVisitor to i8*) }, align 8
@.str.5 = private unnamed_addr constant [8 x i8] c"_e && p\00", align 1
@.str.6 = private unnamed_addr constant [30 x i8] c"../dummy_inc/click/element.hh\00", align 1
@__PRETTY_FUNCTION__._ZNK7Element4Port4pushEP6Packet = private unnamed_addr constant [41 x i8] c"void Element::Port::push(Packet *) const\00", align 1
@.str.7 = private unnamed_addr constant [3 x i8] c"_e\00", align 1
@__PRETTY_FUNCTION__._ZNK7Element4Port4pullEv = private unnamed_addr constant [36 x i8] c"Packet *Element::Port::pull() const\00", align 1
@.str.8 = private unnamed_addr constant [47 x i8] c"(unsigned) port < (unsigned) _nports[isoutput]\00", align 1
@__PRETTY_FUNCTION__._ZNK7Element4portEbi = private unnamed_addr constant [52 x i8] c"const Element::Port &Element::port(bool, int) const\00", align 1
@.str.9 = private unnamed_addr constant [8 x i8] c"1-2/1-2\00", align 1
@.str.10 = private unnamed_addr constant [9 x i8] c"xy/[xy]x\00", align 1
@.str.11 = private unnamed_addr constant [18 x i8] c"_r.memo->refcount\00", align 1
@.str.12 = private unnamed_addr constant [29 x i8] c"../dummy_inc/click/string.hh\00", align 1
@__PRETTY_FUNCTION__._ZNK6String5derefEv = private unnamed_addr constant [27 x i8] c"void String::deref() const\00", align 1

@_ZN6BypassC1Ev = dso_local unnamed_addr alias void (%class.Bypass*), void (%class.Bypass*)* @_ZN6BypassC2Ev
@_ZN6Bypass7LocatorC1Ei = dso_local unnamed_addr alias void (%"struct.Bypass::Locator"*, i32), void (%"struct.Bypass::Locator"*, i32)* @_ZN6Bypass7LocatorC2Ei
@_ZN6Bypass8AssignerC1EP7Elementi = dso_local unnamed_addr alias void (%"struct.Bypass::Assigner"*, %class.Element*, i32), void (%"struct.Bypass::Assigner"*, %class.Element*, i32)* @_ZN6Bypass8AssignerC2EP7Elementi

; Function Attrs: sspstrong uwtable
define dso_local void @_ZN6BypassC2Ev(%class.Bypass* %0) unnamed_addr #0 align 2 !dbg !2478 {
  call void @llvm.dbg.value(metadata %class.Bypass* %0, metadata !2480, metadata !DIExpression()), !dbg !2481
  %2 = bitcast %class.Bypass* %0 to %class.Element*, !dbg !2482
  tail call void @_ZN7ElementC2Ev(%class.Element* %2), !dbg !2483
  %3 = getelementptr %class.Bypass, %class.Bypass* %0, i64 0, i32 0, i32 0, !dbg !2482
  store i32 (...)** bitcast (i8** getelementptr inbounds ({ [29 x i8*] }, { [29 x i8*] }* @_ZTV6Bypass, i64 0, inrange i32 0, i64 2) to i32 (...)**), i32 (...)*** %3, align 8, !dbg !2482, !tbaa !2484
  %4 = getelementptr inbounds %class.Bypass, %class.Bypass* %0, i64 0, i32 1, !dbg !2487
  store i8 0, i8* %4, align 4, !dbg !2487, !tbaa !2488
  %5 = getelementptr inbounds %class.Bypass, %class.Bypass* %0, i64 0, i32 2, !dbg !2492
  store i8 0, i8* %5, align 1, !dbg !2492, !tbaa !2493
  ret void, !dbg !2494
}

; Function Attrs: nounwind readnone speculatable willreturn
declare void @llvm.dbg.declare(metadata, metadata, metadata) #1

declare void @_ZN7ElementC2Ev(%class.Element*) unnamed_addr #2

; Function Attrs: sspstrong uwtable
define dso_local i8* @_ZN6Bypass4castEPKc(%class.Bypass* %0, i8* %1) unnamed_addr #0 align 2 !dbg !2495 {
  call void @llvm.dbg.value(metadata %class.Bypass* %0, metadata !2497, metadata !DIExpression()), !dbg !2499
  call void @llvm.dbg.value(metadata i8* %1, metadata !2498, metadata !DIExpression()), !dbg !2499
  %3 = tail call i32 @strcmp(i8* nonnull dereferenceable(1) %1, i8* nonnull dereferenceable(7) getelementptr inbounds ([7 x i8], [7 x i8]* @.str, i64 0, i64 0)) #15, !dbg !2500
  %4 = icmp eq i32 %3, 0, !dbg !2502
  br i1 %4, label %5, label %7, !dbg !2503

5:                                                ; preds = %2
  %6 = bitcast %class.Bypass* %0 to i8*, !dbg !2504
  br label %10, !dbg !2505

7:                                                ; preds = %2
  %8 = bitcast %class.Bypass* %0 to %class.Element*, !dbg !2506
  %9 = tail call i8* @_ZN7Element4castEPKc(%class.Element* %8, i8* %1), !dbg !2506
  br label %10, !dbg !2507

10:                                               ; preds = %7, %5
  %11 = phi i8* [ %6, %5 ], [ %9, %7 ], !dbg !2499
  ret i8* %11, !dbg !2508
}

; Function Attrs: nofree nounwind readonly
declare i32 @strcmp(i8* nocapture, i8* nocapture) local_unnamed_addr #3

declare i8* @_ZN7Element4castEPKc(%class.Element*, i8*) unnamed_addr #2

; Function Attrs: sspstrong uwtable
define dso_local i32 @_ZN6Bypass9configureER6VectorI6StringEP12ErrorHandler(%class.Bypass* %0, %class.Vector.0* dereferenceable(16) %1, %class.ErrorHandler* %2) unnamed_addr #0 align 2 personality i8* bitcast (i32 (...)* @__gxx_personality_v0 to i8*) !dbg !2509 {
  %4 = alloca %class.Args, align 8
  call void @llvm.dbg.value(metadata %class.Bypass* %0, metadata !2511, metadata !DIExpression()), !dbg !2514
  call void @llvm.dbg.value(metadata %class.Vector.0* %1, metadata !2512, metadata !DIExpression()), !dbg !2514
  call void @llvm.dbg.value(metadata %class.ErrorHandler* %2, metadata !2513, metadata !DIExpression()), !dbg !2514
  %5 = bitcast %class.Args* %4 to i8*, !dbg !2515
  call void @llvm.lifetime.start.p0i8(i64 112, i8* nonnull %5) #16, !dbg !2515
  %6 = bitcast %class.Bypass* %0 to %class.Element*, !dbg !2517
  call void @_ZN4ArgsC1ERK6VectorI6StringEPK7ElementP12ErrorHandler(%class.Args* nonnull %4, %class.Vector.0* nonnull dereferenceable(16) %1, %class.Element* %6, %class.ErrorHandler* %2), !dbg !2515
  %7 = getelementptr inbounds %class.Bypass, %class.Bypass* %0, i64 0, i32 1, !dbg !2518
  call void @llvm.dbg.value(metadata %class.Args* %4, metadata !2519, metadata !DIExpression()), !dbg !2527
  call void @llvm.dbg.value(metadata i8* getelementptr inbounds ([7 x i8], [7 x i8]* @.str.1, i64 0, i64 0), metadata !2525, metadata !DIExpression()), !dbg !2527
  call void @llvm.dbg.value(metadata i8* %7, metadata !2526, metadata !DIExpression()), !dbg !2527
  call void @llvm.dbg.value(metadata %class.Args* %4, metadata !2529, metadata !DIExpression()), !dbg !2538
  call void @llvm.dbg.value(metadata i8* getelementptr inbounds ([7 x i8], [7 x i8]* @.str.1, i64 0, i64 0), metadata !2535, metadata !DIExpression()), !dbg !2538
  call void @llvm.dbg.value(metadata i32 2, metadata !2536, metadata !DIExpression()), !dbg !2538
  call void @llvm.dbg.value(metadata i8* %7, metadata !2537, metadata !DIExpression()), !dbg !2538
  invoke void @_Z14args_base_readIbEvP4ArgsPKciRT_(%class.Args* nonnull %4, i8* getelementptr inbounds ([7 x i8], [7 x i8]* @.str.1, i64 0, i64 0), i32 2, i8* nonnull dereferenceable(1) %7)
          to label %8 unwind label %14, !dbg !2540

8:                                                ; preds = %3
  %9 = getelementptr inbounds %class.Bypass, %class.Bypass* %0, i64 0, i32 2, !dbg !2541
  call void @llvm.dbg.value(metadata %class.Args* %4, metadata !2542, metadata !DIExpression()), !dbg !2548
  call void @llvm.dbg.value(metadata i8* getelementptr inbounds ([7 x i8], [7 x i8]* @.str.2, i64 0, i64 0), metadata !2546, metadata !DIExpression()), !dbg !2548
  call void @llvm.dbg.value(metadata i8* %9, metadata !2547, metadata !DIExpression()), !dbg !2548
  call void @llvm.dbg.value(metadata %class.Args* %4, metadata !2529, metadata !DIExpression()), !dbg !2550
  call void @llvm.dbg.value(metadata i8* getelementptr inbounds ([7 x i8], [7 x i8]* @.str.2, i64 0, i64 0), metadata !2535, metadata !DIExpression()), !dbg !2550
  call void @llvm.dbg.value(metadata i32 0, metadata !2536, metadata !DIExpression()), !dbg !2550
  call void @llvm.dbg.value(metadata i8* %9, metadata !2537, metadata !DIExpression()), !dbg !2550
  invoke void @_Z14args_base_readIbEvP4ArgsPKciRT_(%class.Args* nonnull %4, i8* getelementptr inbounds ([7 x i8], [7 x i8]* @.str.2, i64 0, i64 0), i32 0, i8* nonnull dereferenceable(1) %9)
          to label %10 unwind label %14, !dbg !2552

10:                                               ; preds = %8
  %11 = invoke i32 @_ZN4Args8completeEv(%class.Args* nonnull %4)
          to label %12 unwind label %14, !dbg !2553

12:                                               ; preds = %10
  call void @_ZN4ArgsD1Ev(%class.Args* nonnull %4) #16, !dbg !2515
  call void @llvm.lifetime.end.p0i8(i64 112, i8* nonnull %5) #16, !dbg !2515
  %13 = ashr i32 %11, 31, !dbg !2514
  ret i32 %13, !dbg !2554

14:                                               ; preds = %8, %3, %10
  %15 = landingpad { i8*, i32 }
          cleanup, !dbg !2555
  call void @_ZN4ArgsD1Ev(%class.Args* nonnull %4) #16, !dbg !2515
  call void @llvm.lifetime.end.p0i8(i64 112, i8* nonnull %5) #16, !dbg !2515
  resume { i8*, i32 } %15, !dbg !2515
}

; Function Attrs: argmemonly nounwind willreturn
declare void @llvm.lifetime.start.p0i8(i64 immarg, i8* nocapture) #4

declare void @_ZN4ArgsC1ERK6VectorI6StringEPK7ElementP12ErrorHandler(%class.Args*, %class.Vector.0* dereferenceable(16), %class.Element*, %class.ErrorHandler*) unnamed_addr #2

declare i32 @__gxx_personality_v0(...)

declare i32 @_ZN4Args8completeEv(%class.Args*) local_unnamed_addr #2

; Function Attrs: nounwind
declare void @_ZN4ArgsD1Ev(%class.Args*) unnamed_addr #5

; Function Attrs: argmemonly nounwind willreturn
declare void @llvm.lifetime.end.p0i8(i64 immarg, i8* nocapture) #4

; Function Attrs: sspstrong uwtable
define dso_local i32 @_ZN6Bypass10initializeEP12ErrorHandler(%class.Bypass* %0, %class.ErrorHandler* nocapture readnone %1) unnamed_addr #0 align 2 !dbg !2556 {
  call void @llvm.dbg.value(metadata %class.Bypass* %0, metadata !2558, metadata !DIExpression()), !dbg !2560
  call void @llvm.dbg.value(metadata %class.ErrorHandler* undef, metadata !2559, metadata !DIExpression()), !dbg !2560
  tail call void @_ZN6Bypass3fixEv(%class.Bypass* %0), !dbg !2561
  ret i32 0, !dbg !2562
}

; Function Attrs: sspstrong uwtable
define dso_local void @_ZN6Bypass3fixEv(%class.Bypass* %0) local_unnamed_addr #0 align 2 personality i8* bitcast (i32 (...)* @__gxx_personality_v0 to i8*) !dbg !2563 {
  %2 = alloca %"struct.Bypass::Locator", align 8
  %3 = alloca %"struct.Bypass::Assigner", align 8
  %4 = alloca %"struct.Bypass::Locator", align 8
  %5 = alloca %"struct.Bypass::Assigner", align 8
  call void @llvm.dbg.value(metadata %class.Bypass* %0, metadata !2565, metadata !DIExpression()), !dbg !2607
  %6 = getelementptr inbounds %class.Bypass, %class.Bypass* %0, i64 0, i32 2, !dbg !2608
  %7 = load i8, i8* %6, align 1, !dbg !2608, !tbaa !2493, !range !2609
  %8 = icmp eq i8 %7, 0, !dbg !2608
  br i1 %8, label %9, label %132, !dbg !2610

9:                                                ; preds = %1
  %10 = bitcast %class.Bypass* %0 to %class.Element*, !dbg !2611
  call void @llvm.dbg.value(metadata %class.Element* %10, metadata !2612, metadata !DIExpression()), !dbg !2620
  call void @llvm.dbg.value(metadata i32 0, metadata !2619, metadata !DIExpression()), !dbg !2620
  call void @llvm.dbg.value(metadata %class.Element* %10, metadata !2622, metadata !DIExpression()), !dbg !2630
  call void @llvm.dbg.value(metadata i1 true, metadata !2628, metadata !DIExpression()), !dbg !2630
  call void @llvm.dbg.value(metadata i32 0, metadata !2629, metadata !DIExpression()), !dbg !2630
  call void @llvm.dbg.value(metadata %class.Element* %10, metadata !2632, metadata !DIExpression()), !dbg !2639
  call void @llvm.dbg.value(metadata i1 true, metadata !2638, metadata !DIExpression()), !dbg !2639
  %11 = getelementptr inbounds %class.Bypass, %class.Bypass* %0, i64 0, i32 0, i32 3, i64 1, !dbg !2641
  %12 = load i32, i32* %11, align 4, !dbg !2641, !tbaa !2642
  %13 = icmp eq i32 %12, 0, !dbg !2644
  br i1 %13, label %20, label %14, !dbg !2645

14:                                               ; preds = %9
  %15 = getelementptr inbounds %class.Bypass, %class.Bypass* %0, i64 0, i32 0, i32 1, i64 1, !dbg !2646
  %16 = load %"class.Element::Port"*, %"class.Element::Port"** %15, align 8, !dbg !2646, !tbaa !2647
  call void @llvm.dbg.value(metadata %"class.Element::Port"* undef, metadata !2649, metadata !DIExpression()), !dbg !2684
  %17 = getelementptr inbounds %"class.Element::Port", %"class.Element::Port"* %16, i64 0, i32 1, !dbg !2686
  %18 = load i32, i32* %17, align 8, !dbg !2686, !tbaa !2687
  %19 = icmp sgt i32 %18, -1, !dbg !2689
  br label %20

20:                                               ; preds = %9, %14
  %21 = phi i1 [ false, %9 ], [ %19, %14 ], !dbg !2630
  call void @llvm.dbg.value(metadata i1 %21, metadata !2566, metadata !DIExpression()), !dbg !2690
  %22 = bitcast %"struct.Bypass::Locator"* %2 to i8*, !dbg !2691
  call void @llvm.lifetime.start.p0i8(i64 24, i8* nonnull %22) #16, !dbg !2691
  call void @llvm.dbg.declare(metadata %"struct.Bypass::Locator"* %2, metadata !2569, metadata !DIExpression()), !dbg !2692
  %23 = getelementptr inbounds %class.Bypass, %class.Bypass* %0, i64 0, i32 1, !dbg !2693
  %24 = load i8, i8* %23, align 4, !dbg !2693, !tbaa !2488, !range !2609
  %25 = zext i8 %24 to i32, !dbg !2693
  call void @llvm.dbg.value(metadata %"struct.Bypass::Locator"* %2, metadata !2694, metadata !DIExpression()), !dbg !2699
  call void @llvm.dbg.value(metadata i32 %25, metadata !2697, metadata !DIExpression()), !dbg !2699
  %26 = getelementptr inbounds %"struct.Bypass::Locator", %"struct.Bypass::Locator"* %2, i64 0, i32 0, i32 0, !dbg !2701
  store i32 (...)** bitcast (i8** getelementptr inbounds ({ [5 x i8*] }, { [5 x i8*] }* @_ZTVN6Bypass7LocatorE, i64 0, inrange i32 0, i64 2) to i32 (...)**), i32 (...)*** %26, align 8, !dbg !2701, !tbaa !2484
  %27 = getelementptr inbounds %"struct.Bypass::Locator", %"struct.Bypass::Locator"* %2, i64 0, i32 1, !dbg !2702
  store %class.Element* null, %class.Element** %27, align 8, !dbg !2702, !tbaa !2703
  %28 = getelementptr inbounds %"struct.Bypass::Locator", %"struct.Bypass::Locator"* %2, i64 0, i32 2, !dbg !2705
  store i32 0, i32* %28, align 8, !dbg !2705, !tbaa !2706
  %29 = getelementptr inbounds %"struct.Bypass::Locator", %"struct.Bypass::Locator"* %2, i64 0, i32 3, !dbg !2707
  store i32 %25, i32* %29, align 4, !dbg !2707, !tbaa !2708
  call void @llvm.dbg.value(metadata %class.Element* %10, metadata !2709, metadata !DIExpression()), !dbg !3858
  %30 = getelementptr inbounds %class.Bypass, %class.Bypass* %0, i64 0, i32 0, i32 4, !dbg !3860
  %31 = load %class.Router*, %class.Router** %30, align 8, !dbg !3860, !tbaa !3861
  %32 = getelementptr inbounds %"struct.Bypass::Locator", %"struct.Bypass::Locator"* %2, i64 0, i32 0, !dbg !3863
  %33 = invoke i32 @_ZNK6Router5visitEP7ElementbiP13RouterVisitor(%class.Router* %31, %class.Element* %10, i1 zeroext %21, i32 %25, %class.RouterVisitor* nonnull %32)
          to label %34 unwind label %58, !dbg !3864

34:                                               ; preds = %20
  %35 = load %class.Element*, %class.Element** %27, align 8, !dbg !3865, !tbaa !2703
  %36 = icmp eq %class.Element* %35, null, !dbg !3866
  br i1 %36, label %71, label %37, !dbg !3867

37:                                               ; preds = %34
  %38 = bitcast %"struct.Bypass::Assigner"* %3 to i8*, !dbg !3868
  call void @llvm.lifetime.start.p0i8(i64 40, i8* nonnull %38) #16, !dbg !3868
  call void @llvm.dbg.declare(metadata %"struct.Bypass::Assigner"* %3, metadata !2585, metadata !DIExpression()), !dbg !3869
  %39 = load i32, i32* %28, align 8, !dbg !3870, !tbaa !2706
  call void @llvm.dbg.value(metadata %"struct.Bypass::Assigner"* %3, metadata !3871, metadata !DIExpression()), !dbg !3877
  call void @llvm.dbg.value(metadata %class.Element* %35, metadata !3874, metadata !DIExpression()), !dbg !3877
  call void @llvm.dbg.value(metadata i32 %39, metadata !3875, metadata !DIExpression()), !dbg !3877
  %40 = getelementptr inbounds %"struct.Bypass::Assigner", %"struct.Bypass::Assigner"* %3, i64 0, i32 0, i32 0, !dbg !3879
  store i32 (...)** bitcast (i8** getelementptr inbounds ({ [5 x i8*] }, { [5 x i8*] }* @_ZTVN6Bypass8AssignerE, i64 0, inrange i32 0, i64 2) to i32 (...)**), i32 (...)*** %40, align 8, !dbg !3879, !tbaa !2484
  %41 = getelementptr inbounds %"struct.Bypass::Assigner", %"struct.Bypass::Assigner"* %3, i64 0, i32 1, !dbg !3880
  store %class.Element* %35, %class.Element** %41, align 8, !dbg !3880, !tbaa !3881
  %42 = getelementptr inbounds %"struct.Bypass::Assigner", %"struct.Bypass::Assigner"* %3, i64 0, i32 2, !dbg !3885
  store i32 %39, i32* %42, align 8, !dbg !3885, !tbaa !3886
  %43 = getelementptr inbounds %"struct.Bypass::Assigner", %"struct.Bypass::Assigner"* %3, i64 0, i32 3, !dbg !3887
  call void @llvm.dbg.value(metadata %class.Vector.5* %43, metadata !3888, metadata !DIExpression()), !dbg !3892
  call void @llvm.dbg.value(metadata %class.Vector.5* %43, metadata !3894, metadata !DIExpression()) #16, !dbg !3898
  %44 = bitcast %class.Vector.5* %43 to i8*, !dbg !3900
  call void @llvm.memset.p0i8.i64(i8* nonnull align 8 dereferenceable(16) %44, i8 0, i64 16, i1 false) #16, !dbg !3901
  call void @llvm.dbg.value(metadata %class.Element* %10, metadata !2709, metadata !DIExpression()), !dbg !3902
  %45 = load %class.Router*, %class.Router** %30, align 8, !dbg !3904, !tbaa !3861
  %46 = xor i1 %21, true, !dbg !3905
  %47 = load i8, i8* %23, align 4, !dbg !3906, !tbaa !2488, !range !2609
  %48 = add nsw i8 %47, -1, !dbg !3906
  %49 = sext i8 %48 to i32, !dbg !3906
  %50 = getelementptr inbounds %"struct.Bypass::Assigner", %"struct.Bypass::Assigner"* %3, i64 0, i32 0, !dbg !3907
  %51 = invoke i32 @_ZNK6Router5visitEP7ElementbiP13RouterVisitor(%class.Router* %45, %class.Element* nonnull %10, i1 zeroext %46, i32 %49, %class.RouterVisitor* nonnull %50)
          to label %52 unwind label %62, !dbg !3908

52:                                               ; preds = %37
  call void @llvm.dbg.value(metadata %"struct.Bypass::Assigner"* %3, metadata !3909, metadata !DIExpression()) #16, !dbg !3915
  store i32 (...)** bitcast (i8** getelementptr inbounds ({ [5 x i8*] }, { [5 x i8*] }* @_ZTVN6Bypass8AssignerE, i64 0, inrange i32 0, i64 2) to i32 (...)**), i32 (...)*** %40, align 8, !dbg !3917, !tbaa !2484
  call void @llvm.dbg.value(metadata %class.Vector.5* %43, metadata !3918, metadata !DIExpression()) #16, !dbg !3922
  call void @llvm.dbg.value(metadata %class.Vector.5* %43, metadata !3925, metadata !DIExpression()) #16, !dbg !3929
  %53 = bitcast %class.Vector.5* %43 to i8**, !dbg !3932
  %54 = load i8*, i8** %53, align 8, !dbg !3934, !tbaa !3935
  %55 = icmp eq i8* %54, null, !dbg !3934
  br i1 %55, label %57, label %56, !dbg !3934

56:                                               ; preds = %52
  call void @_ZdaPv(i8* nonnull %54) #17, !dbg !3934
  br label %57, !dbg !3934

57:                                               ; preds = %52, %56
  call void @llvm.lifetime.end.p0i8(i64 40, i8* nonnull %38) #16, !dbg !3936
  br label %71, !dbg !3937

58:                                               ; preds = %20
  %59 = landingpad { i8*, i32 }
          cleanup, !dbg !3938
  %60 = extractvalue { i8*, i32 } %59, 0, !dbg !3938
  %61 = extractvalue { i8*, i32 } %59, 1, !dbg !3938
  br label %127, !dbg !3938

62:                                               ; preds = %37
  %63 = landingpad { i8*, i32 }
          cleanup, !dbg !3939
  %64 = extractvalue { i8*, i32 } %63, 0, !dbg !3939
  %65 = extractvalue { i8*, i32 } %63, 1, !dbg !3939
  call void @llvm.dbg.value(metadata %"struct.Bypass::Assigner"* %3, metadata !3909, metadata !DIExpression()) #16, !dbg !3940
  store i32 (...)** bitcast (i8** getelementptr inbounds ({ [5 x i8*] }, { [5 x i8*] }* @_ZTVN6Bypass8AssignerE, i64 0, inrange i32 0, i64 2) to i32 (...)**), i32 (...)*** %40, align 8, !dbg !3942, !tbaa !2484
  call void @llvm.dbg.value(metadata %class.Vector.5* %43, metadata !3918, metadata !DIExpression()) #16, !dbg !3943
  call void @llvm.dbg.value(metadata %class.Vector.5* %43, metadata !3925, metadata !DIExpression()) #16, !dbg !3945
  %66 = bitcast %class.Vector.5* %43 to i8**, !dbg !3947
  %67 = load i8*, i8** %66, align 8, !dbg !3948, !tbaa !3935
  %68 = icmp eq i8* %67, null, !dbg !3948
  br i1 %68, label %70, label %69, !dbg !3948

69:                                               ; preds = %62
  call void @_ZdaPv(i8* nonnull %67) #17, !dbg !3948
  br label %70, !dbg !3948

70:                                               ; preds = %69, %62
  call void @llvm.lifetime.end.p0i8(i64 40, i8* nonnull %38) #16, !dbg !3936
  br label %127, !dbg !3936

71:                                               ; preds = %34, %57
  %72 = load i8, i8* %23, align 4, !dbg !3949, !tbaa !2488, !range !2609
  %73 = icmp eq i8 %72, 0, !dbg !3949
  br i1 %73, label %126, label %74, !dbg !3950

74:                                               ; preds = %71
  %75 = xor i1 %21, true, !dbg !3951
  call void @llvm.dbg.value(metadata %class.Element* %10, metadata !2632, metadata !DIExpression()), !dbg !3952
  call void @llvm.dbg.value(metadata i1 %75, metadata !2638, metadata !DIExpression()), !dbg !3952
  %76 = zext i1 %75 to i64, !dbg !3954
  %77 = getelementptr inbounds %class.Element, %class.Element* %10, i64 0, i32 3, i64 %76, !dbg !3954
  %78 = load i32, i32* %77, align 4, !dbg !3954, !tbaa !2642
  %79 = icmp sgt i32 %78, 1, !dbg !3955
  br i1 %79, label %80, label %126, !dbg !3956

80:                                               ; preds = %74
  %81 = bitcast %"struct.Bypass::Locator"* %4 to i8*, !dbg !3957
  call void @llvm.lifetime.start.p0i8(i64 24, i8* nonnull %81) #16, !dbg !3957
  call void @llvm.dbg.declare(metadata %"struct.Bypass::Locator"* %4, metadata !2601, metadata !DIExpression()), !dbg !3958
  call void @llvm.dbg.value(metadata %"struct.Bypass::Locator"* %4, metadata !2694, metadata !DIExpression()), !dbg !3959
  call void @llvm.dbg.value(metadata i32 0, metadata !2697, metadata !DIExpression()), !dbg !3959
  %82 = getelementptr inbounds %"struct.Bypass::Locator", %"struct.Bypass::Locator"* %4, i64 0, i32 0, i32 0, !dbg !3961
  store i32 (...)** bitcast (i8** getelementptr inbounds ({ [5 x i8*] }, { [5 x i8*] }* @_ZTVN6Bypass7LocatorE, i64 0, inrange i32 0, i64 2) to i32 (...)**), i32 (...)*** %82, align 8, !dbg !3961, !tbaa !2484
  %83 = getelementptr inbounds %"struct.Bypass::Locator", %"struct.Bypass::Locator"* %4, i64 0, i32 1, !dbg !3962
  %84 = getelementptr inbounds %"struct.Bypass::Locator", %"struct.Bypass::Locator"* %4, i64 0, i32 2, !dbg !3963
  call void @llvm.dbg.value(metadata %class.Element* %10, metadata !2709, metadata !DIExpression()), !dbg !3964
  %85 = bitcast %class.Element** %83 to i8*, !dbg !3966
  call void @llvm.memset.p0i8.i64(i8* nonnull align 8 dereferenceable(16) %85, i8 0, i64 16, i1 false), !dbg !3963
  %86 = load %class.Router*, %class.Router** %30, align 8, !dbg !3966, !tbaa !3861
  %87 = getelementptr inbounds %"struct.Bypass::Locator", %"struct.Bypass::Locator"* %4, i64 0, i32 0, !dbg !3967
  %88 = invoke i32 @_ZNK6Router5visitEP7ElementbiP13RouterVisitor(%class.Router* %86, %class.Element* nonnull %10, i1 zeroext %21, i32 0, %class.RouterVisitor* nonnull %87)
          to label %89 unwind label %109, !dbg !3968

89:                                               ; preds = %80
  %90 = load %class.Element*, %class.Element** %83, align 8, !dbg !3969, !tbaa !2703
  %91 = icmp eq %class.Element* %90, null, !dbg !3970
  br i1 %91, label %122, label %92, !dbg !3971

92:                                               ; preds = %89
  %93 = bitcast %"struct.Bypass::Assigner"* %5 to i8*, !dbg !3972
  call void @llvm.lifetime.start.p0i8(i64 40, i8* nonnull %93) #16, !dbg !3972
  call void @llvm.dbg.declare(metadata %"struct.Bypass::Assigner"* %5, metadata !2604, metadata !DIExpression()), !dbg !3973
  %94 = load i32, i32* %84, align 8, !dbg !3974, !tbaa !2706
  call void @llvm.dbg.value(metadata %"struct.Bypass::Assigner"* %5, metadata !3871, metadata !DIExpression()), !dbg !3975
  call void @llvm.dbg.value(metadata %class.Element* %90, metadata !3874, metadata !DIExpression()), !dbg !3975
  call void @llvm.dbg.value(metadata i32 %94, metadata !3875, metadata !DIExpression()), !dbg !3975
  %95 = getelementptr inbounds %"struct.Bypass::Assigner", %"struct.Bypass::Assigner"* %5, i64 0, i32 0, i32 0, !dbg !3977
  store i32 (...)** bitcast (i8** getelementptr inbounds ({ [5 x i8*] }, { [5 x i8*] }* @_ZTVN6Bypass8AssignerE, i64 0, inrange i32 0, i64 2) to i32 (...)**), i32 (...)*** %95, align 8, !dbg !3977, !tbaa !2484
  %96 = getelementptr inbounds %"struct.Bypass::Assigner", %"struct.Bypass::Assigner"* %5, i64 0, i32 1, !dbg !3978
  store %class.Element* %90, %class.Element** %96, align 8, !dbg !3978, !tbaa !3881
  %97 = getelementptr inbounds %"struct.Bypass::Assigner", %"struct.Bypass::Assigner"* %5, i64 0, i32 2, !dbg !3979
  store i32 %94, i32* %97, align 8, !dbg !3979, !tbaa !3886
  %98 = getelementptr inbounds %"struct.Bypass::Assigner", %"struct.Bypass::Assigner"* %5, i64 0, i32 3, !dbg !3980
  call void @llvm.dbg.value(metadata %class.Vector.5* %98, metadata !3888, metadata !DIExpression()), !dbg !3981
  call void @llvm.dbg.value(metadata %class.Vector.5* %98, metadata !3894, metadata !DIExpression()) #16, !dbg !3983
  %99 = bitcast %class.Vector.5* %98 to i8*, !dbg !3985
  call void @llvm.memset.p0i8.i64(i8* nonnull align 8 dereferenceable(16) %99, i8 0, i64 16, i1 false) #16, !dbg !3986
  call void @llvm.dbg.value(metadata %class.Element* %10, metadata !2709, metadata !DIExpression()), !dbg !3987
  %100 = load %class.Router*, %class.Router** %30, align 8, !dbg !3989, !tbaa !3861
  %101 = getelementptr inbounds %"struct.Bypass::Assigner", %"struct.Bypass::Assigner"* %5, i64 0, i32 0, !dbg !3990
  %102 = invoke i32 @_ZNK6Router5visitEP7ElementbiP13RouterVisitor(%class.Router* %100, %class.Element* nonnull %10, i1 zeroext %75, i32 1, %class.RouterVisitor* nonnull %101)
          to label %103 unwind label %113, !dbg !3991

103:                                              ; preds = %92
  call void @llvm.dbg.value(metadata %"struct.Bypass::Assigner"* %5, metadata !3909, metadata !DIExpression()) #16, !dbg !3992
  store i32 (...)** bitcast (i8** getelementptr inbounds ({ [5 x i8*] }, { [5 x i8*] }* @_ZTVN6Bypass8AssignerE, i64 0, inrange i32 0, i64 2) to i32 (...)**), i32 (...)*** %95, align 8, !dbg !3994, !tbaa !2484
  call void @llvm.dbg.value(metadata %class.Vector.5* %98, metadata !3918, metadata !DIExpression()) #16, !dbg !3995
  call void @llvm.dbg.value(metadata %class.Vector.5* %98, metadata !3925, metadata !DIExpression()) #16, !dbg !3997
  %104 = bitcast %class.Vector.5* %98 to i8**, !dbg !3999
  %105 = load i8*, i8** %104, align 8, !dbg !4000, !tbaa !3935
  %106 = icmp eq i8* %105, null, !dbg !4000
  br i1 %106, label %108, label %107, !dbg !4000

107:                                              ; preds = %103
  call void @_ZdaPv(i8* nonnull %105) #17, !dbg !4000
  br label %108, !dbg !4000

108:                                              ; preds = %103, %107
  call void @llvm.lifetime.end.p0i8(i64 40, i8* nonnull %93) #16, !dbg !4001
  br label %122, !dbg !4002

109:                                              ; preds = %80
  %110 = landingpad { i8*, i32 }
          cleanup, !dbg !4003
  %111 = extractvalue { i8*, i32 } %110, 0, !dbg !4003
  %112 = extractvalue { i8*, i32 } %110, 1, !dbg !4003
  br label %123, !dbg !4003

113:                                              ; preds = %92
  %114 = landingpad { i8*, i32 }
          cleanup, !dbg !4004
  %115 = extractvalue { i8*, i32 } %114, 0, !dbg !4004
  %116 = extractvalue { i8*, i32 } %114, 1, !dbg !4004
  call void @llvm.dbg.value(metadata %"struct.Bypass::Assigner"* %5, metadata !3909, metadata !DIExpression()) #16, !dbg !4005
  store i32 (...)** bitcast (i8** getelementptr inbounds ({ [5 x i8*] }, { [5 x i8*] }* @_ZTVN6Bypass8AssignerE, i64 0, inrange i32 0, i64 2) to i32 (...)**), i32 (...)*** %95, align 8, !dbg !4007, !tbaa !2484
  call void @llvm.dbg.value(metadata %class.Vector.5* %98, metadata !3918, metadata !DIExpression()) #16, !dbg !4008
  call void @llvm.dbg.value(metadata %class.Vector.5* %98, metadata !3925, metadata !DIExpression()) #16, !dbg !4010
  %117 = bitcast %class.Vector.5* %98 to i8**, !dbg !4012
  %118 = load i8*, i8** %117, align 8, !dbg !4013, !tbaa !3935
  %119 = icmp eq i8* %118, null, !dbg !4013
  br i1 %119, label %121, label %120, !dbg !4013

120:                                              ; preds = %113
  call void @_ZdaPv(i8* nonnull %118) #17, !dbg !4013
  br label %121, !dbg !4013

121:                                              ; preds = %120, %113
  call void @llvm.lifetime.end.p0i8(i64 40, i8* nonnull %93) #16, !dbg !4001
  br label %123, !dbg !4001

122:                                              ; preds = %89, %108
  call void @llvm.lifetime.end.p0i8(i64 24, i8* nonnull %81) #16, !dbg !4014
  br label %126, !dbg !4015

123:                                              ; preds = %109, %121
  %124 = phi i8* [ %115, %121 ], [ %111, %109 ], !dbg !4016
  %125 = phi i32 [ %116, %121 ], [ %112, %109 ], !dbg !4016
  call void @llvm.lifetime.end.p0i8(i64 24, i8* nonnull %81) #16, !dbg !4014
  br label %127, !dbg !4014

126:                                              ; preds = %71, %122, %74
  call void @llvm.lifetime.end.p0i8(i64 24, i8* nonnull %22) #16, !dbg !4017
  br label %132, !dbg !4018

127:                                              ; preds = %123, %70, %58
  %128 = phi i8* [ %124, %123 ], [ %64, %70 ], [ %60, %58 ], !dbg !2690
  %129 = phi i32 [ %125, %123 ], [ %65, %70 ], [ %61, %58 ], !dbg !2690
  call void @llvm.lifetime.end.p0i8(i64 24, i8* nonnull %22) #16, !dbg !4017
  %130 = insertvalue { i8*, i32 } undef, i8* %128, 0, !dbg !4017
  %131 = insertvalue { i8*, i32 } %130, i32 %129, 1, !dbg !4017
  resume { i8*, i32 } %131, !dbg !4017

132:                                              ; preds = %1, %126
  ret void, !dbg !4019
}

; Function Attrs: sspstrong uwtable
define dso_local void @_ZN6Bypass4pushEiP6Packet(%class.Bypass* %0, i32 %1, %class.Packet* %2) unnamed_addr #0 align 2 !dbg !4020 {
  call void @llvm.dbg.value(metadata %class.Bypass* %0, metadata !4022, metadata !DIExpression()), !dbg !4025
  call void @llvm.dbg.value(metadata i32 %1, metadata !4023, metadata !DIExpression()), !dbg !4025
  call void @llvm.dbg.value(metadata %class.Packet* %2, metadata !4024, metadata !DIExpression()), !dbg !4025
  %4 = bitcast %class.Bypass* %0 to %class.Element*, !dbg !4026
  %5 = getelementptr inbounds %class.Bypass, %class.Bypass* %0, i64 0, i32 1, !dbg !4027
  %6 = load i8, i8* %5, align 4, !dbg !4027, !tbaa !2488, !range !2609
  %7 = icmp eq i8 %6, 0, !dbg !4027
  %8 = icmp ne i32 %1, 0, !dbg !4028
  %9 = or i1 %8, %7, !dbg !4029
  br i1 %9, label %15, label %10, !dbg !4029

10:                                               ; preds = %3
  call void @llvm.dbg.value(metadata %class.Element* %4, metadata !4030, metadata !DIExpression()), !dbg !4036
  %11 = getelementptr inbounds %class.Bypass, %class.Bypass* %0, i64 0, i32 0, i32 3, i64 1, !dbg !4038
  %12 = load i32, i32* %11, align 4, !dbg !4038, !tbaa !2642
  %13 = icmp sgt i32 %12, 1, !dbg !4039
  %14 = zext i1 %13 to i32
  br label %15

15:                                               ; preds = %3, %10
  %16 = phi i32 [ 0, %3 ], [ %14, %10 ]
  %17 = tail call dereferenceable(16) %"class.Element::Port"* @_ZNK7Element6outputEi(%class.Element* %4, i32 %16), !dbg !4026
  tail call void @_ZNK7Element4Port4pushEP6Packet(%"class.Element::Port"* nonnull %17, %class.Packet* %2), !dbg !4040
  ret void, !dbg !4041
}

; Function Attrs: noinline optnone sspstrong uwtable
define linkonce_odr dso_local dereferenceable(16) %"class.Element::Port"* @_ZNK7Element6outputEi(%class.Element* %0, i32 %1) local_unnamed_addr #6 comdat align 2 !dbg !4042 {
  %3 = alloca %class.Element*, align 8
  %4 = alloca i32, align 4
  store %class.Element* %0, %class.Element** %3, align 8, !tbaa !2647
  call void @llvm.dbg.declare(metadata %class.Element** %3, metadata !4048, metadata !DIExpression()), !dbg !4050
  store i32 %1, i32* %4, align 4, !tbaa !2642
  call void @llvm.dbg.declare(metadata i32* %4, metadata !4049, metadata !DIExpression()), !dbg !4051
  %5 = load %class.Element*, %class.Element** %3, align 8
  %6 = load i32, i32* %4, align 4, !dbg !4052, !tbaa !2642
  %7 = call dereferenceable(16) %"class.Element::Port"* @_ZNK7Element4portEbi(%class.Element* %5, i1 zeroext true, i32 %6), !dbg !4053
  ret %"class.Element::Port"* %7, !dbg !4054
}

; Function Attrs: noinline optnone sspstrong uwtable
define linkonce_odr dso_local void @_ZNK7Element4Port4pushEP6Packet(%"class.Element::Port"* %0, %class.Packet* %1) local_unnamed_addr #6 comdat align 2 !dbg !4055 {
  %3 = alloca %"class.Element::Port"*, align 8
  %4 = alloca %class.Packet*, align 8
  store %"class.Element::Port"* %0, %"class.Element::Port"** %3, align 8, !tbaa !2647
  call void @llvm.dbg.declare(metadata %"class.Element::Port"** %3, metadata !4057, metadata !DIExpression()), !dbg !4059
  store %class.Packet* %1, %class.Packet** %4, align 8, !tbaa !2647
  call void @llvm.dbg.declare(metadata %class.Packet** %4, metadata !4058, metadata !DIExpression()), !dbg !4060
  %5 = load %"class.Element::Port"*, %"class.Element::Port"** %3, align 8
  %6 = getelementptr inbounds %"class.Element::Port", %"class.Element::Port"* %5, i32 0, i32 0, !dbg !4061
  %7 = load %class.Element*, %class.Element** %6, align 8, !dbg !4061, !tbaa !4062
  %8 = icmp ne %class.Element* %7, null, !dbg !4061
  br i1 %8, label %9, label %12, !dbg !4061

9:                                                ; preds = %2
  %10 = load %class.Packet*, %class.Packet** %4, align 8, !dbg !4061, !tbaa !2647
  %11 = icmp ne %class.Packet* %10, null, !dbg !4061
  br label %12

12:                                               ; preds = %9, %2
  %13 = phi i1 [ false, %2 ], [ %11, %9 ], !dbg !4059
  br i1 %13, label %14, label %15, !dbg !4061

14:                                               ; preds = %12
  br label %16, !dbg !4061

15:                                               ; preds = %12
  call void @__assert_fail(i8* getelementptr inbounds ([8 x i8], [8 x i8]* @.str.5, i64 0, i64 0), i8* getelementptr inbounds ([30 x i8], [30 x i8]* @.str.6, i64 0, i64 0), i32 611, i8* getelementptr inbounds ([41 x i8], [41 x i8]* @__PRETTY_FUNCTION__._ZNK7Element4Port4pushEP6Packet, i64 0, i64 0)) #18, !dbg !4061
  unreachable, !dbg !4061

16:                                               ; preds = %14
  %17 = getelementptr inbounds %"class.Element::Port", %"class.Element::Port"* %5, i32 0, i32 0, !dbg !4063
  %18 = load %class.Element*, %class.Element** %17, align 8, !dbg !4063, !tbaa !4062
  %19 = getelementptr inbounds %"class.Element::Port", %"class.Element::Port"* %5, i32 0, i32 1, !dbg !4064
  %20 = load i32, i32* %19, align 8, !dbg !4064, !tbaa !2687
  %21 = load %class.Packet*, %class.Packet** %4, align 8, !dbg !4065, !tbaa !2647
  %22 = bitcast %class.Element* %18 to void (%class.Element*, i32, %class.Packet*)***, !dbg !4066
  %23 = load void (%class.Element*, i32, %class.Packet*)**, void (%class.Element*, i32, %class.Packet*)*** %22, align 8, !dbg !4066, !tbaa !2484
  %24 = getelementptr inbounds void (%class.Element*, i32, %class.Packet*)*, void (%class.Element*, i32, %class.Packet*)** %23, i64 2, !dbg !4066
  %25 = load void (%class.Element*, i32, %class.Packet*)*, void (%class.Element*, i32, %class.Packet*)** %24, align 8, !dbg !4066
  call void %25(%class.Element* %18, i32 %20, %class.Packet* %21), !dbg !4066
  ret void, !dbg !4067
}

; Function Attrs: sspstrong uwtable
define dso_local %class.Packet* @_ZN6Bypass4pullEi(%class.Bypass* %0, i32 %1) unnamed_addr #0 align 2 !dbg !4068 {
  call void @llvm.dbg.value(metadata %class.Bypass* %0, metadata !4070, metadata !DIExpression()), !dbg !4072
  call void @llvm.dbg.value(metadata i32 %1, metadata !4071, metadata !DIExpression()), !dbg !4072
  %3 = bitcast %class.Bypass* %0 to %class.Element*, !dbg !4073
  %4 = getelementptr inbounds %class.Bypass, %class.Bypass* %0, i64 0, i32 1, !dbg !4074
  %5 = load i8, i8* %4, align 4, !dbg !4074, !tbaa !2488, !range !2609
  %6 = icmp eq i8 %5, 0, !dbg !4074
  %7 = icmp ne i32 %1, 0, !dbg !4075
  %8 = or i1 %7, %6, !dbg !4076
  br i1 %8, label %14, label %9, !dbg !4076

9:                                                ; preds = %2
  call void @llvm.dbg.value(metadata %class.Element* %3, metadata !4077, metadata !DIExpression()), !dbg !4081
  %10 = getelementptr inbounds %class.Bypass, %class.Bypass* %0, i64 0, i32 0, i32 3, i64 0, !dbg !4083
  %11 = load i32, i32* %10, align 8, !dbg !4083, !tbaa !2642
  %12 = icmp sgt i32 %11, 1, !dbg !4084
  %13 = zext i1 %12 to i32
  br label %14

14:                                               ; preds = %2, %9
  %15 = phi i32 [ 0, %2 ], [ %13, %9 ]
  %16 = tail call dereferenceable(16) %"class.Element::Port"* @_ZNK7Element5inputEi(%class.Element* %3, i32 %15), !dbg !4073
  call void @llvm.dbg.value(metadata %"class.Element::Port"* %16, metadata !4085, metadata !DIExpression()), !dbg !4089
  %17 = getelementptr inbounds %"class.Element::Port", %"class.Element::Port"* %16, i64 0, i32 0, !dbg !4091
  %18 = load %class.Element*, %class.Element** %17, align 8, !dbg !4091, !tbaa !4062
  %19 = icmp eq %class.Element* %18, null, !dbg !4091
  br i1 %19, label %20, label %21, !dbg !4091

20:                                               ; preds = %14
  tail call void @__assert_fail(i8* getelementptr inbounds ([3 x i8], [3 x i8]* @.str.7, i64 0, i64 0), i8* getelementptr inbounds ([30 x i8], [30 x i8]* @.str.6, i64 0, i64 0), i32 657, i8* getelementptr inbounds ([36 x i8], [36 x i8]* @__PRETTY_FUNCTION__._ZNK7Element4Port4pullEv, i64 0, i64 0)) #18, !dbg !4091
  unreachable, !dbg !4091

21:                                               ; preds = %14
  %22 = getelementptr inbounds %"class.Element::Port", %"class.Element::Port"* %16, i64 0, i32 1, !dbg !4092
  %23 = load i32, i32* %22, align 8, !dbg !4092, !tbaa !2687
  %24 = bitcast %class.Element* %18 to %class.Packet* (%class.Element*, i32)***, !dbg !4093
  %25 = load %class.Packet* (%class.Element*, i32)**, %class.Packet* (%class.Element*, i32)*** %24, align 8, !dbg !4093, !tbaa !2484
  %26 = getelementptr inbounds %class.Packet* (%class.Element*, i32)*, %class.Packet* (%class.Element*, i32)** %25, i64 3, !dbg !4093
  %27 = load %class.Packet* (%class.Element*, i32)*, %class.Packet* (%class.Element*, i32)** %26, align 8, !dbg !4093
  %28 = tail call %class.Packet* %27(%class.Element* nonnull %18, i32 %23), !dbg !4093
  call void @llvm.dbg.value(metadata %class.Packet* %28, metadata !4088, metadata !DIExpression()), !dbg !4089
  ret %class.Packet* %28, !dbg !4094
}

; Function Attrs: noinline optnone sspstrong uwtable
define linkonce_odr dso_local dereferenceable(16) %"class.Element::Port"* @_ZNK7Element5inputEi(%class.Element* %0, i32 %1) local_unnamed_addr #6 comdat align 2 !dbg !4095 {
  %3 = alloca %class.Element*, align 8
  %4 = alloca i32, align 4
  store %class.Element* %0, %class.Element** %3, align 8, !tbaa !2647
  call void @llvm.dbg.declare(metadata %class.Element** %3, metadata !4098, metadata !DIExpression()), !dbg !4100
  store i32 %1, i32* %4, align 4, !tbaa !2642
  call void @llvm.dbg.declare(metadata i32* %4, metadata !4099, metadata !DIExpression()), !dbg !4101
  %5 = load %class.Element*, %class.Element** %3, align 8
  %6 = load i32, i32* %4, align 4, !dbg !4102, !tbaa !2642
  %7 = call dereferenceable(16) %"class.Element::Port"* @_ZNK7Element4portEbi(%class.Element* %5, i1 zeroext false, i32 %6), !dbg !4103
  ret %"class.Element::Port"* %7, !dbg !4104
}

; Function Attrs: nofree norecurse nounwind sspstrong uwtable writeonly
define dso_local void @_ZN6Bypass7LocatorC2Ei(%"struct.Bypass::Locator"* nocapture %0, i32 %1) unnamed_addr #7 align 2 !dbg !2695 {
  call void @llvm.dbg.value(metadata %"struct.Bypass::Locator"* %0, metadata !2694, metadata !DIExpression()), !dbg !4105
  call void @llvm.dbg.value(metadata i32 %1, metadata !2697, metadata !DIExpression()), !dbg !4105
  %3 = getelementptr %"struct.Bypass::Locator", %"struct.Bypass::Locator"* %0, i64 0, i32 0, i32 0, !dbg !4106
  store i32 (...)** bitcast (i8** getelementptr inbounds ({ [5 x i8*] }, { [5 x i8*] }* @_ZTVN6Bypass7LocatorE, i64 0, inrange i32 0, i64 2) to i32 (...)**), i32 (...)*** %3, align 8, !dbg !4106, !tbaa !2484
  %4 = getelementptr inbounds %"struct.Bypass::Locator", %"struct.Bypass::Locator"* %0, i64 0, i32 1, !dbg !4107
  store %class.Element* null, %class.Element** %4, align 8, !dbg !4107, !tbaa !2703
  %5 = getelementptr inbounds %"struct.Bypass::Locator", %"struct.Bypass::Locator"* %0, i64 0, i32 2, !dbg !4108
  store i32 0, i32* %5, align 8, !dbg !4108, !tbaa !2706
  %6 = getelementptr inbounds %"struct.Bypass::Locator", %"struct.Bypass::Locator"* %0, i64 0, i32 3, !dbg !4109
  store i32 %1, i32* %6, align 4, !dbg !4109, !tbaa !2708
  ret void, !dbg !4110
}

; Function Attrs: sspstrong uwtable
define dso_local zeroext i1 @_ZN6Bypass7Locator5visitEP7ElementbiS2_ii(%"struct.Bypass::Locator"* nocapture %0, %class.Element* %1, i1 zeroext %2, i32 %3, %class.Element* nocapture readnone %4, i32 %5, i32 %6) unnamed_addr #0 align 2 !dbg !4111 {
  call void @llvm.dbg.value(metadata %"struct.Bypass::Locator"* %0, metadata !4113, metadata !DIExpression()), !dbg !4122
  call void @llvm.dbg.value(metadata %class.Element* %1, metadata !4114, metadata !DIExpression()), !dbg !4122
  call void @llvm.dbg.value(metadata i1 %2, metadata !4115, metadata !DIExpression()), !dbg !4122
  call void @llvm.dbg.value(metadata i32 %3, metadata !4116, metadata !DIExpression()), !dbg !4122
  call void @llvm.dbg.value(metadata %class.Element* undef, metadata !4117, metadata !DIExpression()), !dbg !4122
  call void @llvm.dbg.value(metadata i32 %5, metadata !4118, metadata !DIExpression()), !dbg !4122
  call void @llvm.dbg.value(metadata i32 undef, metadata !4119, metadata !DIExpression()), !dbg !4122
  %8 = getelementptr inbounds %"struct.Bypass::Locator", %"struct.Bypass::Locator"* %0, i64 0, i32 3, !dbg !4123
  %9 = load i32, i32* %8, align 4, !dbg !4123, !tbaa !2708
  %10 = icmp eq i32 %9, %5, !dbg !4125
  br i1 %10, label %11, label %41, !dbg !4126

11:                                               ; preds = %7
  %12 = bitcast %class.Element* %1 to i8* (%class.Element*, i8*)***, !dbg !4127
  %13 = load i8* (%class.Element*, i8*)**, i8* (%class.Element*, i8*)*** %12, align 8, !dbg !4127, !tbaa !2484
  %14 = getelementptr inbounds i8* (%class.Element*, i8*)*, i8* (%class.Element*, i8*)** %13, i64 14, !dbg !4127
  %15 = load i8* (%class.Element*, i8*)*, i8* (%class.Element*, i8*)** %14, align 8, !dbg !4127
  %16 = tail call i8* %15(%class.Element* %1, i8* getelementptr inbounds ([7 x i8], [7 x i8]* @.str, i64 0, i64 0)), !dbg !4127
  call void @llvm.dbg.value(metadata i8* %16, metadata !4120, metadata !DIExpression()), !dbg !4128
  %17 = icmp eq i8* %16, null, !dbg !4129
  br i1 %17, label %38, label %18, !dbg !4130

18:                                               ; preds = %11
  %19 = getelementptr inbounds i8, i8* %16, i64 109, !dbg !4131
  %20 = load i8, i8* %19, align 1, !dbg !4131, !tbaa !2493, !range !2609
  %21 = icmp eq i8 %20, 0, !dbg !4131
  br i1 %21, label %22, label %38, !dbg !4133

22:                                               ; preds = %18
  %23 = getelementptr inbounds i8, i8* %16, i64 108, !dbg !4134
  %24 = load i8, i8* %23, align 4, !dbg !4134, !tbaa !2488, !range !2609
  %25 = icmp ne i8 %24, 0, !dbg !4134
  %26 = icmp eq i32 %3, 0, !dbg !4136
  %27 = and i1 %26, %25, !dbg !4137
  br i1 %27, label %28, label %36, !dbg !4137

28:                                               ; preds = %22
  %29 = bitcast i8* %16 to %class.Element*, !dbg !4138
  %30 = xor i1 %2, true, !dbg !4139
  call void @llvm.dbg.value(metadata %class.Element* %29, metadata !2632, metadata !DIExpression()), !dbg !4140
  call void @llvm.dbg.value(metadata i1 %30, metadata !2638, metadata !DIExpression()), !dbg !4140
  %31 = zext i1 %30 to i64, !dbg !4142
  %32 = getelementptr inbounds %class.Element, %class.Element* %29, i64 0, i32 3, i64 %31, !dbg !4142
  %33 = load i32, i32* %32, align 4, !dbg !4142, !tbaa !2642
  %34 = icmp sgt i32 %33, 1, !dbg !4143
  %35 = zext i1 %34 to i32
  br label %36

36:                                               ; preds = %28, %22
  %37 = phi i32 [ 0, %22 ], [ %35, %28 ]
  store i32 %37, i32* %8, align 4, !dbg !4144, !tbaa !2708
  br label %41

38:                                               ; preds = %18, %11
  %39 = getelementptr inbounds %"struct.Bypass::Locator", %"struct.Bypass::Locator"* %0, i64 0, i32 1, !dbg !4145
  store %class.Element* %1, %class.Element** %39, align 8, !dbg !4146, !tbaa !2703
  %40 = getelementptr inbounds %"struct.Bypass::Locator", %"struct.Bypass::Locator"* %0, i64 0, i32 2, !dbg !4147
  store i32 %3, i32* %40, align 8, !dbg !4148, !tbaa !2706
  br label %41, !dbg !4149

41:                                               ; preds = %36, %7, %38
  %42 = phi i1 [ false, %38 ], [ false, %7 ], [ true, %36 ]
  ret i1 %42, !dbg !4150
}

; Function Attrs: sspstrong uwtable
define dso_local void @_ZN6Bypass8AssignerC2EP7Elementi(%"struct.Bypass::Assigner"* nocapture %0, %class.Element* %1, i32 %2) unnamed_addr #0 align 2 personality i8* bitcast (i32 (...)* @__gxx_personality_v0 to i8*) !dbg !3872 {
  call void @llvm.dbg.value(metadata %"struct.Bypass::Assigner"* %0, metadata !3871, metadata !DIExpression()), !dbg !4151
  call void @llvm.dbg.value(metadata %class.Element* %1, metadata !3874, metadata !DIExpression()), !dbg !4151
  call void @llvm.dbg.value(metadata i32 %2, metadata !3875, metadata !DIExpression()), !dbg !4151
  %4 = getelementptr %"struct.Bypass::Assigner", %"struct.Bypass::Assigner"* %0, i64 0, i32 0, i32 0, !dbg !4152
  store i32 (...)** bitcast (i8** getelementptr inbounds ({ [5 x i8*] }, { [5 x i8*] }* @_ZTVN6Bypass8AssignerE, i64 0, inrange i32 0, i64 2) to i32 (...)**), i32 (...)*** %4, align 8, !dbg !4152, !tbaa !2484
  %5 = getelementptr inbounds %"struct.Bypass::Assigner", %"struct.Bypass::Assigner"* %0, i64 0, i32 1, !dbg !4153
  store %class.Element* %1, %class.Element** %5, align 8, !dbg !4153, !tbaa !3881
  %6 = getelementptr inbounds %"struct.Bypass::Assigner", %"struct.Bypass::Assigner"* %0, i64 0, i32 2, !dbg !4154
  store i32 %2, i32* %6, align 8, !dbg !4154, !tbaa !3886
  %7 = getelementptr inbounds %"struct.Bypass::Assigner", %"struct.Bypass::Assigner"* %0, i64 0, i32 3, !dbg !4155
  call void @llvm.dbg.value(metadata %class.Vector.5* %7, metadata !3888, metadata !DIExpression()), !dbg !4156
  call void @llvm.dbg.value(metadata %class.Vector.5* %7, metadata !3894, metadata !DIExpression()) #16, !dbg !4158
  %8 = bitcast %class.Vector.5* %7 to i8*, !dbg !4160
  tail call void @llvm.memset.p0i8.i64(i8* nonnull align 8 dereferenceable(16) %8, i8 0, i64 16, i1 false) #16, !dbg !4161
  ret void, !dbg !4162
}

; Function Attrs: sspstrong uwtable
define dso_local zeroext i1 @_ZN6Bypass8Assigner5visitEP7ElementbiS2_ii(%"struct.Bypass::Assigner"* %0, %class.Element* %1, i1 zeroext %2, i32 %3, %class.Element* nocapture readonly %4, i32 %5, i32 %6) unnamed_addr #0 align 2 !dbg !4163 {
  call void @llvm.dbg.value(metadata %"struct.Bypass::Assigner"* %0, metadata !4165, metadata !DIExpression()), !dbg !4177
  call void @llvm.dbg.value(metadata %class.Element* %1, metadata !4166, metadata !DIExpression()), !dbg !4177
  call void @llvm.dbg.value(metadata i1 %2, metadata !4167, metadata !DIExpression()), !dbg !4177
  call void @llvm.dbg.value(metadata i32 %3, metadata !4168, metadata !DIExpression()), !dbg !4177
  call void @llvm.dbg.value(metadata %class.Element* %4, metadata !4169, metadata !DIExpression()), !dbg !4177
  call void @llvm.dbg.value(metadata i32 %5, metadata !4170, metadata !DIExpression()), !dbg !4177
  call void @llvm.dbg.value(metadata i32 undef, metadata !4171, metadata !DIExpression()), !dbg !4177
  %8 = getelementptr inbounds %"struct.Bypass::Assigner", %"struct.Bypass::Assigner"* %0, i64 0, i32 3, !dbg !4178
  call void @llvm.dbg.value(metadata %class.Vector.5* %8, metadata !4180, metadata !DIExpression()), !dbg !4184
  %9 = getelementptr inbounds %"struct.Bypass::Assigner", %"struct.Bypass::Assigner"* %0, i64 0, i32 3, i32 0, i32 1, !dbg !4186
  %10 = load i32, i32* %9, align 8, !dbg !4186, !tbaa !4187
  %11 = icmp eq i32 %10, 0, !dbg !4188
  br i1 %11, label %12, label %103, !dbg !4189

12:                                               ; preds = %7
  call void @llvm.dbg.value(metadata %class.Element* %4, metadata !4190, metadata !DIExpression()), !dbg !4194
  %13 = getelementptr inbounds %class.Element, %class.Element* %4, i64 0, i32 5, !dbg !4197
  %14 = load i32, i32* %13, align 8, !dbg !4197, !tbaa !4198
  call void @llvm.dbg.value(metadata %class.Vector.5* %8, metadata !4199, metadata !DIExpression()), !dbg !4203
  call void @llvm.dbg.value(metadata i32 %14, metadata !4202, metadata !DIExpression()), !dbg !4203
  call void @llvm.dbg.value(metadata %class.Vector.5* %8, metadata !4205, metadata !DIExpression()), !dbg !4209
  call void @llvm.dbg.value(metadata %struct.char_array.4* undef, metadata !4208, metadata !DIExpression()), !dbg !4209
  %15 = getelementptr inbounds %"struct.Bypass::Assigner", %"struct.Bypass::Assigner"* %0, i64 0, i32 3, i32 0, i32 2, !dbg !4211
  %16 = load i32, i32* %15, align 4, !dbg !4211, !tbaa !4213
  %17 = icmp sgt i32 %16, 0, !dbg !4214
  br i1 %17, label %18, label %21, !dbg !4215

18:                                               ; preds = %12
  call void @llvm.dbg.value(metadata %class.Vector.5* %8, metadata !4205, metadata !DIExpression()), !dbg !4209
  %19 = bitcast %class.Vector.5* %8 to i32**, !dbg !4216
  %20 = load i32*, i32** %19, align 8, !dbg !4216, !tbaa !3935
  call void @llvm.dbg.value(metadata %struct.char_array.4* undef, metadata !4218, metadata !DIExpression()), !dbg !4223
  call void @llvm.dbg.value(metadata i64 1, metadata !4221, metadata !DIExpression()), !dbg !4223
  call void @llvm.dbg.value(metadata %struct.char_array.4* undef, metadata !4222, metadata !DIExpression()), !dbg !4223
  call void @llvm.dbg.value(metadata i64 undef, metadata !4221, metadata !DIExpression()), !dbg !4223
  call void @llvm.dbg.value(metadata i64 undef, metadata !4221, metadata !DIExpression(DW_OP_constu, 1, DW_OP_minus, DW_OP_stack_value)), !dbg !4223
  br label %57, !dbg !4225

21:                                               ; preds = %12
  %22 = bitcast %class.Vector.5* %8 to i8**, !dbg !4226
  br label %23

23:                                               ; preds = %46, %21
  %24 = phi i32 [ %47, %46 ], [ 0, %21 ]
  %25 = phi i32 [ %48, %46 ], [ 0, %21 ]
  %26 = phi i32 [ %49, %46 ], [ %16, %21 ], !dbg !4239
  call void @llvm.dbg.value(metadata %class.Vector.5* %8, metadata !4231, metadata !DIExpression()), !dbg !4239
  call void @llvm.dbg.value(metadata i32 -1, metadata !4232, metadata !DIExpression()), !dbg !4239
  call void @llvm.dbg.value(metadata %struct.char_array.4* undef, metadata !4233, metadata !DIExpression()), !dbg !4239
  %27 = icmp sgt i32 %26, 0, !dbg !4240
  %28 = shl nsw i32 %26, 1, !dbg !4240
  %29 = select i1 %27, i32 %28, i32 4, !dbg !4240
  call void @llvm.dbg.value(metadata i32 %29, metadata !4232, metadata !DIExpression()), !dbg !4239
  %30 = icmp sgt i32 %29, %26, !dbg !4241
  br i1 %30, label %31, label %46, !dbg !4242

31:                                               ; preds = %23
  %32 = sext i32 %29 to i64, !dbg !4243
  %33 = shl nsw i64 %32, 2, !dbg !4243
  %34 = tail call i8* @_Znam(i64 %33) #19, !dbg !4243
  call void @llvm.dbg.value(metadata i8* %34, metadata !4237, metadata !DIExpression()), !dbg !4226
  call void @llvm.dbg.value(metadata i8* %34, metadata !4237, metadata !DIExpression()), !dbg !4226
  %35 = load i8*, i8** %22, align 8, !dbg !4244, !tbaa !3935
  call void @llvm.dbg.value(metadata i8* %34, metadata !4245, metadata !DIExpression()) #16, !dbg !4250
  call void @llvm.dbg.value(metadata i8* %35, metadata !4248, metadata !DIExpression()) #16, !dbg !4250
  call void @llvm.dbg.value(metadata i32 %25, metadata !4249, metadata !DIExpression(DW_OP_LLVM_convert, 32, DW_ATE_signed, DW_OP_LLVM_convert, 64, DW_ATE_signed, DW_OP_stack_value)) #16, !dbg !4250
  %36 = icmp eq i32 %25, 0, !dbg !4252
  br i1 %36, label %40, label %37, !dbg !4254

37:                                               ; preds = %31
  %38 = sext i32 %25 to i64, !dbg !4255
  call void @llvm.dbg.value(metadata i64 %38, metadata !4249, metadata !DIExpression()) #16, !dbg !4250
  %39 = shl nsw i64 %38, 2, !dbg !4256
  tail call void @llvm.memmove.p0i8.p0i8.i64(i8* nonnull align 1 %34, i8* align 1 %35, i64 %39, i1 false) #16, !dbg !4257
  br label %40, !dbg !4257

40:                                               ; preds = %37, %31
  %41 = icmp eq i8* %35, null, !dbg !4258
  br i1 %41, label %44, label %42, !dbg !4258

42:                                               ; preds = %40
  tail call void @_ZdaPv(i8* nonnull %35) #17, !dbg !4258
  %43 = load i32, i32* %9, align 8, !dbg !4259, !tbaa !4262
  br label %44, !dbg !4258

44:                                               ; preds = %42, %40
  %45 = phi i32 [ %43, %42 ], [ %24, %40 ], !dbg !4259
  store i8* %34, i8** %22, align 8, !dbg !4263, !tbaa !3935
  store i32 %29, i32* %15, align 4, !dbg !4264, !tbaa !4213
  br label %46

46:                                               ; preds = %44, %23
  %47 = phi i32 [ %24, %23 ], [ %45, %44 ]
  %48 = phi i32 [ %25, %23 ], [ %45, %44 ], !dbg !4259
  %49 = phi i32 [ %26, %23 ], [ %29, %44 ]
  call void @llvm.dbg.value(metadata %class.Vector.5* %8, metadata !4205, metadata !DIExpression()), !dbg !4265
  call void @llvm.dbg.value(metadata %struct.char_array.4* undef, metadata !4208, metadata !DIExpression()), !dbg !4265
  %50 = icmp slt i32 %48, %49, !dbg !4266
  br i1 %50, label %51, label %23, !dbg !4267

51:                                               ; preds = %46
  %52 = getelementptr inbounds %class.Vector.5, %class.Vector.5* %8, i64 0, i32 0, i32 0, !dbg !4268
  %53 = load %struct.char_array.4*, %struct.char_array.4** %52, align 8, !dbg !4268, !tbaa !3935
  %54 = sext i32 %48 to i64, !dbg !4269
  %55 = getelementptr inbounds %struct.char_array.4, %struct.char_array.4* %53, i64 %54, i32 0, i64 0, !dbg !4270
  call void @llvm.dbg.value(metadata i8* %55, metadata !4218, metadata !DIExpression()), !dbg !4271
  call void @llvm.dbg.value(metadata i64 1, metadata !4221, metadata !DIExpression()), !dbg !4271
  call void @llvm.dbg.value(metadata %struct.char_array.4* undef, metadata !4222, metadata !DIExpression()), !dbg !4271
  call void @llvm.dbg.value(metadata i64 undef, metadata !4221, metadata !DIExpression()), !dbg !4271
  %56 = bitcast i8* %55 to i32*, !dbg !4273
  call void @llvm.dbg.value(metadata i64 undef, metadata !4221, metadata !DIExpression(DW_OP_constu, 1, DW_OP_minus, DW_OP_stack_value)), !dbg !4271
  br label %57

57:                                               ; preds = %18, %51
  %58 = phi i32* [ %20, %18 ], [ %56, %51 ]
  store i32 %14, i32* %58, align 1, !dbg !4276
  %59 = load i32, i32* %9, align 8, !dbg !4276, !tbaa !4262
  %60 = add nsw i32 %59, 1, !dbg !4276
  store i32 %60, i32* %9, align 8, !dbg !4276, !tbaa !4262
  call void @llvm.dbg.value(metadata %class.Vector.5* %8, metadata !4199, metadata !DIExpression()), !dbg !4277
  call void @llvm.dbg.value(metadata i32 3, metadata !4202, metadata !DIExpression()), !dbg !4277
  call void @llvm.dbg.value(metadata %class.Vector.5* %8, metadata !4205, metadata !DIExpression()), !dbg !4279
  call void @llvm.dbg.value(metadata %struct.char_array.4* undef, metadata !4208, metadata !DIExpression()), !dbg !4279
  %61 = load i32, i32* %15, align 4, !dbg !4281, !tbaa !4213
  %62 = icmp slt i32 %60, %61, !dbg !4282
  br i1 %62, label %93, label %63, !dbg !4283

63:                                               ; preds = %57
  %64 = bitcast %class.Vector.5* %8 to i8**, !dbg !4284
  br label %65

65:                                               ; preds = %88, %63
  %66 = phi i32 [ %89, %88 ], [ %60, %63 ]
  %67 = phi i32 [ %90, %88 ], [ %60, %63 ]
  %68 = phi i32 [ %91, %88 ], [ %61, %63 ], !dbg !4286
  call void @llvm.dbg.value(metadata %class.Vector.5* %8, metadata !4231, metadata !DIExpression()), !dbg !4286
  call void @llvm.dbg.value(metadata i32 -1, metadata !4232, metadata !DIExpression()), !dbg !4286
  call void @llvm.dbg.value(metadata %struct.char_array.4* undef, metadata !4233, metadata !DIExpression()), !dbg !4286
  %69 = icmp sgt i32 %68, 0, !dbg !4287
  %70 = shl nsw i32 %68, 1, !dbg !4287
  %71 = select i1 %69, i32 %70, i32 4, !dbg !4287
  call void @llvm.dbg.value(metadata i32 %71, metadata !4232, metadata !DIExpression()), !dbg !4286
  %72 = icmp sgt i32 %71, %68, !dbg !4288
  br i1 %72, label %73, label %88, !dbg !4289

73:                                               ; preds = %65
  %74 = sext i32 %71 to i64, !dbg !4290
  %75 = shl nsw i64 %74, 2, !dbg !4290
  %76 = tail call i8* @_Znam(i64 %75) #19, !dbg !4290
  call void @llvm.dbg.value(metadata i8* %76, metadata !4237, metadata !DIExpression()), !dbg !4284
  call void @llvm.dbg.value(metadata i8* %76, metadata !4237, metadata !DIExpression()), !dbg !4284
  %77 = load i8*, i8** %64, align 8, !dbg !4291, !tbaa !3935
  call void @llvm.dbg.value(metadata i8* %76, metadata !4245, metadata !DIExpression()) #16, !dbg !4292
  call void @llvm.dbg.value(metadata i8* %77, metadata !4248, metadata !DIExpression()) #16, !dbg !4292
  call void @llvm.dbg.value(metadata i32 %67, metadata !4249, metadata !DIExpression(DW_OP_LLVM_convert, 32, DW_ATE_signed, DW_OP_LLVM_convert, 64, DW_ATE_signed, DW_OP_stack_value)) #16, !dbg !4292
  %78 = icmp eq i32 %67, 0, !dbg !4294
  br i1 %78, label %82, label %79, !dbg !4295

79:                                               ; preds = %73
  %80 = sext i32 %67 to i64, !dbg !4296
  call void @llvm.dbg.value(metadata i64 %80, metadata !4249, metadata !DIExpression()) #16, !dbg !4292
  %81 = shl nsw i64 %80, 2, !dbg !4297
  tail call void @llvm.memmove.p0i8.p0i8.i64(i8* nonnull align 1 %76, i8* align 1 %77, i64 %81, i1 false) #16, !dbg !4298
  br label %82, !dbg !4298

82:                                               ; preds = %79, %73
  %83 = icmp eq i8* %77, null, !dbg !4299
  br i1 %83, label %86, label %84, !dbg !4299

84:                                               ; preds = %82
  tail call void @_ZdaPv(i8* nonnull %77) #17, !dbg !4299
  %85 = load i32, i32* %9, align 8, !dbg !4300, !tbaa !4262
  br label %86, !dbg !4299

86:                                               ; preds = %84, %82
  %87 = phi i32 [ %85, %84 ], [ %66, %82 ], !dbg !4300
  store i8* %76, i8** %64, align 8, !dbg !4302, !tbaa !3935
  store i32 %71, i32* %15, align 4, !dbg !4303, !tbaa !4213
  br label %88

88:                                               ; preds = %86, %65
  %89 = phi i32 [ %66, %65 ], [ %87, %86 ]
  %90 = phi i32 [ %67, %65 ], [ %87, %86 ], !dbg !4300
  %91 = phi i32 [ %68, %65 ], [ %71, %86 ]
  call void @llvm.dbg.value(metadata %class.Vector.5* %8, metadata !4205, metadata !DIExpression()), !dbg !4304
  call void @llvm.dbg.value(metadata %struct.char_array.4* undef, metadata !4208, metadata !DIExpression()), !dbg !4304
  %92 = icmp slt i32 %90, %91, !dbg !4305
  br i1 %92, label %93, label %65, !dbg !4306

93:                                               ; preds = %88, %57
  %94 = phi i32 [ %60, %57 ], [ %90, %88 ]
  %95 = getelementptr inbounds %class.Vector.5, %class.Vector.5* %8, i64 0, i32 0, i32 0, !dbg !4307
  %96 = load %struct.char_array.4*, %struct.char_array.4** %95, align 8, !dbg !4307, !tbaa !3935
  %97 = sext i32 %94 to i64, !dbg !4307
  %98 = getelementptr inbounds %struct.char_array.4, %struct.char_array.4* %96, i64 %97, i32 0, i64 0, !dbg !4307
  %99 = bitcast i8* %98 to i32*, !dbg !4307
  store i32 3, i32* %99, align 1, !dbg !4307
  %100 = load i32, i32* %9, align 8, !dbg !4307, !tbaa !4262
  %101 = add nsw i32 %100, 1, !dbg !4307
  store i32 %101, i32* %9, align 8, !dbg !4307, !tbaa !4262
  call void @llvm.dbg.value(metadata i32 0, metadata !4172, metadata !DIExpression()), !dbg !4308
  call void @llvm.dbg.value(metadata %class.Vector.5* %8, metadata !4309, metadata !DIExpression()), !dbg !4312
  %102 = icmp eq i32 %101, 0, !dbg !4315
  br i1 %102, label %246, label %103, !dbg !4316

103:                                              ; preds = %7, %93
  %104 = getelementptr inbounds %class.Element, %class.Element* %4, i64 0, i32 5, !dbg !4317
  %105 = shl nuw i32 1, %5, !dbg !4320
  br label %106, !dbg !4316

106:                                              ; preds = %103, %118
  %107 = phi i32 [ 0, %103 ], [ %119, %118 ]
  call void @llvm.dbg.value(metadata i32 %107, metadata !4172, metadata !DIExpression()), !dbg !4308
  %108 = tail call dereferenceable(4) i32* @_ZN6VectorIiEixEi(%class.Vector.5* nonnull %8, i32 %107), !dbg !4321
  %109 = load i32, i32* %108, align 4, !dbg !4321, !tbaa !2642
  call void @llvm.dbg.value(metadata %class.Element* %4, metadata !4190, metadata !DIExpression()), !dbg !4317
  %110 = load i32, i32* %104, align 8, !dbg !4322, !tbaa !4198
  %111 = icmp eq i32 %109, %110, !dbg !4323
  br i1 %111, label %112, label %118, !dbg !4324

112:                                              ; preds = %106
  %113 = or i32 %107, 1, !dbg !4325
  %114 = tail call dereferenceable(4) i32* @_ZN6VectorIiEixEi(%class.Vector.5* nonnull %8, i32 %113), !dbg !4326
  %115 = load i32, i32* %114, align 4, !dbg !4326, !tbaa !2642
  %116 = and i32 %115, %105, !dbg !4327
  %117 = icmp eq i32 %116, 0, !dbg !4328
  br i1 %117, label %118, label %122, !dbg !4329

118:                                              ; preds = %112, %106
  %119 = add nuw nsw i32 %107, 2, !dbg !4330
  call void @llvm.dbg.value(metadata i32 %119, metadata !4172, metadata !DIExpression()), !dbg !4308
  call void @llvm.dbg.value(metadata %class.Vector.5* %8, metadata !4309, metadata !DIExpression()), !dbg !4312
  %120 = load i32, i32* %9, align 8, !dbg !4331, !tbaa !4187
  %121 = icmp eq i32 %119, %120, !dbg !4315
  br i1 %121, label %246, label %106, !dbg !4316, !llvm.loop !4332

122:                                              ; preds = %112
  call void @llvm.dbg.label(metadata !4176), !dbg !4334
  %123 = bitcast %class.Element* %1 to i8* (%class.Element*, i8*)***, !dbg !4335
  %124 = load i8* (%class.Element*, i8*)**, i8* (%class.Element*, i8*)*** %123, align 8, !dbg !4335, !tbaa !2484
  %125 = getelementptr inbounds i8* (%class.Element*, i8*)*, i8* (%class.Element*, i8*)** %124, i64 14, !dbg !4335
  %126 = load i8* (%class.Element*, i8*)*, i8* (%class.Element*, i8*)** %125, align 8, !dbg !4335
  %127 = tail call i8* %126(%class.Element* %1, i8* getelementptr inbounds ([7 x i8], [7 x i8]* @.str, i64 0, i64 0)), !dbg !4335
  call void @llvm.dbg.value(metadata i8* %127, metadata !4174, metadata !DIExpression()), !dbg !4336
  %128 = icmp eq i8* %127, null, !dbg !4337
  br i1 %128, label %237, label %129, !dbg !4338

129:                                              ; preds = %122
  %130 = getelementptr inbounds i8, i8* %127, i64 109, !dbg !4339
  %131 = load i8, i8* %130, align 1, !dbg !4339, !tbaa !2493, !range !2609
  %132 = icmp eq i8 %131, 0, !dbg !4339
  br i1 %132, label %133, label %237, !dbg !4341

133:                                              ; preds = %129
  %134 = bitcast i8* %127 to %class.Element*, !dbg !4342
  call void @llvm.dbg.value(metadata %class.Element* %134, metadata !4190, metadata !DIExpression()), !dbg !4344
  %135 = getelementptr inbounds i8, i8* %127, i64 104, !dbg !4346
  %136 = bitcast i8* %135 to i32*, !dbg !4346
  %137 = load i32, i32* %136, align 8, !dbg !4346, !tbaa !4198
  call void @llvm.dbg.value(metadata %class.Vector.5* %8, metadata !4199, metadata !DIExpression()), !dbg !4347
  call void @llvm.dbg.value(metadata i32 %137, metadata !4202, metadata !DIExpression()), !dbg !4347
  call void @llvm.dbg.value(metadata %class.Vector.5* %8, metadata !4205, metadata !DIExpression()), !dbg !4349
  call void @llvm.dbg.value(metadata %struct.char_array.4* undef, metadata !4208, metadata !DIExpression()), !dbg !4349
  %138 = load i32, i32* %9, align 8, !dbg !4351, !tbaa !4262
  %139 = getelementptr inbounds %"struct.Bypass::Assigner", %"struct.Bypass::Assigner"* %0, i64 0, i32 3, i32 0, i32 2, !dbg !4352
  %140 = load i32, i32* %139, align 4, !dbg !4352, !tbaa !4213
  %141 = icmp slt i32 %138, %140, !dbg !4353
  br i1 %141, label %172, label %142, !dbg !4354

142:                                              ; preds = %133
  %143 = bitcast %class.Vector.5* %8 to i8**, !dbg !4355
  br label %144

144:                                              ; preds = %167, %142
  %145 = phi i32 [ %168, %167 ], [ %138, %142 ]
  %146 = phi i32 [ %169, %167 ], [ %138, %142 ]
  %147 = phi i32 [ %170, %167 ], [ %140, %142 ], !dbg !4357
  call void @llvm.dbg.value(metadata %class.Vector.5* %8, metadata !4231, metadata !DIExpression()), !dbg !4357
  call void @llvm.dbg.value(metadata i32 -1, metadata !4232, metadata !DIExpression()), !dbg !4357
  call void @llvm.dbg.value(metadata %struct.char_array.4* undef, metadata !4233, metadata !DIExpression()), !dbg !4357
  %148 = icmp sgt i32 %147, 0, !dbg !4358
  %149 = shl nsw i32 %147, 1, !dbg !4358
  %150 = select i1 %148, i32 %149, i32 4, !dbg !4358
  call void @llvm.dbg.value(metadata i32 %150, metadata !4232, metadata !DIExpression()), !dbg !4357
  %151 = icmp sgt i32 %150, %147, !dbg !4359
  br i1 %151, label %152, label %167, !dbg !4360

152:                                              ; preds = %144
  %153 = sext i32 %150 to i64, !dbg !4361
  %154 = shl nsw i64 %153, 2, !dbg !4361
  %155 = tail call i8* @_Znam(i64 %154) #19, !dbg !4361
  call void @llvm.dbg.value(metadata i8* %155, metadata !4237, metadata !DIExpression()), !dbg !4355
  call void @llvm.dbg.value(metadata i8* %155, metadata !4237, metadata !DIExpression()), !dbg !4355
  %156 = load i8*, i8** %143, align 8, !dbg !4362, !tbaa !3935
  call void @llvm.dbg.value(metadata i8* %155, metadata !4245, metadata !DIExpression()) #16, !dbg !4363
  call void @llvm.dbg.value(metadata i8* %156, metadata !4248, metadata !DIExpression()) #16, !dbg !4363
  call void @llvm.dbg.value(metadata i32 %146, metadata !4249, metadata !DIExpression(DW_OP_LLVM_convert, 32, DW_ATE_signed, DW_OP_LLVM_convert, 64, DW_ATE_signed, DW_OP_stack_value)) #16, !dbg !4363
  %157 = icmp eq i32 %146, 0, !dbg !4365
  br i1 %157, label %161, label %158, !dbg !4366

158:                                              ; preds = %152
  %159 = sext i32 %146 to i64, !dbg !4367
  call void @llvm.dbg.value(metadata i64 %159, metadata !4249, metadata !DIExpression()) #16, !dbg !4363
  %160 = shl nsw i64 %159, 2, !dbg !4368
  tail call void @llvm.memmove.p0i8.p0i8.i64(i8* nonnull align 1 %155, i8* align 1 %156, i64 %160, i1 false) #16, !dbg !4369
  br label %161, !dbg !4369

161:                                              ; preds = %158, %152
  %162 = icmp eq i8* %156, null, !dbg !4370
  br i1 %162, label %165, label %163, !dbg !4370

163:                                              ; preds = %161
  tail call void @_ZdaPv(i8* nonnull %156) #17, !dbg !4370
  %164 = load i32, i32* %9, align 8, !dbg !4371, !tbaa !4262
  br label %165, !dbg !4370

165:                                              ; preds = %163, %161
  %166 = phi i32 [ %164, %163 ], [ %145, %161 ], !dbg !4371
  store i8* %155, i8** %143, align 8, !dbg !4373, !tbaa !3935
  store i32 %150, i32* %139, align 4, !dbg !4374, !tbaa !4213
  br label %167

167:                                              ; preds = %165, %144
  %168 = phi i32 [ %145, %144 ], [ %166, %165 ]
  %169 = phi i32 [ %146, %144 ], [ %166, %165 ], !dbg !4371
  %170 = phi i32 [ %147, %144 ], [ %150, %165 ]
  call void @llvm.dbg.value(metadata %class.Vector.5* %8, metadata !4205, metadata !DIExpression()), !dbg !4375
  call void @llvm.dbg.value(metadata %struct.char_array.4* undef, metadata !4208, metadata !DIExpression()), !dbg !4375
  %171 = icmp slt i32 %169, %170, !dbg !4376
  br i1 %171, label %172, label %144, !dbg !4377

172:                                              ; preds = %167, %133
  %173 = phi i32 [ %138, %133 ], [ %169, %167 ]
  %174 = getelementptr inbounds %class.Vector.5, %class.Vector.5* %8, i64 0, i32 0, i32 0, !dbg !4378
  %175 = load %struct.char_array.4*, %struct.char_array.4** %174, align 8, !dbg !4378, !tbaa !3935
  %176 = sext i32 %173 to i64, !dbg !4378
  %177 = getelementptr inbounds %struct.char_array.4, %struct.char_array.4* %175, i64 %176, i32 0, i64 0, !dbg !4378
  %178 = bitcast i8* %177 to i32*, !dbg !4378
  store i32 %137, i32* %178, align 1, !dbg !4378
  %179 = load i32, i32* %9, align 8, !dbg !4378, !tbaa !4262
  %180 = add nsw i32 %179, 1, !dbg !4378
  store i32 %180, i32* %9, align 8, !dbg !4378, !tbaa !4262
  %181 = getelementptr inbounds i8, i8* %127, i64 108, !dbg !4379
  %182 = load i8, i8* %181, align 4, !dbg !4379, !tbaa !2488, !range !2609
  %183 = zext i8 %182 to i32, !dbg !4380
  %184 = icmp eq i32 %183, %3, !dbg !4381
  br i1 %184, label %191, label %185, !dbg !4382

185:                                              ; preds = %172
  call void @llvm.dbg.value(metadata %class.Element* %134, metadata !2632, metadata !DIExpression()), !dbg !4383
  call void @llvm.dbg.value(metadata i1 %2, metadata !2638, metadata !DIExpression()), !dbg !4383
  %186 = zext i1 %2 to i64, !dbg !4385
  %187 = getelementptr inbounds %class.Element, %class.Element* %134, i64 0, i32 3, i64 %186, !dbg !4385
  %188 = load i32, i32* %187, align 4, !dbg !4385, !tbaa !2642
  %189 = icmp eq i32 %188, 1, !dbg !4386
  %190 = zext i1 %189 to i32, !dbg !4382
  br label %191, !dbg !4382

191:                                              ; preds = %185, %172
  %192 = phi i32 [ 1, %172 ], [ %190, %185 ]
  %193 = icmp eq i32 %3, 0, !dbg !4387
  %194 = select i1 %193, i32 2, i32 0, !dbg !4388
  %195 = or i32 %192, %194, !dbg !4389
  call void @llvm.dbg.value(metadata %class.Vector.5* %8, metadata !4199, metadata !DIExpression()), !dbg !4390
  call void @llvm.dbg.value(metadata i32 %195, metadata !4202, metadata !DIExpression()), !dbg !4390
  call void @llvm.dbg.value(metadata %class.Vector.5* %8, metadata !4205, metadata !DIExpression()), !dbg !4392
  call void @llvm.dbg.value(metadata %struct.char_array.4* undef, metadata !4208, metadata !DIExpression()), !dbg !4392
  %196 = load i32, i32* %139, align 4, !dbg !4394, !tbaa !4213
  %197 = icmp slt i32 %180, %196, !dbg !4395
  br i1 %197, label %228, label %198, !dbg !4396

198:                                              ; preds = %191
  %199 = bitcast %class.Vector.5* %8 to i8**, !dbg !4397
  br label %200

200:                                              ; preds = %223, %198
  %201 = phi i32 [ %224, %223 ], [ %180, %198 ]
  %202 = phi i32 [ %225, %223 ], [ %180, %198 ]
  %203 = phi i32 [ %226, %223 ], [ %196, %198 ], !dbg !4399
  call void @llvm.dbg.value(metadata %class.Vector.5* %8, metadata !4231, metadata !DIExpression()), !dbg !4399
  call void @llvm.dbg.value(metadata i32 -1, metadata !4232, metadata !DIExpression()), !dbg !4399
  call void @llvm.dbg.value(metadata %struct.char_array.4* undef, metadata !4233, metadata !DIExpression()), !dbg !4399
  %204 = icmp sgt i32 %203, 0, !dbg !4400
  %205 = shl nsw i32 %203, 1, !dbg !4400
  %206 = select i1 %204, i32 %205, i32 4, !dbg !4400
  call void @llvm.dbg.value(metadata i32 %206, metadata !4232, metadata !DIExpression()), !dbg !4399
  %207 = icmp sgt i32 %206, %203, !dbg !4401
  br i1 %207, label %208, label %223, !dbg !4402

208:                                              ; preds = %200
  %209 = sext i32 %206 to i64, !dbg !4403
  %210 = shl nsw i64 %209, 2, !dbg !4403
  %211 = tail call i8* @_Znam(i64 %210) #19, !dbg !4403
  call void @llvm.dbg.value(metadata i8* %211, metadata !4237, metadata !DIExpression()), !dbg !4397
  call void @llvm.dbg.value(metadata i8* %211, metadata !4237, metadata !DIExpression()), !dbg !4397
  %212 = load i8*, i8** %199, align 8, !dbg !4404, !tbaa !3935
  call void @llvm.dbg.value(metadata i8* %211, metadata !4245, metadata !DIExpression()) #16, !dbg !4405
  call void @llvm.dbg.value(metadata i8* %212, metadata !4248, metadata !DIExpression()) #16, !dbg !4405
  call void @llvm.dbg.value(metadata i32 %202, metadata !4249, metadata !DIExpression(DW_OP_LLVM_convert, 32, DW_ATE_signed, DW_OP_LLVM_convert, 64, DW_ATE_signed, DW_OP_stack_value)) #16, !dbg !4405
  %213 = icmp eq i32 %202, 0, !dbg !4407
  br i1 %213, label %217, label %214, !dbg !4408

214:                                              ; preds = %208
  %215 = sext i32 %202 to i64, !dbg !4409
  call void @llvm.dbg.value(metadata i64 %215, metadata !4249, metadata !DIExpression()) #16, !dbg !4405
  %216 = shl nsw i64 %215, 2, !dbg !4410
  tail call void @llvm.memmove.p0i8.p0i8.i64(i8* nonnull align 1 %211, i8* align 1 %212, i64 %216, i1 false) #16, !dbg !4411
  br label %217, !dbg !4411

217:                                              ; preds = %214, %208
  %218 = icmp eq i8* %212, null, !dbg !4412
  br i1 %218, label %221, label %219, !dbg !4412

219:                                              ; preds = %217
  tail call void @_ZdaPv(i8* nonnull %212) #17, !dbg !4412
  %220 = load i32, i32* %9, align 8, !dbg !4413, !tbaa !4262
  br label %221, !dbg !4412

221:                                              ; preds = %219, %217
  %222 = phi i32 [ %220, %219 ], [ %201, %217 ], !dbg !4413
  store i8* %211, i8** %199, align 8, !dbg !4415, !tbaa !3935
  store i32 %206, i32* %139, align 4, !dbg !4416, !tbaa !4213
  br label %223

223:                                              ; preds = %221, %200
  %224 = phi i32 [ %201, %200 ], [ %222, %221 ]
  %225 = phi i32 [ %202, %200 ], [ %222, %221 ], !dbg !4413
  %226 = phi i32 [ %203, %200 ], [ %206, %221 ]
  call void @llvm.dbg.value(metadata %class.Vector.5* %8, metadata !4205, metadata !DIExpression()), !dbg !4417
  call void @llvm.dbg.value(metadata %struct.char_array.4* undef, metadata !4208, metadata !DIExpression()), !dbg !4417
  %227 = icmp slt i32 %225, %226, !dbg !4418
  br i1 %227, label %228, label %200, !dbg !4419

228:                                              ; preds = %223, %191
  %229 = phi i32 [ %180, %191 ], [ %225, %223 ]
  %230 = getelementptr inbounds %class.Vector.5, %class.Vector.5* %8, i64 0, i32 0, i32 0, !dbg !4420
  %231 = load %struct.char_array.4*, %struct.char_array.4** %230, align 8, !dbg !4420, !tbaa !3935
  %232 = sext i32 %229 to i64, !dbg !4420
  %233 = getelementptr inbounds %struct.char_array.4, %struct.char_array.4* %231, i64 %232, i32 0, i64 0, !dbg !4420
  %234 = bitcast i8* %233 to i32*, !dbg !4420
  store i32 %195, i32* %234, align 1, !dbg !4420
  %235 = load i32, i32* %9, align 8, !dbg !4420, !tbaa !4262
  %236 = add nsw i32 %235, 1, !dbg !4420
  store i32 %236, i32* %9, align 8, !dbg !4420, !tbaa !4262
  br label %246

237:                                              ; preds = %129, %122
  %238 = tail call dereferenceable(16) %"class.Element::Port"* @_ZNK7Element4portEbi(%class.Element* nonnull %1, i1 zeroext %2, i32 %3), !dbg !4421
  %239 = getelementptr inbounds %"struct.Bypass::Assigner", %"struct.Bypass::Assigner"* %0, i64 0, i32 1, !dbg !4422
  %240 = bitcast %class.Element** %239 to i64*, !dbg !4422
  %241 = load i64, i64* %240, align 8, !dbg !4422, !tbaa !3881
  %242 = getelementptr inbounds %"struct.Bypass::Assigner", %"struct.Bypass::Assigner"* %0, i64 0, i32 2, !dbg !4423
  %243 = load i32, i32* %242, align 8, !dbg !4423, !tbaa !3886
  call void @llvm.dbg.value(metadata %"class.Element::Port"* %238, metadata !4424, metadata !DIExpression()), !dbg !4431
  call void @llvm.dbg.value(metadata i1 %2, metadata !4427, metadata !DIExpression()), !dbg !4431
  call void @llvm.dbg.value(metadata %class.Element* undef, metadata !4428, metadata !DIExpression()), !dbg !4431
  call void @llvm.dbg.value(metadata i32 %243, metadata !4429, metadata !DIExpression()), !dbg !4431
  %244 = bitcast %"class.Element::Port"* %238 to i64*, !dbg !4433
  store i64 %241, i64* %244, align 8, !dbg !4433, !tbaa !4062
  %245 = getelementptr inbounds %"class.Element::Port", %"class.Element::Port"* %238, i64 0, i32 1, !dbg !4434
  store i32 %243, i32* %245, align 8, !dbg !4435, !tbaa !2687
  br label %246, !dbg !4436

246:                                              ; preds = %118, %93, %228, %237
  %247 = phi i1 [ false, %237 ], [ true, %228 ], [ false, %93 ], [ false, %118 ]
  ret i1 %247, !dbg !4437
}

declare dereferenceable(4) i32* @_ZN6VectorIiEixEi(%class.Vector.5*, i32) local_unnamed_addr #2

; Function Attrs: nounwind readnone speculatable willreturn
declare void @llvm.dbg.label(metadata) #1

; Function Attrs: noinline nounwind optnone sspstrong uwtable
define linkonce_odr dso_local dereferenceable(16) %"class.Element::Port"* @_ZNK7Element4portEbi(%class.Element* %0, i1 zeroext %1, i32 %2) local_unnamed_addr #8 comdat align 2 !dbg !4438 {
  %4 = alloca %class.Element*, align 8
  %5 = alloca i8, align 1
  %6 = alloca i32, align 4
  store %class.Element* %0, %class.Element** %4, align 8, !tbaa !2647
  call void @llvm.dbg.declare(metadata %class.Element** %4, metadata !4443, metadata !DIExpression()), !dbg !4446
  %7 = zext i1 %1 to i8
  store i8 %7, i8* %5, align 1, !tbaa !4447
  call void @llvm.dbg.declare(metadata i8* %5, metadata !4444, metadata !DIExpression()), !dbg !4448
  store i32 %2, i32* %6, align 4, !tbaa !2642
  call void @llvm.dbg.declare(metadata i32* %6, metadata !4445, metadata !DIExpression()), !dbg !4449
  %8 = load %class.Element*, %class.Element** %4, align 8
  %9 = load i32, i32* %6, align 4, !dbg !4450, !tbaa !2642
  %10 = getelementptr inbounds %class.Element, %class.Element* %8, i32 0, i32 3, !dbg !4450
  %11 = load i8, i8* %5, align 1, !dbg !4450, !tbaa !4447, !range !2609
  %12 = trunc i8 %11 to i1, !dbg !4450
  %13 = zext i1 %12 to i64, !dbg !4450
  %14 = getelementptr inbounds [2 x i32], [2 x i32]* %10, i64 0, i64 %13, !dbg !4450
  %15 = load i32, i32* %14, align 4, !dbg !4450, !tbaa !2642
  %16 = icmp ult i32 %9, %15, !dbg !4450
  br i1 %16, label %17, label %18, !dbg !4450

17:                                               ; preds = %3
  br label %19, !dbg !4450

18:                                               ; preds = %3
  call void @__assert_fail(i8* getelementptr inbounds ([47 x i8], [47 x i8]* @.str.8, i64 0, i64 0), i8* getelementptr inbounds ([30 x i8], [30 x i8]* @.str.6, i64 0, i64 0), i32 437, i8* getelementptr inbounds ([52 x i8], [52 x i8]* @__PRETTY_FUNCTION__._ZNK7Element4portEbi, i64 0, i64 0)) #18, !dbg !4450
  unreachable, !dbg !4450

19:                                               ; preds = %17
  %20 = getelementptr inbounds %class.Element, %class.Element* %8, i32 0, i32 1, !dbg !4451
  %21 = load i8, i8* %5, align 1, !dbg !4452, !tbaa !4447, !range !2609
  %22 = trunc i8 %21 to i1, !dbg !4452
  %23 = zext i1 %22 to i64, !dbg !4451
  %24 = getelementptr inbounds [2 x %"class.Element::Port"*], [2 x %"class.Element::Port"*]* %20, i64 0, i64 %23, !dbg !4451
  %25 = load %"class.Element::Port"*, %"class.Element::Port"** %24, align 8, !dbg !4451, !tbaa !2647
  %26 = load i32, i32* %6, align 4, !dbg !4453, !tbaa !2642
  %27 = sext i32 %26 to i64, !dbg !4451
  %28 = getelementptr inbounds %"class.Element::Port", %"class.Element::Port"* %25, i64 %27, !dbg !4451
  ret %"class.Element::Port"* %28, !dbg !4454
}

declare i32 @_ZNK6Router5visitEP7ElementbiP13RouterVisitor(%class.Router*, %class.Element*, i1 zeroext, i32, %class.RouterVisitor*) local_unnamed_addr #2

; Function Attrs: inlinehint nounwind sspstrong uwtable
define linkonce_odr dso_local void @_ZN6Bypass8AssignerD2Ev(%"struct.Bypass::Assigner"* %0) unnamed_addr #9 comdat align 2 personality i32 (...)* @__gxx_personality_v0 !dbg !3910 {
  call void @llvm.dbg.value(metadata %"struct.Bypass::Assigner"* %0, metadata !3909, metadata !DIExpression()), !dbg !4455
  %2 = getelementptr %"struct.Bypass::Assigner", %"struct.Bypass::Assigner"* %0, i64 0, i32 0, i32 0, !dbg !4456
  store i32 (...)** bitcast (i8** getelementptr inbounds ({ [5 x i8*] }, { [5 x i8*] }* @_ZTVN6Bypass8AssignerE, i64 0, inrange i32 0, i64 2) to i32 (...)**), i32 (...)*** %2, align 8, !dbg !4456, !tbaa !2484
  %3 = getelementptr inbounds %"struct.Bypass::Assigner", %"struct.Bypass::Assigner"* %0, i64 0, i32 3, !dbg !4457
  call void @llvm.dbg.value(metadata %class.Vector.5* %3, metadata !3918, metadata !DIExpression()) #16, !dbg !4458
  call void @llvm.dbg.value(metadata %class.Vector.5* %3, metadata !3925, metadata !DIExpression()) #16, !dbg !4460
  %4 = bitcast %class.Vector.5* %3 to i8**, !dbg !4462
  %5 = load i8*, i8** %4, align 8, !dbg !4463, !tbaa !3935
  %6 = icmp eq i8* %5, null, !dbg !4463
  br i1 %6, label %8, label %7, !dbg !4463

7:                                                ; preds = %1
  tail call void @_ZdaPv(i8* nonnull %5) #17, !dbg !4463
  br label %8, !dbg !4463

8:                                                ; preds = %1, %7
  ret void, !dbg !4456
}

; Function Attrs: nounwind sspstrong uwtable
define linkonce_odr dso_local void @_ZN13RouterVisitorD2Ev(%class.RouterVisitor* %0) unnamed_addr #10 comdat align 2 !dbg !4464 {
  call void @llvm.dbg.value(metadata %class.RouterVisitor* %0, metadata !4470, metadata !DIExpression()), !dbg !4471
  ret void, !dbg !4472
}

; Function Attrs: sspstrong uwtable
define dso_local i32 @_ZN6Bypass13write_handlerERK6StringP7ElementPvP12ErrorHandler(%class.String* dereferenceable(24) %0, %class.Element* %1, i8* nocapture readnone %2, %class.ErrorHandler* %3) #0 align 2 !dbg !4473 {
  %5 = alloca i8, align 1
  call void @llvm.dbg.value(metadata %class.String* %0, metadata !4475, metadata !DIExpression()), !dbg !4481
  call void @llvm.dbg.value(metadata %class.Element* %1, metadata !4476, metadata !DIExpression()), !dbg !4481
  call void @llvm.dbg.value(metadata i8* undef, metadata !4477, metadata !DIExpression()), !dbg !4481
  call void @llvm.dbg.value(metadata %class.ErrorHandler* %3, metadata !4478, metadata !DIExpression()), !dbg !4481
  %6 = bitcast %class.Element* %1 to %class.Bypass*, !dbg !4482
  call void @llvm.dbg.value(metadata %class.Bypass* %6, metadata !4479, metadata !DIExpression()), !dbg !4481
  call void @llvm.lifetime.start.p0i8(i64 1, i8* nonnull %5) #16, !dbg !4483
  call void @llvm.dbg.value(metadata i8* %5, metadata !4480, metadata !DIExpression(DW_OP_deref)), !dbg !4481
  %7 = call zeroext i1 @_ZN7BoolArg5parseERK6StringRbRK10ArgContext(%class.String* nonnull dereferenceable(24) %0, i8* nonnull dereferenceable(1) %5, %class.ArgContext* nonnull dereferenceable(32) @blank_args), !dbg !4484
  br i1 %7, label %10, label %8, !dbg !4486

8:                                                ; preds = %4
  %9 = call i32 (%class.ErrorHandler*, i8*, ...) @_ZN12ErrorHandler5errorEPKcz(%class.ErrorHandler* %3, i8* getelementptr inbounds ([13 x i8], [13 x i8]* @.str.3, i64 0, i64 0)), !dbg !4487
  br label %16, !dbg !4488

10:                                               ; preds = %4
  %11 = load i8, i8* %5, align 1, !dbg !4489, !tbaa !4447, !range !2609
  call void @llvm.dbg.value(metadata i8 %11, metadata !4480, metadata !DIExpression()), !dbg !4481
  %12 = getelementptr inbounds %class.Element, %class.Element* %1, i64 0, i32 6, i64 0, !dbg !4491
  %13 = load i8, i8* %12, align 4, !dbg !4491, !tbaa !2488, !range !2609
  %14 = icmp eq i8 %11, %13, !dbg !4492
  br i1 %14, label %16, label %15, !dbg !4493

15:                                               ; preds = %10
  store i8 %11, i8* %12, align 4, !dbg !4494, !tbaa !2488
  call void @_ZN6Bypass3fixEv(%class.Bypass* nonnull %6), !dbg !4496
  br label %16, !dbg !4497

16:                                               ; preds = %15, %10, %8
  %17 = phi i32 [ %9, %8 ], [ 0, %10 ], [ 0, %15 ], !dbg !4481
  call void @llvm.lifetime.end.p0i8(i64 1, i8* nonnull %5) #16, !dbg !4498
  ret i32 %17, !dbg !4498
}

declare zeroext i1 @_ZN7BoolArg5parseERK6StringRbRK10ArgContext(%class.String* dereferenceable(24), i8* dereferenceable(1), %class.ArgContext* dereferenceable(32)) local_unnamed_addr #2

declare i32 @_ZN12ErrorHandler5errorEPKcz(%class.ErrorHandler*, i8*, ...) local_unnamed_addr #2

; Function Attrs: sspstrong uwtable
define dso_local void @_ZN6Bypass12add_handlersEv(%class.Bypass* %0) unnamed_addr #0 align 2 !dbg !4499 {
  call void @llvm.dbg.value(metadata %class.Bypass* %0, metadata !4501, metadata !DIExpression()), !dbg !4502
  %2 = bitcast %class.Bypass* %0 to %class.Element*, !dbg !4503
  %3 = getelementptr inbounds %class.Bypass, %class.Bypass* %0, i64 0, i32 1, !dbg !4504
  tail call void @_ZN7Element17add_data_handlersEPKciPb(%class.Element* %2, i8* getelementptr inbounds ([7 x i8], [7 x i8]* @.str.4, i64 0, i64 0), i32 1, i8* nonnull %3), !dbg !4503
  tail call void @_ZN7Element17add_write_handlerEPKcPFiRK6StringPS_PvP12ErrorHandlerEij(%class.Element* %2, i8* getelementptr inbounds ([7 x i8], [7 x i8]* @.str.4, i64 0, i64 0), i32 (%class.String*, %class.Element*, i8*, %class.ErrorHandler*)* nonnull @_ZN6Bypass13write_handlerERK6StringP7ElementPvP12ErrorHandler, i32 0, i32 0), !dbg !4505
  ret void, !dbg !4506
}

declare void @_ZN7Element17add_data_handlersEPKciPb(%class.Element*, i8*, i32, i8*) local_unnamed_addr #2

declare void @_ZN7Element17add_write_handlerEPKcPFiRK6StringPS_PvP12ErrorHandlerEij(%class.Element*, i8*, i32 (%class.String*, %class.Element*, i8*, %class.ErrorHandler*)*, i32, i32) local_unnamed_addr #2

; Function Attrs: nounwind
declare void @_ZN7ElementD2Ev(%class.Element*) unnamed_addr #5

; Function Attrs: inlinehint nounwind sspstrong uwtable
define linkonce_odr dso_local void @_ZN6BypassD0Ev(%class.Bypass* %0) unnamed_addr #9 comdat align 2 !dbg !4507 {
  call void @llvm.dbg.value(metadata %class.Bypass* %0, metadata !4510, metadata !DIExpression()), !dbg !4511
  %2 = bitcast %class.Bypass* %0 to %class.Element*, !dbg !4512
  tail call void @_ZN7ElementD2Ev(%class.Element* %2) #16, !dbg !4512
  %3 = bitcast %class.Bypass* %0 to i8*, !dbg !4512
  tail call void @_ZdlPv(i8* %3) #17, !dbg !4512
  ret void, !dbg !4512
}

declare %class.Packet* @_ZN7Element13simple_actionEP6Packet(%class.Element*, %class.Packet*) unnamed_addr #2

declare zeroext i1 @_ZN7Element8run_taskEP4Task(%class.Element*, %class.Task*) unnamed_addr #2

declare void @_ZN7Element9run_timerEP5Timer(%class.Element*, %class.Timer*) unnamed_addr #2

declare void @_ZN7Element8selectedEii(%class.Element*, i32, i32) unnamed_addr #2

declare void @_ZN7Element8selectedEi(%class.Element*, i32) unnamed_addr #2

; Function Attrs: nounwind sspstrong uwtable
define linkonce_odr dso_local i8* @_ZNK6Bypass10class_nameEv(%class.Bypass* %0) unnamed_addr #10 comdat align 2 !dbg !4513 {
  call void @llvm.dbg.value(metadata %class.Bypass* %0, metadata !4515, metadata !DIExpression()), !dbg !4517
  ret i8* getelementptr inbounds ([7 x i8], [7 x i8]* @.str, i64 0, i64 0), !dbg !4518
}

; Function Attrs: nounwind sspstrong uwtable
define linkonce_odr dso_local i8* @_ZNK6Bypass10port_countEv(%class.Bypass* %0) unnamed_addr #10 comdat align 2 !dbg !4519 {
  call void @llvm.dbg.value(metadata %class.Bypass* %0, metadata !4521, metadata !DIExpression()), !dbg !4522
  ret i8* getelementptr inbounds ([8 x i8], [8 x i8]* @.str.9, i64 0, i64 0), !dbg !4523
}

declare i8* @_ZNK7Element10processingEv(%class.Element*) unnamed_addr #2

; Function Attrs: nounwind sspstrong uwtable
define linkonce_odr dso_local i8* @_ZNK6Bypass9flow_codeEv(%class.Bypass* %0) unnamed_addr #10 comdat align 2 !dbg !4524 {
  call void @llvm.dbg.value(metadata %class.Bypass* %0, metadata !4526, metadata !DIExpression()), !dbg !4527
  ret i8* getelementptr inbounds ([9 x i8], [9 x i8]* @.str.10, i64 0, i64 0), !dbg !4528
}

declare i8* @_ZNK7Element5flagsEv(%class.Element*) unnamed_addr #2

declare i8* @_ZN7Element9port_castEbiPKc(%class.Element*, i1 zeroext, i32, i8*) unnamed_addr #2

declare i32 @_ZNK7Element15configure_phaseEv(%class.Element*) unnamed_addr #2

declare void @_ZN7Element10take_stateEPS_P12ErrorHandler(%class.Element*, %class.Element*, %class.ErrorHandler*) unnamed_addr #2

declare %class.Element* @_ZNK7Element15hotswap_elementEv(%class.Element*) unnamed_addr #2

declare void @_ZN7Element7cleanupENS_12CleanupStageE(%class.Element*, i32) unnamed_addr #2

declare void @_ZNK7Element11declarationEv(%class.String* sret, %class.Element*) unnamed_addr #2

declare zeroext i1 @_ZNK7Element20can_live_reconfigureEv(%class.Element*) unnamed_addr #2

declare i32 @_ZN7Element16live_reconfigureER6VectorI6StringEP12ErrorHandler(%class.Element*, %class.Vector.0* dereferenceable(16), %class.ErrorHandler*) unnamed_addr #2

declare i32 @_ZN7Element5llrpcEjPv(%class.Element*, i32, i8*) unnamed_addr #2

; Function Attrs: inlinehint nounwind sspstrong uwtable
define linkonce_odr dso_local void @_ZN6Bypass7LocatorD0Ev(%"struct.Bypass::Locator"* %0) unnamed_addr #9 comdat align 2 !dbg !4529 {
  call void @llvm.dbg.value(metadata %"struct.Bypass::Locator"* %0, metadata !4534, metadata !DIExpression()), !dbg !4535
  %2 = bitcast %"struct.Bypass::Locator"* %0 to i8*, !dbg !4536
  tail call void @_ZdlPv(i8* %2) #17, !dbg !4536
  ret void, !dbg !4536
}

; Function Attrs: inlinehint nounwind sspstrong uwtable
define linkonce_odr dso_local void @_ZN6Bypass8AssignerD0Ev(%"struct.Bypass::Assigner"* %0) unnamed_addr #9 comdat align 2 personality i32 (...)* @__gxx_personality_v0 !dbg !4537 {
  call void @llvm.dbg.value(metadata %"struct.Bypass::Assigner"* %0, metadata !4539, metadata !DIExpression()), !dbg !4540
  call void @llvm.dbg.value(metadata %"struct.Bypass::Assigner"* %0, metadata !3909, metadata !DIExpression()) #16, !dbg !4541
  %2 = getelementptr %"struct.Bypass::Assigner", %"struct.Bypass::Assigner"* %0, i64 0, i32 0, i32 0, !dbg !4543
  store i32 (...)** bitcast (i8** getelementptr inbounds ({ [5 x i8*] }, { [5 x i8*] }* @_ZTVN6Bypass8AssignerE, i64 0, inrange i32 0, i64 2) to i32 (...)**), i32 (...)*** %2, align 8, !dbg !4543, !tbaa !2484
  %3 = getelementptr inbounds %"struct.Bypass::Assigner", %"struct.Bypass::Assigner"* %0, i64 0, i32 3, !dbg !4544
  call void @llvm.dbg.value(metadata %class.Vector.5* %3, metadata !3918, metadata !DIExpression()) #16, !dbg !4545
  call void @llvm.dbg.value(metadata %class.Vector.5* %3, metadata !3925, metadata !DIExpression()) #16, !dbg !4547
  %4 = bitcast %class.Vector.5* %3 to i8**, !dbg !4549
  %5 = load i8*, i8** %4, align 8, !dbg !4550, !tbaa !3935
  %6 = icmp eq i8* %5, null, !dbg !4550
  br i1 %6, label %8, label %7, !dbg !4550

7:                                                ; preds = %1
  tail call void @_ZdaPv(i8* nonnull %5) #17, !dbg !4550
  br label %8, !dbg !4550

8:                                                ; preds = %1, %7
  %9 = bitcast %"struct.Bypass::Assigner"* %0 to i8*, !dbg !4551
  tail call void @_ZdlPv(i8* %9) #17, !dbg !4551
  ret void, !dbg !4551
}

; Function Attrs: noreturn nounwind
declare void @__assert_fail(i8*, i8*, i32, i8*) local_unnamed_addr #11

; Function Attrs: noinline noreturn nounwind
define linkonce_odr hidden void @__clang_call_terminate(i8* %0) local_unnamed_addr #12 comdat {
  %2 = tail call i8* @__cxa_begin_catch(i8* %0) #16
  tail call void @_ZSt9terminatev() #18
  unreachable
}

declare i8* @__cxa_begin_catch(i8*) local_unnamed_addr

declare void @_ZSt9terminatev() local_unnamed_addr

; Function Attrs: nobuiltin nounwind
declare void @_ZdaPv(i8*) local_unnamed_addr #13

; Function Attrs: nobuiltin nounwind
declare void @_ZdlPv(i8*) local_unnamed_addr #13

; Function Attrs: noinline optnone sspstrong uwtable
define linkonce_odr dso_local void @_Z14args_base_readIbEvP4ArgsPKciRT_(%class.Args* %0, i8* %1, i32 %2, i8* dereferenceable(1) %3) local_unnamed_addr #6 comdat !dbg !4552 {
  %5 = alloca %class.Args*, align 8
  %6 = alloca i8*, align 8
  %7 = alloca i32, align 4
  %8 = alloca i8*, align 8
  store %class.Args* %0, %class.Args** %5, align 8, !tbaa !2647
  call void @llvm.dbg.declare(metadata %class.Args** %5, metadata !4554, metadata !DIExpression()), !dbg !4558
  store i8* %1, i8** %6, align 8, !tbaa !2647
  call void @llvm.dbg.declare(metadata i8** %6, metadata !4555, metadata !DIExpression()), !dbg !4559
  store i32 %2, i32* %7, align 4, !tbaa !2642
  call void @llvm.dbg.declare(metadata i32* %7, metadata !4556, metadata !DIExpression()), !dbg !4560
  store i8* %3, i8** %8, align 8, !tbaa !2647
  call void @llvm.dbg.declare(metadata i8** %8, metadata !4557, metadata !DIExpression()), !dbg !4561
  %9 = load %class.Args*, %class.Args** %5, align 8, !dbg !4562, !tbaa !2647
  %10 = load i8*, i8** %6, align 8, !dbg !4563, !tbaa !2647
  %11 = load i32, i32* %7, align 4, !dbg !4564, !tbaa !2642
  %12 = load i8*, i8** %8, align 8, !dbg !4565, !tbaa !2647
  call void @_ZN4Args9base_readIbEEvPKciRT_(%class.Args* %9, i8* %10, i32 %11, i8* dereferenceable(1) %12), !dbg !4566
  ret void, !dbg !4567
}

; Function Attrs: sspstrong uwtable
define linkonce_odr dso_local void @_ZN4Args9base_readIbEEvPKciRT_(%class.Args* %0, i8* %1, i32 %2, i8* dereferenceable(1) %3) local_unnamed_addr #0 comdat align 2 personality i8* bitcast (i32 (...)* @__gxx_personality_v0 to i8*) !dbg !4568 {
  %5 = alloca %"struct.Args::Slot"*, align 8
  %6 = alloca %class.String, align 8
  call void @llvm.dbg.value(metadata %class.Args* %0, metadata !4573, metadata !DIExpression()), !dbg !4582
  call void @llvm.dbg.value(metadata i8* %1, metadata !4574, metadata !DIExpression()), !dbg !4582
  call void @llvm.dbg.value(metadata i32 %2, metadata !4575, metadata !DIExpression()), !dbg !4582
  call void @llvm.dbg.value(metadata i8* %3, metadata !4576, metadata !DIExpression()), !dbg !4582
  %7 = bitcast %"struct.Args::Slot"** %5 to i8*, !dbg !4583
  call void @llvm.lifetime.start.p0i8(i64 8, i8* nonnull %7) #16, !dbg !4583
  %8 = bitcast %class.String* %6 to i8*, !dbg !4584
  call void @llvm.lifetime.start.p0i8(i64 24, i8* nonnull %8) #16, !dbg !4584
  call void @llvm.dbg.declare(metadata %class.String* %6, metadata !4578, metadata !DIExpression()), !dbg !4585
  call void @llvm.dbg.value(metadata %"struct.Args::Slot"** %5, metadata !4577, metadata !DIExpression(DW_OP_deref)), !dbg !4582
  call void @_ZN4Args4findEPKciRPNS_4SlotE(%class.String* nonnull sret %6, %class.Args* %0, i8* %1, i32 %2, %"struct.Args::Slot"** nonnull dereferenceable(8) %5), !dbg !4586
  call void @llvm.dbg.value(metadata %class.String* %6, metadata !4587, metadata !DIExpression()), !dbg !4590
  %9 = getelementptr inbounds %class.String, %class.String* %6, i64 0, i32 0, i32 1, !dbg !4592
  %10 = load i32, i32* %9, align 8, !dbg !4592, !tbaa !4593
  %11 = icmp eq i32 %10, 0, !dbg !4596
  %12 = select i1 %11, { i64, i64 } zeroinitializer, { i64, i64 } { i64 ptrtoint (i32 (%class.String*)* @_ZNK6String6lengthEv to i64), i64 0 }, !dbg !4597
  %13 = extractvalue { i64, i64 } %12, 0, !dbg !4585
  %14 = icmp eq i64 %13, 0, !dbg !4585
  br i1 %14, label %45, label %15, !dbg !4584

15:                                               ; preds = %4
  call void @llvm.dbg.value(metadata i8* %3, metadata !4598, metadata !DIExpression()), !dbg !4623
  call void @llvm.dbg.value(metadata %class.Args* %0, metadata !4622, metadata !DIExpression()), !dbg !4623
  call void @llvm.dbg.value(metadata %class.Args* %0, metadata !4625, metadata !DIExpression()), !dbg !4632
  call void @llvm.dbg.value(metadata i8* %3, metadata !4631, metadata !DIExpression()), !dbg !4632
  %16 = invoke i8* @_ZN4Args11simple_slotEPvm(%class.Args* nonnull %0, i8* nonnull %3, i64 1)
          to label %17 unwind label %25, !dbg !4634

17:                                               ; preds = %15
  call void @llvm.dbg.value(metadata i8* %16, metadata !4580, metadata !DIExpression()), !dbg !4636
  %18 = icmp eq i8* %16, null, !dbg !4637
  br i1 %18, label %22, label %19, !dbg !4638

19:                                               ; preds = %17
  call void @llvm.dbg.value(metadata %class.String* %6, metadata !4639, metadata !DIExpression()), !dbg !4648
  call void @llvm.dbg.value(metadata i8* %16, metadata !4646, metadata !DIExpression()), !dbg !4648
  call void @llvm.dbg.value(metadata %class.Args* %0, metadata !4647, metadata !DIExpression()), !dbg !4648
  %20 = bitcast %class.Args* %0 to %class.ArgContext*, !dbg !4650
  %21 = invoke zeroext i1 @_ZN7BoolArg5parseERK6StringRbRK10ArgContext(%class.String* nonnull dereferenceable(24) %6, i8* nonnull dereferenceable(1) %16, %class.ArgContext* nonnull dereferenceable(32) %20)
          to label %22 unwind label %25, !dbg !4651

22:                                               ; preds = %19, %17
  %23 = phi i1 [ false, %17 ], [ %21, %19 ], !dbg !4636
  %24 = load %"struct.Args::Slot"*, %"struct.Args::Slot"** %5, align 8, !dbg !4652, !tbaa !2647
  call void @llvm.dbg.value(metadata %"struct.Args::Slot"* %24, metadata !4577, metadata !DIExpression()), !dbg !4582
  invoke void @_ZN4Args9postparseEbPNS_4SlotE(%class.Args* nonnull %0, i1 zeroext %23, %"struct.Args::Slot"* %24)
          to label %45 unwind label %25, !dbg !4653

25:                                               ; preds = %19, %15, %22
  %26 = landingpad { i8*, i32 }
          cleanup, !dbg !4654
  call void @llvm.dbg.value(metadata %class.String* %6, metadata !4655, metadata !DIExpression()) #16, !dbg !4658
  call void @llvm.dbg.value(metadata %class.String* %6, metadata !4660, metadata !DIExpression()) #16, !dbg !4663
  %27 = getelementptr inbounds %class.String, %class.String* %6, i64 0, i32 0, i32 2, !dbg !4666
  %28 = load %"struct.String::memo_t"*, %"struct.String::memo_t"** %27, align 8, !dbg !4666, !tbaa !4668
  %29 = icmp eq %"struct.String::memo_t"* %28, null, !dbg !4669
  br i1 %29, label %44, label %30, !dbg !4670

30:                                               ; preds = %25
  %31 = getelementptr inbounds %"struct.String::memo_t", %"struct.String::memo_t"* %28, i64 0, i32 0, !dbg !4671
  %32 = load volatile i32, i32* %31, align 4, !dbg !4671, !tbaa !4673
  %33 = icmp eq i32 %32, 0, !dbg !4671
  br i1 %33, label %34, label %35, !dbg !4671

34:                                               ; preds = %30
  call void @__assert_fail(i8* getelementptr inbounds ([18 x i8], [18 x i8]* @.str.11, i64 0, i64 0), i8* getelementptr inbounds ([29 x i8], [29 x i8]* @.str.12, i64 0, i64 0), i32 273, i8* getelementptr inbounds ([27 x i8], [27 x i8]* @__PRETTY_FUNCTION__._ZNK6String5derefEv, i64 0, i64 0)) #18, !dbg !4671
  unreachable, !dbg !4671

35:                                               ; preds = %30
  call void @llvm.dbg.value(metadata i32* %31, metadata !4675, metadata !DIExpression()) #16, !dbg !4678
  %36 = load volatile i32, i32* %31, align 4, !dbg !4681, !tbaa !2642
  %37 = add i32 %36, -1, !dbg !4681
  store volatile i32 %37, i32* %31, align 4, !dbg !4681, !tbaa !2642
  %38 = icmp eq i32 %37, 0, !dbg !4682
  br i1 %38, label %39, label %40, !dbg !4683

39:                                               ; preds = %35
  invoke void @_ZN6String11delete_memoEPNS_6memo_tE(%"struct.String::memo_t"* nonnull %28)
          to label %40 unwind label %41, !dbg !4684

40:                                               ; preds = %39, %35
  store %"struct.String::memo_t"* null, %"struct.String::memo_t"** %27, align 8, !dbg !4685, !tbaa !4668
  br label %44, !dbg !4686

41:                                               ; preds = %39
  %42 = landingpad { i8*, i32 }
          catch i8* null, !dbg !4687
  %43 = extractvalue { i8*, i32 } %42, 0, !dbg !4687
  call void @__clang_call_terminate(i8* %43) #18, !dbg !4687
  unreachable, !dbg !4687

44:                                               ; preds = %25, %40
  call void @llvm.lifetime.end.p0i8(i64 24, i8* nonnull %8) #16, !dbg !4584
  call void @llvm.lifetime.end.p0i8(i64 8, i8* nonnull %7) #16, !dbg !4688
  resume { i8*, i32 } %26, !dbg !4688

45:                                               ; preds = %22, %4
  call void @llvm.dbg.value(metadata %class.String* %6, metadata !4655, metadata !DIExpression()) #16, !dbg !4689
  call void @llvm.dbg.value(metadata %class.String* %6, metadata !4660, metadata !DIExpression()) #16, !dbg !4691
  %46 = getelementptr inbounds %class.String, %class.String* %6, i64 0, i32 0, i32 2, !dbg !4693
  %47 = load %"struct.String::memo_t"*, %"struct.String::memo_t"** %46, align 8, !dbg !4693, !tbaa !4668
  %48 = icmp eq %"struct.String::memo_t"* %47, null, !dbg !4694
  br i1 %48, label %63, label %49, !dbg !4695

49:                                               ; preds = %45
  %50 = getelementptr inbounds %"struct.String::memo_t", %"struct.String::memo_t"* %47, i64 0, i32 0, !dbg !4696
  %51 = load volatile i32, i32* %50, align 4, !dbg !4696, !tbaa !4673
  %52 = icmp eq i32 %51, 0, !dbg !4696
  br i1 %52, label %53, label %54, !dbg !4696

53:                                               ; preds = %49
  call void @__assert_fail(i8* getelementptr inbounds ([18 x i8], [18 x i8]* @.str.11, i64 0, i64 0), i8* getelementptr inbounds ([29 x i8], [29 x i8]* @.str.12, i64 0, i64 0), i32 273, i8* getelementptr inbounds ([27 x i8], [27 x i8]* @__PRETTY_FUNCTION__._ZNK6String5derefEv, i64 0, i64 0)) #18, !dbg !4696
  unreachable, !dbg !4696

54:                                               ; preds = %49
  call void @llvm.dbg.value(metadata i32* %50, metadata !4675, metadata !DIExpression()) #16, !dbg !4697
  %55 = load volatile i32, i32* %50, align 4, !dbg !4699, !tbaa !2642
  %56 = add i32 %55, -1, !dbg !4699
  store volatile i32 %56, i32* %50, align 4, !dbg !4699, !tbaa !2642
  %57 = icmp eq i32 %56, 0, !dbg !4700
  br i1 %57, label %58, label %59, !dbg !4701

58:                                               ; preds = %54
  invoke void @_ZN6String11delete_memoEPNS_6memo_tE(%"struct.String::memo_t"* nonnull %47)
          to label %59 unwind label %60, !dbg !4702

59:                                               ; preds = %58, %54
  store %"struct.String::memo_t"* null, %"struct.String::memo_t"** %46, align 8, !dbg !4703, !tbaa !4668
  br label %63, !dbg !4704

60:                                               ; preds = %58
  %61 = landingpad { i8*, i32 }
          catch i8* null, !dbg !4705
  %62 = extractvalue { i8*, i32 } %61, 0, !dbg !4705
  call void @__clang_call_terminate(i8* %62) #18, !dbg !4705
  unreachable, !dbg !4705

63:                                               ; preds = %45, %59
  call void @llvm.lifetime.end.p0i8(i64 24, i8* nonnull %8) #16, !dbg !4584
  call void @llvm.lifetime.end.p0i8(i64 8, i8* nonnull %7) #16, !dbg !4688
  ret void, !dbg !4688
}

declare void @_ZN4Args4findEPKciRPNS_4SlotE(%class.String* sret, %class.Args*, i8*, i32, %"struct.Args::Slot"** dereferenceable(8)) local_unnamed_addr #2

declare void @_ZN4Args9postparseEbPNS_4SlotE(%class.Args*, i1 zeroext, %"struct.Args::Slot"*) local_unnamed_addr #2

; Function Attrs: inlinehint nounwind sspstrong uwtable
define linkonce_odr dso_local i32 @_ZNK6String6lengthEv(%class.String* %0) #9 comdat align 2 !dbg !4706 {
  call void @llvm.dbg.value(metadata %class.String* %0, metadata !4708, metadata !DIExpression()), !dbg !4709
  %2 = getelementptr inbounds %class.String, %class.String* %0, i64 0, i32 0, i32 1, !dbg !4710
  %3 = load i32, i32* %2, align 8, !dbg !4710, !tbaa !4593
  ret i32 %3, !dbg !4711
}

declare i8* @_ZN4Args11simple_slotEPvm(%class.Args*, i8*, i64) local_unnamed_addr #2

declare void @_ZN6String11delete_memoEPNS_6memo_tE(%"struct.String::memo_t"*) local_unnamed_addr #2

; Function Attrs: nobuiltin nofree
declare noalias nonnull i8* @_Znam(i64) local_unnamed_addr #14

; Function Attrs: argmemonly nounwind willreturn
declare void @llvm.memmove.p0i8.p0i8.i64(i8* nocapture, i8* nocapture readonly, i64, i1 immarg) #4

; Function Attrs: nounwind readnone speculatable willreturn
declare void @llvm.dbg.value(metadata, metadata, metadata) #1

; Function Attrs: argmemonly nounwind willreturn
declare void @llvm.memset.p0i8.i64(i8* nocapture writeonly, i8, i64, i1 immarg) #4

attributes #0 = { sspstrong uwtable "correctly-rounded-divide-sqrt-fp-math"="false" "disable-tail-calls"="false" "frame-pointer"="none" "less-precise-fpmad"="false" "min-legal-vector-width"="0" "no-infs-fp-math"="false" "no-jump-tables"="false" "no-nans-fp-math"="false" "no-signed-zeros-fp-math"="false" "no-trapping-math"="false" "stack-protector-buffer-size"="8" "target-cpu"="x86-64" "target-features"="+cx8,+fxsr,+mmx,+sse,+sse2,+x87" "unsafe-fp-math"="false" "use-soft-float"="false" }
attributes #1 = { nounwind readnone speculatable willreturn }
attributes #2 = { "correctly-rounded-divide-sqrt-fp-math"="false" "disable-tail-calls"="false" "frame-pointer"="none" "less-precise-fpmad"="false" "no-infs-fp-math"="false" "no-nans-fp-math"="false" "no-signed-zeros-fp-math"="false" "no-trapping-math"="false" "stack-protector-buffer-size"="8" "target-cpu"="x86-64" "target-features"="+cx8,+fxsr,+mmx,+sse,+sse2,+x87" "unsafe-fp-math"="false" "use-soft-float"="false" }
attributes #3 = { nofree nounwind readonly "correctly-rounded-divide-sqrt-fp-math"="false" "disable-tail-calls"="false" "frame-pointer"="none" "less-precise-fpmad"="false" "no-infs-fp-math"="false" "no-nans-fp-math"="false" "no-signed-zeros-fp-math"="false" "no-trapping-math"="false" "stack-protector-buffer-size"="8" "target-cpu"="x86-64" "target-features"="+cx8,+fxsr,+mmx,+sse,+sse2,+x87" "unsafe-fp-math"="false" "use-soft-float"="false" }
attributes #4 = { argmemonly nounwind willreturn }
attributes #5 = { nounwind "correctly-rounded-divide-sqrt-fp-math"="false" "disable-tail-calls"="false" "frame-pointer"="none" "less-precise-fpmad"="false" "no-infs-fp-math"="false" "no-nans-fp-math"="false" "no-signed-zeros-fp-math"="false" "no-trapping-math"="false" "stack-protector-buffer-size"="8" "target-cpu"="x86-64" "target-features"="+cx8,+fxsr,+mmx,+sse,+sse2,+x87" "unsafe-fp-math"="false" "use-soft-float"="false" }
attributes #6 = { noinline optnone sspstrong uwtable "correctly-rounded-divide-sqrt-fp-math"="false" "disable-tail-calls"="false" "frame-pointer"="none" "less-precise-fpmad"="false" "min-legal-vector-width"="0" "no-infs-fp-math"="false" "no-jump-tables"="false" "no-nans-fp-math"="false" "no-signed-zeros-fp-math"="false" "no-trapping-math"="false" "stack-protector-buffer-size"="8" "target-cpu"="x86-64" "target-features"="+cx8,+fxsr,+mmx,+sse,+sse2,+x87" "unsafe-fp-math"="false" "use-soft-float"="false" }
attributes #7 = { nofree norecurse nounwind sspstrong uwtable writeonly "correctly-rounded-divide-sqrt-fp-math"="false" "disable-tail-calls"="false" "frame-pointer"="none" "less-precise-fpmad"="false" "min-legal-vector-width"="0" "no-infs-fp-math"="false" "no-jump-tables"="false" "no-nans-fp-math"="false" "no-signed-zeros-fp-math"="false" "no-trapping-math"="false" "stack-protector-buffer-size"="8" "target-cpu"="x86-64" "target-features"="+cx8,+fxsr,+mmx,+sse,+sse2,+x87" "unsafe-fp-math"="false" "use-soft-float"="false" }
attributes #8 = { noinline nounwind optnone sspstrong uwtable "correctly-rounded-divide-sqrt-fp-math"="false" "disable-tail-calls"="false" "frame-pointer"="none" "less-precise-fpmad"="false" "min-legal-vector-width"="0" "no-infs-fp-math"="false" "no-jump-tables"="false" "no-nans-fp-math"="false" "no-signed-zeros-fp-math"="false" "no-trapping-math"="false" "stack-protector-buffer-size"="8" "target-cpu"="x86-64" "target-features"="+cx8,+fxsr,+mmx,+sse,+sse2,+x87" "unsafe-fp-math"="false" "use-soft-float"="false" }
attributes #9 = { inlinehint nounwind sspstrong uwtable "correctly-rounded-divide-sqrt-fp-math"="false" "disable-tail-calls"="false" "frame-pointer"="none" "less-precise-fpmad"="false" "min-legal-vector-width"="0" "no-infs-fp-math"="false" "no-jump-tables"="false" "no-nans-fp-math"="false" "no-signed-zeros-fp-math"="false" "no-trapping-math"="false" "stack-protector-buffer-size"="8" "target-cpu"="x86-64" "target-features"="+cx8,+fxsr,+mmx,+sse,+sse2,+x87" "unsafe-fp-math"="false" "use-soft-float"="false" }
attributes #10 = { nounwind sspstrong uwtable "correctly-rounded-divide-sqrt-fp-math"="false" "disable-tail-calls"="false" "frame-pointer"="none" "less-precise-fpmad"="false" "min-legal-vector-width"="0" "no-infs-fp-math"="false" "no-jump-tables"="false" "no-nans-fp-math"="false" "no-signed-zeros-fp-math"="false" "no-trapping-math"="false" "stack-protector-buffer-size"="8" "target-cpu"="x86-64" "target-features"="+cx8,+fxsr,+mmx,+sse,+sse2,+x87" "unsafe-fp-math"="false" "use-soft-float"="false" }
attributes #11 = { noreturn nounwind "correctly-rounded-divide-sqrt-fp-math"="false" "disable-tail-calls"="false" "frame-pointer"="none" "less-precise-fpmad"="false" "no-infs-fp-math"="false" "no-nans-fp-math"="false" "no-signed-zeros-fp-math"="false" "no-trapping-math"="false" "stack-protector-buffer-size"="8" "target-cpu"="x86-64" "target-features"="+cx8,+fxsr,+mmx,+sse,+sse2,+x87" "unsafe-fp-math"="false" "use-soft-float"="false" }
attributes #12 = { noinline noreturn nounwind }
attributes #13 = { nobuiltin nounwind "correctly-rounded-divide-sqrt-fp-math"="false" "disable-tail-calls"="false" "frame-pointer"="none" "less-precise-fpmad"="false" "no-infs-fp-math"="false" "no-nans-fp-math"="false" "no-signed-zeros-fp-math"="false" "no-trapping-math"="false" "stack-protector-buffer-size"="8" "target-cpu"="x86-64" "target-features"="+cx8,+fxsr,+mmx,+sse,+sse2,+x87" "unsafe-fp-math"="false" "use-soft-float"="false" }
attributes #14 = { nobuiltin nofree "correctly-rounded-divide-sqrt-fp-math"="false" "disable-tail-calls"="false" "frame-pointer"="none" "less-precise-fpmad"="false" "no-infs-fp-math"="false" "no-nans-fp-math"="false" "no-signed-zeros-fp-math"="false" "no-trapping-math"="false" "stack-protector-buffer-size"="8" "target-cpu"="x86-64" "target-features"="+cx8,+fxsr,+mmx,+sse,+sse2,+x87" "unsafe-fp-math"="false" "use-soft-float"="false" }
attributes #15 = { nounwind readonly }
attributes #16 = { nounwind }
attributes #17 = { builtin nounwind }
attributes #18 = { noreturn nounwind }
attributes #19 = { builtin }

!llvm.dbg.cu = !{!0}
!llvm.module.flags = !{!2472, !2473, !2474, !2475, !2476}
!llvm.ident = !{!2477}

!0 = distinct !DICompileUnit(language: DW_LANG_C_plus_plus_14, file: !1, producer: "clang version 10.0.0 ", isOptimized: true, runtimeVersion: 0, emissionKind: FullDebug, enums: !2, retainedTypes: !1273, imports: !1852, splitDebugInlining: false, nameTableKind: None)
!1 = !DIFile(filename: "../elements/standard/bypass.cc", directory: "/home/john/projects/click/ir-dir")
!2 = !{!3, !857, !1162}
!3 = !DICompositeType(tag: DW_TAG_enumeration_type, name: "PacketType", scope: !5, file: !4, line: 368, baseType: !16, size: 32, elements: !1154, identifier: "_ZTSN6Packet10PacketTypeE")
!4 = !DIFile(filename: "../dummy_inc/click/packet.hh", directory: "/home/john/projects/click/ir-dir")
!5 = distinct !DICompositeType(tag: DW_TAG_class_type, name: "Packet", file: !4, line: 35, size: 1344, flags: DIFlagTypePassByReference | DIFlagNonTrivial, elements: !6, identifier: "_ZTS6Packet")
!6 = !{!7, !77, !79, !82, !83, !84, !85, !128, !136, !137, !226, !229, !232, !235, !238, !242, !246, !249, !252, !257, !258, !261, !262, !263, !264, !265, !266, !269, !272, !275, !276, !279, !280, !283, !286, !287, !288, !289, !292, !295, !298, !301, !302, !303, !306, !307, !308, !311, !312, !313, !314, !315, !316, !317, !318, !319, !320, !321, !322, !323, !324, !325, !326, !331, !334, !339, !340, !341, !344, !349, !350, !351, !354, !357, !362, !367, !372, !377, !381, !898, !902, !905, !911, !914, !917, !920, !923, !927, !930, !931, !932, !933, !1023, !1026, !1027, !1030, !1034, !1039, !1043, !1048, !1051, !1054, !1057, !1060, !1066, !1069, !1072, !1075, !1078, !1081, !1084, !1087, !1090, !1093, !1094, !1097, !1101, !1102, !1103, !1104, !1105, !1106, !1107, !1108, !1109, !1110, !1111, !1112, !1113, !1114, !1115, !1116, !1117, !1118, !1119, !1120, !1121, !1122, !1123, !1124, !1125, !1126, !1127, !1128, !1129, !1130, !1131, !1132, !1133, !1134, !1135, !1138, !1139, !1143, !1146, !1149, !1152, !1153}
!7 = !DIDerivedType(tag: DW_TAG_member, name: "_use_count", scope: !5, file: !4, line: 731, baseType: !8, size: 32)
!8 = distinct !DICompositeType(tag: DW_TAG_class_type, name: "atomic_uint32_t", file: !9, line: 52, size: 32, flags: DIFlagTypePassByValue, elements: !10, identifier: "_ZTS15atomic_uint32_t")
!9 = !DIFile(filename: "../dummy_inc/click/atomic.hh", directory: "/home/john/projects/click/ir-dir")
!10 = !{!11, !17, !22, !23, !28, !35, !36, !37, !38, !41, !44, !45, !46, !49, !50, !54, !57, !60, !65, !68, !71, !74}
!11 = !DIDerivedType(tag: DW_TAG_member, name: "_val", scope: !8, file: !9, line: 91, baseType: !12, size: 32)
!12 = !DIDerivedType(tag: DW_TAG_typedef, name: "uint32_t", file: !13, line: 26, baseType: !14)
!13 = !DIFile(filename: "/usr/include/bits/stdint-uintn.h", directory: "")
!14 = !DIDerivedType(tag: DW_TAG_typedef, name: "__uint32_t", file: !15, line: 42, baseType: !16)
!15 = !DIFile(filename: "/usr/include/bits/types.h", directory: "")
!16 = !DIBasicType(name: "unsigned int", size: 32, encoding: DW_ATE_unsigned)
!17 = !DISubprogram(name: "value", linkageName: "_ZNK15atomic_uint32_t5valueEv", scope: !8, file: !9, line: 57, type: !18, scopeLine: 57, flags: DIFlagPublic | DIFlagPrototyped, spFlags: DISPFlagOptimized)
!18 = !DISubroutineType(types: !19)
!19 = !{!12, !20}
!20 = !DIDerivedType(tag: DW_TAG_pointer_type, baseType: !21, size: 64, flags: DIFlagArtificial | DIFlagObjectPointer)
!21 = !DIDerivedType(tag: DW_TAG_const_type, baseType: !8)
!22 = !DISubprogram(name: "operator unsigned int", linkageName: "_ZNK15atomic_uint32_tcvjEv", scope: !8, file: !9, line: 58, type: !18, scopeLine: 58, flags: DIFlagPublic | DIFlagPrototyped, spFlags: DISPFlagOptimized)
!23 = !DISubprogram(name: "operator=", linkageName: "_ZN15atomic_uint32_taSEj", scope: !8, file: !9, line: 60, type: !24, scopeLine: 60, flags: DIFlagPublic | DIFlagPrototyped, spFlags: DISPFlagOptimized)
!24 = !DISubroutineType(types: !25)
!25 = !{!26, !27, !12}
!26 = !DIDerivedType(tag: DW_TAG_reference_type, baseType: !8, size: 64)
!27 = !DIDerivedType(tag: DW_TAG_pointer_type, baseType: !8, size: 64, flags: DIFlagArtificial | DIFlagObjectPointer)
!28 = !DISubprogram(name: "operator+=", linkageName: "_ZN15atomic_uint32_tpLEi", scope: !8, file: !9, line: 62, type: !29, scopeLine: 62, flags: DIFlagPublic | DIFlagPrototyped, spFlags: DISPFlagOptimized)
!29 = !DISubroutineType(types: !30)
!30 = !{!26, !27, !31}
!31 = !DIDerivedType(tag: DW_TAG_typedef, name: "int32_t", file: !32, line: 26, baseType: !33)
!32 = !DIFile(filename: "/usr/include/bits/stdint-intn.h", directory: "")
!33 = !DIDerivedType(tag: DW_TAG_typedef, name: "__int32_t", file: !15, line: 41, baseType: !34)
!34 = !DIBasicType(name: "int", size: 32, encoding: DW_ATE_signed)
!35 = !DISubprogram(name: "operator-=", linkageName: "_ZN15atomic_uint32_tmIEi", scope: !8, file: !9, line: 63, type: !29, scopeLine: 63, flags: DIFlagPublic | DIFlagPrototyped, spFlags: DISPFlagOptimized)
!36 = !DISubprogram(name: "operator|=", linkageName: "_ZN15atomic_uint32_toREj", scope: !8, file: !9, line: 64, type: !24, scopeLine: 64, flags: DIFlagPublic | DIFlagPrototyped, spFlags: DISPFlagOptimized)
!37 = !DISubprogram(name: "operator&=", linkageName: "_ZN15atomic_uint32_taNEj", scope: !8, file: !9, line: 65, type: !24, scopeLine: 65, flags: DIFlagPublic | DIFlagPrototyped, spFlags: DISPFlagOptimized)
!38 = !DISubprogram(name: "operator++", linkageName: "_ZN15atomic_uint32_tppEv", scope: !8, file: !9, line: 67, type: !39, scopeLine: 67, flags: DIFlagPublic | DIFlagPrototyped, spFlags: DISPFlagOptimized)
!39 = !DISubroutineType(types: !40)
!40 = !{null, !27}
!41 = !DISubprogram(name: "operator++", linkageName: "_ZN15atomic_uint32_tppEi", scope: !8, file: !9, line: 68, type: !42, scopeLine: 68, flags: DIFlagPublic | DIFlagPrototyped, spFlags: DISPFlagOptimized)
!42 = !DISubroutineType(types: !43)
!43 = !{null, !27, !34}
!44 = !DISubprogram(name: "operator--", linkageName: "_ZN15atomic_uint32_tmmEv", scope: !8, file: !9, line: 69, type: !39, scopeLine: 69, flags: DIFlagPublic | DIFlagPrototyped, spFlags: DISPFlagOptimized)
!45 = !DISubprogram(name: "operator--", linkageName: "_ZN15atomic_uint32_tmmEi", scope: !8, file: !9, line: 70, type: !42, scopeLine: 70, flags: DIFlagPublic | DIFlagPrototyped, spFlags: DISPFlagOptimized)
!46 = !DISubprogram(name: "swap", linkageName: "_ZN15atomic_uint32_t4swapEj", scope: !8, file: !9, line: 72, type: !47, scopeLine: 72, flags: DIFlagPublic | DIFlagPrototyped, spFlags: DISPFlagOptimized)
!47 = !DISubroutineType(types: !48)
!48 = !{!12, !27, !12}
!49 = !DISubprogram(name: "fetch_and_add", linkageName: "_ZN15atomic_uint32_t13fetch_and_addEj", scope: !8, file: !9, line: 73, type: !47, scopeLine: 73, flags: DIFlagPublic | DIFlagPrototyped, spFlags: DISPFlagOptimized)
!50 = !DISubprogram(name: "dec_and_test", linkageName: "_ZN15atomic_uint32_t12dec_and_testEv", scope: !8, file: !9, line: 74, type: !51, scopeLine: 74, flags: DIFlagPublic | DIFlagPrototyped, spFlags: DISPFlagOptimized)
!51 = !DISubroutineType(types: !52)
!52 = !{!53, !27}
!53 = !DIBasicType(name: "bool", size: 8, encoding: DW_ATE_boolean)
!54 = !DISubprogram(name: "compare_swap", linkageName: "_ZN15atomic_uint32_t12compare_swapEjj", scope: !8, file: !9, line: 75, type: !55, scopeLine: 75, flags: DIFlagPublic | DIFlagPrototyped, spFlags: DISPFlagOptimized)
!55 = !DISubroutineType(types: !56)
!56 = !{!12, !27, !12, !12}
!57 = !DISubprogram(name: "compare_and_swap", linkageName: "_ZN15atomic_uint32_t16compare_and_swapEjj", scope: !8, file: !9, line: 76, type: !58, scopeLine: 76, flags: DIFlagPublic | DIFlagPrototyped, spFlags: DISPFlagOptimized)
!58 = !DISubroutineType(types: !59)
!59 = !{!53, !27, !12, !12}
!60 = !DISubprogram(name: "swap", linkageName: "_ZN15atomic_uint32_t4swapERVjj", scope: !8, file: !9, line: 78, type: !61, scopeLine: 78, flags: DIFlagPublic | DIFlagPrototyped | DIFlagStaticMember, spFlags: DISPFlagOptimized)
!61 = !DISubroutineType(types: !62)
!62 = !{!12, !63, !12}
!63 = !DIDerivedType(tag: DW_TAG_reference_type, baseType: !64, size: 64)
!64 = !DIDerivedType(tag: DW_TAG_volatile_type, baseType: !12)
!65 = !DISubprogram(name: "inc", linkageName: "_ZN15atomic_uint32_t3incERVj", scope: !8, file: !9, line: 79, type: !66, scopeLine: 79, flags: DIFlagPublic | DIFlagPrototyped | DIFlagStaticMember, spFlags: DISPFlagOptimized)
!66 = !DISubroutineType(types: !67)
!67 = !{null, !63}
!68 = !DISubprogram(name: "dec_and_test", linkageName: "_ZN15atomic_uint32_t12dec_and_testERVj", scope: !8, file: !9, line: 80, type: !69, scopeLine: 80, flags: DIFlagPublic | DIFlagPrototyped | DIFlagStaticMember, spFlags: DISPFlagOptimized)
!69 = !DISubroutineType(types: !70)
!70 = !{!53, !63}
!71 = !DISubprogram(name: "compare_swap", linkageName: "_ZN15atomic_uint32_t12compare_swapERVjjj", scope: !8, file: !9, line: 81, type: !72, scopeLine: 81, flags: DIFlagPublic | DIFlagPrototyped | DIFlagStaticMember, spFlags: DISPFlagOptimized)
!72 = !DISubroutineType(types: !73)
!73 = !{!12, !63, !12, !12}
!74 = !DISubprogram(name: "compare_and_swap", linkageName: "_ZN15atomic_uint32_t16compare_and_swapERVjjj", scope: !8, file: !9, line: 82, type: !75, scopeLine: 82, flags: DIFlagPublic | DIFlagPrototyped | DIFlagStaticMember, spFlags: DISPFlagOptimized)
!75 = !DISubroutineType(types: !76)
!76 = !{!53, !63, !12, !12}
!77 = !DIDerivedType(tag: DW_TAG_member, name: "_data_packet", scope: !5, file: !4, line: 732, baseType: !78, size: 64, offset: 64)
!78 = !DIDerivedType(tag: DW_TAG_pointer_type, baseType: !5, size: 64)
!79 = !DIDerivedType(tag: DW_TAG_member, name: "_head", scope: !5, file: !4, line: 734, baseType: !80, size: 64, offset: 128)
!80 = !DIDerivedType(tag: DW_TAG_pointer_type, baseType: !81, size: 64)
!81 = !DIBasicType(name: "unsigned char", size: 8, encoding: DW_ATE_unsigned_char)
!82 = !DIDerivedType(tag: DW_TAG_member, name: "_data", scope: !5, file: !4, line: 735, baseType: !80, size: 64, offset: 192)
!83 = !DIDerivedType(tag: DW_TAG_member, name: "_tail", scope: !5, file: !4, line: 736, baseType: !80, size: 64, offset: 256)
!84 = !DIDerivedType(tag: DW_TAG_member, name: "_end", scope: !5, file: !4, line: 737, baseType: !80, size: 64, offset: 320)
!85 = !DIDerivedType(tag: DW_TAG_member, name: "_aa", scope: !5, file: !4, line: 741, baseType: !86, size: 832, offset: 384)
!86 = distinct !DICompositeType(tag: DW_TAG_structure_type, name: "AllAnno", scope: !5, file: !4, line: 716, size: 832, flags: DIFlagTypePassByValue, elements: !87, identifier: "_ZTSN6Packet7AllAnnoE")
!87 = !{!88, !118, !119, !120, !121, !122, !126, !127}
!88 = !DIDerivedType(tag: DW_TAG_member, name: "cb", scope: !86, file: !4, line: 717, baseType: !89, size: 384)
!89 = distinct !DICompositeType(tag: DW_TAG_union_type, name: "Anno", scope: !5, file: !4, line: 702, size: 384, flags: DIFlagTypePassByValue, elements: !90, identifier: "_ZTSN6Packet4AnnoE")
!90 = !{!91, !96, !100, !107, !111}
!91 = !DIDerivedType(tag: DW_TAG_member, name: "c", scope: !89, file: !4, line: 703, baseType: !92, size: 384)
!92 = !DICompositeType(tag: DW_TAG_array_type, baseType: !93, size: 384, elements: !94)
!93 = !DIBasicType(name: "char", size: 8, encoding: DW_ATE_signed_char)
!94 = !{!95}
!95 = !DISubrange(count: 48)
!96 = !DIDerivedType(tag: DW_TAG_member, name: "u8", scope: !89, file: !4, line: 704, baseType: !97, size: 384)
!97 = !DICompositeType(tag: DW_TAG_array_type, baseType: !98, size: 384, elements: !94)
!98 = !DIDerivedType(tag: DW_TAG_typedef, name: "uint8_t", file: !13, line: 24, baseType: !99)
!99 = !DIDerivedType(tag: DW_TAG_typedef, name: "__uint8_t", file: !15, line: 38, baseType: !81)
!100 = !DIDerivedType(tag: DW_TAG_member, name: "u16", scope: !89, file: !4, line: 705, baseType: !101, size: 384)
!101 = !DICompositeType(tag: DW_TAG_array_type, baseType: !102, size: 384, elements: !105)
!102 = !DIDerivedType(tag: DW_TAG_typedef, name: "uint16_t", file: !13, line: 25, baseType: !103)
!103 = !DIDerivedType(tag: DW_TAG_typedef, name: "__uint16_t", file: !15, line: 40, baseType: !104)
!104 = !DIBasicType(name: "unsigned short", size: 16, encoding: DW_ATE_unsigned)
!105 = !{!106}
!106 = !DISubrange(count: 24)
!107 = !DIDerivedType(tag: DW_TAG_member, name: "u32", scope: !89, file: !4, line: 706, baseType: !108, size: 384)
!108 = !DICompositeType(tag: DW_TAG_array_type, baseType: !12, size: 384, elements: !109)
!109 = !{!110}
!110 = !DISubrange(count: 12)
!111 = !DIDerivedType(tag: DW_TAG_member, name: "u64", scope: !89, file: !4, line: 708, baseType: !112, size: 384)
!112 = !DICompositeType(tag: DW_TAG_array_type, baseType: !113, size: 384, elements: !116)
!113 = !DIDerivedType(tag: DW_TAG_typedef, name: "uint64_t", file: !13, line: 27, baseType: !114)
!114 = !DIDerivedType(tag: DW_TAG_typedef, name: "__uint64_t", file: !15, line: 45, baseType: !115)
!115 = !DIBasicType(name: "long unsigned int", size: 64, encoding: DW_ATE_unsigned)
!116 = !{!117}
!117 = !DISubrange(count: 6)
!118 = !DIDerivedType(tag: DW_TAG_member, name: "mac", scope: !86, file: !4, line: 718, baseType: !80, size: 64, offset: 384)
!119 = !DIDerivedType(tag: DW_TAG_member, name: "nh", scope: !86, file: !4, line: 719, baseType: !80, size: 64, offset: 448)
!120 = !DIDerivedType(tag: DW_TAG_member, name: "h", scope: !86, file: !4, line: 720, baseType: !80, size: 64, offset: 512)
!121 = !DIDerivedType(tag: DW_TAG_member, name: "pkt_type", scope: !86, file: !4, line: 721, baseType: !3, size: 32, offset: 576)
!122 = !DIDerivedType(tag: DW_TAG_member, name: "timestamp", scope: !86, file: !4, line: 722, baseType: !123, size: 64, offset: 608)
!123 = !DICompositeType(tag: DW_TAG_array_type, baseType: !93, size: 64, elements: !124)
!124 = !{!125}
!125 = !DISubrange(count: 8)
!126 = !DIDerivedType(tag: DW_TAG_member, name: "next", scope: !86, file: !4, line: 723, baseType: !78, size: 64, offset: 704)
!127 = !DIDerivedType(tag: DW_TAG_member, name: "prev", scope: !86, file: !4, line: 724, baseType: !78, size: 64, offset: 768)
!128 = !DIDerivedType(tag: DW_TAG_member, name: "_destructor", scope: !5, file: !4, line: 746, baseType: !129, size: 64, offset: 1216)
!129 = !DIDerivedType(tag: DW_TAG_typedef, name: "buffer_destructor_type", scope: !5, file: !4, line: 65, baseType: !130)
!130 = !DIDerivedType(tag: DW_TAG_pointer_type, baseType: !131, size: 64)
!131 = !DISubroutineType(types: !132)
!132 = !{null, !80, !133, !135}
!133 = !DIDerivedType(tag: DW_TAG_typedef, name: "size_t", file: !134, line: 46, baseType: !115)
!134 = !DIFile(filename: "/usr/lib/clang/10.0.0/include/stddef.h", directory: "")
!135 = !DIDerivedType(tag: DW_TAG_pointer_type, baseType: null, size: 64)
!136 = !DIDerivedType(tag: DW_TAG_member, name: "_destructor_argument", scope: !5, file: !4, line: 747, baseType: !135, size: 64, offset: 1280)
!137 = !DISubprogram(name: "make", linkageName: "_ZN6Packet4makeEjPKvjj", scope: !5, file: !4, line: 52, type: !138, scopeLine: 52, flags: DIFlagPublic | DIFlagPrototyped | DIFlagStaticMember, spFlags: DISPFlagOptimized)
!138 = !DISubroutineType(types: !139)
!139 = !{!140, !12, !224, !12, !12}
!140 = !DIDerivedType(tag: DW_TAG_pointer_type, baseType: !141, size: 64)
!141 = distinct !DICompositeType(tag: DW_TAG_class_type, name: "WritablePacket", file: !4, line: 778, size: 1344, flags: DIFlagTypePassByReference | DIFlagNonTrivial, elements: !142, identifier: "_ZTS14WritablePacket")
!142 = !{!143, !144, !149, !150, !151, !152, !153, !158, !159, !182, !187, !188, !193, !198, !203, !204, !208, !209, !214, !215, !218, !221}
!143 = !DIDerivedType(tag: DW_TAG_inheritance, scope: !141, baseType: !5, flags: DIFlagPublic, extraData: i32 0)
!144 = !DISubprogram(name: "data", linkageName: "_ZNK14WritablePacket4dataEv", scope: !141, file: !4, line: 780, type: !145, scopeLine: 780, flags: DIFlagPublic | DIFlagPrototyped, spFlags: DISPFlagOptimized)
!145 = !DISubroutineType(types: !146)
!146 = !{!80, !147}
!147 = !DIDerivedType(tag: DW_TAG_pointer_type, baseType: !148, size: 64, flags: DIFlagArtificial | DIFlagObjectPointer)
!148 = !DIDerivedType(tag: DW_TAG_const_type, baseType: !141)
!149 = !DISubprogram(name: "end_data", linkageName: "_ZNK14WritablePacket8end_dataEv", scope: !141, file: !4, line: 781, type: !145, scopeLine: 781, flags: DIFlagPublic | DIFlagPrototyped, spFlags: DISPFlagOptimized)
!150 = !DISubprogram(name: "buffer", linkageName: "_ZNK14WritablePacket6bufferEv", scope: !141, file: !4, line: 782, type: !145, scopeLine: 782, flags: DIFlagPublic | DIFlagPrototyped, spFlags: DISPFlagOptimized)
!151 = !DISubprogram(name: "end_buffer", linkageName: "_ZNK14WritablePacket10end_bufferEv", scope: !141, file: !4, line: 783, type: !145, scopeLine: 783, flags: DIFlagPublic | DIFlagPrototyped, spFlags: DISPFlagOptimized)
!152 = !DISubprogram(name: "mac_header", linkageName: "_ZNK14WritablePacket10mac_headerEv", scope: !141, file: !4, line: 784, type: !145, scopeLine: 784, flags: DIFlagPublic | DIFlagPrototyped, spFlags: DISPFlagOptimized)
!153 = !DISubprogram(name: "ether_header", linkageName: "_ZNK14WritablePacket12ether_headerEv", scope: !141, file: !4, line: 785, type: !154, scopeLine: 785, flags: DIFlagPublic | DIFlagPrototyped, spFlags: DISPFlagOptimized)
!154 = !DISubroutineType(types: !155)
!155 = !{!156, !147}
!156 = !DIDerivedType(tag: DW_TAG_pointer_type, baseType: !157, size: 64)
!157 = !DICompositeType(tag: DW_TAG_structure_type, name: "click_ether", file: !4, line: 24, flags: DIFlagFwdDecl, identifier: "_ZTS11click_ether")
!158 = !DISubprogram(name: "network_header", linkageName: "_ZNK14WritablePacket14network_headerEv", scope: !141, file: !4, line: 786, type: !145, scopeLine: 786, flags: DIFlagPublic | DIFlagPrototyped, spFlags: DISPFlagOptimized)
!159 = !DISubprogram(name: "ip_header", linkageName: "_ZNK14WritablePacket9ip_headerEv", scope: !141, file: !4, line: 787, type: !160, scopeLine: 787, flags: DIFlagPublic | DIFlagPrototyped, spFlags: DISPFlagOptimized)
!160 = !DISubroutineType(types: !161)
!161 = !{!162, !147}
!162 = !DIDerivedType(tag: DW_TAG_pointer_type, baseType: !163, size: 64)
!163 = distinct !DICompositeType(tag: DW_TAG_structure_type, name: "click_ip", file: !164, line: 23, size: 160, flags: DIFlagTypePassByValue, elements: !165, identifier: "_ZTS8click_ip")
!164 = !DIFile(filename: "../dummy_inc/clicknet/ip.h", directory: "/home/john/projects/click/ir-dir")
!165 = !{!166, !167, !168, !169, !170, !171, !172, !173, !174, !175, !181}
!166 = !DIDerivedType(tag: DW_TAG_member, name: "ip_hl", scope: !163, file: !164, line: 28, baseType: !16, size: 4, flags: DIFlagBitField, extraData: i64 0)
!167 = !DIDerivedType(tag: DW_TAG_member, name: "ip_v", scope: !163, file: !164, line: 29, baseType: !16, size: 4, offset: 4, flags: DIFlagBitField, extraData: i64 0)
!168 = !DIDerivedType(tag: DW_TAG_member, name: "ip_tos", scope: !163, file: !164, line: 33, baseType: !98, size: 8, offset: 8)
!169 = !DIDerivedType(tag: DW_TAG_member, name: "ip_len", scope: !163, file: !164, line: 40, baseType: !102, size: 16, offset: 16)
!170 = !DIDerivedType(tag: DW_TAG_member, name: "ip_id", scope: !163, file: !164, line: 41, baseType: !102, size: 16, offset: 32)
!171 = !DIDerivedType(tag: DW_TAG_member, name: "ip_off", scope: !163, file: !164, line: 42, baseType: !102, size: 16, offset: 48)
!172 = !DIDerivedType(tag: DW_TAG_member, name: "ip_ttl", scope: !163, file: !164, line: 47, baseType: !98, size: 8, offset: 64)
!173 = !DIDerivedType(tag: DW_TAG_member, name: "ip_p", scope: !163, file: !164, line: 48, baseType: !98, size: 8, offset: 72)
!174 = !DIDerivedType(tag: DW_TAG_member, name: "ip_sum", scope: !163, file: !164, line: 49, baseType: !102, size: 16, offset: 80)
!175 = !DIDerivedType(tag: DW_TAG_member, name: "ip_src", scope: !163, file: !164, line: 50, baseType: !176, size: 32, offset: 96)
!176 = distinct !DICompositeType(tag: DW_TAG_structure_type, name: "in_addr", file: !177, line: 31, size: 32, flags: DIFlagTypePassByValue, elements: !178, identifier: "_ZTS7in_addr")
!177 = !DIFile(filename: "/usr/include/netinet/in.h", directory: "")
!178 = !{!179}
!179 = !DIDerivedType(tag: DW_TAG_member, name: "s_addr", scope: !176, file: !177, line: 33, baseType: !180, size: 32)
!180 = !DIDerivedType(tag: DW_TAG_typedef, name: "in_addr_t", file: !177, line: 30, baseType: !12)
!181 = !DIDerivedType(tag: DW_TAG_member, name: "ip_dst", scope: !163, file: !164, line: 51, baseType: !176, size: 32, offset: 128)
!182 = !DISubprogram(name: "ip6_header", linkageName: "_ZNK14WritablePacket10ip6_headerEv", scope: !141, file: !4, line: 788, type: !183, scopeLine: 788, flags: DIFlagPublic | DIFlagPrototyped, spFlags: DISPFlagOptimized)
!183 = !DISubroutineType(types: !184)
!184 = !{!185, !147}
!185 = !DIDerivedType(tag: DW_TAG_pointer_type, baseType: !186, size: 64)
!186 = !DICompositeType(tag: DW_TAG_structure_type, name: "click_ip6", file: !4, line: 27, flags: DIFlagFwdDecl, identifier: "_ZTS9click_ip6")
!187 = !DISubprogram(name: "transport_header", linkageName: "_ZNK14WritablePacket16transport_headerEv", scope: !141, file: !4, line: 789, type: !145, scopeLine: 789, flags: DIFlagPublic | DIFlagPrototyped, spFlags: DISPFlagOptimized)
!188 = !DISubprogram(name: "icmp_header", linkageName: "_ZNK14WritablePacket11icmp_headerEv", scope: !141, file: !4, line: 790, type: !189, scopeLine: 790, flags: DIFlagPublic | DIFlagPrototyped, spFlags: DISPFlagOptimized)
!189 = !DISubroutineType(types: !190)
!190 = !{!191, !147}
!191 = !DIDerivedType(tag: DW_TAG_pointer_type, baseType: !192, size: 64)
!192 = !DICompositeType(tag: DW_TAG_structure_type, name: "click_icmp", file: !4, line: 26, flags: DIFlagFwdDecl, identifier: "_ZTS10click_icmp")
!193 = !DISubprogram(name: "tcp_header", linkageName: "_ZNK14WritablePacket10tcp_headerEv", scope: !141, file: !4, line: 791, type: !194, scopeLine: 791, flags: DIFlagPublic | DIFlagPrototyped, spFlags: DISPFlagOptimized)
!194 = !DISubroutineType(types: !195)
!195 = !{!196, !147}
!196 = !DIDerivedType(tag: DW_TAG_pointer_type, baseType: !197, size: 64)
!197 = !DICompositeType(tag: DW_TAG_structure_type, name: "click_tcp", file: !4, line: 28, flags: DIFlagFwdDecl, identifier: "_ZTS9click_tcp")
!198 = !DISubprogram(name: "udp_header", linkageName: "_ZNK14WritablePacket10udp_headerEv", scope: !141, file: !4, line: 792, type: !199, scopeLine: 792, flags: DIFlagPublic | DIFlagPrototyped, spFlags: DISPFlagOptimized)
!199 = !DISubroutineType(types: !200)
!200 = !{!201, !147}
!201 = !DIDerivedType(tag: DW_TAG_pointer_type, baseType: !202, size: 64)
!202 = !DICompositeType(tag: DW_TAG_structure_type, name: "click_udp", file: !4, line: 29, flags: DIFlagFwdDecl, identifier: "_ZTS9click_udp")
!203 = !DISubprogram(name: "buffer_data", linkageName: "_ZNK14WritablePacket11buffer_dataEv", scope: !141, file: !4, line: 795, type: !145, scopeLine: 795, flags: DIFlagPublic | DIFlagPrototyped, spFlags: DISPFlagOptimized)
!204 = !DISubprogram(name: "WritablePacket", scope: !141, file: !4, line: 800, type: !205, scopeLine: 800, flags: DIFlagPrototyped, spFlags: DISPFlagOptimized)
!205 = !DISubroutineType(types: !206)
!206 = !{null, !207}
!207 = !DIDerivedType(tag: DW_TAG_pointer_type, baseType: !141, size: 64, flags: DIFlagArtificial | DIFlagObjectPointer)
!208 = !DISubprogram(name: "initialize", linkageName: "_ZN14WritablePacket10initializeEv", scope: !141, file: !4, line: 802, type: !205, scopeLine: 802, flags: DIFlagPrototyped, spFlags: DISPFlagOptimized)
!209 = !DISubprogram(name: "WritablePacket", scope: !141, file: !4, line: 804, type: !210, scopeLine: 804, flags: DIFlagPrototyped, spFlags: DISPFlagOptimized)
!210 = !DISubroutineType(types: !211)
!211 = !{null, !207, !212}
!212 = !DIDerivedType(tag: DW_TAG_reference_type, baseType: !213, size: 64)
!213 = !DIDerivedType(tag: DW_TAG_const_type, baseType: !5)
!214 = !DISubprogram(name: "~WritablePacket", scope: !141, file: !4, line: 805, type: !205, scopeLine: 805, flags: DIFlagPrototyped, spFlags: DISPFlagOptimized)
!215 = !DISubprogram(name: "pool_allocate", linkageName: "_ZN14WritablePacket13pool_allocateEb", scope: !141, file: !4, line: 808, type: !216, scopeLine: 808, flags: DIFlagPrototyped | DIFlagStaticMember, spFlags: DISPFlagOptimized)
!216 = !DISubroutineType(types: !217)
!217 = !{!140, !53}
!218 = !DISubprogram(name: "pool_allocate", linkageName: "_ZN14WritablePacket13pool_allocateEjjj", scope: !141, file: !4, line: 809, type: !219, scopeLine: 809, flags: DIFlagPrototyped | DIFlagStaticMember, spFlags: DISPFlagOptimized)
!219 = !DISubroutineType(types: !220)
!220 = !{!140, !12, !12, !12}
!221 = !DISubprogram(name: "recycle", linkageName: "_ZN14WritablePacket7recycleEPS_", scope: !141, file: !4, line: 811, type: !222, scopeLine: 811, flags: DIFlagPrototyped | DIFlagStaticMember, spFlags: DISPFlagOptimized)
!222 = !DISubroutineType(types: !223)
!223 = !{null, !140}
!224 = !DIDerivedType(tag: DW_TAG_pointer_type, baseType: !225, size: 64)
!225 = !DIDerivedType(tag: DW_TAG_const_type, baseType: null)
!226 = !DISubprogram(name: "make", linkageName: "_ZN6Packet4makeEPKvj", scope: !5, file: !4, line: 54, type: !227, scopeLine: 54, flags: DIFlagPublic | DIFlagPrototyped | DIFlagStaticMember, spFlags: DISPFlagOptimized)
!227 = !DISubroutineType(types: !228)
!228 = !{!140, !224, !12}
!229 = !DISubprogram(name: "make", linkageName: "_ZN6Packet4makeEj", scope: !5, file: !4, line: 55, type: !230, scopeLine: 55, flags: DIFlagPublic | DIFlagPrototyped | DIFlagStaticMember, spFlags: DISPFlagOptimized)
!230 = !DISubroutineType(types: !231)
!231 = !{!140, !12}
!232 = !DISubprogram(name: "make", linkageName: "_ZN6Packet4makeEPhjPFvS0_mPvES1_ii", scope: !5, file: !4, line: 66, type: !233, scopeLine: 66, flags: DIFlagPublic | DIFlagPrototyped | DIFlagStaticMember, spFlags: DISPFlagOptimized)
!233 = !DISubroutineType(types: !234)
!234 = !{!140, !80, !12, !129, !135, !34, !34}
!235 = !DISubprogram(name: "static_cleanup", linkageName: "_ZN6Packet14static_cleanupEv", scope: !5, file: !4, line: 71, type: !236, scopeLine: 71, flags: DIFlagPublic | DIFlagPrototyped | DIFlagStaticMember, spFlags: DISPFlagOptimized)
!236 = !DISubroutineType(types: !237)
!237 = !{null}
!238 = !DISubprogram(name: "kill", linkageName: "_ZN6Packet4killEv", scope: !5, file: !4, line: 73, type: !239, scopeLine: 73, flags: DIFlagPublic | DIFlagPrototyped, spFlags: DISPFlagOptimized)
!239 = !DISubroutineType(types: !240)
!240 = !{null, !241}
!241 = !DIDerivedType(tag: DW_TAG_pointer_type, baseType: !5, size: 64, flags: DIFlagArtificial | DIFlagObjectPointer)
!242 = !DISubprogram(name: "shared", linkageName: "_ZNK6Packet6sharedEv", scope: !5, file: !4, line: 75, type: !243, scopeLine: 75, flags: DIFlagPublic | DIFlagPrototyped, spFlags: DISPFlagOptimized)
!243 = !DISubroutineType(types: !244)
!244 = !{!53, !245}
!245 = !DIDerivedType(tag: DW_TAG_pointer_type, baseType: !213, size: 64, flags: DIFlagArtificial | DIFlagObjectPointer)
!246 = !DISubprogram(name: "clone", linkageName: "_ZN6Packet5cloneEv", scope: !5, file: !4, line: 76, type: !247, scopeLine: 76, flags: DIFlagPublic | DIFlagPrototyped, spFlags: DISPFlagOptimized)
!247 = !DISubroutineType(types: !248)
!248 = !{!78, !241}
!249 = !DISubprogram(name: "uniqueify", linkageName: "_ZN6Packet9uniqueifyEv", scope: !5, file: !4, line: 77, type: !250, scopeLine: 77, flags: DIFlagPublic | DIFlagPrototyped, spFlags: DISPFlagOptimized)
!250 = !DISubroutineType(types: !251)
!251 = !{!140, !241}
!252 = !DISubprogram(name: "data", linkageName: "_ZNK6Packet4dataEv", scope: !5, file: !4, line: 79, type: !253, scopeLine: 79, flags: DIFlagPublic | DIFlagPrototyped, spFlags: DISPFlagOptimized)
!253 = !DISubroutineType(types: !254)
!254 = !{!255, !245}
!255 = !DIDerivedType(tag: DW_TAG_pointer_type, baseType: !256, size: 64)
!256 = !DIDerivedType(tag: DW_TAG_const_type, baseType: !81)
!257 = !DISubprogram(name: "end_data", linkageName: "_ZNK6Packet8end_dataEv", scope: !5, file: !4, line: 80, type: !253, scopeLine: 80, flags: DIFlagPublic | DIFlagPrototyped, spFlags: DISPFlagOptimized)
!258 = !DISubprogram(name: "length", linkageName: "_ZNK6Packet6lengthEv", scope: !5, file: !4, line: 81, type: !259, scopeLine: 81, flags: DIFlagPublic | DIFlagPrototyped, spFlags: DISPFlagOptimized)
!259 = !DISubroutineType(types: !260)
!260 = !{!12, !245}
!261 = !DISubprogram(name: "headroom", linkageName: "_ZNK6Packet8headroomEv", scope: !5, file: !4, line: 82, type: !259, scopeLine: 82, flags: DIFlagPublic | DIFlagPrototyped, spFlags: DISPFlagOptimized)
!262 = !DISubprogram(name: "tailroom", linkageName: "_ZNK6Packet8tailroomEv", scope: !5, file: !4, line: 83, type: !259, scopeLine: 83, flags: DIFlagPublic | DIFlagPrototyped, spFlags: DISPFlagOptimized)
!263 = !DISubprogram(name: "buffer", linkageName: "_ZNK6Packet6bufferEv", scope: !5, file: !4, line: 84, type: !253, scopeLine: 84, flags: DIFlagPublic | DIFlagPrototyped, spFlags: DISPFlagOptimized)
!264 = !DISubprogram(name: "end_buffer", linkageName: "_ZNK6Packet10end_bufferEv", scope: !5, file: !4, line: 85, type: !253, scopeLine: 85, flags: DIFlagPublic | DIFlagPrototyped, spFlags: DISPFlagOptimized)
!265 = !DISubprogram(name: "buffer_length", linkageName: "_ZNK6Packet13buffer_lengthEv", scope: !5, file: !4, line: 86, type: !259, scopeLine: 86, flags: DIFlagPublic | DIFlagPrototyped, spFlags: DISPFlagOptimized)
!266 = !DISubprogram(name: "buffer_destructor", linkageName: "_ZNK6Packet17buffer_destructorEv", scope: !5, file: !4, line: 97, type: !267, scopeLine: 97, flags: DIFlagPublic | DIFlagPrototyped, spFlags: DISPFlagOptimized)
!267 = !DISubroutineType(types: !268)
!268 = !{!129, !245}
!269 = !DISubprogram(name: "set_buffer_destructor", linkageName: "_ZN6Packet21set_buffer_destructorEPFvPhmPvE", scope: !5, file: !4, line: 101, type: !270, scopeLine: 101, flags: DIFlagPublic | DIFlagPrototyped, spFlags: DISPFlagOptimized)
!270 = !DISubroutineType(types: !271)
!271 = !{null, !241, !129}
!272 = !DISubprogram(name: "destructor_argument", linkageName: "_ZN6Packet19destructor_argumentEv", scope: !5, file: !4, line: 105, type: !273, scopeLine: 105, flags: DIFlagPublic | DIFlagPrototyped, spFlags: DISPFlagOptimized)
!273 = !DISubroutineType(types: !274)
!274 = !{!135, !241}
!275 = !DISubprogram(name: "reset_buffer", linkageName: "_ZN6Packet12reset_bufferEv", scope: !5, file: !4, line: 109, type: !239, scopeLine: 109, flags: DIFlagPublic | DIFlagPrototyped, spFlags: DISPFlagOptimized)
!276 = !DISubprogram(name: "push", linkageName: "_ZN6Packet4pushEj", scope: !5, file: !4, line: 141, type: !277, scopeLine: 141, flags: DIFlagPublic | DIFlagPrototyped, spFlags: DISPFlagOptimized)
!277 = !DISubroutineType(types: !278)
!278 = !{!140, !241, !12}
!279 = !DISubprogram(name: "push_mac_header", linkageName: "_ZN6Packet15push_mac_headerEj", scope: !5, file: !4, line: 152, type: !277, scopeLine: 152, flags: DIFlagPublic | DIFlagPrototyped, spFlags: DISPFlagOptimized)
!280 = !DISubprogram(name: "nonunique_push", linkageName: "_ZN6Packet14nonunique_pushEj", scope: !5, file: !4, line: 171, type: !281, scopeLine: 171, flags: DIFlagPublic | DIFlagPrototyped, spFlags: DISPFlagOptimized)
!281 = !DISubroutineType(types: !282)
!282 = !{!78, !241, !12}
!283 = !DISubprogram(name: "pull", linkageName: "_ZN6Packet4pullEj", scope: !5, file: !4, line: 187, type: !284, scopeLine: 187, flags: DIFlagPublic | DIFlagPrototyped, spFlags: DISPFlagOptimized)
!284 = !DISubroutineType(types: !285)
!285 = !{null, !241, !12}
!286 = !DISubprogram(name: "put", linkageName: "_ZN6Packet3putEj", scope: !5, file: !4, line: 213, type: !277, scopeLine: 213, flags: DIFlagPublic | DIFlagPrototyped, spFlags: DISPFlagOptimized)
!287 = !DISubprogram(name: "nonunique_put", linkageName: "_ZN6Packet13nonunique_putEj", scope: !5, file: !4, line: 230, type: !281, scopeLine: 230, flags: DIFlagPublic | DIFlagPrototyped, spFlags: DISPFlagOptimized)
!288 = !DISubprogram(name: "take", linkageName: "_ZN6Packet4takeEj", scope: !5, file: !4, line: 245, type: !284, scopeLine: 245, flags: DIFlagPublic | DIFlagPrototyped, spFlags: DISPFlagOptimized)
!289 = !DISubprogram(name: "shift_data", linkageName: "_ZN6Packet10shift_dataEib", scope: !5, file: !4, line: 269, type: !290, scopeLine: 269, flags: DIFlagPublic | DIFlagPrototyped, spFlags: DISPFlagOptimized)
!290 = !DISubroutineType(types: !291)
!291 = !{!78, !241, !34, !53}
!292 = !DISubprogram(name: "shrink_data", linkageName: "_ZN6Packet11shrink_dataEPKhj", scope: !5, file: !4, line: 271, type: !293, scopeLine: 271, flags: DIFlagPublic | DIFlagPrototyped, spFlags: DISPFlagOptimized)
!293 = !DISubroutineType(types: !294)
!294 = !{null, !241, !255, !12}
!295 = !DISubprogram(name: "change_headroom_and_length", linkageName: "_ZN6Packet26change_headroom_and_lengthEjj", scope: !5, file: !4, line: 272, type: !296, scopeLine: 272, flags: DIFlagPublic | DIFlagPrototyped, spFlags: DISPFlagOptimized)
!296 = !DISubroutineType(types: !297)
!297 = !{null, !241, !12, !12}
!298 = !DISubprogram(name: "copy", linkageName: "_ZN6Packet4copyEPS_i", scope: !5, file: !4, line: 274, type: !299, scopeLine: 274, flags: DIFlagPublic | DIFlagPrototyped, spFlags: DISPFlagOptimized)
!299 = !DISubroutineType(types: !300)
!300 = !{!53, !241, !78, !34}
!301 = !DISubprogram(name: "has_mac_header", linkageName: "_ZNK6Packet14has_mac_headerEv", scope: !5, file: !4, line: 279, type: !243, scopeLine: 279, flags: DIFlagPublic | DIFlagPrototyped, spFlags: DISPFlagOptimized)
!302 = !DISubprogram(name: "mac_header", linkageName: "_ZNK6Packet10mac_headerEv", scope: !5, file: !4, line: 280, type: !253, scopeLine: 280, flags: DIFlagPublic | DIFlagPrototyped, spFlags: DISPFlagOptimized)
!303 = !DISubprogram(name: "mac_header_offset", linkageName: "_ZNK6Packet17mac_header_offsetEv", scope: !5, file: !4, line: 281, type: !304, scopeLine: 281, flags: DIFlagPublic | DIFlagPrototyped, spFlags: DISPFlagOptimized)
!304 = !DISubroutineType(types: !305)
!305 = !{!34, !245}
!306 = !DISubprogram(name: "mac_header_length", linkageName: "_ZNK6Packet17mac_header_lengthEv", scope: !5, file: !4, line: 282, type: !259, scopeLine: 282, flags: DIFlagPublic | DIFlagPrototyped, spFlags: DISPFlagOptimized)
!307 = !DISubprogram(name: "mac_length", linkageName: "_ZNK6Packet10mac_lengthEv", scope: !5, file: !4, line: 283, type: !304, scopeLine: 283, flags: DIFlagPublic | DIFlagPrototyped, spFlags: DISPFlagOptimized)
!308 = !DISubprogram(name: "set_mac_header", linkageName: "_ZN6Packet14set_mac_headerEPKh", scope: !5, file: !4, line: 284, type: !309, scopeLine: 284, flags: DIFlagPublic | DIFlagPrototyped, spFlags: DISPFlagOptimized)
!309 = !DISubroutineType(types: !310)
!310 = !{null, !241, !255}
!311 = !DISubprogram(name: "set_mac_header", linkageName: "_ZN6Packet14set_mac_headerEPKhj", scope: !5, file: !4, line: 285, type: !293, scopeLine: 285, flags: DIFlagPublic | DIFlagPrototyped, spFlags: DISPFlagOptimized)
!312 = !DISubprogram(name: "clear_mac_header", linkageName: "_ZN6Packet16clear_mac_headerEv", scope: !5, file: !4, line: 286, type: !239, scopeLine: 286, flags: DIFlagPublic | DIFlagPrototyped, spFlags: DISPFlagOptimized)
!313 = !DISubprogram(name: "has_network_header", linkageName: "_ZNK6Packet18has_network_headerEv", scope: !5, file: !4, line: 288, type: !243, scopeLine: 288, flags: DIFlagPublic | DIFlagPrototyped, spFlags: DISPFlagOptimized)
!314 = !DISubprogram(name: "network_header", linkageName: "_ZNK6Packet14network_headerEv", scope: !5, file: !4, line: 289, type: !253, scopeLine: 289, flags: DIFlagPublic | DIFlagPrototyped, spFlags: DISPFlagOptimized)
!315 = !DISubprogram(name: "network_header_offset", linkageName: "_ZNK6Packet21network_header_offsetEv", scope: !5, file: !4, line: 290, type: !304, scopeLine: 290, flags: DIFlagPublic | DIFlagPrototyped, spFlags: DISPFlagOptimized)
!316 = !DISubprogram(name: "network_header_length", linkageName: "_ZNK6Packet21network_header_lengthEv", scope: !5, file: !4, line: 291, type: !259, scopeLine: 291, flags: DIFlagPublic | DIFlagPrototyped, spFlags: DISPFlagOptimized)
!317 = !DISubprogram(name: "network_length", linkageName: "_ZNK6Packet14network_lengthEv", scope: !5, file: !4, line: 292, type: !304, scopeLine: 292, flags: DIFlagPublic | DIFlagPrototyped, spFlags: DISPFlagOptimized)
!318 = !DISubprogram(name: "set_network_header", linkageName: "_ZN6Packet18set_network_headerEPKhj", scope: !5, file: !4, line: 293, type: !293, scopeLine: 293, flags: DIFlagPublic | DIFlagPrototyped, spFlags: DISPFlagOptimized)
!319 = !DISubprogram(name: "set_network_header_length", linkageName: "_ZN6Packet25set_network_header_lengthEj", scope: !5, file: !4, line: 294, type: !284, scopeLine: 294, flags: DIFlagPublic | DIFlagPrototyped, spFlags: DISPFlagOptimized)
!320 = !DISubprogram(name: "clear_network_header", linkageName: "_ZN6Packet20clear_network_headerEv", scope: !5, file: !4, line: 295, type: !239, scopeLine: 295, flags: DIFlagPublic | DIFlagPrototyped, spFlags: DISPFlagOptimized)
!321 = !DISubprogram(name: "has_transport_header", linkageName: "_ZNK6Packet20has_transport_headerEv", scope: !5, file: !4, line: 297, type: !243, scopeLine: 297, flags: DIFlagPublic | DIFlagPrototyped, spFlags: DISPFlagOptimized)
!322 = !DISubprogram(name: "transport_header", linkageName: "_ZNK6Packet16transport_headerEv", scope: !5, file: !4, line: 298, type: !253, scopeLine: 298, flags: DIFlagPublic | DIFlagPrototyped, spFlags: DISPFlagOptimized)
!323 = !DISubprogram(name: "transport_header_offset", linkageName: "_ZNK6Packet23transport_header_offsetEv", scope: !5, file: !4, line: 299, type: !304, scopeLine: 299, flags: DIFlagPublic | DIFlagPrototyped, spFlags: DISPFlagOptimized)
!324 = !DISubprogram(name: "transport_length", linkageName: "_ZNK6Packet16transport_lengthEv", scope: !5, file: !4, line: 300, type: !304, scopeLine: 300, flags: DIFlagPublic | DIFlagPrototyped, spFlags: DISPFlagOptimized)
!325 = !DISubprogram(name: "clear_transport_header", linkageName: "_ZN6Packet22clear_transport_headerEv", scope: !5, file: !4, line: 301, type: !239, scopeLine: 301, flags: DIFlagPublic | DIFlagPrototyped, spFlags: DISPFlagOptimized)
!326 = !DISubprogram(name: "ether_header", linkageName: "_ZNK6Packet12ether_headerEv", scope: !5, file: !4, line: 304, type: !327, scopeLine: 304, flags: DIFlagPublic | DIFlagPrototyped, spFlags: DISPFlagOptimized)
!327 = !DISubroutineType(types: !328)
!328 = !{!329, !245}
!329 = !DIDerivedType(tag: DW_TAG_pointer_type, baseType: !330, size: 64)
!330 = !DIDerivedType(tag: DW_TAG_const_type, baseType: !157)
!331 = !DISubprogram(name: "set_ether_header", linkageName: "_ZN6Packet16set_ether_headerEPK11click_ether", scope: !5, file: !4, line: 305, type: !332, scopeLine: 305, flags: DIFlagPublic | DIFlagPrototyped, spFlags: DISPFlagOptimized)
!332 = !DISubroutineType(types: !333)
!333 = !{null, !241, !329}
!334 = !DISubprogram(name: "ip_header", linkageName: "_ZNK6Packet9ip_headerEv", scope: !5, file: !4, line: 307, type: !335, scopeLine: 307, flags: DIFlagPublic | DIFlagPrototyped, spFlags: DISPFlagOptimized)
!335 = !DISubroutineType(types: !336)
!336 = !{!337, !245}
!337 = !DIDerivedType(tag: DW_TAG_pointer_type, baseType: !338, size: 64)
!338 = !DIDerivedType(tag: DW_TAG_const_type, baseType: !163)
!339 = !DISubprogram(name: "ip_header_offset", linkageName: "_ZNK6Packet16ip_header_offsetEv", scope: !5, file: !4, line: 308, type: !304, scopeLine: 308, flags: DIFlagPublic | DIFlagPrototyped, spFlags: DISPFlagOptimized)
!340 = !DISubprogram(name: "ip_header_length", linkageName: "_ZNK6Packet16ip_header_lengthEv", scope: !5, file: !4, line: 309, type: !259, scopeLine: 309, flags: DIFlagPublic | DIFlagPrototyped, spFlags: DISPFlagOptimized)
!341 = !DISubprogram(name: "set_ip_header", linkageName: "_ZN6Packet13set_ip_headerEPK8click_ipj", scope: !5, file: !4, line: 310, type: !342, scopeLine: 310, flags: DIFlagPublic | DIFlagPrototyped, spFlags: DISPFlagOptimized)
!342 = !DISubroutineType(types: !343)
!343 = !{null, !241, !337, !12}
!344 = !DISubprogram(name: "ip6_header", linkageName: "_ZNK6Packet10ip6_headerEv", scope: !5, file: !4, line: 312, type: !345, scopeLine: 312, flags: DIFlagPublic | DIFlagPrototyped, spFlags: DISPFlagOptimized)
!345 = !DISubroutineType(types: !346)
!346 = !{!347, !245}
!347 = !DIDerivedType(tag: DW_TAG_pointer_type, baseType: !348, size: 64)
!348 = !DIDerivedType(tag: DW_TAG_const_type, baseType: !186)
!349 = !DISubprogram(name: "ip6_header_offset", linkageName: "_ZNK6Packet17ip6_header_offsetEv", scope: !5, file: !4, line: 313, type: !304, scopeLine: 313, flags: DIFlagPublic | DIFlagPrototyped, spFlags: DISPFlagOptimized)
!350 = !DISubprogram(name: "ip6_header_length", linkageName: "_ZNK6Packet17ip6_header_lengthEv", scope: !5, file: !4, line: 314, type: !259, scopeLine: 314, flags: DIFlagPublic | DIFlagPrototyped, spFlags: DISPFlagOptimized)
!351 = !DISubprogram(name: "set_ip6_header", linkageName: "_ZN6Packet14set_ip6_headerEPK9click_ip6", scope: !5, file: !4, line: 315, type: !352, scopeLine: 315, flags: DIFlagPublic | DIFlagPrototyped, spFlags: DISPFlagOptimized)
!352 = !DISubroutineType(types: !353)
!353 = !{null, !241, !347}
!354 = !DISubprogram(name: "set_ip6_header", linkageName: "_ZN6Packet14set_ip6_headerEPK9click_ip6j", scope: !5, file: !4, line: 316, type: !355, scopeLine: 316, flags: DIFlagPublic | DIFlagPrototyped, spFlags: DISPFlagOptimized)
!355 = !DISubroutineType(types: !356)
!356 = !{null, !241, !347, !12}
!357 = !DISubprogram(name: "icmp_header", linkageName: "_ZNK6Packet11icmp_headerEv", scope: !5, file: !4, line: 318, type: !358, scopeLine: 318, flags: DIFlagPublic | DIFlagPrototyped, spFlags: DISPFlagOptimized)
!358 = !DISubroutineType(types: !359)
!359 = !{!360, !245}
!360 = !DIDerivedType(tag: DW_TAG_pointer_type, baseType: !361, size: 64)
!361 = !DIDerivedType(tag: DW_TAG_const_type, baseType: !192)
!362 = !DISubprogram(name: "tcp_header", linkageName: "_ZNK6Packet10tcp_headerEv", scope: !5, file: !4, line: 319, type: !363, scopeLine: 319, flags: DIFlagPublic | DIFlagPrototyped, spFlags: DISPFlagOptimized)
!363 = !DISubroutineType(types: !364)
!364 = !{!365, !245}
!365 = !DIDerivedType(tag: DW_TAG_pointer_type, baseType: !366, size: 64)
!366 = !DIDerivedType(tag: DW_TAG_const_type, baseType: !197)
!367 = !DISubprogram(name: "udp_header", linkageName: "_ZNK6Packet10udp_headerEv", scope: !5, file: !4, line: 320, type: !368, scopeLine: 320, flags: DIFlagPublic | DIFlagPrototyped, spFlags: DISPFlagOptimized)
!368 = !DISubroutineType(types: !369)
!369 = !{!370, !245}
!370 = !DIDerivedType(tag: DW_TAG_pointer_type, baseType: !371, size: 64)
!371 = !DIDerivedType(tag: DW_TAG_const_type, baseType: !202)
!372 = !DISubprogram(name: "xanno", linkageName: "_ZNK6Packet5xannoEv", scope: !5, file: !4, line: 340, type: !373, scopeLine: 340, flags: DIFlagPrototyped, spFlags: DISPFlagOptimized)
!373 = !DISubroutineType(types: !374)
!374 = !{!375, !245}
!375 = !DIDerivedType(tag: DW_TAG_pointer_type, baseType: !376, size: 64)
!376 = !DIDerivedType(tag: DW_TAG_const_type, baseType: !89)
!377 = !DISubprogram(name: "xanno", linkageName: "_ZN6Packet5xannoEv", scope: !5, file: !4, line: 341, type: !378, scopeLine: 341, flags: DIFlagPrototyped, spFlags: DISPFlagOptimized)
!378 = !DISubroutineType(types: !379)
!379 = !{!380, !241}
!380 = !DIDerivedType(tag: DW_TAG_pointer_type, baseType: !89, size: 64)
!381 = !DISubprogram(name: "timestamp_anno", linkageName: "_ZNK6Packet14timestamp_annoEv", scope: !5, file: !4, line: 354, type: !382, scopeLine: 354, flags: DIFlagPublic | DIFlagPrototyped, spFlags: DISPFlagOptimized)
!382 = !DISubroutineType(types: !383)
!383 = !{!384, !245}
!384 = !DIDerivedType(tag: DW_TAG_reference_type, baseType: !385, size: 64)
!385 = !DIDerivedType(tag: DW_TAG_const_type, baseType: !386)
!386 = distinct !DICompositeType(tag: DW_TAG_class_type, name: "Timestamp", file: !387, line: 122, size: 64, flags: DIFlagTypePassByValue | DIFlagNonTrivial, elements: !388, identifier: "_ZTS9Timestamp")
!387 = !DIFile(filename: "../dummy_inc/click/timestamp.hh", directory: "/home/john/projects/click/ir-dir")
!388 = !{!389, !396, !400, !403, !406, !409, !412, !416, !428, !439, !444, !453, !462, !465, !466, !469, !470, !471, !472, !475, !478, !479, !480, !481, !484, !485, !488, !491, !495, !496, !497, !500, !501, !502, !507, !511, !514, !517, !520, !523, !524, !525, !526, !527, !530, !531, !534, !535, !536, !537, !538, !539, !540, !543, !544, !545, !546, !547, !548, !549, !550, !551, !841, !842, !845, !846, !847, !848, !849, !850, !851, !854, !863, !866, !867, !870, !873, !874, !875, !876, !877, !878, !879, !882, !886, !889, !892, !895}
!389 = !DIDerivedType(tag: DW_TAG_member, name: "_t", scope: !386, file: !387, line: 672, baseType: !390, size: 64)
!390 = distinct !DICompositeType(tag: DW_TAG_union_type, name: "rep_t", scope: !386, file: !387, line: 539, size: 64, flags: DIFlagTypePassByValue, elements: !391, identifier: "_ZTSN9Timestamp5rep_tE")
!391 = !{!392}
!392 = !DIDerivedType(tag: DW_TAG_member, name: "x", scope: !390, file: !387, line: 541, baseType: !393, size: 64)
!393 = !DIDerivedType(tag: DW_TAG_typedef, name: "int64_t", file: !32, line: 27, baseType: !394)
!394 = !DIDerivedType(tag: DW_TAG_typedef, name: "__int64_t", file: !15, line: 44, baseType: !395)
!395 = !DIBasicType(name: "long int", size: 64, encoding: DW_ATE_signed)
!396 = !DISubprogram(name: "Timestamp", scope: !386, file: !387, line: 174, type: !397, scopeLine: 174, flags: DIFlagPublic | DIFlagPrototyped, spFlags: DISPFlagOptimized)
!397 = !DISubroutineType(types: !398)
!398 = !{null, !399}
!399 = !DIDerivedType(tag: DW_TAG_pointer_type, baseType: !386, size: 64, flags: DIFlagArtificial | DIFlagObjectPointer)
!400 = !DISubprogram(name: "Timestamp", scope: !386, file: !387, line: 187, type: !401, scopeLine: 187, flags: DIFlagPublic | DIFlagExplicit | DIFlagPrototyped, spFlags: DISPFlagOptimized)
!401 = !DISubroutineType(types: !402)
!402 = !{null, !399, !395, !12}
!403 = !DISubprogram(name: "Timestamp", scope: !386, file: !387, line: 191, type: !404, scopeLine: 191, flags: DIFlagPublic | DIFlagExplicit | DIFlagPrototyped, spFlags: DISPFlagOptimized)
!404 = !DISubroutineType(types: !405)
!405 = !{null, !399, !34, !12}
!406 = !DISubprogram(name: "Timestamp", scope: !386, file: !387, line: 195, type: !407, scopeLine: 195, flags: DIFlagPublic | DIFlagExplicit | DIFlagPrototyped, spFlags: DISPFlagOptimized)
!407 = !DISubroutineType(types: !408)
!408 = !{null, !399, !115, !12}
!409 = !DISubprogram(name: "Timestamp", scope: !386, file: !387, line: 199, type: !410, scopeLine: 199, flags: DIFlagPublic | DIFlagExplicit | DIFlagPrototyped, spFlags: DISPFlagOptimized)
!410 = !DISubroutineType(types: !411)
!411 = !{null, !399, !16, !12}
!412 = !DISubprogram(name: "Timestamp", scope: !386, file: !387, line: 203, type: !413, scopeLine: 203, flags: DIFlagPublic | DIFlagExplicit | DIFlagPrototyped, spFlags: DISPFlagOptimized)
!413 = !DISubroutineType(types: !414)
!414 = !{null, !399, !415}
!415 = !DIBasicType(name: "double", size: 64, encoding: DW_ATE_float)
!416 = !DISubprogram(name: "Timestamp", scope: !386, file: !387, line: 206, type: !417, scopeLine: 206, flags: DIFlagPublic | DIFlagPrototyped, spFlags: DISPFlagOptimized)
!417 = !DISubroutineType(types: !418)
!418 = !{null, !399, !419}
!419 = !DIDerivedType(tag: DW_TAG_reference_type, baseType: !420, size: 64)
!420 = !DIDerivedType(tag: DW_TAG_const_type, baseType: !421)
!421 = distinct !DICompositeType(tag: DW_TAG_structure_type, name: "timeval", file: !422, line: 8, size: 128, flags: DIFlagTypePassByValue, elements: !423, identifier: "_ZTS7timeval")
!422 = !DIFile(filename: "/usr/include/bits/types/struct_timeval.h", directory: "")
!423 = !{!424, !426}
!424 = !DIDerivedType(tag: DW_TAG_member, name: "tv_sec", scope: !421, file: !422, line: 10, baseType: !425, size: 64)
!425 = !DIDerivedType(tag: DW_TAG_typedef, name: "__time_t", file: !15, line: 160, baseType: !395)
!426 = !DIDerivedType(tag: DW_TAG_member, name: "tv_usec", scope: !421, file: !422, line: 11, baseType: !427, size: 64, offset: 64)
!427 = !DIDerivedType(tag: DW_TAG_typedef, name: "__suseconds_t", file: !15, line: 162, baseType: !395)
!428 = !DISubprogram(name: "Timestamp", scope: !386, file: !387, line: 208, type: !429, scopeLine: 208, flags: DIFlagPublic | DIFlagPrototyped, spFlags: DISPFlagOptimized)
!429 = !DISubroutineType(types: !430)
!430 = !{null, !399, !431}
!431 = !DIDerivedType(tag: DW_TAG_reference_type, baseType: !432, size: 64)
!432 = !DIDerivedType(tag: DW_TAG_const_type, baseType: !433)
!433 = distinct !DICompositeType(tag: DW_TAG_structure_type, name: "timespec", file: !434, line: 10, size: 128, flags: DIFlagTypePassByValue, elements: !435, identifier: "_ZTS8timespec")
!434 = !DIFile(filename: "/usr/include/bits/types/struct_timespec.h", directory: "")
!435 = !{!436, !437}
!436 = !DIDerivedType(tag: DW_TAG_member, name: "tv_sec", scope: !433, file: !434, line: 12, baseType: !425, size: 64)
!437 = !DIDerivedType(tag: DW_TAG_member, name: "tv_nsec", scope: !433, file: !434, line: 16, baseType: !438, size: 64, offset: 64)
!438 = !DIDerivedType(tag: DW_TAG_typedef, name: "__syscall_slong_t", file: !15, line: 196, baseType: !395)
!439 = !DISubprogram(name: "Timestamp", scope: !386, file: !387, line: 212, type: !440, scopeLine: 212, flags: DIFlagPublic | DIFlagPrototyped, spFlags: DISPFlagOptimized)
!440 = !DISubroutineType(types: !441)
!441 = !{null, !399, !442}
!442 = !DIDerivedType(tag: DW_TAG_reference_type, baseType: !443, size: 64)
!443 = !DIDerivedType(tag: DW_TAG_const_type, baseType: !390)
!444 = !DISubprogram(name: "Timestamp", scope: !386, file: !387, line: 217, type: !445, scopeLine: 217, flags: DIFlagPublic | DIFlagPrototyped, spFlags: DISPFlagOptimized)
!445 = !DISubroutineType(types: !446)
!446 = !{null, !399, !447}
!447 = !DIDerivedType(tag: DW_TAG_reference_type, baseType: !448, size: 64)
!448 = !DIDerivedType(tag: DW_TAG_const_type, baseType: !449)
!449 = !DIDerivedType(tag: DW_TAG_typedef, name: "uninitialized_t", scope: !386, file: !387, line: 168, baseType: !450)
!450 = distinct !DICompositeType(tag: DW_TAG_structure_type, name: "uninitialized_type", file: !451, line: 317, size: 8, flags: DIFlagTypePassByValue, elements: !452, identifier: "_ZTS18uninitialized_type")
!451 = !DIFile(filename: "../dummy_inc/click/config.h", directory: "/home/john/projects/click/ir-dir")
!452 = !{}
!453 = !DISubprogram(name: "operator int (Timestamp::*)() const", linkageName: "_ZNK9TimestampcvMS_KFivEEv", scope: !386, file: !387, line: 222, type: !454, scopeLine: 222, flags: DIFlagPublic | DIFlagPrototyped, spFlags: DISPFlagOptimized)
!454 = !DISubroutineType(types: !455)
!455 = !{!456, !461}
!456 = !DIDerivedType(tag: DW_TAG_typedef, name: "unspecified_bool_type", scope: !386, file: !387, line: 221, baseType: !457)
!457 = !DIDerivedType(tag: DW_TAG_ptr_to_member_type, baseType: !458, size: 128, extraData: !386)
!458 = !DISubroutineType(types: !459)
!459 = !{!460, !461}
!460 = !DIDerivedType(tag: DW_TAG_typedef, name: "seconds_type", scope: !386, file: !387, line: 125, baseType: !31)
!461 = !DIDerivedType(tag: DW_TAG_pointer_type, baseType: !385, size: 64, flags: DIFlagArtificial | DIFlagObjectPointer)
!462 = !DISubprogram(name: "is_negative", linkageName: "_ZNK9Timestamp11is_negativeEv", scope: !386, file: !387, line: 225, type: !463, scopeLine: 225, flags: DIFlagPublic | DIFlagPrototyped, spFlags: DISPFlagOptimized)
!463 = !DISubroutineType(types: !464)
!464 = !{!53, !461}
!465 = !DISubprogram(name: "sec", linkageName: "_ZNK9Timestamp3secEv", scope: !386, file: !387, line: 233, type: !458, scopeLine: 233, flags: DIFlagPublic | DIFlagPrototyped, spFlags: DISPFlagOptimized)
!466 = !DISubprogram(name: "subsec", linkageName: "_ZNK9Timestamp6subsecEv", scope: !386, file: !387, line: 234, type: !467, scopeLine: 234, flags: DIFlagPublic | DIFlagPrototyped, spFlags: DISPFlagOptimized)
!467 = !DISubroutineType(types: !468)
!468 = !{!12, !461}
!469 = !DISubprogram(name: "msec", linkageName: "_ZNK9Timestamp4msecEv", scope: !386, file: !387, line: 235, type: !467, scopeLine: 235, flags: DIFlagPublic | DIFlagPrototyped, spFlags: DISPFlagOptimized)
!470 = !DISubprogram(name: "usec", linkageName: "_ZNK9Timestamp4usecEv", scope: !386, file: !387, line: 236, type: !467, scopeLine: 236, flags: DIFlagPublic | DIFlagPrototyped, spFlags: DISPFlagOptimized)
!471 = !DISubprogram(name: "nsec", linkageName: "_ZNK9Timestamp4nsecEv", scope: !386, file: !387, line: 237, type: !467, scopeLine: 237, flags: DIFlagPublic | DIFlagPrototyped, spFlags: DISPFlagOptimized)
!472 = !DISubprogram(name: "set_sec", linkageName: "_ZN9Timestamp7set_secEi", scope: !386, file: !387, line: 239, type: !473, scopeLine: 239, flags: DIFlagPublic | DIFlagPrototyped, spFlags: DISPFlagOptimized)
!473 = !DISubroutineType(types: !474)
!474 = !{null, !399, !460}
!475 = !DISubprogram(name: "set_subsec", linkageName: "_ZN9Timestamp10set_subsecEj", scope: !386, file: !387, line: 240, type: !476, scopeLine: 240, flags: DIFlagPublic | DIFlagPrototyped, spFlags: DISPFlagOptimized)
!476 = !DISubroutineType(types: !477)
!477 = !{null, !399, !12}
!478 = !DISubprogram(name: "msec1", linkageName: "_ZNK9Timestamp5msec1Ev", scope: !386, file: !387, line: 242, type: !458, scopeLine: 242, flags: DIFlagPublic | DIFlagPrototyped, spFlags: DISPFlagOptimized)
!479 = !DISubprogram(name: "usec1", linkageName: "_ZNK9Timestamp5usec1Ev", scope: !386, file: !387, line: 243, type: !458, scopeLine: 243, flags: DIFlagPublic | DIFlagPrototyped, spFlags: DISPFlagOptimized)
!480 = !DISubprogram(name: "nsec1", linkageName: "_ZNK9Timestamp5nsec1Ev", scope: !386, file: !387, line: 244, type: !458, scopeLine: 244, flags: DIFlagPublic | DIFlagPrototyped, spFlags: DISPFlagOptimized)
!481 = !DISubprogram(name: "timeval", linkageName: "_ZNK9Timestamp7timevalEv", scope: !386, file: !387, line: 250, type: !482, scopeLine: 250, flags: DIFlagPublic | DIFlagPrototyped, spFlags: DISPFlagOptimized)
!482 = !DISubroutineType(types: !483)
!483 = !{!421, !461}
!484 = !DISubprogram(name: "timeval_ceil", linkageName: "_ZNK9Timestamp12timeval_ceilEv", scope: !386, file: !387, line: 251, type: !482, scopeLine: 251, flags: DIFlagPublic | DIFlagPrototyped, spFlags: DISPFlagOptimized)
!485 = !DISubprogram(name: "timespec", linkageName: "_ZNK9Timestamp8timespecEv", scope: !386, file: !387, line: 257, type: !486, scopeLine: 257, flags: DIFlagPublic | DIFlagPrototyped, spFlags: DISPFlagOptimized)
!486 = !DISubroutineType(types: !487)
!487 = !{!433, !461}
!488 = !DISubprogram(name: "doubleval", linkageName: "_ZNK9Timestamp9doublevalEv", scope: !386, file: !387, line: 262, type: !489, scopeLine: 262, flags: DIFlagPublic | DIFlagPrototyped, spFlags: DISPFlagOptimized)
!489 = !DISubroutineType(types: !490)
!490 = !{!415, !461}
!491 = !DISubprogram(name: "msecval", linkageName: "_ZNK9Timestamp7msecvalEv", scope: !386, file: !387, line: 265, type: !492, scopeLine: 265, flags: DIFlagPublic | DIFlagPrototyped, spFlags: DISPFlagOptimized)
!492 = !DISubroutineType(types: !493)
!493 = !{!494, !461}
!494 = !DIDerivedType(tag: DW_TAG_typedef, name: "value_type", scope: !386, file: !387, line: 128, baseType: !393)
!495 = !DISubprogram(name: "usecval", linkageName: "_ZNK9Timestamp7usecvalEv", scope: !386, file: !387, line: 273, type: !492, scopeLine: 273, flags: DIFlagPublic | DIFlagPrototyped, spFlags: DISPFlagOptimized)
!496 = !DISubprogram(name: "nsecval", linkageName: "_ZNK9Timestamp7nsecvalEv", scope: !386, file: !387, line: 281, type: !492, scopeLine: 281, flags: DIFlagPublic | DIFlagPrototyped, spFlags: DISPFlagOptimized)
!497 = !DISubprogram(name: "msec_ceil", linkageName: "_ZNK9Timestamp9msec_ceilEv", scope: !386, file: !387, line: 290, type: !498, scopeLine: 290, flags: DIFlagPublic | DIFlagPrototyped, spFlags: DISPFlagOptimized)
!498 = !DISubroutineType(types: !499)
!499 = !{!386, !461}
!500 = !DISubprogram(name: "usec_ceil", linkageName: "_ZNK9Timestamp9usec_ceilEv", scope: !386, file: !387, line: 295, type: !498, scopeLine: 295, flags: DIFlagPublic | DIFlagPrototyped, spFlags: DISPFlagOptimized)
!501 = !DISubprogram(name: "nsec_ceil", linkageName: "_ZNK9Timestamp9nsec_ceilEv", scope: !386, file: !387, line: 304, type: !498, scopeLine: 304, flags: DIFlagPublic | DIFlagPrototyped, spFlags: DISPFlagOptimized)
!502 = !DISubprogram(name: "make_jiffies", linkageName: "_ZN9Timestamp12make_jiffiesEj", scope: !386, file: !387, line: 310, type: !503, scopeLine: 310, flags: DIFlagPublic | DIFlagPrototyped | DIFlagStaticMember, spFlags: DISPFlagOptimized)
!503 = !DISubroutineType(types: !504)
!504 = !{!386, !505}
!505 = !DIDerivedType(tag: DW_TAG_typedef, name: "click_jiffies_t", file: !506, line: 477, baseType: !16)
!506 = !DIFile(filename: "../dummy_inc/click/glue.hh", directory: "/home/john/projects/click/ir-dir")
!507 = !DISubprogram(name: "make_jiffies", linkageName: "_ZN9Timestamp12make_jiffiesEi", scope: !386, file: !387, line: 312, type: !508, scopeLine: 312, flags: DIFlagPublic | DIFlagPrototyped | DIFlagStaticMember, spFlags: DISPFlagOptimized)
!508 = !DISubroutineType(types: !509)
!509 = !{!386, !510}
!510 = !DIDerivedType(tag: DW_TAG_typedef, name: "click_jiffies_difference_t", file: !506, line: 478, baseType: !34)
!511 = !DISubprogram(name: "jiffies", linkageName: "_ZNK9Timestamp7jiffiesEv", scope: !386, file: !387, line: 314, type: !512, scopeLine: 314, flags: DIFlagPublic | DIFlagPrototyped, spFlags: DISPFlagOptimized)
!512 = !DISubroutineType(types: !513)
!513 = !{!505, !461}
!514 = !DISubprogram(name: "make_sec", linkageName: "_ZN9Timestamp8make_secEi", scope: !386, file: !387, line: 318, type: !515, scopeLine: 318, flags: DIFlagPublic | DIFlagPrototyped | DIFlagStaticMember, spFlags: DISPFlagOptimized)
!515 = !DISubroutineType(types: !516)
!516 = !{!386, !460}
!517 = !DISubprogram(name: "make_msec", linkageName: "_ZN9Timestamp9make_msecEij", scope: !386, file: !387, line: 324, type: !518, scopeLine: 324, flags: DIFlagPublic | DIFlagPrototyped | DIFlagStaticMember, spFlags: DISPFlagOptimized)
!518 = !DISubroutineType(types: !519)
!519 = !{!386, !460, !12}
!520 = !DISubprogram(name: "make_msec", linkageName: "_ZN9Timestamp9make_msecEl", scope: !386, file: !387, line: 328, type: !521, scopeLine: 328, flags: DIFlagPublic | DIFlagPrototyped | DIFlagStaticMember, spFlags: DISPFlagOptimized)
!521 = !DISubroutineType(types: !522)
!522 = !{!386, !494}
!523 = !DISubprogram(name: "make_usec", linkageName: "_ZN9Timestamp9make_usecEij", scope: !386, file: !387, line: 341, type: !518, scopeLine: 341, flags: DIFlagPublic | DIFlagPrototyped | DIFlagStaticMember, spFlags: DISPFlagOptimized)
!524 = !DISubprogram(name: "make_usec", linkageName: "_ZN9Timestamp9make_usecEl", scope: !386, file: !387, line: 345, type: !521, scopeLine: 345, flags: DIFlagPublic | DIFlagPrototyped | DIFlagStaticMember, spFlags: DISPFlagOptimized)
!525 = !DISubprogram(name: "make_nsec", linkageName: "_ZN9Timestamp9make_nsecEij", scope: !386, file: !387, line: 358, type: !518, scopeLine: 358, flags: DIFlagPublic | DIFlagPrototyped | DIFlagStaticMember, spFlags: DISPFlagOptimized)
!526 = !DISubprogram(name: "make_nsec", linkageName: "_ZN9Timestamp9make_nsecEl", scope: !386, file: !387, line: 362, type: !521, scopeLine: 362, flags: DIFlagPublic | DIFlagPrototyped | DIFlagStaticMember, spFlags: DISPFlagOptimized)
!527 = !DISubprogram(name: "epsilon", linkageName: "_ZN9Timestamp7epsilonEv", scope: !386, file: !387, line: 375, type: !528, scopeLine: 375, flags: DIFlagPublic | DIFlagPrototyped | DIFlagStaticMember, spFlags: DISPFlagOptimized)
!528 = !DISubroutineType(types: !529)
!529 = !{!386}
!530 = !DISubprogram(name: "clear", linkageName: "_ZN9Timestamp5clearEv", scope: !386, file: !387, line: 380, type: !397, scopeLine: 380, flags: DIFlagPublic | DIFlagPrototyped, spFlags: DISPFlagOptimized)
!531 = !DISubprogram(name: "assign", linkageName: "_ZN9Timestamp6assignEij", scope: !386, file: !387, line: 388, type: !532, scopeLine: 388, flags: DIFlagPublic | DIFlagPrototyped, spFlags: DISPFlagOptimized)
!532 = !DISubroutineType(types: !533)
!533 = !{null, !399, !460, !12}
!534 = !DISubprogram(name: "assign_usec", linkageName: "_ZN9Timestamp11assign_usecEij", scope: !386, file: !387, line: 397, type: !532, scopeLine: 397, flags: DIFlagPublic | DIFlagPrototyped, spFlags: DISPFlagOptimized)
!535 = !DISubprogram(name: "assign_nsec", linkageName: "_ZN9Timestamp11assign_nsecEij", scope: !386, file: !387, line: 401, type: !532, scopeLine: 401, flags: DIFlagPublic | DIFlagPrototyped, spFlags: DISPFlagOptimized)
!536 = !DISubprogram(name: "set", linkageName: "_ZN9Timestamp3setEij", scope: !386, file: !387, line: 408, type: !532, scopeLine: 408, flags: DIFlagPublic | DIFlagPrototyped, spFlags: DISPFlagOptimized)
!537 = !DISubprogram(name: "set_usec", linkageName: "_ZN9Timestamp8set_usecEij", scope: !386, file: !387, line: 411, type: !532, scopeLine: 411, flags: DIFlagPublic | DIFlagPrototyped, spFlags: DISPFlagOptimized)
!538 = !DISubprogram(name: "set_nsec", linkageName: "_ZN9Timestamp8set_nsecEij", scope: !386, file: !387, line: 414, type: !532, scopeLine: 414, flags: DIFlagPublic | DIFlagPrototyped, spFlags: DISPFlagOptimized)
!539 = !DISubprogram(name: "set_now", linkageName: "_ZN9Timestamp7set_nowEv", scope: !386, file: !387, line: 417, type: !397, scopeLine: 417, flags: DIFlagPublic | DIFlagPrototyped, spFlags: DISPFlagOptimized)
!540 = !DISubprogram(name: "set_timeval_ioctl", linkageName: "_ZN9Timestamp17set_timeval_ioctlEii", scope: !386, file: !387, line: 420, type: !541, scopeLine: 420, flags: DIFlagPublic | DIFlagPrototyped, spFlags: DISPFlagOptimized)
!541 = !DISubroutineType(types: !542)
!542 = !{!34, !399, !34, !34}
!543 = !DISubprogram(name: "now", linkageName: "_ZN9Timestamp3nowEv", scope: !386, file: !387, line: 432, type: !528, scopeLine: 432, flags: DIFlagPublic | DIFlagPrototyped | DIFlagStaticMember, spFlags: DISPFlagOptimized)
!544 = !DISubprogram(name: "assign_now", linkageName: "_ZN9Timestamp10assign_nowEv", scope: !386, file: !387, line: 438, type: !397, scopeLine: 438, flags: DIFlagPublic | DIFlagPrototyped, spFlags: DISPFlagOptimized)
!545 = !DISubprogram(name: "recent", linkageName: "_ZN9Timestamp6recentEv", scope: !386, file: !387, line: 446, type: !528, scopeLine: 446, flags: DIFlagPublic | DIFlagPrototyped | DIFlagStaticMember, spFlags: DISPFlagOptimized)
!546 = !DISubprogram(name: "assign_recent", linkageName: "_ZN9Timestamp13assign_recentEv", scope: !386, file: !387, line: 452, type: !397, scopeLine: 452, flags: DIFlagPublic | DIFlagPrototyped, spFlags: DISPFlagOptimized)
!547 = !DISubprogram(name: "now_steady", linkageName: "_ZN9Timestamp10now_steadyEv", scope: !386, file: !387, line: 466, type: !528, scopeLine: 466, flags: DIFlagPublic | DIFlagPrototyped | DIFlagStaticMember, spFlags: DISPFlagOptimized)
!548 = !DISubprogram(name: "assign_now_steady", linkageName: "_ZN9Timestamp17assign_now_steadyEv", scope: !386, file: !387, line: 472, type: !397, scopeLine: 472, flags: DIFlagPublic | DIFlagPrototyped, spFlags: DISPFlagOptimized)
!549 = !DISubprogram(name: "recent_steady", linkageName: "_ZN9Timestamp13recent_steadyEv", scope: !386, file: !387, line: 481, type: !528, scopeLine: 481, flags: DIFlagPublic | DIFlagPrototyped | DIFlagStaticMember, spFlags: DISPFlagOptimized)
!550 = !DISubprogram(name: "assign_recent_steady", linkageName: "_ZN9Timestamp20assign_recent_steadyEv", scope: !386, file: !387, line: 487, type: !397, scopeLine: 487, flags: DIFlagPublic | DIFlagPrototyped, spFlags: DISPFlagOptimized)
!551 = !DISubprogram(name: "unparse", linkageName: "_ZNK9Timestamp7unparseEv", scope: !386, file: !387, line: 496, type: !552, scopeLine: 496, flags: DIFlagPublic | DIFlagPrototyped, spFlags: DISPFlagOptimized)
!552 = !DISubroutineType(types: !553)
!553 = !{!554, !461}
!554 = distinct !DICompositeType(tag: DW_TAG_class_type, name: "String", file: !555, line: 19, size: 192, flags: DIFlagTypePassByReference | DIFlagNonTrivial, elements: !556, identifier: "_ZTS6String")
!555 = !DIFile(filename: "../dummy_inc/click/string.hh", directory: "/home/john/projects/click/ir-dir")
!556 = !{!557, !562, !576, !577, !581, !585, !587, !588, !592, !597, !601, !604, !607, !610, !613, !616, !619, !622, !625, !628, !631, !634, !637, !641, !645, !648, !649, !652, !655, !656, !659, !662, !665, !669, !673, !677, !680, !681, !686, !689, !690, !694, !695, !698, !699, !702, !703, !706, !709, !712, !715, !718, !721, !724, !727, !730, !733, !736, !739, !740, !741, !742, !745, !748, !749, !750, !751, !752, !753, !754, !758, !761, !764, !767, !768, !769, !770, !771, !772, !775, !779, !780, !781, !782, !785, !786, !787, !788, !789, !790, !793, !794, !795, !796, !799, !802, !803, !806, !809, !812, !815, !818, !821, !824, !825, !826, !827, !830, !833, !836, !837, !838}
!557 = !DIDerivedType(tag: DW_TAG_member, name: "bool_data", scope: !554, file: !555, line: 184, baseType: !558, flags: DIFlagPublic | DIFlagStaticMember)
!558 = !DICompositeType(tag: DW_TAG_array_type, baseType: !559, size: 88, elements: !560)
!559 = !DIDerivedType(tag: DW_TAG_const_type, baseType: !93)
!560 = !{!561}
!561 = !DISubrange(count: 11)
!562 = !DIDerivedType(tag: DW_TAG_member, name: "_r", scope: !554, file: !555, line: 211, baseType: !563, size: 192)
!563 = distinct !DICompositeType(tag: DW_TAG_structure_type, name: "rep_t", scope: !554, file: !555, line: 204, size: 192, flags: DIFlagTypePassByValue, elements: !564, identifier: "_ZTSN6String5rep_tE")
!564 = !{!565, !567, !568}
!565 = !DIDerivedType(tag: DW_TAG_member, name: "data", scope: !563, file: !555, line: 205, baseType: !566, size: 64)
!566 = !DIDerivedType(tag: DW_TAG_pointer_type, baseType: !559, size: 64)
!567 = !DIDerivedType(tag: DW_TAG_member, name: "length", scope: !563, file: !555, line: 206, baseType: !34, size: 32, offset: 64)
!568 = !DIDerivedType(tag: DW_TAG_member, name: "memo", scope: !563, file: !555, line: 207, baseType: !569, size: 64, offset: 128)
!569 = !DIDerivedType(tag: DW_TAG_pointer_type, baseType: !570, size: 64)
!570 = distinct !DICompositeType(tag: DW_TAG_structure_type, name: "memo_t", scope: !554, file: !555, line: 189, size: 160, flags: DIFlagTypePassByValue, elements: !571, identifier: "_ZTSN6String6memo_tE")
!571 = !{!572, !573, !574, !575}
!572 = !DIDerivedType(tag: DW_TAG_member, name: "refcount", scope: !570, file: !555, line: 190, baseType: !64, size: 32)
!573 = !DIDerivedType(tag: DW_TAG_member, name: "capacity", scope: !570, file: !555, line: 191, baseType: !12, size: 32, offset: 32)
!574 = !DIDerivedType(tag: DW_TAG_member, name: "dirty", scope: !570, file: !555, line: 192, baseType: !64, size: 32, offset: 64)
!575 = !DIDerivedType(tag: DW_TAG_member, name: "real_data", scope: !570, file: !555, line: 197, baseType: !123, size: 64, offset: 96)
!576 = !DIDerivedType(tag: DW_TAG_member, name: "null_data", scope: !554, file: !555, line: 292, baseType: !559, flags: DIFlagStaticMember)
!577 = !DIDerivedType(tag: DW_TAG_member, name: "oom_data", scope: !554, file: !555, line: 293, baseType: !578, flags: DIFlagStaticMember)
!578 = !DICompositeType(tag: DW_TAG_array_type, baseType: !559, size: 120, elements: !579)
!579 = !{!580}
!580 = !DISubrange(count: 15)
!581 = !DIDerivedType(tag: DW_TAG_member, name: "int_data", scope: !554, file: !555, line: 294, baseType: !582, flags: DIFlagStaticMember)
!582 = !DICompositeType(tag: DW_TAG_array_type, baseType: !559, size: 160, elements: !583)
!583 = !{!584}
!584 = !DISubrange(count: 20)
!585 = !DIDerivedType(tag: DW_TAG_member, name: "null_string_rep", scope: !554, file: !555, line: 295, baseType: !586, flags: DIFlagStaticMember)
!586 = !DIDerivedType(tag: DW_TAG_const_type, baseType: !563)
!587 = !DIDerivedType(tag: DW_TAG_member, name: "oom_string_rep", scope: !554, file: !555, line: 296, baseType: !586, flags: DIFlagStaticMember)
!588 = !DISubprogram(name: "String", scope: !554, file: !555, line: 39, type: !589, scopeLine: 39, flags: DIFlagPublic | DIFlagPrototyped, spFlags: DISPFlagOptimized)
!589 = !DISubroutineType(types: !590)
!590 = !{null, !591}
!591 = !DIDerivedType(tag: DW_TAG_pointer_type, baseType: !554, size: 64, flags: DIFlagArtificial | DIFlagObjectPointer)
!592 = !DISubprogram(name: "String", scope: !554, file: !555, line: 40, type: !593, scopeLine: 40, flags: DIFlagPublic | DIFlagPrototyped, spFlags: DISPFlagOptimized)
!593 = !DISubroutineType(types: !594)
!594 = !{null, !591, !595}
!595 = !DIDerivedType(tag: DW_TAG_reference_type, baseType: !596, size: 64)
!596 = !DIDerivedType(tag: DW_TAG_const_type, baseType: !554)
!597 = !DISubprogram(name: "String", scope: !554, file: !555, line: 42, type: !598, scopeLine: 42, flags: DIFlagPublic | DIFlagPrototyped, spFlags: DISPFlagOptimized)
!598 = !DISubroutineType(types: !599)
!599 = !{null, !591, !600}
!600 = !DIDerivedType(tag: DW_TAG_rvalue_reference_type, baseType: !554, size: 64)
!601 = !DISubprogram(name: "String", scope: !554, file: !555, line: 44, type: !602, scopeLine: 44, flags: DIFlagPublic | DIFlagPrototyped, spFlags: DISPFlagOptimized)
!602 = !DISubroutineType(types: !603)
!603 = !{null, !591, !566}
!604 = !DISubprogram(name: "String", scope: !554, file: !555, line: 45, type: !605, scopeLine: 45, flags: DIFlagPublic | DIFlagPrototyped, spFlags: DISPFlagOptimized)
!605 = !DISubroutineType(types: !606)
!606 = !{null, !591, !566, !34}
!607 = !DISubprogram(name: "String", scope: !554, file: !555, line: 46, type: !608, scopeLine: 46, flags: DIFlagPublic | DIFlagPrototyped, spFlags: DISPFlagOptimized)
!608 = !DISubroutineType(types: !609)
!609 = !{null, !591, !255, !34}
!610 = !DISubprogram(name: "String", scope: !554, file: !555, line: 47, type: !611, scopeLine: 47, flags: DIFlagPublic | DIFlagPrototyped, spFlags: DISPFlagOptimized)
!611 = !DISubroutineType(types: !612)
!612 = !{null, !591, !566, !566}
!613 = !DISubprogram(name: "String", scope: !554, file: !555, line: 48, type: !614, scopeLine: 48, flags: DIFlagPublic | DIFlagPrototyped, spFlags: DISPFlagOptimized)
!614 = !DISubroutineType(types: !615)
!615 = !{null, !591, !255, !255}
!616 = !DISubprogram(name: "String", scope: !554, file: !555, line: 49, type: !617, scopeLine: 49, flags: DIFlagPublic | DIFlagExplicit | DIFlagPrototyped, spFlags: DISPFlagOptimized)
!617 = !DISubroutineType(types: !618)
!618 = !{null, !591, !53}
!619 = !DISubprogram(name: "String", scope: !554, file: !555, line: 50, type: !620, scopeLine: 50, flags: DIFlagPublic | DIFlagExplicit | DIFlagPrototyped, spFlags: DISPFlagOptimized)
!620 = !DISubroutineType(types: !621)
!621 = !{null, !591, !93}
!622 = !DISubprogram(name: "String", scope: !554, file: !555, line: 51, type: !623, scopeLine: 51, flags: DIFlagPublic | DIFlagExplicit | DIFlagPrototyped, spFlags: DISPFlagOptimized)
!623 = !DISubroutineType(types: !624)
!624 = !{null, !591, !81}
!625 = !DISubprogram(name: "String", scope: !554, file: !555, line: 52, type: !626, scopeLine: 52, flags: DIFlagPublic | DIFlagExplicit | DIFlagPrototyped, spFlags: DISPFlagOptimized)
!626 = !DISubroutineType(types: !627)
!627 = !{null, !591, !34}
!628 = !DISubprogram(name: "String", scope: !554, file: !555, line: 53, type: !629, scopeLine: 53, flags: DIFlagPublic | DIFlagExplicit | DIFlagPrototyped, spFlags: DISPFlagOptimized)
!629 = !DISubroutineType(types: !630)
!630 = !{null, !591, !16}
!631 = !DISubprogram(name: "String", scope: !554, file: !555, line: 54, type: !632, scopeLine: 54, flags: DIFlagPublic | DIFlagExplicit | DIFlagPrototyped, spFlags: DISPFlagOptimized)
!632 = !DISubroutineType(types: !633)
!633 = !{null, !591, !395}
!634 = !DISubprogram(name: "String", scope: !554, file: !555, line: 55, type: !635, scopeLine: 55, flags: DIFlagPublic | DIFlagExplicit | DIFlagPrototyped, spFlags: DISPFlagOptimized)
!635 = !DISubroutineType(types: !636)
!636 = !{null, !591, !115}
!637 = !DISubprogram(name: "String", scope: !554, file: !555, line: 57, type: !638, scopeLine: 57, flags: DIFlagPublic | DIFlagExplicit | DIFlagPrototyped, spFlags: DISPFlagOptimized)
!638 = !DISubroutineType(types: !639)
!639 = !{null, !591, !640}
!640 = !DIBasicType(name: "long long int", size: 64, encoding: DW_ATE_signed)
!641 = !DISubprogram(name: "String", scope: !554, file: !555, line: 58, type: !642, scopeLine: 58, flags: DIFlagPublic | DIFlagExplicit | DIFlagPrototyped, spFlags: DISPFlagOptimized)
!642 = !DISubroutineType(types: !643)
!643 = !{null, !591, !644}
!644 = !DIBasicType(name: "long long unsigned int", size: 64, encoding: DW_ATE_unsigned)
!645 = !DISubprogram(name: "String", scope: !554, file: !555, line: 65, type: !646, scopeLine: 65, flags: DIFlagPublic | DIFlagExplicit | DIFlagPrototyped, spFlags: DISPFlagOptimized)
!646 = !DISubroutineType(types: !647)
!647 = !{null, !591, !415}
!648 = !DISubprogram(name: "~String", scope: !554, file: !555, line: 67, type: !589, scopeLine: 67, flags: DIFlagPublic | DIFlagPrototyped, spFlags: DISPFlagOptimized)
!649 = !DISubprogram(name: "make_empty", linkageName: "_ZN6String10make_emptyEv", scope: !554, file: !555, line: 69, type: !650, scopeLine: 69, flags: DIFlagPublic | DIFlagPrototyped | DIFlagStaticMember, spFlags: DISPFlagOptimized)
!650 = !DISubroutineType(types: !651)
!651 = !{!595}
!652 = !DISubprogram(name: "make_uninitialized", linkageName: "_ZN6String18make_uninitializedEi", scope: !554, file: !555, line: 70, type: !653, scopeLine: 70, flags: DIFlagPublic | DIFlagPrototyped | DIFlagStaticMember, spFlags: DISPFlagOptimized)
!653 = !DISubroutineType(types: !654)
!654 = !{!554, !34}
!655 = !DISubprogram(name: "make_garbage", linkageName: "_ZN6String12make_garbageEi", scope: !554, file: !555, line: 71, type: !653, scopeLine: 71, flags: DIFlagPublic | DIFlagPrototyped | DIFlagStaticMember, spFlags: DISPFlagOptimized)
!656 = !DISubprogram(name: "make_stable", linkageName: "_ZN6String11make_stableEPKc", scope: !554, file: !555, line: 72, type: !657, scopeLine: 72, flags: DIFlagPublic | DIFlagPrototyped | DIFlagStaticMember, spFlags: DISPFlagOptimized)
!657 = !DISubroutineType(types: !658)
!658 = !{!554, !566}
!659 = !DISubprogram(name: "make_stable", linkageName: "_ZN6String11make_stableEPKci", scope: !554, file: !555, line: 73, type: !660, scopeLine: 73, flags: DIFlagPublic | DIFlagPrototyped | DIFlagStaticMember, spFlags: DISPFlagOptimized)
!660 = !DISubroutineType(types: !661)
!661 = !{!554, !566, !34}
!662 = !DISubprogram(name: "make_stable", linkageName: "_ZN6String11make_stableEPKcS1_", scope: !554, file: !555, line: 74, type: !663, scopeLine: 74, flags: DIFlagPublic | DIFlagPrototyped | DIFlagStaticMember, spFlags: DISPFlagOptimized)
!663 = !DISubroutineType(types: !664)
!664 = !{!554, !566, !566}
!665 = !DISubprogram(name: "make_numeric", linkageName: "_ZN6String12make_numericElib", scope: !554, file: !555, line: 75, type: !666, scopeLine: 75, flags: DIFlagPublic | DIFlagPrototyped | DIFlagStaticMember, spFlags: DISPFlagOptimized)
!666 = !DISubroutineType(types: !667)
!667 = !{!554, !668, !34, !53}
!668 = !DIDerivedType(tag: DW_TAG_typedef, name: "intmax_t", scope: !554, file: !555, line: 27, baseType: !393)
!669 = !DISubprogram(name: "make_numeric", linkageName: "_ZN6String12make_numericEmib", scope: !554, file: !555, line: 76, type: !670, scopeLine: 76, flags: DIFlagPublic | DIFlagPrototyped | DIFlagStaticMember, spFlags: DISPFlagOptimized)
!670 = !DISubroutineType(types: !671)
!671 = !{!554, !672, !34, !53}
!672 = !DIDerivedType(tag: DW_TAG_typedef, name: "uintmax_t", scope: !554, file: !555, line: 28, baseType: !113)
!673 = !DISubprogram(name: "data", linkageName: "_ZNK6String4dataEv", scope: !554, file: !555, line: 78, type: !674, scopeLine: 78, flags: DIFlagPublic | DIFlagPrototyped, spFlags: DISPFlagOptimized)
!674 = !DISubroutineType(types: !675)
!675 = !{!566, !676}
!676 = !DIDerivedType(tag: DW_TAG_pointer_type, baseType: !596, size: 64, flags: DIFlagArtificial | DIFlagObjectPointer)
!677 = !DISubprogram(name: "length", linkageName: "_ZNK6String6lengthEv", scope: !554, file: !555, line: 79, type: !678, scopeLine: 79, flags: DIFlagPublic | DIFlagPrototyped, spFlags: DISPFlagOptimized)
!678 = !DISubroutineType(types: !679)
!679 = !{!34, !676}
!680 = !DISubprogram(name: "c_str", linkageName: "_ZNK6String5c_strEv", scope: !554, file: !555, line: 81, type: !674, scopeLine: 81, flags: DIFlagPublic | DIFlagPrototyped, spFlags: DISPFlagOptimized)
!681 = !DISubprogram(name: "operator int (String::*)() const", linkageName: "_ZNK6StringcvMS_KFivEEv", scope: !554, file: !555, line: 83, type: !682, scopeLine: 83, flags: DIFlagPublic | DIFlagPrototyped, spFlags: DISPFlagOptimized)
!682 = !DISubroutineType(types: !683)
!683 = !{!684, !676}
!684 = !DIDerivedType(tag: DW_TAG_typedef, name: "unspecified_bool_type", scope: !554, file: !555, line: 24, baseType: !685)
!685 = !DIDerivedType(tag: DW_TAG_ptr_to_member_type, baseType: !678, size: 128, extraData: !554)
!686 = !DISubprogram(name: "empty", linkageName: "_ZNK6String5emptyEv", scope: !554, file: !555, line: 84, type: !687, scopeLine: 84, flags: DIFlagPublic | DIFlagPrototyped, spFlags: DISPFlagOptimized)
!687 = !DISubroutineType(types: !688)
!688 = !{!53, !676}
!689 = !DISubprogram(name: "operator!", linkageName: "_ZNK6StringntEv", scope: !554, file: !555, line: 85, type: !687, scopeLine: 85, flags: DIFlagPublic | DIFlagPrototyped, spFlags: DISPFlagOptimized)
!690 = !DISubprogram(name: "begin", linkageName: "_ZNK6String5beginEv", scope: !554, file: !555, line: 87, type: !691, scopeLine: 87, flags: DIFlagPublic | DIFlagPrototyped, spFlags: DISPFlagOptimized)
!691 = !DISubroutineType(types: !692)
!692 = !{!693, !676}
!693 = !DIDerivedType(tag: DW_TAG_typedef, name: "const_iterator", scope: !554, file: !555, line: 21, baseType: !566)
!694 = !DISubprogram(name: "end", linkageName: "_ZNK6String3endEv", scope: !554, file: !555, line: 88, type: !691, scopeLine: 88, flags: DIFlagPublic | DIFlagPrototyped, spFlags: DISPFlagOptimized)
!695 = !DISubprogram(name: "operator[]", linkageName: "_ZNK6StringixEi", scope: !554, file: !555, line: 90, type: !696, scopeLine: 90, flags: DIFlagPublic | DIFlagPrototyped, spFlags: DISPFlagOptimized)
!696 = !DISubroutineType(types: !697)
!697 = !{!93, !676, !34}
!698 = !DISubprogram(name: "at", linkageName: "_ZNK6String2atEi", scope: !554, file: !555, line: 91, type: !696, scopeLine: 91, flags: DIFlagPublic | DIFlagPrototyped, spFlags: DISPFlagOptimized)
!699 = !DISubprogram(name: "front", linkageName: "_ZNK6String5frontEv", scope: !554, file: !555, line: 92, type: !700, scopeLine: 92, flags: DIFlagPublic | DIFlagPrototyped, spFlags: DISPFlagOptimized)
!700 = !DISubroutineType(types: !701)
!701 = !{!93, !676}
!702 = !DISubprogram(name: "back", linkageName: "_ZNK6String4backEv", scope: !554, file: !555, line: 93, type: !700, scopeLine: 93, flags: DIFlagPublic | DIFlagPrototyped, spFlags: DISPFlagOptimized)
!703 = !DISubprogram(name: "hashcode", linkageName: "_ZN6String8hashcodeEPKcS1_", scope: !554, file: !555, line: 95, type: !704, scopeLine: 95, flags: DIFlagPublic | DIFlagPrototyped | DIFlagStaticMember, spFlags: DISPFlagOptimized)
!704 = !DISubroutineType(types: !705)
!705 = !{!12, !566, !566}
!706 = !DISubprogram(name: "hashcode", linkageName: "_ZN6String8hashcodeEPKhS1_", scope: !554, file: !555, line: 96, type: !707, scopeLine: 96, flags: DIFlagPublic | DIFlagPrototyped | DIFlagStaticMember, spFlags: DISPFlagOptimized)
!707 = !DISubroutineType(types: !708)
!708 = !{!12, !255, !255}
!709 = !DISubprogram(name: "hashcode", linkageName: "_ZNK6String8hashcodeEv", scope: !554, file: !555, line: 98, type: !710, scopeLine: 98, flags: DIFlagPublic | DIFlagPrototyped, spFlags: DISPFlagOptimized)
!710 = !DISubroutineType(types: !711)
!711 = !{!12, !676}
!712 = !DISubprogram(name: "substring", linkageName: "_ZNK6String9substringEPKcS1_", scope: !554, file: !555, line: 100, type: !713, scopeLine: 100, flags: DIFlagPublic | DIFlagPrototyped, spFlags: DISPFlagOptimized)
!713 = !DISubroutineType(types: !714)
!714 = !{!554, !676, !566, !566}
!715 = !DISubprogram(name: "substring", linkageName: "_ZNK6String9substringEii", scope: !554, file: !555, line: 101, type: !716, scopeLine: 101, flags: DIFlagPublic | DIFlagPrototyped, spFlags: DISPFlagOptimized)
!716 = !DISubroutineType(types: !717)
!717 = !{!554, !676, !34, !34}
!718 = !DISubprogram(name: "substring", linkageName: "_ZNK6String9substringEi", scope: !554, file: !555, line: 102, type: !719, scopeLine: 102, flags: DIFlagPublic | DIFlagPrototyped, spFlags: DISPFlagOptimized)
!719 = !DISubroutineType(types: !720)
!720 = !{!554, !676, !34}
!721 = !DISubprogram(name: "trim_space", linkageName: "_ZNK6String10trim_spaceEv", scope: !554, file: !555, line: 103, type: !722, scopeLine: 103, flags: DIFlagPublic | DIFlagPrototyped, spFlags: DISPFlagOptimized)
!722 = !DISubroutineType(types: !723)
!723 = !{!554, !676}
!724 = !DISubprogram(name: "equals", linkageName: "_ZNK6String6equalsERKS_", scope: !554, file: !555, line: 105, type: !725, scopeLine: 105, flags: DIFlagPublic | DIFlagPrototyped, spFlags: DISPFlagOptimized)
!725 = !DISubroutineType(types: !726)
!726 = !{!53, !676, !595}
!727 = !DISubprogram(name: "equals", linkageName: "_ZNK6String6equalsEPKci", scope: !554, file: !555, line: 106, type: !728, scopeLine: 106, flags: DIFlagPublic | DIFlagPrototyped, spFlags: DISPFlagOptimized)
!728 = !DISubroutineType(types: !729)
!729 = !{!53, !676, !566, !34}
!730 = !DISubprogram(name: "compare", linkageName: "_ZN6String7compareERKS_S1_", scope: !554, file: !555, line: 107, type: !731, scopeLine: 107, flags: DIFlagPublic | DIFlagPrototyped | DIFlagStaticMember, spFlags: DISPFlagOptimized)
!731 = !DISubroutineType(types: !732)
!732 = !{!34, !595, !595}
!733 = !DISubprogram(name: "compare", linkageName: "_ZNK6String7compareERKS_", scope: !554, file: !555, line: 108, type: !734, scopeLine: 108, flags: DIFlagPublic | DIFlagPrototyped, spFlags: DISPFlagOptimized)
!734 = !DISubroutineType(types: !735)
!735 = !{!34, !676, !595}
!736 = !DISubprogram(name: "compare", linkageName: "_ZNK6String7compareEPKci", scope: !554, file: !555, line: 109, type: !737, scopeLine: 109, flags: DIFlagPublic | DIFlagPrototyped, spFlags: DISPFlagOptimized)
!737 = !DISubroutineType(types: !738)
!738 = !{!34, !676, !566, !34}
!739 = !DISubprogram(name: "starts_with", linkageName: "_ZNK6String11starts_withERKS_", scope: !554, file: !555, line: 110, type: !725, scopeLine: 110, flags: DIFlagPublic | DIFlagPrototyped, spFlags: DISPFlagOptimized)
!740 = !DISubprogram(name: "starts_with", linkageName: "_ZNK6String11starts_withEPKci", scope: !554, file: !555, line: 111, type: !728, scopeLine: 111, flags: DIFlagPublic | DIFlagPrototyped, spFlags: DISPFlagOptimized)
!741 = !DISubprogram(name: "glob_match", linkageName: "_ZNK6String10glob_matchERKS_", scope: !554, file: !555, line: 112, type: !725, scopeLine: 112, flags: DIFlagPublic | DIFlagPrototyped, spFlags: DISPFlagOptimized)
!742 = !DISubprogram(name: "find_left", linkageName: "_ZNK6String9find_leftEci", scope: !554, file: !555, line: 125, type: !743, scopeLine: 125, flags: DIFlagPublic | DIFlagPrototyped, spFlags: DISPFlagOptimized)
!743 = !DISubroutineType(types: !744)
!744 = !{!34, !676, !93, !34}
!745 = !DISubprogram(name: "find_left", linkageName: "_ZNK6String9find_leftERKS_i", scope: !554, file: !555, line: 126, type: !746, scopeLine: 126, flags: DIFlagPublic | DIFlagPrototyped, spFlags: DISPFlagOptimized)
!746 = !DISubroutineType(types: !747)
!747 = !{!34, !676, !595, !34}
!748 = !DISubprogram(name: "find_right", linkageName: "_ZNK6String10find_rightEci", scope: !554, file: !555, line: 127, type: !743, scopeLine: 127, flags: DIFlagPublic | DIFlagPrototyped, spFlags: DISPFlagOptimized)
!749 = !DISubprogram(name: "lower", linkageName: "_ZNK6String5lowerEv", scope: !554, file: !555, line: 129, type: !722, scopeLine: 129, flags: DIFlagPublic | DIFlagPrototyped, spFlags: DISPFlagOptimized)
!750 = !DISubprogram(name: "upper", linkageName: "_ZNK6String5upperEv", scope: !554, file: !555, line: 130, type: !722, scopeLine: 130, flags: DIFlagPublic | DIFlagPrototyped, spFlags: DISPFlagOptimized)
!751 = !DISubprogram(name: "printable", linkageName: "_ZNK6String9printableEv", scope: !554, file: !555, line: 131, type: !722, scopeLine: 131, flags: DIFlagPublic | DIFlagPrototyped, spFlags: DISPFlagOptimized)
!752 = !DISubprogram(name: "quoted_hex", linkageName: "_ZNK6String10quoted_hexEv", scope: !554, file: !555, line: 132, type: !722, scopeLine: 132, flags: DIFlagPublic | DIFlagPrototyped, spFlags: DISPFlagOptimized)
!753 = !DISubprogram(name: "encode_json", linkageName: "_ZNK6String11encode_jsonEv", scope: !554, file: !555, line: 133, type: !722, scopeLine: 133, flags: DIFlagPublic | DIFlagPrototyped, spFlags: DISPFlagOptimized)
!754 = !DISubprogram(name: "operator=", linkageName: "_ZN6StringaSERKS_", scope: !554, file: !555, line: 135, type: !755, scopeLine: 135, flags: DIFlagPublic | DIFlagPrototyped, spFlags: DISPFlagOptimized)
!755 = !DISubroutineType(types: !756)
!756 = !{!757, !591, !595}
!757 = !DIDerivedType(tag: DW_TAG_reference_type, baseType: !554, size: 64)
!758 = !DISubprogram(name: "operator=", linkageName: "_ZN6StringaSEOS_", scope: !554, file: !555, line: 137, type: !759, scopeLine: 137, flags: DIFlagPublic | DIFlagPrototyped, spFlags: DISPFlagOptimized)
!759 = !DISubroutineType(types: !760)
!760 = !{!757, !591, !600}
!761 = !DISubprogram(name: "operator=", linkageName: "_ZN6StringaSEPKc", scope: !554, file: !555, line: 139, type: !762, scopeLine: 139, flags: DIFlagPublic | DIFlagPrototyped, spFlags: DISPFlagOptimized)
!762 = !DISubroutineType(types: !763)
!763 = !{!757, !591, !566}
!764 = !DISubprogram(name: "swap", linkageName: "_ZN6String4swapERS_", scope: !554, file: !555, line: 141, type: !765, scopeLine: 141, flags: DIFlagPublic | DIFlagPrototyped, spFlags: DISPFlagOptimized)
!765 = !DISubroutineType(types: !766)
!766 = !{null, !591, !757}
!767 = !DISubprogram(name: "append", linkageName: "_ZN6String6appendERKS_", scope: !554, file: !555, line: 143, type: !593, scopeLine: 143, flags: DIFlagPublic | DIFlagPrototyped, spFlags: DISPFlagOptimized)
!768 = !DISubprogram(name: "append", linkageName: "_ZN6String6appendEPKc", scope: !554, file: !555, line: 144, type: !602, scopeLine: 144, flags: DIFlagPublic | DIFlagPrototyped, spFlags: DISPFlagOptimized)
!769 = !DISubprogram(name: "append", linkageName: "_ZN6String6appendEPKci", scope: !554, file: !555, line: 145, type: !605, scopeLine: 145, flags: DIFlagPublic | DIFlagPrototyped, spFlags: DISPFlagOptimized)
!770 = !DISubprogram(name: "append", linkageName: "_ZN6String6appendEPKcS1_", scope: !554, file: !555, line: 146, type: !611, scopeLine: 146, flags: DIFlagPublic | DIFlagPrototyped, spFlags: DISPFlagOptimized)
!771 = !DISubprogram(name: "append", linkageName: "_ZN6String6appendEc", scope: !554, file: !555, line: 147, type: !620, scopeLine: 147, flags: DIFlagPublic | DIFlagPrototyped, spFlags: DISPFlagOptimized)
!772 = !DISubprogram(name: "append_fill", linkageName: "_ZN6String11append_fillEii", scope: !554, file: !555, line: 148, type: !773, scopeLine: 148, flags: DIFlagPublic | DIFlagPrototyped, spFlags: DISPFlagOptimized)
!773 = !DISubroutineType(types: !774)
!774 = !{null, !591, !34, !34}
!775 = !DISubprogram(name: "append_uninitialized", linkageName: "_ZN6String20append_uninitializedEi", scope: !554, file: !555, line: 149, type: !776, scopeLine: 149, flags: DIFlagPublic | DIFlagPrototyped, spFlags: DISPFlagOptimized)
!776 = !DISubroutineType(types: !777)
!777 = !{!778, !591, !34}
!778 = !DIDerivedType(tag: DW_TAG_pointer_type, baseType: !93, size: 64)
!779 = !DISubprogram(name: "append_garbage", linkageName: "_ZN6String14append_garbageEi", scope: !554, file: !555, line: 150, type: !776, scopeLine: 150, flags: DIFlagPublic | DIFlagPrototyped, spFlags: DISPFlagOptimized)
!780 = !DISubprogram(name: "operator+=", linkageName: "_ZN6StringpLERKS_", scope: !554, file: !555, line: 152, type: !755, scopeLine: 152, flags: DIFlagPublic | DIFlagPrototyped, spFlags: DISPFlagOptimized)
!781 = !DISubprogram(name: "operator+=", linkageName: "_ZN6StringpLEPKc", scope: !554, file: !555, line: 153, type: !762, scopeLine: 153, flags: DIFlagPublic | DIFlagPrototyped, spFlags: DISPFlagOptimized)
!782 = !DISubprogram(name: "operator+=", linkageName: "_ZN6StringpLEc", scope: !554, file: !555, line: 154, type: !783, scopeLine: 154, flags: DIFlagPublic | DIFlagPrototyped, spFlags: DISPFlagOptimized)
!783 = !DISubroutineType(types: !784)
!784 = !{!757, !591, !93}
!785 = !DISubprogram(name: "is_shared", linkageName: "_ZNK6String9is_sharedEv", scope: !554, file: !555, line: 160, type: !687, scopeLine: 160, flags: DIFlagPublic | DIFlagPrototyped, spFlags: DISPFlagOptimized)
!786 = !DISubprogram(name: "is_stable", linkageName: "_ZNK6String9is_stableEv", scope: !554, file: !555, line: 161, type: !687, scopeLine: 161, flags: DIFlagPublic | DIFlagPrototyped, spFlags: DISPFlagOptimized)
!787 = !DISubprogram(name: "unique", linkageName: "_ZNK6String6uniqueEv", scope: !554, file: !555, line: 163, type: !722, scopeLine: 163, flags: DIFlagPublic | DIFlagPrototyped, spFlags: DISPFlagOptimized)
!788 = !DISubprogram(name: "unshared", linkageName: "_ZNK6String8unsharedEv", scope: !554, file: !555, line: 164, type: !722, scopeLine: 164, flags: DIFlagPublic | DIFlagPrototyped, spFlags: DISPFlagOptimized)
!789 = !DISubprogram(name: "compact", linkageName: "_ZNK6String7compactEv", scope: !554, file: !555, line: 165, type: !722, scopeLine: 165, flags: DIFlagPublic | DIFlagPrototyped, spFlags: DISPFlagOptimized)
!790 = !DISubprogram(name: "mutable_data", linkageName: "_ZN6String12mutable_dataEv", scope: !554, file: !555, line: 167, type: !791, scopeLine: 167, flags: DIFlagPublic | DIFlagPrototyped, spFlags: DISPFlagOptimized)
!791 = !DISubroutineType(types: !792)
!792 = !{!778, !591}
!793 = !DISubprogram(name: "mutable_c_str", linkageName: "_ZN6String13mutable_c_strEv", scope: !554, file: !555, line: 168, type: !791, scopeLine: 168, flags: DIFlagPublic | DIFlagPrototyped, spFlags: DISPFlagOptimized)
!794 = !DISubprogram(name: "make_out_of_memory", linkageName: "_ZN6String18make_out_of_memoryEv", scope: !554, file: !555, line: 170, type: !650, scopeLine: 170, flags: DIFlagPublic | DIFlagPrototyped | DIFlagStaticMember, spFlags: DISPFlagOptimized)
!795 = !DISubprogram(name: "out_of_memory", linkageName: "_ZNK6String13out_of_memoryEv", scope: !554, file: !555, line: 171, type: !687, scopeLine: 171, flags: DIFlagPublic | DIFlagPrototyped, spFlags: DISPFlagOptimized)
!796 = !DISubprogram(name: "out_of_memory_data", linkageName: "_ZN6String18out_of_memory_dataEv", scope: !554, file: !555, line: 172, type: !797, scopeLine: 172, flags: DIFlagPublic | DIFlagPrototyped | DIFlagStaticMember, spFlags: DISPFlagOptimized)
!797 = !DISubroutineType(types: !798)
!798 = !{!566}
!799 = !DISubprogram(name: "out_of_memory_length", linkageName: "_ZN6String20out_of_memory_lengthEv", scope: !554, file: !555, line: 173, type: !800, scopeLine: 173, flags: DIFlagPublic | DIFlagPrototyped | DIFlagStaticMember, spFlags: DISPFlagOptimized)
!800 = !DISubroutineType(types: !801)
!801 = !{!34}
!802 = !DISubprogram(name: "empty_data", linkageName: "_ZN6String10empty_dataEv", scope: !554, file: !555, line: 174, type: !797, scopeLine: 174, flags: DIFlagPublic | DIFlagPrototyped | DIFlagStaticMember, spFlags: DISPFlagOptimized)
!803 = !DISubprogram(name: "skip_utf8_char", linkageName: "_ZN6String14skip_utf8_charEPKcS1_", scope: !554, file: !555, line: 180, type: !804, scopeLine: 180, flags: DIFlagPublic | DIFlagPrototyped | DIFlagStaticMember, spFlags: DISPFlagOptimized)
!804 = !DISubroutineType(types: !805)
!805 = !{!566, !566, !566}
!806 = !DISubprogram(name: "skip_utf8_char", linkageName: "_ZN6String14skip_utf8_charEPKhS1_", scope: !554, file: !555, line: 181, type: !807, scopeLine: 181, flags: DIFlagPublic | DIFlagPrototyped | DIFlagStaticMember, spFlags: DISPFlagOptimized)
!807 = !DISubroutineType(types: !808)
!808 = !{!255, !255, !255}
!809 = !DISubprogram(name: "assign_memo", linkageName: "_ZNK6String11assign_memoEPKciPNS_6memo_tE", scope: !554, file: !555, line: 256, type: !810, scopeLine: 256, flags: DIFlagPrototyped, spFlags: DISPFlagOptimized)
!810 = !DISubroutineType(types: !811)
!811 = !{null, !676, !566, !34, !569}
!812 = !DISubprogram(name: "String", scope: !554, file: !555, line: 263, type: !813, scopeLine: 263, flags: DIFlagPrototyped, spFlags: DISPFlagOptimized)
!813 = !DISubroutineType(types: !814)
!814 = !{null, !591, !566, !34, !569}
!815 = !DISubprogram(name: "assign", linkageName: "_ZNK6String6assignERKS_", scope: !554, file: !555, line: 267, type: !816, scopeLine: 267, flags: DIFlagPrototyped, spFlags: DISPFlagOptimized)
!816 = !DISubroutineType(types: !817)
!817 = !{null, !676, !595}
!818 = !DISubprogram(name: "deref", linkageName: "_ZNK6String5derefEv", scope: !554, file: !555, line: 271, type: !819, scopeLine: 271, flags: DIFlagPrototyped, spFlags: DISPFlagOptimized)
!819 = !DISubroutineType(types: !820)
!820 = !{null, !676}
!821 = !DISubprogram(name: "assign", linkageName: "_ZN6String6assignEPKcib", scope: !554, file: !555, line: 280, type: !822, scopeLine: 280, flags: DIFlagPrototyped, spFlags: DISPFlagOptimized)
!822 = !DISubroutineType(types: !823)
!823 = !{null, !591, !566, !34, !53}
!824 = !DISubprogram(name: "assign_out_of_memory", linkageName: "_ZN6String20assign_out_of_memoryEv", scope: !554, file: !555, line: 281, type: !589, scopeLine: 281, flags: DIFlagPrototyped, spFlags: DISPFlagOptimized)
!825 = !DISubprogram(name: "append", linkageName: "_ZN6String6appendEPKciPNS_6memo_tE", scope: !554, file: !555, line: 282, type: !813, scopeLine: 282, flags: DIFlagPrototyped, spFlags: DISPFlagOptimized)
!826 = !DISubprogram(name: "hard_make_stable", linkageName: "_ZN6String16hard_make_stableEPKci", scope: !554, file: !555, line: 283, type: !660, scopeLine: 283, flags: DIFlagPrototyped | DIFlagStaticMember, spFlags: DISPFlagOptimized)
!827 = !DISubprogram(name: "absent_memo", linkageName: "_ZN6String11absent_memoEv", scope: !554, file: !555, line: 284, type: !828, scopeLine: 284, flags: DIFlagPrototyped | DIFlagStaticMember, spFlags: DISPFlagOptimized)
!828 = !DISubroutineType(types: !829)
!829 = !{!569}
!830 = !DISubprogram(name: "create_memo", linkageName: "_ZN6String11create_memoEPcii", scope: !554, file: !555, line: 287, type: !831, scopeLine: 287, flags: DIFlagPrototyped | DIFlagStaticMember, spFlags: DISPFlagOptimized)
!831 = !DISubroutineType(types: !832)
!832 = !{!569, !778, !34, !34}
!833 = !DISubprogram(name: "delete_memo", linkageName: "_ZN6String11delete_memoEPNS_6memo_tE", scope: !554, file: !555, line: 288, type: !834, scopeLine: 288, flags: DIFlagPrototyped | DIFlagStaticMember, spFlags: DISPFlagOptimized)
!834 = !DISubroutineType(types: !835)
!835 = !{null, !569}
!836 = !DISubprogram(name: "hard_c_str", linkageName: "_ZNK6String10hard_c_strEv", scope: !554, file: !555, line: 289, type: !674, scopeLine: 289, flags: DIFlagPrototyped, spFlags: DISPFlagOptimized)
!837 = !DISubprogram(name: "hard_equals", linkageName: "_ZNK6String11hard_equalsEPKci", scope: !554, file: !555, line: 290, type: !728, scopeLine: 290, flags: DIFlagPrototyped, spFlags: DISPFlagOptimized)
!838 = !DISubprogram(name: "make_claim", linkageName: "_ZN6String10make_claimEPcii", scope: !554, file: !555, line: 299, type: !839, scopeLine: 299, flags: DIFlagPrototyped | DIFlagStaticMember, spFlags: DISPFlagOptimized)
!839 = !DISubroutineType(types: !840)
!840 = !{!554, !778, !34, !34}
!841 = !DISubprogram(name: "unparse_interval", linkageName: "_ZNK9Timestamp16unparse_intervalEv", scope: !386, file: !387, line: 501, type: !552, scopeLine: 501, flags: DIFlagPublic | DIFlagPrototyped, spFlags: DISPFlagOptimized)
!842 = !DISubprogram(name: "msec_to_subsec", linkageName: "_ZN9Timestamp14msec_to_subsecEj", scope: !386, file: !387, line: 510, type: !843, scopeLine: 510, flags: DIFlagPublic | DIFlagPrototyped | DIFlagStaticMember, spFlags: DISPFlagOptimized)
!843 = !DISubroutineType(types: !844)
!844 = !{!12, !12}
!845 = !DISubprogram(name: "usec_to_subsec", linkageName: "_ZN9Timestamp14usec_to_subsecEj", scope: !386, file: !387, line: 514, type: !843, scopeLine: 514, flags: DIFlagPublic | DIFlagPrototyped | DIFlagStaticMember, spFlags: DISPFlagOptimized)
!846 = !DISubprogram(name: "nsec_to_subsec", linkageName: "_ZN9Timestamp14nsec_to_subsecEj", scope: !386, file: !387, line: 518, type: !843, scopeLine: 518, flags: DIFlagPublic | DIFlagPrototyped | DIFlagStaticMember, spFlags: DISPFlagOptimized)
!847 = !DISubprogram(name: "subsec_to_msec", linkageName: "_ZN9Timestamp14subsec_to_msecEj", scope: !386, file: !387, line: 522, type: !843, scopeLine: 522, flags: DIFlagPublic | DIFlagPrototyped | DIFlagStaticMember, spFlags: DISPFlagOptimized)
!848 = !DISubprogram(name: "subsec_to_usec", linkageName: "_ZN9Timestamp14subsec_to_usecEj", scope: !386, file: !387, line: 526, type: !843, scopeLine: 526, flags: DIFlagPublic | DIFlagPrototyped | DIFlagStaticMember, spFlags: DISPFlagOptimized)
!849 = !DISubprogram(name: "subsec_to_nsec", linkageName: "_ZN9Timestamp14subsec_to_nsecEj", scope: !386, file: !387, line: 530, type: !843, scopeLine: 530, flags: DIFlagPublic | DIFlagPrototyped | DIFlagStaticMember, spFlags: DISPFlagOptimized)
!850 = !DISubprogram(name: "warp_class", linkageName: "_ZN9Timestamp10warp_classEv", scope: !386, file: !387, line: 581, type: !800, scopeLine: 581, flags: DIFlagPublic | DIFlagPrototyped | DIFlagStaticMember, spFlags: DISPFlagOptimized)
!851 = !DISubprogram(name: "warp_speed", linkageName: "_ZN9Timestamp10warp_speedEv", scope: !386, file: !387, line: 588, type: !852, scopeLine: 588, flags: DIFlagPublic | DIFlagPrototyped | DIFlagStaticMember, spFlags: DISPFlagOptimized)
!852 = !DISubroutineType(types: !853)
!853 = !{!415}
!854 = !DISubprogram(name: "warp_set_class", linkageName: "_ZN9Timestamp14warp_set_classENS_15warp_class_typeEd", scope: !386, file: !387, line: 621, type: !855, scopeLine: 621, flags: DIFlagPublic | DIFlagPrototyped | DIFlagStaticMember, spFlags: DISPFlagOptimized)
!855 = !DISubroutineType(types: !856)
!856 = !{null, !857, !415}
!857 = !DICompositeType(tag: DW_TAG_enumeration_type, name: "warp_class_type", scope: !386, file: !387, line: 571, baseType: !16, size: 32, elements: !858, identifier: "_ZTSN9Timestamp15warp_class_typeE")
!858 = !{!859, !860, !861, !862}
!859 = !DIEnumerator(name: "warp_none", value: 0, isUnsigned: true)
!860 = !DIEnumerator(name: "warp_linear", value: 1, isUnsigned: true)
!861 = !DIEnumerator(name: "warp_nowait", value: 2, isUnsigned: true)
!862 = !DIEnumerator(name: "warp_simulation", value: 3, isUnsigned: true)
!863 = !DISubprogram(name: "warp_set_now", linkageName: "_ZN9Timestamp12warp_set_nowERKS_S1_", scope: !386, file: !387, line: 628, type: !864, scopeLine: 628, flags: DIFlagPublic | DIFlagPrototyped | DIFlagStaticMember, spFlags: DISPFlagOptimized)
!864 = !DISubroutineType(types: !865)
!865 = !{null, !384, !384}
!866 = !DISubprogram(name: "warp_real_delay", linkageName: "_ZNK9Timestamp15warp_real_delayEv", scope: !386, file: !387, line: 632, type: !498, scopeLine: 632, flags: DIFlagPublic | DIFlagPrototyped, spFlags: DISPFlagOptimized)
!867 = !DISubprogram(name: "warp_jumping", linkageName: "_ZN9Timestamp12warp_jumpingEv", scope: !386, file: !387, line: 635, type: !868, scopeLine: 635, flags: DIFlagPublic | DIFlagPrototyped | DIFlagStaticMember, spFlags: DISPFlagOptimized)
!868 = !DISubroutineType(types: !869)
!869 = !{!53}
!870 = !DISubprogram(name: "warp_jump_steady", linkageName: "_ZN9Timestamp16warp_jump_steadyERKS_", scope: !386, file: !387, line: 640, type: !871, scopeLine: 640, flags: DIFlagPublic | DIFlagPrototyped | DIFlagStaticMember, spFlags: DISPFlagOptimized)
!871 = !DISubroutineType(types: !872)
!872 = !{null, !384}
!873 = !DISubprogram(name: "now_unwarped", linkageName: "_ZN9Timestamp12now_unwarpedEv", scope: !386, file: !387, line: 647, type: !528, scopeLine: 647, flags: DIFlagPublic | DIFlagPrototyped | DIFlagStaticMember, spFlags: DISPFlagOptimized)
!874 = !DISubprogram(name: "assign_now_unwarped", linkageName: "_ZN9Timestamp19assign_now_unwarpedEv", scope: !386, file: !387, line: 653, type: !397, scopeLine: 653, flags: DIFlagPublic | DIFlagPrototyped, spFlags: DISPFlagOptimized)
!875 = !DISubprogram(name: "now_steady_unwarped", linkageName: "_ZN9Timestamp19now_steady_unwarpedEv", scope: !386, file: !387, line: 659, type: !528, scopeLine: 659, flags: DIFlagPublic | DIFlagPrototyped | DIFlagStaticMember, spFlags: DISPFlagOptimized)
!876 = !DISubprogram(name: "assign_now_steady_unwarped", linkageName: "_ZN9Timestamp26assign_now_steady_unwarpedEv", scope: !386, file: !387, line: 666, type: !397, scopeLine: 666, flags: DIFlagPublic | DIFlagPrototyped, spFlags: DISPFlagOptimized)
!877 = !DISubprogram(name: "add_fix", linkageName: "_ZN9Timestamp7add_fixEv", scope: !386, file: !387, line: 674, type: !397, scopeLine: 674, flags: DIFlagPrototyped, spFlags: DISPFlagOptimized)
!878 = !DISubprogram(name: "sub_fix", linkageName: "_ZN9Timestamp7sub_fixEv", scope: !386, file: !387, line: 686, type: !397, scopeLine: 686, flags: DIFlagPrototyped, spFlags: DISPFlagOptimized)
!879 = !DISubprogram(name: "value_div", linkageName: "_ZN9Timestamp9value_divElj", scope: !386, file: !387, line: 698, type: !880, scopeLine: 698, flags: DIFlagPrototyped | DIFlagStaticMember, spFlags: DISPFlagOptimized)
!880 = !DISubroutineType(types: !881)
!881 = !{!494, !494, !12}
!882 = !DISubprogram(name: "value_div_mod", linkageName: "_ZN9Timestamp13value_div_modERiS0_lj", scope: !386, file: !387, line: 702, type: !883, scopeLine: 702, flags: DIFlagPrototyped | DIFlagStaticMember, spFlags: DISPFlagOptimized)
!883 = !DISubroutineType(types: !884)
!884 = !{null, !885, !885, !494, !12}
!885 = !DIDerivedType(tag: DW_TAG_reference_type, baseType: !31, size: 64)
!886 = !DISubprogram(name: "assign_now", linkageName: "_ZN9Timestamp10assign_nowEbbb", scope: !386, file: !387, line: 709, type: !887, scopeLine: 709, flags: DIFlagPrototyped, spFlags: DISPFlagOptimized)
!887 = !DISubroutineType(types: !888)
!888 = !{null, !399, !53, !53, !53}
!889 = !DISubprogram(name: "warp_adjust", linkageName: "_ZN9Timestamp11warp_adjustEbRKS_S1_", scope: !386, file: !387, line: 712, type: !890, scopeLine: 712, flags: DIFlagPrototyped | DIFlagStaticMember, spFlags: DISPFlagOptimized)
!890 = !DISubroutineType(types: !891)
!891 = !{null, !53, !384, !384}
!892 = !DISubprogram(name: "warped", linkageName: "_ZNK9Timestamp6warpedEb", scope: !386, file: !387, line: 713, type: !893, scopeLine: 713, flags: DIFlagPrototyped, spFlags: DISPFlagOptimized)
!893 = !DISubroutineType(types: !894)
!894 = !{!386, !461, !53}
!895 = !DISubprogram(name: "warp", linkageName: "_ZN9Timestamp4warpEbb", scope: !386, file: !387, line: 714, type: !896, scopeLine: 714, flags: DIFlagPrototyped, spFlags: DISPFlagOptimized)
!896 = !DISubroutineType(types: !897)
!897 = !{null, !399, !53, !53}
!898 = !DISubprogram(name: "timestamp_anno", linkageName: "_ZN6Packet14timestamp_annoEv", scope: !5, file: !4, line: 356, type: !899, scopeLine: 356, flags: DIFlagPublic | DIFlagPrototyped, spFlags: DISPFlagOptimized)
!899 = !DISubroutineType(types: !900)
!900 = !{!901, !241}
!901 = !DIDerivedType(tag: DW_TAG_reference_type, baseType: !386, size: 64)
!902 = !DISubprogram(name: "set_timestamp_anno", linkageName: "_ZN6Packet18set_timestamp_annoERK9Timestamp", scope: !5, file: !4, line: 359, type: !903, scopeLine: 359, flags: DIFlagPublic | DIFlagPrototyped, spFlags: DISPFlagOptimized)
!903 = !DISubroutineType(types: !904)
!904 = !{null, !241, !384}
!905 = !DISubprogram(name: "device_anno", linkageName: "_ZNK6Packet11device_annoEv", scope: !5, file: !4, line: 362, type: !906, scopeLine: 362, flags: DIFlagPublic | DIFlagPrototyped, spFlags: DISPFlagOptimized)
!906 = !DISubroutineType(types: !907)
!907 = !{!908, !245}
!908 = !DIDerivedType(tag: DW_TAG_pointer_type, baseType: !909, size: 64)
!909 = !DIDerivedType(tag: DW_TAG_typedef, name: "net_device", file: !506, line: 326, baseType: !910)
!910 = !DICompositeType(tag: DW_TAG_structure_type, name: "device", file: !506, line: 326, flags: DIFlagFwdDecl, identifier: "_ZTS6device")
!911 = !DISubprogram(name: "set_device_anno", linkageName: "_ZN6Packet15set_device_annoEP6device", scope: !5, file: !4, line: 364, type: !912, scopeLine: 364, flags: DIFlagPublic | DIFlagPrototyped, spFlags: DISPFlagOptimized)
!912 = !DISubroutineType(types: !913)
!913 = !{null, !241, !908}
!914 = !DISubprogram(name: "packet_type_anno", linkageName: "_ZNK6Packet16packet_type_annoEv", scope: !5, file: !4, line: 383, type: !915, scopeLine: 383, flags: DIFlagPublic | DIFlagPrototyped, spFlags: DISPFlagOptimized)
!915 = !DISubroutineType(types: !916)
!916 = !{!3, !245}
!917 = !DISubprogram(name: "set_packet_type_anno", linkageName: "_ZN6Packet20set_packet_type_annoENS_10PacketTypeE", scope: !5, file: !4, line: 385, type: !918, scopeLine: 385, flags: DIFlagPublic | DIFlagPrototyped, spFlags: DISPFlagOptimized)
!918 = !DISubroutineType(types: !919)
!919 = !{null, !241, !3}
!920 = !DISubprogram(name: "next", linkageName: "_ZNK6Packet4nextEv", scope: !5, file: !4, line: 410, type: !921, scopeLine: 410, flags: DIFlagPublic | DIFlagPrototyped, spFlags: DISPFlagOptimized)
!921 = !DISubroutineType(types: !922)
!922 = !{!78, !245}
!923 = !DISubprogram(name: "next", linkageName: "_ZN6Packet4nextEv", scope: !5, file: !4, line: 412, type: !924, scopeLine: 412, flags: DIFlagPublic | DIFlagPrototyped, spFlags: DISPFlagOptimized)
!924 = !DISubroutineType(types: !925)
!925 = !{!926, !241}
!926 = !DIDerivedType(tag: DW_TAG_reference_type, baseType: !78, size: 64)
!927 = !DISubprogram(name: "set_next", linkageName: "_ZN6Packet8set_nextEPS_", scope: !5, file: !4, line: 414, type: !928, scopeLine: 414, flags: DIFlagPublic | DIFlagPrototyped, spFlags: DISPFlagOptimized)
!928 = !DISubroutineType(types: !929)
!929 = !{null, !241, !78}
!930 = !DISubprogram(name: "prev", linkageName: "_ZNK6Packet4prevEv", scope: !5, file: !4, line: 417, type: !921, scopeLine: 417, flags: DIFlagPublic | DIFlagPrototyped, spFlags: DISPFlagOptimized)
!931 = !DISubprogram(name: "prev", linkageName: "_ZN6Packet4prevEv", scope: !5, file: !4, line: 419, type: !924, scopeLine: 419, flags: DIFlagPublic | DIFlagPrototyped, spFlags: DISPFlagOptimized)
!932 = !DISubprogram(name: "set_prev", linkageName: "_ZN6Packet8set_prevEPS_", scope: !5, file: !4, line: 421, type: !928, scopeLine: 421, flags: DIFlagPublic | DIFlagPrototyped, spFlags: DISPFlagOptimized)
!933 = !DISubprogram(name: "dst_ip_anno", linkageName: "_ZNK6Packet11dst_ip_annoEv", scope: !5, file: !4, line: 431, type: !934, scopeLine: 431, flags: DIFlagPublic | DIFlagPrototyped, spFlags: DISPFlagOptimized)
!934 = !DISubroutineType(types: !935)
!935 = !{!936, !245}
!936 = distinct !DICompositeType(tag: DW_TAG_class_type, name: "IPAddress", file: !937, line: 15, size: 32, flags: DIFlagTypePassByValue | DIFlagNonTrivial, elements: !938, identifier: "_ZTS9IPAddress")
!937 = !DIFile(filename: "../dummy_inc/click/ipaddress.hh", directory: "/home/john/projects/click/ir-dir")
!938 = !{!939, !940, !944, !947, !950, !953, !956, !959, !962, !965, !970, !973, !976, !981, !984, !985, !986, !987, !990, !991, !994, !997, !998, !1001, !1004, !1007, !1008, !1012, !1013, !1014, !1017, !1018, !1021, !1022}
!939 = !DIDerivedType(tag: DW_TAG_member, name: "_addr", scope: !936, file: !937, line: 152, baseType: !12, size: 32)
!940 = !DISubprogram(name: "IPAddress", scope: !936, file: !937, line: 20, type: !941, scopeLine: 20, flags: DIFlagPublic | DIFlagPrototyped, spFlags: DISPFlagOptimized)
!941 = !DISubroutineType(types: !942)
!942 = !{null, !943}
!943 = !DIDerivedType(tag: DW_TAG_pointer_type, baseType: !936, size: 64, flags: DIFlagArtificial | DIFlagObjectPointer)
!944 = !DISubprogram(name: "IPAddress", scope: !936, file: !937, line: 25, type: !945, scopeLine: 25, flags: DIFlagPublic | DIFlagPrototyped, spFlags: DISPFlagOptimized)
!945 = !DISubroutineType(types: !946)
!946 = !{null, !943, !16}
!947 = !DISubprogram(name: "IPAddress", scope: !936, file: !937, line: 29, type: !948, scopeLine: 29, flags: DIFlagPublic | DIFlagExplicit | DIFlagPrototyped, spFlags: DISPFlagOptimized)
!948 = !DISubroutineType(types: !949)
!949 = !{null, !943, !34}
!950 = !DISubprogram(name: "IPAddress", scope: !936, file: !937, line: 33, type: !951, scopeLine: 33, flags: DIFlagPublic | DIFlagExplicit | DIFlagPrototyped, spFlags: DISPFlagOptimized)
!951 = !DISubroutineType(types: !952)
!952 = !{null, !943, !115}
!953 = !DISubprogram(name: "IPAddress", scope: !936, file: !937, line: 37, type: !954, scopeLine: 37, flags: DIFlagPublic | DIFlagExplicit | DIFlagPrototyped, spFlags: DISPFlagOptimized)
!954 = !DISubroutineType(types: !955)
!955 = !{null, !943, !395}
!956 = !DISubprogram(name: "IPAddress", scope: !936, file: !937, line: 42, type: !957, scopeLine: 42, flags: DIFlagPublic | DIFlagPrototyped, spFlags: DISPFlagOptimized)
!957 = !DISubroutineType(types: !958)
!958 = !{null, !943, !176}
!959 = !DISubprogram(name: "IPAddress", scope: !936, file: !937, line: 50, type: !960, scopeLine: 50, flags: DIFlagPublic | DIFlagExplicit | DIFlagPrototyped, spFlags: DISPFlagOptimized)
!960 = !DISubroutineType(types: !961)
!961 = !{null, !943, !255}
!962 = !DISubprogram(name: "IPAddress", scope: !936, file: !937, line: 63, type: !963, scopeLine: 63, flags: DIFlagPublic | DIFlagExplicit | DIFlagPrototyped, spFlags: DISPFlagOptimized)
!963 = !DISubroutineType(types: !964)
!964 = !{null, !943, !595}
!965 = !DISubprogram(name: "IPAddress", scope: !936, file: !937, line: 66, type: !966, scopeLine: 66, flags: DIFlagPublic | DIFlagPrototyped, spFlags: DISPFlagOptimized)
!966 = !DISubroutineType(types: !967)
!967 = !{null, !943, !968}
!968 = !DIDerivedType(tag: DW_TAG_reference_type, baseType: !969, size: 64)
!969 = !DIDerivedType(tag: DW_TAG_const_type, baseType: !450)
!970 = !DISubprogram(name: "make_prefix", linkageName: "_ZN9IPAddress11make_prefixEi", scope: !936, file: !937, line: 78, type: !971, scopeLine: 78, flags: DIFlagPublic | DIFlagPrototyped | DIFlagStaticMember, spFlags: DISPFlagOptimized)
!971 = !DISubroutineType(types: !972)
!972 = !{!936, !34}
!973 = !DISubprogram(name: "make_broadcast", linkageName: "_ZN9IPAddress14make_broadcastEv", scope: !936, file: !937, line: 81, type: !974, scopeLine: 81, flags: DIFlagPublic | DIFlagPrototyped | DIFlagStaticMember, spFlags: DISPFlagOptimized)
!974 = !DISubroutineType(types: !975)
!975 = !{!936}
!976 = !DISubprogram(name: "empty", linkageName: "_ZNK9IPAddress5emptyEv", scope: !936, file: !937, line: 86, type: !977, scopeLine: 86, flags: DIFlagPublic | DIFlagPrototyped, spFlags: DISPFlagOptimized)
!977 = !DISubroutineType(types: !978)
!978 = !{!53, !979}
!979 = !DIDerivedType(tag: DW_TAG_pointer_type, baseType: !980, size: 64, flags: DIFlagArtificial | DIFlagObjectPointer)
!980 = !DIDerivedType(tag: DW_TAG_const_type, baseType: !936)
!981 = !DISubprogram(name: "addr", linkageName: "_ZNK9IPAddress4addrEv", scope: !936, file: !937, line: 91, type: !982, scopeLine: 91, flags: DIFlagPublic | DIFlagPrototyped, spFlags: DISPFlagOptimized)
!982 = !DISubroutineType(types: !983)
!983 = !{!12, !979}
!984 = !DISubprogram(name: "operator unsigned int", linkageName: "_ZNK9IPAddresscvjEv", scope: !936, file: !937, line: 99, type: !982, scopeLine: 99, flags: DIFlagPublic | DIFlagPrototyped, spFlags: DISPFlagOptimized)
!985 = !DISubprogram(name: "is_multicast", linkageName: "_ZNK9IPAddress12is_multicastEv", scope: !936, file: !937, line: 106, type: !977, scopeLine: 106, flags: DIFlagPublic | DIFlagPrototyped, spFlags: DISPFlagOptimized)
!986 = !DISubprogram(name: "is_link_local", linkageName: "_ZNK9IPAddress13is_link_localEv", scope: !936, file: !937, line: 110, type: !977, scopeLine: 110, flags: DIFlagPublic | DIFlagPrototyped, spFlags: DISPFlagOptimized)
!987 = !DISubprogram(name: "in_addr", linkageName: "_ZNK9IPAddress7in_addrEv", scope: !936, file: !937, line: 114, type: !988, scopeLine: 114, flags: DIFlagPublic | DIFlagPrototyped, spFlags: DISPFlagOptimized)
!988 = !DISubroutineType(types: !989)
!989 = !{!176, !979}
!990 = !DISubprogram(name: "operator in_addr", linkageName: "_ZNK9IPAddresscv7in_addrEv", scope: !936, file: !937, line: 115, type: !988, scopeLine: 115, flags: DIFlagPublic | DIFlagPrototyped, spFlags: DISPFlagOptimized)
!991 = !DISubprogram(name: "data", linkageName: "_ZN9IPAddress4dataEv", scope: !936, file: !937, line: 117, type: !992, scopeLine: 117, flags: DIFlagPublic | DIFlagPrototyped, spFlags: DISPFlagOptimized)
!992 = !DISubroutineType(types: !993)
!993 = !{!80, !943}
!994 = !DISubprogram(name: "data", linkageName: "_ZNK9IPAddress4dataEv", scope: !936, file: !937, line: 118, type: !995, scopeLine: 118, flags: DIFlagPublic | DIFlagPrototyped, spFlags: DISPFlagOptimized)
!995 = !DISubroutineType(types: !996)
!996 = !{!255, !979}
!997 = !DISubprogram(name: "hashcode", linkageName: "_ZNK9IPAddress8hashcodeEv", scope: !936, file: !937, line: 120, type: !982, scopeLine: 120, flags: DIFlagPublic | DIFlagPrototyped, spFlags: DISPFlagOptimized)
!998 = !DISubprogram(name: "mask_to_prefix_len", linkageName: "_ZNK9IPAddress18mask_to_prefix_lenEv", scope: !936, file: !937, line: 122, type: !999, scopeLine: 122, flags: DIFlagPublic | DIFlagPrototyped, spFlags: DISPFlagOptimized)
!999 = !DISubroutineType(types: !1000)
!1000 = !{!34, !979}
!1001 = !DISubprogram(name: "matches_prefix", linkageName: "_ZNK9IPAddress14matches_prefixES_S_", scope: !936, file: !937, line: 123, type: !1002, scopeLine: 123, flags: DIFlagPublic | DIFlagPrototyped, spFlags: DISPFlagOptimized)
!1002 = !DISubroutineType(types: !1003)
!1003 = !{!53, !979, !936, !936}
!1004 = !DISubprogram(name: "mask_as_specific", linkageName: "_ZNK9IPAddress16mask_as_specificES_", scope: !936, file: !937, line: 124, type: !1005, scopeLine: 124, flags: DIFlagPublic | DIFlagPrototyped, spFlags: DISPFlagOptimized)
!1005 = !DISubroutineType(types: !1006)
!1006 = !{!53, !979, !936}
!1007 = !DISubprogram(name: "mask_more_specific", linkageName: "_ZNK9IPAddress18mask_more_specificES_", scope: !936, file: !937, line: 125, type: !1005, scopeLine: 125, flags: DIFlagPublic | DIFlagPrototyped, spFlags: DISPFlagOptimized)
!1008 = !DISubprogram(name: "operator&=", linkageName: "_ZN9IPAddressaNES_", scope: !936, file: !937, line: 137, type: !1009, scopeLine: 137, flags: DIFlagPublic | DIFlagPrototyped, spFlags: DISPFlagOptimized)
!1009 = !DISubroutineType(types: !1010)
!1010 = !{!1011, !943, !936}
!1011 = !DIDerivedType(tag: DW_TAG_reference_type, baseType: !936, size: 64)
!1012 = !DISubprogram(name: "operator|=", linkageName: "_ZN9IPAddressoRES_", scope: !936, file: !937, line: 138, type: !1009, scopeLine: 138, flags: DIFlagPublic | DIFlagPrototyped, spFlags: DISPFlagOptimized)
!1013 = !DISubprogram(name: "operator^=", linkageName: "_ZN9IPAddresseOES_", scope: !936, file: !937, line: 139, type: !1009, scopeLine: 139, flags: DIFlagPublic | DIFlagPrototyped, spFlags: DISPFlagOptimized)
!1014 = !DISubprogram(name: "unparse", linkageName: "_ZNK9IPAddress7unparseEv", scope: !936, file: !937, line: 141, type: !1015, scopeLine: 141, flags: DIFlagPublic | DIFlagPrototyped, spFlags: DISPFlagOptimized)
!1015 = !DISubroutineType(types: !1016)
!1016 = !{!554, !979}
!1017 = !DISubprogram(name: "unparse_mask", linkageName: "_ZNK9IPAddress12unparse_maskEv", scope: !936, file: !937, line: 142, type: !1015, scopeLine: 142, flags: DIFlagPublic | DIFlagPrototyped, spFlags: DISPFlagOptimized)
!1018 = !DISubprogram(name: "unparse_with_mask", linkageName: "_ZNK9IPAddress17unparse_with_maskES_", scope: !936, file: !937, line: 143, type: !1019, scopeLine: 143, flags: DIFlagPublic | DIFlagPrototyped, spFlags: DISPFlagOptimized)
!1019 = !DISubroutineType(types: !1020)
!1020 = !{!554, !979, !936}
!1021 = !DISubprogram(name: "s", linkageName: "_ZNK9IPAddress1sEv", scope: !936, file: !937, line: 145, type: !1015, scopeLine: 145, flags: DIFlagPublic | DIFlagPrototyped, spFlags: DISPFlagOptimized)
!1022 = !DISubprogram(name: "operator String", linkageName: "_ZNK9IPAddresscv6StringEv", scope: !936, file: !937, line: 146, type: !1015, scopeLine: 146, flags: DIFlagPublic | DIFlagPrototyped, spFlags: DISPFlagOptimized)
!1023 = !DISubprogram(name: "set_dst_ip_anno", linkageName: "_ZN6Packet15set_dst_ip_annoE9IPAddress", scope: !5, file: !4, line: 436, type: !1024, scopeLine: 436, flags: DIFlagPublic | DIFlagPrototyped, spFlags: DISPFlagOptimized)
!1024 = !DISubroutineType(types: !1025)
!1025 = !{null, !241, !936}
!1026 = !DISubprogram(name: "anno", linkageName: "_ZN6Packet4annoEv", scope: !5, file: !4, line: 441, type: !273, scopeLine: 441, flags: DIFlagPublic | DIFlagPrototyped, spFlags: DISPFlagOptimized)
!1027 = !DISubprogram(name: "anno", linkageName: "_ZNK6Packet4annoEv", scope: !5, file: !4, line: 444, type: !1028, scopeLine: 444, flags: DIFlagPublic | DIFlagPrototyped, spFlags: DISPFlagOptimized)
!1028 = !DISubroutineType(types: !1029)
!1029 = !{!224, !245}
!1030 = !DISubprogram(name: "anno_u8", linkageName: "_ZN6Packet7anno_u8Ev", scope: !5, file: !4, line: 447, type: !1031, scopeLine: 447, flags: DIFlagPublic | DIFlagPrototyped, spFlags: DISPFlagOptimized)
!1031 = !DISubroutineType(types: !1032)
!1032 = !{!1033, !241}
!1033 = !DIDerivedType(tag: DW_TAG_pointer_type, baseType: !98, size: 64)
!1034 = !DISubprogram(name: "anno_u8", linkageName: "_ZNK6Packet7anno_u8Ev", scope: !5, file: !4, line: 450, type: !1035, scopeLine: 450, flags: DIFlagPublic | DIFlagPrototyped, spFlags: DISPFlagOptimized)
!1035 = !DISubroutineType(types: !1036)
!1036 = !{!1037, !245}
!1037 = !DIDerivedType(tag: DW_TAG_pointer_type, baseType: !1038, size: 64)
!1038 = !DIDerivedType(tag: DW_TAG_const_type, baseType: !98)
!1039 = !DISubprogram(name: "anno_u32", linkageName: "_ZN6Packet8anno_u32Ev", scope: !5, file: !4, line: 453, type: !1040, scopeLine: 453, flags: DIFlagPublic | DIFlagPrototyped, spFlags: DISPFlagOptimized)
!1040 = !DISubroutineType(types: !1041)
!1041 = !{!1042, !241}
!1042 = !DIDerivedType(tag: DW_TAG_pointer_type, baseType: !12, size: 64)
!1043 = !DISubprogram(name: "anno_u32", linkageName: "_ZNK6Packet8anno_u32Ev", scope: !5, file: !4, line: 456, type: !1044, scopeLine: 456, flags: DIFlagPublic | DIFlagPrototyped, spFlags: DISPFlagOptimized)
!1044 = !DISubroutineType(types: !1045)
!1045 = !{!1046, !245}
!1046 = !DIDerivedType(tag: DW_TAG_pointer_type, baseType: !1047, size: 64)
!1047 = !DIDerivedType(tag: DW_TAG_const_type, baseType: !12)
!1048 = !DISubprogram(name: "anno_u8", linkageName: "_ZNK6Packet7anno_u8Ei", scope: !5, file: !4, line: 460, type: !1049, scopeLine: 460, flags: DIFlagPublic | DIFlagPrototyped, spFlags: DISPFlagOptimized)
!1049 = !DISubroutineType(types: !1050)
!1050 = !{!98, !245, !34}
!1051 = !DISubprogram(name: "set_anno_u8", linkageName: "_ZN6Packet11set_anno_u8Eih", scope: !5, file: !4, line: 469, type: !1052, scopeLine: 469, flags: DIFlagPublic | DIFlagPrototyped, spFlags: DISPFlagOptimized)
!1052 = !DISubroutineType(types: !1053)
!1053 = !{null, !241, !34, !98}
!1054 = !DISubprogram(name: "anno_u16", linkageName: "_ZNK6Packet8anno_u16Ei", scope: !5, file: !4, line: 479, type: !1055, scopeLine: 479, flags: DIFlagPublic | DIFlagPrototyped, spFlags: DISPFlagOptimized)
!1055 = !DISubroutineType(types: !1056)
!1056 = !{!102, !245, !34}
!1057 = !DISubprogram(name: "set_anno_u16", linkageName: "_ZN6Packet12set_anno_u16Eit", scope: !5, file: !4, line: 494, type: !1058, scopeLine: 494, flags: DIFlagPublic | DIFlagPrototyped, spFlags: DISPFlagOptimized)
!1058 = !DISubroutineType(types: !1059)
!1059 = !{null, !241, !34, !102}
!1060 = !DISubprogram(name: "anno_s16", linkageName: "_ZNK6Packet8anno_s16Ei", scope: !5, file: !4, line: 507, type: !1061, scopeLine: 507, flags: DIFlagPublic | DIFlagPrototyped, spFlags: DISPFlagOptimized)
!1061 = !DISubroutineType(types: !1062)
!1062 = !{!1063, !245, !34}
!1063 = !DIDerivedType(tag: DW_TAG_typedef, name: "int16_t", file: !32, line: 25, baseType: !1064)
!1064 = !DIDerivedType(tag: DW_TAG_typedef, name: "__int16_t", file: !15, line: 39, baseType: !1065)
!1065 = !DIBasicType(name: "short", size: 16, encoding: DW_ATE_signed)
!1066 = !DISubprogram(name: "set_anno_s16", linkageName: "_ZN6Packet12set_anno_s16Eis", scope: !5, file: !4, line: 522, type: !1067, scopeLine: 522, flags: DIFlagPublic | DIFlagPrototyped, spFlags: DISPFlagOptimized)
!1067 = !DISubroutineType(types: !1068)
!1068 = !{null, !241, !34, !1063}
!1069 = !DISubprogram(name: "anno_u32", linkageName: "_ZNK6Packet8anno_u32Ei", scope: !5, file: !4, line: 535, type: !1070, scopeLine: 535, flags: DIFlagPublic | DIFlagPrototyped, spFlags: DISPFlagOptimized)
!1070 = !DISubroutineType(types: !1071)
!1071 = !{!12, !245, !34}
!1072 = !DISubprogram(name: "set_anno_u32", linkageName: "_ZN6Packet12set_anno_u32Eij", scope: !5, file: !4, line: 550, type: !1073, scopeLine: 550, flags: DIFlagPublic | DIFlagPrototyped, spFlags: DISPFlagOptimized)
!1073 = !DISubroutineType(types: !1074)
!1074 = !{null, !241, !34, !12}
!1075 = !DISubprogram(name: "anno_s32", linkageName: "_ZNK6Packet8anno_s32Ei", scope: !5, file: !4, line: 556, type: !1076, scopeLine: 556, flags: DIFlagPublic | DIFlagPrototyped, spFlags: DISPFlagOptimized)
!1076 = !DISubroutineType(types: !1077)
!1077 = !{!31, !245, !34}
!1078 = !DISubprogram(name: "set_anno_s32", linkageName: "_ZN6Packet12set_anno_s32Eii", scope: !5, file: !4, line: 571, type: !1079, scopeLine: 571, flags: DIFlagPublic | DIFlagPrototyped, spFlags: DISPFlagOptimized)
!1079 = !DISubroutineType(types: !1080)
!1080 = !{null, !241, !34, !31}
!1081 = !DISubprogram(name: "anno_u64", linkageName: "_ZNK6Packet8anno_u64Ei", scope: !5, file: !4, line: 585, type: !1082, scopeLine: 585, flags: DIFlagPublic | DIFlagPrototyped, spFlags: DISPFlagOptimized)
!1082 = !DISubroutineType(types: !1083)
!1083 = !{!113, !245, !34}
!1084 = !DISubprogram(name: "set_anno_u64", linkageName: "_ZN6Packet12set_anno_u64Eim", scope: !5, file: !4, line: 600, type: !1085, scopeLine: 600, flags: DIFlagPublic | DIFlagPrototyped, spFlags: DISPFlagOptimized)
!1085 = !DISubroutineType(types: !1086)
!1086 = !{null, !241, !34, !113}
!1087 = !DISubprogram(name: "anno_ptr", linkageName: "_ZNK6Packet8anno_ptrEi", scope: !5, file: !4, line: 614, type: !1088, scopeLine: 614, flags: DIFlagPublic | DIFlagPrototyped, spFlags: DISPFlagOptimized)
!1088 = !DISubroutineType(types: !1089)
!1089 = !{!135, !245, !34}
!1090 = !DISubprogram(name: "set_anno_ptr", linkageName: "_ZN6Packet12set_anno_ptrEiPKv", scope: !5, file: !4, line: 629, type: !1091, scopeLine: 629, flags: DIFlagPublic | DIFlagPrototyped, spFlags: DISPFlagOptimized)
!1091 = !DISubroutineType(types: !1092)
!1092 = !{null, !241, !34, !224}
!1093 = !DISubprogram(name: "data_packet", linkageName: "_ZN6Packet11data_packetEv", scope: !5, file: !4, line: 638, type: !247, scopeLine: 638, flags: DIFlagPublic | DIFlagPrototyped, spFlags: DISPFlagOptimized)
!1094 = !DISubprogram(name: "clear_annotations", linkageName: "_ZN6Packet17clear_annotationsEb", scope: !5, file: !4, line: 643, type: !1095, scopeLine: 643, flags: DIFlagPublic | DIFlagPrototyped, spFlags: DISPFlagOptimized)
!1095 = !DISubroutineType(types: !1096)
!1096 = !{null, !241, !53}
!1097 = !DISubprogram(name: "copy_annotations", linkageName: "_ZN6Packet16copy_annotationsEPKS_", scope: !5, file: !4, line: 644, type: !1098, scopeLine: 644, flags: DIFlagPublic | DIFlagPrototyped, spFlags: DISPFlagOptimized)
!1098 = !DISubroutineType(types: !1099)
!1099 = !{null, !241, !1100}
!1100 = !DIDerivedType(tag: DW_TAG_pointer_type, baseType: !213, size: 64)
!1101 = !DISubprogram(name: "buffer_data", linkageName: "_ZNK6Packet11buffer_dataEv", scope: !5, file: !4, line: 661, type: !253, scopeLine: 661, flags: DIFlagPublic | DIFlagPrototyped, spFlags: DISPFlagOptimized)
!1102 = !DISubprogram(name: "addr_anno", linkageName: "_ZN6Packet9addr_annoEv", scope: !5, file: !4, line: 662, type: !273, scopeLine: 662, flags: DIFlagPublic | DIFlagPrototyped, spFlags: DISPFlagOptimized)
!1103 = !DISubprogram(name: "addr_anno", linkageName: "_ZNK6Packet9addr_annoEv", scope: !5, file: !4, line: 663, type: !1028, scopeLine: 663, flags: DIFlagPublic | DIFlagPrototyped, spFlags: DISPFlagOptimized)
!1104 = !DISubprogram(name: "user_anno", linkageName: "_ZN6Packet9user_annoEv", scope: !5, file: !4, line: 664, type: !273, scopeLine: 664, flags: DIFlagPublic | DIFlagPrototyped, spFlags: DISPFlagOptimized)
!1105 = !DISubprogram(name: "user_anno", linkageName: "_ZNK6Packet9user_annoEv", scope: !5, file: !4, line: 665, type: !1028, scopeLine: 665, flags: DIFlagPublic | DIFlagPrototyped, spFlags: DISPFlagOptimized)
!1106 = !DISubprogram(name: "user_anno_u8", linkageName: "_ZN6Packet12user_anno_u8Ev", scope: !5, file: !4, line: 666, type: !1031, scopeLine: 666, flags: DIFlagPublic | DIFlagPrototyped, spFlags: DISPFlagOptimized)
!1107 = !DISubprogram(name: "user_anno_u8", linkageName: "_ZNK6Packet12user_anno_u8Ev", scope: !5, file: !4, line: 667, type: !1035, scopeLine: 667, flags: DIFlagPublic | DIFlagPrototyped, spFlags: DISPFlagOptimized)
!1108 = !DISubprogram(name: "user_anno_u32", linkageName: "_ZN6Packet13user_anno_u32Ev", scope: !5, file: !4, line: 668, type: !1040, scopeLine: 668, flags: DIFlagPublic | DIFlagPrototyped, spFlags: DISPFlagOptimized)
!1109 = !DISubprogram(name: "user_anno_u32", linkageName: "_ZNK6Packet13user_anno_u32Ev", scope: !5, file: !4, line: 669, type: !1044, scopeLine: 669, flags: DIFlagPublic | DIFlagPrototyped, spFlags: DISPFlagOptimized)
!1110 = !DISubprogram(name: "user_anno_u8", linkageName: "_ZNK6Packet12user_anno_u8Ei", scope: !5, file: !4, line: 670, type: !1049, scopeLine: 670, flags: DIFlagPublic | DIFlagPrototyped, spFlags: DISPFlagOptimized)
!1111 = !DISubprogram(name: "set_user_anno_u8", linkageName: "_ZN6Packet16set_user_anno_u8Eih", scope: !5, file: !4, line: 671, type: !1052, scopeLine: 671, flags: DIFlagPublic | DIFlagPrototyped, spFlags: DISPFlagOptimized)
!1112 = !DISubprogram(name: "user_anno_u16", linkageName: "_ZNK6Packet13user_anno_u16Ei", scope: !5, file: !4, line: 672, type: !1055, scopeLine: 672, flags: DIFlagPublic | DIFlagPrototyped, spFlags: DISPFlagOptimized)
!1113 = !DISubprogram(name: "set_user_anno_u16", linkageName: "_ZN6Packet17set_user_anno_u16Eit", scope: !5, file: !4, line: 673, type: !1058, scopeLine: 673, flags: DIFlagPublic | DIFlagPrototyped, spFlags: DISPFlagOptimized)
!1114 = !DISubprogram(name: "user_anno_u32", linkageName: "_ZNK6Packet13user_anno_u32Ei", scope: !5, file: !4, line: 674, type: !1070, scopeLine: 674, flags: DIFlagPublic | DIFlagPrototyped, spFlags: DISPFlagOptimized)
!1115 = !DISubprogram(name: "set_user_anno_u32", linkageName: "_ZN6Packet17set_user_anno_u32Eij", scope: !5, file: !4, line: 675, type: !1073, scopeLine: 675, flags: DIFlagPublic | DIFlagPrototyped, spFlags: DISPFlagOptimized)
!1116 = !DISubprogram(name: "user_anno_s32", linkageName: "_ZNK6Packet13user_anno_s32Ei", scope: !5, file: !4, line: 676, type: !1076, scopeLine: 676, flags: DIFlagPublic | DIFlagPrototyped, spFlags: DISPFlagOptimized)
!1117 = !DISubprogram(name: "set_user_anno_s32", linkageName: "_ZN6Packet17set_user_anno_s32Eii", scope: !5, file: !4, line: 677, type: !1079, scopeLine: 677, flags: DIFlagPublic | DIFlagPrototyped, spFlags: DISPFlagOptimized)
!1118 = !DISubprogram(name: "user_anno_u64", linkageName: "_ZNK6Packet13user_anno_u64Ei", scope: !5, file: !4, line: 679, type: !1082, scopeLine: 679, flags: DIFlagPublic | DIFlagPrototyped, spFlags: DISPFlagOptimized)
!1119 = !DISubprogram(name: "set_user_anno_u64", linkageName: "_ZN6Packet17set_user_anno_u64Eim", scope: !5, file: !4, line: 680, type: !1085, scopeLine: 680, flags: DIFlagPublic | DIFlagPrototyped, spFlags: DISPFlagOptimized)
!1120 = !DISubprogram(name: "all_user_anno", linkageName: "_ZNK6Packet13all_user_annoEv", scope: !5, file: !4, line: 682, type: !1035, scopeLine: 682, flags: DIFlagPublic | DIFlagPrototyped, spFlags: DISPFlagOptimized)
!1121 = !DISubprogram(name: "all_user_anno", linkageName: "_ZN6Packet13all_user_annoEv", scope: !5, file: !4, line: 683, type: !1031, scopeLine: 683, flags: DIFlagPublic | DIFlagPrototyped, spFlags: DISPFlagOptimized)
!1122 = !DISubprogram(name: "all_user_anno_u", linkageName: "_ZNK6Packet15all_user_anno_uEv", scope: !5, file: !4, line: 684, type: !1044, scopeLine: 684, flags: DIFlagPublic | DIFlagPrototyped, spFlags: DISPFlagOptimized)
!1123 = !DISubprogram(name: "all_user_anno_u", linkageName: "_ZN6Packet15all_user_anno_uEv", scope: !5, file: !4, line: 685, type: !1040, scopeLine: 685, flags: DIFlagPublic | DIFlagPrototyped, spFlags: DISPFlagOptimized)
!1124 = !DISubprogram(name: "user_anno_c", linkageName: "_ZNK6Packet11user_anno_cEi", scope: !5, file: !4, line: 686, type: !1049, scopeLine: 686, flags: DIFlagPublic | DIFlagPrototyped, spFlags: DISPFlagOptimized)
!1125 = !DISubprogram(name: "set_user_anno_c", linkageName: "_ZN6Packet15set_user_anno_cEih", scope: !5, file: !4, line: 687, type: !1052, scopeLine: 687, flags: DIFlagPublic | DIFlagPrototyped, spFlags: DISPFlagOptimized)
