; ModuleID = '../elements/standard/classification.cc'
source_filename = "../elements/standard/classification.cc"
target datalayout = "e-m:e-p270:32:32-p271:32:32-p272:64:64-i64:64-f80:128-n8:16:32:64-S128"
target triple = "x86_64-pc-linux-gnu"

%struct._IO_FILE = type { i32, i8*, i8*, i8*, i8*, i8*, i8*, i8*, i8*, i8*, i8*, i8*, %struct._IO_marker*, %struct._IO_FILE*, i32, i32, i64, i16, i8, [1 x i8], i8*, i64, %struct._IO_codecvt*, %struct._IO_wide_data*, %struct._IO_FILE*, i8*, i64, i32, [20 x i8] }
%struct._IO_marker = type opaque
%struct._IO_codecvt = type opaque
%struct._IO_wide_data = type opaque
%"class.Classification::Wordwise::DominatorOptimizer" = type { %"class.Classification::Wordwise::Program"*, %class.Vector.1, %class.Vector.1, %class.Vector.1, %class.Vector.1, %class.Vector.1, %class.Vector.1, %class.Vector.1, %class.Vector.1 }
%class.Vector.1 = type { %class.vector_memory.2 }
%class.vector_memory.2 = type { %struct.char_array.3*, i32, i32 }
%struct.char_array.3 = type { [4 x i8] }
%"class.Classification::Wordwise::Program" = type <{ %class.Vector, i32, i32, i32, [4 x i8] }>
%class.Vector = type { %class.vector_memory }
%class.vector_memory = type { %struct.char_array*, i32, i32 }
%struct.char_array = type { [20 x i8] }
%"struct.Classification::Wordwise::Insn" = type { i16, i8, i8, %union.anon, %union.anon.0, [2 x i32] }
%union.anon = type { i32 }
%union.anon.0 = type { i32 }
%class.StringAccum = type { %"struct.StringAccum::rep_t" }
%"struct.StringAccum::rep_t" = type { i8*, i32, i32 }
%class.String = type { %"struct.String::rep_t" }
%"struct.String::rep_t" = type { i8*, i32, %"struct.String::memo_t"* }
%"struct.String::memo_t" = type { i32, i32, i32, [8 x i8] }
%class.ErrorHandler = type <{ i32 (...)**, i32, [4 x i8] }>
%"class.Classification::Wordwise::CompressedProgram" = type <{ %class.Vector.4, i32, i32, i32, [4 x i8] }>
%class.Vector.4 = type { %class.vector_memory.2 }
%class.Packet = type { %class.atomic_uint32_t, %class.Packet*, i8*, i8*, i8*, i8*, %"struct.Packet::AllAnno", void (i8*, i64, i8*)*, i8* }
%class.atomic_uint32_t = type { i32 }
%"struct.Packet::AllAnno" = type { %"union.Packet::Anno", i8*, i8*, i8*, i32, [8 x i8], %class.Packet*, %class.Packet* }
%"union.Packet::Anno" = type { [6 x i64] }

$_ZN6VectorIiE5beginEv = comdat any

$_ZN14Classification8Wordwise18DominatorOptimizer10set_branchEibi = comdat any

$_ZNK14Classification8Wordwise18DominatorOptimizer10br_impliesEii = comdat any

$_ZNK14Classification8Wordwise18DominatorOptimizer14br_implies_notEii = comdat any

$_ZN6VectorIN14Classification8Wordwise4InsnEE5beginEv = comdat any

$_ZN6VectorIN14Classification8Wordwise4InsnEE3endEv = comdat any

$_ZN14Classification8Wordwise18DominatorOptimizerD2Ev = comdat any

$__clang_call_terminate = comdat any

$_ZNK6VectorIN14Classification8Wordwise4InsnEE5beginEv = comdat any

$_ZNK6VectorIN14Classification8Wordwise4InsnEE3endEv = comdat any

$_ZN13vector_memoryI18sized_array_memoryILm4EEE6resizeEiPK10char_arrayILm4EE = comdat any

$_ZN13vector_memoryI18sized_array_memoryILm20EEE21reserve_and_push_backEiPK10char_arrayILm20EE = comdat any

$_Z13click_compareIjEiPKvS1_Pv = comdat any

@.str = private unnamed_addr constant [12 x i8] c"flippable()\00", align 1
@.str.1 = private unnamed_addr constant [39 x i8] c"../elements/standard/classification.cc\00", align 1
@__PRETTY_FUNCTION__._ZN14Classification8Wordwise4Insn4flipEv = private unnamed_addr constant [44 x i8] c"void Classification::Wordwise::Insn::flip()\00", align 1
@.str.2 = private unnamed_addr constant [5 x i8] c"%3d/\00", align 1
@.str.3 = private unnamed_addr constant [5 x i8] c"%02x\00", align 1
@.str.4 = private unnamed_addr constant [3 x i8] c"%%\00", align 1
@.str.5 = private unnamed_addr constant [8 x i8] c"  yes->\00", align 1
@.str.6 = private unnamed_addr constant [7 x i8] c"  no->\00", align 1
@.str.7 = private unnamed_addr constant [13 x i8] c"  short->yes\00", align 1
@.str.8 = private unnamed_addr constant [25 x i8] c"t == subtrees.size() - 1\00", align 1
@__PRETTY_FUNCTION__._ZN14Classification8Wordwise7Program14finish_subtreeER6VectorIiENS_8CombinerEii = private unnamed_addr constant [106 x i8] c"void Classification::Wordwise::Program::finish_subtree(Vector<int> &, Classification::Combiner, int, int)\00", align 1
@stderr = external local_unnamed_addr global %struct._IO_FILE*, align 8
@.str.9 = private unnamed_addr constant [4 x i8] c"%s\0A\00", align 1
@.str.10 = private unnamed_addr constant [8 x i8] c"S%d    \00", align 1
@.str.11 = private unnamed_addr constant [9 x i8] c"S%d[=%d]\00", align 1
@.str.12 = private unnamed_addr constant [19 x i8] c" :  NO DOMINATORS\0A\00", align 1
@.str.13 = private unnamed_addr constant [4 x i8] c" : \00", align 1
@.str.14 = private unnamed_addr constant [10 x i8] c"       : \00", align 1
@.str.15 = private unnamed_addr constant [9 x i8] c" (%d.%c)\00", align 1
@.str.16 = private unnamed_addr constant [7 x i8] c" %d.%c\00", align 1
@.str.17 = private unnamed_addr constant [2 x i8] c"\0A\00", align 1
@.str.18 = private unnamed_addr constant [35 x i8] c"_domlist_start.size() == state + 1\00", align 1
@__PRETTY_FUNCTION__._ZN14Classification8Wordwise18DominatorOptimizer13calculate_domEi = private unnamed_addr constant [70 x i8] c"void Classification::Wordwise::DominatorOptimizer::calculate_dom(int)\00", align 1
@.str.19 = private unnamed_addr constant [47 x i8] c"_dom_start.size() - 1 == _domlist_start.back()\00", align 1
@.str.20 = private unnamed_addr constant [33 x i8] c"_dom.size() == _dom_start.back()\00", align 1
@.str.21 = private unnamed_addr constant [74 x i8] c"i == predecessors.size() - 1 || stateno(predecessors[i+1]) != _insn_id[s]\00", align 1
@.str.22 = private unnamed_addr constant [30 x i8] c"pdom_end.back() > pdom.back()\00", align 1
@.str.23 = private unnamed_addr constant [50 x i8] c"stateno(_dom[pdom_end.back() - 1]) == _insn_id[s]\00", align 1
@.str.24 = private unnamed_addr constant [39 x i8] c"stateno(_dom[pos2 - 1]) == _insn_id[s]\00", align 1
@.str.25 = private unnamed_addr constant [11 x i8] c"state == 0\00", align 1
@.str.26 = private unnamed_addr constant [59 x i8] c"pos1 <= pos2 && pos2 <= start.size() && pos2 <= end.size()\00", align 1
@__PRETTY_FUNCTION__._ZN14Classification8Wordwise18DominatorOptimizer15intersect_listsERK6VectorIiES5_S5_iiRS3_ = private unnamed_addr constant [162 x i8] c"static void Classification::Wordwise::DominatorOptimizer::intersect_lists(const Vector<int> &, const Vector<int> &, const Vector<int> &, int, int, Vector<int> &)\00", align 1
@.str.27 = private unnamed_addr constant [61 x i8] c"dom_end > dom && stateno(_dom[dom_end - 1]) == stateno(brno)\00", align 1
@__PRETTY_FUNCTION__._ZN14Classification8Wordwise18DominatorOptimizer16dom_shift_branchEiiiiP6VectorIiE = private unnamed_addr constant [102 x i8] c"int Classification::Wordwise::DominatorOptimizer::dom_shift_branch(int, int, int, int, Vector<int> *)\00", align 1
@.str.28 = private unnamed_addr constant [47 x i8] c"start.size() == end.size() && start.size() > 1\00", align 1
@__PRETTY_FUNCTION__._ZN14Classification8Wordwise18DominatorOptimizer26last_common_state_in_listsERK6VectorIiES5_S5_ = private unnamed_addr constant [147 x i8] c"static int Classification::Wordwise::DominatorOptimizer::last_common_state_in_lists(const Vector<int> &, const Vector<int> &, const Vector<int> &)\00", align 1
@__PRETTY_FUNCTION__._ZN14Classification8Wordwise18DominatorOptimizer3runEi = private unnamed_addr constant [60 x i8] c"void Classification::Wordwise::DominatorOptimizer::run(int)\00", align 1
@.str.29 = private unnamed_addr constant [13 x i8] c"failure <= 0\00", align 1
@__PRETTY_FUNCTION__._ZN14Classification8Wordwise7Program11set_failureEi = private unnamed_addr constant [57 x i8] c"void Classification::Wordwise::Program::set_failure(int)\00", align 1
@.str.30 = private unnamed_addr constant [29 x i8] c"output %d matches no packets\00", align 1
@.str.31 = private unnamed_addr constant [2 x i8] c" \00", align 1
@.str.32 = private unnamed_addr constant [1 x i8] zeroinitializer, align 1
@.str.33 = private unnamed_addr constant [7 x i8] c"all->[\00", align 1
@.str.34 = private unnamed_addr constant [3 x i8] c"]\0A\00", align 1
@.str.35 = private unnamed_addr constant [13 x i8] c"safe length \00", align 1
@.str.36 = private unnamed_addr constant [18 x i8] c"alignment offset \00", align 1
@.str.39 = private unnamed_addr constant [4 x i8] c"X-+\00", align 1
@.str.40 = private unnamed_addr constant [6 x i8] c"step \00", align 1
@_ZN6String9null_dataE = external constant i8, align 1
@.str.41 = private unnamed_addr constant [18 x i8] c"_r.memo->refcount\00", align 1
@.str.42 = private unnamed_addr constant [29 x i8] c"../dummy_inc/click/string.hh\00", align 1
@__PRETTY_FUNCTION__._ZNK6String5derefEv = private unnamed_addr constant [27 x i8] c"void String::deref() const\00", align 1
@.str.43 = private unnamed_addr constant [10 x i8] c"state > 0\00", align 1
@.str.44 = private unnamed_addr constant [39 x i8] c"../elements/standard/classification.hh\00", align 1
@__PRETTY_FUNCTION__._ZNK14Classification8Wordwise18DominatorOptimizer10br_impliesEii = private unnamed_addr constant [78 x i8] c"bool Classification::Wordwise::DominatorOptimizer::br_implies(int, int) const\00", align 1
@__PRETTY_FUNCTION__._ZNK14Classification8Wordwise18DominatorOptimizer14br_implies_notEii = private unnamed_addr constant [82 x i8] c"bool Classification::Wordwise::DominatorOptimizer::br_implies_not(int, int) const\00", align 1
@.str.45 = private unnamed_addr constant [7 x i8] c"n >= 0\00", align 1
@.str.46 = private unnamed_addr constant [29 x i8] c"../dummy_inc/click/vector.cc\00", align 1
@__PRETTY_FUNCTION__._ZN13vector_memoryI18sized_array_memoryILm4EEE6resizeEiPK10char_arrayILm4EE = private unnamed_addr constant [135 x i8] c"void vector_memory<sized_array_memory<4> >::resize(vector_memory::size_type, const vector_memory::type *) [AM = sized_array_memory<4>]\00", align 1
@.str.47 = private unnamed_addr constant [27 x i8] c"a >= begin() && b <= end()\00", align 1
@__PRETTY_FUNCTION__._ZN13vector_memoryI18sized_array_memoryILm20EEE5eraseEP10char_arrayILm20EES5_ = private unnamed_addr constant [163 x i8] c"typename vector_memory<AM>::iterator vector_memory<sized_array_memory<20> >::erase(vector_memory::iterator, vector_memory::iterator) [AM = sized_array_memory<20>]\00", align 1

@_ZN14Classification8Wordwise18DominatorOptimizerC1EPNS0_7ProgramE = dso_local unnamed_addr alias void (%"class.Classification::Wordwise::DominatorOptimizer"*, %"class.Classification::Wordwise::Program"*), void (%"class.Classification::Wordwise::DominatorOptimizer"*, %"class.Classification::Wordwise::Program"*)* @_ZN14Classification8Wordwise18DominatorOptimizerC2EPNS0_7ProgramE

; Function Attrs: norecurse nounwind readonly sspstrong uwtable
define dso_local zeroext i1 @_ZNK14Classification8Wordwise4Insn21hard_implies_short_okEbRKS1_bj(%"struct.Classification::Wordwise::Insn"* nocapture readonly %0, i1 zeroext %1, %"struct.Classification::Wordwise::Insn"* nocapture readonly dereferenceable(20) %2, i1 zeroext %3, i32 %4) local_unnamed_addr #0 align 2 !dbg !2592 {
  call void @llvm.dbg.value(metadata %"struct.Classification::Wordwise::Insn"* %0, metadata !2594, metadata !DIExpression()), !dbg !2600
  call void @llvm.dbg.value(metadata i1 %1, metadata !2595, metadata !DIExpression()), !dbg !2600
  call void @llvm.dbg.value(metadata %"struct.Classification::Wordwise::Insn"* %2, metadata !2596, metadata !DIExpression()), !dbg !2600
  call void @llvm.dbg.value(metadata i1 %3, metadata !2597, metadata !DIExpression()), !dbg !2600
  call void @llvm.dbg.value(metadata i32 %4, metadata !2598, metadata !DIExpression()), !dbg !2600
  %6 = getelementptr inbounds %"struct.Classification::Wordwise::Insn", %"struct.Classification::Wordwise::Insn"* %0, i64 0, i32 2, !dbg !2601
  %7 = load i8, i8* %6, align 1, !dbg !2601, !tbaa !2603
  %8 = zext i1 %1 to i8, !dbg !2608
  %9 = icmp eq i8 %7, %8, !dbg !2608
  br i1 %9, label %10, label %91, !dbg !2609

10:                                               ; preds = %5
  call void @llvm.dbg.value(metadata %"struct.Classification::Wordwise::Insn"* %0, metadata !2610, metadata !DIExpression()), !dbg !2613
  %11 = getelementptr inbounds %"struct.Classification::Wordwise::Insn", %"struct.Classification::Wordwise::Insn"* %0, i64 0, i32 3, !dbg !2615
  %12 = getelementptr %union.anon, %union.anon* %11, i64 0, i32 0, !dbg !2617
  %13 = load i32, i32* %12, align 4, !dbg !2617, !tbaa !2618
  %14 = icmp eq i32 %13, 0, !dbg !2619
  br i1 %14, label %91, label %15, !dbg !2620

15:                                               ; preds = %10
  %16 = bitcast %union.anon* %11 to [4 x i8]*, !dbg !2621
  %17 = getelementptr inbounds [4 x i8], [4 x i8]* %16, i64 0, i64 3, !dbg !2623
  %18 = load i8, i8* %17, align 1, !dbg !2623, !tbaa !2618
  %19 = icmp eq i8 %18, 0, !dbg !2623
  br i1 %19, label %25, label %20, !dbg !2624

20:                                               ; preds = %15
  %21 = getelementptr inbounds %"struct.Classification::Wordwise::Insn", %"struct.Classification::Wordwise::Insn"* %0, i64 0, i32 0, !dbg !2625
  %22 = load i16, i16* %21, align 4, !dbg !2625, !tbaa !2626
  %23 = zext i16 %22 to i32, !dbg !2625
  %24 = add nuw nsw i32 %23, 4, !dbg !2627
  br label %45, !dbg !2628

25:                                               ; preds = %15
  %26 = getelementptr inbounds [4 x i8], [4 x i8]* %16, i64 0, i64 2, !dbg !2629
  %27 = load i8, i8* %26, align 2, !dbg !2629, !tbaa !2618
  %28 = icmp eq i8 %27, 0, !dbg !2629
  br i1 %28, label %34, label %29, !dbg !2631

29:                                               ; preds = %25
  %30 = getelementptr inbounds %"struct.Classification::Wordwise::Insn", %"struct.Classification::Wordwise::Insn"* %0, i64 0, i32 0, !dbg !2632
  %31 = load i16, i16* %30, align 4, !dbg !2632, !tbaa !2626
  %32 = zext i16 %31 to i32, !dbg !2632
  %33 = add nuw nsw i32 %32, 3, !dbg !2633
  br label %45, !dbg !2634

34:                                               ; preds = %25
  %35 = getelementptr inbounds [4 x i8], [4 x i8]* %16, i64 0, i64 1, !dbg !2635
  %36 = load i8, i8* %35, align 1, !dbg !2635, !tbaa !2618
  %37 = icmp eq i8 %36, 0, !dbg !2635
  %38 = getelementptr inbounds %"struct.Classification::Wordwise::Insn", %"struct.Classification::Wordwise::Insn"* %0, i64 0, i32 0, !dbg !2637
  %39 = load i16, i16* %38, align 4, !dbg !2637, !tbaa !2626
  %40 = zext i16 %39 to i32, !dbg !2637
  br i1 %37, label %43, label %41, !dbg !2638

41:                                               ; preds = %34
  %42 = add nuw nsw i32 %40, 2, !dbg !2639
  br label %45, !dbg !2640

43:                                               ; preds = %34
  %44 = add nuw nsw i32 %40, 1, !dbg !2641
  br label %45, !dbg !2642

45:                                               ; preds = %20, %29, %41, %43
  %46 = phi i32 [ %24, %20 ], [ %33, %29 ], [ %42, %41 ], [ %44, %43 ], !dbg !2643
  call void @llvm.dbg.value(metadata i32 %46, metadata !2599, metadata !DIExpression()), !dbg !2600
  %47 = icmp ugt i32 %46, %4, !dbg !2644
  br i1 %47, label %48, label %91, !dbg !2645

48:                                               ; preds = %45
  call void @llvm.dbg.value(metadata %"struct.Classification::Wordwise::Insn"* %2, metadata !2610, metadata !DIExpression()), !dbg !2646
  %49 = getelementptr inbounds %"struct.Classification::Wordwise::Insn", %"struct.Classification::Wordwise::Insn"* %2, i64 0, i32 3, !dbg !2648
  %50 = getelementptr %union.anon, %union.anon* %49, i64 0, i32 0, !dbg !2649
  %51 = load i32, i32* %50, align 4, !dbg !2649, !tbaa !2618
  %52 = icmp eq i32 %51, 0, !dbg !2650
  br i1 %52, label %83, label %53, !dbg !2651

53:                                               ; preds = %48
  %54 = bitcast %union.anon* %49 to [4 x i8]*, !dbg !2652
  %55 = getelementptr inbounds [4 x i8], [4 x i8]* %54, i64 0, i64 3, !dbg !2653
  %56 = load i8, i8* %55, align 1, !dbg !2653, !tbaa !2618
  %57 = icmp eq i8 %56, 0, !dbg !2653
  br i1 %57, label %63, label %58, !dbg !2654

58:                                               ; preds = %53
  %59 = getelementptr inbounds %"struct.Classification::Wordwise::Insn", %"struct.Classification::Wordwise::Insn"* %2, i64 0, i32 0, !dbg !2655
  %60 = load i16, i16* %59, align 4, !dbg !2655, !tbaa !2626
  %61 = zext i16 %60 to i32, !dbg !2655
  %62 = add nuw nsw i32 %61, 4, !dbg !2656
  br label %83, !dbg !2657

63:                                               ; preds = %53
  %64 = getelementptr inbounds [4 x i8], [4 x i8]* %54, i64 0, i64 2, !dbg !2658
  %65 = load i8, i8* %64, align 2, !dbg !2658, !tbaa !2618
  %66 = icmp eq i8 %65, 0, !dbg !2658
  br i1 %66, label %72, label %67, !dbg !2659

67:                                               ; preds = %63
  %68 = getelementptr inbounds %"struct.Classification::Wordwise::Insn", %"struct.Classification::Wordwise::Insn"* %2, i64 0, i32 0, !dbg !2660
  %69 = load i16, i16* %68, align 4, !dbg !2660, !tbaa !2626
  %70 = zext i16 %69 to i32, !dbg !2660
  %71 = add nuw nsw i32 %70, 3, !dbg !2661
  br label %83, !dbg !2662

72:                                               ; preds = %63
  %73 = getelementptr inbounds [4 x i8], [4 x i8]* %54, i64 0, i64 1, !dbg !2663
  %74 = load i8, i8* %73, align 1, !dbg !2663, !tbaa !2618
  %75 = icmp eq i8 %74, 0, !dbg !2663
  %76 = getelementptr inbounds %"struct.Classification::Wordwise::Insn", %"struct.Classification::Wordwise::Insn"* %2, i64 0, i32 0, !dbg !2664
  %77 = load i16, i16* %76, align 4, !dbg !2664, !tbaa !2626
  %78 = zext i16 %77 to i32, !dbg !2664
  br i1 %75, label %81, label %79, !dbg !2665

79:                                               ; preds = %72
  %80 = add nuw nsw i32 %78, 2, !dbg !2666
  br label %83, !dbg !2667

81:                                               ; preds = %72
  %82 = add nuw nsw i32 %78, 1, !dbg !2668
  br label %83, !dbg !2669

83:                                               ; preds = %48, %58, %67, %79, %81
  %84 = phi i32 [ %62, %58 ], [ %71, %67 ], [ %80, %79 ], [ %82, %81 ], [ 0, %48 ], !dbg !2670
  %85 = icmp ugt i32 %46, %84, !dbg !2671
  br i1 %85, label %91, label %86, !dbg !2672

86:                                               ; preds = %83
  %87 = getelementptr inbounds %"struct.Classification::Wordwise::Insn", %"struct.Classification::Wordwise::Insn"* %2, i64 0, i32 2, !dbg !2673
  %88 = load i8, i8* %87, align 1, !dbg !2673, !tbaa !2603
  %89 = zext i1 %3 to i8, !dbg !2674
  %90 = icmp eq i8 %88, %89, !dbg !2674
  br label %91

91:                                               ; preds = %10, %86, %45, %83, %5
  %92 = phi i1 [ true, %5 ], [ true, %45 ], [ false, %83 ], [ %90, %86 ], [ true, %10 ], !dbg !2600
  ret i1 %92, !dbg !2675
}

; Function Attrs: nounwind readnone speculatable willreturn
declare void @llvm.dbg.declare(metadata, metadata, metadata) #1

; Function Attrs: argmemonly nounwind willreturn
declare void @llvm.lifetime.start.p0i8(i64 immarg, i8* nocapture) #2

; Function Attrs: argmemonly nounwind willreturn
declare void @llvm.lifetime.end.p0i8(i64 immarg, i8* nocapture) #2

; Function Attrs: norecurse nounwind readonly sspstrong uwtable
define dso_local zeroext i1 @_ZNK14Classification8Wordwise4Insn7impliesERKS1_j(%"struct.Classification::Wordwise::Insn"* nocapture readonly %0, %"struct.Classification::Wordwise::Insn"* nocapture readonly dereferenceable(20) %1, i32 %2) local_unnamed_addr #0 align 2 !dbg !2676 {
  call void @llvm.dbg.value(metadata %"struct.Classification::Wordwise::Insn"* %0, metadata !2678, metadata !DIExpression()), !dbg !2682
  call void @llvm.dbg.value(metadata %"struct.Classification::Wordwise::Insn"* %1, metadata !2679, metadata !DIExpression()), !dbg !2682
  call void @llvm.dbg.value(metadata i32 %2, metadata !2680, metadata !DIExpression()), !dbg !2682
  %4 = getelementptr inbounds %"struct.Classification::Wordwise::Insn", %"struct.Classification::Wordwise::Insn"* %1, i64 0, i32 3, i32 0, !dbg !2683
  %5 = load i32, i32* %4, align 4, !dbg !2683, !tbaa !2618
  %6 = icmp eq i32 %5, 0, !dbg !2685
  br i1 %6, label %87, label %7, !dbg !2686

7:                                                ; preds = %3
  %8 = getelementptr inbounds %"struct.Classification::Wordwise::Insn", %"struct.Classification::Wordwise::Insn"* %1, i64 0, i32 0, !dbg !2687
  %9 = load i16, i16* %8, align 4, !dbg !2687, !tbaa !2626
  %10 = getelementptr inbounds %"struct.Classification::Wordwise::Insn", %"struct.Classification::Wordwise::Insn"* %0, i64 0, i32 0, !dbg !2689
  %11 = load i16, i16* %10, align 4, !dbg !2689, !tbaa !2626
  %12 = icmp eq i16 %9, %11, !dbg !2690
  br i1 %12, label %13, label %87, !dbg !2691

13:                                               ; preds = %7
  call void @llvm.dbg.value(metadata %"struct.Classification::Wordwise::Insn"* %0, metadata !2692, metadata !DIExpression()), !dbg !2699
  call void @llvm.dbg.value(metadata i1 true, metadata !2695, metadata !DIExpression()), !dbg !2699
  call void @llvm.dbg.value(metadata %"struct.Classification::Wordwise::Insn"* %1, metadata !2696, metadata !DIExpression()), !dbg !2699
  call void @llvm.dbg.value(metadata i1 true, metadata !2697, metadata !DIExpression()), !dbg !2699
  call void @llvm.dbg.value(metadata i32 %2, metadata !2698, metadata !DIExpression()), !dbg !2699
  %14 = getelementptr inbounds %"struct.Classification::Wordwise::Insn", %"struct.Classification::Wordwise::Insn"* %0, i64 0, i32 2, !dbg !2701
  %15 = load i8, i8* %14, align 1, !dbg !2701, !tbaa !2603
  %16 = icmp eq i8 %15, 1, !dbg !2703
  br i1 %16, label %17, label %75, !dbg !2704

17:                                               ; preds = %13
  %18 = zext i16 %9 to i32, !dbg !2705
  %19 = add nuw nsw i32 %18, 4, !dbg !2706
  %20 = icmp sgt i32 %19, %2, !dbg !2707
  br i1 %20, label %21, label %75, !dbg !2708

21:                                               ; preds = %17
  call void @llvm.dbg.value(metadata %"struct.Classification::Wordwise::Insn"* %0, metadata !2594, metadata !DIExpression()), !dbg !2709
  call void @llvm.dbg.value(metadata i1 true, metadata !2595, metadata !DIExpression()), !dbg !2709
  call void @llvm.dbg.value(metadata %"struct.Classification::Wordwise::Insn"* %1, metadata !2596, metadata !DIExpression()), !dbg !2709
  call void @llvm.dbg.value(metadata i1 true, metadata !2597, metadata !DIExpression()), !dbg !2709
  call void @llvm.dbg.value(metadata i32 %2, metadata !2598, metadata !DIExpression()), !dbg !2709
  call void @llvm.dbg.value(metadata %"struct.Classification::Wordwise::Insn"* %0, metadata !2610, metadata !DIExpression()), !dbg !2711
  %22 = getelementptr inbounds %"struct.Classification::Wordwise::Insn", %"struct.Classification::Wordwise::Insn"* %0, i64 0, i32 3, !dbg !2713
  %23 = getelementptr %union.anon, %union.anon* %22, i64 0, i32 0, !dbg !2714
  %24 = load i32, i32* %23, align 4, !dbg !2714, !tbaa !2618
  %25 = icmp eq i32 %24, 0, !dbg !2715
  br i1 %25, label %75, label %26, !dbg !2716

26:                                               ; preds = %21
  %27 = bitcast %union.anon* %22 to [4 x i8]*, !dbg !2717
  %28 = getelementptr inbounds [4 x i8], [4 x i8]* %27, i64 0, i64 3, !dbg !2718
  %29 = load i8, i8* %28, align 1, !dbg !2718, !tbaa !2618
  %30 = icmp eq i8 %29, 0, !dbg !2718
  br i1 %30, label %31, label %45, !dbg !2719

31:                                               ; preds = %26
  %32 = getelementptr inbounds [4 x i8], [4 x i8]* %27, i64 0, i64 2, !dbg !2720
  %33 = load i8, i8* %32, align 2, !dbg !2720, !tbaa !2618
  %34 = icmp eq i8 %33, 0, !dbg !2720
  br i1 %34, label %37, label %35, !dbg !2721

35:                                               ; preds = %31
  %36 = add nuw nsw i32 %18, 3, !dbg !2722
  br label %45, !dbg !2723

37:                                               ; preds = %31
  %38 = getelementptr inbounds [4 x i8], [4 x i8]* %27, i64 0, i64 1, !dbg !2724
  %39 = load i8, i8* %38, align 1, !dbg !2724, !tbaa !2618
  %40 = icmp eq i8 %39, 0, !dbg !2724
  br i1 %40, label %43, label %41, !dbg !2725

41:                                               ; preds = %37
  %42 = add nuw nsw i32 %18, 2, !dbg !2726
  br label %45, !dbg !2727

43:                                               ; preds = %37
  %44 = add nuw nsw i32 %18, 1, !dbg !2728
  br label %45, !dbg !2729

45:                                               ; preds = %43, %41, %35, %26
  %46 = phi i32 [ %36, %35 ], [ %42, %41 ], [ %44, %43 ], [ %19, %26 ], !dbg !2730
  call void @llvm.dbg.value(metadata i32 %46, metadata !2599, metadata !DIExpression()), !dbg !2709
  %47 = icmp ugt i32 %46, %2, !dbg !2731
  br i1 %47, label %48, label %75, !dbg !2732

48:                                               ; preds = %45
  call void @llvm.dbg.value(metadata %"struct.Classification::Wordwise::Insn"* %1, metadata !2610, metadata !DIExpression()), !dbg !2733
  %49 = getelementptr inbounds %"struct.Classification::Wordwise::Insn", %"struct.Classification::Wordwise::Insn"* %1, i64 0, i32 3, !dbg !2735
  %50 = bitcast %union.anon* %49 to [4 x i8]*, !dbg !2736
  %51 = getelementptr inbounds [4 x i8], [4 x i8]* %50, i64 0, i64 3, !dbg !2737
  %52 = load i8, i8* %51, align 1, !dbg !2737, !tbaa !2618
  %53 = icmp eq i8 %52, 0, !dbg !2737
  br i1 %53, label %54, label %68, !dbg !2738

54:                                               ; preds = %48
  %55 = getelementptr inbounds [4 x i8], [4 x i8]* %50, i64 0, i64 2, !dbg !2739
  %56 = load i8, i8* %55, align 2, !dbg !2739, !tbaa !2618
  %57 = icmp eq i8 %56, 0, !dbg !2739
  br i1 %57, label %60, label %58, !dbg !2740

58:                                               ; preds = %54
  %59 = add nuw nsw i32 %18, 3, !dbg !2741
  br label %68, !dbg !2742

60:                                               ; preds = %54
  %61 = getelementptr inbounds [4 x i8], [4 x i8]* %50, i64 0, i64 1, !dbg !2743
  %62 = load i8, i8* %61, align 1, !dbg !2743, !tbaa !2618
  %63 = icmp eq i8 %62, 0, !dbg !2743
  br i1 %63, label %66, label %64, !dbg !2744

64:                                               ; preds = %60
  %65 = add nuw nsw i32 %18, 2, !dbg !2745
  br label %68, !dbg !2746

66:                                               ; preds = %60
  %67 = add nuw nsw i32 %18, 1, !dbg !2747
  br label %68, !dbg !2748

68:                                               ; preds = %48, %66, %64, %58
  %69 = phi i32 [ %59, %58 ], [ %65, %64 ], [ %67, %66 ], [ %19, %48 ], !dbg !2749
  %70 = icmp ugt i32 %46, %69, !dbg !2750
  br i1 %70, label %87, label %71, !dbg !2751

71:                                               ; preds = %68
  %72 = getelementptr inbounds %"struct.Classification::Wordwise::Insn", %"struct.Classification::Wordwise::Insn"* %1, i64 0, i32 2, !dbg !2752
  %73 = load i8, i8* %72, align 1, !dbg !2752, !tbaa !2603
  %74 = icmp eq i8 %73, 1, !dbg !2753
  br i1 %74, label %75, label %87, !dbg !2754

75:                                               ; preds = %21, %45, %13, %17, %71
  %76 = getelementptr inbounds %"struct.Classification::Wordwise::Insn", %"struct.Classification::Wordwise::Insn"* %0, i64 0, i32 3, i32 0, !dbg !2755
  %77 = load i32, i32* %76, align 4, !dbg !2755, !tbaa !2618
  %78 = and i32 %77, %5, !dbg !2756
  call void @llvm.dbg.value(metadata i32 %78, metadata !2681, metadata !DIExpression()), !dbg !2682
  %79 = icmp eq i32 %78, %5, !dbg !2757
  br i1 %79, label %80, label %87, !dbg !2758

80:                                               ; preds = %75
  %81 = getelementptr inbounds %"struct.Classification::Wordwise::Insn", %"struct.Classification::Wordwise::Insn"* %0, i64 0, i32 4, i32 0, !dbg !2759
  %82 = load i32, i32* %81, align 4, !dbg !2759, !tbaa !2618
  %83 = and i32 %82, %5, !dbg !2760
  %84 = getelementptr inbounds %"struct.Classification::Wordwise::Insn", %"struct.Classification::Wordwise::Insn"* %1, i64 0, i32 4, i32 0, !dbg !2761
  %85 = load i32, i32* %84, align 4, !dbg !2761, !tbaa !2618
  %86 = icmp eq i32 %83, %85, !dbg !2762
  br label %87

87:                                               ; preds = %68, %75, %80, %71, %7, %3
  %88 = phi i1 [ true, %3 ], [ false, %7 ], [ false, %71 ], [ false, %75 ], [ %86, %80 ], [ false, %68 ], !dbg !2682
  ret i1 %88, !dbg !2763
}

; Function Attrs: nounwind readonly sspstrong uwtable
define dso_local zeroext i1 @_ZNK14Classification8Wordwise4Insn11not_impliesERKS1_j(%"struct.Classification::Wordwise::Insn"* nocapture readonly %0, %"struct.Classification::Wordwise::Insn"* nocapture readonly dereferenceable(20) %1, i32 %2) local_unnamed_addr #3 align 2 !dbg !2764 {
  call void @llvm.dbg.value(metadata %"struct.Classification::Wordwise::Insn"* %0, metadata !2766, metadata !DIExpression()), !dbg !2769
  call void @llvm.dbg.value(metadata %"struct.Classification::Wordwise::Insn"* %1, metadata !2767, metadata !DIExpression()), !dbg !2769
  call void @llvm.dbg.value(metadata i32 %2, metadata !2768, metadata !DIExpression()), !dbg !2769
  %4 = getelementptr inbounds %"struct.Classification::Wordwise::Insn", %"struct.Classification::Wordwise::Insn"* %1, i64 0, i32 3, i32 0, !dbg !2770
  %5 = load i32, i32* %4, align 4, !dbg !2770, !tbaa !2618
  %6 = icmp eq i32 %5, 0, !dbg !2772
  br i1 %6, label %88, label %7, !dbg !2773

7:                                                ; preds = %3
  %8 = getelementptr inbounds %"struct.Classification::Wordwise::Insn", %"struct.Classification::Wordwise::Insn"* %1, i64 0, i32 0, !dbg !2774
  %9 = load i16, i16* %8, align 4, !dbg !2774, !tbaa !2626
  %10 = getelementptr inbounds %"struct.Classification::Wordwise::Insn", %"struct.Classification::Wordwise::Insn"* %0, i64 0, i32 0, !dbg !2776
  %11 = load i16, i16* %10, align 4, !dbg !2776, !tbaa !2626
  %12 = icmp eq i16 %9, %11, !dbg !2777
  br i1 %12, label %13, label %88, !dbg !2778

13:                                               ; preds = %7
  call void @llvm.dbg.value(metadata %"struct.Classification::Wordwise::Insn"* %0, metadata !2692, metadata !DIExpression()), !dbg !2779
  call void @llvm.dbg.value(metadata i1 false, metadata !2695, metadata !DIExpression()), !dbg !2779
  call void @llvm.dbg.value(metadata %"struct.Classification::Wordwise::Insn"* %1, metadata !2696, metadata !DIExpression()), !dbg !2779
  call void @llvm.dbg.value(metadata i1 true, metadata !2697, metadata !DIExpression()), !dbg !2779
  call void @llvm.dbg.value(metadata i32 %2, metadata !2698, metadata !DIExpression()), !dbg !2779
  %14 = getelementptr inbounds %"struct.Classification::Wordwise::Insn", %"struct.Classification::Wordwise::Insn"* %0, i64 0, i32 2, !dbg !2781
  %15 = load i8, i8* %14, align 1, !dbg !2781, !tbaa !2603
  %16 = icmp eq i8 %15, 0, !dbg !2782
  br i1 %16, label %17, label %75, !dbg !2783

17:                                               ; preds = %13
  %18 = zext i16 %9 to i32, !dbg !2784
  %19 = add nuw nsw i32 %18, 4, !dbg !2785
  %20 = icmp sgt i32 %19, %2, !dbg !2786
  br i1 %20, label %21, label %75, !dbg !2787

21:                                               ; preds = %17
  call void @llvm.dbg.value(metadata %"struct.Classification::Wordwise::Insn"* %0, metadata !2594, metadata !DIExpression()), !dbg !2788
  call void @llvm.dbg.value(metadata i1 false, metadata !2595, metadata !DIExpression()), !dbg !2788
  call void @llvm.dbg.value(metadata %"struct.Classification::Wordwise::Insn"* %1, metadata !2596, metadata !DIExpression()), !dbg !2788
  call void @llvm.dbg.value(metadata i1 true, metadata !2597, metadata !DIExpression()), !dbg !2788
  call void @llvm.dbg.value(metadata i32 %2, metadata !2598, metadata !DIExpression()), !dbg !2788
  call void @llvm.dbg.value(metadata %"struct.Classification::Wordwise::Insn"* %0, metadata !2610, metadata !DIExpression()), !dbg !2790
  %22 = getelementptr inbounds %"struct.Classification::Wordwise::Insn", %"struct.Classification::Wordwise::Insn"* %0, i64 0, i32 3, !dbg !2792
  %23 = getelementptr %union.anon, %union.anon* %22, i64 0, i32 0, !dbg !2793
  %24 = load i32, i32* %23, align 4, !dbg !2793, !tbaa !2618
  %25 = icmp eq i32 %24, 0, !dbg !2794
  br i1 %25, label %75, label %26, !dbg !2795

26:                                               ; preds = %21
  %27 = bitcast %union.anon* %22 to [4 x i8]*, !dbg !2796
  %28 = getelementptr inbounds [4 x i8], [4 x i8]* %27, i64 0, i64 3, !dbg !2797
  %29 = load i8, i8* %28, align 1, !dbg !2797, !tbaa !2618
  %30 = icmp eq i8 %29, 0, !dbg !2797
  br i1 %30, label %31, label %45, !dbg !2798

31:                                               ; preds = %26
  %32 = getelementptr inbounds [4 x i8], [4 x i8]* %27, i64 0, i64 2, !dbg !2799
  %33 = load i8, i8* %32, align 2, !dbg !2799, !tbaa !2618
  %34 = icmp eq i8 %33, 0, !dbg !2799
  br i1 %34, label %37, label %35, !dbg !2800

35:                                               ; preds = %31
  %36 = add nuw nsw i32 %18, 3, !dbg !2801
  br label %45, !dbg !2802

37:                                               ; preds = %31
  %38 = getelementptr inbounds [4 x i8], [4 x i8]* %27, i64 0, i64 1, !dbg !2803
  %39 = load i8, i8* %38, align 1, !dbg !2803, !tbaa !2618
  %40 = icmp eq i8 %39, 0, !dbg !2803
  br i1 %40, label %43, label %41, !dbg !2804

41:                                               ; preds = %37
  %42 = add nuw nsw i32 %18, 2, !dbg !2805
  br label %45, !dbg !2806

43:                                               ; preds = %37
  %44 = add nuw nsw i32 %18, 1, !dbg !2807
  br label %45, !dbg !2808

45:                                               ; preds = %43, %41, %35, %26
  %46 = phi i32 [ %36, %35 ], [ %42, %41 ], [ %44, %43 ], [ %19, %26 ], !dbg !2809
  call void @llvm.dbg.value(metadata i32 %46, metadata !2599, metadata !DIExpression()), !dbg !2788
  %47 = icmp ugt i32 %46, %2, !dbg !2810
  br i1 %47, label %48, label %75, !dbg !2811

48:                                               ; preds = %45
  call void @llvm.dbg.value(metadata %"struct.Classification::Wordwise::Insn"* %1, metadata !2610, metadata !DIExpression()), !dbg !2812
  %49 = getelementptr inbounds %"struct.Classification::Wordwise::Insn", %"struct.Classification::Wordwise::Insn"* %1, i64 0, i32 3, !dbg !2814
  %50 = bitcast %union.anon* %49 to [4 x i8]*, !dbg !2815
  %51 = getelementptr inbounds [4 x i8], [4 x i8]* %50, i64 0, i64 3, !dbg !2816
  %52 = load i8, i8* %51, align 1, !dbg !2816, !tbaa !2618
  %53 = icmp eq i8 %52, 0, !dbg !2816
  br i1 %53, label %54, label %68, !dbg !2817

54:                                               ; preds = %48
  %55 = getelementptr inbounds [4 x i8], [4 x i8]* %50, i64 0, i64 2, !dbg !2818
  %56 = load i8, i8* %55, align 2, !dbg !2818, !tbaa !2618
  %57 = icmp eq i8 %56, 0, !dbg !2818
  br i1 %57, label %60, label %58, !dbg !2819

58:                                               ; preds = %54
  %59 = add nuw nsw i32 %18, 3, !dbg !2820
  br label %68, !dbg !2821

60:                                               ; preds = %54
  %61 = getelementptr inbounds [4 x i8], [4 x i8]* %50, i64 0, i64 1, !dbg !2822
  %62 = load i8, i8* %61, align 1, !dbg !2822, !tbaa !2618
  %63 = icmp eq i8 %62, 0, !dbg !2822
  br i1 %63, label %66, label %64, !dbg !2823

64:                                               ; preds = %60
  %65 = add nuw nsw i32 %18, 2, !dbg !2824
  br label %68, !dbg !2825

66:                                               ; preds = %60
  %67 = add nuw nsw i32 %18, 1, !dbg !2826
  br label %68, !dbg !2827

68:                                               ; preds = %48, %66, %64, %58
  %69 = phi i32 [ %59, %58 ], [ %65, %64 ], [ %67, %66 ], [ %19, %48 ], !dbg !2828
  %70 = icmp ugt i32 %46, %69, !dbg !2829
  br i1 %70, label %88, label %71, !dbg !2830

71:                                               ; preds = %68
  %72 = getelementptr inbounds %"struct.Classification::Wordwise::Insn", %"struct.Classification::Wordwise::Insn"* %1, i64 0, i32 2, !dbg !2831
  %73 = load i8, i8* %72, align 1, !dbg !2831, !tbaa !2603
  %74 = icmp eq i8 %73, 1, !dbg !2832
  br i1 %74, label %75, label %88, !dbg !2833

75:                                               ; preds = %21, %45, %13, %17, %71
  %76 = getelementptr inbounds %"struct.Classification::Wordwise::Insn", %"struct.Classification::Wordwise::Insn"* %0, i64 0, i32 3, i32 0, !dbg !2834
  %77 = load i32, i32* %76, align 4, !dbg !2834, !tbaa !2618
  %78 = tail call i32 @llvm.ctpop.i32(i32 %77), !dbg !2835, !range !2836
  %79 = icmp ult i32 %78, 2, !dbg !2835
  %80 = icmp eq i32 %77, %5, !dbg !2837
  %81 = and i1 %80, %79, !dbg !2838
  br i1 %81, label %82, label %88, !dbg !2838

82:                                               ; preds = %75
  %83 = getelementptr inbounds %"struct.Classification::Wordwise::Insn", %"struct.Classification::Wordwise::Insn"* %0, i64 0, i32 4, i32 0, !dbg !2839
  %84 = load i32, i32* %83, align 4, !dbg !2839, !tbaa !2618
  %85 = getelementptr inbounds %"struct.Classification::Wordwise::Insn", %"struct.Classification::Wordwise::Insn"* %1, i64 0, i32 4, i32 0, !dbg !2840
  %86 = load i32, i32* %85, align 4, !dbg !2840, !tbaa !2618
  %87 = icmp ne i32 %84, %86, !dbg !2841
  br label %88

88:                                               ; preds = %68, %75, %82, %71, %7, %3
  %89 = phi i1 [ true, %3 ], [ false, %7 ], [ false, %71 ], [ false, %75 ], [ %87, %82 ], [ false, %68 ], !dbg !2769
  ret i1 %89, !dbg !2842
}

; Function Attrs: norecurse nounwind readonly sspstrong uwtable
define dso_local zeroext i1 @_ZNK14Classification8Wordwise4Insn11implies_notERKS1_j(%"struct.Classification::Wordwise::Insn"* nocapture readonly %0, %"struct.Classification::Wordwise::Insn"* nocapture readonly dereferenceable(20) %1, i32 %2) local_unnamed_addr #0 align 2 !dbg !2843 {
  call void @llvm.dbg.value(metadata %"struct.Classification::Wordwise::Insn"* %0, metadata !2845, metadata !DIExpression()), !dbg !2849
  call void @llvm.dbg.value(metadata %"struct.Classification::Wordwise::Insn"* %1, metadata !2846, metadata !DIExpression()), !dbg !2849
  call void @llvm.dbg.value(metadata i32 %2, metadata !2847, metadata !DIExpression()), !dbg !2849
  %4 = getelementptr inbounds %"struct.Classification::Wordwise::Insn", %"struct.Classification::Wordwise::Insn"* %1, i64 0, i32 3, i32 0, !dbg !2850
  %5 = load i32, i32* %4, align 4, !dbg !2850, !tbaa !2618
  %6 = icmp eq i32 %5, 0, !dbg !2852
  br i1 %6, label %87, label %7, !dbg !2853

7:                                                ; preds = %3
  %8 = getelementptr inbounds %"struct.Classification::Wordwise::Insn", %"struct.Classification::Wordwise::Insn"* %1, i64 0, i32 0, !dbg !2854
  %9 = load i16, i16* %8, align 4, !dbg !2854, !tbaa !2626
  %10 = getelementptr inbounds %"struct.Classification::Wordwise::Insn", %"struct.Classification::Wordwise::Insn"* %0, i64 0, i32 0, !dbg !2855
  %11 = load i16, i16* %10, align 4, !dbg !2855, !tbaa !2626
  %12 = icmp eq i16 %9, %11, !dbg !2856
  br i1 %12, label %13, label %87, !dbg !2857

13:                                               ; preds = %7
  call void @llvm.dbg.value(metadata %"struct.Classification::Wordwise::Insn"* %0, metadata !2692, metadata !DIExpression()), !dbg !2858
  call void @llvm.dbg.value(metadata i1 true, metadata !2695, metadata !DIExpression()), !dbg !2858
  call void @llvm.dbg.value(metadata %"struct.Classification::Wordwise::Insn"* %1, metadata !2696, metadata !DIExpression()), !dbg !2858
  call void @llvm.dbg.value(metadata i1 false, metadata !2697, metadata !DIExpression()), !dbg !2858
  call void @llvm.dbg.value(metadata i32 %2, metadata !2698, metadata !DIExpression()), !dbg !2858
  %14 = getelementptr inbounds %"struct.Classification::Wordwise::Insn", %"struct.Classification::Wordwise::Insn"* %0, i64 0, i32 2, !dbg !2860
  %15 = load i8, i8* %14, align 1, !dbg !2860, !tbaa !2603
  %16 = icmp eq i8 %15, 1, !dbg !2861
  br i1 %16, label %17, label %75, !dbg !2862

17:                                               ; preds = %13
  %18 = zext i16 %9 to i32, !dbg !2863
  %19 = add nuw nsw i32 %18, 4, !dbg !2864
  %20 = icmp sgt i32 %19, %2, !dbg !2865
  br i1 %20, label %21, label %75, !dbg !2866

21:                                               ; preds = %17
  call void @llvm.dbg.value(metadata %"struct.Classification::Wordwise::Insn"* %0, metadata !2594, metadata !DIExpression()), !dbg !2867
  call void @llvm.dbg.value(metadata i1 true, metadata !2595, metadata !DIExpression()), !dbg !2867
  call void @llvm.dbg.value(metadata %"struct.Classification::Wordwise::Insn"* %1, metadata !2596, metadata !DIExpression()), !dbg !2867
  call void @llvm.dbg.value(metadata i1 false, metadata !2597, metadata !DIExpression()), !dbg !2867
  call void @llvm.dbg.value(metadata i32 %2, metadata !2598, metadata !DIExpression()), !dbg !2867
  call void @llvm.dbg.value(metadata %"struct.Classification::Wordwise::Insn"* %0, metadata !2610, metadata !DIExpression()), !dbg !2869
  %22 = getelementptr inbounds %"struct.Classification::Wordwise::Insn", %"struct.Classification::Wordwise::Insn"* %0, i64 0, i32 3, !dbg !2871
  %23 = getelementptr %union.anon, %union.anon* %22, i64 0, i32 0, !dbg !2872
  %24 = load i32, i32* %23, align 4, !dbg !2872, !tbaa !2618
  %25 = icmp eq i32 %24, 0, !dbg !2873
  br i1 %25, label %75, label %26, !dbg !2874

26:                                               ; preds = %21
  %27 = bitcast %union.anon* %22 to [4 x i8]*, !dbg !2875
  %28 = getelementptr inbounds [4 x i8], [4 x i8]* %27, i64 0, i64 3, !dbg !2876
  %29 = load i8, i8* %28, align 1, !dbg !2876, !tbaa !2618
  %30 = icmp eq i8 %29, 0, !dbg !2876
  br i1 %30, label %31, label %45, !dbg !2877

31:                                               ; preds = %26
  %32 = getelementptr inbounds [4 x i8], [4 x i8]* %27, i64 0, i64 2, !dbg !2878
  %33 = load i8, i8* %32, align 2, !dbg !2878, !tbaa !2618
  %34 = icmp eq i8 %33, 0, !dbg !2878
  br i1 %34, label %37, label %35, !dbg !2879

35:                                               ; preds = %31
  %36 = add nuw nsw i32 %18, 3, !dbg !2880
  br label %45, !dbg !2881

37:                                               ; preds = %31
  %38 = getelementptr inbounds [4 x i8], [4 x i8]* %27, i64 0, i64 1, !dbg !2882
  %39 = load i8, i8* %38, align 1, !dbg !2882, !tbaa !2618
  %40 = icmp eq i8 %39, 0, !dbg !2882
  br i1 %40, label %43, label %41, !dbg !2883

41:                                               ; preds = %37
  %42 = add nuw nsw i32 %18, 2, !dbg !2884
  br label %45, !dbg !2885

43:                                               ; preds = %37
  %44 = add nuw nsw i32 %18, 1, !dbg !2886
  br label %45, !dbg !2887

45:                                               ; preds = %43, %41, %35, %26
  %46 = phi i32 [ %36, %35 ], [ %42, %41 ], [ %44, %43 ], [ %19, %26 ], !dbg !2888
  call void @llvm.dbg.value(metadata i32 %46, metadata !2599, metadata !DIExpression()), !dbg !2867
  %47 = icmp ugt i32 %46, %2, !dbg !2889
  br i1 %47, label %48, label %75, !dbg !2890

48:                                               ; preds = %45
  call void @llvm.dbg.value(metadata %"struct.Classification::Wordwise::Insn"* %1, metadata !2610, metadata !DIExpression()), !dbg !2891
  %49 = getelementptr inbounds %"struct.Classification::Wordwise::Insn", %"struct.Classification::Wordwise::Insn"* %1, i64 0, i32 3, !dbg !2893
  %50 = bitcast %union.anon* %49 to [4 x i8]*, !dbg !2894
  %51 = getelementptr inbounds [4 x i8], [4 x i8]* %50, i64 0, i64 3, !dbg !2895
  %52 = load i8, i8* %51, align 1, !dbg !2895, !tbaa !2618
  %53 = icmp eq i8 %52, 0, !dbg !2895
  br i1 %53, label %54, label %68, !dbg !2896

54:                                               ; preds = %48
  %55 = getelementptr inbounds [4 x i8], [4 x i8]* %50, i64 0, i64 2, !dbg !2897
  %56 = load i8, i8* %55, align 2, !dbg !2897, !tbaa !2618
  %57 = icmp eq i8 %56, 0, !dbg !2897
  br i1 %57, label %60, label %58, !dbg !2898

58:                                               ; preds = %54
  %59 = add nuw nsw i32 %18, 3, !dbg !2899
  br label %68, !dbg !2900

60:                                               ; preds = %54
  %61 = getelementptr inbounds [4 x i8], [4 x i8]* %50, i64 0, i64 1, !dbg !2901
  %62 = load i8, i8* %61, align 1, !dbg !2901, !tbaa !2618
  %63 = icmp eq i8 %62, 0, !dbg !2901
  br i1 %63, label %66, label %64, !dbg !2902

64:                                               ; preds = %60
  %65 = add nuw nsw i32 %18, 2, !dbg !2903
  br label %68, !dbg !2904

66:                                               ; preds = %60
  %67 = add nuw nsw i32 %18, 1, !dbg !2905
  br label %68, !dbg !2906

68:                                               ; preds = %48, %66, %64, %58
  %69 = phi i32 [ %59, %58 ], [ %65, %64 ], [ %67, %66 ], [ %19, %48 ], !dbg !2907
  %70 = icmp ugt i32 %46, %69, !dbg !2908
  br i1 %70, label %87, label %71, !dbg !2909

71:                                               ; preds = %68
  %72 = getelementptr inbounds %"struct.Classification::Wordwise::Insn", %"struct.Classification::Wordwise::Insn"* %1, i64 0, i32 2, !dbg !2910
  %73 = load i8, i8* %72, align 1, !dbg !2910, !tbaa !2603
  %74 = icmp eq i8 %73, 0, !dbg !2911
  br i1 %74, label %75, label %87, !dbg !2912

75:                                               ; preds = %21, %45, %13, %17, %71
  %76 = getelementptr inbounds %"struct.Classification::Wordwise::Insn", %"struct.Classification::Wordwise::Insn"* %0, i64 0, i32 3, i32 0, !dbg !2913
  %77 = load i32, i32* %76, align 4, !dbg !2913, !tbaa !2618
  %78 = and i32 %77, %5, !dbg !2914
  call void @llvm.dbg.value(metadata i32 %78, metadata !2848, metadata !DIExpression()), !dbg !2849
  %79 = icmp eq i32 %78, %5, !dbg !2915
  br i1 %79, label %80, label %87, !dbg !2916

80:                                               ; preds = %75
  %81 = getelementptr inbounds %"struct.Classification::Wordwise::Insn", %"struct.Classification::Wordwise::Insn"* %0, i64 0, i32 4, i32 0, !dbg !2917
  %82 = load i32, i32* %81, align 4, !dbg !2917, !tbaa !2618
  %83 = and i32 %82, %5, !dbg !2918
  %84 = getelementptr inbounds %"struct.Classification::Wordwise::Insn", %"struct.Classification::Wordwise::Insn"* %1, i64 0, i32 4, i32 0, !dbg !2919
  %85 = load i32, i32* %84, align 4, !dbg !2919, !tbaa !2618
  %86 = icmp ne i32 %83, %85, !dbg !2920
  br label %87

87:                                               ; preds = %68, %75, %80, %71, %3, %7
  %88 = phi i1 [ false, %7 ], [ false, %3 ], [ false, %71 ], [ false, %75 ], [ %86, %80 ], [ false, %68 ], !dbg !2849
  ret i1 %88, !dbg !2921
}

; Function Attrs: norecurse nounwind readonly sspstrong uwtable
define dso_local zeroext i1 @_ZNK14Classification8Wordwise4Insn15not_implies_notERKS1_j(%"struct.Classification::Wordwise::Insn"* nocapture readonly %0, %"struct.Classification::Wordwise::Insn"* nocapture readonly dereferenceable(20) %1, i32 %2) local_unnamed_addr #0 align 2 !dbg !2922 {
  call void @llvm.dbg.value(metadata %"struct.Classification::Wordwise::Insn"* %0, metadata !2924, metadata !DIExpression()), !dbg !2928
  call void @llvm.dbg.value(metadata %"struct.Classification::Wordwise::Insn"* %1, metadata !2925, metadata !DIExpression()), !dbg !2928
  call void @llvm.dbg.value(metadata i32 %2, metadata !2926, metadata !DIExpression()), !dbg !2928
  %4 = getelementptr inbounds %"struct.Classification::Wordwise::Insn", %"struct.Classification::Wordwise::Insn"* %0, i64 0, i32 3, i32 0, !dbg !2929
  %5 = load i32, i32* %4, align 4, !dbg !2929, !tbaa !2618
  %6 = icmp eq i32 %5, 0, !dbg !2931
  br i1 %6, label %87, label %7, !dbg !2932

7:                                                ; preds = %3
  %8 = getelementptr inbounds %"struct.Classification::Wordwise::Insn", %"struct.Classification::Wordwise::Insn"* %1, i64 0, i32 0, !dbg !2933
  %9 = load i16, i16* %8, align 4, !dbg !2933, !tbaa !2626
  %10 = getelementptr inbounds %"struct.Classification::Wordwise::Insn", %"struct.Classification::Wordwise::Insn"* %0, i64 0, i32 0, !dbg !2935
  %11 = load i16, i16* %10, align 4, !dbg !2935, !tbaa !2626
  %12 = icmp eq i16 %9, %11, !dbg !2936
  br i1 %12, label %13, label %87, !dbg !2937

13:                                               ; preds = %7
  call void @llvm.dbg.value(metadata %"struct.Classification::Wordwise::Insn"* %0, metadata !2692, metadata !DIExpression()), !dbg !2938
  call void @llvm.dbg.value(metadata i1 false, metadata !2695, metadata !DIExpression()), !dbg !2938
  call void @llvm.dbg.value(metadata %"struct.Classification::Wordwise::Insn"* %1, metadata !2696, metadata !DIExpression()), !dbg !2938
  call void @llvm.dbg.value(metadata i1 false, metadata !2697, metadata !DIExpression()), !dbg !2938
  call void @llvm.dbg.value(metadata i32 %2, metadata !2698, metadata !DIExpression()), !dbg !2938
  %14 = getelementptr inbounds %"struct.Classification::Wordwise::Insn", %"struct.Classification::Wordwise::Insn"* %0, i64 0, i32 2, !dbg !2940
  %15 = load i8, i8* %14, align 1, !dbg !2940, !tbaa !2603
  %16 = icmp eq i8 %15, 0, !dbg !2941
  br i1 %16, label %17, label %75, !dbg !2942

17:                                               ; preds = %13
  %18 = zext i16 %9 to i32, !dbg !2943
  %19 = add nuw nsw i32 %18, 4, !dbg !2944
  %20 = icmp sgt i32 %19, %2, !dbg !2945
  br i1 %20, label %21, label %75, !dbg !2946

21:                                               ; preds = %17
  call void @llvm.dbg.value(metadata %"struct.Classification::Wordwise::Insn"* %0, metadata !2594, metadata !DIExpression()), !dbg !2947
  call void @llvm.dbg.value(metadata i1 false, metadata !2595, metadata !DIExpression()), !dbg !2947
  call void @llvm.dbg.value(metadata %"struct.Classification::Wordwise::Insn"* %1, metadata !2596, metadata !DIExpression()), !dbg !2947
  call void @llvm.dbg.value(metadata i1 false, metadata !2597, metadata !DIExpression()), !dbg !2947
  call void @llvm.dbg.value(metadata i32 %2, metadata !2598, metadata !DIExpression()), !dbg !2947
  call void @llvm.dbg.value(metadata %"struct.Classification::Wordwise::Insn"* %0, metadata !2610, metadata !DIExpression()), !dbg !2949
  %22 = getelementptr inbounds %"struct.Classification::Wordwise::Insn", %"struct.Classification::Wordwise::Insn"* %0, i64 0, i32 3, !dbg !2951
  %23 = bitcast %union.anon* %22 to [4 x i8]*, !dbg !2952
  %24 = getelementptr inbounds [4 x i8], [4 x i8]* %23, i64 0, i64 3, !dbg !2953
  %25 = load i8, i8* %24, align 1, !dbg !2953, !tbaa !2618
  %26 = icmp eq i8 %25, 0, !dbg !2953
  br i1 %26, label %27, label %41, !dbg !2954

27:                                               ; preds = %21
  %28 = getelementptr inbounds [4 x i8], [4 x i8]* %23, i64 0, i64 2, !dbg !2955
  %29 = load i8, i8* %28, align 2, !dbg !2955, !tbaa !2618
  %30 = icmp eq i8 %29, 0, !dbg !2955
  br i1 %30, label %33, label %31, !dbg !2956

31:                                               ; preds = %27
  %32 = add nuw nsw i32 %18, 3, !dbg !2957
  br label %41, !dbg !2958

33:                                               ; preds = %27
  %34 = getelementptr inbounds [4 x i8], [4 x i8]* %23, i64 0, i64 1, !dbg !2959
  %35 = load i8, i8* %34, align 1, !dbg !2959, !tbaa !2618
  %36 = icmp eq i8 %35, 0, !dbg !2959
  br i1 %36, label %39, label %37, !dbg !2960

37:                                               ; preds = %33
  %38 = add nuw nsw i32 %18, 2, !dbg !2961
  br label %41, !dbg !2962

39:                                               ; preds = %33
  %40 = add nuw nsw i32 %18, 1, !dbg !2963
  br label %41, !dbg !2964

41:                                               ; preds = %39, %37, %31, %21
  %42 = phi i32 [ %32, %31 ], [ %38, %37 ], [ %40, %39 ], [ %19, %21 ], !dbg !2965
  call void @llvm.dbg.value(metadata i32 %42, metadata !2599, metadata !DIExpression()), !dbg !2947
  %43 = icmp ugt i32 %42, %2, !dbg !2966
  br i1 %43, label %44, label %75, !dbg !2967

44:                                               ; preds = %41
  call void @llvm.dbg.value(metadata %"struct.Classification::Wordwise::Insn"* %1, metadata !2610, metadata !DIExpression()), !dbg !2968
  %45 = getelementptr inbounds %"struct.Classification::Wordwise::Insn", %"struct.Classification::Wordwise::Insn"* %1, i64 0, i32 3, !dbg !2970
  %46 = getelementptr %union.anon, %union.anon* %45, i64 0, i32 0, !dbg !2971
  %47 = load i32, i32* %46, align 4, !dbg !2971, !tbaa !2618
  %48 = icmp eq i32 %47, 0, !dbg !2972
  br i1 %48, label %68, label %49, !dbg !2973

49:                                               ; preds = %44
  %50 = bitcast %union.anon* %45 to [4 x i8]*, !dbg !2974
  %51 = getelementptr inbounds [4 x i8], [4 x i8]* %50, i64 0, i64 3, !dbg !2975
  %52 = load i8, i8* %51, align 1, !dbg !2975, !tbaa !2618
  %53 = icmp eq i8 %52, 0, !dbg !2975
  br i1 %53, label %54, label %68, !dbg !2976

54:                                               ; preds = %49
  %55 = getelementptr inbounds [4 x i8], [4 x i8]* %50, i64 0, i64 2, !dbg !2977
  %56 = load i8, i8* %55, align 2, !dbg !2977, !tbaa !2618
  %57 = icmp eq i8 %56, 0, !dbg !2977
  br i1 %57, label %60, label %58, !dbg !2978

58:                                               ; preds = %54
  %59 = add nuw nsw i32 %18, 3, !dbg !2979
  br label %68, !dbg !2980

60:                                               ; preds = %54
  %61 = getelementptr inbounds [4 x i8], [4 x i8]* %50, i64 0, i64 1, !dbg !2981
  %62 = load i8, i8* %61, align 1, !dbg !2981, !tbaa !2618
  %63 = icmp eq i8 %62, 0, !dbg !2981
  br i1 %63, label %66, label %64, !dbg !2982

64:                                               ; preds = %60
  %65 = add nuw nsw i32 %18, 2, !dbg !2983
  br label %68, !dbg !2984

66:                                               ; preds = %60
  %67 = add nuw nsw i32 %18, 1, !dbg !2985
  br label %68, !dbg !2986

68:                                               ; preds = %49, %66, %64, %58, %44
  %69 = phi i32 [ %59, %58 ], [ %65, %64 ], [ %67, %66 ], [ 0, %44 ], [ %19, %49 ], !dbg !2987
  %70 = icmp ugt i32 %42, %69, !dbg !2988
  br i1 %70, label %87, label %71, !dbg !2989

71:                                               ; preds = %68
  %72 = getelementptr inbounds %"struct.Classification::Wordwise::Insn", %"struct.Classification::Wordwise::Insn"* %1, i64 0, i32 2, !dbg !2990
  %73 = load i8, i8* %72, align 1, !dbg !2990, !tbaa !2603
  %74 = icmp eq i8 %73, 0, !dbg !2991
  br i1 %74, label %75, label %87, !dbg !2992

75:                                               ; preds = %41, %13, %17, %71
  %76 = getelementptr inbounds %"struct.Classification::Wordwise::Insn", %"struct.Classification::Wordwise::Insn"* %1, i64 0, i32 3, i32 0, !dbg !2993
  %77 = load i32, i32* %76, align 4, !dbg !2993, !tbaa !2618
  %78 = and i32 %77, %5, !dbg !2994
  call void @llvm.dbg.value(metadata i32 %78, metadata !2927, metadata !DIExpression()), !dbg !2928
  %79 = icmp eq i32 %78, %5, !dbg !2995
  br i1 %79, label %80, label %87, !dbg !2996

80:                                               ; preds = %75
  %81 = getelementptr inbounds %"struct.Classification::Wordwise::Insn", %"struct.Classification::Wordwise::Insn"* %0, i64 0, i32 4, i32 0, !dbg !2997
  %82 = load i32, i32* %81, align 4, !dbg !2997, !tbaa !2618
  %83 = getelementptr inbounds %"struct.Classification::Wordwise::Insn", %"struct.Classification::Wordwise::Insn"* %1, i64 0, i32 4, i32 0, !dbg !2998
  %84 = load i32, i32* %83, align 4, !dbg !2998, !tbaa !2618
  %85 = and i32 %84, %5, !dbg !2999
  %86 = icmp eq i32 %82, %85, !dbg !3000
  br label %87

87:                                               ; preds = %68, %75, %80, %71, %7, %3
  %88 = phi i1 [ true, %3 ], [ false, %7 ], [ false, %71 ], [ false, %75 ], [ %86, %80 ], [ false, %68 ], !dbg !2928
  ret i1 %88, !dbg !3001
}

; Function Attrs: norecurse nounwind readonly sspstrong uwtable
define dso_local zeroext i1 @_ZNK14Classification8Wordwise4Insn10compatibleERKS1_b(%"struct.Classification::Wordwise::Insn"* nocapture readonly %0, %"struct.Classification::Wordwise::Insn"* nocapture readonly dereferenceable(20) %1, i1 zeroext %2) local_unnamed_addr #0 align 2 !dbg !3002 {
  call void @llvm.dbg.value(metadata %"struct.Classification::Wordwise::Insn"* %0, metadata !3004, metadata !DIExpression()), !dbg !3008
  call void @llvm.dbg.value(metadata %"struct.Classification::Wordwise::Insn"* %1, metadata !3005, metadata !DIExpression()), !dbg !3008
  call void @llvm.dbg.value(metadata i1 %2, metadata !3006, metadata !DIExpression()), !dbg !3008
  %4 = getelementptr inbounds %"struct.Classification::Wordwise::Insn", %"struct.Classification::Wordwise::Insn"* %0, i64 0, i32 3, i32 0, !dbg !3009
  %5 = load i32, i32* %4, align 4, !dbg !3009, !tbaa !2618
  %6 = icmp eq i32 %5, 0, !dbg !3011
  br i1 %6, label %87, label %7, !dbg !3012

7:                                                ; preds = %3
  %8 = getelementptr inbounds %"struct.Classification::Wordwise::Insn", %"struct.Classification::Wordwise::Insn"* %1, i64 0, i32 3, i32 0, !dbg !3013
  %9 = load i32, i32* %8, align 4, !dbg !3013, !tbaa !2618
  %10 = icmp eq i32 %9, 0, !dbg !3014
  br i1 %10, label %87, label %11, !dbg !3015

11:                                               ; preds = %7
  %12 = getelementptr inbounds %"struct.Classification::Wordwise::Insn", %"struct.Classification::Wordwise::Insn"* %1, i64 0, i32 0, !dbg !3016
  %13 = load i16, i16* %12, align 4, !dbg !3016, !tbaa !2626
  %14 = getelementptr inbounds %"struct.Classification::Wordwise::Insn", %"struct.Classification::Wordwise::Insn"* %0, i64 0, i32 0, !dbg !3018
  %15 = load i16, i16* %14, align 4, !dbg !3018, !tbaa !2626
  %16 = icmp eq i16 %13, %15, !dbg !3019
  br i1 %16, label %17, label %87, !dbg !3020

17:                                               ; preds = %11
  br i1 %2, label %18, label %78, !dbg !3021

18:                                               ; preds = %17
  %19 = getelementptr inbounds %"struct.Classification::Wordwise::Insn", %"struct.Classification::Wordwise::Insn"* %1, i64 0, i32 2, !dbg !3022
  %20 = load i8, i8* %19, align 1, !dbg !3022, !tbaa !2603
  %21 = getelementptr inbounds %"struct.Classification::Wordwise::Insn", %"struct.Classification::Wordwise::Insn"* %0, i64 0, i32 2, !dbg !3023
  %22 = load i8, i8* %21, align 1, !dbg !3023, !tbaa !2603
  %23 = icmp eq i8 %20, %22, !dbg !3024
  br i1 %23, label %78, label %24, !dbg !3025

24:                                               ; preds = %18
  call void @llvm.dbg.value(metadata %"struct.Classification::Wordwise::Insn"* %0, metadata !2610, metadata !DIExpression()), !dbg !3026
  %25 = getelementptr inbounds %"struct.Classification::Wordwise::Insn", %"struct.Classification::Wordwise::Insn"* %0, i64 0, i32 3, !dbg !3028
  %26 = bitcast %union.anon* %25 to [4 x i8]*, !dbg !3029
  %27 = getelementptr inbounds [4 x i8], [4 x i8]* %26, i64 0, i64 3, !dbg !3030
  %28 = load i8, i8* %27, align 1, !dbg !3030, !tbaa !2618
  %29 = icmp eq i8 %28, 0, !dbg !3030
  br i1 %29, label %33, label %30, !dbg !3031

30:                                               ; preds = %24
  %31 = zext i16 %13 to i32, !dbg !3032
  %32 = add nuw nsw i32 %31, 4, !dbg !3033
  br label %49, !dbg !3034

33:                                               ; preds = %24
  %34 = getelementptr inbounds [4 x i8], [4 x i8]* %26, i64 0, i64 2, !dbg !3035
  %35 = load i8, i8* %34, align 2, !dbg !3035, !tbaa !2618
  %36 = icmp eq i8 %35, 0, !dbg !3035
  br i1 %36, label %40, label %37, !dbg !3036

37:                                               ; preds = %33
  %38 = zext i16 %13 to i32, !dbg !3037
  %39 = add nuw nsw i32 %38, 3, !dbg !3038
  br label %49, !dbg !3039

40:                                               ; preds = %33
  %41 = getelementptr inbounds [4 x i8], [4 x i8]* %26, i64 0, i64 1, !dbg !3040
  %42 = load i8, i8* %41, align 1, !dbg !3040, !tbaa !2618
  %43 = icmp eq i8 %42, 0, !dbg !3040
  %44 = zext i16 %13 to i32, !dbg !3041
  br i1 %43, label %47, label %45, !dbg !3042

45:                                               ; preds = %40
  %46 = add nuw nsw i32 %44, 2, !dbg !3043
  br label %49, !dbg !3044

47:                                               ; preds = %40
  %48 = add nuw nsw i32 %44, 1, !dbg !3045
  br label %49, !dbg !3046

49:                                               ; preds = %47, %45, %37, %30
  %50 = phi i32 [ %32, %30 ], [ %39, %37 ], [ %46, %45 ], [ %48, %47 ], !dbg !3047
  call void @llvm.dbg.value(metadata %"struct.Classification::Wordwise::Insn"* %1, metadata !2610, metadata !DIExpression()), !dbg !3048
  %51 = getelementptr inbounds %"struct.Classification::Wordwise::Insn", %"struct.Classification::Wordwise::Insn"* %1, i64 0, i32 3, !dbg !3050
  %52 = bitcast %union.anon* %51 to [4 x i8]*, !dbg !3051
  %53 = getelementptr inbounds [4 x i8], [4 x i8]* %52, i64 0, i64 3, !dbg !3052
  %54 = load i8, i8* %53, align 1, !dbg !3052, !tbaa !2618
  %55 = icmp eq i8 %54, 0, !dbg !3052
  br i1 %55, label %59, label %56, !dbg !3053

56:                                               ; preds = %49
  %57 = zext i16 %13 to i32, !dbg !3054
  %58 = add nuw nsw i32 %57, 4, !dbg !3055
  br label %75, !dbg !3056

59:                                               ; preds = %49
  %60 = getelementptr inbounds [4 x i8], [4 x i8]* %52, i64 0, i64 2, !dbg !3057
  %61 = load i8, i8* %60, align 2, !dbg !3057, !tbaa !2618
  %62 = icmp eq i8 %61, 0, !dbg !3057
  br i1 %62, label %66, label %63, !dbg !3058

63:                                               ; preds = %59
  %64 = zext i16 %13 to i32, !dbg !3059
  %65 = add nuw nsw i32 %64, 3, !dbg !3060
  br label %75, !dbg !3061

66:                                               ; preds = %59
  %67 = getelementptr inbounds [4 x i8], [4 x i8]* %52, i64 0, i64 1, !dbg !3062
  %68 = load i8, i8* %67, align 1, !dbg !3062, !tbaa !2618
  %69 = icmp eq i8 %68, 0, !dbg !3062
  %70 = zext i16 %13 to i32, !dbg !3063
  br i1 %69, label %73, label %71, !dbg !3064

71:                                               ; preds = %66
  %72 = add nuw nsw i32 %70, 2, !dbg !3065
  br label %75, !dbg !3066

73:                                               ; preds = %66
  %74 = add nuw nsw i32 %70, 1, !dbg !3067
  br label %75, !dbg !3068

75:                                               ; preds = %56, %63, %71, %73
  %76 = phi i32 [ %58, %56 ], [ %65, %63 ], [ %72, %71 ], [ %74, %73 ], !dbg !3069
  %77 = icmp ult i32 %50, %76, !dbg !3070
  br i1 %77, label %87, label %78, !dbg !3071

78:                                               ; preds = %18, %75, %17
  %79 = and i32 %9, %5, !dbg !3072
  call void @llvm.dbg.value(metadata i32 %79, metadata !3007, metadata !DIExpression()), !dbg !3008
  %80 = getelementptr inbounds %"struct.Classification::Wordwise::Insn", %"struct.Classification::Wordwise::Insn"* %0, i64 0, i32 4, i32 0, !dbg !3073
  %81 = load i32, i32* %80, align 4, !dbg !3073, !tbaa !2618
  %82 = getelementptr inbounds %"struct.Classification::Wordwise::Insn", %"struct.Classification::Wordwise::Insn"* %1, i64 0, i32 4, i32 0, !dbg !3074
  %83 = load i32, i32* %82, align 4, !dbg !3074, !tbaa !2618
  %84 = xor i32 %83, %81, !dbg !3075
  %85 = and i32 %79, %84, !dbg !3075
  %86 = icmp eq i32 %85, 0, !dbg !3075
  br label %87

87:                                               ; preds = %75, %11, %3, %7, %78
  %88 = phi i1 [ %86, %78 ], [ true, %7 ], [ true, %3 ], [ false, %11 ], [ false, %75 ], !dbg !3008
  ret i1 %88, !dbg !3076
}

; Function Attrs: nounwind readonly sspstrong uwtable
define dso_local zeroext i1 @_ZNK14Classification8Wordwise4Insn21generalizable_or_pairERKS1_(%"struct.Classification::Wordwise::Insn"* nocapture readonly %0, %"struct.Classification::Wordwise::Insn"* nocapture readonly dereferenceable(20) %1) local_unnamed_addr #3 align 2 !dbg !3077 {
  call void @llvm.dbg.value(metadata %"struct.Classification::Wordwise::Insn"* %0, metadata !3079, metadata !DIExpression()), !dbg !3085
  call void @llvm.dbg.value(metadata %"struct.Classification::Wordwise::Insn"* %1, metadata !3080, metadata !DIExpression()), !dbg !3085
  %3 = getelementptr inbounds %"struct.Classification::Wordwise::Insn", %"struct.Classification::Wordwise::Insn"* %0, i64 0, i32 4, i32 0, !dbg !3086
  %4 = load i32, i32* %3, align 4, !dbg !3086, !tbaa !2618
  %5 = getelementptr inbounds %"struct.Classification::Wordwise::Insn", %"struct.Classification::Wordwise::Insn"* %1, i64 0, i32 4, i32 0, !dbg !3087
  %6 = load i32, i32* %5, align 4, !dbg !3087, !tbaa !2618
  %7 = xor i32 %6, %4, !dbg !3088
  call void @llvm.dbg.value(metadata i32 %7, metadata !3081, metadata !DIExpression()), !dbg !3085
  %8 = getelementptr inbounds %"struct.Classification::Wordwise::Insn", %"struct.Classification::Wordwise::Insn"* %0, i64 0, i32 0, !dbg !3089
  %9 = load i16, i16* %8, align 4, !dbg !3089, !tbaa !2626
  %10 = icmp eq i16 %9, 0, !dbg !3089
  br i1 %10, label %92, label %11, !dbg !3090

11:                                               ; preds = %2
  %12 = getelementptr inbounds %"struct.Classification::Wordwise::Insn", %"struct.Classification::Wordwise::Insn"* %1, i64 0, i32 0, !dbg !3091
  %13 = load i16, i16* %12, align 4, !dbg !3091, !tbaa !2626
  %14 = icmp eq i16 %13, %9, !dbg !3092
  br i1 %14, label %15, label %92, !dbg !3093

15:                                               ; preds = %11
  %16 = getelementptr inbounds %"struct.Classification::Wordwise::Insn", %"struct.Classification::Wordwise::Insn"* %0, i64 0, i32 3, i32 0, !dbg !3094
  %17 = load i32, i32* %16, align 4, !dbg !3094, !tbaa !2618
  %18 = icmp eq i32 %17, 0, !dbg !3095
  br i1 %18, label %92, label %19, !dbg !3096

19:                                               ; preds = %15
  %20 = getelementptr inbounds %"struct.Classification::Wordwise::Insn", %"struct.Classification::Wordwise::Insn"* %1, i64 0, i32 3, i32 0, !dbg !3097
  %21 = load i32, i32* %20, align 4, !dbg !3097, !tbaa !2618
  %22 = icmp eq i32 %21, %17, !dbg !3098
  br i1 %22, label %23, label %92, !dbg !3099

23:                                               ; preds = %19
  %24 = getelementptr inbounds %"struct.Classification::Wordwise::Insn", %"struct.Classification::Wordwise::Insn"* %0, i64 0, i32 2, !dbg !3100
  %25 = load i8, i8* %24, align 1, !dbg !3100, !tbaa !2603
  %26 = icmp eq i8 %25, 0, !dbg !3100
  br i1 %26, label %27, label %31, !dbg !3101

27:                                               ; preds = %23
  %28 = getelementptr inbounds %"struct.Classification::Wordwise::Insn", %"struct.Classification::Wordwise::Insn"* %1, i64 0, i32 2, !dbg !3102
  %29 = load i8, i8* %28, align 1, !dbg !3102, !tbaa !2603
  %30 = icmp eq i8 %29, 0, !dbg !3103
  br i1 %30, label %31, label %92, !dbg !3104

31:                                               ; preds = %27, %23
  call void @llvm.dbg.value(metadata %"struct.Classification::Wordwise::Insn"* %0, metadata !3105, metadata !DIExpression()), !dbg !3108
  %32 = getelementptr inbounds %"struct.Classification::Wordwise::Insn", %"struct.Classification::Wordwise::Insn"* %0, i64 0, i32 5, i64 1, !dbg !3110
  %33 = load i32, i32* %32, align 4, !dbg !3110, !tbaa !3111
  call void @llvm.dbg.value(metadata %"struct.Classification::Wordwise::Insn"* %1, metadata !3105, metadata !DIExpression()), !dbg !3113
  %34 = getelementptr inbounds %"struct.Classification::Wordwise::Insn", %"struct.Classification::Wordwise::Insn"* %1, i64 0, i32 5, i64 1, !dbg !3115
  %35 = load i32, i32* %34, align 4, !dbg !3115, !tbaa !3111
  %36 = icmp eq i32 %33, %35, !dbg !3116
  %37 = tail call i32 @llvm.ctpop.i32(i32 %7), !dbg !3117, !range !2836
  %38 = icmp ult i32 %37, 2, !dbg !3117
  %39 = and i1 %38, %36, !dbg !3118
  br i1 %39, label %40, label %92, !dbg !3118

40:                                               ; preds = %31
  %41 = xor i32 %7, -1, !dbg !3119
  %42 = and i32 %17, %41, !dbg !3120
  call void @llvm.dbg.value(metadata i16 %9, metadata !3082, metadata !DIExpression(DW_OP_LLVM_fragment, 0, 16)), !dbg !3121
  call void @llvm.dbg.value(metadata i8 0, metadata !3082, metadata !DIExpression(DW_OP_LLVM_fragment, 16, 8)), !dbg !3121
  call void @llvm.dbg.value(metadata i8 0, metadata !3082, metadata !DIExpression(DW_OP_LLVM_fragment, 24, 8)), !dbg !3121
  call void @llvm.dbg.value(metadata i32 %42, metadata !3082, metadata !DIExpression(DW_OP_LLVM_convert, 32, DW_ATE_unsigned, DW_OP_LLVM_convert, 8, DW_ATE_unsigned, DW_OP_stack_value, DW_OP_LLVM_fragment, 32, 8)), !dbg !3121
  call void @llvm.dbg.value(metadata i32 %42, metadata !3082, metadata !DIExpression(DW_OP_constu, 8, DW_OP_shr, DW_OP_LLVM_convert, 32, DW_ATE_unsigned, DW_OP_LLVM_convert, 8, DW_ATE_unsigned, DW_OP_stack_value, DW_OP_LLVM_fragment, 40, 8)), !dbg !3121
  call void @llvm.dbg.value(metadata i32 %42, metadata !3082, metadata !DIExpression(DW_OP_constu, 16, DW_OP_shr, DW_OP_LLVM_convert, 32, DW_ATE_unsigned, DW_OP_LLVM_convert, 8, DW_ATE_unsigned, DW_OP_stack_value, DW_OP_LLVM_fragment, 48, 8)), !dbg !3121
  call void @llvm.dbg.value(metadata i32 %42, metadata !3082, metadata !DIExpression(DW_OP_constu, 24, DW_OP_shr, DW_OP_LLVM_convert, 32, DW_ATE_unsigned, DW_OP_LLVM_convert, 8, DW_ATE_unsigned, DW_OP_stack_value, DW_OP_LLVM_fragment, 56, 8)), !dbg !3121
  call void @llvm.dbg.value(metadata i32 undef, metadata !3082, metadata !DIExpression(DW_OP_LLVM_fragment, 64, 32)), !dbg !3121
  call void @llvm.dbg.value(metadata i32 -2147483646, metadata !3082, metadata !DIExpression(DW_OP_LLVM_fragment, 96, 32)), !dbg !3121
  call void @llvm.dbg.value(metadata i32 -2147483645, metadata !3082, metadata !DIExpression(DW_OP_LLVM_fragment, 128, 32)), !dbg !3121
  call void @llvm.dbg.value(metadata %"struct.Classification::Wordwise::Insn"* undef, metadata !2610, metadata !DIExpression()), !dbg !3122
  %43 = icmp eq i32 %42, 0, !dbg !3124
  br i1 %43, label %63, label %44, !dbg !3125

44:                                               ; preds = %40
  call void @llvm.dbg.value(metadata i32 %42, metadata !3082, metadata !DIExpression(DW_OP_constu, 24, DW_OP_shr, DW_OP_LLVM_convert, 32, DW_ATE_unsigned, DW_OP_LLVM_convert, 8, DW_ATE_unsigned, DW_OP_stack_value, DW_OP_LLVM_fragment, 56, 8)), !dbg !3121
  call void @llvm.dbg.value(metadata i32 %42, metadata !3082, metadata !DIExpression(DW_OP_constu, 24, DW_OP_shr, DW_OP_LLVM_convert, 32, DW_ATE_unsigned, DW_OP_LLVM_convert, 8, DW_ATE_unsigned, DW_OP_stack_value, DW_OP_LLVM_fragment, 56, 8)), !dbg !3121
  %45 = icmp ult i32 %42, 16777216, !dbg !3126
  br i1 %45, label %49, label %46, !dbg !3127

46:                                               ; preds = %44
  %47 = zext i16 %9 to i32, !dbg !3128
  %48 = add nuw nsw i32 %47, 4, !dbg !3129
  br label %63, !dbg !3130

49:                                               ; preds = %44
  %50 = and i32 %42, 16711680, !dbg !3131
  %51 = icmp eq i32 %50, 0, !dbg !3131
  br i1 %51, label %55, label %52, !dbg !3132

52:                                               ; preds = %49
  %53 = zext i16 %9 to i32, !dbg !3133
  %54 = add nuw nsw i32 %53, 3, !dbg !3134
  br label %63, !dbg !3135

55:                                               ; preds = %49
  %56 = and i32 %42, 65280, !dbg !3136
  %57 = icmp eq i32 %56, 0, !dbg !3136
  %58 = zext i16 %9 to i32, !dbg !3137
  br i1 %57, label %61, label %59, !dbg !3138

59:                                               ; preds = %55
  %60 = add nuw nsw i32 %58, 2, !dbg !3139
  br label %63, !dbg !3140

61:                                               ; preds = %55
  %62 = add nuw nsw i32 %58, 1, !dbg !3141
  br label %63, !dbg !3142

63:                                               ; preds = %61, %59, %52, %46, %40
  %64 = phi i32 [ %48, %46 ], [ %54, %52 ], [ %60, %59 ], [ %62, %61 ], [ 0, %40 ], !dbg !3143
  call void @llvm.dbg.value(metadata %"struct.Classification::Wordwise::Insn"* %0, metadata !2610, metadata !DIExpression()), !dbg !3144
  %65 = getelementptr inbounds %"struct.Classification::Wordwise::Insn", %"struct.Classification::Wordwise::Insn"* %0, i64 0, i32 3, !dbg !3146
  %66 = bitcast %union.anon* %65 to [4 x i8]*, !dbg !3147
  %67 = getelementptr inbounds [4 x i8], [4 x i8]* %66, i64 0, i64 3, !dbg !3148
  %68 = load i8, i8* %67, align 1, !dbg !3148, !tbaa !2618
  %69 = icmp eq i8 %68, 0, !dbg !3148
  br i1 %69, label %73, label %70, !dbg !3149

70:                                               ; preds = %63
  %71 = zext i16 %9 to i32, !dbg !3150
  %72 = add nuw nsw i32 %71, 4, !dbg !3151
  br label %89, !dbg !3152

73:                                               ; preds = %63
  %74 = getelementptr inbounds [4 x i8], [4 x i8]* %66, i64 0, i64 2, !dbg !3153
  %75 = load i8, i8* %74, align 2, !dbg !3153, !tbaa !2618
  %76 = icmp eq i8 %75, 0, !dbg !3153
  br i1 %76, label %80, label %77, !dbg !3154

77:                                               ; preds = %73
  %78 = zext i16 %9 to i32, !dbg !3155
  %79 = add nuw nsw i32 %78, 3, !dbg !3156
  br label %89, !dbg !3157

80:                                               ; preds = %73
  %81 = getelementptr inbounds [4 x i8], [4 x i8]* %66, i64 0, i64 1, !dbg !3158
  %82 = load i8, i8* %81, align 1, !dbg !3158, !tbaa !2618
  %83 = icmp eq i8 %82, 0, !dbg !3158
  %84 = zext i16 %9 to i32, !dbg !3159
  br i1 %83, label %87, label %85, !dbg !3160

85:                                               ; preds = %80
  %86 = add nuw nsw i32 %84, 2, !dbg !3161
  br label %89, !dbg !3162

87:                                               ; preds = %80
  %88 = add nuw nsw i32 %84, 1, !dbg !3163
  br label %89, !dbg !3164

89:                                               ; preds = %70, %77, %85, %87
  %90 = phi i32 [ %72, %70 ], [ %79, %77 ], [ %86, %85 ], [ %88, %87 ], !dbg !3165
  %91 = icmp eq i32 %64, %90, !dbg !3166
  br label %92

92:                                               ; preds = %11, %19, %31, %2, %15, %27, %89
  %93 = phi i1 [ %91, %89 ], [ false, %27 ], [ false, %15 ], [ false, %2 ], [ false, %31 ], [ false, %19 ], [ false, %11 ], !dbg !3167
  ret i1 %93, !dbg !3168
}

; Function Attrs: nounwind readonly sspstrong uwtable
define dso_local zeroext i1 @_ZNK14Classification8Wordwise4Insn9flippableEv(%"struct.Classification::Wordwise::Insn"* nocapture readonly %0) local_unnamed_addr #3 align 2 !dbg !3169 {
  call void @llvm.dbg.value(metadata %"struct.Classification::Wordwise::Insn"* %0, metadata !3171, metadata !DIExpression()), !dbg !3172
  %2 = getelementptr inbounds %"struct.Classification::Wordwise::Insn", %"struct.Classification::Wordwise::Insn"* %0, i64 0, i32 3, i32 0, !dbg !3173
  %3 = load i32, i32* %2, align 4, !dbg !3173, !tbaa !2618
  %4 = tail call i32 @llvm.ctpop.i32(i32 %3), !dbg !3175, !range !2836
  %5 = icmp eq i32 %4, 1, !dbg !3175
  ret i1 %5, !dbg !3176
}

; Function Attrs: nounwind sspstrong uwtable
define dso_local void @_ZN14Classification8Wordwise4Insn4flipEv(%"struct.Classification::Wordwise::Insn"* nocapture %0) local_unnamed_addr #4 align 2 !dbg !3177 {
  call void @llvm.dbg.value(metadata %"struct.Classification::Wordwise::Insn"* %0, metadata !3179, metadata !DIExpression()), !dbg !3181
  call void @llvm.dbg.value(metadata %"struct.Classification::Wordwise::Insn"* %0, metadata !3171, metadata !DIExpression()) #18, !dbg !3182
  %2 = getelementptr inbounds %"struct.Classification::Wordwise::Insn", %"struct.Classification::Wordwise::Insn"* %0, i64 0, i32 3, i32 0, !dbg !3184
  %3 = load i32, i32* %2, align 4, !dbg !3184, !tbaa !2618
  %4 = tail call i32 @llvm.ctpop.i32(i32 %3) #18, !dbg !3185, !range !2836
  %5 = icmp eq i32 %4, 1, !dbg !3185
  br i1 %5, label %7, label %6, !dbg !3186

6:                                                ; preds = %1
  tail call void @__assert_fail(i8* getelementptr inbounds ([12 x i8], [12 x i8]* @.str, i64 0, i64 0), i8* getelementptr inbounds ([39 x i8], [39 x i8]* @.str.1, i64 0, i64 0), i32 126, i8* getelementptr inbounds ([44 x i8], [44 x i8]* @__PRETTY_FUNCTION__._ZN14Classification8Wordwise4Insn4flipEv, i64 0, i64 0)) #19, !dbg !3186
  unreachable, !dbg !3186

7:                                                ; preds = %1
  %8 = getelementptr inbounds %"struct.Classification::Wordwise::Insn", %"struct.Classification::Wordwise::Insn"* %0, i64 0, i32 4, i32 0, !dbg !3187
  %9 = load i32, i32* %8, align 4, !dbg !3188, !tbaa !2618
  %10 = xor i32 %9, %3, !dbg !3188
  store i32 %10, i32* %8, align 4, !dbg !3188, !tbaa !2618
  %11 = getelementptr inbounds %"struct.Classification::Wordwise::Insn", %"struct.Classification::Wordwise::Insn"* %0, i64 0, i32 5, i64 0, !dbg !3189
  %12 = load i32, i32* %11, align 4, !dbg !3189, !tbaa !3111
  call void @llvm.dbg.value(metadata i32 %12, metadata !3180, metadata !DIExpression()), !dbg !3181
  %13 = getelementptr inbounds %"struct.Classification::Wordwise::Insn", %"struct.Classification::Wordwise::Insn"* %0, i64 0, i32 5, i64 1, !dbg !3190
  %14 = load i32, i32* %13, align 4, !dbg !3190, !tbaa !3111
  store i32 %14, i32* %11, align 4, !dbg !3191, !tbaa !3111
  store i32 %12, i32* %13, align 4, !dbg !3192, !tbaa !3111
  %15 = getelementptr inbounds %"struct.Classification::Wordwise::Insn", %"struct.Classification::Wordwise::Insn"* %0, i64 0, i32 2, !dbg !3193
  %16 = load i8, i8* %15, align 1, !dbg !3193, !tbaa !2603
  %17 = icmp eq i8 %16, 0, !dbg !3193
  %18 = zext i1 %17 to i8, !dbg !3194
  store i8 %18, i8* %15, align 1, !dbg !3195, !tbaa !2603
  ret void, !dbg !3196
}

; Function Attrs: noreturn nounwind
declare void @__assert_fail(i8*, i8*, i32, i8*) local_unnamed_addr #5

; Function Attrs: sspstrong uwtable
define dso_local nonnull dereferenceable(16) %class.StringAccum* @_ZN14Classification8WordwiselsER11StringAccumRKNS0_4InsnE(%class.StringAccum* returned dereferenceable(16) %0, %"struct.Classification::Wordwise::Insn"* nocapture readonly dereferenceable(20) %1) local_unnamed_addr #6 !dbg !3197 {
  %3 = alloca [20 x i8], align 16
  call void @llvm.dbg.value(metadata %class.StringAccum* %0, metadata !3201, metadata !DIExpression()), !dbg !3209
  call void @llvm.dbg.value(metadata %"struct.Classification::Wordwise::Insn"* %1, metadata !3202, metadata !DIExpression()), !dbg !3209
  %4 = getelementptr inbounds [20 x i8], [20 x i8]* %3, i64 0, i64 0, !dbg !3210
  call void @llvm.lifetime.start.p0i8(i64 20, i8* nonnull %4) #18, !dbg !3210
  call void @llvm.dbg.declare(metadata [20 x i8]* %3, metadata !3203, metadata !DIExpression()), !dbg !3211
  %5 = getelementptr inbounds %"struct.Classification::Wordwise::Insn", %"struct.Classification::Wordwise::Insn"* %1, i64 0, i32 0, !dbg !3212
  %6 = load i16, i16* %5, align 4, !dbg !3212, !tbaa !2626
  %7 = zext i16 %6 to i32, !dbg !3213
  call void @llvm.dbg.value(metadata i32 %7, metadata !3204, metadata !DIExpression()), !dbg !3209
  %8 = call i32 (i8*, i8*, ...) @sprintf(i8* nonnull %4, i8* nonnull dereferenceable(1) getelementptr inbounds ([5 x i8], [5 x i8]* @.str.2, i64 0, i64 0), i32 %7) #18, !dbg !3214
  call void @llvm.dbg.value(metadata %class.StringAccum* %0, metadata !3215, metadata !DIExpression()), !dbg !3221
  call void @llvm.dbg.value(metadata i8* %4, metadata !3220, metadata !DIExpression()), !dbg !3221
  call void @llvm.dbg.value(metadata %class.StringAccum* %0, metadata !3223, metadata !DIExpression()), !dbg !3228
  call void @llvm.dbg.value(metadata i8* %4, metadata !3226, metadata !DIExpression()), !dbg !3228
  call void @_ZN11StringAccum16hard_append_cstrEPKc(%class.StringAccum* nonnull %0, i8* nonnull %4), !dbg !3230
  call void @llvm.dbg.value(metadata i32 0, metadata !3205, metadata !DIExpression()), !dbg !3232
  %9 = getelementptr inbounds %"struct.Classification::Wordwise::Insn", %"struct.Classification::Wordwise::Insn"* %1, i64 0, i32 4, !dbg !3233
  %10 = bitcast %union.anon.0* %9 to [4 x i8]*, !dbg !3233
  call void @llvm.dbg.value(metadata i64 0, metadata !3205, metadata !DIExpression()), !dbg !3232
  %11 = bitcast %union.anon.0* %9 to i8*, !dbg !3235
  %12 = load i8, i8* %11, align 1, !dbg !3235, !tbaa !2618
  %13 = zext i8 %12 to i32, !dbg !3235
  %14 = call i32 (i8*, i8*, ...) @sprintf(i8* nonnull %4, i8* nonnull dereferenceable(1) getelementptr inbounds ([5 x i8], [5 x i8]* @.str.3, i64 0, i64 0), i32 %13) #18, !dbg !3236
  call void @llvm.dbg.value(metadata i64 1, metadata !3205, metadata !DIExpression()), !dbg !3232
  %15 = getelementptr inbounds [20 x i8], [20 x i8]* %3, i64 0, i64 2, !dbg !3237
  %16 = getelementptr inbounds [4 x i8], [4 x i8]* %10, i64 0, i64 1, !dbg !3235
  %17 = load i8, i8* %16, align 1, !dbg !3235, !tbaa !2618
  %18 = zext i8 %17 to i32, !dbg !3235
  %19 = call i32 (i8*, i8*, ...) @sprintf(i8* nonnull %15, i8* nonnull dereferenceable(1) getelementptr inbounds ([5 x i8], [5 x i8]* @.str.3, i64 0, i64 0), i32 %18) #18, !dbg !3236
  call void @llvm.dbg.value(metadata i64 2, metadata !3205, metadata !DIExpression()), !dbg !3232
  %20 = getelementptr inbounds [20 x i8], [20 x i8]* %3, i64 0, i64 4, !dbg !3237
  %21 = getelementptr inbounds [4 x i8], [4 x i8]* %10, i64 0, i64 2, !dbg !3235
  %22 = load i8, i8* %21, align 1, !dbg !3235, !tbaa !2618
  %23 = zext i8 %22 to i32, !dbg !3235
  %24 = call i32 (i8*, i8*, ...) @sprintf(i8* nonnull %20, i8* nonnull dereferenceable(1) getelementptr inbounds ([5 x i8], [5 x i8]* @.str.3, i64 0, i64 0), i32 %23) #18, !dbg !3236
  call void @llvm.dbg.value(metadata i64 3, metadata !3205, metadata !DIExpression()), !dbg !3232
  %25 = getelementptr inbounds [20 x i8], [20 x i8]* %3, i64 0, i64 6, !dbg !3237
  %26 = getelementptr inbounds [4 x i8], [4 x i8]* %10, i64 0, i64 3, !dbg !3235
  %27 = load i8, i8* %26, align 1, !dbg !3235, !tbaa !2618
  %28 = zext i8 %27 to i32, !dbg !3235
  %29 = call i32 (i8*, i8*, ...) @sprintf(i8* nonnull %25, i8* nonnull dereferenceable(1) getelementptr inbounds ([5 x i8], [5 x i8]* @.str.3, i64 0, i64 0), i32 %28) #18, !dbg !3236
  call void @llvm.dbg.value(metadata i64 4, metadata !3205, metadata !DIExpression()), !dbg !3232
  %30 = getelementptr inbounds [20 x i8], [20 x i8]* %3, i64 0, i64 8, !dbg !3238
  %31 = call i32 (i8*, i8*, ...) @sprintf(i8* nonnull %30, i8* nonnull dereferenceable(1) getelementptr inbounds ([3 x i8], [3 x i8]* @.str.4, i64 0, i64 0)) #18, !dbg !3239
  call void @llvm.dbg.value(metadata i32 0, metadata !3207, metadata !DIExpression()), !dbg !3240
  %32 = getelementptr inbounds [20 x i8], [20 x i8]* %3, i64 0, i64 9, !dbg !3241
  %33 = getelementptr inbounds %"struct.Classification::Wordwise::Insn", %"struct.Classification::Wordwise::Insn"* %1, i64 0, i32 3, !dbg !3241
  %34 = bitcast %union.anon* %33 to [4 x i8]*, !dbg !3241
  call void @llvm.dbg.value(metadata i64 0, metadata !3207, metadata !DIExpression()), !dbg !3240
  %35 = bitcast %union.anon* %33 to i8*, !dbg !3243
  %36 = load i8, i8* %35, align 1, !dbg !3243, !tbaa !2618
  %37 = zext i8 %36 to i32, !dbg !3243
  %38 = call i32 (i8*, i8*, ...) @sprintf(i8* nonnull %32, i8* nonnull dereferenceable(1) getelementptr inbounds ([5 x i8], [5 x i8]* @.str.3, i64 0, i64 0), i32 %37) #18, !dbg !3244
  call void @llvm.dbg.value(metadata i64 1, metadata !3207, metadata !DIExpression()), !dbg !3240
  %39 = getelementptr inbounds [20 x i8], [20 x i8]* %3, i64 0, i64 11, !dbg !3245
  %40 = getelementptr inbounds [4 x i8], [4 x i8]* %34, i64 0, i64 1, !dbg !3243
  %41 = load i8, i8* %40, align 1, !dbg !3243, !tbaa !2618
  %42 = zext i8 %41 to i32, !dbg !3243
  %43 = call i32 (i8*, i8*, ...) @sprintf(i8* nonnull %39, i8* nonnull dereferenceable(1) getelementptr inbounds ([5 x i8], [5 x i8]* @.str.3, i64 0, i64 0), i32 %42) #18, !dbg !3244
  call void @llvm.dbg.value(metadata i64 2, metadata !3207, metadata !DIExpression()), !dbg !3240
  %44 = getelementptr inbounds [20 x i8], [20 x i8]* %3, i64 0, i64 13, !dbg !3245
  %45 = getelementptr inbounds [4 x i8], [4 x i8]* %34, i64 0, i64 2, !dbg !3243
  %46 = load i8, i8* %45, align 1, !dbg !3243, !tbaa !2618
  %47 = zext i8 %46 to i32, !dbg !3243
  %48 = call i32 (i8*, i8*, ...) @sprintf(i8* nonnull %44, i8* nonnull dereferenceable(1) getelementptr inbounds ([5 x i8], [5 x i8]* @.str.3, i64 0, i64 0), i32 %47) #18, !dbg !3244
  call void @llvm.dbg.value(metadata i64 3, metadata !3207, metadata !DIExpression()), !dbg !3240
  %49 = getelementptr inbounds [20 x i8], [20 x i8]* %3, i64 0, i64 15, !dbg !3245
  %50 = getelementptr inbounds [4 x i8], [4 x i8]* %34, i64 0, i64 3, !dbg !3243
  %51 = load i8, i8* %50, align 1, !dbg !3243, !tbaa !2618
  %52 = zext i8 %51 to i32, !dbg !3243
  %53 = call i32 (i8*, i8*, ...) @sprintf(i8* nonnull %49, i8* nonnull dereferenceable(1) getelementptr inbounds ([5 x i8], [5 x i8]* @.str.3, i64 0, i64 0), i32 %52) #18, !dbg !3244
  call void @llvm.dbg.value(metadata i64 4, metadata !3207, metadata !DIExpression()), !dbg !3240
  call void @llvm.dbg.value(metadata %class.StringAccum* %0, metadata !3215, metadata !DIExpression()), !dbg !3246
  call void @llvm.dbg.value(metadata i8* %4, metadata !3220, metadata !DIExpression()), !dbg !3246
  call void @llvm.dbg.value(metadata %class.StringAccum* %0, metadata !3223, metadata !DIExpression()), !dbg !3248
  call void @llvm.dbg.value(metadata i8* %4, metadata !3226, metadata !DIExpression()), !dbg !3248
  call void @_ZN11StringAccum16hard_append_cstrEPKc(%class.StringAccum* nonnull %0, i8* nonnull %4), !dbg !3250
  call void @llvm.dbg.value(metadata %class.StringAccum* %0, metadata !3215, metadata !DIExpression()), !dbg !3251
  call void @llvm.dbg.value(metadata i8* getelementptr inbounds ([8 x i8], [8 x i8]* @.str.5, i64 0, i64 0), metadata !3220, metadata !DIExpression()), !dbg !3251
  call void @llvm.dbg.value(metadata %class.StringAccum* %0, metadata !3223, metadata !DIExpression()), !dbg !3253
  call void @llvm.dbg.value(metadata i8* getelementptr inbounds ([8 x i8], [8 x i8]* @.str.5, i64 0, i64 0), metadata !3226, metadata !DIExpression()), !dbg !3253
  call void @llvm.dbg.value(metadata %class.StringAccum* %0, metadata !3255, metadata !DIExpression()), !dbg !3260
  call void @llvm.dbg.value(metadata i8* getelementptr inbounds ([8 x i8], [8 x i8]* @.str.5, i64 0, i64 0), metadata !3258, metadata !DIExpression()), !dbg !3260
  call void @llvm.dbg.value(metadata i32 7, metadata !3259, metadata !DIExpression()), !dbg !3260
  %54 = getelementptr inbounds %class.StringAccum, %class.StringAccum* %0, i64 0, i32 0, i32 1, !dbg !3262
  %55 = load i32, i32* %54, align 8, !dbg !3262, !tbaa !3264
  %56 = add nsw i32 %55, 7, !dbg !3268
  %57 = getelementptr inbounds %class.StringAccum, %class.StringAccum* %0, i64 0, i32 0, i32 2, !dbg !3269
  %58 = load i32, i32* %57, align 4, !dbg !3269, !tbaa !3270
  %59 = icmp sgt i32 %56, %58, !dbg !3271
  br i1 %59, label %67, label %60, !dbg !3272

60:                                               ; preds = %2
  %61 = getelementptr inbounds %class.StringAccum, %class.StringAccum* %0, i64 0, i32 0, i32 0, !dbg !3273
  %62 = load i8*, i8** %61, align 8, !dbg !3273, !tbaa !3275
  %63 = sext i32 %55 to i64, !dbg !3276
  %64 = getelementptr inbounds i8, i8* %62, i64 %63, !dbg !3276
  call void @llvm.memcpy.p0i8.p0i8.i64(i8* nonnull align 1 dereferenceable(7) %64, i8* nonnull align 1 dereferenceable(7) getelementptr inbounds ([8 x i8], [8 x i8]* @.str.5, i64 0, i64 0), i64 7, i1 false), !dbg !3277
  %65 = load i32, i32* %54, align 8, !dbg !3278, !tbaa !3264
  %66 = add nsw i32 %65, 7, !dbg !3278
  store i32 %66, i32* %54, align 8, !dbg !3278, !tbaa !3264
  br label %68, !dbg !3279

67:                                               ; preds = %2
  call void @_ZN11StringAccum11hard_appendEPKci(%class.StringAccum* nonnull %0, i8* nonnull getelementptr inbounds ([8 x i8], [8 x i8]* @.str.5, i64 0, i64 0), i32 7), !dbg !3280
  br label %68

68:                                               ; preds = %60, %67
  call void @llvm.dbg.value(metadata %"struct.Classification::Wordwise::Insn"* %1, metadata !3105, metadata !DIExpression()), !dbg !3281
  %69 = getelementptr inbounds %"struct.Classification::Wordwise::Insn", %"struct.Classification::Wordwise::Insn"* %1, i64 0, i32 5, i64 1, !dbg !3283
  %70 = load i32, i32* %69, align 4, !dbg !3283, !tbaa !3111
  call fastcc void @_ZN14Classification8WordwiseL10jump_accumER11StringAccumi(%class.StringAccum* nonnull dereferenceable(16) %0, i32 %70), !dbg !3284
  call void @llvm.dbg.value(metadata %class.StringAccum* %0, metadata !3215, metadata !DIExpression()), !dbg !3285
  call void @llvm.dbg.value(metadata i8* getelementptr inbounds ([7 x i8], [7 x i8]* @.str.6, i64 0, i64 0), metadata !3220, metadata !DIExpression()), !dbg !3285
  call void @llvm.dbg.value(metadata %class.StringAccum* %0, metadata !3223, metadata !DIExpression()), !dbg !3287
  call void @llvm.dbg.value(metadata i8* getelementptr inbounds ([7 x i8], [7 x i8]* @.str.6, i64 0, i64 0), metadata !3226, metadata !DIExpression()), !dbg !3287
  call void @llvm.dbg.value(metadata %class.StringAccum* %0, metadata !3255, metadata !DIExpression()), !dbg !3289
  call void @llvm.dbg.value(metadata i8* getelementptr inbounds ([7 x i8], [7 x i8]* @.str.6, i64 0, i64 0), metadata !3258, metadata !DIExpression()), !dbg !3289
  call void @llvm.dbg.value(metadata i32 6, metadata !3259, metadata !DIExpression()), !dbg !3289
  %71 = load i32, i32* %54, align 8, !dbg !3291, !tbaa !3264
  %72 = add nsw i32 %71, 6, !dbg !3292
  %73 = load i32, i32* %57, align 4, !dbg !3293, !tbaa !3270
  %74 = icmp sgt i32 %72, %73, !dbg !3294
  br i1 %74, label %82, label %75, !dbg !3295

75:                                               ; preds = %68
  %76 = getelementptr inbounds %class.StringAccum, %class.StringAccum* %0, i64 0, i32 0, i32 0, !dbg !3296
  %77 = load i8*, i8** %76, align 8, !dbg !3296, !tbaa !3275
  %78 = sext i32 %71 to i64, !dbg !3297
  %79 = getelementptr inbounds i8, i8* %77, i64 %78, !dbg !3297
  call void @llvm.memcpy.p0i8.p0i8.i64(i8* nonnull align 1 dereferenceable(6) %79, i8* nonnull align 1 dereferenceable(6) getelementptr inbounds ([7 x i8], [7 x i8]* @.str.6, i64 0, i64 0), i64 6, i1 false), !dbg !3298
  %80 = load i32, i32* %54, align 8, !dbg !3299, !tbaa !3264
  %81 = add nsw i32 %80, 6, !dbg !3299
  store i32 %81, i32* %54, align 8, !dbg !3299, !tbaa !3264
  br label %83, !dbg !3300

82:                                               ; preds = %68
  call void @_ZN11StringAccum11hard_appendEPKci(%class.StringAccum* nonnull %0, i8* nonnull getelementptr inbounds ([7 x i8], [7 x i8]* @.str.6, i64 0, i64 0), i32 6), !dbg !3301
  br label %83

83:                                               ; preds = %75, %82
  call void @llvm.dbg.value(metadata %"struct.Classification::Wordwise::Insn"* %1, metadata !3302, metadata !DIExpression()), !dbg !3305
  %84 = getelementptr inbounds %"struct.Classification::Wordwise::Insn", %"struct.Classification::Wordwise::Insn"* %1, i64 0, i32 5, i64 0, !dbg !3307
  %85 = load i32, i32* %84, align 4, !dbg !3307, !tbaa !3111
  call fastcc void @_ZN14Classification8WordwiseL10jump_accumER11StringAccumi(%class.StringAccum* nonnull dereferenceable(16) %0, i32 %85), !dbg !3308
  %86 = getelementptr inbounds %"struct.Classification::Wordwise::Insn", %"struct.Classification::Wordwise::Insn"* %1, i64 0, i32 2, !dbg !3309
  %87 = load i8, i8* %86, align 1, !dbg !3309, !tbaa !2603
  %88 = icmp eq i8 %87, 0, !dbg !3311
  br i1 %88, label %102, label %89, !dbg !3312

89:                                               ; preds = %83
  call void @llvm.dbg.value(metadata %class.StringAccum* %0, metadata !3215, metadata !DIExpression()), !dbg !3313
  call void @llvm.dbg.value(metadata i8* getelementptr inbounds ([13 x i8], [13 x i8]* @.str.7, i64 0, i64 0), metadata !3220, metadata !DIExpression()), !dbg !3313
  call void @llvm.dbg.value(metadata %class.StringAccum* %0, metadata !3223, metadata !DIExpression()), !dbg !3315
  call void @llvm.dbg.value(metadata i8* getelementptr inbounds ([13 x i8], [13 x i8]* @.str.7, i64 0, i64 0), metadata !3226, metadata !DIExpression()), !dbg !3315
  call void @llvm.dbg.value(metadata %class.StringAccum* %0, metadata !3255, metadata !DIExpression()), !dbg !3317
  call void @llvm.dbg.value(metadata i8* getelementptr inbounds ([13 x i8], [13 x i8]* @.str.7, i64 0, i64 0), metadata !3258, metadata !DIExpression()), !dbg !3317
  call void @llvm.dbg.value(metadata i32 12, metadata !3259, metadata !DIExpression()), !dbg !3317
  %90 = load i32, i32* %54, align 8, !dbg !3319, !tbaa !3264
  %91 = add nsw i32 %90, 12, !dbg !3320
  %92 = load i32, i32* %57, align 4, !dbg !3321, !tbaa !3270
  %93 = icmp sgt i32 %91, %92, !dbg !3322
  br i1 %93, label %101, label %94, !dbg !3323

94:                                               ; preds = %89
  %95 = getelementptr inbounds %class.StringAccum, %class.StringAccum* %0, i64 0, i32 0, i32 0, !dbg !3324
  %96 = load i8*, i8** %95, align 8, !dbg !3324, !tbaa !3275
  %97 = sext i32 %90 to i64, !dbg !3325
  %98 = getelementptr inbounds i8, i8* %96, i64 %97, !dbg !3325
  call void @llvm.memcpy.p0i8.p0i8.i64(i8* nonnull align 1 dereferenceable(12) %98, i8* nonnull align 1 dereferenceable(12) getelementptr inbounds ([13 x i8], [13 x i8]* @.str.7, i64 0, i64 0), i64 12, i1 false), !dbg !3326
  %99 = load i32, i32* %54, align 8, !dbg !3327, !tbaa !3264
  %100 = add nsw i32 %99, 12, !dbg !3327
  store i32 %100, i32* %54, align 8, !dbg !3327, !tbaa !3264
  br label %102, !dbg !3328

101:                                              ; preds = %89
  call void @_ZN11StringAccum11hard_appendEPKci(%class.StringAccum* nonnull %0, i8* nonnull getelementptr inbounds ([13 x i8], [13 x i8]* @.str.7, i64 0, i64 0), i32 12), !dbg !3329
  br label %102

102:                                              ; preds = %101, %94, %83
  call void @llvm.lifetime.end.p0i8(i64 20, i8* nonnull %4) #18, !dbg !3330
  ret %class.StringAccum* %0, !dbg !3331
}

; Function Attrs: nofree nounwind
declare i32 @sprintf(i8* noalias nocapture, i8* nocapture readonly, ...) local_unnamed_addr #7

; Function Attrs: sspstrong uwtable
define internal fastcc void @_ZN14Classification8WordwiseL10jump_accumER11StringAccumi(%class.StringAccum* dereferenceable(16) %0, i32 %1) unnamed_addr #6 !dbg !3332 {
  call void @llvm.dbg.value(metadata %class.StringAccum* %0, metadata !3336, metadata !DIExpression()), !dbg !3338
  call void @llvm.dbg.value(metadata i32 %1, metadata !3337, metadata !DIExpression()), !dbg !3338
  %3 = icmp slt i32 %1, -2147483644, !dbg !3339
  br i1 %3, label %4, label %58, !dbg !3341

4:                                                ; preds = %2
  call void @llvm.dbg.value(metadata %class.StringAccum* %0, metadata !3342, metadata !DIExpression()), !dbg !3348
  call void @llvm.dbg.value(metadata i8 91, metadata !3347, metadata !DIExpression()), !dbg !3348
  call void @llvm.dbg.value(metadata %class.StringAccum* %0, metadata !3350, metadata !DIExpression()), !dbg !3354
  call void @llvm.dbg.value(metadata i8 91, metadata !3353, metadata !DIExpression()), !dbg !3354
  %5 = getelementptr inbounds %class.StringAccum, %class.StringAccum* %0, i64 0, i32 0, i32 1, !dbg !3356
  %6 = load i32, i32* %5, align 8, !dbg !3356, !tbaa !3264
  %7 = getelementptr inbounds %class.StringAccum, %class.StringAccum* %0, i64 0, i32 0, i32 2, !dbg !3358
  %8 = load i32, i32* %7, align 4, !dbg !3358, !tbaa !3270
  %9 = icmp slt i32 %6, %8, !dbg !3359
  br i1 %9, label %15, label %10, !dbg !3360

10:                                               ; preds = %4
  %11 = tail call i8* @_ZN11StringAccum4growEi(%class.StringAccum* nonnull %0, i32 %6), !dbg !3361
  %12 = icmp eq i8* %11, null, !dbg !3361
  br i1 %12, label %22, label %13, !dbg !3362

13:                                               ; preds = %10
  %14 = load i32, i32* %5, align 8, !dbg !3363, !tbaa !3264
  br label %15, !dbg !3362

15:                                               ; preds = %13, %4
  %16 = phi i32 [ %14, %13 ], [ %6, %4 ], !dbg !3363
  %17 = getelementptr inbounds %class.StringAccum, %class.StringAccum* %0, i64 0, i32 0, i32 0, !dbg !3364
  %18 = load i8*, i8** %17, align 8, !dbg !3364, !tbaa !3275
  %19 = add nsw i32 %16, 1, !dbg !3363
  store i32 %19, i32* %5, align 8, !dbg !3363, !tbaa !3264
  %20 = sext i32 %16 to i64, !dbg !3365
  %21 = getelementptr inbounds i8, i8* %18, i64 %20, !dbg !3365
  store i8 91, i8* %21, align 1, !dbg !3366, !tbaa !2618
  br label %22, !dbg !3365

22:                                               ; preds = %10, %15
  %23 = add nsw i32 %1, 2147483647, !dbg !3367
  %24 = sext i32 %23 to i64, !dbg !3368
  %25 = getelementptr inbounds [4 x i8], [4 x i8]* @.str.39, i64 0, i64 %24, !dbg !3368
  %26 = load i8, i8* %25, align 1, !dbg !3368, !tbaa !2618
  call void @llvm.dbg.value(metadata %class.StringAccum* %0, metadata !3342, metadata !DIExpression()), !dbg !3369
  call void @llvm.dbg.value(metadata i8 %26, metadata !3347, metadata !DIExpression()), !dbg !3369
  call void @llvm.dbg.value(metadata %class.StringAccum* %0, metadata !3350, metadata !DIExpression()), !dbg !3371
  call void @llvm.dbg.value(metadata i8 %26, metadata !3353, metadata !DIExpression()), !dbg !3371
  %27 = load i32, i32* %5, align 8, !dbg !3373, !tbaa !3264
  %28 = load i32, i32* %7, align 4, !dbg !3374, !tbaa !3270
  %29 = icmp slt i32 %27, %28, !dbg !3375
  br i1 %29, label %35, label %30, !dbg !3376

30:                                               ; preds = %22
  %31 = tail call i8* @_ZN11StringAccum4growEi(%class.StringAccum* nonnull %0, i32 %27), !dbg !3377
  %32 = icmp eq i8* %31, null, !dbg !3377
  br i1 %32, label %42, label %33, !dbg !3378

33:                                               ; preds = %30
  %34 = load i32, i32* %5, align 8, !dbg !3379, !tbaa !3264
  br label %35, !dbg !3378

35:                                               ; preds = %33, %22
  %36 = phi i32 [ %34, %33 ], [ %27, %22 ], !dbg !3379
  %37 = getelementptr inbounds %class.StringAccum, %class.StringAccum* %0, i64 0, i32 0, i32 0, !dbg !3380
  %38 = load i8*, i8** %37, align 8, !dbg !3380, !tbaa !3275
  %39 = add nsw i32 %36, 1, !dbg !3379
  store i32 %39, i32* %5, align 8, !dbg !3379, !tbaa !3264
  %40 = sext i32 %36 to i64, !dbg !3381
  %41 = getelementptr inbounds i8, i8* %38, i64 %40, !dbg !3381
  store i8 %26, i8* %41, align 1, !dbg !3382, !tbaa !2618
  br label %42, !dbg !3381

42:                                               ; preds = %30, %35
  call void @llvm.dbg.value(metadata %class.StringAccum* %0, metadata !3342, metadata !DIExpression()), !dbg !3383
  call void @llvm.dbg.value(metadata i8 93, metadata !3347, metadata !DIExpression()), !dbg !3383
  call void @llvm.dbg.value(metadata %class.StringAccum* %0, metadata !3350, metadata !DIExpression()), !dbg !3385
  call void @llvm.dbg.value(metadata i8 93, metadata !3353, metadata !DIExpression()), !dbg !3385
  %43 = load i32, i32* %5, align 8, !dbg !3387, !tbaa !3264
  %44 = load i32, i32* %7, align 4, !dbg !3388, !tbaa !3270
  %45 = icmp slt i32 %43, %44, !dbg !3389
  br i1 %45, label %51, label %46, !dbg !3390

46:                                               ; preds = %42
  %47 = tail call i8* @_ZN11StringAccum4growEi(%class.StringAccum* nonnull %0, i32 %43), !dbg !3391
  %48 = icmp eq i8* %47, null, !dbg !3391
  br i1 %48, label %115, label %49, !dbg !3392

49:                                               ; preds = %46
  %50 = load i32, i32* %5, align 8, !dbg !3393, !tbaa !3264
  br label %51, !dbg !3392

51:                                               ; preds = %49, %42
  %52 = phi i32 [ %50, %49 ], [ %43, %42 ], !dbg !3393
  %53 = getelementptr inbounds %class.StringAccum, %class.StringAccum* %0, i64 0, i32 0, i32 0, !dbg !3394
  %54 = load i8*, i8** %53, align 8, !dbg !3394, !tbaa !3275
  %55 = add nsw i32 %52, 1, !dbg !3393
  store i32 %55, i32* %5, align 8, !dbg !3393, !tbaa !3264
  %56 = sext i32 %52 to i64, !dbg !3395
  %57 = getelementptr inbounds i8, i8* %54, i64 %56, !dbg !3395
  store i8 93, i8* %57, align 1, !dbg !3396, !tbaa !2618
  br label %115, !dbg !3395

58:                                               ; preds = %2
  %59 = icmp slt i32 %1, 1, !dbg !3397
  %60 = getelementptr inbounds %class.StringAccum, %class.StringAccum* %0, i64 0, i32 0, i32 1, !dbg !3399
  %61 = load i32, i32* %60, align 8, !dbg !3399, !tbaa !3264
  br i1 %59, label %62, label %99, !dbg !3400

62:                                               ; preds = %58
  call void @llvm.dbg.value(metadata %class.StringAccum* %0, metadata !3342, metadata !DIExpression()), !dbg !3401
  call void @llvm.dbg.value(metadata i8 91, metadata !3347, metadata !DIExpression()), !dbg !3401
  call void @llvm.dbg.value(metadata %class.StringAccum* %0, metadata !3350, metadata !DIExpression()), !dbg !3403
  call void @llvm.dbg.value(metadata i8 91, metadata !3353, metadata !DIExpression()), !dbg !3403
  %63 = getelementptr inbounds %class.StringAccum, %class.StringAccum* %0, i64 0, i32 0, i32 2, !dbg !3405
  %64 = load i32, i32* %63, align 4, !dbg !3405, !tbaa !3270
  %65 = icmp slt i32 %61, %64, !dbg !3406
  br i1 %65, label %71, label %66, !dbg !3407

66:                                               ; preds = %62
  %67 = tail call i8* @_ZN11StringAccum4growEi(%class.StringAccum* nonnull %0, i32 %61), !dbg !3408
  %68 = icmp eq i8* %67, null, !dbg !3408
  br i1 %68, label %78, label %69, !dbg !3409

69:                                               ; preds = %66
  %70 = load i32, i32* %60, align 8, !dbg !3410, !tbaa !3264
  br label %71, !dbg !3409

71:                                               ; preds = %69, %62
  %72 = phi i32 [ %70, %69 ], [ %61, %62 ], !dbg !3410
  %73 = getelementptr inbounds %class.StringAccum, %class.StringAccum* %0, i64 0, i32 0, i32 0, !dbg !3411
  %74 = load i8*, i8** %73, align 8, !dbg !3411, !tbaa !3275
  %75 = add nsw i32 %72, 1, !dbg !3410
  store i32 %75, i32* %60, align 8, !dbg !3410, !tbaa !3264
  %76 = sext i32 %72 to i64, !dbg !3412
  %77 = getelementptr inbounds i8, i8* %74, i64 %76, !dbg !3412
  store i8 91, i8* %77, align 1, !dbg !3413, !tbaa !2618
  br label %78, !dbg !3412

78:                                               ; preds = %66, %71
  %79 = sub nsw i32 0, %1, !dbg !3414
  call void @llvm.dbg.value(metadata %class.StringAccum* %0, metadata !3415, metadata !DIExpression()), !dbg !3421
  call void @llvm.dbg.value(metadata i32 %79, metadata !3420, metadata !DIExpression()), !dbg !3421
  %80 = sext i32 %79 to i64, !dbg !3423
  %81 = tail call dereferenceable(16) %class.StringAccum* @_ZlsR11StringAccuml(%class.StringAccum* nonnull dereferenceable(16) %0, i64 %80), !dbg !3424
  call void @llvm.dbg.value(metadata %class.StringAccum* %81, metadata !3342, metadata !DIExpression()), !dbg !3425
  call void @llvm.dbg.value(metadata i8 93, metadata !3347, metadata !DIExpression()), !dbg !3425
  call void @llvm.dbg.value(metadata %class.StringAccum* %81, metadata !3350, metadata !DIExpression()), !dbg !3427
  call void @llvm.dbg.value(metadata i8 93, metadata !3353, metadata !DIExpression()), !dbg !3427
  %82 = getelementptr inbounds %class.StringAccum, %class.StringAccum* %81, i64 0, i32 0, i32 1, !dbg !3429
  %83 = load i32, i32* %82, align 8, !dbg !3429, !tbaa !3264
  %84 = getelementptr inbounds %class.StringAccum, %class.StringAccum* %81, i64 0, i32 0, i32 2, !dbg !3430
  %85 = load i32, i32* %84, align 4, !dbg !3430, !tbaa !3270
  %86 = icmp slt i32 %83, %85, !dbg !3431
  br i1 %86, label %92, label %87, !dbg !3432

87:                                               ; preds = %78
  %88 = tail call i8* @_ZN11StringAccum4growEi(%class.StringAccum* nonnull %81, i32 %83), !dbg !3433
  %89 = icmp eq i8* %88, null, !dbg !3433
  br i1 %89, label %115, label %90, !dbg !3434

90:                                               ; preds = %87
  %91 = load i32, i32* %82, align 8, !dbg !3435, !tbaa !3264
  br label %92, !dbg !3434

92:                                               ; preds = %90, %78
  %93 = phi i32 [ %91, %90 ], [ %83, %78 ], !dbg !3435
  %94 = getelementptr inbounds %class.StringAccum, %class.StringAccum* %81, i64 0, i32 0, i32 0, !dbg !3436
  %95 = load i8*, i8** %94, align 8, !dbg !3436, !tbaa !3275
  %96 = add nsw i32 %93, 1, !dbg !3435
  store i32 %96, i32* %82, align 8, !dbg !3435, !tbaa !3264
  %97 = sext i32 %93 to i64, !dbg !3437
  %98 = getelementptr inbounds i8, i8* %95, i64 %97, !dbg !3437
  store i8 93, i8* %98, align 1, !dbg !3438, !tbaa !2618
  br label %115, !dbg !3437

99:                                               ; preds = %58
  call void @llvm.dbg.value(metadata %class.StringAccum* %0, metadata !3215, metadata !DIExpression()), !dbg !3439
  call void @llvm.dbg.value(metadata i8* getelementptr inbounds ([6 x i8], [6 x i8]* @.str.40, i64 0, i64 0), metadata !3220, metadata !DIExpression()), !dbg !3439
  call void @llvm.dbg.value(metadata %class.StringAccum* %0, metadata !3223, metadata !DIExpression()), !dbg !3441
  call void @llvm.dbg.value(metadata i8* getelementptr inbounds ([6 x i8], [6 x i8]* @.str.40, i64 0, i64 0), metadata !3226, metadata !DIExpression()), !dbg !3441
  call void @llvm.dbg.value(metadata %class.StringAccum* %0, metadata !3255, metadata !DIExpression()), !dbg !3443
  call void @llvm.dbg.value(metadata i8* getelementptr inbounds ([6 x i8], [6 x i8]* @.str.40, i64 0, i64 0), metadata !3258, metadata !DIExpression()), !dbg !3443
  call void @llvm.dbg.value(metadata i32 5, metadata !3259, metadata !DIExpression()), !dbg !3443
  %100 = add nsw i32 %61, 5, !dbg !3445
  %101 = getelementptr inbounds %class.StringAccum, %class.StringAccum* %0, i64 0, i32 0, i32 2, !dbg !3446
  %102 = load i32, i32* %101, align 4, !dbg !3446, !tbaa !3270
  %103 = icmp sgt i32 %100, %102, !dbg !3447
  br i1 %103, label %111, label %104, !dbg !3448

104:                                              ; preds = %99
  %105 = getelementptr inbounds %class.StringAccum, %class.StringAccum* %0, i64 0, i32 0, i32 0, !dbg !3449
  %106 = load i8*, i8** %105, align 8, !dbg !3449, !tbaa !3275
  %107 = sext i32 %61 to i64, !dbg !3450
  %108 = getelementptr inbounds i8, i8* %106, i64 %107, !dbg !3450
  tail call void @llvm.memcpy.p0i8.p0i8.i64(i8* nonnull align 1 dereferenceable(5) %108, i8* nonnull align 1 dereferenceable(5) getelementptr inbounds ([6 x i8], [6 x i8]* @.str.40, i64 0, i64 0), i64 5, i1 false), !dbg !3451
  %109 = load i32, i32* %60, align 8, !dbg !3452, !tbaa !3264
  %110 = add nsw i32 %109, 5, !dbg !3452
  store i32 %110, i32* %60, align 8, !dbg !3452, !tbaa !3264
  br label %112, !dbg !3453

111:                                              ; preds = %99
  tail call void @_ZN11StringAccum11hard_appendEPKci(%class.StringAccum* nonnull %0, i8* nonnull getelementptr inbounds ([6 x i8], [6 x i8]* @.str.40, i64 0, i64 0), i32 5), !dbg !3454
  br label %112

112:                                              ; preds = %104, %111
  call void @llvm.dbg.value(metadata %class.StringAccum* %0, metadata !3415, metadata !DIExpression()), !dbg !3455
  call void @llvm.dbg.value(metadata i32 %1, metadata !3420, metadata !DIExpression()), !dbg !3455
  %113 = zext i32 %1 to i64, !dbg !3457
  %114 = tail call dereferenceable(16) %class.StringAccum* @_ZlsR11StringAccuml(%class.StringAccum* nonnull dereferenceable(16) %0, i64 %113), !dbg !3458
  br label %115

115:                                              ; preds = %92, %87, %51, %46, %112
  ret void, !dbg !3459
}

; Function Attrs: sspstrong uwtable
define dso_local void @_ZNK14Classification8Wordwise4Insn7unparseEv(%class.String* noalias sret %0, %"struct.Classification::Wordwise::Insn"* nocapture nonnull readonly %1) local_unnamed_addr #6 align 2 personality i8* bitcast (i32 (...)* @__gxx_personality_v0 to i8*) !dbg !3460 {
  %3 = alloca %class.StringAccum, align 8
  call void @llvm.dbg.value(metadata %"struct.Classification::Wordwise::Insn"* %1, metadata !3462, metadata !DIExpression()), !dbg !3464
  %4 = bitcast %class.StringAccum* %3 to i8*, !dbg !3465
  call void @llvm.lifetime.start.p0i8(i64 16, i8* nonnull %4) #18, !dbg !3465
  call void @llvm.dbg.declare(metadata %class.StringAccum* %3, metadata !3463, metadata !DIExpression()), !dbg !3466
  call void @llvm.dbg.value(metadata %class.StringAccum* %3, metadata !3467, metadata !DIExpression()), !dbg !3470
  call void @llvm.dbg.value(metadata %class.StringAccum* %3, metadata !3472, metadata !DIExpression()), !dbg !3476
  %5 = getelementptr inbounds %class.StringAccum, %class.StringAccum* %3, i64 0, i32 0, i32 0, !dbg !3478
  store i8* @_ZN6String9null_dataE, i8** %5, align 8, !dbg !3478, !tbaa !3479
  %6 = getelementptr inbounds %class.StringAccum, %class.StringAccum* %3, i64 0, i32 0, i32 1, !dbg !3480
  store i32 0, i32* %6, align 8, !dbg !3480, !tbaa !3481
  %7 = getelementptr inbounds %class.StringAccum, %class.StringAccum* %3, i64 0, i32 0, i32 2, !dbg !3482
  store i32 0, i32* %7, align 4, !dbg !3482, !tbaa !3483
  %8 = invoke dereferenceable(16) %class.StringAccum* @_ZN14Classification8WordwiselsER11StringAccumRKNS0_4InsnE(%class.StringAccum* nonnull dereferenceable(16) %3, %"struct.Classification::Wordwise::Insn"* nonnull dereferenceable(20) %1)
          to label %9 unwind label %17, !dbg !3484

9:                                                ; preds = %2
  invoke void @_ZN11StringAccum11take_stringEv(%class.String* sret %0, %class.StringAccum* nonnull %3)
          to label %10 unwind label %17, !dbg !3485

10:                                               ; preds = %9
  call void @llvm.dbg.value(metadata %class.StringAccum* %3, metadata !3486, metadata !DIExpression()) #18, !dbg !3489
  %11 = load i32, i32* %7, align 4, !dbg !3491, !tbaa !3270
  %12 = icmp sgt i32 %11, 0, !dbg !3494
  br i1 %12, label %13, label %16, !dbg !3495

13:                                               ; preds = %10
  %14 = load i8*, i8** %5, align 8, !dbg !3496, !tbaa !3275
  %15 = getelementptr inbounds i8, i8* %14, i64 -12, !dbg !3496
  call void @_ZdaPv(i8* nonnull %15) #20, !dbg !3496
  br label %16, !dbg !3496

16:                                               ; preds = %10, %13
  call void @llvm.lifetime.end.p0i8(i64 16, i8* nonnull %4) #18, !dbg !3497
  ret void, !dbg !3497

17:                                               ; preds = %9, %2
  %18 = landingpad { i8*, i32 }
          cleanup, !dbg !3497
  call void @llvm.dbg.value(metadata %class.StringAccum* %3, metadata !3486, metadata !DIExpression()) #18, !dbg !3498
  %19 = load i32, i32* %7, align 4, !dbg !3500, !tbaa !3270
  %20 = icmp sgt i32 %19, 0, !dbg !3501
  br i1 %20, label %21, label %24, !dbg !3502

21:                                               ; preds = %17
  %22 = load i8*, i8** %5, align 8, !dbg !3503, !tbaa !3275
  %23 = getelementptr inbounds i8, i8* %22, i64 -12, !dbg !3503
  call void @_ZdaPv(i8* nonnull %23) #20, !dbg !3503
  br label %24, !dbg !3503

24:                                               ; preds = %17, %21
  call void @llvm.lifetime.end.p0i8(i64 16, i8* nonnull %4) #18, !dbg !3497
  resume { i8*, i32 } %18, !dbg !3497
}

declare i32 @__gxx_personality_v0(...)

declare void @_ZN11StringAccum11take_stringEv(%class.String* sret, %class.StringAccum*) local_unnamed_addr #8

; Function Attrs: sspstrong uwtable
define dso_local void @_ZNK14Classification8Wordwise7Program12init_subtreeEv(%class.Vector.1* noalias sret %0, %"class.Classification::Wordwise::Program"* nocapture readonly %1) local_unnamed_addr #6 align 2 personality i8* bitcast (i32 (...)* @__gxx_personality_v0 to i8*) !dbg !3504 {
  %3 = alloca i32, align 4
  call void @llvm.dbg.value(metadata i8* undef, metadata !3508, metadata !DIExpression(DW_OP_deref)), !dbg !3509
  call void @llvm.dbg.value(metadata %"class.Classification::Wordwise::Program"* %1, metadata !3506, metadata !DIExpression()), !dbg !3509
  call void @llvm.dbg.value(metadata %"class.Classification::Wordwise::Program"* %1, metadata !3510, metadata !DIExpression()), !dbg !3514
  %4 = getelementptr inbounds %"class.Classification::Wordwise::Program", %"class.Classification::Wordwise::Program"* %1, i64 0, i32 0, i32 0, i32 1, !dbg !3516
  %5 = load i32, i32* %4, align 8, !dbg !3516, !tbaa !3517
  %6 = add nsw i32 %5, 1, !dbg !3520
  %7 = bitcast i32* %3 to i8*, !dbg !3521
  call void @llvm.lifetime.start.p0i8(i64 4, i8* nonnull %7), !dbg !3521
  call void @llvm.dbg.value(metadata %class.Vector.1* %0, metadata !3524, metadata !DIExpression()), !dbg !3521
  call void @llvm.dbg.value(metadata i32 %6, metadata !3525, metadata !DIExpression()), !dbg !3521
  call void @llvm.dbg.value(metadata i32 -1, metadata !3526, metadata !DIExpression()), !dbg !3521
  store i32 -1, i32* %3, align 4, !tbaa !3111
  %8 = getelementptr inbounds %class.Vector.1, %class.Vector.1* %0, i64 0, i32 0, !dbg !3528
  call void @llvm.dbg.value(metadata %class.vector_memory.2* %8, metadata !3529, metadata !DIExpression()) #18, !dbg !3533
  %9 = bitcast %class.Vector.1* %0 to i8*, !dbg !3535
  tail call void @llvm.memset.p0i8.i64(i8* nonnull align 8 dereferenceable(16) %9, i8 0, i64 16, i1 false) #18, !dbg !3536
  call void @llvm.dbg.value(metadata i32* %3, metadata !3526, metadata !DIExpression(DW_OP_deref)), !dbg !3521
  call void @llvm.dbg.value(metadata i32* %3, metadata !3537, metadata !DIExpression()), !dbg !3543
  %10 = bitcast i32* %3 to %struct.char_array.3*, !dbg !3546
  invoke void @_ZN13vector_memoryI18sized_array_memoryILm4EEE6resizeEiPK10char_arrayILm4EE(%class.vector_memory.2* %8, i32 %6, %struct.char_array.3* nonnull %10)
          to label %18 unwind label %11, !dbg !3547

11:                                               ; preds = %2
  %12 = landingpad { i8*, i32 }
          cleanup, !dbg !3548
  call void @llvm.dbg.value(metadata %class.vector_memory.2* %8, metadata !3549, metadata !DIExpression()) #18, !dbg !3553
  %13 = bitcast %class.Vector.1* %0 to i8**, !dbg !3555
  %14 = load i8*, i8** %13, align 8, !dbg !3557, !tbaa !3558
  %15 = icmp eq i8* %14, null, !dbg !3557
  br i1 %15, label %17, label %16, !dbg !3557

16:                                               ; preds = %11
  call void @_ZdaPv(i8* nonnull %14) #20, !dbg !3557
  br label %17, !dbg !3557

17:                                               ; preds = %16, %11
  resume { i8*, i32 } %12, !dbg !3548

18:                                               ; preds = %2
  call void @llvm.lifetime.end.p0i8(i64 4, i8* nonnull %7), !dbg !3560
  %19 = invoke dereferenceable(4) i32* @_ZN6VectorIiEixEi(%class.Vector.1* nonnull %0, i32 0)
          to label %20 unwind label %21, !dbg !3561

20:                                               ; preds = %18
  store i32 0, i32* %19, align 4, !dbg !3562, !tbaa !3111
  ret void, !dbg !3563

21:                                               ; preds = %18
  %22 = landingpad { i8*, i32 }
          cleanup, !dbg !3563
  call void @llvm.dbg.value(metadata %class.Vector.1* %0, metadata !3564, metadata !DIExpression()) #18, !dbg !3568
  call void @llvm.dbg.value(metadata %class.Vector.1* %0, metadata !3549, metadata !DIExpression()) #18, !dbg !3570
  %23 = bitcast %class.Vector.1* %0 to i8**, !dbg !3573
  %24 = load i8*, i8** %23, align 8, !dbg !3574, !tbaa !3558
  %25 = icmp eq i8* %24, null, !dbg !3574
  br i1 %25, label %27, label %26, !dbg !3574

26:                                               ; preds = %21
  call void @_ZdaPv(i8* nonnull %24) #20, !dbg !3574
  br label %27, !dbg !3574

27:                                               ; preds = %21, %26
  resume { i8*, i32 } %22, !dbg !3563
}

declare dereferenceable(4) i32* @_ZN6VectorIiEixEi(%class.Vector.1*, i32) local_unnamed_addr #8

; Function Attrs: sspstrong uwtable
define dso_local void @_ZNK14Classification8Wordwise7Program13start_subtreeER6VectorIiE(%"class.Classification::Wordwise::Program"* nocapture readnone %0, %class.Vector.1* dereferenceable(16) %1) local_unnamed_addr #6 align 2 !dbg !3575 {
  call void @llvm.dbg.value(metadata %"class.Classification::Wordwise::Program"* %0, metadata !3577, metadata !DIExpression()), !dbg !3579
  call void @llvm.dbg.value(metadata %class.Vector.1* %1, metadata !3578, metadata !DIExpression()), !dbg !3579
  %3 = tail call dereferenceable(4) i32* @_ZN6VectorIiEixEi(%class.Vector.1* nonnull %1, i32 0), !dbg !3580
  %4 = load i32, i32* %3, align 4, !dbg !3581, !tbaa !3111
  %5 = add nsw i32 %4, 1, !dbg !3581
  store i32 %5, i32* %3, align 4, !dbg !3581, !tbaa !3111
  ret void, !dbg !3582
}

; Function Attrs: sspstrong uwtable
define dso_local void @_ZN14Classification8Wordwise7Program8add_insnER6VectorIiEijj(%"class.Classification::Wordwise::Program"* %0, %class.Vector.1* dereferenceable(16) %1, i32 %2, i32 %3, i32 %4) local_unnamed_addr #6 align 2 !dbg !3583 {
  %6 = alloca %"struct.Classification::Wordwise::Insn", align 4
  call void @llvm.dbg.value(metadata %"class.Classification::Wordwise::Program"* %0, metadata !3585, metadata !DIExpression()), !dbg !3590
  call void @llvm.dbg.value(metadata %class.Vector.1* %1, metadata !3586, metadata !DIExpression()), !dbg !3590
  call void @llvm.dbg.value(metadata i32 %2, metadata !3587, metadata !DIExpression()), !dbg !3590
  call void @llvm.dbg.value(metadata i32 %3, metadata !3588, metadata !DIExpression()), !dbg !3590
  call void @llvm.dbg.value(metadata i32 %4, metadata !3589, metadata !DIExpression()), !dbg !3590
  %7 = bitcast %"struct.Classification::Wordwise::Insn"* %6 to i8*, !dbg !3591
  call void @llvm.lifetime.start.p0i8(i64 20, i8* nonnull %7) #18, !dbg !3591
  call void @llvm.dbg.value(metadata %"struct.Classification::Wordwise::Insn"* %6, metadata !3592, metadata !DIExpression()), !dbg !3601
  call void @llvm.dbg.value(metadata i32 %2, metadata !3595, metadata !DIExpression()), !dbg !3601
  call void @llvm.dbg.value(metadata i32 %3, metadata !3596, metadata !DIExpression()), !dbg !3601
  call void @llvm.dbg.value(metadata i32 %4, metadata !3597, metadata !DIExpression()), !dbg !3601
  call void @llvm.dbg.value(metadata i32 -2147483646, metadata !3598, metadata !DIExpression()), !dbg !3601
  call void @llvm.dbg.value(metadata i32 -2147483645, metadata !3599, metadata !DIExpression()), !dbg !3601
  call void @llvm.dbg.value(metadata i8 0, metadata !3600, metadata !DIExpression()), !dbg !3601
  %8 = getelementptr inbounds %"struct.Classification::Wordwise::Insn", %"struct.Classification::Wordwise::Insn"* %6, i64 0, i32 0, !dbg !3603
  %9 = trunc i32 %2 to i16, !dbg !3604
  store i16 %9, i16* %8, align 4, !dbg !3603, !tbaa !2626
  %10 = getelementptr inbounds %"struct.Classification::Wordwise::Insn", %"struct.Classification::Wordwise::Insn"* %6, i64 0, i32 1, !dbg !3605
  store i8 0, i8* %10, align 2, !dbg !3605, !tbaa !3606
  %11 = getelementptr inbounds %"struct.Classification::Wordwise::Insn", %"struct.Classification::Wordwise::Insn"* %6, i64 0, i32 2, !dbg !3607
  store i8 0, i8* %11, align 1, !dbg !3607, !tbaa !2603
  %12 = getelementptr inbounds %"struct.Classification::Wordwise::Insn", %"struct.Classification::Wordwise::Insn"* %6, i64 0, i32 3, i32 0, !dbg !3608
  store i32 %4, i32* %12, align 4, !dbg !3610, !tbaa !2618
  %13 = and i32 %4, %3, !dbg !3611
  %14 = getelementptr inbounds %"struct.Classification::Wordwise::Insn", %"struct.Classification::Wordwise::Insn"* %6, i64 0, i32 4, i32 0, !dbg !3612
  store i32 %13, i32* %14, align 4, !dbg !3613, !tbaa !2618
  %15 = getelementptr inbounds %"struct.Classification::Wordwise::Insn", %"struct.Classification::Wordwise::Insn"* %6, i64 0, i32 5, i64 0, !dbg !3614
  store i32 -2147483646, i32* %15, align 4, !dbg !3615, !tbaa !3111
  %16 = getelementptr inbounds %"struct.Classification::Wordwise::Insn", %"struct.Classification::Wordwise::Insn"* %6, i64 0, i32 5, i64 1, !dbg !3616
  store i32 -2147483645, i32* %16, align 4, !dbg !3617, !tbaa !3111
  call void @llvm.dbg.value(metadata %"class.Classification::Wordwise::Program"* %0, metadata !3618, metadata !DIExpression()), !dbg !3630
  call void @llvm.dbg.value(metadata %"struct.Classification::Wordwise::Insn"* %6, metadata !3628, metadata !DIExpression()), !dbg !3630
  call void @llvm.dbg.value(metadata %"struct.Classification::Wordwise::Insn"* %6, metadata !3632, metadata !DIExpression()), !dbg !3638
  call void @llvm.dbg.value(metadata %"class.Classification::Wordwise::Program"* %0, metadata !3640, metadata !DIExpression()), !dbg !3645
  call void @llvm.dbg.value(metadata %"struct.Classification::Wordwise::Insn"* %6, metadata !3643, metadata !DIExpression()), !dbg !3645
  %17 = getelementptr inbounds %"class.Classification::Wordwise::Program", %"class.Classification::Wordwise::Program"* %0, i64 0, i32 0, i32 0, i32 1, !dbg !3647
  %18 = load i32, i32* %17, align 8, !dbg !3647, !tbaa !3649
  %19 = getelementptr inbounds %"class.Classification::Wordwise::Program", %"class.Classification::Wordwise::Program"* %0, i64 0, i32 0, i32 0, i32 2, !dbg !3650
  %20 = load i32, i32* %19, align 4, !dbg !3650, !tbaa !3651
  %21 = icmp slt i32 %18, %20, !dbg !3652
  br i1 %21, label %22, label %29, !dbg !3653

22:                                               ; preds = %5
  call void @llvm.dbg.value(metadata %"class.Classification::Wordwise::Program"* %0, metadata !3618, metadata !DIExpression()), !dbg !3630
  call void @llvm.dbg.value(metadata %"class.Classification::Wordwise::Program"* %0, metadata !3640, metadata !DIExpression()), !dbg !3645
  %23 = getelementptr inbounds %"class.Classification::Wordwise::Program", %"class.Classification::Wordwise::Program"* %0, i64 0, i32 0, i32 0, i32 0, !dbg !3654
  %24 = load %struct.char_array*, %struct.char_array** %23, align 8, !dbg !3654, !tbaa !3656
  %25 = sext i32 %18 to i64, !dbg !3657
  %26 = getelementptr inbounds %struct.char_array, %struct.char_array* %24, i64 %25, i32 0, i64 0, !dbg !3658
  call void @llvm.dbg.value(metadata i8* %26, metadata !3659, metadata !DIExpression()) #18, !dbg !3663
  call void @llvm.dbg.value(metadata i8* %7, metadata !3662, metadata !DIExpression()) #18, !dbg !3663
  call void @llvm.memcpy.p0i8.p0i8.i64(i8* nonnull align 1 dereferenceable(20) %26, i8* nonnull align 4 dereferenceable(20) %7, i64 20, i1 false) #18, !dbg !3665
  %27 = load i32, i32* %17, align 8, !dbg !3666, !tbaa !3649
  %28 = add nsw i32 %27, 1, !dbg !3666
  store i32 %28, i32* %17, align 8, !dbg !3666, !tbaa !3649
  br label %33, !dbg !3667

29:                                               ; preds = %5
  %30 = bitcast %"struct.Classification::Wordwise::Insn"* %6 to %struct.char_array*, !dbg !3668
  call void @llvm.dbg.value(metadata %struct.char_array* %30, metadata !3643, metadata !DIExpression()), !dbg !3645
  %31 = getelementptr inbounds %"class.Classification::Wordwise::Program", %"class.Classification::Wordwise::Program"* %0, i64 0, i32 0, i32 0, !dbg !3669
  call void @llvm.dbg.value(metadata %class.vector_memory* %31, metadata !3640, metadata !DIExpression()), !dbg !3645
  %32 = call zeroext i1 @_ZN13vector_memoryI18sized_array_memoryILm20EEE21reserve_and_push_backEiPK10char_arrayILm20EE(%class.vector_memory* nonnull %31, i32 -1, %struct.char_array* nonnull %30), !dbg !3670
  br label %33

33:                                               ; preds = %22, %29
  call void @llvm.lifetime.end.p0i8(i64 20, i8* nonnull %7) #18, !dbg !3671
  %34 = call dereferenceable(4) i32* @_ZN6VectorIiEixEi(%class.Vector.1* nonnull %1, i32 0), !dbg !3672
  %35 = load i32, i32* %34, align 4, !dbg !3672, !tbaa !3111
  call void @llvm.dbg.value(metadata %class.Vector.1* %1, metadata !3673, metadata !DIExpression()), !dbg !3677
  call void @llvm.dbg.value(metadata i32 %35, metadata !3676, metadata !DIExpression()), !dbg !3677
  call void @llvm.dbg.value(metadata %class.Vector.1* %1, metadata !3679, metadata !DIExpression()), !dbg !3683
  call void @llvm.dbg.value(metadata %struct.char_array.3* undef, metadata !3682, metadata !DIExpression()), !dbg !3683
  %36 = getelementptr inbounds %class.Vector.1, %class.Vector.1* %1, i64 0, i32 0, i32 1, !dbg !3685
  %37 = load i32, i32* %36, align 8, !dbg !3685, !tbaa !3687
  %38 = getelementptr inbounds %class.Vector.1, %class.Vector.1* %1, i64 0, i32 0, i32 2, !dbg !3688
  %39 = load i32, i32* %38, align 4, !dbg !3688, !tbaa !3689
  %40 = icmp slt i32 %37, %39, !dbg !3690
  br i1 %40, label %71, label %41, !dbg !3691

41:                                               ; preds = %33
  %42 = bitcast %class.Vector.1* %1 to i8**, !dbg !3692
  br label %43

43:                                               ; preds = %66, %41
  %44 = phi i32 [ %67, %66 ], [ %37, %41 ]
  %45 = phi i32 [ %68, %66 ], [ %37, %41 ]
  %46 = phi i32 [ %69, %66 ], [ %39, %41 ], !dbg !3705
  call void @llvm.dbg.value(metadata %class.Vector.1* %1, metadata !3697, metadata !DIExpression()), !dbg !3705
  call void @llvm.dbg.value(metadata i32 -1, metadata !3698, metadata !DIExpression()), !dbg !3705
  call void @llvm.dbg.value(metadata %struct.char_array.3* undef, metadata !3699, metadata !DIExpression()), !dbg !3705
  %47 = icmp sgt i32 %46, 0, !dbg !3706
  %48 = shl nsw i32 %46, 1, !dbg !3706
  %49 = select i1 %47, i32 %48, i32 4, !dbg !3706
  call void @llvm.dbg.value(metadata i32 %49, metadata !3698, metadata !DIExpression()), !dbg !3705
  %50 = icmp sgt i32 %49, %46, !dbg !3707
  br i1 %50, label %51, label %66, !dbg !3708

51:                                               ; preds = %43
  %52 = sext i32 %49 to i64, !dbg !3709
  %53 = shl nsw i64 %52, 2, !dbg !3709
  %54 = call i8* @_Znam(i64 %53) #21, !dbg !3709
  call void @llvm.dbg.value(metadata i8* %54, metadata !3703, metadata !DIExpression()), !dbg !3692
  call void @llvm.dbg.value(metadata i8* %54, metadata !3703, metadata !DIExpression()), !dbg !3692
  %55 = load i8*, i8** %42, align 8, !dbg !3710, !tbaa !3558
  call void @llvm.dbg.value(metadata i8* %54, metadata !3711, metadata !DIExpression()) #18, !dbg !3716
  call void @llvm.dbg.value(metadata i8* %55, metadata !3714, metadata !DIExpression()) #18, !dbg !3716
  call void @llvm.dbg.value(metadata i32 %45, metadata !3715, metadata !DIExpression(DW_OP_LLVM_convert, 32, DW_ATE_signed, DW_OP_LLVM_convert, 64, DW_ATE_signed, DW_OP_stack_value)) #18, !dbg !3716
  %56 = icmp eq i32 %45, 0, !dbg !3718
  br i1 %56, label %60, label %57, !dbg !3720

57:                                               ; preds = %51
  %58 = sext i32 %45 to i64, !dbg !3721
  call void @llvm.dbg.value(metadata i64 %58, metadata !3715, metadata !DIExpression()) #18, !dbg !3716
  %59 = shl nsw i64 %58, 2, !dbg !3722
  call void @llvm.memmove.p0i8.p0i8.i64(i8* nonnull align 1 %54, i8* align 1 %55, i64 %59, i1 false) #18, !dbg !3723
  br label %60, !dbg !3723

60:                                               ; preds = %57, %51
  %61 = icmp eq i8* %55, null, !dbg !3724
  br i1 %61, label %64, label %62, !dbg !3724

62:                                               ; preds = %60
  call void @_ZdaPv(i8* nonnull %55) #20, !dbg !3724
  %63 = load i32, i32* %36, align 8, !dbg !3725, !tbaa !3687
  br label %64, !dbg !3724

64:                                               ; preds = %62, %60
  %65 = phi i32 [ %63, %62 ], [ %44, %60 ], !dbg !3725
  store i8* %54, i8** %42, align 8, !dbg !3728, !tbaa !3558
  store i32 %49, i32* %38, align 4, !dbg !3729, !tbaa !3689
  br label %66

66:                                               ; preds = %64, %43
  %67 = phi i32 [ %44, %43 ], [ %65, %64 ]
  %68 = phi i32 [ %45, %43 ], [ %65, %64 ], !dbg !3725
  %69 = phi i32 [ %46, %43 ], [ %49, %64 ]
  call void @llvm.dbg.value(metadata %class.Vector.1* %1, metadata !3679, metadata !DIExpression()), !dbg !3730
  call void @llvm.dbg.value(metadata %struct.char_array.3* undef, metadata !3682, metadata !DIExpression()), !dbg !3730
  %70 = icmp slt i32 %68, %69, !dbg !3731
  br i1 %70, label %71, label %43, !dbg !3732

71:                                               ; preds = %66, %33
  %72 = phi i32 [ %37, %33 ], [ %68, %66 ]
  %73 = getelementptr inbounds %class.Vector.1, %class.Vector.1* %1, i64 0, i32 0, i32 0, !dbg !3733
  %74 = load %struct.char_array.3*, %struct.char_array.3** %73, align 8, !dbg !3733, !tbaa !3558
  %75 = sext i32 %72 to i64, !dbg !3733
  %76 = getelementptr inbounds %struct.char_array.3, %struct.char_array.3* %74, i64 %75, i32 0, i64 0, !dbg !3733
  %77 = bitcast i8* %76 to i32*, !dbg !3733
  store i32 %35, i32* %77, align 1, !dbg !3733
  %78 = load i32, i32* %36, align 8, !dbg !3733, !tbaa !3687
  %79 = add nsw i32 %78, 1, !dbg !3733
  store i32 %79, i32* %36, align 8, !dbg !3733, !tbaa !3687
  %80 = getelementptr inbounds %"class.Classification::Wordwise::Program", %"class.Classification::Wordwise::Program"* %0, i64 0, i32 1, !dbg !3734
  store i32 -1, i32* %80, align 8, !dbg !3735, !tbaa !3736
  ret void, !dbg !3738
}

; Function Attrs: sspstrong uwtable
define dso_local void @_ZN14Classification8Wordwise7Program16redirect_subtreeEiiii(%"class.Classification::Wordwise::Program"* %0, i32 %1, i32 %2, i32 %3, i32 %4) local_unnamed_addr #6 align 2 !dbg !3739 {
  call void @llvm.dbg.value(metadata %"class.Classification::Wordwise::Program"* %0, metadata !3741, metadata !DIExpression()), !dbg !3753
  call void @llvm.dbg.value(metadata i32 %1, metadata !3742, metadata !DIExpression()), !dbg !3753
  call void @llvm.dbg.value(metadata i32 %2, metadata !3743, metadata !DIExpression()), !dbg !3753
  call void @llvm.dbg.value(metadata i32 %3, metadata !3744, metadata !DIExpression()), !dbg !3753
  call void @llvm.dbg.value(metadata i32 %4, metadata !3745, metadata !DIExpression()), !dbg !3753
  call void @llvm.dbg.value(metadata i32 %1, metadata !3746, metadata !DIExpression()), !dbg !3754
  %6 = icmp slt i32 %1, %2, !dbg !3755
  br i1 %6, label %7, label %9, !dbg !3756

7:                                                ; preds = %5
  %8 = getelementptr inbounds %"class.Classification::Wordwise::Program", %"class.Classification::Wordwise::Program"* %0, i64 0, i32 0, !dbg !3757
  br label %10, !dbg !3756

9:                                                ; preds = %24, %5
  ret void, !dbg !3758

10:                                               ; preds = %24, %7
  %11 = phi i32 [ %1, %7 ], [ %25, %24 ]
  call void @llvm.dbg.value(metadata i32 %11, metadata !3746, metadata !DIExpression()), !dbg !3754
  %12 = tail call dereferenceable(20) %"struct.Classification::Wordwise::Insn"* @_ZN6VectorIN14Classification8Wordwise4InsnEEixEi(%class.Vector* %8, i32 %11), !dbg !3759
  call void @llvm.dbg.value(metadata %"struct.Classification::Wordwise::Insn"* %12, metadata !3748, metadata !DIExpression()), !dbg !3757
  call void @llvm.dbg.value(metadata i64 0, metadata !3751, metadata !DIExpression()), !dbg !3760
  %13 = getelementptr inbounds %"struct.Classification::Wordwise::Insn", %"struct.Classification::Wordwise::Insn"* %12, i64 0, i32 5, i64 0, !dbg !3761
  %14 = load i32, i32* %13, align 4, !dbg !3761, !tbaa !3111
  switch i32 %14, label %18 [
    i32 -2147483645, label %16
    i32 -2147483646, label %15
  ], !dbg !3764

15:                                               ; preds = %10
  br label %16, !dbg !3765

16:                                               ; preds = %10, %15
  %17 = phi i32 [ %4, %15 ], [ %3, %10 ]
  store i32 %17, i32* %13, align 4, !dbg !3767, !tbaa !3111
  br label %18, !dbg !3761

18:                                               ; preds = %16, %10
  call void @llvm.dbg.value(metadata i64 1, metadata !3751, metadata !DIExpression()), !dbg !3760
  %19 = getelementptr inbounds %"struct.Classification::Wordwise::Insn", %"struct.Classification::Wordwise::Insn"* %12, i64 0, i32 5, i64 1, !dbg !3761
  %20 = load i32, i32* %19, align 4, !dbg !3761, !tbaa !3111
  switch i32 %20, label %24 [
    i32 -2147483645, label %21
    i32 -2147483646, label %22
  ], !dbg !3764

21:                                               ; preds = %18
  br label %22, !dbg !3768

22:                                               ; preds = %18, %21
  %23 = phi i32 [ %3, %21 ], [ %4, %18 ]
  store i32 %23, i32* %19, align 4, !dbg !3767, !tbaa !3111
  br label %24, !dbg !3769

24:                                               ; preds = %22, %18
  call void @llvm.dbg.value(metadata i64 2, metadata !3751, metadata !DIExpression()), !dbg !3760
  %25 = add i32 %11, 1, !dbg !3769
  call void @llvm.dbg.value(metadata i32 %25, metadata !3746, metadata !DIExpression()), !dbg !3754
  %26 = icmp eq i32 %25, %2, !dbg !3755
  br i1 %26, label %9, label %10, !dbg !3756, !llvm.loop !3770
}

declare dereferenceable(20) %"struct.Classification::Wordwise::Insn"* @_ZN6VectorIN14Classification8Wordwise4InsnEEixEi(%class.Vector*, i32) local_unnamed_addr #8

; Function Attrs: sspstrong uwtable
define dso_local void @_ZN14Classification8Wordwise7Program14finish_subtreeER6VectorIiENS_8CombinerEii(%"class.Classification::Wordwise::Program"* %0, %class.Vector.1* dereferenceable(16) %1, i32 %2, i32 %3, i32 %4) local_unnamed_addr #6 align 2 personality i8* bitcast (i32 (...)* @__gxx_personality_v0 to i8*) !dbg !3772 {
  %6 = alloca %class.Vector.1, align 8
  call void @llvm.dbg.value(metadata %"class.Classification::Wordwise::Program"* %0, metadata !3774, metadata !DIExpression()), !dbg !3800
  call void @llvm.dbg.value(metadata %class.Vector.1* %1, metadata !3775, metadata !DIExpression()), !dbg !3800
  call void @llvm.dbg.value(metadata i32 %2, metadata !3776, metadata !DIExpression()), !dbg !3800
  call void @llvm.dbg.value(metadata i32 %3, metadata !3777, metadata !DIExpression()), !dbg !3800
  call void @llvm.dbg.value(metadata i32 %4, metadata !3778, metadata !DIExpression()), !dbg !3800
  %7 = tail call dereferenceable(4) i32* @_ZN6VectorIiEixEi(%class.Vector.1* nonnull %1, i32 0), !dbg !3801
  %8 = load i32, i32* %7, align 4, !dbg !3801, !tbaa !3111
  call void @llvm.dbg.value(metadata i32 %8, metadata !3779, metadata !DIExpression()), !dbg !3800
  %9 = bitcast %class.Vector.1* %6 to i8*, !dbg !3802
  call void @llvm.lifetime.start.p0i8(i64 16, i8* nonnull %9) #18, !dbg !3802
  call void @llvm.dbg.declare(metadata %class.Vector.1* %6, metadata !3780, metadata !DIExpression()), !dbg !3803
  call void @llvm.dbg.value(metadata %class.Vector.1* %6, metadata !3804, metadata !DIExpression()), !dbg !3807
  call void @llvm.dbg.value(metadata %class.Vector.1* %6, metadata !3529, metadata !DIExpression()) #18, !dbg !3809
  call void @llvm.memset.p0i8.i64(i8* nonnull align 8 dereferenceable(16) %9, i8 0, i64 16, i1 false) #18, !dbg !3811
  %10 = getelementptr inbounds %"class.Classification::Wordwise::Program", %"class.Classification::Wordwise::Program"* %0, i64 0, i32 0, !dbg !3812
  call void @llvm.dbg.value(metadata %class.Vector* %10, metadata !3510, metadata !DIExpression()), !dbg !3813
  %11 = getelementptr inbounds %"class.Classification::Wordwise::Program", %"class.Classification::Wordwise::Program"* %0, i64 0, i32 0, i32 0, i32 1, !dbg !3815
  %12 = load i32, i32* %11, align 8, !dbg !3815, !tbaa !3517
  call void @llvm.dbg.value(metadata i32 %12, metadata !3781, metadata !DIExpression()), !dbg !3816
  %13 = icmp sgt i32 %12, 0, !dbg !3817
  br i1 %13, label %14, label %92, !dbg !3818

14:                                               ; preds = %5, %25
  %15 = phi i32 [ %26, %25 ], [ %12, %5 ]
  call void @llvm.dbg.value(metadata i32 %15, metadata !3781, metadata !DIExpression()), !dbg !3816
  %16 = invoke dereferenceable(4) i32* @_ZN6VectorIiEixEi(%class.Vector.1* nonnull %1, i32 %15)
          to label %17 unwind label %32, !dbg !3819

17:                                               ; preds = %14
  %18 = load i32, i32* %16, align 4, !dbg !3819, !tbaa !3111
  %19 = icmp slt i32 %18, 0, !dbg !3820
  br i1 %19, label %25, label %20, !dbg !3821

20:                                               ; preds = %17
  %21 = invoke dereferenceable(4) i32* @_ZN6VectorIiEixEi(%class.Vector.1* nonnull %1, i32 %15)
          to label %22 unwind label %32, !dbg !3822

22:                                               ; preds = %20
  %23 = load i32, i32* %21, align 4, !dbg !3822, !tbaa !3111
  %24 = icmp slt i32 %23, %8, !dbg !3823
  br i1 %24, label %34, label %25, !dbg !3824

25:                                               ; preds = %22, %17
  %26 = add nsw i32 %15, -1, !dbg !3825
  call void @llvm.dbg.value(metadata i32 %26, metadata !3781, metadata !DIExpression()), !dbg !3816
  %27 = icmp sgt i32 %15, 1, !dbg !3817
  br i1 %27, label %14, label %34, !dbg !3818, !llvm.loop !3826

28:                                               ; preds = %66
  %29 = landingpad { i8*, i32 }
          cleanup, !dbg !3828
  br label %334, !dbg !3828

30:                                               ; preds = %43
  %31 = landingpad { i8*, i32 }
          cleanup, !dbg !3828
  br label %334, !dbg !3828

32:                                               ; preds = %20, %14
  %33 = landingpad { i8*, i32 }
          cleanup, !dbg !3828
  br label %334, !dbg !3828

34:                                               ; preds = %25, %22
  %35 = phi i32 [ %26, %25 ], [ %15, %22 ]
  %36 = load i32, i32* %11, align 8, !dbg !3829, !tbaa !3517
  call void @llvm.dbg.value(metadata i32 %35, metadata !3781, metadata !DIExpression()), !dbg !3816
  call void @llvm.dbg.value(metadata i32 %35, metadata !3781, metadata !DIExpression()), !dbg !3816
  call void @llvm.dbg.value(metadata i32 %35, metadata !3781, metadata !DIExpression(DW_OP_plus_uconst, 1, DW_OP_stack_value)), !dbg !3816
  call void @llvm.dbg.value(metadata i32 %35, metadata !3781, metadata !DIExpression(DW_OP_plus_uconst, 1, DW_OP_stack_value)), !dbg !3816
  call void @llvm.dbg.value(metadata %class.Vector* %10, metadata !3510, metadata !DIExpression()), !dbg !3833
  %37 = icmp slt i32 %35, %36, !dbg !3834
  br i1 %37, label %38, label %92, !dbg !3835

38:                                               ; preds = %34
  call void @llvm.dbg.value(metadata i32 %35, metadata !3781, metadata !DIExpression(DW_OP_plus_uconst, 1, DW_OP_stack_value)), !dbg !3816
  %39 = getelementptr inbounds %class.Vector.1, %class.Vector.1* %6, i64 0, i32 0, i32 1, !dbg !3836
  %40 = getelementptr inbounds %class.Vector.1, %class.Vector.1* %6, i64 0, i32 0, i32 2, !dbg !3836
  %41 = bitcast %class.Vector.1* %6 to i8**, !dbg !3840
  %42 = getelementptr inbounds %class.Vector.1, %class.Vector.1* %6, i64 0, i32 0, i32 0, !dbg !3842
  br label %43, !dbg !3835

43:                                               ; preds = %38, %89
  %44 = phi i32 [ %35, %38 ], [ %45, %89 ]
  %45 = add nsw i32 %44, 1, !dbg !3845
  %46 = invoke dereferenceable(4) i32* @_ZN6VectorIiEixEi(%class.Vector.1* nonnull %1, i32 %45)
          to label %47 unwind label %30, !dbg !3846

47:                                               ; preds = %43
  %48 = load i32, i32* %46, align 4, !dbg !3846, !tbaa !3111
  %49 = icmp eq i32 %48, %8, !dbg !3847
  br i1 %49, label %50, label %89, !dbg !3848

50:                                               ; preds = %47
  call void @llvm.dbg.value(metadata %class.Vector.1* %6, metadata !3673, metadata !DIExpression()), !dbg !3849
  call void @llvm.dbg.value(metadata i32 %44, metadata !3676, metadata !DIExpression()), !dbg !3849
  call void @llvm.dbg.value(metadata %class.Vector.1* %6, metadata !3679, metadata !DIExpression()), !dbg !3850
  call void @llvm.dbg.value(metadata %struct.char_array.3* undef, metadata !3682, metadata !DIExpression()), !dbg !3850
  %51 = load i32, i32* %39, align 8, !dbg !3851, !tbaa !3687
  %52 = load i32, i32* %40, align 4, !dbg !3852, !tbaa !3689
  %53 = icmp slt i32 %51, %52, !dbg !3853
  br i1 %53, label %54, label %56, !dbg !3854

54:                                               ; preds = %50
  call void @llvm.dbg.value(metadata %class.Vector.1* %6, metadata !3679, metadata !DIExpression()), !dbg !3850
  %55 = load %struct.char_array.3*, %struct.char_array.3** %42, align 8, !dbg !3855, !tbaa !3558
  call void @llvm.dbg.value(metadata i8* %85, metadata !3856, metadata !DIExpression()), !dbg !3861
  call void @llvm.dbg.value(metadata i64 1, metadata !3859, metadata !DIExpression()), !dbg !3861
  call void @llvm.dbg.value(metadata %struct.char_array.3* undef, metadata !3860, metadata !DIExpression()), !dbg !3861
  call void @llvm.dbg.value(metadata i64 undef, metadata !3859, metadata !DIExpression()), !dbg !3861
  call void @llvm.dbg.value(metadata i64 undef, metadata !3859, metadata !DIExpression(DW_OP_constu, 1, DW_OP_minus, DW_OP_stack_value)), !dbg !3861
  br label %82, !dbg !3863

56:                                               ; preds = %50
  %57 = icmp eq i32 %51, 0, !dbg !3864
  %58 = sext i32 %51 to i64, !dbg !3840
  %59 = shl nsw i64 %58, 2, !dbg !3864
  br label %60

60:                                               ; preds = %77, %56
  %61 = phi i32 [ %78, %77 ], [ %52, %56 ], !dbg !3866
  call void @llvm.dbg.value(metadata %class.Vector.1* %6, metadata !3697, metadata !DIExpression()), !dbg !3866
  call void @llvm.dbg.value(metadata i32 -1, metadata !3698, metadata !DIExpression()), !dbg !3866
  call void @llvm.dbg.value(metadata %struct.char_array.3* undef, metadata !3699, metadata !DIExpression()), !dbg !3866
  %62 = icmp sgt i32 %61, 0, !dbg !3867
  %63 = shl nsw i32 %61, 1, !dbg !3867
  %64 = select i1 %62, i32 %63, i32 4, !dbg !3867
  call void @llvm.dbg.value(metadata i32 %64, metadata !3698, metadata !DIExpression()), !dbg !3866
  %65 = icmp sgt i32 %64, %61, !dbg !3868
  br i1 %65, label %66, label %77, !dbg !3869

66:                                               ; preds = %60
  %67 = sext i32 %64 to i64, !dbg !3870
  %68 = shl nsw i64 %67, 2, !dbg !3870
  %69 = invoke i8* @_Znam(i64 %68) #21
          to label %70 unwind label %28, !dbg !3870

70:                                               ; preds = %66
  call void @llvm.dbg.value(metadata i8* %69, metadata !3703, metadata !DIExpression()), !dbg !3840
  call void @llvm.dbg.value(metadata i8* %69, metadata !3703, metadata !DIExpression()), !dbg !3840
  %71 = load i8*, i8** %41, align 8, !dbg !3871, !tbaa !3558
  call void @llvm.dbg.value(metadata i8* %69, metadata !3711, metadata !DIExpression()) #18, !dbg !3872
  call void @llvm.dbg.value(metadata i8* %71, metadata !3714, metadata !DIExpression()) #18, !dbg !3872
  call void @llvm.dbg.value(metadata i32 %51, metadata !3715, metadata !DIExpression(DW_OP_LLVM_convert, 32, DW_ATE_signed, DW_OP_LLVM_convert, 64, DW_ATE_signed, DW_OP_stack_value)) #18, !dbg !3872
  br i1 %57, label %73, label %72, !dbg !3873

72:                                               ; preds = %70
  call void @llvm.dbg.value(metadata i64 %58, metadata !3715, metadata !DIExpression()) #18, !dbg !3872
  tail call void @llvm.memmove.p0i8.p0i8.i64(i8* nonnull align 1 %69, i8* align 1 %71, i64 %59, i1 false) #18, !dbg !3874
  br label %73, !dbg !3874

73:                                               ; preds = %72, %70
  %74 = icmp eq i8* %71, null, !dbg !3875
  br i1 %74, label %76, label %75, !dbg !3875

75:                                               ; preds = %73
  tail call void @_ZdaPv(i8* nonnull %71) #20, !dbg !3875
  br label %76, !dbg !3875

76:                                               ; preds = %75, %73
  store i8* %69, i8** %41, align 8, !dbg !3876, !tbaa !3558
  store i32 %64, i32* %40, align 4, !dbg !3877, !tbaa !3689
  br label %77

77:                                               ; preds = %76, %60
  %78 = phi i32 [ %61, %60 ], [ %64, %76 ]
  call void @llvm.dbg.value(metadata %class.Vector.1* %6, metadata !3679, metadata !DIExpression()), !dbg !3878
  call void @llvm.dbg.value(metadata %struct.char_array.3* undef, metadata !3682, metadata !DIExpression()), !dbg !3878
  %79 = icmp slt i32 %51, %78, !dbg !3879
  br i1 %79, label %80, label %60, !dbg !3880

80:                                               ; preds = %77
  %81 = load %struct.char_array.3*, %struct.char_array.3** %42, align 8, !dbg !3881, !tbaa !3558
  call void @llvm.dbg.value(metadata i64 1, metadata !3859, metadata !DIExpression()), !dbg !3882
  call void @llvm.dbg.value(metadata %struct.char_array.3* undef, metadata !3860, metadata !DIExpression()), !dbg !3882
  call void @llvm.dbg.value(metadata i64 undef, metadata !3859, metadata !DIExpression()), !dbg !3882
  call void @llvm.dbg.value(metadata i64 undef, metadata !3859, metadata !DIExpression(DW_OP_constu, 1, DW_OP_minus, DW_OP_stack_value)), !dbg !3882
  br label %82

82:                                               ; preds = %54, %80
  %83 = phi %struct.char_array.3* [ %55, %54 ], [ %81, %80 ]
  %84 = sext i32 %51 to i64, !dbg !3836
  %85 = getelementptr inbounds %struct.char_array.3, %struct.char_array.3* %83, i64 %84, i32 0, i64 0, !dbg !3836
  %86 = bitcast i8* %85 to i32*, !dbg !3836
  store i32 %44, i32* %86, align 1, !dbg !3836
  %87 = load i32, i32* %39, align 8, !dbg !3836, !tbaa !3687
  %88 = add nsw i32 %87, 1, !dbg !3836
  store i32 %88, i32* %39, align 8, !dbg !3836, !tbaa !3687
  br label %89, !dbg !3884

89:                                               ; preds = %82, %47
  call void @llvm.dbg.value(metadata i32 %45, metadata !3781, metadata !DIExpression(DW_OP_plus_uconst, 1, DW_OP_stack_value)), !dbg !3816
  call void @llvm.dbg.value(metadata i32 %45, metadata !3781, metadata !DIExpression(DW_OP_plus_uconst, 1, DW_OP_stack_value)), !dbg !3816
  call void @llvm.dbg.value(metadata %class.Vector* %10, metadata !3510, metadata !DIExpression()), !dbg !3833
  %90 = load i32, i32* %11, align 8, !dbg !3829, !tbaa !3517
  %91 = icmp slt i32 %45, %90, !dbg !3834
  br i1 %91, label %43, label %92, !dbg !3835, !llvm.loop !3885

92:                                               ; preds = %89, %5, %34
  call void @llvm.dbg.value(metadata %class.Vector.1* %6, metadata !3887, metadata !DIExpression()), !dbg !3891
  %93 = getelementptr inbounds %class.Vector.1, %class.Vector.1* %6, i64 0, i32 0, i32 1, !dbg !3893
  %94 = load i32, i32* %93, align 8, !dbg !3893, !tbaa !3894
  %95 = icmp eq i32 %94, 0, !dbg !3896
  br i1 %95, label %324, label %96, !dbg !3897

96:                                               ; preds = %92
  %97 = add nsw i32 %8, -1, !dbg !3898
  %98 = invoke dereferenceable(4) i32* @_ZN6VectorIiEixEi(%class.Vector.1* nonnull %6, i32 0)
          to label %99 unwind label %114, !dbg !3899

99:                                               ; preds = %96
  %100 = load i32, i32* %98, align 4, !dbg !3899, !tbaa !3111
  %101 = add nsw i32 %100, 1, !dbg !3900
  %102 = invoke dereferenceable(4) i32* @_ZN6VectorIiEixEi(%class.Vector.1* nonnull %1, i32 %101)
          to label %103 unwind label %114, !dbg !3901

103:                                              ; preds = %99
  store i32 %97, i32* %102, align 4, !dbg !3902, !tbaa !3111
  %104 = invoke dereferenceable(4) i32* @_ZN6VectorIiEixEi(%class.Vector.1* nonnull %6, i32 0)
          to label %105 unwind label %118, !dbg !3903

105:                                              ; preds = %103
  %106 = load i32, i32* %104, align 4, !dbg !3903, !tbaa !3111
  %107 = add nsw i32 %106, 2, !dbg !3904
  call void @llvm.dbg.value(metadata i32 %107, metadata !3783, metadata !DIExpression()), !dbg !3905
  call void @llvm.dbg.value(metadata %class.Vector* %10, metadata !3510, metadata !DIExpression()), !dbg !3906
  %108 = load i32, i32* %11, align 8, !dbg !3909, !tbaa !3517
  %109 = icmp sgt i32 %107, %108, !dbg !3910
  br i1 %109, label %110, label %120, !dbg !3911

110:                                              ; preds = %123, %105
  call void @llvm.dbg.value(metadata i32 0, metadata !3787, metadata !DIExpression()), !dbg !3912
  call void @llvm.dbg.value(metadata %class.Vector.1* %6, metadata !3887, metadata !DIExpression()), !dbg !3913
  %111 = load i32, i32* %93, align 8, !dbg !3915, !tbaa !3894
  %112 = add nsw i32 %111, -1, !dbg !3916
  %113 = icmp sgt i32 %111, 1, !dbg !3917
  br i1 %113, label %127, label %292, !dbg !3918

114:                                              ; preds = %324, %99, %96
  %115 = landingpad { i8*, i32 }
          cleanup, !dbg !3919
  br label %334, !dbg !3919

116:                                              ; preds = %120
  %117 = landingpad { i8*, i32 }
          cleanup, !dbg !3920
  br label %334, !dbg !3920

118:                                              ; preds = %103
  %119 = landingpad { i8*, i32 }
          cleanup, !dbg !3920
  br label %334, !dbg !3920

120:                                              ; preds = %105, %123
  %121 = phi i32 [ %124, %123 ], [ %107, %105 ]
  call void @llvm.dbg.value(metadata i32 %121, metadata !3783, metadata !DIExpression()), !dbg !3905
  %122 = invoke dereferenceable(4) i32* @_ZN6VectorIiEixEi(%class.Vector.1* nonnull %1, i32 %121)
          to label %123 unwind label %116, !dbg !3921

123:                                              ; preds = %120
  store i32 -1, i32* %122, align 4, !dbg !3922, !tbaa !3111
  %124 = add nsw i32 %121, 1, !dbg !3923
  call void @llvm.dbg.value(metadata i32 %124, metadata !3783, metadata !DIExpression()), !dbg !3905
  call void @llvm.dbg.value(metadata %class.Vector* %10, metadata !3510, metadata !DIExpression()), !dbg !3906
  %125 = load i32, i32* %11, align 8, !dbg !3909, !tbaa !3517
  %126 = icmp slt i32 %121, %125, !dbg !3910
  br i1 %126, label %120, label %110, !dbg !3911, !llvm.loop !3924

127:                                              ; preds = %110, %286
  %128 = phi i32 [ %288, %286 ], [ 0, %110 ]
  call void @llvm.dbg.value(metadata i32 %128, metadata !3787, metadata !DIExpression()), !dbg !3912
  %129 = invoke dereferenceable(4) i32* @_ZN6VectorIiEixEi(%class.Vector.1* nonnull %6, i32 %128)
          to label %130 unwind label %160, !dbg !3926

130:                                              ; preds = %127
  %131 = load i32, i32* %129, align 4, !dbg !3926, !tbaa !3111
  call void @llvm.dbg.value(metadata i32 %131, metadata !3788, metadata !DIExpression()), !dbg !3927
  %132 = add nsw i32 %128, 1, !dbg !3928
  %133 = invoke dereferenceable(4) i32* @_ZN6VectorIiEixEi(%class.Vector.1* nonnull %6, i32 %132)
          to label %134 unwind label %170, !dbg !3929

134:                                              ; preds = %130
  %135 = load i32, i32* %133, align 4, !dbg !3929, !tbaa !3111
  call void @llvm.dbg.value(metadata i32 %135, metadata !3792, metadata !DIExpression()), !dbg !3927
  switch i32 %2, label %266 [
    i32 0, label %136
    i32 1, label %172
    i32 2, label %192
  ], !dbg !3930

136:                                              ; preds = %134
  call void @llvm.dbg.value(metadata %"class.Classification::Wordwise::Program"* %0, metadata !3741, metadata !DIExpression()), !dbg !3931
  call void @llvm.dbg.value(metadata i32 %131, metadata !3742, metadata !DIExpression()), !dbg !3931
  call void @llvm.dbg.value(metadata i32 %135, metadata !3743, metadata !DIExpression()), !dbg !3931
  call void @llvm.dbg.value(metadata i32 %135, metadata !3744, metadata !DIExpression()), !dbg !3931
  call void @llvm.dbg.value(metadata i32 %4, metadata !3745, metadata !DIExpression()), !dbg !3931
  call void @llvm.dbg.value(metadata i32 %131, metadata !3746, metadata !DIExpression()), !dbg !3933
  %137 = icmp slt i32 %131, %135, !dbg !3934
  br i1 %137, label %138, label %286, !dbg !3935

138:                                              ; preds = %136, %153
  %139 = phi i32 [ %154, %153 ], [ %131, %136 ]
  call void @llvm.dbg.value(metadata i32 %139, metadata !3746, metadata !DIExpression()), !dbg !3933
  %140 = invoke dereferenceable(20) %"struct.Classification::Wordwise::Insn"* @_ZN6VectorIN14Classification8Wordwise4InsnEEixEi(%class.Vector* %10, i32 %139)
          to label %141 unwind label %164, !dbg !3936

141:                                              ; preds = %138
  call void @llvm.dbg.value(metadata %"struct.Classification::Wordwise::Insn"* %140, metadata !3748, metadata !DIExpression()), !dbg !3937
  call void @llvm.dbg.value(metadata i64 0, metadata !3751, metadata !DIExpression()), !dbg !3938
  %142 = getelementptr inbounds %"struct.Classification::Wordwise::Insn", %"struct.Classification::Wordwise::Insn"* %140, i64 0, i32 5, i64 0, !dbg !3939
  %143 = load i32, i32* %142, align 4, !dbg !3939, !tbaa !3111
  switch i32 %143, label %147 [
    i32 -2147483645, label %145
    i32 -2147483646, label %144
  ], !dbg !3940

144:                                              ; preds = %141
  br label %145, !dbg !3941

145:                                              ; preds = %141, %144
  %146 = phi i32 [ %4, %144 ], [ %135, %141 ]
  store i32 %146, i32* %142, align 4, !dbg !3942, !tbaa !3111
  br label %147, !dbg !3939

147:                                              ; preds = %145, %141
  call void @llvm.dbg.value(metadata i64 1, metadata !3751, metadata !DIExpression()), !dbg !3938
  %148 = getelementptr inbounds %"struct.Classification::Wordwise::Insn", %"struct.Classification::Wordwise::Insn"* %140, i64 0, i32 5, i64 1, !dbg !3939
  %149 = load i32, i32* %148, align 4, !dbg !3939, !tbaa !3111
  switch i32 %149, label %153 [
    i32 -2147483645, label %150
    i32 -2147483646, label %151
  ], !dbg !3940

150:                                              ; preds = %147
  br label %151, !dbg !3943

151:                                              ; preds = %147, %150
  %152 = phi i32 [ %135, %150 ], [ %4, %147 ]
  store i32 %152, i32* %148, align 4, !dbg !3942, !tbaa !3111
  br label %153, !dbg !3944

153:                                              ; preds = %151, %147
  call void @llvm.dbg.value(metadata i64 2, metadata !3751, metadata !DIExpression()), !dbg !3938
  %154 = add i32 %139, 1, !dbg !3944
  call void @llvm.dbg.value(metadata i32 %154, metadata !3746, metadata !DIExpression()), !dbg !3933
  %155 = icmp eq i32 %154, %135, !dbg !3934
  br i1 %155, label %286, label %138, !dbg !3935, !llvm.loop !3945

156:                                              ; preds = %306
  %157 = landingpad { i8*, i32 }
          cleanup, !dbg !3947
  br label %334, !dbg !3947

158:                                              ; preds = %300
  %159 = landingpad { i8*, i32 }
          cleanup, !dbg !3947
  br label %334, !dbg !3947

160:                                              ; preds = %127
  %161 = landingpad { i8*, i32 }
          cleanup, !dbg !3948
  br label %334, !dbg !3948

162:                                              ; preds = %268
  %163 = landingpad { i8*, i32 }
          cleanup, !dbg !3948
  br label %334, !dbg !3948

164:                                              ; preds = %138
  %165 = landingpad { i8*, i32 }
          cleanup, !dbg !3948
  br label %334, !dbg !3948

166:                                              ; preds = %174
  %167 = landingpad { i8*, i32 }
          cleanup, !dbg !3948
  br label %334, !dbg !3948

168:                                              ; preds = %248
  %169 = landingpad { i8*, i32 }
          cleanup, !dbg !3948
  br label %334, !dbg !3948

170:                                              ; preds = %130
  %171 = landingpad { i8*, i32 }
          cleanup, !dbg !3948
  br label %334, !dbg !3948

172:                                              ; preds = %134
  call void @llvm.dbg.value(metadata %"class.Classification::Wordwise::Program"* %0, metadata !3741, metadata !DIExpression()), !dbg !3949
  call void @llvm.dbg.value(metadata i32 %131, metadata !3742, metadata !DIExpression()), !dbg !3949
  call void @llvm.dbg.value(metadata i32 %135, metadata !3743, metadata !DIExpression()), !dbg !3949
  call void @llvm.dbg.value(metadata i32 %3, metadata !3744, metadata !DIExpression()), !dbg !3949
  call void @llvm.dbg.value(metadata i32 %135, metadata !3745, metadata !DIExpression()), !dbg !3949
  call void @llvm.dbg.value(metadata i32 %131, metadata !3746, metadata !DIExpression()), !dbg !3951
  %173 = icmp slt i32 %131, %135, !dbg !3952
  br i1 %173, label %174, label %286, !dbg !3953

174:                                              ; preds = %172, %189
  %175 = phi i32 [ %190, %189 ], [ %131, %172 ]
  call void @llvm.dbg.value(metadata i32 %175, metadata !3746, metadata !DIExpression()), !dbg !3951
  %176 = invoke dereferenceable(20) %"struct.Classification::Wordwise::Insn"* @_ZN6VectorIN14Classification8Wordwise4InsnEEixEi(%class.Vector* %10, i32 %175)
          to label %177 unwind label %166, !dbg !3954

177:                                              ; preds = %174
  call void @llvm.dbg.value(metadata %"struct.Classification::Wordwise::Insn"* %176, metadata !3748, metadata !DIExpression()), !dbg !3955
  call void @llvm.dbg.value(metadata i64 0, metadata !3751, metadata !DIExpression()), !dbg !3956
  %178 = getelementptr inbounds %"struct.Classification::Wordwise::Insn", %"struct.Classification::Wordwise::Insn"* %176, i64 0, i32 5, i64 0, !dbg !3957
  %179 = load i32, i32* %178, align 4, !dbg !3957, !tbaa !3111
  switch i32 %179, label %183 [
    i32 -2147483645, label %181
    i32 -2147483646, label %180
  ], !dbg !3958

180:                                              ; preds = %177
  br label %181, !dbg !3959

181:                                              ; preds = %177, %180
  %182 = phi i32 [ %135, %180 ], [ %3, %177 ]
  store i32 %182, i32* %178, align 4, !dbg !3960, !tbaa !3111
  br label %183, !dbg !3957

183:                                              ; preds = %181, %177
  call void @llvm.dbg.value(metadata i64 1, metadata !3751, metadata !DIExpression()), !dbg !3956
  %184 = getelementptr inbounds %"struct.Classification::Wordwise::Insn", %"struct.Classification::Wordwise::Insn"* %176, i64 0, i32 5, i64 1, !dbg !3957
  %185 = load i32, i32* %184, align 4, !dbg !3957, !tbaa !3111
  switch i32 %185, label %189 [
    i32 -2147483645, label %186
    i32 -2147483646, label %187
  ], !dbg !3958

186:                                              ; preds = %183
  br label %187, !dbg !3961

187:                                              ; preds = %183, %186
  %188 = phi i32 [ %3, %186 ], [ %135, %183 ]
  store i32 %188, i32* %184, align 4, !dbg !3960, !tbaa !3111
  br label %189, !dbg !3962

189:                                              ; preds = %187, %183
  call void @llvm.dbg.value(metadata i64 2, metadata !3751, metadata !DIExpression()), !dbg !3956
  %190 = add i32 %175, 1, !dbg !3962
  call void @llvm.dbg.value(metadata i32 %190, metadata !3746, metadata !DIExpression()), !dbg !3951
  %191 = icmp eq i32 %190, %135, !dbg !3952
  br i1 %191, label %286, label %174, !dbg !3953, !llvm.loop !3963

192:                                              ; preds = %134
  call void @llvm.dbg.value(metadata %class.Vector.1* %6, metadata !3887, metadata !DIExpression()), !dbg !3965
  %193 = load i32, i32* %93, align 8, !dbg !3967, !tbaa !3894
  %194 = add nsw i32 %193, -2, !dbg !3968
  %195 = icmp slt i32 %128, %194, !dbg !3969
  br i1 %195, label %196, label %246, !dbg !3970

196:                                              ; preds = %192
  %197 = add nsw i32 %128, 2, !dbg !3971
  %198 = invoke dereferenceable(4) i32* @_ZN6VectorIiEixEi(%class.Vector.1* nonnull %6, i32 %197)
          to label %199 unwind label %244, !dbg !3972

199:                                              ; preds = %196
  %200 = load i32, i32* %198, align 4, !dbg !3972, !tbaa !3111
  call void @llvm.dbg.value(metadata i32 %200, metadata !3793, metadata !DIExpression()), !dbg !3973
  call void @llvm.dbg.value(metadata %"class.Classification::Wordwise::Program"* %0, metadata !3741, metadata !DIExpression()), !dbg !3974
  call void @llvm.dbg.value(metadata i32 %131, metadata !3742, metadata !DIExpression()), !dbg !3974
  call void @llvm.dbg.value(metadata i32 %135, metadata !3743, metadata !DIExpression()), !dbg !3974
  call void @llvm.dbg.value(metadata i32 %135, metadata !3744, metadata !DIExpression()), !dbg !3974
  call void @llvm.dbg.value(metadata i32 %200, metadata !3745, metadata !DIExpression()), !dbg !3974
  call void @llvm.dbg.value(metadata i32 %131, metadata !3746, metadata !DIExpression()), !dbg !3976
  %201 = icmp slt i32 %131, %135, !dbg !3977
  br i1 %201, label %202, label %220, !dbg !3978

202:                                              ; preds = %199, %217
  %203 = phi i32 [ %218, %217 ], [ %131, %199 ]
  call void @llvm.dbg.value(metadata i32 %203, metadata !3746, metadata !DIExpression()), !dbg !3976
  %204 = invoke dereferenceable(20) %"struct.Classification::Wordwise::Insn"* @_ZN6VectorIN14Classification8Wordwise4InsnEEixEi(%class.Vector* %10, i32 %203)
          to label %205 unwind label %242, !dbg !3979

205:                                              ; preds = %202
  call void @llvm.dbg.value(metadata %"struct.Classification::Wordwise::Insn"* %204, metadata !3748, metadata !DIExpression()), !dbg !3980
  call void @llvm.dbg.value(metadata i64 0, metadata !3751, metadata !DIExpression()), !dbg !3981
  %206 = getelementptr inbounds %"struct.Classification::Wordwise::Insn", %"struct.Classification::Wordwise::Insn"* %204, i64 0, i32 5, i64 0, !dbg !3982
  %207 = load i32, i32* %206, align 4, !dbg !3982, !tbaa !3111
  switch i32 %207, label %211 [
    i32 -2147483645, label %209
    i32 -2147483646, label %208
  ], !dbg !3983

208:                                              ; preds = %205
  br label %209, !dbg !3984

209:                                              ; preds = %205, %208
  %210 = phi i32 [ %200, %208 ], [ %135, %205 ]
  store i32 %210, i32* %206, align 4, !dbg !3985, !tbaa !3111
  br label %211, !dbg !3982

211:                                              ; preds = %209, %205
  call void @llvm.dbg.value(metadata i64 1, metadata !3751, metadata !DIExpression()), !dbg !3981
  %212 = getelementptr inbounds %"struct.Classification::Wordwise::Insn", %"struct.Classification::Wordwise::Insn"* %204, i64 0, i32 5, i64 1, !dbg !3982
  %213 = load i32, i32* %212, align 4, !dbg !3982, !tbaa !3111
  switch i32 %213, label %217 [
    i32 -2147483645, label %214
    i32 -2147483646, label %215
  ], !dbg !3983

214:                                              ; preds = %211
  br label %215, !dbg !3986

215:                                              ; preds = %211, %214
  %216 = phi i32 [ %135, %214 ], [ %200, %211 ]
  store i32 %216, i32* %212, align 4, !dbg !3985, !tbaa !3111
  br label %217, !dbg !3987

217:                                              ; preds = %215, %211
  call void @llvm.dbg.value(metadata i64 2, metadata !3751, metadata !DIExpression()), !dbg !3981
  %218 = add i32 %203, 1, !dbg !3987
  call void @llvm.dbg.value(metadata i32 %218, metadata !3746, metadata !DIExpression()), !dbg !3976
  %219 = icmp eq i32 %218, %135, !dbg !3977
  br i1 %219, label %220, label %202, !dbg !3978, !llvm.loop !3988

220:                                              ; preds = %217, %199
  call void @llvm.dbg.value(metadata %"class.Classification::Wordwise::Program"* %0, metadata !3741, metadata !DIExpression()), !dbg !3990
  call void @llvm.dbg.value(metadata i32 %135, metadata !3742, metadata !DIExpression()), !dbg !3990
  call void @llvm.dbg.value(metadata i32 %200, metadata !3743, metadata !DIExpression()), !dbg !3990
  call void @llvm.dbg.value(metadata i32 %3, metadata !3744, metadata !DIExpression()), !dbg !3990
  call void @llvm.dbg.value(metadata i32 %4, metadata !3745, metadata !DIExpression()), !dbg !3990
  call void @llvm.dbg.value(metadata i32 %135, metadata !3746, metadata !DIExpression()), !dbg !3992
  %221 = icmp slt i32 %135, %200, !dbg !3993
  br i1 %221, label %222, label %286, !dbg !3994

222:                                              ; preds = %220, %237
  %223 = phi i32 [ %238, %237 ], [ %135, %220 ]
  call void @llvm.dbg.value(metadata i32 %223, metadata !3746, metadata !DIExpression()), !dbg !3992
  %224 = invoke dereferenceable(20) %"struct.Classification::Wordwise::Insn"* @_ZN6VectorIN14Classification8Wordwise4InsnEEixEi(%class.Vector* %10, i32 %223)
          to label %225 unwind label %240, !dbg !3995

225:                                              ; preds = %222
  call void @llvm.dbg.value(metadata %"struct.Classification::Wordwise::Insn"* %224, metadata !3748, metadata !DIExpression()), !dbg !3996
  call void @llvm.dbg.value(metadata i64 0, metadata !3751, metadata !DIExpression()), !dbg !3997
  %226 = getelementptr inbounds %"struct.Classification::Wordwise::Insn", %"struct.Classification::Wordwise::Insn"* %224, i64 0, i32 5, i64 0, !dbg !3998
  %227 = load i32, i32* %226, align 4, !dbg !3998, !tbaa !3111
  switch i32 %227, label %231 [
    i32 -2147483645, label %229
    i32 -2147483646, label %228
  ], !dbg !3999

228:                                              ; preds = %225
  br label %229, !dbg !4000

229:                                              ; preds = %225, %228
  %230 = phi i32 [ %4, %228 ], [ %3, %225 ]
  store i32 %230, i32* %226, align 4, !dbg !4001, !tbaa !3111
  br label %231, !dbg !3998

231:                                              ; preds = %229, %225
  call void @llvm.dbg.value(metadata i64 1, metadata !3751, metadata !DIExpression()), !dbg !3997
  %232 = getelementptr inbounds %"struct.Classification::Wordwise::Insn", %"struct.Classification::Wordwise::Insn"* %224, i64 0, i32 5, i64 1, !dbg !3998
  %233 = load i32, i32* %232, align 4, !dbg !3998, !tbaa !3111
  switch i32 %233, label %237 [
    i32 -2147483645, label %234
    i32 -2147483646, label %235
  ], !dbg !3999

234:                                              ; preds = %231
  br label %235, !dbg !4002

235:                                              ; preds = %231, %234
  %236 = phi i32 [ %3, %234 ], [ %4, %231 ]
  store i32 %236, i32* %232, align 4, !dbg !4001, !tbaa !3111
  br label %237, !dbg !4003

237:                                              ; preds = %235, %231
  call void @llvm.dbg.value(metadata i64 2, metadata !3751, metadata !DIExpression()), !dbg !3997
  %238 = add i32 %223, 1, !dbg !4003
  call void @llvm.dbg.value(metadata i32 %238, metadata !3746, metadata !DIExpression()), !dbg !3992
  %239 = icmp eq i32 %238, %200, !dbg !3993
  br i1 %239, label %286, label %222, !dbg !3994, !llvm.loop !4004

240:                                              ; preds = %222
  %241 = landingpad { i8*, i32 }
          cleanup, !dbg !4006
  br label %334, !dbg !4006

242:                                              ; preds = %202
  %243 = landingpad { i8*, i32 }
          cleanup, !dbg !4006
  br label %334, !dbg !4006

244:                                              ; preds = %196
  %245 = landingpad { i8*, i32 }
          cleanup, !dbg !4006
  br label %334, !dbg !4006

246:                                              ; preds = %192
  call void @llvm.dbg.value(metadata %"class.Classification::Wordwise::Program"* %0, metadata !3741, metadata !DIExpression()), !dbg !4007
  call void @llvm.dbg.value(metadata i32 %131, metadata !3742, metadata !DIExpression()), !dbg !4007
  call void @llvm.dbg.value(metadata i32 %135, metadata !3743, metadata !DIExpression()), !dbg !4007
  call void @llvm.dbg.value(metadata i32 %135, metadata !3744, metadata !DIExpression()), !dbg !4007
  call void @llvm.dbg.value(metadata i32 %4, metadata !3745, metadata !DIExpression()), !dbg !4007
  call void @llvm.dbg.value(metadata i32 %131, metadata !3746, metadata !DIExpression()), !dbg !4009
  %247 = icmp slt i32 %131, %135, !dbg !4010
  br i1 %247, label %248, label %286, !dbg !4011

248:                                              ; preds = %246, %263
  %249 = phi i32 [ %264, %263 ], [ %131, %246 ]
  call void @llvm.dbg.value(metadata i32 %249, metadata !3746, metadata !DIExpression()), !dbg !4009
  %250 = invoke dereferenceable(20) %"struct.Classification::Wordwise::Insn"* @_ZN6VectorIN14Classification8Wordwise4InsnEEixEi(%class.Vector* %10, i32 %249)
          to label %251 unwind label %168, !dbg !4012

251:                                              ; preds = %248
  call void @llvm.dbg.value(metadata %"struct.Classification::Wordwise::Insn"* %250, metadata !3748, metadata !DIExpression()), !dbg !4013
  call void @llvm.dbg.value(metadata i64 0, metadata !3751, metadata !DIExpression()), !dbg !4014
  %252 = getelementptr inbounds %"struct.Classification::Wordwise::Insn", %"struct.Classification::Wordwise::Insn"* %250, i64 0, i32 5, i64 0, !dbg !4015
  %253 = load i32, i32* %252, align 4, !dbg !4015, !tbaa !3111
  switch i32 %253, label %257 [
    i32 -2147483645, label %255
    i32 -2147483646, label %254
  ], !dbg !4016

254:                                              ; preds = %251
  br label %255, !dbg !4017

255:                                              ; preds = %251, %254
  %256 = phi i32 [ %4, %254 ], [ %135, %251 ]
  store i32 %256, i32* %252, align 4, !dbg !4018, !tbaa !3111
  br label %257, !dbg !4015

257:                                              ; preds = %255, %251
  call void @llvm.dbg.value(metadata i64 1, metadata !3751, metadata !DIExpression()), !dbg !4014
  %258 = getelementptr inbounds %"struct.Classification::Wordwise::Insn", %"struct.Classification::Wordwise::Insn"* %250, i64 0, i32 5, i64 1, !dbg !4015
  %259 = load i32, i32* %258, align 4, !dbg !4015, !tbaa !3111
  switch i32 %259, label %263 [
    i32 -2147483645, label %260
    i32 -2147483646, label %261
  ], !dbg !4016

260:                                              ; preds = %257
  br label %261, !dbg !4019

261:                                              ; preds = %257, %260
  %262 = phi i32 [ %135, %260 ], [ %4, %257 ]
  store i32 %262, i32* %258, align 4, !dbg !4018, !tbaa !3111
  br label %263, !dbg !4020

263:                                              ; preds = %261, %257
  call void @llvm.dbg.value(metadata i64 2, metadata !3751, metadata !DIExpression()), !dbg !4014
  %264 = add i32 %249, 1, !dbg !4020
  call void @llvm.dbg.value(metadata i32 %264, metadata !3746, metadata !DIExpression()), !dbg !4009
  %265 = icmp eq i32 %264, %135, !dbg !4010
  br i1 %265, label %286, label %248, !dbg !4011, !llvm.loop !4021

266:                                              ; preds = %134
  call void @llvm.dbg.value(metadata %"class.Classification::Wordwise::Program"* %0, metadata !3741, metadata !DIExpression()), !dbg !4023
  call void @llvm.dbg.value(metadata i32 %131, metadata !3742, metadata !DIExpression()), !dbg !4023
  call void @llvm.dbg.value(metadata i32 %135, metadata !3743, metadata !DIExpression()), !dbg !4023
  call void @llvm.dbg.value(metadata i32 %3, metadata !3744, metadata !DIExpression()), !dbg !4023
  call void @llvm.dbg.value(metadata i32 %4, metadata !3745, metadata !DIExpression()), !dbg !4023
  call void @llvm.dbg.value(metadata i32 %131, metadata !3746, metadata !DIExpression()), !dbg !4025
  %267 = icmp slt i32 %131, %135, !dbg !4026
  br i1 %267, label %268, label %286, !dbg !4027

268:                                              ; preds = %266, %283
  %269 = phi i32 [ %284, %283 ], [ %131, %266 ]
  call void @llvm.dbg.value(metadata i32 %269, metadata !3746, metadata !DIExpression()), !dbg !4025
  %270 = invoke dereferenceable(20) %"struct.Classification::Wordwise::Insn"* @_ZN6VectorIN14Classification8Wordwise4InsnEEixEi(%class.Vector* %10, i32 %269)
          to label %271 unwind label %162, !dbg !4028

271:                                              ; preds = %268
  call void @llvm.dbg.value(metadata %"struct.Classification::Wordwise::Insn"* %270, metadata !3748, metadata !DIExpression()), !dbg !4029
  call void @llvm.dbg.value(metadata i64 0, metadata !3751, metadata !DIExpression()), !dbg !4030
  %272 = getelementptr inbounds %"struct.Classification::Wordwise::Insn", %"struct.Classification::Wordwise::Insn"* %270, i64 0, i32 5, i64 0, !dbg !4031
  %273 = load i32, i32* %272, align 4, !dbg !4031, !tbaa !3111
  switch i32 %273, label %277 [
    i32 -2147483645, label %275
    i32 -2147483646, label %274
  ], !dbg !4032

274:                                              ; preds = %271
  br label %275, !dbg !4033

275:                                              ; preds = %271, %274
  %276 = phi i32 [ %4, %274 ], [ %3, %271 ]
  store i32 %276, i32* %272, align 4, !dbg !4034, !tbaa !3111
  br label %277, !dbg !4031

277:                                              ; preds = %275, %271
  call void @llvm.dbg.value(metadata i64 1, metadata !3751, metadata !DIExpression()), !dbg !4030
  %278 = getelementptr inbounds %"struct.Classification::Wordwise::Insn", %"struct.Classification::Wordwise::Insn"* %270, i64 0, i32 5, i64 1, !dbg !4031
  %279 = load i32, i32* %278, align 4, !dbg !4031, !tbaa !3111
  switch i32 %279, label %283 [
    i32 -2147483645, label %280
    i32 -2147483646, label %281
  ], !dbg !4032

280:                                              ; preds = %277
  br label %281, !dbg !4035

281:                                              ; preds = %277, %280
  %282 = phi i32 [ %3, %280 ], [ %4, %277 ]
  store i32 %282, i32* %278, align 4, !dbg !4034, !tbaa !3111
  br label %283, !dbg !4036

283:                                              ; preds = %281, %277
  call void @llvm.dbg.value(metadata i64 2, metadata !3751, metadata !DIExpression()), !dbg !4030
  %284 = add i32 %269, 1, !dbg !4036
  call void @llvm.dbg.value(metadata i32 %284, metadata !3746, metadata !DIExpression()), !dbg !4025
  %285 = icmp eq i32 %284, %135, !dbg !4026
  br i1 %285, label %286, label %268, !dbg !4027, !llvm.loop !4037

286:                                              ; preds = %263, %237, %189, %153, %283, %266, %246, %220, %172, %136
  %287 = phi i32 [ %128, %136 ], [ %128, %172 ], [ %132, %220 ], [ %128, %246 ], [ %128, %266 ], [ %128, %283 ], [ %128, %153 ], [ %128, %189 ], [ %132, %237 ], [ %128, %263 ], !dbg !4039
  call void @llvm.dbg.value(metadata i32 %287, metadata !3787, metadata !DIExpression()), !dbg !3912
  %288 = add nsw i32 %287, 1, !dbg !4040
  call void @llvm.dbg.value(metadata i32 %288, metadata !3787, metadata !DIExpression()), !dbg !3912
  call void @llvm.dbg.value(metadata %class.Vector.1* %6, metadata !3887, metadata !DIExpression()), !dbg !3913
  %289 = load i32, i32* %93, align 8, !dbg !3915, !tbaa !3894
  %290 = add nsw i32 %289, -1, !dbg !3916
  %291 = icmp slt i32 %288, %290, !dbg !3917
  br i1 %291, label %127, label %292, !dbg !3918, !llvm.loop !4041

292:                                              ; preds = %286, %110
  %293 = phi i32 [ 0, %110 ], [ %288, %286 ], !dbg !4039
  %294 = phi i32 [ %111, %110 ], [ %289, %286 ], !dbg !3915
  %295 = phi i32 [ %112, %110 ], [ %290, %286 ], !dbg !3916
  call void @llvm.dbg.value(metadata i32 %293, metadata !3787, metadata !DIExpression()), !dbg !3912
  call void @llvm.dbg.value(metadata %class.Vector.1* %6, metadata !3887, metadata !DIExpression()), !dbg !4043
  %296 = icmp slt i32 %293, %294, !dbg !4046
  br i1 %296, label %297, label %324, !dbg !4047

297:                                              ; preds = %292
  call void @llvm.dbg.value(metadata %class.Vector.1* %6, metadata !3887, metadata !DIExpression()), !dbg !4048
  %298 = icmp eq i32 %293, %295, !dbg !4051
  br i1 %298, label %300, label %299, !dbg !4051

299:                                              ; preds = %297
  call void @__assert_fail(i8* getelementptr inbounds ([25 x i8], [25 x i8]* @.str.8, i64 0, i64 0), i8* getelementptr inbounds ([39 x i8], [39 x i8]* @.str.1, i64 0, i64 0), i32 269, i8* getelementptr inbounds ([106 x i8], [106 x i8]* @__PRETTY_FUNCTION__._ZN14Classification8Wordwise7Program14finish_subtreeER6VectorIiENS_8CombinerEii, i64 0, i64 0)) #19, !dbg !4051
  unreachable, !dbg !4051

300:                                              ; preds = %297
  %301 = invoke dereferenceable(4) i32* @_ZN6VectorIiEixEi(%class.Vector.1* nonnull %6, i32 %293)
          to label %302 unwind label %158, !dbg !4052

302:                                              ; preds = %300
  %303 = load i32, i32* %301, align 4, !dbg !4052, !tbaa !3111
  call void @llvm.dbg.value(metadata %class.Vector* %10, metadata !3510, metadata !DIExpression()), !dbg !4053
  %304 = load i32, i32* %11, align 8, !dbg !4055, !tbaa !3517
  call void @llvm.dbg.value(metadata %"class.Classification::Wordwise::Program"* %0, metadata !3741, metadata !DIExpression()), !dbg !4056
  call void @llvm.dbg.value(metadata i32 %303, metadata !3742, metadata !DIExpression()), !dbg !4056
  call void @llvm.dbg.value(metadata i32 %304, metadata !3743, metadata !DIExpression()), !dbg !4056
  call void @llvm.dbg.value(metadata i32 %3, metadata !3744, metadata !DIExpression()), !dbg !4056
  call void @llvm.dbg.value(metadata i32 %4, metadata !3745, metadata !DIExpression()), !dbg !4056
  call void @llvm.dbg.value(metadata i32 %303, metadata !3746, metadata !DIExpression()), !dbg !4058
  %305 = icmp slt i32 %303, %304, !dbg !4059
  br i1 %305, label %306, label %324, !dbg !4060

306:                                              ; preds = %302, %321
  %307 = phi i32 [ %322, %321 ], [ %303, %302 ]
  call void @llvm.dbg.value(metadata i32 %307, metadata !3746, metadata !DIExpression()), !dbg !4058
  %308 = invoke dereferenceable(20) %"struct.Classification::Wordwise::Insn"* @_ZN6VectorIN14Classification8Wordwise4InsnEEixEi(%class.Vector* %10, i32 %307)
          to label %309 unwind label %156, !dbg !4061

309:                                              ; preds = %306
  call void @llvm.dbg.value(metadata %"struct.Classification::Wordwise::Insn"* %308, metadata !3748, metadata !DIExpression()), !dbg !4062
  call void @llvm.dbg.value(metadata i64 0, metadata !3751, metadata !DIExpression()), !dbg !4063
  %310 = getelementptr inbounds %"struct.Classification::Wordwise::Insn", %"struct.Classification::Wordwise::Insn"* %308, i64 0, i32 5, i64 0, !dbg !4064
  %311 = load i32, i32* %310, align 4, !dbg !4064, !tbaa !3111
  switch i32 %311, label %315 [
    i32 -2147483645, label %313
    i32 -2147483646, label %312
  ], !dbg !4065

312:                                              ; preds = %309
  br label %313, !dbg !4066

313:                                              ; preds = %309, %312
  %314 = phi i32 [ %4, %312 ], [ %3, %309 ]
  store i32 %314, i32* %310, align 4, !dbg !4067, !tbaa !3111
  br label %315, !dbg !4064

315:                                              ; preds = %313, %309
  call void @llvm.dbg.value(metadata i64 1, metadata !3751, metadata !DIExpression()), !dbg !4063
  %316 = getelementptr inbounds %"struct.Classification::Wordwise::Insn", %"struct.Classification::Wordwise::Insn"* %308, i64 0, i32 5, i64 1, !dbg !4064
  %317 = load i32, i32* %316, align 4, !dbg !4064, !tbaa !3111
  switch i32 %317, label %321 [
    i32 -2147483645, label %318
    i32 -2147483646, label %319
  ], !dbg !4065

318:                                              ; preds = %315
  br label %319, !dbg !4068

319:                                              ; preds = %315, %318
  %320 = phi i32 [ %3, %318 ], [ %4, %315 ]
  store i32 %320, i32* %316, align 4, !dbg !4067, !tbaa !3111
  br label %321, !dbg !4069

321:                                              ; preds = %319, %315
  call void @llvm.dbg.value(metadata i64 2, metadata !3751, metadata !DIExpression()), !dbg !4063
  %322 = add i32 %307, 1, !dbg !4069
  call void @llvm.dbg.value(metadata i32 %322, metadata !3746, metadata !DIExpression()), !dbg !4058
  %323 = icmp eq i32 %322, %304, !dbg !4059
  br i1 %323, label %324, label %306, !dbg !4060, !llvm.loop !4070

324:                                              ; preds = %321, %302, %292, %92
  %325 = invoke dereferenceable(4) i32* @_ZN6VectorIiEixEi(%class.Vector.1* nonnull %1, i32 0)
          to label %326 unwind label %114, !dbg !4072

326:                                              ; preds = %324
  %327 = load i32, i32* %325, align 4, !dbg !4073, !tbaa !3111
  %328 = add nsw i32 %327, -1, !dbg !4073
  store i32 %328, i32* %325, align 4, !dbg !4073, !tbaa !3111
  call void @llvm.dbg.value(metadata %class.Vector.1* %6, metadata !3564, metadata !DIExpression()) #18, !dbg !4074
  call void @llvm.dbg.value(metadata %class.Vector.1* %6, metadata !3549, metadata !DIExpression()) #18, !dbg !4076
  %329 = bitcast %class.Vector.1* %6 to i8**, !dbg !4078
  %330 = load i8*, i8** %329, align 8, !dbg !4079, !tbaa !3558
  %331 = icmp eq i8* %330, null, !dbg !4079
  br i1 %331, label %333, label %332, !dbg !4079

332:                                              ; preds = %326
  call void @_ZdaPv(i8* nonnull %330) #20, !dbg !4079
  br label %333, !dbg !4079

333:                                              ; preds = %326, %332
  call void @llvm.lifetime.end.p0i8(i64 16, i8* nonnull %9) #18, !dbg !4080
  ret void, !dbg !4080

334:                                              ; preds = %240, %244, %242, %162, %166, %170, %168, %164, %156, %158, %116, %118, %28, %32, %30, %160, %114
  %335 = phi { i8*, i32 } [ %161, %160 ], [ %115, %114 ], [ %29, %28 ], [ %31, %30 ], [ %33, %32 ], [ %117, %116 ], [ %119, %118 ], [ %157, %156 ], [ %159, %158 ], [ %163, %162 ], [ %165, %164 ], [ %167, %166 ], [ %169, %168 ], [ %171, %170 ], [ %241, %240 ], [ %243, %242 ], [ %245, %244 ]
  call void @llvm.dbg.value(metadata %class.Vector.1* %6, metadata !3564, metadata !DIExpression()) #18, !dbg !4081
  call void @llvm.dbg.value(metadata %class.Vector.1* %6, metadata !3549, metadata !DIExpression()) #18, !dbg !4083
  %336 = bitcast %class.Vector.1* %6 to i8**, !dbg !4085
  %337 = load i8*, i8** %336, align 8, !dbg !4086, !tbaa !3558
  %338 = icmp eq i8* %337, null, !dbg !4086
  br i1 %338, label %340, label %339, !dbg !4086

339:                                              ; preds = %334
  call void @_ZdaPv(i8* nonnull %337) #20, !dbg !4086
  br label %340, !dbg !4086

340:                                              ; preds = %334, %339
  call void @llvm.lifetime.end.p0i8(i64 16, i8* nonnull %9) #18, !dbg !4080
  resume { i8*, i32 } %335, !dbg !4080
}

; Function Attrs: sspstrong uwtable
define dso_local void @_ZN14Classification8Wordwise7Program14negate_subtreeER6VectorIiEb(%"class.Classification::Wordwise::Program"* %0, %class.Vector.1* dereferenceable(16) %1, i1 zeroext %2) local_unnamed_addr #6 align 2 !dbg !4087 {
  call void @llvm.dbg.value(metadata %"class.Classification::Wordwise::Program"* %0, metadata !4089, metadata !DIExpression()), !dbg !4099
  call void @llvm.dbg.value(metadata %class.Vector.1* %1, metadata !4090, metadata !DIExpression()), !dbg !4099
  call void @llvm.dbg.value(metadata i1 %2, metadata !4091, metadata !DIExpression()), !dbg !4099
  %4 = tail call dereferenceable(4) i32* @_ZN6VectorIiEixEi(%class.Vector.1* nonnull %1, i32 0), !dbg !4100
  %5 = load i32, i32* %4, align 4, !dbg !4100, !tbaa !3111
  call void @llvm.dbg.value(metadata i32 %5, metadata !4092, metadata !DIExpression()), !dbg !4099
  %6 = getelementptr inbounds %"class.Classification::Wordwise::Program", %"class.Classification::Wordwise::Program"* %0, i64 0, i32 0, !dbg !4101
  call void @llvm.dbg.value(metadata %class.Vector* %6, metadata !3510, metadata !DIExpression()), !dbg !4102
  %7 = getelementptr inbounds %"class.Classification::Wordwise::Program", %"class.Classification::Wordwise::Program"* %0, i64 0, i32 0, i32 0, i32 1, !dbg !4104
  %8 = load i32, i32* %7, align 8, !dbg !4104, !tbaa !3517
  call void @llvm.dbg.value(metadata i32 %8, metadata !4093, metadata !DIExpression(DW_OP_constu, 1, DW_OP_minus, DW_OP_stack_value)), !dbg !4099
  br label %9, !dbg !4105

9:                                                ; preds = %13, %3
  %10 = phi i32 [ %8, %3 ], [ %11, %13 ]
  %11 = add nsw i32 %10, -1, !dbg !4099
  call void @llvm.dbg.value(metadata i32 %11, metadata !4093, metadata !DIExpression()), !dbg !4099
  %12 = icmp sgt i32 %10, 0, !dbg !4106
  br i1 %12, label %13, label %44, !dbg !4107

13:                                               ; preds = %9
  %14 = tail call dereferenceable(4) i32* @_ZN6VectorIiEixEi(%class.Vector.1* nonnull %1, i32 %10), !dbg !4108
  %15 = load i32, i32* %14, align 4, !dbg !4108, !tbaa !3111
  %16 = icmp eq i32 %15, %5, !dbg !4109
  br i1 %16, label %17, label %9, !dbg !4105, !llvm.loop !4110

17:                                               ; preds = %13
  call void @llvm.dbg.value(metadata i32 %11, metadata !4094, metadata !DIExpression()), !dbg !4112
  call void @llvm.dbg.value(metadata i32 %11, metadata !4094, metadata !DIExpression()), !dbg !4112
  call void @llvm.dbg.value(metadata i32 %11, metadata !4094, metadata !DIExpression()), !dbg !4112
  call void @llvm.dbg.value(metadata %class.Vector* %6, metadata !3510, metadata !DIExpression()), !dbg !4113
  call void @llvm.dbg.value(metadata %class.Vector* %6, metadata !3510, metadata !DIExpression()), !dbg !4113
  %18 = load i32, i32* %7, align 8, !dbg !4115, !tbaa !3517
  %19 = icmp sgt i32 %10, %18, !dbg !4116
  br i1 %2, label %21, label %20, !dbg !4117

20:                                               ; preds = %17
  br i1 %19, label %44, label %45, !dbg !4118

21:                                               ; preds = %17
  br i1 %19, label %44, label %22, !dbg !4118

22:                                               ; preds = %21, %36
  %23 = phi i32 [ %41, %36 ], [ %11, %21 ]
  call void @llvm.dbg.value(metadata i32 %23, metadata !4094, metadata !DIExpression()), !dbg !4112
  %24 = tail call dereferenceable(20) %"struct.Classification::Wordwise::Insn"* @_ZN6VectorIN14Classification8Wordwise4InsnEEixEi(%class.Vector* nonnull %6, i32 %23), !dbg !4119
  call void @llvm.dbg.value(metadata %"struct.Classification::Wordwise::Insn"* %24, metadata !4096, metadata !DIExpression()), !dbg !4120
  call void @llvm.dbg.value(metadata %"struct.Classification::Wordwise::Insn"* %24, metadata !3105, metadata !DIExpression()), !dbg !4121
  %25 = getelementptr inbounds %"struct.Classification::Wordwise::Insn", %"struct.Classification::Wordwise::Insn"* %24, i64 0, i32 5, i64 1, !dbg !4124
  %26 = load i32, i32* %25, align 4, !dbg !4124, !tbaa !3111
  switch i32 %26, label %30 [
    i32 -2147483646, label %27
    i32 -2147483645, label %28
  ], !dbg !4125

27:                                               ; preds = %22
  call void @llvm.dbg.value(metadata %"struct.Classification::Wordwise::Insn"* %24, metadata !4126, metadata !DIExpression()), !dbg !4130
  call void @llvm.dbg.value(metadata i32 -2147483645, metadata !4129, metadata !DIExpression()), !dbg !4130
  br label %28, !dbg !4132

28:                                               ; preds = %22, %27
  %29 = phi i32 [ -2147483645, %27 ], [ -2147483646, %22 ]
  store i32 %29, i32* %25, align 4, !dbg !4133, !tbaa !3111
  br label %30, !dbg !4134

30:                                               ; preds = %28, %22
  call void @llvm.dbg.value(metadata %"struct.Classification::Wordwise::Insn"* %24, metadata !3302, metadata !DIExpression()), !dbg !4137
  %31 = getelementptr inbounds %"struct.Classification::Wordwise::Insn", %"struct.Classification::Wordwise::Insn"* %24, i64 0, i32 5, i64 0, !dbg !4134
  %32 = load i32, i32* %31, align 4, !dbg !4134, !tbaa !3111
  switch i32 %32, label %36 [
    i32 -2147483646, label %33
    i32 -2147483645, label %34
  ], !dbg !4138

33:                                               ; preds = %30
  call void @llvm.dbg.value(metadata %"struct.Classification::Wordwise::Insn"* %24, metadata !4139, metadata !DIExpression()), !dbg !4143
  call void @llvm.dbg.value(metadata i32 -2147483645, metadata !4142, metadata !DIExpression()), !dbg !4143
  br label %34, !dbg !4145

34:                                               ; preds = %30, %33
  %35 = phi i32 [ -2147483645, %33 ], [ -2147483646, %30 ]
  store i32 %35, i32* %31, align 4, !dbg !4146, !tbaa !3111
  br label %36, !dbg !4147

36:                                               ; preds = %34, %30
  %37 = getelementptr inbounds %"struct.Classification::Wordwise::Insn", %"struct.Classification::Wordwise::Insn"* %24, i64 0, i32 2, !dbg !4147
  %38 = load i8, i8* %37, align 1, !dbg !4147, !tbaa !2603
  %39 = icmp eq i8 %38, 0, !dbg !4149
  %40 = zext i1 %39 to i8, !dbg !4150
  store i8 %40, i8* %37, align 1, !dbg !4151, !tbaa !2603
  %41 = add nuw nsw i32 %23, 1, !dbg !4152
  call void @llvm.dbg.value(metadata i32 %41, metadata !4094, metadata !DIExpression()), !dbg !4112
  call void @llvm.dbg.value(metadata %class.Vector* %6, metadata !3510, metadata !DIExpression()), !dbg !4113
  %42 = load i32, i32* %7, align 8, !dbg !4115, !tbaa !3517
  %43 = icmp slt i32 %41, %42, !dbg !4116
  br i1 %43, label %22, label %44, !dbg !4118

44:                                               ; preds = %9, %59, %36, %20, %21
  ret void, !dbg !4153

45:                                               ; preds = %20, %59
  %46 = phi i32 [ %60, %59 ], [ %11, %20 ]
  call void @llvm.dbg.value(metadata i32 %46, metadata !4094, metadata !DIExpression()), !dbg !4112
  %47 = tail call dereferenceable(20) %"struct.Classification::Wordwise::Insn"* @_ZN6VectorIN14Classification8Wordwise4InsnEEixEi(%class.Vector* nonnull %6, i32 %46), !dbg !4119
  call void @llvm.dbg.value(metadata %"struct.Classification::Wordwise::Insn"* %47, metadata !4096, metadata !DIExpression()), !dbg !4120
  call void @llvm.dbg.value(metadata %"struct.Classification::Wordwise::Insn"* %47, metadata !3105, metadata !DIExpression()), !dbg !4121
  %48 = getelementptr inbounds %"struct.Classification::Wordwise::Insn", %"struct.Classification::Wordwise::Insn"* %47, i64 0, i32 5, i64 1, !dbg !4124
  %49 = load i32, i32* %48, align 4, !dbg !4124, !tbaa !3111
  switch i32 %49, label %53 [
    i32 -2147483646, label %51
    i32 -2147483645, label %50
  ], !dbg !4125

50:                                               ; preds = %45
  call void @llvm.dbg.value(metadata %"struct.Classification::Wordwise::Insn"* %47, metadata !4126, metadata !DIExpression()), !dbg !4154
  call void @llvm.dbg.value(metadata i32 -2147483646, metadata !4129, metadata !DIExpression()), !dbg !4154
  br label %51, !dbg !4157

51:                                               ; preds = %45, %50
  %52 = phi i32 [ -2147483646, %50 ], [ -2147483645, %45 ]
  store i32 %52, i32* %48, align 4, !dbg !4133, !tbaa !3111
  br label %53, !dbg !4134

53:                                               ; preds = %51, %45
  call void @llvm.dbg.value(metadata %"struct.Classification::Wordwise::Insn"* %47, metadata !3302, metadata !DIExpression()), !dbg !4137
  %54 = getelementptr inbounds %"struct.Classification::Wordwise::Insn", %"struct.Classification::Wordwise::Insn"* %47, i64 0, i32 5, i64 0, !dbg !4134
  %55 = load i32, i32* %54, align 4, !dbg !4134, !tbaa !3111
  switch i32 %55, label %59 [
    i32 -2147483646, label %57
    i32 -2147483645, label %56
  ], !dbg !4138

56:                                               ; preds = %53
  call void @llvm.dbg.value(metadata %"struct.Classification::Wordwise::Insn"* %47, metadata !4139, metadata !DIExpression()), !dbg !4158
  call void @llvm.dbg.value(metadata i32 -2147483646, metadata !4142, metadata !DIExpression()), !dbg !4158
  br label %57, !dbg !4161

57:                                               ; preds = %53, %56
  %58 = phi i32 [ -2147483646, %56 ], [ -2147483645, %53 ]
  store i32 %58, i32* %54, align 4, !dbg !4146, !tbaa !3111
  br label %59, !dbg !4152

59:                                               ; preds = %57, %53
  %60 = add nuw nsw i32 %46, 1, !dbg !4152
  call void @llvm.dbg.value(metadata i32 %60, metadata !4094, metadata !DIExpression()), !dbg !4112
  call void @llvm.dbg.value(metadata %class.Vector* %6, metadata !3510, metadata !DIExpression()), !dbg !4113
  %61 = load i32, i32* %7, align 8, !dbg !4115, !tbaa !3517
  %62 = icmp slt i32 %60, %61, !dbg !4116
  br i1 %62, label %45, label %44, !dbg !4118
}

; Function Attrs: sspstrong uwtable
define dso_local void @_ZN14Classification8Wordwise18DominatorOptimizerC2EPNS0_7ProgramE(%"class.Classification::Wordwise::DominatorOptimizer"* %0, %"class.Classification::Wordwise::Program"* %1) unnamed_addr #6 align 2 personality i8* bitcast (i32 (...)* @__gxx_personality_v0 to i8*) !dbg !4162 {
  %3 = alloca i32, align 4
  %4 = alloca i32, align 4
  %5 = alloca %class.Vector.1, align 8
  call void @llvm.dbg.value(metadata %"class.Classification::Wordwise::DominatorOptimizer"* %0, metadata !4164, metadata !DIExpression()), !dbg !4180
  call void @llvm.dbg.value(metadata %"class.Classification::Wordwise::Program"* %1, metadata !4166, metadata !DIExpression()), !dbg !4180
  %6 = getelementptr inbounds %"class.Classification::Wordwise::DominatorOptimizer", %"class.Classification::Wordwise::DominatorOptimizer"* %0, i64 0, i32 0, !dbg !4181
  store %"class.Classification::Wordwise::Program"* %1, %"class.Classification::Wordwise::Program"** %6, align 8, !dbg !4181, !tbaa !4182
  %7 = getelementptr inbounds %"class.Classification::Wordwise::DominatorOptimizer", %"class.Classification::Wordwise::DominatorOptimizer"* %0, i64 0, i32 1, !dbg !4184
  call void @llvm.dbg.value(metadata %"class.Classification::Wordwise::Program"* %1, metadata !4185, metadata !DIExpression()), !dbg !4188
  call void @llvm.dbg.value(metadata %"class.Classification::Wordwise::Program"* %1, metadata !3510, metadata !DIExpression()), !dbg !4190
  %8 = getelementptr inbounds %"class.Classification::Wordwise::Program", %"class.Classification::Wordwise::Program"* %1, i64 0, i32 0, i32 0, i32 1, !dbg !4192
  %9 = load i32, i32* %8, align 8, !dbg !4192, !tbaa !3517
  %10 = bitcast i32* %4 to i8*, !dbg !4193
  call void @llvm.lifetime.start.p0i8(i64 4, i8* nonnull %10), !dbg !4193
  call void @llvm.dbg.value(metadata %class.Vector.1* %7, metadata !3524, metadata !DIExpression()), !dbg !4193
  call void @llvm.dbg.value(metadata i32 %9, metadata !3525, metadata !DIExpression()), !dbg !4193
  call void @llvm.dbg.value(metadata i32 2147483647, metadata !3526, metadata !DIExpression()), !dbg !4193
  store i32 2147483647, i32* %4, align 4, !tbaa !3111
  %11 = getelementptr inbounds %class.Vector.1, %class.Vector.1* %7, i64 0, i32 0, !dbg !4195
  call void @llvm.dbg.value(metadata %class.vector_memory.2* %11, metadata !3529, metadata !DIExpression()) #18, !dbg !4196
  %12 = bitcast %class.Vector.1* %7 to i8*, !dbg !4198
  tail call void @llvm.memset.p0i8.i64(i8* nonnull align 8 dereferenceable(16) %12, i8 0, i64 16, i1 false) #18, !dbg !4199
  call void @llvm.dbg.value(metadata i32* %4, metadata !3526, metadata !DIExpression(DW_OP_deref)), !dbg !4193
  call void @llvm.dbg.value(metadata i32* %4, metadata !3537, metadata !DIExpression()), !dbg !4200
  %13 = bitcast i32* %4 to %struct.char_array.3*, !dbg !4202
  invoke void @_ZN13vector_memoryI18sized_array_memoryILm4EEE6resizeEiPK10char_arrayILm4EE(%class.vector_memory.2* nonnull %11, i32 %9, %struct.char_array.3* nonnull %13)
          to label %21 unwind label %14, !dbg !4203

14:                                               ; preds = %2
  %15 = landingpad { i8*, i32 }
          cleanup, !dbg !4204
  call void @llvm.dbg.value(metadata %class.vector_memory.2* %11, metadata !3549, metadata !DIExpression()) #18, !dbg !4205
  %16 = bitcast %class.Vector.1* %7 to i8**, !dbg !4207
  %17 = load i8*, i8** %16, align 8, !dbg !4208, !tbaa !3558
  %18 = icmp eq i8* %17, null, !dbg !4208
  br i1 %18, label %20, label %19, !dbg !4208

19:                                               ; preds = %14
  call void @_ZdaPv(i8* nonnull %17) #20, !dbg !4208
  br label %20, !dbg !4208

20:                                               ; preds = %19, %14
  resume { i8*, i32 } %15, !dbg !4204

21:                                               ; preds = %2
  call void @llvm.lifetime.end.p0i8(i64 4, i8* nonnull %10), !dbg !4209
  %22 = getelementptr inbounds %"class.Classification::Wordwise::DominatorOptimizer", %"class.Classification::Wordwise::DominatorOptimizer"* %0, i64 0, i32 2, !dbg !4210
  %23 = load %"class.Classification::Wordwise::Program"*, %"class.Classification::Wordwise::Program"** %6, align 8, !dbg !4211, !tbaa !4182
  call void @llvm.dbg.value(metadata %"class.Classification::Wordwise::Program"* %23, metadata !4185, metadata !DIExpression()), !dbg !4212
  call void @llvm.dbg.value(metadata %"class.Classification::Wordwise::Program"* %23, metadata !3510, metadata !DIExpression()), !dbg !4214
  %24 = getelementptr inbounds %"class.Classification::Wordwise::Program", %"class.Classification::Wordwise::Program"* %23, i64 0, i32 0, i32 0, i32 1, !dbg !4216
  %25 = load i32, i32* %24, align 8, !dbg !4216, !tbaa !3517
  %26 = bitcast i32* %3 to i8*, !dbg !4217
  call void @llvm.lifetime.start.p0i8(i64 4, i8* nonnull %26), !dbg !4217
  call void @llvm.dbg.value(metadata %class.Vector.1* %22, metadata !3524, metadata !DIExpression()), !dbg !4217
  call void @llvm.dbg.value(metadata i32 %25, metadata !3525, metadata !DIExpression()), !dbg !4217
  call void @llvm.dbg.value(metadata i32 0, metadata !3526, metadata !DIExpression()), !dbg !4217
  store i32 0, i32* %3, align 4, !tbaa !3111
  %27 = getelementptr inbounds %class.Vector.1, %class.Vector.1* %22, i64 0, i32 0, !dbg !4219
  call void @llvm.dbg.value(metadata %class.vector_memory.2* %27, metadata !3529, metadata !DIExpression()) #18, !dbg !4220
  %28 = bitcast %class.Vector.1* %22 to i8*, !dbg !4222
  call void @llvm.memset.p0i8.i64(i8* nonnull align 8 dereferenceable(16) %28, i8 0, i64 16, i1 false) #18, !dbg !4223
  call void @llvm.dbg.value(metadata i32* %3, metadata !3526, metadata !DIExpression(DW_OP_deref)), !dbg !4217
  call void @llvm.dbg.value(metadata i32* %3, metadata !3537, metadata !DIExpression()), !dbg !4224
  %29 = bitcast i32* %3 to %struct.char_array.3*, !dbg !4226
  invoke void @_ZN13vector_memoryI18sized_array_memoryILm4EEE6resizeEiPK10char_arrayILm4EE(%class.vector_memory.2* nonnull %27, i32 %25, %struct.char_array.3* nonnull %29)
          to label %36 unwind label %30, !dbg !4227

30:                                               ; preds = %21
  %31 = landingpad { i8*, i32 }
          cleanup, !dbg !4228
  call void @llvm.dbg.value(metadata %class.vector_memory.2* %27, metadata !3549, metadata !DIExpression()) #18, !dbg !4229
  %32 = bitcast %class.Vector.1* %22 to i8**, !dbg !4231
  %33 = load i8*, i8** %32, align 8, !dbg !4232, !tbaa !3558
  %34 = icmp eq i8* %33, null, !dbg !4232
  br i1 %34, label %64, label %35, !dbg !4232

35:                                               ; preds = %30
  call void @_ZdaPv(i8* nonnull %33) #20, !dbg !4232
  br label %64, !dbg !4232

36:                                               ; preds = %21
  call void @llvm.lifetime.end.p0i8(i64 4, i8* nonnull %26), !dbg !4233
  %37 = getelementptr inbounds %"class.Classification::Wordwise::DominatorOptimizer", %"class.Classification::Wordwise::DominatorOptimizer"* %0, i64 0, i32 3, !dbg !4234
  call void @llvm.dbg.value(metadata %class.Vector.1* %37, metadata !3804, metadata !DIExpression()), !dbg !4235
  call void @llvm.dbg.value(metadata %class.Vector.1* %37, metadata !3529, metadata !DIExpression()) #18, !dbg !4237
  %38 = getelementptr inbounds %"class.Classification::Wordwise::DominatorOptimizer", %"class.Classification::Wordwise::DominatorOptimizer"* %0, i64 0, i32 4, !dbg !4239
  call void @llvm.dbg.value(metadata %class.Vector.1* %38, metadata !3524, metadata !DIExpression()), !dbg !4240
  call void @llvm.dbg.value(metadata i32 1, metadata !3525, metadata !DIExpression()), !dbg !4240
  call void @llvm.dbg.value(metadata i32 0, metadata !3526, metadata !DIExpression()), !dbg !4240
  call void @llvm.dbg.value(metadata %class.Vector.1* %38, metadata !3529, metadata !DIExpression()) #18, !dbg !4242
  call void @llvm.dbg.value(metadata %class.Vector.1* %38, metadata !4244, metadata !DIExpression()), !dbg !4252
  call void @llvm.dbg.value(metadata i32 1, metadata !4247, metadata !DIExpression()), !dbg !4252
  call void @llvm.dbg.value(metadata %struct.char_array.3* undef, metadata !4248, metadata !DIExpression()), !dbg !4252
  %39 = bitcast %class.Vector.1* %37 to i8*, !dbg !4254
  call void @llvm.memset.p0i8.i64(i8* nonnull align 8 dereferenceable(32) %39, i8 0, i64 32, i1 false), !dbg !4256
  call void @llvm.dbg.value(metadata %class.Vector.1* %38, metadata !3529, metadata !DIExpression()) #18, !dbg !4242
  call void @llvm.dbg.value(metadata %class.Vector.1* %38, metadata !4244, metadata !DIExpression()), !dbg !4252
  call void @llvm.dbg.value(metadata %class.Vector.1* %38, metadata !3697, metadata !DIExpression()), !dbg !4257
  call void @llvm.dbg.value(metadata i32 1, metadata !3698, metadata !DIExpression()), !dbg !4257
  call void @llvm.dbg.value(metadata %struct.char_array.3* null, metadata !3699, metadata !DIExpression()), !dbg !4257
  call void @llvm.dbg.value(metadata i32 1, metadata !3698, metadata !DIExpression()), !dbg !4257
  %40 = invoke dereferenceable(4) i8* @_Znam(i64 4) #21
          to label %41 unwind label %67, !dbg !4259

41:                                               ; preds = %36
  %42 = bitcast %class.Vector.1* %38 to i8**, !dbg !4260
  %43 = getelementptr inbounds %"class.Classification::Wordwise::DominatorOptimizer", %"class.Classification::Wordwise::DominatorOptimizer"* %0, i64 0, i32 4, i32 0, i32 2, !dbg !4261
  store i8* %40, i8** %42, align 8, !dbg !4262, !tbaa !3558
  store i32 1, i32* %43, align 4, !dbg !4263, !tbaa !3689
  %44 = getelementptr inbounds %"class.Classification::Wordwise::DominatorOptimizer", %"class.Classification::Wordwise::DominatorOptimizer"* %0, i64 0, i32 4, i32 0, i32 1, !dbg !4264
  call void @llvm.dbg.value(metadata i8* undef, metadata !3856, metadata !DIExpression()), !dbg !4267
  call void @llvm.dbg.value(metadata i32 1, metadata !3859, metadata !DIExpression(DW_OP_LLVM_convert, 32, DW_ATE_signed, DW_OP_LLVM_convert, 64, DW_ATE_signed, DW_OP_stack_value)), !dbg !4267
  call void @llvm.dbg.value(metadata %struct.char_array.3* undef, metadata !3860, metadata !DIExpression()), !dbg !4267
  call void @llvm.dbg.value(metadata i64 1, metadata !3859, metadata !DIExpression()), !dbg !4267
  call void @llvm.dbg.value(metadata %struct.char_array.3* undef, metadata !3860, metadata !DIExpression()), !dbg !4267
  call void @llvm.dbg.value(metadata i8* %40, metadata !3856, metadata !DIExpression()), !dbg !4267
  %45 = bitcast i8* %40 to i32*, !dbg !4271
  store i32 0, i32* %45, align 1, !dbg !4271
  call void @llvm.dbg.value(metadata i32 undef, metadata !3856, metadata !DIExpression()), !dbg !4267
  call void @llvm.dbg.value(metadata i32 undef, metadata !3859, metadata !DIExpression()), !dbg !4267
  store i32 1, i32* %44, align 8, !dbg !4274, !tbaa !3687
  %46 = getelementptr inbounds %"class.Classification::Wordwise::DominatorOptimizer", %"class.Classification::Wordwise::DominatorOptimizer"* %0, i64 0, i32 5, !dbg !4275
  call void @llvm.dbg.value(metadata %class.Vector.1* %46, metadata !3524, metadata !DIExpression()), !dbg !4276
  call void @llvm.dbg.value(metadata i32 1, metadata !3525, metadata !DIExpression()), !dbg !4276
  call void @llvm.dbg.value(metadata i32 0, metadata !3526, metadata !DIExpression()), !dbg !4276
  call void @llvm.dbg.value(metadata %class.Vector.1* %46, metadata !3529, metadata !DIExpression()) #18, !dbg !4278
  %47 = bitcast %class.Vector.1* %46 to i8*, !dbg !4280
  call void @llvm.memset.p0i8.i64(i8* nonnull align 8 dereferenceable(16) %47, i8 0, i64 16, i1 false) #18, !dbg !4281
  call void @llvm.dbg.value(metadata %class.Vector.1* %46, metadata !4244, metadata !DIExpression()), !dbg !4282
  call void @llvm.dbg.value(metadata i32 1, metadata !4247, metadata !DIExpression()), !dbg !4282
  call void @llvm.dbg.value(metadata %struct.char_array.3* undef, metadata !4248, metadata !DIExpression()), !dbg !4282
  call void @llvm.dbg.value(metadata %class.Vector.1* %46, metadata !3529, metadata !DIExpression()) #18, !dbg !4278
  call void @llvm.dbg.value(metadata %class.Vector.1* %46, metadata !4244, metadata !DIExpression()), !dbg !4282
  call void @llvm.dbg.value(metadata %class.Vector.1* %46, metadata !3697, metadata !DIExpression()), !dbg !4284
  call void @llvm.dbg.value(metadata i32 1, metadata !3698, metadata !DIExpression()), !dbg !4284
  call void @llvm.dbg.value(metadata %struct.char_array.3* null, metadata !3699, metadata !DIExpression()), !dbg !4284
  call void @llvm.dbg.value(metadata i32 1, metadata !3698, metadata !DIExpression()), !dbg !4284
  %48 = invoke dereferenceable(4) i8* @_Znam(i64 4) #21
          to label %49 unwind label %71, !dbg !4286

49:                                               ; preds = %41
  %50 = bitcast %class.Vector.1* %46 to i8**, !dbg !4287
  %51 = getelementptr inbounds %"class.Classification::Wordwise::DominatorOptimizer", %"class.Classification::Wordwise::DominatorOptimizer"* %0, i64 0, i32 5, i32 0, i32 2, !dbg !4288
  store i8* %48, i8** %50, align 8, !dbg !4289, !tbaa !3558
  store i32 1, i32* %51, align 4, !dbg !4290, !tbaa !3689
  %52 = getelementptr inbounds %"class.Classification::Wordwise::DominatorOptimizer", %"class.Classification::Wordwise::DominatorOptimizer"* %0, i64 0, i32 5, i32 0, i32 1, !dbg !4291
  call void @llvm.dbg.value(metadata i8* undef, metadata !3856, metadata !DIExpression()), !dbg !4292
  call void @llvm.dbg.value(metadata i32 1, metadata !3859, metadata !DIExpression(DW_OP_LLVM_convert, 32, DW_ATE_signed, DW_OP_LLVM_convert, 64, DW_ATE_signed, DW_OP_stack_value)), !dbg !4292
  call void @llvm.dbg.value(metadata %struct.char_array.3* undef, metadata !3860, metadata !DIExpression()), !dbg !4292
  call void @llvm.dbg.value(metadata i64 1, metadata !3859, metadata !DIExpression()), !dbg !4292
  call void @llvm.dbg.value(metadata %struct.char_array.3* undef, metadata !3860, metadata !DIExpression()), !dbg !4292
  call void @llvm.dbg.value(metadata i8* %48, metadata !3856, metadata !DIExpression()), !dbg !4292
  %53 = bitcast i8* %48 to i32*, !dbg !4294
  store i32 0, i32* %53, align 1, !dbg !4294
  call void @llvm.dbg.value(metadata i32 undef, metadata !3856, metadata !DIExpression()), !dbg !4292
  call void @llvm.dbg.value(metadata i32 undef, metadata !3859, metadata !DIExpression()), !dbg !4292
  store i32 1, i32* %52, align 8, !dbg !4295, !tbaa !3687
  %54 = getelementptr inbounds %"class.Classification::Wordwise::DominatorOptimizer", %"class.Classification::Wordwise::DominatorOptimizer"* %0, i64 0, i32 6, !dbg !4234
  call void @llvm.dbg.value(metadata %class.Vector.1* %54, metadata !3804, metadata !DIExpression()), !dbg !4296
  call void @llvm.dbg.value(metadata %class.Vector.1* %54, metadata !3529, metadata !DIExpression()) #18, !dbg !4298
  %55 = getelementptr inbounds %"class.Classification::Wordwise::DominatorOptimizer", %"class.Classification::Wordwise::DominatorOptimizer"* %0, i64 0, i32 7, !dbg !4234
  call void @llvm.dbg.value(metadata %class.Vector.1* %55, metadata !3804, metadata !DIExpression()), !dbg !4300
  call void @llvm.dbg.value(metadata %class.Vector.1* %55, metadata !3529, metadata !DIExpression()) #18, !dbg !4302
  %56 = getelementptr inbounds %"class.Classification::Wordwise::DominatorOptimizer", %"class.Classification::Wordwise::DominatorOptimizer"* %0, i64 0, i32 8, !dbg !4234
  call void @llvm.dbg.value(metadata %class.Vector.1* %56, metadata !3804, metadata !DIExpression()), !dbg !4304
  call void @llvm.dbg.value(metadata %class.Vector.1* %56, metadata !3529, metadata !DIExpression()) #18, !dbg !4306
  %57 = bitcast %class.Vector.1* %54 to i8*, !dbg !4308
  call void @llvm.memset.p0i8.i64(i8* nonnull align 8 dereferenceable(48) %57, i8 0, i64 48, i1 false), !dbg !4310
  %58 = load %"class.Classification::Wordwise::Program"*, %"class.Classification::Wordwise::Program"** %6, align 8, !dbg !4308, !tbaa !4182
  call void @llvm.dbg.value(metadata %"class.Classification::Wordwise::Program"* %58, metadata !4185, metadata !DIExpression()), !dbg !4311
  call void @llvm.dbg.value(metadata %"class.Classification::Wordwise::Program"* %58, metadata !3510, metadata !DIExpression()), !dbg !4313
  %59 = getelementptr inbounds %"class.Classification::Wordwise::Program", %"class.Classification::Wordwise::Program"* %58, i64 0, i32 0, i32 0, i32 1, !dbg !4315
  %60 = load i32, i32* %59, align 8, !dbg !4315, !tbaa !3517
  %61 = icmp eq i32 %60, 0, !dbg !4308
  br i1 %61, label %84, label %62, !dbg !4316

62:                                               ; preds = %49
  %63 = invoke dereferenceable(4) i32* @_ZN6VectorIiEixEi(%class.Vector.1* nonnull %7, i32 0)
          to label %79 unwind label %75, !dbg !4317

64:                                               ; preds = %30, %35
  %65 = extractvalue { i8*, i32 } %31, 0, !dbg !4318
  %66 = extractvalue { i8*, i32 } %31, 1, !dbg !4318
  br label %384, !dbg !4318

67:                                               ; preds = %36
  %68 = landingpad { i8*, i32 }
          cleanup, !dbg !4319
  call void @llvm.dbg.value(metadata %class.Vector.1* %38, metadata !3549, metadata !DIExpression()) #18, !dbg !4320
  %69 = extractvalue { i8*, i32 } %68, 0, !dbg !4318
  %70 = extractvalue { i8*, i32 } %68, 1, !dbg !4318
  br label %372, !dbg !4318

71:                                               ; preds = %41
  %72 = landingpad { i8*, i32 }
          cleanup, !dbg !4322
  call void @llvm.dbg.value(metadata %class.Vector.1* %46, metadata !3549, metadata !DIExpression()) #18, !dbg !4323
  %73 = extractvalue { i8*, i32 } %72, 0, !dbg !4318
  %74 = extractvalue { i8*, i32 } %72, 1, !dbg !4318
  br label %365, !dbg !4318

75:                                               ; preds = %62
  %76 = landingpad { i8*, i32 }
          cleanup, !dbg !4325
  %77 = extractvalue { i8*, i32 } %76, 0, !dbg !4325
  %78 = extractvalue { i8*, i32 } %76, 1, !dbg !4325
  br label %343, !dbg !4325

79:                                               ; preds = %62
  store i32 0, i32* %63, align 4, !dbg !4326, !tbaa !3111
  %80 = load %"class.Classification::Wordwise::Program"*, %"class.Classification::Wordwise::Program"** %6, align 8, !dbg !4327, !tbaa !4182
  %81 = getelementptr inbounds %"class.Classification::Wordwise::Program", %"class.Classification::Wordwise::Program"* %80, i64 0, i32 0, i32 0, i32 1, !dbg !4328
  %82 = load i32, i32* %81, align 8, !dbg !4331, !tbaa !3517
  call void @llvm.dbg.value(metadata i32 0, metadata !4167, metadata !DIExpression()), !dbg !4332
  call void @llvm.dbg.value(metadata %"class.Classification::Wordwise::Program"* %80, metadata !4185, metadata !DIExpression()), !dbg !4333
  call void @llvm.dbg.value(metadata %"class.Classification::Wordwise::Program"* %80, metadata !3510, metadata !DIExpression()), !dbg !4328
  %83 = icmp sgt i32 %82, 0, !dbg !4334
  br i1 %83, label %95, label %84, !dbg !4335

84:                                               ; preds = %197, %49, %79
  %85 = phi %"class.Classification::Wordwise::Program"* [ %80, %79 ], [ %58, %49 ], [ %199, %197 ], !dbg !4336
  %86 = bitcast %class.Vector.1* %5 to i8*, !dbg !4338
  call void @llvm.lifetime.start.p0i8(i64 16, i8* nonnull %86) #18, !dbg !4338
  call void @llvm.dbg.declare(metadata %class.Vector.1* %5, metadata !4175, metadata !DIExpression()), !dbg !4339
  call void @llvm.dbg.value(metadata %class.Vector.1* %5, metadata !3804, metadata !DIExpression()), !dbg !4340
  call void @llvm.dbg.value(metadata %class.Vector.1* %5, metadata !3529, metadata !DIExpression()) #18, !dbg !4342
  call void @llvm.memset.p0i8.i64(i8* nonnull align 8 dereferenceable(16) %86, i8 0, i64 16, i1 false) #18, !dbg !4344
  call void @llvm.dbg.value(metadata i32 0, metadata !4176, metadata !DIExpression()), !dbg !4345
  call void @llvm.dbg.value(metadata %"class.Classification::Wordwise::Program"* %85, metadata !4185, metadata !DIExpression()), !dbg !4346
  call void @llvm.dbg.value(metadata %"class.Classification::Wordwise::Program"* %85, metadata !3510, metadata !DIExpression()), !dbg !4348
  %87 = getelementptr inbounds %"class.Classification::Wordwise::Program", %"class.Classification::Wordwise::Program"* %85, i64 0, i32 0, i32 0, i32 1, !dbg !4350
  %88 = load i32, i32* %87, align 8, !dbg !4350, !tbaa !3517
  %89 = icmp sgt i32 %88, 0, !dbg !4351
  br i1 %89, label %90, label %258, !dbg !4352

90:                                               ; preds = %84
  %91 = getelementptr inbounds %class.Vector.1, %class.Vector.1* %5, i64 0, i32 0, i32 1, !dbg !4353
  %92 = getelementptr inbounds %class.Vector.1, %class.Vector.1* %5, i64 0, i32 0, i32 2, !dbg !4353
  %93 = bitcast %class.Vector.1* %5 to i8**, !dbg !4356
  %94 = getelementptr inbounds %class.Vector.1, %class.Vector.1* %5, i64 0, i32 0, i32 0, !dbg !4358
  br label %205, !dbg !4352

95:                                               ; preds = %79, %197
  %96 = phi %"class.Classification::Wordwise::Program"* [ %199, %197 ], [ %80, %79 ]
  %97 = phi i32 [ %198, %197 ], [ 0, %79 ]
  call void @llvm.dbg.value(metadata i32 %97, metadata !4167, metadata !DIExpression()), !dbg !4332
  call void @llvm.dbg.value(metadata %"class.Classification::Wordwise::Program"* %96, metadata !4360, metadata !DIExpression()), !dbg !4364
  call void @llvm.dbg.value(metadata i32 %97, metadata !4363, metadata !DIExpression()), !dbg !4364
  %98 = getelementptr inbounds %"class.Classification::Wordwise::Program", %"class.Classification::Wordwise::Program"* %96, i64 0, i32 0, !dbg !4366
  %99 = invoke dereferenceable(20) %"struct.Classification::Wordwise::Insn"* @_ZNK6VectorIN14Classification8Wordwise4InsnEEixEi(%class.Vector* %98, i32 %97)
          to label %100 unwind label %145, !dbg !4366

100:                                              ; preds = %95
  call void @llvm.dbg.value(metadata %"struct.Classification::Wordwise::Insn"* %99, metadata !4170, metadata !DIExpression()), !dbg !4367
  call void @llvm.dbg.value(metadata %"struct.Classification::Wordwise::Insn"* %99, metadata !2610, metadata !DIExpression()), !dbg !4368
  %101 = getelementptr inbounds %"struct.Classification::Wordwise::Insn", %"struct.Classification::Wordwise::Insn"* %99, i64 0, i32 3, !dbg !4370
  %102 = getelementptr %union.anon, %union.anon* %101, i64 0, i32 0, !dbg !4371
  %103 = load i32, i32* %102, align 4, !dbg !4371, !tbaa !2618
  %104 = icmp eq i32 %103, 0, !dbg !4372
  br i1 %104, label %135, label %105, !dbg !4373

105:                                              ; preds = %100
  %106 = bitcast %union.anon* %101 to [4 x i8]*, !dbg !4374
  %107 = getelementptr inbounds [4 x i8], [4 x i8]* %106, i64 0, i64 3, !dbg !4375
  %108 = load i8, i8* %107, align 1, !dbg !4375, !tbaa !2618
  %109 = icmp eq i8 %108, 0, !dbg !4375
  br i1 %109, label %115, label %110, !dbg !4376

110:                                              ; preds = %105
  %111 = getelementptr inbounds %"struct.Classification::Wordwise::Insn", %"struct.Classification::Wordwise::Insn"* %99, i64 0, i32 0, !dbg !4377
  %112 = load i16, i16* %111, align 4, !dbg !4377, !tbaa !2626
  %113 = zext i16 %112 to i32, !dbg !4377
  %114 = add nuw nsw i32 %113, 4, !dbg !4378
  br label %135, !dbg !4379

115:                                              ; preds = %105
  %116 = getelementptr inbounds [4 x i8], [4 x i8]* %106, i64 0, i64 2, !dbg !4380
  %117 = load i8, i8* %116, align 2, !dbg !4380, !tbaa !2618
  %118 = icmp eq i8 %117, 0, !dbg !4380
  br i1 %118, label %124, label %119, !dbg !4381

119:                                              ; preds = %115
  %120 = getelementptr inbounds %"struct.Classification::Wordwise::Insn", %"struct.Classification::Wordwise::Insn"* %99, i64 0, i32 0, !dbg !4382
  %121 = load i16, i16* %120, align 4, !dbg !4382, !tbaa !2626
  %122 = zext i16 %121 to i32, !dbg !4382
  %123 = add nuw nsw i32 %122, 3, !dbg !4383
  br label %135, !dbg !4384

124:                                              ; preds = %115
  %125 = getelementptr inbounds [4 x i8], [4 x i8]* %106, i64 0, i64 1, !dbg !4385
  %126 = load i8, i8* %125, align 1, !dbg !4385, !tbaa !2618
  %127 = icmp eq i8 %126, 0, !dbg !4385
  %128 = getelementptr inbounds %"struct.Classification::Wordwise::Insn", %"struct.Classification::Wordwise::Insn"* %99, i64 0, i32 0, !dbg !4386
  %129 = load i16, i16* %128, align 4, !dbg !4386, !tbaa !2626
  %130 = zext i16 %129 to i32, !dbg !4386
  br i1 %127, label %133, label %131, !dbg !4387

131:                                              ; preds = %124
  %132 = add nuw nsw i32 %130, 2, !dbg !4388
  br label %135, !dbg !4389

133:                                              ; preds = %124
  %134 = add nuw nsw i32 %130, 1, !dbg !4390
  br label %135, !dbg !4391

135:                                              ; preds = %100, %110, %119, %131, %133
  %136 = phi i32 [ %114, %110 ], [ %123, %119 ], [ %132, %131 ], [ %134, %133 ], [ 0, %100 ], !dbg !4392
  call void @llvm.dbg.value(metadata i32 %136, metadata !4173, metadata !DIExpression()), !dbg !4367
  %137 = invoke dereferenceable(4) i32* @_ZN6VectorIiEixEi(%class.Vector.1* nonnull %7, i32 %97)
          to label %138 unwind label %149, !dbg !4393

138:                                              ; preds = %135
  %139 = load i32, i32* %137, align 4, !dbg !4393, !tbaa !3111
  %140 = icmp slt i32 %136, %139, !dbg !4395
  br i1 %140, label %141, label %153, !dbg !4396

141:                                              ; preds = %138
  %142 = invoke dereferenceable(4) i32* @_ZN6VectorIiEixEi(%class.Vector.1* nonnull %7, i32 %97)
          to label %143 unwind label %149, !dbg !4397

143:                                              ; preds = %141
  %144 = load i32, i32* %142, align 4, !dbg !4397, !tbaa !3111
  call void @llvm.dbg.value(metadata i32 %144, metadata !4173, metadata !DIExpression()), !dbg !4367
  br label %153, !dbg !4398

145:                                              ; preds = %95
  %146 = landingpad { i8*, i32 }
          cleanup, !dbg !4399
  %147 = extractvalue { i8*, i32 } %146, 0, !dbg !4399
  %148 = extractvalue { i8*, i32 } %146, 1, !dbg !4399
  br label %343, !dbg !4399

149:                                              ; preds = %141, %135
  %150 = landingpad { i8*, i32 }
          cleanup, !dbg !4399
  %151 = extractvalue { i8*, i32 } %150, 0, !dbg !4399
  %152 = extractvalue { i8*, i32 } %150, 1, !dbg !4399
  br label %343, !dbg !4399

153:                                              ; preds = %143, %138
  %154 = phi i32 [ %144, %143 ], [ %136, %138 ], !dbg !4367
  call void @llvm.dbg.value(metadata i32 %154, metadata !4173, metadata !DIExpression()), !dbg !4367
  %155 = getelementptr inbounds %"struct.Classification::Wordwise::Insn", %"struct.Classification::Wordwise::Insn"* %99, i64 0, i32 2, !dbg !4400
  %156 = load i8, i8* %155, align 1, !dbg !4400, !tbaa !2603
  %157 = icmp ne i8 %156, 0, !dbg !4401
  call void @llvm.dbg.value(metadata i1 %157, metadata !4174, metadata !DIExpression()), !dbg !4367
  %158 = xor i1 %157, true, !dbg !4402
  %159 = zext i1 %158 to i64, !dbg !4404
  %160 = getelementptr inbounds %"struct.Classification::Wordwise::Insn", %"struct.Classification::Wordwise::Insn"* %99, i64 0, i32 5, i64 %159, !dbg !4404
  %161 = load i32, i32* %160, align 4, !dbg !4404, !tbaa !3111
  %162 = icmp sgt i32 %161, 0, !dbg !4405
  br i1 %162, label %163, label %176, !dbg !4406

163:                                              ; preds = %153
  %164 = invoke dereferenceable(4) i32* @_ZN6VectorIiEixEi(%class.Vector.1* nonnull %7, i32 %161)
          to label %165 unwind label %172, !dbg !4407

165:                                              ; preds = %163
  %166 = load i32, i32* %164, align 4, !dbg !4407, !tbaa !3111
  %167 = icmp slt i32 %154, %166, !dbg !4408
  br i1 %167, label %168, label %176, !dbg !4409

168:                                              ; preds = %165
  %169 = load i32, i32* %160, align 4, !dbg !4410, !tbaa !3111
  %170 = invoke dereferenceable(4) i32* @_ZN6VectorIiEixEi(%class.Vector.1* nonnull %7, i32 %169)
          to label %171 unwind label %172, !dbg !4411

171:                                              ; preds = %168
  store i32 %154, i32* %170, align 4, !dbg !4412, !tbaa !3111
  br label %176, !dbg !4411

172:                                              ; preds = %192, %190, %183, %181, %168, %163
  %173 = landingpad { i8*, i32 }
          cleanup, !dbg !4413
  %174 = extractvalue { i8*, i32 } %173, 0, !dbg !4413
  %175 = extractvalue { i8*, i32 } %173, 1, !dbg !4413
  br label %343, !dbg !4414

176:                                              ; preds = %171, %165, %153
  %177 = zext i1 %157 to i64, !dbg !4415
  %178 = getelementptr inbounds %"struct.Classification::Wordwise::Insn", %"struct.Classification::Wordwise::Insn"* %99, i64 0, i32 5, i64 %177, !dbg !4415
  %179 = load i32, i32* %178, align 4, !dbg !4415, !tbaa !3111
  %180 = icmp sgt i32 %179, 0, !dbg !4417
  br i1 %180, label %181, label %197, !dbg !4418

181:                                              ; preds = %176
  %182 = invoke dereferenceable(4) i32* @_ZN6VectorIiEixEi(%class.Vector.1* nonnull %7, i32 %97)
          to label %183 unwind label %172, !dbg !4419

183:                                              ; preds = %181
  %184 = load i32, i32* %182, align 4, !dbg !4419, !tbaa !3111
  %185 = load i32, i32* %178, align 4, !dbg !4420, !tbaa !3111
  %186 = invoke dereferenceable(4) i32* @_ZN6VectorIiEixEi(%class.Vector.1* nonnull %7, i32 %185)
          to label %187 unwind label %172, !dbg !4421

187:                                              ; preds = %183
  %188 = load i32, i32* %186, align 4, !dbg !4421, !tbaa !3111
  %189 = icmp slt i32 %184, %188, !dbg !4422
  br i1 %189, label %190, label %197, !dbg !4423

190:                                              ; preds = %187
  %191 = invoke dereferenceable(4) i32* @_ZN6VectorIiEixEi(%class.Vector.1* nonnull %7, i32 %97)
          to label %192 unwind label %172, !dbg !4424

192:                                              ; preds = %190
  %193 = load i32, i32* %191, align 4, !dbg !4424, !tbaa !3111
  %194 = load i32, i32* %178, align 4, !dbg !4425, !tbaa !3111
  %195 = invoke dereferenceable(4) i32* @_ZN6VectorIiEixEi(%class.Vector.1* nonnull %7, i32 %194)
          to label %196 unwind label %172, !dbg !4426

196:                                              ; preds = %192
  store i32 %193, i32* %195, align 4, !dbg !4427, !tbaa !3111
  br label %197, !dbg !4426

197:                                              ; preds = %196, %187, %176
  %198 = add nuw nsw i32 %97, 1, !dbg !4428
  call void @llvm.dbg.value(metadata i32 %198, metadata !4167, metadata !DIExpression()), !dbg !4332
  %199 = load %"class.Classification::Wordwise::Program"*, %"class.Classification::Wordwise::Program"** %6, align 8, !dbg !4327, !tbaa !4182
  call void @llvm.dbg.value(metadata %"class.Classification::Wordwise::Program"* %199, metadata !4185, metadata !DIExpression()), !dbg !4333
  call void @llvm.dbg.value(metadata %"class.Classification::Wordwise::Program"* %199, metadata !3510, metadata !DIExpression()), !dbg !4328
  %200 = getelementptr inbounds %"class.Classification::Wordwise::Program", %"class.Classification::Wordwise::Program"* %199, i64 0, i32 0, i32 0, i32 1, !dbg !4331
  %201 = load i32, i32* %200, align 8, !dbg !4331, !tbaa !3517
  %202 = icmp slt i32 %198, %201, !dbg !4334
  br i1 %202, label %95, label %84, !dbg !4335, !llvm.loop !4429

203:                                              ; preds = %220
  %204 = landingpad { i8*, i32 }
          cleanup, !dbg !4431
  br label %334, !dbg !4432

205:                                              ; preds = %256, %90
  %206 = phi i32 [ 0, %90 ], [ %257, %256 ], !dbg !4433
  %207 = phi i32 [ 0, %90 ], [ %250, %256 ], !dbg !4434
  %208 = phi i32 [ 0, %90 ], [ %251, %256 ]
  call void @llvm.dbg.value(metadata i32 %208, metadata !4176, metadata !DIExpression()), !dbg !4345
  call void @llvm.dbg.value(metadata %class.Vector.1* %5, metadata !3673, metadata !DIExpression()), !dbg !4435
  call void @llvm.dbg.value(metadata i32 %208, metadata !3676, metadata !DIExpression()), !dbg !4435
  call void @llvm.dbg.value(metadata %class.Vector.1* %5, metadata !3679, metadata !DIExpression()), !dbg !4436
  call void @llvm.dbg.value(metadata %struct.char_array.3* undef, metadata !3682, metadata !DIExpression()), !dbg !4436
  %209 = icmp slt i32 %207, %206, !dbg !4437
  br i1 %209, label %210, label %212, !dbg !4438

210:                                              ; preds = %205
  call void @llvm.dbg.value(metadata %class.Vector.1* %5, metadata !3679, metadata !DIExpression()), !dbg !4436
  %211 = load %struct.char_array.3*, %struct.char_array.3** %94, align 8, !dbg !4439, !tbaa !3558
  call void @llvm.dbg.value(metadata i64 1, metadata !3859, metadata !DIExpression()), !dbg !4440
  call void @llvm.dbg.value(metadata %struct.char_array.3* undef, metadata !3860, metadata !DIExpression()), !dbg !4440
  call void @llvm.dbg.value(metadata i64 undef, metadata !3859, metadata !DIExpression()), !dbg !4440
  call void @llvm.dbg.value(metadata i64 undef, metadata !3859, metadata !DIExpression(DW_OP_constu, 1, DW_OP_minus, DW_OP_stack_value)), !dbg !4440
  br label %243, !dbg !4442

212:                                              ; preds = %205, %236
  %213 = phi i32 [ %237, %236 ], [ %207, %205 ]
  %214 = phi i32 [ %238, %236 ], [ %207, %205 ]
  %215 = phi i32 [ %239, %236 ], [ %206, %205 ], !dbg !4443
  call void @llvm.dbg.value(metadata %class.Vector.1* %5, metadata !3697, metadata !DIExpression()), !dbg !4443
  call void @llvm.dbg.value(metadata i32 -1, metadata !3698, metadata !DIExpression()), !dbg !4443
  call void @llvm.dbg.value(metadata %struct.char_array.3* undef, metadata !3699, metadata !DIExpression()), !dbg !4443
  %216 = icmp sgt i32 %215, 0, !dbg !4444
  %217 = shl nsw i32 %215, 1, !dbg !4444
  %218 = select i1 %216, i32 %217, i32 4, !dbg !4444
  call void @llvm.dbg.value(metadata i32 %218, metadata !3698, metadata !DIExpression()), !dbg !4443
  %219 = icmp sgt i32 %218, %215, !dbg !4445
  br i1 %219, label %220, label %236, !dbg !4446

220:                                              ; preds = %212
  %221 = sext i32 %218 to i64, !dbg !4447
  %222 = shl nsw i64 %221, 2, !dbg !4447
  %223 = invoke i8* @_Znam(i64 %222) #21
          to label %224 unwind label %203, !dbg !4447

224:                                              ; preds = %220
  call void @llvm.dbg.value(metadata i8* %223, metadata !3703, metadata !DIExpression()), !dbg !4356
  call void @llvm.dbg.value(metadata i8* %223, metadata !3703, metadata !DIExpression()), !dbg !4356
  %225 = load i8*, i8** %93, align 8, !dbg !4448, !tbaa !3558
  call void @llvm.dbg.value(metadata i8* %223, metadata !3711, metadata !DIExpression()) #18, !dbg !4449
  call void @llvm.dbg.value(metadata i8* %225, metadata !3714, metadata !DIExpression()) #18, !dbg !4449
  call void @llvm.dbg.value(metadata i32 %214, metadata !3715, metadata !DIExpression(DW_OP_LLVM_convert, 32, DW_ATE_signed, DW_OP_LLVM_convert, 64, DW_ATE_signed, DW_OP_stack_value)) #18, !dbg !4449
  %226 = icmp eq i32 %214, 0, !dbg !4451
  br i1 %226, label %230, label %227, !dbg !4452

227:                                              ; preds = %224
  %228 = sext i32 %214 to i64, !dbg !4453
  call void @llvm.dbg.value(metadata i64 %228, metadata !3715, metadata !DIExpression()) #18, !dbg !4449
  %229 = shl nsw i64 %228, 2, !dbg !4454
  call void @llvm.memmove.p0i8.p0i8.i64(i8* nonnull align 1 %223, i8* align 1 %225, i64 %229, i1 false) #18, !dbg !4455
  br label %230, !dbg !4455

230:                                              ; preds = %227, %224
  %231 = icmp eq i8* %225, null, !dbg !4456
  br i1 %231, label %234, label %232, !dbg !4456

232:                                              ; preds = %230
  call void @_ZdaPv(i8* nonnull %225) #20, !dbg !4456
  %233 = load i32, i32* %91, align 8, !dbg !4457, !tbaa !3687
  br label %234, !dbg !4456

234:                                              ; preds = %232, %230
  %235 = phi i32 [ %233, %232 ], [ %213, %230 ], !dbg !4457
  store i8* %223, i8** %93, align 8, !dbg !4458, !tbaa !3558
  store i32 %218, i32* %92, align 4, !dbg !4459, !tbaa !3689
  br label %236

236:                                              ; preds = %234, %212
  %237 = phi i32 [ %213, %212 ], [ %235, %234 ]
  %238 = phi i32 [ %214, %212 ], [ %235, %234 ], !dbg !4457
  %239 = phi i32 [ %215, %212 ], [ %218, %234 ]
  call void @llvm.dbg.value(metadata %class.Vector.1* %5, metadata !3679, metadata !DIExpression()), !dbg !4460
  call void @llvm.dbg.value(metadata %struct.char_array.3* undef, metadata !3682, metadata !DIExpression()), !dbg !4460
  %240 = icmp slt i32 %238, %239, !dbg !4461
  br i1 %240, label %241, label %212, !dbg !4462

241:                                              ; preds = %236
  %242 = load %struct.char_array.3*, %struct.char_array.3** %94, align 8, !dbg !4463, !tbaa !3558
  call void @llvm.dbg.value(metadata i8* %247, metadata !3856, metadata !DIExpression()), !dbg !4464
  call void @llvm.dbg.value(metadata i64 1, metadata !3859, metadata !DIExpression()), !dbg !4464
  call void @llvm.dbg.value(metadata %struct.char_array.3* undef, metadata !3860, metadata !DIExpression()), !dbg !4464
  call void @llvm.dbg.value(metadata i64 undef, metadata !3859, metadata !DIExpression()), !dbg !4464
  call void @llvm.dbg.value(metadata i64 undef, metadata !3859, metadata !DIExpression(DW_OP_constu, 1, DW_OP_minus, DW_OP_stack_value)), !dbg !4464
  br label %243

243:                                              ; preds = %241, %210
  %244 = phi i32 [ %238, %241 ], [ %207, %210 ]
  %245 = phi %struct.char_array.3* [ %242, %241 ], [ %211, %210 ]
  %246 = sext i32 %244 to i64, !dbg !4353
  %247 = getelementptr inbounds %struct.char_array.3, %struct.char_array.3* %245, i64 %246, i32 0, i64 0, !dbg !4353
  %248 = bitcast i8* %247 to i32*, !dbg !4353
  store i32 %208, i32* %248, align 1, !dbg !4353
  %249 = load i32, i32* %91, align 8, !dbg !4353, !tbaa !3687
  %250 = add nsw i32 %249, 1, !dbg !4353
  store i32 %250, i32* %91, align 8, !dbg !4353, !tbaa !3687
  %251 = add nuw nsw i32 %208, 1, !dbg !4466
  call void @llvm.dbg.value(metadata i32 %251, metadata !4176, metadata !DIExpression()), !dbg !4345
  %252 = load %"class.Classification::Wordwise::Program"*, %"class.Classification::Wordwise::Program"** %6, align 8, !dbg !4336, !tbaa !4182
  call void @llvm.dbg.value(metadata %"class.Classification::Wordwise::Program"* %252, metadata !4185, metadata !DIExpression()), !dbg !4346
  call void @llvm.dbg.value(metadata %"class.Classification::Wordwise::Program"* %252, metadata !3510, metadata !DIExpression()), !dbg !4348
  %253 = getelementptr inbounds %"class.Classification::Wordwise::Program", %"class.Classification::Wordwise::Program"* %252, i64 0, i32 0, i32 0, i32 1, !dbg !4350
  %254 = load i32, i32* %253, align 8, !dbg !4350, !tbaa !3517
  %255 = icmp slt i32 %251, %254, !dbg !4351
  br i1 %255, label %256, label %258, !dbg !4352, !llvm.loop !4467

256:                                              ; preds = %243
  %257 = load i32, i32* %92, align 4, !dbg !4433, !tbaa !3689
  br label %205, !dbg !4352

258:                                              ; preds = %243, %84
  %259 = call i32* @_ZN6VectorIiE5beginEv(%class.Vector.1* nonnull %5), !dbg !4469
  call void @llvm.dbg.value(metadata %class.Vector.1* %5, metadata !3887, metadata !DIExpression()), !dbg !4470
  %260 = getelementptr inbounds %class.Vector.1, %class.Vector.1* %5, i64 0, i32 0, i32 1, !dbg !4472
  %261 = load i32, i32* %260, align 8, !dbg !4472, !tbaa !3894
  %262 = load %"class.Classification::Wordwise::Program"*, %"class.Classification::Wordwise::Program"** %6, align 8, !dbg !4473, !tbaa !4182
  call void @llvm.dbg.value(metadata %"class.Classification::Wordwise::Program"* %262, metadata !4474, metadata !DIExpression()), !dbg !4477
  %263 = getelementptr inbounds %"class.Classification::Wordwise::Program", %"class.Classification::Wordwise::Program"* %262, i64 0, i32 0, !dbg !4479
  %264 = call %"struct.Classification::Wordwise::Insn"* @_ZNK6VectorIN14Classification8Wordwise4InsnEE5beginEv(%class.Vector* %263), !dbg !4480
  %265 = sext i32 %261 to i64, !dbg !4481
  %266 = bitcast i32* %259 to i8*, !dbg !4482
  %267 = bitcast %"struct.Classification::Wordwise::Insn"* %264 to i8*, !dbg !4473
  %268 = invoke i32 @_Z11click_qsortPvmmPFiPKvS1_S_ES_(i8* %266, i64 %265, i64 4, i32 (i8*, i8*, i8*)* nonnull @_ZN14Classification8WordwiseL20insn_permute_compareEPKvS2_Pv, i8* %267)
          to label %269 unwind label %280, !dbg !4483

269:                                              ; preds = %258
  call void @llvm.dbg.value(metadata i32 0, metadata !4178, metadata !DIExpression()), !dbg !4484
  %270 = load %"class.Classification::Wordwise::Program"*, %"class.Classification::Wordwise::Program"** %6, align 8, !dbg !4485, !tbaa !4182
  call void @llvm.dbg.value(metadata %"class.Classification::Wordwise::Program"* %270, metadata !4185, metadata !DIExpression()), !dbg !4487
  call void @llvm.dbg.value(metadata %"class.Classification::Wordwise::Program"* %270, metadata !3510, metadata !DIExpression()), !dbg !4489
  %271 = getelementptr inbounds %"class.Classification::Wordwise::Program", %"class.Classification::Wordwise::Program"* %270, i64 0, i32 0, i32 0, i32 1, !dbg !4491
  %272 = load i32, i32* %271, align 8, !dbg !4491, !tbaa !3517
  %273 = icmp sgt i32 %272, 0, !dbg !4492
  br i1 %273, label %284, label %274, !dbg !4493

274:                                              ; preds = %328, %269
  call void @llvm.dbg.value(metadata %class.Vector.1* %5, metadata !3564, metadata !DIExpression()) #18, !dbg !4494
  call void @llvm.dbg.value(metadata %class.Vector.1* %5, metadata !3549, metadata !DIExpression()) #18, !dbg !4496
  %275 = bitcast %class.Vector.1* %5 to i8**, !dbg !4498
  %276 = load i8*, i8** %275, align 8, !dbg !4499, !tbaa !3558
  %277 = icmp eq i8* %276, null, !dbg !4499
  br i1 %277, label %279, label %278, !dbg !4499

278:                                              ; preds = %274
  call void @_ZdaPv(i8* nonnull %276) #20, !dbg !4499
  br label %279, !dbg !4499

279:                                              ; preds = %274, %278
  call void @llvm.lifetime.end.p0i8(i64 16, i8* nonnull %86) #18, !dbg !4318
  ret void, !dbg !4318

280:                                              ; preds = %258
  %281 = landingpad { i8*, i32 }
          cleanup, !dbg !4500
  br label %334, !dbg !4500

282:                                              ; preds = %298, %290, %324, %321, %319, %315, %312, %309, %307, %294, %288
  %283 = landingpad { i8*, i32 }
          cleanup, !dbg !4501
  br label %334, !dbg !4502

284:                                              ; preds = %269, %328
  %285 = phi %"class.Classification::Wordwise::Program"* [ %330, %328 ], [ %270, %269 ]
  %286 = phi i32 [ %329, %328 ], [ 0, %269 ]
  call void @llvm.dbg.value(metadata i32 %286, metadata !4178, metadata !DIExpression()), !dbg !4484
  %287 = icmp eq i32 %286, 0, !dbg !4503
  br i1 %287, label %319, label %288, !dbg !4505

288:                                              ; preds = %284
  %289 = invoke dereferenceable(4) i32* @_ZN6VectorIiEixEi(%class.Vector.1* nonnull %5, i32 %286)
          to label %290 unwind label %282, !dbg !4506

290:                                              ; preds = %288
  %291 = load i32, i32* %289, align 4, !dbg !4506, !tbaa !3111
  call void @llvm.dbg.value(metadata %"class.Classification::Wordwise::Program"* %285, metadata !4360, metadata !DIExpression()), !dbg !4507
  call void @llvm.dbg.value(metadata i32 %291, metadata !4363, metadata !DIExpression()), !dbg !4507
  %292 = getelementptr inbounds %"class.Classification::Wordwise::Program", %"class.Classification::Wordwise::Program"* %285, i64 0, i32 0, !dbg !4509
  %293 = invoke dereferenceable(20) %"struct.Classification::Wordwise::Insn"* @_ZNK6VectorIN14Classification8Wordwise4InsnEEixEi(%class.Vector* %292, i32 %291)
          to label %294 unwind label %282, !dbg !4509

294:                                              ; preds = %290
  %295 = load %"class.Classification::Wordwise::Program"*, %"class.Classification::Wordwise::Program"** %6, align 8, !dbg !4510, !tbaa !4182
  %296 = add nsw i32 %286, -1, !dbg !4511
  %297 = invoke dereferenceable(4) i32* @_ZN6VectorIiEixEi(%class.Vector.1* nonnull %5, i32 %296)
          to label %298 unwind label %282, !dbg !4512

298:                                              ; preds = %294
  %299 = load i32, i32* %297, align 4, !dbg !4512, !tbaa !3111
  call void @llvm.dbg.value(metadata %"class.Classification::Wordwise::Program"* %295, metadata !4360, metadata !DIExpression()), !dbg !4513
  call void @llvm.dbg.value(metadata i32 %299, metadata !4363, metadata !DIExpression()), !dbg !4513
  %300 = getelementptr inbounds %"class.Classification::Wordwise::Program", %"class.Classification::Wordwise::Program"* %295, i64 0, i32 0, !dbg !4515
  %301 = invoke dereferenceable(20) %"struct.Classification::Wordwise::Insn"* @_ZNK6VectorIN14Classification8Wordwise4InsnEEixEi(%class.Vector* %300, i32 %299)
          to label %302 unwind label %282, !dbg !4515

302:                                              ; preds = %298
  call void @llvm.dbg.value(metadata %"struct.Classification::Wordwise::Insn"* %293, metadata !4516, metadata !DIExpression()) #18, !dbg !4520
  call void @llvm.dbg.value(metadata %"struct.Classification::Wordwise::Insn"* %301, metadata !4519, metadata !DIExpression()) #18, !dbg !4520
  %303 = bitcast %"struct.Classification::Wordwise::Insn"* %293 to i8*, !dbg !4522
  %304 = bitcast %"struct.Classification::Wordwise::Insn"* %301 to i8*, !dbg !4523
  %305 = call i32 @bcmp(i8* nonnull dereferenceable(12) %303, i8* nonnull dereferenceable(12) %304, i64 12), !dbg !4524
  %306 = icmp eq i32 %305, 0, !dbg !4525
  br i1 %306, label %307, label %319, !dbg !4526

307:                                              ; preds = %302
  %308 = invoke dereferenceable(4) i32* @_ZN6VectorIiEixEi(%class.Vector.1* nonnull %5, i32 %296)
          to label %309 unwind label %282, !dbg !4527

309:                                              ; preds = %307
  %310 = load i32, i32* %308, align 4, !dbg !4527, !tbaa !3111
  %311 = invoke dereferenceable(4) i32* @_ZN6VectorIiEixEi(%class.Vector.1* nonnull %22, i32 %310)
          to label %312 unwind label %282, !dbg !4528

312:                                              ; preds = %309
  %313 = load i32, i32* %311, align 4, !dbg !4528, !tbaa !3111
  %314 = invoke dereferenceable(4) i32* @_ZN6VectorIiEixEi(%class.Vector.1* nonnull %5, i32 %286)
          to label %315 unwind label %282, !dbg !4529

315:                                              ; preds = %312
  %316 = load i32, i32* %314, align 4, !dbg !4529, !tbaa !3111
  %317 = invoke dereferenceable(4) i32* @_ZN6VectorIiEixEi(%class.Vector.1* nonnull %22, i32 %316)
          to label %318 unwind label %282, !dbg !4530

318:                                              ; preds = %315
  store i32 %313, i32* %317, align 4, !dbg !4531, !tbaa !3111
  br label %328, !dbg !4530

319:                                              ; preds = %284, %302
  %320 = invoke dereferenceable(4) i32* @_ZN6VectorIiEixEi(%class.Vector.1* nonnull %5, i32 %286)
          to label %321 unwind label %282, !dbg !4532

321:                                              ; preds = %319
  %322 = load i32, i32* %320, align 4, !dbg !4532, !tbaa !3111
  %323 = invoke dereferenceable(4) i32* @_ZN6VectorIiEixEi(%class.Vector.1* nonnull %5, i32 %286)
          to label %324 unwind label %282, !dbg !4533

324:                                              ; preds = %321
  %325 = load i32, i32* %323, align 4, !dbg !4533, !tbaa !3111
  %326 = invoke dereferenceable(4) i32* @_ZN6VectorIiEixEi(%class.Vector.1* nonnull %22, i32 %325)
          to label %327 unwind label %282, !dbg !4534

327:                                              ; preds = %324
  store i32 %322, i32* %326, align 4, !dbg !4535, !tbaa !3111
  br label %328

328:                                              ; preds = %318, %327
  %329 = add nuw nsw i32 %286, 1, !dbg !4536
  call void @llvm.dbg.value(metadata i32 %329, metadata !4178, metadata !DIExpression()), !dbg !4484
  %330 = load %"class.Classification::Wordwise::Program"*, %"class.Classification::Wordwise::Program"** %6, align 8, !dbg !4485, !tbaa !4182
  call void @llvm.dbg.value(metadata %"class.Classification::Wordwise::Program"* %330, metadata !4185, metadata !DIExpression()), !dbg !4487
  call void @llvm.dbg.value(metadata %"class.Classification::Wordwise::Program"* %330, metadata !3510, metadata !DIExpression()), !dbg !4489
  %331 = getelementptr inbounds %"class.Classification::Wordwise::Program", %"class.Classification::Wordwise::Program"* %330, i64 0, i32 0, i32 0, i32 1, !dbg !4491
  %332 = load i32, i32* %331, align 8, !dbg !4491, !tbaa !3517
  %333 = icmp slt i32 %329, %332, !dbg !4492
  br i1 %333, label %284, label %274, !dbg !4493, !llvm.loop !4537

334:                                              ; preds = %282, %280, %203
  %335 = phi { i8*, i32 } [ %283, %282 ], [ %281, %280 ], [ %204, %203 ]
  %336 = extractvalue { i8*, i32 } %335, 0, !dbg !4539
  %337 = extractvalue { i8*, i32 } %335, 1, !dbg !4539
  call void @llvm.dbg.value(metadata %class.Vector.1* %5, metadata !3564, metadata !DIExpression()) #18, !dbg !4540
  call void @llvm.dbg.value(metadata %class.Vector.1* %5, metadata !3549, metadata !DIExpression()) #18, !dbg !4542
  %338 = bitcast %class.Vector.1* %5 to i8**, !dbg !4544
  %339 = load i8*, i8** %338, align 8, !dbg !4545, !tbaa !3558
  %340 = icmp eq i8* %339, null, !dbg !4545
  br i1 %340, label %342, label %341, !dbg !4545

341:                                              ; preds = %334
  call void @_ZdaPv(i8* nonnull %339) #20, !dbg !4545
  br label %342, !dbg !4545

342:                                              ; preds = %341, %334
  call void @llvm.lifetime.end.p0i8(i64 16, i8* nonnull %86) #18, !dbg !4318
  br label %343, !dbg !4318

343:                                              ; preds = %149, %172, %145, %342, %75
  %344 = phi i32 [ %337, %342 ], [ %78, %75 ], [ %148, %145 ], [ %175, %172 ], [ %152, %149 ], !dbg !4539
  %345 = phi i8* [ %336, %342 ], [ %77, %75 ], [ %147, %145 ], [ %174, %172 ], [ %151, %149 ], !dbg !4539
  call void @llvm.dbg.value(metadata %class.Vector.1* %56, metadata !3564, metadata !DIExpression()) #18, !dbg !4546
  call void @llvm.dbg.value(metadata %class.Vector.1* %56, metadata !3549, metadata !DIExpression()) #18, !dbg !4548
  %346 = bitcast %class.Vector.1* %56 to i8**, !dbg !4550
  %347 = load i8*, i8** %346, align 8, !dbg !4551, !tbaa !3558
  %348 = icmp eq i8* %347, null, !dbg !4551
  br i1 %348, label %350, label %349, !dbg !4551

349:                                              ; preds = %343
  call void @_ZdaPv(i8* nonnull %347) #20, !dbg !4551
  br label %350, !dbg !4551

350:                                              ; preds = %349, %343
  call void @llvm.dbg.value(metadata %class.Vector.1* %55, metadata !3564, metadata !DIExpression()) #18, !dbg !4552
  call void @llvm.dbg.value(metadata %class.Vector.1* %55, metadata !3549, metadata !DIExpression()) #18, !dbg !4554
  %351 = bitcast %class.Vector.1* %55 to i8**, !dbg !4556
  %352 = load i8*, i8** %351, align 8, !dbg !4557, !tbaa !3558
  %353 = icmp eq i8* %352, null, !dbg !4557
  br i1 %353, label %355, label %354, !dbg !4557

354:                                              ; preds = %350
  call void @_ZdaPv(i8* nonnull %352) #20, !dbg !4557
  br label %355, !dbg !4557

355:                                              ; preds = %354, %350
  call void @llvm.dbg.value(metadata %class.Vector.1* %54, metadata !3564, metadata !DIExpression()) #18, !dbg !4558
  call void @llvm.dbg.value(metadata %class.Vector.1* %54, metadata !3549, metadata !DIExpression()) #18, !dbg !4560
  %356 = bitcast %class.Vector.1* %54 to i8**, !dbg !4562
  %357 = load i8*, i8** %356, align 8, !dbg !4563, !tbaa !3558
  %358 = icmp eq i8* %357, null, !dbg !4563
  br i1 %358, label %360, label %359, !dbg !4563

359:                                              ; preds = %355
  call void @_ZdaPv(i8* nonnull %357) #20, !dbg !4563
  br label %360, !dbg !4563

360:                                              ; preds = %359, %355
  call void @llvm.dbg.value(metadata %class.Vector.1* %46, metadata !3564, metadata !DIExpression()) #18, !dbg !4564
  call void @llvm.dbg.value(metadata %class.Vector.1* %46, metadata !3549, metadata !DIExpression()) #18, !dbg !4566
  %361 = bitcast %class.Vector.1* %46 to i8**, !dbg !4568
  %362 = load i8*, i8** %361, align 8, !dbg !4569, !tbaa !3558
  %363 = icmp eq i8* %362, null, !dbg !4569
  br i1 %363, label %365, label %364, !dbg !4569

364:                                              ; preds = %360
  call void @_ZdaPv(i8* nonnull %362) #20, !dbg !4569
  br label %365, !dbg !4569

365:                                              ; preds = %364, %360, %71
  %366 = phi i32 [ %74, %71 ], [ %344, %360 ], [ %344, %364 ], !dbg !4180
  %367 = phi i8* [ %73, %71 ], [ %345, %360 ], [ %345, %364 ], !dbg !4180
  call void @llvm.dbg.value(metadata %class.Vector.1* %38, metadata !3564, metadata !DIExpression()) #18, !dbg !4570
  call void @llvm.dbg.value(metadata %class.Vector.1* %38, metadata !3549, metadata !DIExpression()) #18, !dbg !4572
  %368 = bitcast %class.Vector.1* %38 to i8**, !dbg !4574
  %369 = load i8*, i8** %368, align 8, !dbg !4575, !tbaa !3558
  %370 = icmp eq i8* %369, null, !dbg !4575
  br i1 %370, label %372, label %371, !dbg !4575

371:                                              ; preds = %365
  call void @_ZdaPv(i8* nonnull %369) #20, !dbg !4575
  br label %372, !dbg !4575

372:                                              ; preds = %371, %365, %67
  %373 = phi i32 [ %70, %67 ], [ %366, %365 ], [ %366, %371 ], !dbg !4180
  %374 = phi i8* [ %69, %67 ], [ %367, %365 ], [ %367, %371 ], !dbg !4180
  call void @llvm.dbg.value(metadata %class.Vector.1* %37, metadata !3564, metadata !DIExpression()) #18, !dbg !4576
  call void @llvm.dbg.value(metadata %class.Vector.1* %37, metadata !3549, metadata !DIExpression()) #18, !dbg !4578
  %375 = bitcast %class.Vector.1* %37 to i8**, !dbg !4580
  %376 = load i8*, i8** %375, align 8, !dbg !4581, !tbaa !3558
  %377 = icmp eq i8* %376, null, !dbg !4581
  br i1 %377, label %379, label %378, !dbg !4581

378:                                              ; preds = %372
  call void @_ZdaPv(i8* nonnull %376) #20, !dbg !4581
  br label %379, !dbg !4581

379:                                              ; preds = %378, %372
  call void @llvm.dbg.value(metadata %class.Vector.1* %22, metadata !3564, metadata !DIExpression()) #18, !dbg !4582
  call void @llvm.dbg.value(metadata %class.Vector.1* %22, metadata !3549, metadata !DIExpression()) #18, !dbg !4584
  %380 = bitcast %class.Vector.1* %22 to i8**, !dbg !4586
  %381 = load i8*, i8** %380, align 8, !dbg !4587, !tbaa !3558
  %382 = icmp eq i8* %381, null, !dbg !4587
  br i1 %382, label %384, label %383, !dbg !4587

383:                                              ; preds = %379
  call void @_ZdaPv(i8* nonnull %381) #20, !dbg !4587
  br label %384, !dbg !4587

384:                                              ; preds = %383, %379, %64
  %385 = phi i32 [ %66, %64 ], [ %373, %379 ], [ %373, %383 ], !dbg !4180
  %386 = phi i8* [ %65, %64 ], [ %374, %379 ], [ %374, %383 ], !dbg !4180
  call void @llvm.dbg.value(metadata %class.Vector.1* %7, metadata !3564, metadata !DIExpression()) #18, !dbg !4588
  call void @llvm.dbg.value(metadata %class.Vector.1* %7, metadata !3549, metadata !DIExpression()) #18, !dbg !4590
  %387 = bitcast %class.Vector.1* %7 to i8**, !dbg !4592
  %388 = load i8*, i8** %387, align 8, !dbg !4593, !tbaa !3558
  %389 = icmp eq i8* %388, null, !dbg !4593
  br i1 %389, label %391, label %390, !dbg !4593

390:                                              ; preds = %384
  call void @_ZdaPv(i8* nonnull %388) #20, !dbg !4593
  br label %391, !dbg !4593

391:                                              ; preds = %384, %390
  %392 = insertvalue { i8*, i32 } undef, i8* %386, 0, !dbg !4500
  %393 = insertvalue { i8*, i32 } %392, i32 %385, 1, !dbg !4500
  resume { i8*, i32 } %393, !dbg !4500
}

declare !dbg !1942 i32 @_Z11click_qsortPvmmPFiPKvS1_S_ES_(i8*, i64, i64, i32 (i8*, i8*, i8*)*, i8*) local_unnamed_addr #8

; Function Attrs: noinline nounwind optnone sspstrong uwtable
define linkonce_odr dso_local i32* @_ZN6VectorIiE5beginEv(%class.Vector.1* %0) local_unnamed_addr #9 comdat align 2 !dbg !4594 {
  %2 = alloca %class.Vector.1*, align 8
  store %class.Vector.1* %0, %class.Vector.1** %2, align 8, !tbaa !4597
  call void @llvm.dbg.declare(metadata %class.Vector.1** %2, metadata !4596, metadata !DIExpression()), !dbg !4598
  %3 = load %class.Vector.1*, %class.Vector.1** %2, align 8
  %4 = getelementptr inbounds %class.Vector.1, %class.Vector.1* %3, i32 0, i32 0, !dbg !4599
  %5 = getelementptr inbounds %class.vector_memory.2, %class.vector_memory.2* %4, i32 0, i32 0, !dbg !4600
  %6 = load %struct.char_array.3*, %struct.char_array.3** %5, align 8, !dbg !4600, !tbaa !4601
  %7 = bitcast %struct.char_array.3* %6 to i32*, !dbg !4602
  ret i32* %7, !dbg !4603
}

; Function Attrs: nounwind readonly sspstrong uwtable
define internal i32 @_ZN14Classification8WordwiseL20insn_permute_compareEPKvS2_Pv(i8* nocapture readonly %0, i8* nocapture readonly %1, i8* nocapture readonly %2) #3 !dbg !4604 {
  call void @llvm.dbg.value(metadata i8* %0, metadata !4606, metadata !DIExpression()), !dbg !4613
  call void @llvm.dbg.value(metadata i8* %1, metadata !4607, metadata !DIExpression()), !dbg !4613
  call void @llvm.dbg.value(metadata i8* %2, metadata !4608, metadata !DIExpression()), !dbg !4613
  %4 = bitcast i8* %0 to i32*, !dbg !4614
  %5 = load i32, i32* %4, align 4, !dbg !4615, !tbaa !3111
  call void @llvm.dbg.value(metadata i32 %5, metadata !4609, metadata !DIExpression()), !dbg !4613
  %6 = bitcast i8* %1 to i32*, !dbg !4616
  %7 = load i32, i32* %6, align 4, !dbg !4617, !tbaa !3111
  call void @llvm.dbg.value(metadata i32 %7, metadata !4610, metadata !DIExpression()), !dbg !4613
  %8 = bitcast i8* %2 to %"struct.Classification::Wordwise::Insn"*, !dbg !4618
  call void @llvm.dbg.value(metadata %"struct.Classification::Wordwise::Insn"* %8, metadata !4611, metadata !DIExpression()), !dbg !4613
  %9 = sext i32 %5 to i64, !dbg !4619
  %10 = getelementptr inbounds %"struct.Classification::Wordwise::Insn", %"struct.Classification::Wordwise::Insn"* %8, i64 %9, !dbg !4619
  %11 = sext i32 %7 to i64, !dbg !4620
  %12 = getelementptr inbounds %"struct.Classification::Wordwise::Insn", %"struct.Classification::Wordwise::Insn"* %8, i64 %11, !dbg !4620
  call void @llvm.dbg.value(metadata %"struct.Classification::Wordwise::Insn"* %10, metadata !4516, metadata !DIExpression()) #18, !dbg !4621
  call void @llvm.dbg.value(metadata %"struct.Classification::Wordwise::Insn"* %12, metadata !4519, metadata !DIExpression()) #18, !dbg !4621
  %13 = bitcast %"struct.Classification::Wordwise::Insn"* %10 to i8*, !dbg !4623
