; ModuleID = '../elements/standard/counter.cc'
source_filename = "../elements/standard/counter.cc"
target datalayout = "e-m:e-p270:32:32-p271:32:32-p272:64:64-i64:64-f80:128-n8:16:32:64-S128"
target triple = "x86_64-pc-linux-gnu"

%class.ArgContext = type <{ %class.Element*, %class.ErrorHandler*, i8*, i8, [7 x i8] }>
%class.Element = type <{ i32 (...)**, [2 x %"class.Element::Port"*], [4 x %"class.Element::Port"], [2 x i32], %class.Router*, i32, [4 x i8] }>
%"class.Element::Port" = type <{ %class.Element*, i32, [4 x i8] }>
%class.Router = type { %class.Master*, %class.atomic_uint32_t, i32, i8, i32, %class.atomic_uint32_t, %class.Vector, %class.Vector.0, %class.Vector.0, %class.Vector.2, %class.Vector.5, %class.Vector.6, i32, %class.Vector.5, [2 x %class.Vector.5], %class.Vector.5, %class.Vector.8, %class.Vector.5, %class.Vector.0, %class.Vector.5, %class.Vector.5, %class.Vector.5, %class.Vector.5, %class.Handler**, i32, i32, %class.Vector.0, %class.Vector.12, %class.Element*, %class.String, %"struct.Router::notifier_signals_t"*, %class.HashMap_ArenaFactory*, %class.Router*, %class.ThreadSched*, %class.NameInfo*, %class.Vector.5, %class.Vector.0, %class.Router* }
%class.Master = type opaque
%class.atomic_uint32_t = type { i32 }
%class.Vector = type { %class.vector_memory }
%class.vector_memory = type { %struct.char_array*, i32, i32 }
%struct.char_array = type opaque
%class.Vector.2 = type { %class.vector_memory.3 }
%class.vector_memory.3 = type { %struct.char_array.4*, i32, i32 }
%struct.char_array.4 = type opaque
%class.Vector.6 = type { %class.vector_memory.7 }
%class.vector_memory.7 = type { %"struct.Router::element_landmark_t"*, i32, i32 }
%"struct.Router::element_landmark_t" = type { i32, %class.String }
%class.Vector.8 = type { %class.vector_memory.9 }
%class.vector_memory.9 = type { %struct.char_array.10*, i32, i32 }
%struct.char_array.10 = type { [16 x i8] }
%class.Handler = type <{ %class.String, %union.anon, %union.anon.11, i8*, i8*, i32, i32, i32, [4 x i8] }>
%union.anon = type { i32 (i32, %class.String*, %class.Element*, %class.Handler*, %class.ErrorHandler*)* }
%union.anon.11 = type { i32 (i32, %class.String*, %class.Element*, %class.Handler*, %class.ErrorHandler*)* }
%class.Vector.12 = type { %class.vector_memory }
%class.String = type { %"struct.String::rep_t" }
%"struct.String::rep_t" = type { i8*, i32, %"struct.String::memo_t"* }
%"struct.String::memo_t" = type { i32, i32, i32, [8 x i8] }
%"struct.Router::notifier_signals_t" = type { %class.String, i32, [128 x %class.atomic_uint32_t], %"struct.Router::notifier_signals_t"* }
%class.HashMap_ArenaFactory = type opaque
%class.ThreadSched = type { i32 (...)** }
%class.NameInfo = type opaque
%class.Vector.5 = type { %class.vector_memory.3 }
%class.Vector.0 = type { %class.vector_memory.1 }
%class.vector_memory.1 = type { %class.String*, i32, i32 }
%class.ErrorHandler = type <{ i32 (...)**, i32, [4 x i8] }>
%class.Counter = type <{ %class.Element.base, [4 x i8], i64, i64, %class.RateEWMAX, %class.RateEWMAX.13, i64, %class.HandlerCall*, i64, %class.HandlerCall*, i8, [7 x i8] }>
%class.Element.base = type <{ i32 (...)**, [2 x %"class.Element::Port"*], [4 x %"class.Element::Port"], [2 x i32], %class.Router*, i32 }>
%class.RateEWMAX = type { i32, [1 x i64], [1 x %class.DirectEWMAX] }
%class.DirectEWMAX = type { i64 }
%class.RateEWMAX.13 = type { i32, [1 x i64], [1 x %class.DirectEWMAX.16] }
%class.DirectEWMAX.16 = type { i64 }
%class.HandlerCall = type { %class.Element*, %class.Handler*, %class.String }
%class.Args = type { %class.ArgContext.base, i8, i8, i8, %class.Vector.0*, %class.Vector.5, %"struct.Args::Slot"*, [48 x i8] }
%class.ArgContext.base = type <{ %class.Element*, %class.ErrorHandler*, i8*, i8 }>
%"struct.Args::Slot" = type { i32 (...)**, %"struct.Args::Slot"* }
%class.IntArg = type { i32, i32 }
%class.Packet = type { %class.atomic_uint32_t, %class.Packet*, i8*, i8*, i8*, i8*, %"struct.Packet::AllAnno", void (i8*, i64, i8*)*, i8* }
%"struct.Packet::AllAnno" = type { %"union.Packet::Anno", i8*, i8*, i8*, i32, [8 x i8], %class.Packet*, %class.Packet* }
%"union.Packet::Anno" = type { [6 x i64] }
%struct.click_llrpc_counts_st = type { i32, [8 x i32], [8 x i32] }
%class.Task = type { %struct.TaskLink.base, i32, i32, %"union.Task::Status", i1 (%class.Task*, i8*)*, i8*, %class.RouterThread*, %class.Element*, %"union.Task::Pending" }
%struct.TaskLink.base = type <{ %struct.TaskLink*, %struct.TaskLink*, i32 }>
%struct.TaskLink = type <{ %struct.TaskLink*, %struct.TaskLink*, i32, [4 x i8] }>
%"union.Task::Status" = type { i32 }
%class.RouterThread = type { %struct.TaskLink, i8, [7 x i8], %class.TimerSet, %class.SelectSet, [32 x i8], %class.Spinlock, %class.atomic_uint32_t, %class.atomic_uint32_t, %"union.Task::Pending", %"union.Task::Pending"*, %class.SpinlockIRQ, [31 x i8], %class.Master*, i32, i8, i32, i32, [40 x i8] }
%class.TimerSet = type <{ %class.Timestamp, i32, i32, i32, [4 x i8], %class.Vector.17, %class.Vector.18, %class.SimpleSpinlock, [7 x i8], %class.Timestamp, i32, [4 x i8] }>
%class.Vector.17 = type { %class.vector_memory.9 }
%class.Vector.18 = type { %class.vector_memory }
%class.SimpleSpinlock = type { i8 }
%class.Timestamp = type { %"union.Timestamp::rep_t" }
%"union.Timestamp::rep_t" = type { i64 }
%class.SelectSet = type { [2 x i32], i8, %class.Vector.19, %class.Vector.20 }
%class.Vector.19 = type { %class.vector_memory }
%class.Vector.20 = type { %class.vector_memory.21 }
%class.vector_memory.21 = type { %struct.char_array.22*, i32, i32 }
%struct.char_array.22 = type opaque
%class.Spinlock = type { i8 }
%class.SpinlockIRQ = type { i8 }
%"union.Task::Pending" = type { %class.Task* }
%class.Timer = type { i32, %class.Timestamp, %union.anon.23, i8*, %class.Element*, %class.RouterThread* }
%union.anon.23 = type { void (%class.Timer*, i8*)* }
%class.AnyArg = type { i8 }
%"struct.Args::SlotT" = type { %"struct.Args::Slot", %class.String*, %class.String }

$_ZNK7Counter10class_nameEv = comdat any

$_ZNK7Counter10port_countEv = comdat any

$_ZNK6String6lengthEv = comdat any

$__clang_call_terminate = comdat any

$_Z14args_base_readI6AnyArg6StringEvP4ArgsPKciT_RT0_ = comdat any

$_ZN4Args9base_readI6AnyArg6StringEEvPKciT_RT0_ = comdat any

$_ZN4Args5SlotTI6StringED2Ev = comdat any

$_ZN4Args5SlotTI6StringED0Ev = comdat any

$_ZN4Args5SlotTI6StringE5storeEv = comdat any

$_ZTVN4Args5SlotTI6StringEE = comdat any

$_ZTSN4Args5SlotTI6StringEE = comdat any

$_ZTSN4Args4SlotE = comdat any

$_ZTIN4Args4SlotE = comdat any

$_ZTIN4Args5SlotTI6StringEE = comdat any

@_ZTV7Counter = dso_local unnamed_addr constant { [29 x i8*] } { [29 x i8*] [i8* null, i8* bitcast ({ i8*, i8*, i8* }* @_ZTI7Counter to i8*), i8* bitcast (void (%class.Counter*)* @_ZN7CounterD2Ev to i8*), i8* bitcast (void (%class.Counter*)* @_ZN7CounterD0Ev to i8*), i8* bitcast (void (%class.Element*, i32, %class.Packet*)* @_ZN7Element4pushEiP6Packet to i8*), i8* bitcast (%class.Packet* (%class.Element*, i32)* @_ZN7Element4pullEi to i8*), i8* bitcast (%class.Packet* (%class.Counter*, %class.Packet*)* @_ZN7Counter13simple_actionEP6Packet to i8*), i8* bitcast (i1 (%class.Element*, %class.Task*)* @_ZN7Element8run_taskEP4Task to i8*), i8* bitcast (void (%class.Element*, %class.Timer*)* @_ZN7Element9run_timerEP5Timer to i8*), i8* bitcast (void (%class.Element*, i32, i32)* @_ZN7Element8selectedEii to i8*), i8* bitcast (void (%class.Element*, i32)* @_ZN7Element8selectedEi to i8*), i8* bitcast (i8* (%class.Counter*)* @_ZNK7Counter10class_nameEv to i8*), i8* bitcast (i8* (%class.Counter*)* @_ZNK7Counter10port_countEv to i8*), i8* bitcast (i8* (%class.Element*)* @_ZNK7Element10processingEv to i8*), i8* bitcast (i8* (%class.Element*)* @_ZNK7Element9flow_codeEv to i8*), i8* bitcast (i8* (%class.Element*)* @_ZNK7Element5flagsEv to i8*), i8* bitcast (i8* (%class.Element*, i8*)* @_ZN7Element4castEPKc to i8*), i8* bitcast (i8* (%class.Element*, i1, i32, i8*)* @_ZN7Element9port_castEbiPKc to i8*), i8* bitcast (i32 (%class.Element*)* @_ZNK7Element15configure_phaseEv to i8*), i8* bitcast (i32 (%class.Counter*, %class.Vector.0*, %class.ErrorHandler*)* @_ZN7Counter9configureER6VectorI6StringEP12ErrorHandler to i8*), i8* bitcast (void (%class.Counter*)* @_ZN7Counter12add_handlersEv to i8*), i8* bitcast (i32 (%class.Counter*, %class.ErrorHandler*)* @_ZN7Counter10initializeEP12ErrorHandler to i8*), i8* bitcast (void (%class.Element*, %class.Element*, %class.ErrorHandler*)* @_ZN7Element10take_stateEPS_P12ErrorHandler to i8*), i8* bitcast (%class.Element* (%class.Element*)* @_ZNK7Element15hotswap_elementEv to i8*), i8* bitcast (void (%class.Element*, i32)* @_ZN7Element7cleanupENS_12CleanupStageE to i8*), i8* bitcast (void (%class.String*, %class.Element*)* @_ZNK7Element11declarationEv to i8*), i8* bitcast (i1 (%class.Element*)* @_ZNK7Element20can_live_reconfigureEv to i8*), i8* bitcast (i32 (%class.Element*, %class.Vector.0*, %class.ErrorHandler*)* @_ZN7Element16live_reconfigureER6VectorI6StringEP12ErrorHandler to i8*), i8* bitcast (i32 (%class.Counter*, i32, i8*)* @_ZN7Counter5llrpcEjPv to i8*)] }, align 8
@.str = private unnamed_addr constant [11 x i8] c"COUNT_CALL\00", align 1
@.str.1 = private unnamed_addr constant [16 x i8] c"BYTE_COUNT_CALL\00", align 1
@blank_args = external global %class.ArgContext, align 8
@.str.2 = private unnamed_addr constant [25 x i8] c"COUNT_CALL type mismatch\00", align 1
@.str.3 = private unnamed_addr constant [28 x i8] c"COUNT_CALL overflow, max %s\00", align 1
@.str.4 = private unnamed_addr constant [30 x i8] c"BYTE_COUNT_CALL type mismatch\00", align 1
@.str.5 = private unnamed_addr constant [33 x i8] c"BYTE_COUNT_CALL overflow, max %s\00", align 1
@.str.6 = private unnamed_addr constant [8 x i8] c"<error>\00", align 1
@.str.7 = private unnamed_addr constant [51 x i8] c"'count_call' first word should be unsigned (count)\00", align 1
@.str.8 = private unnamed_addr constant [56 x i8] c"'byte_count_call' first word should be unsigned (count)\00", align 1
@.str.9 = private unnamed_addr constant [11 x i8] c"<internal>\00", align 1
@.str.10 = private unnamed_addr constant [6 x i8] c"count\00", align 1
@.str.11 = private unnamed_addr constant [11 x i8] c"byte_count\00", align 1
@.str.12 = private unnamed_addr constant [5 x i8] c"rate\00", align 1
@.str.13 = private unnamed_addr constant [9 x i8] c"bit_rate\00", align 1
@.str.14 = private unnamed_addr constant [10 x i8] c"byte_rate\00", align 1
@.str.15 = private unnamed_addr constant [6 x i8] c"reset\00", align 1
@.str.16 = private unnamed_addr constant [13 x i8] c"reset_counts\00", align 1
@.str.17 = private unnamed_addr constant [11 x i8] c"count_call\00", align 1
@.str.18 = private unnamed_addr constant [16 x i8] c"byte_count_call\00", align 1
@_ZTVN10__cxxabiv120__si_class_type_infoE = external global i8*
@_ZTS7Counter = dso_local constant [9 x i8] c"7Counter\00", align 1
@_ZTI7Element = external constant i8*
@_ZTI7Counter = dso_local constant { i8*, i8*, i8* } { i8* bitcast (i8** getelementptr inbounds (i8*, i8** @_ZTVN10__cxxabiv120__si_class_type_infoE, i64 2) to i8*), i8* getelementptr inbounds ([9 x i8], [9 x i8]* @_ZTS7Counter, i32 0, i32 0), i8* bitcast (i8** @_ZTI7Element to i8*) }, align 8
@_ZN6String9null_dataE = external constant i8, align 1
@.str.19 = private unnamed_addr constant [18 x i8] c"_r.memo->refcount\00", align 1
@.str.20 = private unnamed_addr constant [29 x i8] c"../dummy_inc/click/string.hh\00", align 1
@__PRETTY_FUNCTION__._ZNK6String5derefEv = private unnamed_addr constant [27 x i8] c"void String::deref() const\00", align 1
@_ZN7Handler17the_blank_handlerE = external local_unnamed_addr global %class.Handler*, align 8
@.str.21 = private unnamed_addr constant [8 x i8] c"Counter\00", align 1
@_ZN7Element9PORTS_1_1E = external constant [0 x i8], align 1
@_ZTVN4Args5SlotTI6StringEE = linkonce_odr dso_local unnamed_addr constant { [5 x i8*] } { [5 x i8*] [i8* null, i8* bitcast ({ i8*, i8*, i8* }* @_ZTIN4Args5SlotTI6StringEE to i8*), i8* bitcast (void (%"struct.Args::SlotT"*)* @_ZN4Args5SlotTI6StringED2Ev to i8*), i8* bitcast (void (%"struct.Args::SlotT"*)* @_ZN4Args5SlotTI6StringED0Ev to i8*), i8* bitcast (void (%"struct.Args::SlotT"*)* @_ZN4Args5SlotTI6StringE5storeEv to i8*)] }, comdat, align 8
@_ZTSN4Args5SlotTI6StringEE = linkonce_odr dso_local constant [23 x i8] c"N4Args5SlotTI6StringEE\00", comdat, align 1
@_ZTVN10__cxxabiv117__class_type_infoE = external global i8*
@_ZTSN4Args4SlotE = linkonce_odr dso_local constant [13 x i8] c"N4Args4SlotE\00", comdat, align 1
@_ZTIN4Args4SlotE = linkonce_odr dso_local constant { i8*, i8* } { i8* bitcast (i8** getelementptr inbounds (i8*, i8** @_ZTVN10__cxxabiv117__class_type_infoE, i64 2) to i8*), i8* getelementptr inbounds ([13 x i8], [13 x i8]* @_ZTSN4Args4SlotE, i32 0, i32 0) }, comdat, align 8
@_ZTIN4Args5SlotTI6StringEE = linkonce_odr dso_local constant { i8*, i8*, i8* } { i8* bitcast (i8** getelementptr inbounds (i8*, i8** @_ZTVN10__cxxabiv120__si_class_type_infoE, i64 2) to i8*), i8* getelementptr inbounds ([23 x i8], [23 x i8]* @_ZTSN4Args5SlotTI6StringEE, i32 0, i32 0), i8* bitcast ({ i8*, i8* }* @_ZTIN4Args4SlotE to i8*) }, comdat, align 8
@.str.23 = private unnamed_addr constant [15 x i8] c"invalid number\00", align 1

@_ZN7CounterC1Ev = dso_local unnamed_addr alias void (%class.Counter*), void (%class.Counter*)* @_ZN7CounterC2Ev
@_ZN7CounterD1Ev = dso_local unnamed_addr alias void (%class.Counter*), void (%class.Counter*)* @_ZN7CounterD2Ev

; Function Attrs: sspstrong uwtable
define dso_local void @_ZN7CounterC2Ev(%class.Counter* %0) unnamed_addr #0 align 2 personality i8* bitcast (i32 (...)* @__gxx_personality_v0 to i8*) !dbg !2849 {
  call void @llvm.dbg.value(metadata %class.Counter* %0, metadata !2851, metadata !DIExpression()), !dbg !2852
  %2 = bitcast %class.Counter* %0 to %class.Element*, !dbg !2853
  tail call void @_ZN7ElementC2Ev(%class.Element* %2), !dbg !2854
  %3 = getelementptr %class.Counter, %class.Counter* %0, i64 0, i32 0, i32 0, !dbg !2853
  store i32 (...)** bitcast (i8** getelementptr inbounds ({ [29 x i8*] }, { [29 x i8*] }* @_ZTV7Counter, i64 0, inrange i32 0, i64 2) to i32 (...)**), i32 (...)*** %3, align 8, !dbg !2853, !tbaa !2855
  call void @llvm.dbg.value(metadata %class.Counter* %0, metadata !2858, metadata !DIExpression(DW_OP_plus_uconst, 128, DW_OP_stack_value)), !dbg !2865
  call void @llvm.dbg.value(metadata %class.Counter* %0, metadata !2867, metadata !DIExpression(DW_OP_plus_uconst, 128, DW_OP_plus_uconst, 16, DW_OP_stack_value)), !dbg !2871
  %4 = getelementptr inbounds %class.Counter, %class.Counter* %0, i64 0, i32 4, i32 2, i64 0, i32 0, !dbg !2873
  store i64 0, i64* %4, align 8, !dbg !2873, !tbaa !2874
  %5 = invoke i32 @_Z13click_jiffiesv()
          to label %6 unwind label %16, !dbg !2878

6:                                                ; preds = %1
  call void @llvm.dbg.value(metadata %class.Counter* %0, metadata !2858, metadata !DIExpression(DW_OP_plus_uconst, 128, DW_OP_stack_value)), !dbg !2865
  call void @llvm.dbg.value(metadata %class.Counter* %0, metadata !2867, metadata !DIExpression(DW_OP_plus_uconst, 128, DW_OP_plus_uconst, 16, DW_OP_stack_value)), !dbg !2871
  %7 = getelementptr inbounds %class.Counter, %class.Counter* %0, i64 0, i32 4, i32 0, !dbg !2881
  store i32 %5, i32* %7, align 8, !dbg !2882, !tbaa !2883
  call void @llvm.dbg.value(metadata i32 0, metadata !2861, metadata !DIExpression()), !dbg !2886
  %8 = getelementptr inbounds %class.Counter, %class.Counter* %0, i64 0, i32 4, i32 1, i64 0, !dbg !2887
  store i64 0, i64* %8, align 8, !dbg !2889, !tbaa !2890
  call void @llvm.dbg.value(metadata i32 1, metadata !2861, metadata !DIExpression()), !dbg !2886
  call void @llvm.dbg.value(metadata %class.Counter* %0, metadata !2891, metadata !DIExpression(DW_OP_plus_uconst, 152, DW_OP_stack_value)), !dbg !2898
  call void @llvm.dbg.value(metadata %class.Counter* %0, metadata !2900, metadata !DIExpression(DW_OP_plus_uconst, 152, DW_OP_plus_uconst, 16, DW_OP_stack_value)), !dbg !2904
  %9 = getelementptr inbounds %class.Counter, %class.Counter* %0, i64 0, i32 5, i32 2, i64 0, i32 0, !dbg !2906
  store i64 0, i64* %9, align 8, !dbg !2906, !tbaa !2907
  %10 = invoke i32 @_Z13click_jiffiesv()
          to label %11 unwind label %16, !dbg !2909

11:                                               ; preds = %6
  call void @llvm.dbg.value(metadata %class.Counter* %0, metadata !2891, metadata !DIExpression(DW_OP_plus_uconst, 152, DW_OP_stack_value)), !dbg !2898
  call void @llvm.dbg.value(metadata %class.Counter* %0, metadata !2900, metadata !DIExpression(DW_OP_plus_uconst, 152, DW_OP_plus_uconst, 16, DW_OP_stack_value)), !dbg !2904
  %12 = getelementptr inbounds %class.Counter, %class.Counter* %0, i64 0, i32 5, i32 0, !dbg !2912
  store i32 %10, i32* %12, align 8, !dbg !2913, !tbaa !2914
  call void @llvm.dbg.value(metadata i32 0, metadata !2894, metadata !DIExpression()), !dbg !2916
  %13 = getelementptr inbounds %class.Counter, %class.Counter* %0, i64 0, i32 5, i32 1, i64 0, !dbg !2917
  store i64 0, i64* %13, align 8, !dbg !2919, !tbaa !2890
  call void @llvm.dbg.value(metadata i32 1, metadata !2894, metadata !DIExpression()), !dbg !2916
  %14 = getelementptr inbounds %class.Counter, %class.Counter* %0, i64 0, i32 7, !dbg !2920
  store %class.HandlerCall* null, %class.HandlerCall** %14, align 8, !dbg !2920, !tbaa !2921
  %15 = getelementptr inbounds %class.Counter, %class.Counter* %0, i64 0, i32 9, !dbg !2925
  store %class.HandlerCall* null, %class.HandlerCall** %15, align 8, !dbg !2925, !tbaa !2926
  ret void, !dbg !2927

16:                                               ; preds = %6, %1
  %17 = landingpad { i8*, i32 }
          cleanup, !dbg !2927
  tail call void @_ZN7ElementD2Ev(%class.Element* %2) #13, !dbg !2928
  resume { i8*, i32 } %17, !dbg !2928
}

; Function Attrs: nounwind readnone speculatable willreturn
declare void @llvm.dbg.declare(metadata, metadata, metadata) #1

declare void @_ZN7ElementC2Ev(%class.Element*) unnamed_addr #2

declare i32 @__gxx_personality_v0(...)

; Function Attrs: nounwind
declare void @_ZN7ElementD2Ev(%class.Element*) unnamed_addr #3

; Function Attrs: nounwind sspstrong uwtable
define dso_local void @_ZN7CounterD2Ev(%class.Counter* %0) unnamed_addr #4 align 2 personality i32 (...)* @__gxx_personality_v0 !dbg !2930 {
  call void @llvm.dbg.value(metadata %class.Counter* %0, metadata !2932, metadata !DIExpression()), !dbg !2933
  %2 = getelementptr %class.Counter, %class.Counter* %0, i64 0, i32 0, i32 0, !dbg !2934
  store i32 (...)** bitcast (i8** getelementptr inbounds ({ [29 x i8*] }, { [29 x i8*] }* @_ZTV7Counter, i64 0, inrange i32 0, i64 2) to i32 (...)**), i32 (...)*** %2, align 8, !dbg !2934, !tbaa !2855
  %3 = getelementptr inbounds %class.Counter, %class.Counter* %0, i64 0, i32 7, !dbg !2935
  %4 = load %class.HandlerCall*, %class.HandlerCall** %3, align 8, !dbg !2935, !tbaa !2921
  %5 = icmp eq %class.HandlerCall* %4, null, !dbg !2937
  br i1 %5, label %25, label %6, !dbg !2937

6:                                                ; preds = %1
  call void @llvm.dbg.value(metadata %class.HandlerCall* %4, metadata !2938, metadata !DIExpression()) #13, !dbg !2942
  call void @llvm.dbg.value(metadata %class.HandlerCall* %4, metadata !2944, metadata !DIExpression(DW_OP_plus_uconst, 16, DW_OP_stack_value)) #13, !dbg !2947
  call void @llvm.dbg.value(metadata %class.HandlerCall* %4, metadata !2950, metadata !DIExpression(DW_OP_plus_uconst, 16, DW_OP_stack_value)) #13, !dbg !2953
  %7 = getelementptr inbounds %class.HandlerCall, %class.HandlerCall* %4, i64 0, i32 2, i32 0, i32 2, !dbg !2956
  %8 = load %"struct.String::memo_t"*, %"struct.String::memo_t"** %7, align 8, !dbg !2956, !tbaa !2958
  %9 = icmp eq %"struct.String::memo_t"* %8, null, !dbg !2961
  br i1 %9, label %23, label %10, !dbg !2962

10:                                               ; preds = %6
  %11 = getelementptr inbounds %"struct.String::memo_t", %"struct.String::memo_t"* %8, i64 0, i32 0, !dbg !2963
  %12 = load volatile i32, i32* %11, align 4, !dbg !2963, !tbaa !2965
  %13 = icmp eq i32 %12, 0, !dbg !2963
  br i1 %13, label %14, label %15, !dbg !2963

14:                                               ; preds = %10
  tail call void @__assert_fail(i8* getelementptr inbounds ([18 x i8], [18 x i8]* @.str.19, i64 0, i64 0), i8* getelementptr inbounds ([29 x i8], [29 x i8]* @.str.20, i64 0, i64 0), i32 273, i8* getelementptr inbounds ([27 x i8], [27 x i8]* @__PRETTY_FUNCTION__._ZNK6String5derefEv, i64 0, i64 0)) #14, !dbg !2963
  unreachable, !dbg !2963

15:                                               ; preds = %10
  call void @llvm.dbg.value(metadata i32* %11, metadata !2967, metadata !DIExpression()) #13, !dbg !2970
  %16 = load volatile i32, i32* %11, align 4, !dbg !2973, !tbaa !2974
  %17 = add i32 %16, -1, !dbg !2973
  store volatile i32 %17, i32* %11, align 4, !dbg !2973, !tbaa !2974
  %18 = icmp eq i32 %17, 0, !dbg !2975
  br i1 %18, label %19, label %23, !dbg !2976

19:                                               ; preds = %15
  invoke void @_ZN6String11delete_memoEPNS_6memo_tE(%"struct.String::memo_t"* nonnull %8)
          to label %23 unwind label %20, !dbg !2977

20:                                               ; preds = %19
  %21 = landingpad { i8*, i32 }
          catch i8* null, !dbg !2978
  %22 = extractvalue { i8*, i32 } %21, 0, !dbg !2978
  tail call void @__clang_call_terminate(i8* %22) #14, !dbg !2978
  unreachable, !dbg !2978

23:                                               ; preds = %15, %19, %6
  %24 = bitcast %class.HandlerCall* %4 to i8*, !dbg !2937
  tail call void @_ZdlPv(i8* %24) #15, !dbg !2937
  br label %25, !dbg !2937

25:                                               ; preds = %23, %1
  %26 = getelementptr inbounds %class.Counter, %class.Counter* %0, i64 0, i32 9, !dbg !2979
  %27 = load %class.HandlerCall*, %class.HandlerCall** %26, align 8, !dbg !2979, !tbaa !2926
  %28 = icmp eq %class.HandlerCall* %27, null, !dbg !2980
  br i1 %28, label %48, label %29, !dbg !2980

29:                                               ; preds = %25
  call void @llvm.dbg.value(metadata %class.HandlerCall* %27, metadata !2938, metadata !DIExpression()) #13, !dbg !2981
  call void @llvm.dbg.value(metadata %class.HandlerCall* %27, metadata !2944, metadata !DIExpression(DW_OP_plus_uconst, 16, DW_OP_stack_value)) #13, !dbg !2983
  call void @llvm.dbg.value(metadata %class.HandlerCall* %27, metadata !2950, metadata !DIExpression(DW_OP_plus_uconst, 16, DW_OP_stack_value)) #13, !dbg !2985
  %30 = getelementptr inbounds %class.HandlerCall, %class.HandlerCall* %27, i64 0, i32 2, i32 0, i32 2, !dbg !2987
  %31 = load %"struct.String::memo_t"*, %"struct.String::memo_t"** %30, align 8, !dbg !2987, !tbaa !2958
  %32 = icmp eq %"struct.String::memo_t"* %31, null, !dbg !2988
  br i1 %32, label %46, label %33, !dbg !2989

33:                                               ; preds = %29
  %34 = getelementptr inbounds %"struct.String::memo_t", %"struct.String::memo_t"* %31, i64 0, i32 0, !dbg !2990
  %35 = load volatile i32, i32* %34, align 4, !dbg !2990, !tbaa !2965
  %36 = icmp eq i32 %35, 0, !dbg !2990
  br i1 %36, label %37, label %38, !dbg !2990

37:                                               ; preds = %33
  tail call void @__assert_fail(i8* getelementptr inbounds ([18 x i8], [18 x i8]* @.str.19, i64 0, i64 0), i8* getelementptr inbounds ([29 x i8], [29 x i8]* @.str.20, i64 0, i64 0), i32 273, i8* getelementptr inbounds ([27 x i8], [27 x i8]* @__PRETTY_FUNCTION__._ZNK6String5derefEv, i64 0, i64 0)) #14, !dbg !2990
  unreachable, !dbg !2990

38:                                               ; preds = %33
  call void @llvm.dbg.value(metadata i32* %34, metadata !2967, metadata !DIExpression()) #13, !dbg !2991
  %39 = load volatile i32, i32* %34, align 4, !dbg !2993, !tbaa !2974
  %40 = add i32 %39, -1, !dbg !2993
  store volatile i32 %40, i32* %34, align 4, !dbg !2993, !tbaa !2974
  %41 = icmp eq i32 %40, 0, !dbg !2994
  br i1 %41, label %42, label %46, !dbg !2995

42:                                               ; preds = %38
  invoke void @_ZN6String11delete_memoEPNS_6memo_tE(%"struct.String::memo_t"* nonnull %31)
          to label %46 unwind label %43, !dbg !2996

43:                                               ; preds = %42
  %44 = landingpad { i8*, i32 }
          catch i8* null, !dbg !2997
  %45 = extractvalue { i8*, i32 } %44, 0, !dbg !2997
  tail call void @__clang_call_terminate(i8* %45) #14, !dbg !2997
  unreachable, !dbg !2997

46:                                               ; preds = %38, %42, %29
  %47 = bitcast %class.HandlerCall* %27 to i8*, !dbg !2980
  tail call void @_ZdlPv(i8* %47) #15, !dbg !2980
  br label %48, !dbg !2980

48:                                               ; preds = %46, %25
  %49 = bitcast %class.Counter* %0 to %class.Element*, !dbg !2998
  tail call void @_ZN7ElementD2Ev(%class.Element* %49) #13, !dbg !2998
  ret void, !dbg !2999
}

; Function Attrs: nobuiltin nounwind
declare void @_ZdlPv(i8*) local_unnamed_addr #5

; Function Attrs: nounwind sspstrong uwtable
define dso_local void @_ZN7CounterD0Ev(%class.Counter* %0) unnamed_addr #4 align 2 !dbg !3000 {
  call void @llvm.dbg.value(metadata %class.Counter* %0, metadata !3002, metadata !DIExpression()), !dbg !3003
  tail call void @_ZN7CounterD2Ev(%class.Counter* %0) #13, !dbg !3004
  %2 = bitcast %class.Counter* %0 to i8*, !dbg !3004
  tail call void @_ZdlPv(i8* %2) #15, !dbg !3004
  ret void, !dbg !3005
}

; Function Attrs: nofree norecurse nounwind sspstrong uwtable
define dso_local void @_ZN7Counter5resetEv(%class.Counter* nocapture %0) local_unnamed_addr #6 align 2 !dbg !3006 {
  call void @llvm.dbg.value(metadata %class.Counter* %0, metadata !3008, metadata !DIExpression()), !dbg !3009
  %2 = getelementptr inbounds %class.Counter, %class.Counter* %0, i64 0, i32 2, !dbg !3010
  %3 = getelementptr inbounds %class.Counter, %class.Counter* %0, i64 0, i32 10, !dbg !3011
  %4 = bitcast i64* %2 to i8*, !dbg !3012
  call void @llvm.memset.p0i8.i64(i8* nonnull align 8 dereferenceable(16) %4, i8 0, i64 16, i1 false), !dbg !3013
  %5 = load i8, i8* %3, align 8, !dbg !3012
  %6 = and i8 %5, -4, !dbg !3014
  store i8 %6, i8* %3, align 8, !dbg !3014
  ret void, !dbg !3015
}

; Function Attrs: sspstrong uwtable
define dso_local i32 @_ZN7Counter9configureER6VectorI6StringEP12ErrorHandler(%class.Counter* %0, %class.Vector.0* dereferenceable(16) %1, %class.ErrorHandler* %2) unnamed_addr #0 align 2 personality i8* bitcast (i32 (...)* @__gxx_personality_v0 to i8*) !dbg !3016 {
  %4 = alloca [2 x i32], align 4
  call void @llvm.dbg.declare(metadata [2 x i32]* %4, metadata !3049, metadata !DIExpression()), !dbg !3068
  call void @llvm.dbg.declare(metadata [2 x i32]* %4, metadata !3049, metadata !DIExpression()), !dbg !3071
  %5 = alloca %class.String, align 8
  %6 = alloca %class.String, align 8
  %7 = alloca %class.Args, align 8
  %8 = alloca %class.IntArg, align 4
  %9 = alloca %class.String, align 8
  %10 = alloca %class.String, align 8
  %11 = alloca %class.IntArg, align 4
  %12 = alloca %class.String, align 8
  %13 = alloca %class.String, align 8
  call void @llvm.dbg.value(metadata %class.Counter* %0, metadata !3018, metadata !DIExpression()), !dbg !3074
  call void @llvm.dbg.value(metadata %class.Vector.0* %1, metadata !3019, metadata !DIExpression()), !dbg !3074
  call void @llvm.dbg.value(metadata %class.ErrorHandler* %2, metadata !3020, metadata !DIExpression()), !dbg !3074
  %14 = bitcast %class.String* %5 to i8*, !dbg !3075
  call void @llvm.lifetime.start.p0i8(i64 24, i8* nonnull %14) #13, !dbg !3075
  call void @llvm.dbg.declare(metadata %class.String* %5, metadata !3021, metadata !DIExpression()), !dbg !3076
  call void @llvm.dbg.value(metadata %class.String* %5, metadata !3077, metadata !DIExpression()), !dbg !3080
  call void @llvm.dbg.value(metadata %class.String* %5, metadata !3082, metadata !DIExpression()), !dbg !3088
  call void @llvm.dbg.value(metadata i8* @_ZN6String9null_dataE, metadata !3085, metadata !DIExpression()), !dbg !3088
  call void @llvm.dbg.value(metadata i32 0, metadata !3086, metadata !DIExpression()), !dbg !3088
  call void @llvm.dbg.value(metadata %"struct.String::memo_t"* null, metadata !3087, metadata !DIExpression()), !dbg !3088
  %15 = getelementptr inbounds %class.String, %class.String* %5, i64 0, i32 0, i32 0, !dbg !3091
  store i8* @_ZN6String9null_dataE, i8** %15, align 8, !dbg !3092, !tbaa !3093
  %16 = getelementptr inbounds %class.String, %class.String* %5, i64 0, i32 0, i32 1, !dbg !3094
  store i32 0, i32* %16, align 8, !dbg !3095, !tbaa !3096
  %17 = getelementptr inbounds %class.String, %class.String* %5, i64 0, i32 0, i32 2, !dbg !3097
  store %"struct.String::memo_t"* null, %"struct.String::memo_t"** %17, align 8, !dbg !3099, !tbaa !2958
  %18 = bitcast %class.String* %6 to i8*, !dbg !3075
  call void @llvm.lifetime.start.p0i8(i64 24, i8* nonnull %18) #13, !dbg !3075
  call void @llvm.dbg.declare(metadata %class.String* %6, metadata !3022, metadata !DIExpression()), !dbg !3100
  call void @llvm.dbg.value(metadata %class.String* %6, metadata !3077, metadata !DIExpression()), !dbg !3101
  call void @llvm.dbg.value(metadata %class.String* %6, metadata !3082, metadata !DIExpression()), !dbg !3103
  call void @llvm.dbg.value(metadata i8* @_ZN6String9null_dataE, metadata !3085, metadata !DIExpression()), !dbg !3103
  call void @llvm.dbg.value(metadata i32 0, metadata !3086, metadata !DIExpression()), !dbg !3103
  call void @llvm.dbg.value(metadata %"struct.String::memo_t"* null, metadata !3087, metadata !DIExpression()), !dbg !3103
  %19 = getelementptr inbounds %class.String, %class.String* %6, i64 0, i32 0, i32 0, !dbg !3105
  store i8* @_ZN6String9null_dataE, i8** %19, align 8, !dbg !3106, !tbaa !3093
  %20 = getelementptr inbounds %class.String, %class.String* %6, i64 0, i32 0, i32 1, !dbg !3107
  store i32 0, i32* %20, align 8, !dbg !3108, !tbaa !3096
  %21 = getelementptr inbounds %class.String, %class.String* %6, i64 0, i32 0, i32 2, !dbg !3109
  store %"struct.String::memo_t"* null, %"struct.String::memo_t"** %21, align 8, !dbg !3110, !tbaa !2958
  %22 = bitcast %class.Args* %7 to i8*, !dbg !3111
  call void @llvm.lifetime.start.p0i8(i64 112, i8* nonnull %22) #13, !dbg !3111
  %23 = bitcast %class.Counter* %0 to %class.Element*, !dbg !3113
  invoke void @_ZN4ArgsC1ERK6VectorI6StringEPK7ElementP12ErrorHandler(%class.Args* nonnull %7, %class.Vector.0* nonnull dereferenceable(16) %1, %class.Element* %23, %class.ErrorHandler* %2)
          to label %24 unwind label %30, !dbg !3111

24:                                               ; preds = %3
  call void @llvm.dbg.value(metadata %class.Args* %7, metadata !3114, metadata !DIExpression()), !dbg !3123
  call void @llvm.dbg.value(metadata i8* getelementptr inbounds ([11 x i8], [11 x i8]* @.str, i64 0, i64 0), metadata !3120, metadata !DIExpression()), !dbg !3123
  call void @llvm.dbg.value(metadata %class.String* %5, metadata !3122, metadata !DIExpression()), !dbg !3123
  call void @llvm.dbg.value(metadata %class.Args* %7, metadata !3125, metadata !DIExpression()), !dbg !3135
  call void @llvm.dbg.value(metadata i8* getelementptr inbounds ([11 x i8], [11 x i8]* @.str, i64 0, i64 0), metadata !3131, metadata !DIExpression()), !dbg !3135
  call void @llvm.dbg.value(metadata i32 0, metadata !3132, metadata !DIExpression()), !dbg !3135
  call void @llvm.dbg.value(metadata %class.String* %5, metadata !3134, metadata !DIExpression()), !dbg !3135
  invoke void @_Z14args_base_readI6AnyArg6StringEvP4ArgsPKciT_RT0_(%class.Args* nonnull %7, i8* getelementptr inbounds ([11 x i8], [11 x i8]* @.str, i64 0, i64 0), i32 0, %class.String* nonnull dereferenceable(24) %5)
          to label %25 unwind label %34, !dbg !3137

25:                                               ; preds = %24
  call void @llvm.dbg.value(metadata %class.Args* %7, metadata !3114, metadata !DIExpression()), !dbg !3138
  call void @llvm.dbg.value(metadata i8* getelementptr inbounds ([16 x i8], [16 x i8]* @.str.1, i64 0, i64 0), metadata !3120, metadata !DIExpression()), !dbg !3138
  call void @llvm.dbg.value(metadata %class.String* %6, metadata !3122, metadata !DIExpression()), !dbg !3138
  call void @llvm.dbg.value(metadata %class.Args* %7, metadata !3125, metadata !DIExpression()), !dbg !3140
  call void @llvm.dbg.value(metadata i8* getelementptr inbounds ([16 x i8], [16 x i8]* @.str.1, i64 0, i64 0), metadata !3131, metadata !DIExpression()), !dbg !3140
  call void @llvm.dbg.value(metadata i32 0, metadata !3132, metadata !DIExpression()), !dbg !3140
  call void @llvm.dbg.value(metadata %class.String* %6, metadata !3134, metadata !DIExpression()), !dbg !3140
  invoke void @_Z14args_base_readI6AnyArg6StringEvP4ArgsPKciT_RT0_(%class.Args* nonnull %7, i8* getelementptr inbounds ([16 x i8], [16 x i8]* @.str.1, i64 0, i64 0), i32 0, %class.String* nonnull dereferenceable(24) %6)
          to label %26 unwind label %34, !dbg !3142

26:                                               ; preds = %25
  %27 = invoke i32 @_ZN4Args8completeEv(%class.Args* nonnull %7)
          to label %28 unwind label %34, !dbg !3143

28:                                               ; preds = %26
  %29 = icmp slt i32 %27, 0, !dbg !3144
  call void @_ZN4ArgsD1Ev(%class.Args* nonnull %7) #13, !dbg !3111
  call void @llvm.lifetime.end.p0i8(i64 112, i8* nonnull %22) #13, !dbg !3111
  br i1 %29, label %406, label %41, !dbg !3145

30:                                               ; preds = %3
  %31 = landingpad { i8*, i32 }
          cleanup, !dbg !3146
  %32 = extractvalue { i8*, i32 } %31, 0, !dbg !3146
  %33 = extractvalue { i8*, i32 } %31, 1, !dbg !3146
  br label %38, !dbg !3146

34:                                               ; preds = %25, %24, %26
  %35 = landingpad { i8*, i32 }
          cleanup, !dbg !3146
  %36 = extractvalue { i8*, i32 } %35, 0, !dbg !3146
  %37 = extractvalue { i8*, i32 } %35, 1, !dbg !3146
  call void @_ZN4ArgsD1Ev(%class.Args* nonnull %7) #13, !dbg !3111
  br label %38, !dbg !3111

38:                                               ; preds = %34, %30
  %39 = phi i8* [ %36, %34 ], [ %32, %30 ], !dbg !3146
  %40 = phi i32 [ %37, %34 ], [ %33, %30 ], !dbg !3146
  call void @llvm.lifetime.end.p0i8(i64 112, i8* nonnull %22) #13, !dbg !3111
  br label %442, !dbg !3111

41:                                               ; preds = %28
  call void @llvm.dbg.value(metadata %class.String* %5, metadata !3147, metadata !DIExpression()), !dbg !3150
  %42 = load i32, i32* %16, align 8, !dbg !3152, !tbaa !3096
  %43 = icmp eq i32 %42, 0, !dbg !3153
  %44 = select i1 %43, { i64, i64 } zeroinitializer, { i64, i64 } { i64 ptrtoint (i32 (%class.String*)* @_ZNK6String6lengthEv to i64), i64 0 }, !dbg !3154
  %45 = extractvalue { i64, i64 } %44, 0, !dbg !3155
  %46 = icmp eq i64 %45, 0, !dbg !3155
  br i1 %46, label %221, label %47, !dbg !3156

47:                                               ; preds = %41
  %48 = bitcast %class.IntArg* %8 to i8*, !dbg !3157
  call void @llvm.lifetime.start.p0i8(i64 8, i8* nonnull %48) #13, !dbg !3157
  call void @llvm.dbg.declare(metadata %class.IntArg* %8, metadata !3023, metadata !DIExpression()), !dbg !3158
  call void @llvm.dbg.value(metadata %class.IntArg* %8, metadata !3159, metadata !DIExpression()), !dbg !3163
  call void @llvm.dbg.value(metadata i32 0, metadata !3162, metadata !DIExpression()), !dbg !3163
  %49 = getelementptr inbounds %class.IntArg, %class.IntArg* %8, i64 0, i32 0, !dbg !3165
  store i32 0, i32* %49, align 4, !dbg !3165, !tbaa !3166
  %50 = bitcast %class.String* %9 to i8*, !dbg !3168
  call void @llvm.lifetime.start.p0i8(i64 24, i8* nonnull %50) #13, !dbg !3168
  invoke void @_Z17cp_shift_spacevecR6String(%class.String* nonnull sret %9, %class.String* nonnull dereferenceable(24) %5)
          to label %51 unwind label %107, !dbg !3168

51:                                               ; preds = %47
  %52 = getelementptr inbounds %class.Counter, %class.Counter* %0, i64 0, i32 6, !dbg !3169
  call void @llvm.dbg.value(metadata %class.IntArg* %8, metadata !3058, metadata !DIExpression()), !dbg !3170
  call void @llvm.dbg.value(metadata %class.String* %9, metadata !3060, metadata !DIExpression()), !dbg !3170
  call void @llvm.dbg.value(metadata i64* %52, metadata !3061, metadata !DIExpression()), !dbg !3170
  call void @llvm.dbg.value(metadata %class.ArgContext* @blank_args, metadata !3062, metadata !DIExpression()), !dbg !3170
  call void @llvm.dbg.value(metadata i8 0, metadata !3063, metadata !DIExpression()), !dbg !3170
  call void @llvm.dbg.value(metadata i32 2, metadata !3064, metadata !DIExpression()), !dbg !3170
  %53 = bitcast [2 x i32]* %4 to i8*, !dbg !3171
  call void @llvm.lifetime.start.p0i8(i64 8, i8* nonnull %53) #13, !dbg !3171
  call void @llvm.dbg.value(metadata %class.String* %9, metadata !3172, metadata !DIExpression()), !dbg !3175
  %54 = getelementptr inbounds %class.String, %class.String* %9, i64 0, i32 0, i32 0, !dbg !3178
  %55 = load i8*, i8** %54, align 8, !dbg !3178, !tbaa !3093
  call void @llvm.dbg.value(metadata %class.String* %9, metadata !3179, metadata !DIExpression()), !dbg !3182
  %56 = getelementptr inbounds %class.String, %class.String* %9, i64 0, i32 0, i32 1, !dbg !3184
  %57 = load i32, i32* %56, align 8, !dbg !3184, !tbaa !3096
  %58 = sext i32 %57 to i64, !dbg !3185
  %59 = getelementptr inbounds i8, i8* %55, i64 %58, !dbg !3185
  %60 = getelementptr inbounds [2 x i32], [2 x i32]* %4, i64 0, i64 0, !dbg !3186
  %61 = invoke i8* @_ZN6IntArg5parseEPKcS1_biPji(%class.IntArg* nonnull %8, i8* %55, i8* %59, i1 zeroext false, i32 8, i32* nonnull %60, i32 2)
          to label %62 unwind label %111, !dbg !3187

62:                                               ; preds = %51
  call void @llvm.dbg.value(metadata %class.String* %9, metadata !3179, metadata !DIExpression()), !dbg !3188
  %63 = load i8*, i8** %54, align 8, !dbg !3190, !tbaa !3093
  %64 = load i32, i32* %56, align 8, !dbg !3191, !tbaa !3096
  %65 = sext i32 %64 to i64, !dbg !3192
  %66 = getelementptr inbounds i8, i8* %63, i64 %65, !dbg !3192
  %67 = icmp eq i8* %61, %66, !dbg !3193
  %68 = getelementptr inbounds %class.IntArg, %class.IntArg* %8, i64 0, i32 1, !dbg !3170
  br i1 %67, label %70, label %69, !dbg !3194

69:                                               ; preds = %62
  store i32 22, i32* %68, align 4, !dbg !3195, !tbaa !3196
  br label %72, !dbg !3197

70:                                               ; preds = %62
  %71 = load i32, i32* %68, align 4, !dbg !3199, !tbaa !3196
  switch i32 %71, label %72 [
    i32 0, label %73
    i32 34, label %73
  ], !dbg !3197

72:                                               ; preds = %70, %69
  invoke void (%class.ArgContext*, i8*, ...) @_ZNK10ArgContext5errorEPKcz(%class.ArgContext* nonnull @blank_args, i8* getelementptr inbounds ([15 x i8], [15 x i8]* @.str.23, i64 0, i64 0))
          to label %81 unwind label %111, !dbg !3200

73:                                               ; preds = %70, %70
  call void @llvm.dbg.value(metadata i32* %60, metadata !3202, metadata !DIExpression()), !dbg !3212
  call void @llvm.dbg.value(metadata i64* %52, metadata !3209, metadata !DIExpression()), !dbg !3212
  call void @llvm.dbg.value(metadata i32* %60, metadata !3214, metadata !DIExpression()), !dbg !3223
  call void @llvm.dbg.value(metadata i64* %52, metadata !3222, metadata !DIExpression()), !dbg !3223
  %74 = getelementptr inbounds [2 x i32], [2 x i32]* %4, i64 0, i64 1, !dbg !3225
  call void @llvm.dbg.value(metadata i32* %74, metadata !3226, metadata !DIExpression()), !dbg !3235
  call void @llvm.dbg.value(metadata i64* %52, metadata !3234, metadata !DIExpression()), !dbg !3235
  %75 = load i32, i32* %74, align 4, !dbg !3237, !tbaa !2974
  %76 = zext i32 %75 to i64, !dbg !3237
  %77 = shl nuw i64 %76, 32, !dbg !3238
  %78 = load i32, i32* %60, align 4, !dbg !3239, !tbaa !2974
  %79 = zext i32 %78 to i64, !dbg !3239
  %80 = or i64 %77, %79, !dbg !3240
  store i64 %80, i64* %52, align 8, !dbg !3241, !tbaa !2890
  br label %81, !dbg !3242

81:                                               ; preds = %73, %72
  %82 = phi i1 [ true, %73 ], [ false, %72 ], !dbg !3170
  call void @llvm.lifetime.end.p0i8(i64 8, i8* nonnull %53) #13, !dbg !3243
  call void @llvm.dbg.value(metadata %class.String* %9, metadata !2944, metadata !DIExpression()) #13, !dbg !3244
  call void @llvm.dbg.value(metadata %class.String* %9, metadata !2950, metadata !DIExpression()) #13, !dbg !3246
  %83 = getelementptr inbounds %class.String, %class.String* %9, i64 0, i32 0, i32 2, !dbg !3248
  %84 = load %"struct.String::memo_t"*, %"struct.String::memo_t"** %83, align 8, !dbg !3248, !tbaa !2958
  %85 = icmp eq %"struct.String::memo_t"* %84, null, !dbg !3249
  br i1 %85, label %100, label %86, !dbg !3250

86:                                               ; preds = %81
  %87 = getelementptr inbounds %"struct.String::memo_t", %"struct.String::memo_t"* %84, i64 0, i32 0, !dbg !3251
  %88 = load volatile i32, i32* %87, align 4, !dbg !3251, !tbaa !2965
  %89 = icmp eq i32 %88, 0, !dbg !3251
  br i1 %89, label %90, label %91, !dbg !3251

90:                                               ; preds = %86
  call void @__assert_fail(i8* getelementptr inbounds ([18 x i8], [18 x i8]* @.str.19, i64 0, i64 0), i8* getelementptr inbounds ([29 x i8], [29 x i8]* @.str.20, i64 0, i64 0), i32 273, i8* getelementptr inbounds ([27 x i8], [27 x i8]* @__PRETTY_FUNCTION__._ZNK6String5derefEv, i64 0, i64 0)) #14, !dbg !3251
  unreachable, !dbg !3251

91:                                               ; preds = %86
  call void @llvm.dbg.value(metadata i32* %87, metadata !2967, metadata !DIExpression()) #13, !dbg !3252
  %92 = load volatile i32, i32* %87, align 4, !dbg !3254, !tbaa !2974
  %93 = add i32 %92, -1, !dbg !3254
  store volatile i32 %93, i32* %87, align 4, !dbg !3254, !tbaa !2974
  %94 = icmp eq i32 %93, 0, !dbg !3255
  br i1 %94, label %95, label %96, !dbg !3256

95:                                               ; preds = %91
  invoke void @_ZN6String11delete_memoEPNS_6memo_tE(%"struct.String::memo_t"* nonnull %84)
          to label %96 unwind label %97, !dbg !3257

96:                                               ; preds = %95, %91
  store %"struct.String::memo_t"* null, %"struct.String::memo_t"** %83, align 8, !dbg !3258, !tbaa !2958
  br label %100, !dbg !3259

97:                                               ; preds = %95
  %98 = landingpad { i8*, i32 }
          catch i8* null, !dbg !3260
  %99 = extractvalue { i8*, i32 } %98, 0, !dbg !3260
  call void @__clang_call_terminate(i8* %99) #14, !dbg !3260
  unreachable, !dbg !3260

100:                                              ; preds = %81, %96
  call void @llvm.lifetime.end.p0i8(i64 24, i8* nonnull %50) #13, !dbg !3261
  br i1 %82, label %135, label %101, !dbg !3262

101:                                              ; preds = %100
  %102 = invoke i32 (%class.ErrorHandler*, i8*, ...) @_ZN12ErrorHandler5errorEPKcz(%class.ErrorHandler* %2, i8* getelementptr inbounds ([25 x i8], [25 x i8]* @.str.2, i64 0, i64 0))
          to label %217 unwind label %103, !dbg !3263

103:                                              ; preds = %192, %101
  %104 = landingpad { i8*, i32 }
          cleanup, !dbg !3264
  %105 = extractvalue { i8*, i32 } %104, 0, !dbg !3264
  %106 = extractvalue { i8*, i32 } %104, 1, !dbg !3264
  br label %218, !dbg !3264

107:                                              ; preds = %47
  %108 = landingpad { i8*, i32 }
          cleanup, !dbg !3265
  %109 = extractvalue { i8*, i32 } %108, 0, !dbg !3265
  %110 = extractvalue { i8*, i32 } %108, 1, !dbg !3265
  br label %132, !dbg !3265

111:                                              ; preds = %72, %51
  %112 = landingpad { i8*, i32 }
          cleanup, !dbg !3265
  %113 = extractvalue { i8*, i32 } %112, 0, !dbg !3265
  %114 = extractvalue { i8*, i32 } %112, 1, !dbg !3265
  call void @llvm.dbg.value(metadata %class.String* %9, metadata !2944, metadata !DIExpression()) #13, !dbg !3266
  call void @llvm.dbg.value(metadata %class.String* %9, metadata !2950, metadata !DIExpression()) #13, !dbg !3268
  %115 = getelementptr inbounds %class.String, %class.String* %9, i64 0, i32 0, i32 2, !dbg !3270
  %116 = load %"struct.String::memo_t"*, %"struct.String::memo_t"** %115, align 8, !dbg !3270, !tbaa !2958
  %117 = icmp eq %"struct.String::memo_t"* %116, null, !dbg !3271
  br i1 %117, label %132, label %118, !dbg !3272

118:                                              ; preds = %111
  %119 = getelementptr inbounds %"struct.String::memo_t", %"struct.String::memo_t"* %116, i64 0, i32 0, !dbg !3273
  %120 = load volatile i32, i32* %119, align 4, !dbg !3273, !tbaa !2965
  %121 = icmp eq i32 %120, 0, !dbg !3273
  br i1 %121, label %122, label %123, !dbg !3273

122:                                              ; preds = %118
  call void @__assert_fail(i8* getelementptr inbounds ([18 x i8], [18 x i8]* @.str.19, i64 0, i64 0), i8* getelementptr inbounds ([29 x i8], [29 x i8]* @.str.20, i64 0, i64 0), i32 273, i8* getelementptr inbounds ([27 x i8], [27 x i8]* @__PRETTY_FUNCTION__._ZNK6String5derefEv, i64 0, i64 0)) #14, !dbg !3273
  unreachable, !dbg !3273

123:                                              ; preds = %118
  call void @llvm.dbg.value(metadata i32* %119, metadata !2967, metadata !DIExpression()) #13, !dbg !3274
  %124 = load volatile i32, i32* %119, align 4, !dbg !3276, !tbaa !2974
  %125 = add i32 %124, -1, !dbg !3276
  store volatile i32 %125, i32* %119, align 4, !dbg !3276, !tbaa !2974
  %126 = icmp eq i32 %125, 0, !dbg !3277
  br i1 %126, label %127, label %128, !dbg !3278

127:                                              ; preds = %123
  invoke void @_ZN6String11delete_memoEPNS_6memo_tE(%"struct.String::memo_t"* nonnull %116)
          to label %128 unwind label %129, !dbg !3279

128:                                              ; preds = %127, %123
  store %"struct.String::memo_t"* null, %"struct.String::memo_t"** %115, align 8, !dbg !3280, !tbaa !2958
  br label %132, !dbg !3281

129:                                              ; preds = %127
  %130 = landingpad { i8*, i32 }
          catch i8* null, !dbg !3282
  %131 = extractvalue { i8*, i32 } %130, 0, !dbg !3282
  call void @__clang_call_terminate(i8* %131) #14, !dbg !3282
  unreachable, !dbg !3282

132:                                              ; preds = %128, %111, %107
  %133 = phi i8* [ %109, %107 ], [ %113, %111 ], [ %113, %128 ], !dbg !3265
  %134 = phi i32 [ %110, %107 ], [ %114, %111 ], [ %114, %128 ], !dbg !3265
  call void @llvm.lifetime.end.p0i8(i64 24, i8* nonnull %50) #13, !dbg !3261
  br label %218, !dbg !3261

135:                                              ; preds = %100
  %136 = load i32, i32* %68, align 4, !dbg !3283, !tbaa !3196
  %137 = icmp eq i32 %136, 34, !dbg !3285
  br i1 %137, label %138, label %192, !dbg !3286

138:                                              ; preds = %135
  %139 = bitcast %class.String* %10 to i8*, !dbg !3287
  call void @llvm.lifetime.start.p0i8(i64 24, i8* nonnull %139) #13, !dbg !3287
  %140 = load i64, i64* %52, align 8, !dbg !3288, !tbaa !3289
  invoke void @_ZN6StringC1Em(%class.String* nonnull %10, i64 %140)
          to label %141 unwind label %164, !dbg !3287

141:                                              ; preds = %138
  %142 = invoke i8* @_ZNK6String5c_strEv(%class.String* nonnull %10)
          to label %143 unwind label %168, !dbg !3290

143:                                              ; preds = %141
  %144 = invoke i32 (%class.ErrorHandler*, i8*, ...) @_ZN12ErrorHandler5errorEPKcz(%class.ErrorHandler* %2, i8* getelementptr inbounds ([28 x i8], [28 x i8]* @.str.3, i64 0, i64 0), i8* %142)
          to label %145 unwind label %168, !dbg !3291

145:                                              ; preds = %143
  call void @llvm.dbg.value(metadata %class.String* %10, metadata !2944, metadata !DIExpression()) #13, !dbg !3292
  call void @llvm.dbg.value(metadata %class.String* %10, metadata !2950, metadata !DIExpression()) #13, !dbg !3294
  %146 = getelementptr inbounds %class.String, %class.String* %10, i64 0, i32 0, i32 2, !dbg !3296
  %147 = load %"struct.String::memo_t"*, %"struct.String::memo_t"** %146, align 8, !dbg !3296, !tbaa !2958
  %148 = icmp eq %"struct.String::memo_t"* %147, null, !dbg !3297
  br i1 %148, label %163, label %149, !dbg !3298

149:                                              ; preds = %145
  %150 = getelementptr inbounds %"struct.String::memo_t", %"struct.String::memo_t"* %147, i64 0, i32 0, !dbg !3299
  %151 = load volatile i32, i32* %150, align 4, !dbg !3299, !tbaa !2965
  %152 = icmp eq i32 %151, 0, !dbg !3299
  br i1 %152, label %153, label %154, !dbg !3299

153:                                              ; preds = %149
  call void @__assert_fail(i8* getelementptr inbounds ([18 x i8], [18 x i8]* @.str.19, i64 0, i64 0), i8* getelementptr inbounds ([29 x i8], [29 x i8]* @.str.20, i64 0, i64 0), i32 273, i8* getelementptr inbounds ([27 x i8], [27 x i8]* @__PRETTY_FUNCTION__._ZNK6String5derefEv, i64 0, i64 0)) #14, !dbg !3299
  unreachable, !dbg !3299

154:                                              ; preds = %149
  call void @llvm.dbg.value(metadata i32* %150, metadata !2967, metadata !DIExpression()) #13, !dbg !3300
  %155 = load volatile i32, i32* %150, align 4, !dbg !3302, !tbaa !2974
  %156 = add i32 %155, -1, !dbg !3302
  store volatile i32 %156, i32* %150, align 4, !dbg !3302, !tbaa !2974
  %157 = icmp eq i32 %156, 0, !dbg !3303
  br i1 %157, label %158, label %159, !dbg !3304

158:                                              ; preds = %154
  invoke void @_ZN6String11delete_memoEPNS_6memo_tE(%"struct.String::memo_t"* nonnull %147)
          to label %159 unwind label %160, !dbg !3305

159:                                              ; preds = %158, %154
  store %"struct.String::memo_t"* null, %"struct.String::memo_t"** %146, align 8, !dbg !3306, !tbaa !2958
  br label %163, !dbg !3307

160:                                              ; preds = %158
  %161 = landingpad { i8*, i32 }
          catch i8* null, !dbg !3308
  %162 = extractvalue { i8*, i32 } %161, 0, !dbg !3308
  call void @__clang_call_terminate(i8* %162) #14, !dbg !3308
  unreachable, !dbg !3308

163:                                              ; preds = %145, %159
  call void @llvm.lifetime.end.p0i8(i64 24, i8* nonnull %139) #13, !dbg !3309
  br label %192, !dbg !3309

164:                                              ; preds = %138
  %165 = landingpad { i8*, i32 }
          cleanup, !dbg !3310
  %166 = extractvalue { i8*, i32 } %165, 0, !dbg !3310
  %167 = extractvalue { i8*, i32 } %165, 1, !dbg !3310
  br label %189, !dbg !3310

168:                                              ; preds = %143, %141
  %169 = landingpad { i8*, i32 }
          cleanup, !dbg !3310
  %170 = extractvalue { i8*, i32 } %169, 0, !dbg !3310
  %171 = extractvalue { i8*, i32 } %169, 1, !dbg !3310
  call void @llvm.dbg.value(metadata %class.String* %10, metadata !2944, metadata !DIExpression()) #13, !dbg !3311
  call void @llvm.dbg.value(metadata %class.String* %10, metadata !2950, metadata !DIExpression()) #13, !dbg !3313
  %172 = getelementptr inbounds %class.String, %class.String* %10, i64 0, i32 0, i32 2, !dbg !3315
  %173 = load %"struct.String::memo_t"*, %"struct.String::memo_t"** %172, align 8, !dbg !3315, !tbaa !2958
  %174 = icmp eq %"struct.String::memo_t"* %173, null, !dbg !3316
  br i1 %174, label %189, label %175, !dbg !3317

175:                                              ; preds = %168
  %176 = getelementptr inbounds %"struct.String::memo_t", %"struct.String::memo_t"* %173, i64 0, i32 0, !dbg !3318
  %177 = load volatile i32, i32* %176, align 4, !dbg !3318, !tbaa !2965
  %178 = icmp eq i32 %177, 0, !dbg !3318
  br i1 %178, label %179, label %180, !dbg !3318

179:                                              ; preds = %175
  call void @__assert_fail(i8* getelementptr inbounds ([18 x i8], [18 x i8]* @.str.19, i64 0, i64 0), i8* getelementptr inbounds ([29 x i8], [29 x i8]* @.str.20, i64 0, i64 0), i32 273, i8* getelementptr inbounds ([27 x i8], [27 x i8]* @__PRETTY_FUNCTION__._ZNK6String5derefEv, i64 0, i64 0)) #14, !dbg !3318
  unreachable, !dbg !3318

180:                                              ; preds = %175
  call void @llvm.dbg.value(metadata i32* %176, metadata !2967, metadata !DIExpression()) #13, !dbg !3319
  %181 = load volatile i32, i32* %176, align 4, !dbg !3321, !tbaa !2974
  %182 = add i32 %181, -1, !dbg !3321
  store volatile i32 %182, i32* %176, align 4, !dbg !3321, !tbaa !2974
  %183 = icmp eq i32 %182, 0, !dbg !3322
  br i1 %183, label %184, label %185, !dbg !3323

184:                                              ; preds = %180
  invoke void @_ZN6String11delete_memoEPNS_6memo_tE(%"struct.String::memo_t"* nonnull %173)
          to label %185 unwind label %186, !dbg !3324

185:                                              ; preds = %184, %180
  store %"struct.String::memo_t"* null, %"struct.String::memo_t"** %172, align 8, !dbg !3325, !tbaa !2958
  br label %189, !dbg !3326

186:                                              ; preds = %184
  %187 = landingpad { i8*, i32 }
          catch i8* null, !dbg !3327
  %188 = extractvalue { i8*, i32 } %187, 0, !dbg !3327
  call void @__clang_call_terminate(i8* %188) #14, !dbg !3327
  unreachable, !dbg !3327

189:                                              ; preds = %185, %168, %164
  %190 = phi i8* [ %166, %164 ], [ %170, %168 ], [ %170, %185 ], !dbg !3310
  %191 = phi i32 [ %167, %164 ], [ %171, %168 ], [ %171, %185 ], !dbg !3310
  call void @llvm.lifetime.end.p0i8(i64 24, i8* nonnull %139) #13, !dbg !3309
  br label %218, !dbg !3309

192:                                              ; preds = %135, %163
  %193 = invoke dereferenceable(40) i8* @_Znwm(i64 40) #16
          to label %194 unwind label %103, !dbg !3328

194:                                              ; preds = %192
  call void @llvm.dbg.value(metadata i8* %193, metadata !3329, metadata !DIExpression()), !dbg !3333
  call void @llvm.dbg.value(metadata %class.String* %5, metadata !3332, metadata !DIExpression()), !dbg !3333
  %195 = bitcast i8* %193 to %class.Element**, !dbg !3335
  store %class.Element* inttoptr (i64 4 to %class.Element*), %class.Element** %195, align 8, !dbg !3335, !tbaa !3336
  %196 = getelementptr inbounds i8, i8* %193, i64 8, !dbg !3338
  %197 = load i64, i64* bitcast (%class.Handler** @_ZN7Handler17the_blank_handlerE to i64*), align 8, !dbg !3339, !tbaa !3342
  %198 = bitcast i8* %196 to i64*, !dbg !3338
  store i64 %197, i64* %198, align 8, !dbg !3338, !tbaa !3343
  %199 = getelementptr inbounds i8, i8* %193, i64 16, !dbg !3344
  call void @llvm.dbg.value(metadata i8* %199, metadata !3345, metadata !DIExpression()), !dbg !3349
  call void @llvm.dbg.value(metadata %class.String* %5, metadata !3348, metadata !DIExpression()), !dbg !3349
  call void @llvm.dbg.value(metadata i8* %199, metadata !3351, metadata !DIExpression()), !dbg !3355
  call void @llvm.dbg.value(metadata %class.String* %5, metadata !3354, metadata !DIExpression()), !dbg !3355
  %200 = bitcast %class.String* %5 to i64*, !dbg !3358
  %201 = load i64, i64* %200, align 8, !dbg !3358, !tbaa !3093
  %202 = load i32, i32* %16, align 8, !dbg !3359, !tbaa !3096
  %203 = load %"struct.String::memo_t"*, %"struct.String::memo_t"** %17, align 8, !dbg !3360, !tbaa !2958
  call void @llvm.dbg.value(metadata i8* %199, metadata !3082, metadata !DIExpression()), !dbg !3361
  call void @llvm.dbg.value(metadata i8* undef, metadata !3085, metadata !DIExpression()), !dbg !3361
  call void @llvm.dbg.value(metadata i32 %202, metadata !3086, metadata !DIExpression()), !dbg !3361
  call void @llvm.dbg.value(metadata %"struct.String::memo_t"* %203, metadata !3087, metadata !DIExpression()), !dbg !3361
  %204 = bitcast i8* %199 to i64*, !dbg !3363
  store i64 %201, i64* %204, align 8, !dbg !3363, !tbaa !3093
  %205 = getelementptr inbounds i8, i8* %193, i64 24, !dbg !3364
  %206 = bitcast i8* %205 to i32*, !dbg !3364
  store i32 %202, i32* %206, align 8, !dbg !3365, !tbaa !3096
  %207 = getelementptr inbounds i8, i8* %193, i64 32, !dbg !3366
  %208 = bitcast i8* %207 to %"struct.String::memo_t"**, !dbg !3366
  store %"struct.String::memo_t"* %203, %"struct.String::memo_t"** %208, align 8, !dbg !3367, !tbaa !2958
  %209 = icmp eq %"struct.String::memo_t"* %203, null, !dbg !3368
  br i1 %209, label %214, label %210, !dbg !3369

210:                                              ; preds = %194
  %211 = getelementptr inbounds %"struct.String::memo_t", %"struct.String::memo_t"* %203, i64 0, i32 0, !dbg !3370
  call void @llvm.dbg.value(metadata i32* %211, metadata !3371, metadata !DIExpression()), !dbg !3374
  %212 = load volatile i32, i32* %211, align 4, !dbg !3376, !tbaa !2974
  %213 = add i32 %212, 1, !dbg !3376
  store volatile i32 %213, i32* %211, align 4, !dbg !3376, !tbaa !2974
  br label %214, !dbg !3377

214:                                              ; preds = %194, %210
  %215 = getelementptr inbounds %class.Counter, %class.Counter* %0, i64 0, i32 7, !dbg !3378
  %216 = bitcast %class.HandlerCall** %215 to i8**, !dbg !3379
  store i8* %193, i8** %216, align 8, !dbg !3379, !tbaa !2921
  call void @llvm.lifetime.end.p0i8(i64 8, i8* nonnull %48) #13, !dbg !3380
  br label %223

217:                                              ; preds = %101
  call void @llvm.lifetime.end.p0i8(i64 8, i8* nonnull %48) #13, !dbg !3380
  br label %406

218:                                              ; preds = %189, %132, %103
  %219 = phi i8* [ %105, %103 ], [ %190, %189 ], [ %133, %132 ], !dbg !3381
  %220 = phi i32 [ %106, %103 ], [ %191, %189 ], [ %134, %132 ], !dbg !3381
  call void @llvm.lifetime.end.p0i8(i64 8, i8* nonnull %48) #13, !dbg !3380
  br label %442, !dbg !3380

221:                                              ; preds = %41
  %222 = getelementptr inbounds %class.Counter, %class.Counter* %0, i64 0, i32 6, !dbg !3382
  store i64 -1, i64* %222, align 8, !dbg !3383, !tbaa !3289
  br label %223

223:                                              ; preds = %214, %221
  call void @llvm.dbg.value(metadata %class.String* %6, metadata !3147, metadata !DIExpression()), !dbg !3384
  %224 = load i32, i32* %20, align 8, !dbg !3386, !tbaa !3096
  %225 = icmp eq i32 %224, 0, !dbg !3387
  %226 = select i1 %225, { i64, i64 } zeroinitializer, { i64, i64 } { i64 ptrtoint (i32 (%class.String*)* @_ZNK6String6lengthEv to i64), i64 0 }, !dbg !3388
  %227 = extractvalue { i64, i64 } %226, 0, !dbg !3389
  %228 = icmp eq i64 %227, 0, !dbg !3389
  br i1 %228, label %404, label %229, !dbg !3390

229:                                              ; preds = %223
  %230 = bitcast %class.IntArg* %11 to i8*, !dbg !3391
  call void @llvm.lifetime.start.p0i8(i64 8, i8* nonnull %230) #13, !dbg !3391
  call void @llvm.dbg.declare(metadata %class.IntArg* %11, metadata !3046, metadata !DIExpression()), !dbg !3392
  call void @llvm.dbg.value(metadata %class.IntArg* %11, metadata !3159, metadata !DIExpression()), !dbg !3393
  call void @llvm.dbg.value(metadata i32 0, metadata !3162, metadata !DIExpression()), !dbg !3393
  %231 = getelementptr inbounds %class.IntArg, %class.IntArg* %11, i64 0, i32 0, !dbg !3395
  store i32 0, i32* %231, align 4, !dbg !3395, !tbaa !3166
  %232 = bitcast %class.String* %12 to i8*, !dbg !3396
  call void @llvm.lifetime.start.p0i8(i64 24, i8* nonnull %232) #13, !dbg !3396
  invoke void @_Z17cp_shift_spacevecR6String(%class.String* nonnull sret %12, %class.String* nonnull dereferenceable(24) %6)
          to label %233 unwind label %289, !dbg !3396

233:                                              ; preds = %229
  %234 = getelementptr inbounds %class.Counter, %class.Counter* %0, i64 0, i32 8, !dbg !3397
  call void @llvm.dbg.value(metadata %class.IntArg* %11, metadata !3058, metadata !DIExpression()), !dbg !3398
  call void @llvm.dbg.value(metadata %class.String* %12, metadata !3060, metadata !DIExpression()), !dbg !3398
  call void @llvm.dbg.value(metadata i64* %234, metadata !3061, metadata !DIExpression()), !dbg !3398
  call void @llvm.dbg.value(metadata %class.ArgContext* @blank_args, metadata !3062, metadata !DIExpression()), !dbg !3398
  call void @llvm.dbg.value(metadata i8 0, metadata !3063, metadata !DIExpression()), !dbg !3398
  call void @llvm.dbg.value(metadata i32 2, metadata !3064, metadata !DIExpression()), !dbg !3398
  %235 = bitcast [2 x i32]* %4 to i8*, !dbg !3399
  call void @llvm.lifetime.start.p0i8(i64 8, i8* nonnull %235) #13, !dbg !3399
  call void @llvm.dbg.value(metadata %class.String* %12, metadata !3172, metadata !DIExpression()), !dbg !3400
  %236 = getelementptr inbounds %class.String, %class.String* %12, i64 0, i32 0, i32 0, !dbg !3402
  %237 = load i8*, i8** %236, align 8, !dbg !3402, !tbaa !3093
  call void @llvm.dbg.value(metadata %class.String* %12, metadata !3179, metadata !DIExpression()), !dbg !3403
  %238 = getelementptr inbounds %class.String, %class.String* %12, i64 0, i32 0, i32 1, !dbg !3405
  %239 = load i32, i32* %238, align 8, !dbg !3405, !tbaa !3096
  %240 = sext i32 %239 to i64, !dbg !3406
  %241 = getelementptr inbounds i8, i8* %237, i64 %240, !dbg !3406
  %242 = getelementptr inbounds [2 x i32], [2 x i32]* %4, i64 0, i64 0, !dbg !3407
  %243 = invoke i8* @_ZN6IntArg5parseEPKcS1_biPji(%class.IntArg* nonnull %11, i8* %237, i8* %241, i1 zeroext false, i32 8, i32* nonnull %242, i32 2)
          to label %244 unwind label %293, !dbg !3408

244:                                              ; preds = %233
  call void @llvm.dbg.value(metadata %class.String* %12, metadata !3179, metadata !DIExpression()), !dbg !3409
  %245 = load i8*, i8** %236, align 8, !dbg !3411, !tbaa !3093
  %246 = load i32, i32* %238, align 8, !dbg !3412, !tbaa !3096
  %247 = sext i32 %246 to i64, !dbg !3413
  %248 = getelementptr inbounds i8, i8* %245, i64 %247, !dbg !3413
  %249 = icmp eq i8* %243, %248, !dbg !3414
  %250 = getelementptr inbounds %class.IntArg, %class.IntArg* %11, i64 0, i32 1, !dbg !3398
  br i1 %249, label %252, label %251, !dbg !3415

251:                                              ; preds = %244
  store i32 22, i32* %250, align 4, !dbg !3416, !tbaa !3196
  br label %254, !dbg !3417

252:                                              ; preds = %244
  %253 = load i32, i32* %250, align 4, !dbg !3418, !tbaa !3196
  switch i32 %253, label %254 [
    i32 0, label %255
    i32 34, label %255
  ], !dbg !3417

254:                                              ; preds = %252, %251
  invoke void (%class.ArgContext*, i8*, ...) @_ZNK10ArgContext5errorEPKcz(%class.ArgContext* nonnull @blank_args, i8* getelementptr inbounds ([15 x i8], [15 x i8]* @.str.23, i64 0, i64 0))
          to label %263 unwind label %293, !dbg !3419

255:                                              ; preds = %252, %252
  call void @llvm.dbg.value(metadata i32* %242, metadata !3202, metadata !DIExpression()), !dbg !3420
  call void @llvm.dbg.value(metadata i64* %234, metadata !3209, metadata !DIExpression()), !dbg !3420
  call void @llvm.dbg.value(metadata i32* %242, metadata !3214, metadata !DIExpression()), !dbg !3422
  call void @llvm.dbg.value(metadata i64* %234, metadata !3222, metadata !DIExpression()), !dbg !3422
  %256 = getelementptr inbounds [2 x i32], [2 x i32]* %4, i64 0, i64 1, !dbg !3424
  call void @llvm.dbg.value(metadata i32* %256, metadata !3226, metadata !DIExpression()), !dbg !3425
  call void @llvm.dbg.value(metadata i64* %234, metadata !3234, metadata !DIExpression()), !dbg !3425
  %257 = load i32, i32* %256, align 4, !dbg !3427, !tbaa !2974
  %258 = zext i32 %257 to i64, !dbg !3427
  %259 = shl nuw i64 %258, 32, !dbg !3428
  %260 = load i32, i32* %242, align 4, !dbg !3429, !tbaa !2974
  %261 = zext i32 %260 to i64, !dbg !3429
  %262 = or i64 %259, %261, !dbg !3430
  store i64 %262, i64* %234, align 8, !dbg !3431, !tbaa !2890
  br label %263, !dbg !3432

263:                                              ; preds = %255, %254
  %264 = phi i1 [ true, %255 ], [ false, %254 ], !dbg !3398
  call void @llvm.lifetime.end.p0i8(i64 8, i8* nonnull %235) #13, !dbg !3433
  call void @llvm.dbg.value(metadata %class.String* %12, metadata !2944, metadata !DIExpression()) #13, !dbg !3434
  call void @llvm.dbg.value(metadata %class.String* %12, metadata !2950, metadata !DIExpression()) #13, !dbg !3436
  %265 = getelementptr inbounds %class.String, %class.String* %12, i64 0, i32 0, i32 2, !dbg !3438
  %266 = load %"struct.String::memo_t"*, %"struct.String::memo_t"** %265, align 8, !dbg !3438, !tbaa !2958
  %267 = icmp eq %"struct.String::memo_t"* %266, null, !dbg !3439
  br i1 %267, label %282, label %268, !dbg !3440

268:                                              ; preds = %263
  %269 = getelementptr inbounds %"struct.String::memo_t", %"struct.String::memo_t"* %266, i64 0, i32 0, !dbg !3441
  %270 = load volatile i32, i32* %269, align 4, !dbg !3441, !tbaa !2965
  %271 = icmp eq i32 %270, 0, !dbg !3441
  br i1 %271, label %272, label %273, !dbg !3441

272:                                              ; preds = %268
  call void @__assert_fail(i8* getelementptr inbounds ([18 x i8], [18 x i8]* @.str.19, i64 0, i64 0), i8* getelementptr inbounds ([29 x i8], [29 x i8]* @.str.20, i64 0, i64 0), i32 273, i8* getelementptr inbounds ([27 x i8], [27 x i8]* @__PRETTY_FUNCTION__._ZNK6String5derefEv, i64 0, i64 0)) #14, !dbg !3441
  unreachable, !dbg !3441

273:                                              ; preds = %268
  call void @llvm.dbg.value(metadata i32* %269, metadata !2967, metadata !DIExpression()) #13, !dbg !3442
  %274 = load volatile i32, i32* %269, align 4, !dbg !3444, !tbaa !2974
  %275 = add i32 %274, -1, !dbg !3444
  store volatile i32 %275, i32* %269, align 4, !dbg !3444, !tbaa !2974
  %276 = icmp eq i32 %275, 0, !dbg !3445
  br i1 %276, label %277, label %278, !dbg !3446

277:                                              ; preds = %273
  invoke void @_ZN6String11delete_memoEPNS_6memo_tE(%"struct.String::memo_t"* nonnull %266)
          to label %278 unwind label %279, !dbg !3447

278:                                              ; preds = %277, %273
  store %"struct.String::memo_t"* null, %"struct.String::memo_t"** %265, align 8, !dbg !3448, !tbaa !2958
  br label %282, !dbg !3449

279:                                              ; preds = %277
  %280 = landingpad { i8*, i32 }
          catch i8* null, !dbg !3450
  %281 = extractvalue { i8*, i32 } %280, 0, !dbg !3450
  call void @__clang_call_terminate(i8* %281) #14, !dbg !3450
  unreachable, !dbg !3450

282:                                              ; preds = %263, %278
  call void @llvm.lifetime.end.p0i8(i64 24, i8* nonnull %232) #13, !dbg !3451
  br i1 %264, label %317, label %283, !dbg !3452

283:                                              ; preds = %282
  %284 = invoke i32 (%class.ErrorHandler*, i8*, ...) @_ZN12ErrorHandler5errorEPKcz(%class.ErrorHandler* %2, i8* getelementptr inbounds ([30 x i8], [30 x i8]* @.str.4, i64 0, i64 0))
          to label %400 unwind label %285, !dbg !3453

285:                                              ; preds = %375, %283
  %286 = landingpad { i8*, i32 }
          cleanup, !dbg !3454
  %287 = extractvalue { i8*, i32 } %286, 0, !dbg !3454
  %288 = extractvalue { i8*, i32 } %286, 1, !dbg !3454
  br label %401, !dbg !3454

289:                                              ; preds = %229
  %290 = landingpad { i8*, i32 }
          cleanup, !dbg !3455
  %291 = extractvalue { i8*, i32 } %290, 0, !dbg !3455
  %292 = extractvalue { i8*, i32 } %290, 1, !dbg !3455
  br label %314, !dbg !3455

293:                                              ; preds = %254, %233
  %294 = landingpad { i8*, i32 }
          cleanup, !dbg !3455
  %295 = extractvalue { i8*, i32 } %294, 0, !dbg !3455
  %296 = extractvalue { i8*, i32 } %294, 1, !dbg !3455
  call void @llvm.dbg.value(metadata %class.String* %12, metadata !2944, metadata !DIExpression()) #13, !dbg !3456
  call void @llvm.dbg.value(metadata %class.String* %12, metadata !2950, metadata !DIExpression()) #13, !dbg !3458
  %297 = getelementptr inbounds %class.String, %class.String* %12, i64 0, i32 0, i32 2, !dbg !3460
  %298 = load %"struct.String::memo_t"*, %"struct.String::memo_t"** %297, align 8, !dbg !3460, !tbaa !2958
  %299 = icmp eq %"struct.String::memo_t"* %298, null, !dbg !3461
  br i1 %299, label %314, label %300, !dbg !3462

300:                                              ; preds = %293
  %301 = getelementptr inbounds %"struct.String::memo_t", %"struct.String::memo_t"* %298, i64 0, i32 0, !dbg !3463
  %302 = load volatile i32, i32* %301, align 4, !dbg !3463, !tbaa !2965
  %303 = icmp eq i32 %302, 0, !dbg !3463
  br i1 %303, label %304, label %305, !dbg !3463

304:                                              ; preds = %300
  call void @__assert_fail(i8* getelementptr inbounds ([18 x i8], [18 x i8]* @.str.19, i64 0, i64 0), i8* getelementptr inbounds ([29 x i8], [29 x i8]* @.str.20, i64 0, i64 0), i32 273, i8* getelementptr inbounds ([27 x i8], [27 x i8]* @__PRETTY_FUNCTION__._ZNK6String5derefEv, i64 0, i64 0)) #14, !dbg !3463
  unreachable, !dbg !3463

305:                                              ; preds = %300
  call void @llvm.dbg.value(metadata i32* %301, metadata !2967, metadata !DIExpression()) #13, !dbg !3464
  %306 = load volatile i32, i32* %301, align 4, !dbg !3466, !tbaa !2974
  %307 = add i32 %306, -1, !dbg !3466
  store volatile i32 %307, i32* %301, align 4, !dbg !3466, !tbaa !2974
  %308 = icmp eq i32 %307, 0, !dbg !3467
  br i1 %308, label %309, label %310, !dbg !3468

309:                                              ; preds = %305
  invoke void @_ZN6String11delete_memoEPNS_6memo_tE(%"struct.String::memo_t"* nonnull %298)
          to label %310 unwind label %311, !dbg !3469

310:                                              ; preds = %309, %305
  store %"struct.String::memo_t"* null, %"struct.String::memo_t"** %297, align 8, !dbg !3470, !tbaa !2958
  br label %314, !dbg !3471

311:                                              ; preds = %309
  %312 = landingpad { i8*, i32 }
          catch i8* null, !dbg !3472
  %313 = extractvalue { i8*, i32 } %312, 0, !dbg !3472
  call void @__clang_call_terminate(i8* %313) #14, !dbg !3472
  unreachable, !dbg !3472

314:                                              ; preds = %310, %293, %289
  %315 = phi i8* [ %291, %289 ], [ %295, %293 ], [ %295, %310 ], !dbg !3455
  %316 = phi i32 [ %292, %289 ], [ %296, %293 ], [ %296, %310 ], !dbg !3455
  call void @llvm.lifetime.end.p0i8(i64 24, i8* nonnull %232) #13, !dbg !3451
  br label %401, !dbg !3451

317:                                              ; preds = %282
  %318 = load i32, i32* %250, align 4, !dbg !3473, !tbaa !3196
  %319 = icmp eq i32 %318, 34, !dbg !3475
  br i1 %319, label %320, label %375, !dbg !3476

320:                                              ; preds = %317
  %321 = bitcast %class.String* %13 to i8*, !dbg !3477
  call void @llvm.lifetime.start.p0i8(i64 24, i8* nonnull %321) #13, !dbg !3477
  %322 = getelementptr inbounds %class.Counter, %class.Counter* %0, i64 0, i32 6, !dbg !3478
  %323 = load i64, i64* %322, align 8, !dbg !3478, !tbaa !3289
  invoke void @_ZN6StringC1Em(%class.String* nonnull %13, i64 %323)
          to label %324 unwind label %347, !dbg !3477

324:                                              ; preds = %320
  %325 = invoke i8* @_ZNK6String5c_strEv(%class.String* nonnull %13)
          to label %326 unwind label %351, !dbg !3479

326:                                              ; preds = %324
  %327 = invoke i32 (%class.ErrorHandler*, i8*, ...) @_ZN12ErrorHandler5errorEPKcz(%class.ErrorHandler* %2, i8* getelementptr inbounds ([33 x i8], [33 x i8]* @.str.5, i64 0, i64 0), i8* %325)
          to label %328 unwind label %351, !dbg !3480

328:                                              ; preds = %326
  call void @llvm.dbg.value(metadata %class.String* %13, metadata !2944, metadata !DIExpression()) #13, !dbg !3481
  call void @llvm.dbg.value(metadata %class.String* %13, metadata !2950, metadata !DIExpression()) #13, !dbg !3483
  %329 = getelementptr inbounds %class.String, %class.String* %13, i64 0, i32 0, i32 2, !dbg !3485
  %330 = load %"struct.String::memo_t"*, %"struct.String::memo_t"** %329, align 8, !dbg !3485, !tbaa !2958
  %331 = icmp eq %"struct.String::memo_t"* %330, null, !dbg !3486
  br i1 %331, label %346, label %332, !dbg !3487

332:                                              ; preds = %328
  %333 = getelementptr inbounds %"struct.String::memo_t", %"struct.String::memo_t"* %330, i64 0, i32 0, !dbg !3488
  %334 = load volatile i32, i32* %333, align 4, !dbg !3488, !tbaa !2965
  %335 = icmp eq i32 %334, 0, !dbg !3488
  br i1 %335, label %336, label %337, !dbg !3488

336:                                              ; preds = %332
  call void @__assert_fail(i8* getelementptr inbounds ([18 x i8], [18 x i8]* @.str.19, i64 0, i64 0), i8* getelementptr inbounds ([29 x i8], [29 x i8]* @.str.20, i64 0, i64 0), i32 273, i8* getelementptr inbounds ([27 x i8], [27 x i8]* @__PRETTY_FUNCTION__._ZNK6String5derefEv, i64 0, i64 0)) #14, !dbg !3488
  unreachable, !dbg !3488

337:                                              ; preds = %332
  call void @llvm.dbg.value(metadata i32* %333, metadata !2967, metadata !DIExpression()) #13, !dbg !3489
  %338 = load volatile i32, i32* %333, align 4, !dbg !3491, !tbaa !2974
  %339 = add i32 %338, -1, !dbg !3491
  store volatile i32 %339, i32* %333, align 4, !dbg !3491, !tbaa !2974
  %340 = icmp eq i32 %339, 0, !dbg !3492
  br i1 %340, label %341, label %342, !dbg !3493

341:                                              ; preds = %337
  invoke void @_ZN6String11delete_memoEPNS_6memo_tE(%"struct.String::memo_t"* nonnull %330)
          to label %342 unwind label %343, !dbg !3494

342:                                              ; preds = %341, %337
  store %"struct.String::memo_t"* null, %"struct.String::memo_t"** %329, align 8, !dbg !3495, !tbaa !2958
  br label %346, !dbg !3496

343:                                              ; preds = %341
  %344 = landingpad { i8*, i32 }
          catch i8* null, !dbg !3497
  %345 = extractvalue { i8*, i32 } %344, 0, !dbg !3497
  call void @__clang_call_terminate(i8* %345) #14, !dbg !3497
  unreachable, !dbg !3497

346:                                              ; preds = %328, %342
  call void @llvm.lifetime.end.p0i8(i64 24, i8* nonnull %321) #13, !dbg !3498
  br label %375, !dbg !3498

347:                                              ; preds = %320
  %348 = landingpad { i8*, i32 }
          cleanup, !dbg !3499
  %349 = extractvalue { i8*, i32 } %348, 0, !dbg !3499
  %350 = extractvalue { i8*, i32 } %348, 1, !dbg !3499
  br label %372, !dbg !3499

351:                                              ; preds = %326, %324
  %352 = landingpad { i8*, i32 }
          cleanup, !dbg !3499
  %353 = extractvalue { i8*, i32 } %352, 0, !dbg !3499
  %354 = extractvalue { i8*, i32 } %352, 1, !dbg !3499
  call void @llvm.dbg.value(metadata %class.String* %13, metadata !2944, metadata !DIExpression()) #13, !dbg !3500
  call void @llvm.dbg.value(metadata %class.String* %13, metadata !2950, metadata !DIExpression()) #13, !dbg !3502
  %355 = getelementptr inbounds %class.String, %class.String* %13, i64 0, i32 0, i32 2, !dbg !3504
  %356 = load %"struct.String::memo_t"*, %"struct.String::memo_t"** %355, align 8, !dbg !3504, !tbaa !2958
  %357 = icmp eq %"struct.String::memo_t"* %356, null, !dbg !3505
  br i1 %357, label %372, label %358, !dbg !3506

358:                                              ; preds = %351
  %359 = getelementptr inbounds %"struct.String::memo_t", %"struct.String::memo_t"* %356, i64 0, i32 0, !dbg !3507
  %360 = load volatile i32, i32* %359, align 4, !dbg !3507, !tbaa !2965
  %361 = icmp eq i32 %360, 0, !dbg !3507
  br i1 %361, label %362, label %363, !dbg !3507

362:                                              ; preds = %358
  call void @__assert_fail(i8* getelementptr inbounds ([18 x i8], [18 x i8]* @.str.19, i64 0, i64 0), i8* getelementptr inbounds ([29 x i8], [29 x i8]* @.str.20, i64 0, i64 0), i32 273, i8* getelementptr inbounds ([27 x i8], [27 x i8]* @__PRETTY_FUNCTION__._ZNK6String5derefEv, i64 0, i64 0)) #14, !dbg !3507
  unreachable, !dbg !3507

363:                                              ; preds = %358
  call void @llvm.dbg.value(metadata i32* %359, metadata !2967, metadata !DIExpression()) #13, !dbg !3508
  %364 = load volatile i32, i32* %359, align 4, !dbg !3510, !tbaa !2974
  %365 = add i32 %364, -1, !dbg !3510
  store volatile i32 %365, i32* %359, align 4, !dbg !3510, !tbaa !2974
  %366 = icmp eq i32 %365, 0, !dbg !3511
  br i1 %366, label %367, label %368, !dbg !3512

367:                                              ; preds = %363
  invoke void @_ZN6String11delete_memoEPNS_6memo_tE(%"struct.String::memo_t"* nonnull %356)
          to label %368 unwind label %369, !dbg !3513

368:                                              ; preds = %367, %363
  store %"struct.String::memo_t"* null, %"struct.String::memo_t"** %355, align 8, !dbg !3514, !tbaa !2958
  br label %372, !dbg !3515

369:                                              ; preds = %367
  %370 = landingpad { i8*, i32 }
          catch i8* null, !dbg !3516
  %371 = extractvalue { i8*, i32 } %370, 0, !dbg !3516
  call void @__clang_call_terminate(i8* %371) #14, !dbg !3516
  unreachable, !dbg !3516

372:                                              ; preds = %368, %351, %347
  %373 = phi i8* [ %349, %347 ], [ %353, %351 ], [ %353, %368 ], !dbg !3499
  %374 = phi i32 [ %350, %347 ], [ %354, %351 ], [ %354, %368 ], !dbg !3499
  call void @llvm.lifetime.end.p0i8(i64 24, i8* nonnull %321) #13, !dbg !3498
  br label %401, !dbg !3498

375:                                              ; preds = %317, %346
  %376 = invoke dereferenceable(40) i8* @_Znwm(i64 40) #16
          to label %377 unwind label %285, !dbg !3517

377:                                              ; preds = %375
  call void @llvm.dbg.value(metadata i8* %376, metadata !3329, metadata !DIExpression()), !dbg !3518
  call void @llvm.dbg.value(metadata %class.String* %6, metadata !3332, metadata !DIExpression()), !dbg !3518
  %378 = bitcast i8* %376 to %class.Element**, !dbg !3520
  store %class.Element* inttoptr (i64 4 to %class.Element*), %class.Element** %378, align 8, !dbg !3520, !tbaa !3336
  %379 = getelementptr inbounds i8, i8* %376, i64 8, !dbg !3521
  %380 = load i64, i64* bitcast (%class.Handler** @_ZN7Handler17the_blank_handlerE to i64*), align 8, !dbg !3522, !tbaa !3342
  %381 = bitcast i8* %379 to i64*, !dbg !3521
  store i64 %380, i64* %381, align 8, !dbg !3521, !tbaa !3343
  %382 = getelementptr inbounds i8, i8* %376, i64 16, !dbg !3524
  call void @llvm.dbg.value(metadata i8* %382, metadata !3345, metadata !DIExpression()), !dbg !3525
  call void @llvm.dbg.value(metadata %class.String* %6, metadata !3348, metadata !DIExpression()), !dbg !3525
  call void @llvm.dbg.value(metadata i8* %382, metadata !3351, metadata !DIExpression()), !dbg !3527
  call void @llvm.dbg.value(metadata %class.String* %6, metadata !3354, metadata !DIExpression()), !dbg !3527
  %383 = bitcast %class.String* %6 to i64*, !dbg !3529
  %384 = load i64, i64* %383, align 8, !dbg !3529, !tbaa !3093
  %385 = load i32, i32* %20, align 8, !dbg !3530, !tbaa !3096
  %386 = load %"struct.String::memo_t"*, %"struct.String::memo_t"** %21, align 8, !dbg !3531, !tbaa !2958
  call void @llvm.dbg.value(metadata i8* %382, metadata !3082, metadata !DIExpression()), !dbg !3532
  call void @llvm.dbg.value(metadata i8* undef, metadata !3085, metadata !DIExpression()), !dbg !3532
  call void @llvm.dbg.value(metadata i32 %385, metadata !3086, metadata !DIExpression()), !dbg !3532
  call void @llvm.dbg.value(metadata %"struct.String::memo_t"* %386, metadata !3087, metadata !DIExpression()), !dbg !3532
  %387 = bitcast i8* %382 to i64*, !dbg !3534
  store i64 %384, i64* %387, align 8, !dbg !3534, !tbaa !3093
  %388 = getelementptr inbounds i8, i8* %376, i64 24, !dbg !3535
  %389 = bitcast i8* %388 to i32*, !dbg !3535
  store i32 %385, i32* %389, align 8, !dbg !3536, !tbaa !3096
  %390 = getelementptr inbounds i8, i8* %376, i64 32, !dbg !3537
  %391 = bitcast i8* %390 to %"struct.String::memo_t"**, !dbg !3537
  store %"struct.String::memo_t"* %386, %"struct.String::memo_t"** %391, align 8, !dbg !3538, !tbaa !2958
  %392 = icmp eq %"struct.String::memo_t"* %386, null, !dbg !3539
  br i1 %392, label %397, label %393, !dbg !3540

393:                                              ; preds = %377
  %394 = getelementptr inbounds %"struct.String::memo_t", %"struct.String::memo_t"* %386, i64 0, i32 0, !dbg !3541
  call void @llvm.dbg.value(metadata i32* %394, metadata !3371, metadata !DIExpression()), !dbg !3542
  %395 = load volatile i32, i32* %394, align 4, !dbg !3544, !tbaa !2974
  %396 = add i32 %395, 1, !dbg !3544
  store volatile i32 %396, i32* %394, align 4, !dbg !3544, !tbaa !2974
  br label %397, !dbg !3545

397:                                              ; preds = %377, %393
  %398 = getelementptr inbounds %class.Counter, %class.Counter* %0, i64 0, i32 9, !dbg !3546
  %399 = bitcast %class.HandlerCall** %398 to i8**, !dbg !3547
  store i8* %376, i8** %399, align 8, !dbg !3547, !tbaa !2926
  call void @llvm.lifetime.end.p0i8(i64 8, i8* nonnull %230) #13, !dbg !3548
  br label %406

400:                                              ; preds = %283
  call void @llvm.lifetime.end.p0i8(i64 8, i8* nonnull %230) #13, !dbg !3548
  br label %406

401:                                              ; preds = %372, %314, %285
  %402 = phi i8* [ %287, %285 ], [ %373, %372 ], [ %315, %314 ], !dbg !3549
  %403 = phi i32 [ %288, %285 ], [ %374, %372 ], [ %316, %314 ], !dbg !3549
  call void @llvm.lifetime.end.p0i8(i64 8, i8* nonnull %230) #13, !dbg !3548
  br label %442, !dbg !3548

404:                                              ; preds = %223
  %405 = getelementptr inbounds %class.Counter, %class.Counter* %0, i64 0, i32 8, !dbg !3550
  store i64 -1, i64* %405, align 8, !dbg !3551, !tbaa !3552
  br label %406

406:                                              ; preds = %404, %397, %400, %217, %28
  %407 = phi i32 [ %284, %400 ], [ %102, %217 ], [ -1, %28 ], [ 0, %397 ], [ 0, %404 ], !dbg !3074
  call void @llvm.dbg.value(metadata %class.String* %6, metadata !2944, metadata !DIExpression()) #13, !dbg !3553
  call void @llvm.dbg.value(metadata %class.String* %6, metadata !2950, metadata !DIExpression()) #13, !dbg !3555
  %408 = load %"struct.String::memo_t"*, %"struct.String::memo_t"** %21, align 8, !dbg !3557, !tbaa !2958
  %409 = icmp eq %"struct.String::memo_t"* %408, null, !dbg !3558
  br i1 %409, label %424, label %410, !dbg !3559

410:                                              ; preds = %406
  %411 = getelementptr inbounds %"struct.String::memo_t", %"struct.String::memo_t"* %408, i64 0, i32 0, !dbg !3560
  %412 = load volatile i32, i32* %411, align 4, !dbg !3560, !tbaa !2965
  %413 = icmp eq i32 %412, 0, !dbg !3560
  br i1 %413, label %414, label %415, !dbg !3560

414:                                              ; preds = %410
  call void @__assert_fail(i8* getelementptr inbounds ([18 x i8], [18 x i8]* @.str.19, i64 0, i64 0), i8* getelementptr inbounds ([29 x i8], [29 x i8]* @.str.20, i64 0, i64 0), i32 273, i8* getelementptr inbounds ([27 x i8], [27 x i8]* @__PRETTY_FUNCTION__._ZNK6String5derefEv, i64 0, i64 0)) #14, !dbg !3560
  unreachable, !dbg !3560

415:                                              ; preds = %410
  call void @llvm.dbg.value(metadata i32* %411, metadata !2967, metadata !DIExpression()) #13, !dbg !3561
  %416 = load volatile i32, i32* %411, align 4, !dbg !3563, !tbaa !2974
  %417 = add i32 %416, -1, !dbg !3563
  store volatile i32 %417, i32* %411, align 4, !dbg !3563, !tbaa !2974
  %418 = icmp eq i32 %417, 0, !dbg !3564
  br i1 %418, label %419, label %420, !dbg !3565

419:                                              ; preds = %415
  invoke void @_ZN6String11delete_memoEPNS_6memo_tE(%"struct.String::memo_t"* nonnull %408)
          to label %420 unwind label %421, !dbg !3566

420:                                              ; preds = %419, %415
  store %"struct.String::memo_t"* null, %"struct.String::memo_t"** %21, align 8, !dbg !3567, !tbaa !2958
  br label %424, !dbg !3568

421:                                              ; preds = %419
  %422 = landingpad { i8*, i32 }
          catch i8* null, !dbg !3569
  %423 = extractvalue { i8*, i32 } %422, 0, !dbg !3569
  call void @__clang_call_terminate(i8* %423) #14, !dbg !3569
  unreachable, !dbg !3569

424:                                              ; preds = %406, %420
  call void @llvm.lifetime.end.p0i8(i64 24, i8* nonnull %18) #13, !dbg !3570
  call void @llvm.dbg.value(metadata %class.String* %5, metadata !2944, metadata !DIExpression()) #13, !dbg !3571
  call void @llvm.dbg.value(metadata %class.String* %5, metadata !2950, metadata !DIExpression()) #13, !dbg !3573
  %425 = load %"struct.String::memo_t"*, %"struct.String::memo_t"** %17, align 8, !dbg !3575, !tbaa !2958
  %426 = icmp eq %"struct.String::memo_t"* %425, null, !dbg !3576
  br i1 %426, label %441, label %427, !dbg !3577

427:                                              ; preds = %424
  %428 = getelementptr inbounds %"struct.String::memo_t", %"struct.String::memo_t"* %425, i64 0, i32 0, !dbg !3578
  %429 = load volatile i32, i32* %428, align 4, !dbg !3578, !tbaa !2965
  %430 = icmp eq i32 %429, 0, !dbg !3578
  br i1 %430, label %431, label %432, !dbg !3578

431:                                              ; preds = %427
  call void @__assert_fail(i8* getelementptr inbounds ([18 x i8], [18 x i8]* @.str.19, i64 0, i64 0), i8* getelementptr inbounds ([29 x i8], [29 x i8]* @.str.20, i64 0, i64 0), i32 273, i8* getelementptr inbounds ([27 x i8], [27 x i8]* @__PRETTY_FUNCTION__._ZNK6String5derefEv, i64 0, i64 0)) #14, !dbg !3578
  unreachable, !dbg !3578

432:                                              ; preds = %427
  call void @llvm.dbg.value(metadata i32* %428, metadata !2967, metadata !DIExpression()) #13, !dbg !3579
  %433 = load volatile i32, i32* %428, align 4, !dbg !3581, !tbaa !2974
  %434 = add i32 %433, -1, !dbg !3581
  store volatile i32 %434, i32* %428, align 4, !dbg !3581, !tbaa !2974
  %435 = icmp eq i32 %434, 0, !dbg !3582
  br i1 %435, label %436, label %437, !dbg !3583

436:                                              ; preds = %432
  invoke void @_ZN6String11delete_memoEPNS_6memo_tE(%"struct.String::memo_t"* nonnull %425)
          to label %437 unwind label %438, !dbg !3584

437:                                              ; preds = %436, %432
  store %"struct.String::memo_t"* null, %"struct.String::memo_t"** %17, align 8, !dbg !3585, !tbaa !2958
  br label %441, !dbg !3586

438:                                              ; preds = %436
  %439 = landingpad { i8*, i32 }
          catch i8* null, !dbg !3587
  %440 = extractvalue { i8*, i32 } %439, 0, !dbg !3587
  call void @__clang_call_terminate(i8* %440) #14, !dbg !3587
  unreachable, !dbg !3587

441:                                              ; preds = %424, %437
  call void @llvm.lifetime.end.p0i8(i64 24, i8* nonnull %14) #13, !dbg !3570
  ret i32 %407, !dbg !3570

442:                                              ; preds = %401, %218, %38
  %443 = phi i8* [ %402, %401 ], [ %219, %218 ], [ %39, %38 ], !dbg !3074
  %444 = phi i32 [ %403, %401 ], [ %220, %218 ], [ %40, %38 ], !dbg !3074
  call void @llvm.dbg.value(metadata %class.String* %6, metadata !2944, metadata !DIExpression()) #13, !dbg !3588
  call void @llvm.dbg.value(metadata %class.String* %6, metadata !2950, metadata !DIExpression()) #13, !dbg !3590
  %445 = load %"struct.String::memo_t"*, %"struct.String::memo_t"** %21, align 8, !dbg !3592, !tbaa !2958
  %446 = icmp eq %"struct.String::memo_t"* %445, null, !dbg !3593
  br i1 %446, label %461, label %447, !dbg !3594

447:                                              ; preds = %442
  %448 = getelementptr inbounds %"struct.String::memo_t", %"struct.String::memo_t"* %445, i64 0, i32 0, !dbg !3595
  %449 = load volatile i32, i32* %448, align 4, !dbg !3595, !tbaa !2965
  %450 = icmp eq i32 %449, 0, !dbg !3595
  br i1 %450, label %451, label %452, !dbg !3595

451:                                              ; preds = %447
  call void @__assert_fail(i8* getelementptr inbounds ([18 x i8], [18 x i8]* @.str.19, i64 0, i64 0), i8* getelementptr inbounds ([29 x i8], [29 x i8]* @.str.20, i64 0, i64 0), i32 273, i8* getelementptr inbounds ([27 x i8], [27 x i8]* @__PRETTY_FUNCTION__._ZNK6String5derefEv, i64 0, i64 0)) #14, !dbg !3595
  unreachable, !dbg !3595

452:                                              ; preds = %447
  call void @llvm.dbg.value(metadata i32* %448, metadata !2967, metadata !DIExpression()) #13, !dbg !3596
  %453 = load volatile i32, i32* %448, align 4, !dbg !3598, !tbaa !2974
  %454 = add i32 %453, -1, !dbg !3598
  store volatile i32 %454, i32* %448, align 4, !dbg !3598, !tbaa !2974
  %455 = icmp eq i32 %454, 0, !dbg !3599
  br i1 %455, label %456, label %457, !dbg !3600

456:                                              ; preds = %452
  invoke void @_ZN6String11delete_memoEPNS_6memo_tE(%"struct.String::memo_t"* nonnull %445)
          to label %457 unwind label %458, !dbg !3601

457:                                              ; preds = %456, %452
  store %"struct.String::memo_t"* null, %"struct.String::memo_t"** %21, align 8, !dbg !3602, !tbaa !2958
  br label %461, !dbg !3603

458:                                              ; preds = %456
  %459 = landingpad { i8*, i32 }
          catch i8* null, !dbg !3604
  %460 = extractvalue { i8*, i32 } %459, 0, !dbg !3604
  call void @__clang_call_terminate(i8* %460) #14, !dbg !3604
  unreachable, !dbg !3604

461:                                              ; preds = %457, %442
  call void @llvm.lifetime.end.p0i8(i64 24, i8* nonnull %18) #13, !dbg !3570
  call void @llvm.dbg.value(metadata %class.String* %5, metadata !2944, metadata !DIExpression()) #13, !dbg !3605
  call void @llvm.dbg.value(metadata %class.String* %5, metadata !2950, metadata !DIExpression()) #13, !dbg !3607
  %462 = load %"struct.String::memo_t"*, %"struct.String::memo_t"** %17, align 8, !dbg !3609, !tbaa !2958
  %463 = icmp eq %"struct.String::memo_t"* %462, null, !dbg !3610
  br i1 %463, label %478, label %464, !dbg !3611

464:                                              ; preds = %461
  %465 = getelementptr inbounds %"struct.String::memo_t", %"struct.String::memo_t"* %462, i64 0, i32 0, !dbg !3612
  %466 = load volatile i32, i32* %465, align 4, !dbg !3612, !tbaa !2965
  %467 = icmp eq i32 %466, 0, !dbg !3612
  br i1 %467, label %468, label %469, !dbg !3612

468:                                              ; preds = %464
  call void @__assert_fail(i8* getelementptr inbounds ([18 x i8], [18 x i8]* @.str.19, i64 0, i64 0), i8* getelementptr inbounds ([29 x i8], [29 x i8]* @.str.20, i64 0, i64 0), i32 273, i8* getelementptr inbounds ([27 x i8], [27 x i8]* @__PRETTY_FUNCTION__._ZNK6String5derefEv, i64 0, i64 0)) #14, !dbg !3612
  unreachable, !dbg !3612

469:                                              ; preds = %464
  call void @llvm.dbg.value(metadata i32* %465, metadata !2967, metadata !DIExpression()) #13, !dbg !3613
  %470 = load volatile i32, i32* %465, align 4, !dbg !3615, !tbaa !2974
  %471 = add i32 %470, -1, !dbg !3615
  store volatile i32 %471, i32* %465, align 4, !dbg !3615, !tbaa !2974
  %472 = icmp eq i32 %471, 0, !dbg !3616
  br i1 %472, label %473, label %474, !dbg !3617

473:                                              ; preds = %469
  invoke void @_ZN6String11delete_memoEPNS_6memo_tE(%"struct.String::memo_t"* nonnull %462)
          to label %474 unwind label %475, !dbg !3618

474:                                              ; preds = %473, %469
  store %"struct.String::memo_t"* null, %"struct.String::memo_t"** %17, align 8, !dbg !3619, !tbaa !2958
  br label %478, !dbg !3620

475:                                              ; preds = %473
  %476 = landingpad { i8*, i32 }
          catch i8* null, !dbg !3621
  %477 = extractvalue { i8*, i32 } %476, 0, !dbg !3621
  call void @__clang_call_terminate(i8* %477) #14, !dbg !3621
  unreachable, !dbg !3621

478:                                              ; preds = %461, %474
  call void @llvm.lifetime.end.p0i8(i64 24, i8* nonnull %14) #13, !dbg !3570
  %479 = insertvalue { i8*, i32 } undef, i8* %443, 0, !dbg !3570
  %480 = insertvalue { i8*, i32 } %479, i32 %444, 1, !dbg !3570
  resume { i8*, i32 } %480, !dbg !3570
}

; Function Attrs: argmemonly nounwind willreturn
declare void @llvm.lifetime.start.p0i8(i64 immarg, i8* nocapture) #7

declare void @_ZN4ArgsC1ERK6VectorI6StringEPK7ElementP12ErrorHandler(%class.Args*, %class.Vector.0* dereferenceable(16), %class.Element*, %class.ErrorHandler*) unnamed_addr #2

declare i32 @_ZN4Args8completeEv(%class.Args*) local_unnamed_addr #2

; Function Attrs: nounwind
declare void @_ZN4ArgsD1Ev(%class.Args*) unnamed_addr #3

; Function Attrs: argmemonly nounwind willreturn
declare void @llvm.lifetime.end.p0i8(i64 immarg, i8* nocapture) #7

declare !dbg !1456 void @_Z17cp_shift_spacevecR6String(%class.String* sret, %class.String* dereferenceable(24)) local_unnamed_addr #2

declare i32 @_ZN12ErrorHandler5errorEPKcz(%class.ErrorHandler*, i8*, ...) local_unnamed_addr #2

declare void @_ZN6StringC1Em(%class.String*, i64) unnamed_addr #2

declare i8* @_ZNK6String5c_strEv(%class.String*) local_unnamed_addr #2

; Function Attrs: nobuiltin nofree
declare noalias nonnull i8* @_Znwm(i64) local_unnamed_addr #8

; Function Attrs: sspstrong uwtable
define dso_local i32 @_ZN7Counter10initializeEP12ErrorHandler(%class.Counter* %0, %class.ErrorHandler* %1) unnamed_addr #0 align 2 !dbg !3622 {
  call void @llvm.dbg.value(metadata %class.Counter* %0, metadata !3624, metadata !DIExpression()), !dbg !3626
  call void @llvm.dbg.value(metadata %class.ErrorHandler* %1, metadata !3625, metadata !DIExpression()), !dbg !3626
  %3 = getelementptr inbounds %class.Counter, %class.Counter* %0, i64 0, i32 7, !dbg !3627
  %4 = load %class.HandlerCall*, %class.HandlerCall** %3, align 8, !dbg !3627, !tbaa !2921
  %5 = icmp eq %class.HandlerCall* %4, null, !dbg !3627
  br i1 %5, label %10, label %6, !dbg !3629

6:                                                ; preds = %2
  %7 = bitcast %class.Counter* %0 to %class.Element*, !dbg !3630
  call void @llvm.dbg.value(metadata %class.HandlerCall* %4, metadata !3631, metadata !DIExpression()), !dbg !3636
  call void @llvm.dbg.value(metadata %class.Element* %7, metadata !3634, metadata !DIExpression()), !dbg !3636
  call void @llvm.dbg.value(metadata %class.ErrorHandler* %1, metadata !3635, metadata !DIExpression()), !dbg !3636
  %8 = tail call i32 @_ZN11HandlerCall10initializeEiPK7ElementP12ErrorHandler(%class.HandlerCall* nonnull %4, i32 2, %class.Element* %7, %class.ErrorHandler* %1), !dbg !3638
  %9 = icmp slt i32 %8, 0, !dbg !3639
  br i1 %9, label %24, label %10, !dbg !3640

10:                                               ; preds = %2, %6
  %11 = getelementptr inbounds %class.Counter, %class.Counter* %0, i64 0, i32 9, !dbg !3641
  %12 = load %class.HandlerCall*, %class.HandlerCall** %11, align 8, !dbg !3641, !tbaa !2926
  %13 = icmp eq %class.HandlerCall* %12, null, !dbg !3641
  br i1 %13, label %18, label %14, !dbg !3643

14:                                               ; preds = %10
  %15 = bitcast %class.Counter* %0 to %class.Element*, !dbg !3644
  call void @llvm.dbg.value(metadata %class.HandlerCall* %12, metadata !3631, metadata !DIExpression()), !dbg !3645
  call void @llvm.dbg.value(metadata %class.Element* %15, metadata !3634, metadata !DIExpression()), !dbg !3645
  call void @llvm.dbg.value(metadata %class.ErrorHandler* %1, metadata !3635, metadata !DIExpression()), !dbg !3645
  %16 = tail call i32 @_ZN11HandlerCall10initializeEiPK7ElementP12ErrorHandler(%class.HandlerCall* nonnull %12, i32 2, %class.Element* %15, %class.ErrorHandler* %1), !dbg !3647
  %17 = icmp slt i32 %16, 0, !dbg !3648
  br i1 %17, label %24, label %18, !dbg !3649

18:                                               ; preds = %10, %14
  call void @llvm.dbg.value(metadata %class.Counter* %0, metadata !3008, metadata !DIExpression()) #13, !dbg !3650
  %19 = getelementptr inbounds %class.Counter, %class.Counter* %0, i64 0, i32 2, !dbg !3652
  %20 = getelementptr inbounds %class.Counter, %class.Counter* %0, i64 0, i32 10, !dbg !3653
  %21 = bitcast i64* %19 to i8*, !dbg !3654
  tail call void @llvm.memset.p0i8.i64(i8* nonnull align 8 dereferenceable(16) %21, i8 0, i64 16, i1 false) #13, !dbg !3655
  %22 = load i8, i8* %20, align 8, !dbg !3654
  %23 = and i8 %22, -4, !dbg !3656
  store i8 %23, i8* %20, align 8, !dbg !3656
  br label %24, !dbg !3657

24:                                               ; preds = %14, %6, %18
  %25 = phi i32 [ 0, %18 ], [ -1, %6 ], [ -1, %14 ], !dbg !3626
  ret i32 %25, !dbg !3658
}

; Function Attrs: sspstrong uwtable
define dso_local %class.Packet* @_ZN7Counter13simple_actionEP6Packet(%class.Counter* nocapture %0, %class.Packet* returned %1) unnamed_addr #0 align 2 !dbg !3659 {
  call void @llvm.dbg.value(metadata %class.Counter* %0, metadata !3661, metadata !DIExpression()), !dbg !3663
  call void @llvm.dbg.value(metadata %class.Packet* %1, metadata !3662, metadata !DIExpression()), !dbg !3663
  %3 = getelementptr inbounds %class.Counter, %class.Counter* %0, i64 0, i32 2, !dbg !3664
  %4 = load i64, i64* %3, align 8, !dbg !3665, !tbaa !3666
  %5 = add i64 %4, 1, !dbg !3665
  store i64 %5, i64* %3, align 8, !dbg !3665, !tbaa !3666
  %6 = tail call i32 @_ZNK6Packet6lengthEv(%class.Packet* %1), !dbg !3667
  %7 = zext i32 %6 to i64, !dbg !3668
  %8 = getelementptr inbounds %class.Counter, %class.Counter* %0, i64 0, i32 3, !dbg !3669
  %9 = load i64, i64* %8, align 8, !dbg !3670, !tbaa !3671
  %10 = add i64 %9, %7, !dbg !3670
  store i64 %10, i64* %8, align 8, !dbg !3670, !tbaa !3671
  call void @llvm.dbg.value(metadata %class.Counter* %0, metadata !3672, metadata !DIExpression(DW_OP_plus_uconst, 128, DW_OP_stack_value)), !dbg !3677
  call void @llvm.dbg.value(metadata i64 1, metadata !3675, metadata !DIExpression()), !dbg !3677
  call void @llvm.dbg.value(metadata i32 0, metadata !3676, metadata !DIExpression()), !dbg !3677
  %11 = tail call i32 @_Z13click_jiffiesv(), !dbg !3679
  call void @llvm.dbg.value(metadata %class.Counter* %0, metadata !3681, metadata !DIExpression(DW_OP_plus_uconst, 128, DW_OP_stack_value)), !dbg !3690
  call void @llvm.dbg.value(metadata i32 %11, metadata !3684, metadata !DIExpression()), !dbg !3690
  %12 = getelementptr inbounds %class.Counter, %class.Counter* %0, i64 0, i32 4, i32 0, !dbg !3692
  %13 = load i32, i32* %12, align 8, !dbg !3692, !tbaa !2883
  call void @llvm.dbg.value(metadata i32 %13, metadata !3685, metadata !DIExpression()), !dbg !3690
  %14 = icmp eq i32 %13, %11, !dbg !3693
  br i1 %14, label %15, label %19, !dbg !3694

15:                                               ; preds = %2
  %16 = getelementptr inbounds %class.Counter, %class.Counter* %0, i64 0, i32 4, i32 1, i64 0, !dbg !3677
  %17 = load i64, i64* %16, align 8, !dbg !3695, !tbaa !2890
  %18 = add i64 %17, 1, !dbg !3694
  br label %90, !dbg !3694

19:                                               ; preds = %2
  call void @llvm.dbg.value(metadata i32 0, metadata !3686, metadata !DIExpression()), !dbg !3696
  %20 = add i32 %13, 1, !dbg !3697
  %21 = icmp eq i32 %20, %11, !dbg !3697
  %22 = xor i32 %13, -1, !dbg !3697
  %23 = add i32 %11, %22, !dbg !3697
  %24 = icmp eq i32 %23, 0, !dbg !3701
  br i1 %21, label %25, label %35, !dbg !3714

25:                                               ; preds = %19
  call void @llvm.dbg.value(metadata i64 0, metadata !3686, metadata !DIExpression()), !dbg !3696
  %26 = getelementptr inbounds %class.Counter, %class.Counter* %0, i64 0, i32 4, i32 1, i64 0, !dbg !3715
  %27 = load i64, i64* %26, align 8, !dbg !3715, !tbaa !2890
  call void @llvm.dbg.value(metadata %class.DirectEWMAX* undef, metadata !3716, metadata !DIExpression()), !dbg !3722
  call void @llvm.dbg.value(metadata i64 %27, metadata !3719, metadata !DIExpression()), !dbg !3722
  %28 = shl i64 %27, 10, !dbg !3724
  %29 = or i64 %28, 8, !dbg !3725
  call void @llvm.dbg.value(metadata i64 %29, metadata !3720, metadata !DIExpression()), !dbg !3722
  call void @llvm.dbg.value(metadata i32 4, metadata !3721, metadata !DIExpression()), !dbg !3722
  %30 = getelementptr inbounds %class.Counter, %class.Counter* %0, i64 0, i32 4, i32 2, i64 0, i32 0, !dbg !3726
  %31 = load i64, i64* %30, align 8, !dbg !3726, !tbaa !2874
  %32 = sub i64 %29, %31, !dbg !3727
  %33 = ashr i64 %32, 4, !dbg !3728
  %34 = add i64 %33, %31, !dbg !3729
  store i64 %34, i64* %30, align 8, !dbg !3729, !tbaa !2874
  store i64 0, i64* %26, align 8, !dbg !3730, !tbaa !2890
  call void @llvm.dbg.value(metadata i64 1, metadata !3686, metadata !DIExpression()), !dbg !3696
  br label %69, !dbg !3731

35:                                               ; preds = %19
  %36 = icmp ugt i32 %23, 99, !dbg !3732
  call void @llvm.dbg.value(metadata i64 0, metadata !3686, metadata !DIExpression()), !dbg !3696
  call void @llvm.dbg.value(metadata i64 0, metadata !3686, metadata !DIExpression()), !dbg !3696
  %37 = getelementptr inbounds %class.Counter, %class.Counter* %0, i64 0, i32 4, i32 1, i64 0, !dbg !3715
  br i1 %36, label %67, label %38, !dbg !3714

38:                                               ; preds = %35
  %39 = load i64, i64* %37, align 8, !dbg !3715, !tbaa !2890
  call void @llvm.dbg.value(metadata %class.DirectEWMAX* undef, metadata !3716, metadata !DIExpression()), !dbg !3722
  call void @llvm.dbg.value(metadata i64 %39, metadata !3719, metadata !DIExpression()), !dbg !3722
  %40 = shl i64 %39, 10, !dbg !3724
  %41 = or i64 %40, 8, !dbg !3725
  call void @llvm.dbg.value(metadata i64 %41, metadata !3720, metadata !DIExpression()), !dbg !3722
  call void @llvm.dbg.value(metadata i32 4, metadata !3721, metadata !DIExpression()), !dbg !3722
  %42 = getelementptr inbounds %class.Counter, %class.Counter* %0, i64 0, i32 4, i32 2, i64 0, i32 0, !dbg !3726
  %43 = load i64, i64* %42, align 8, !dbg !3726, !tbaa !2874
  %44 = sub i64 %41, %43, !dbg !3727
  %45 = ashr i64 %44, 4, !dbg !3728
  %46 = add i64 %45, %43, !dbg !3729
  store i64 %46, i64* %42, align 8, !dbg !3729, !tbaa !2874
  call void @llvm.dbg.value(metadata %class.DirectEWMAX* undef, metadata !3708, metadata !DIExpression()), !dbg !3733
  call void @llvm.dbg.value(metadata i64 0, metadata !3709, metadata !DIExpression()), !dbg !3733
  call void @llvm.dbg.value(metadata i64 8, metadata !3711, metadata !DIExpression()), !dbg !3733
  call void @llvm.dbg.value(metadata i32 4, metadata !3712, metadata !DIExpression()), !dbg !3734
  call void @llvm.dbg.value(metadata i32 %23, metadata !3710, metadata !DIExpression()), !dbg !3733
  br i1 %24, label %89, label %47, !dbg !3735

47:                                               ; preds = %38
  %48 = add i32 %11, -2, !dbg !3735
  %49 = sub i32 %48, %13, !dbg !3735
  %50 = and i32 %23, 3, !dbg !3735
  %51 = icmp eq i32 %50, 0, !dbg !3735
  br i1 %51, label %62, label %52, !dbg !3735

52:                                               ; preds = %47, %52
  %53 = phi i64 [ %58, %52 ], [ %46, %47 ], !dbg !3733
  %54 = phi i32 [ %59, %52 ], [ %23, %47 ]
  %55 = phi i32 [ %60, %52 ], [ %50, %47 ]
  call void @llvm.dbg.value(metadata i32 %54, metadata !3710, metadata !DIExpression()), !dbg !3733
  %56 = sub i64 8, %53, !dbg !3736
  %57 = ashr i64 %56, 4, !dbg !3737
  %58 = add i64 %57, %53, !dbg !3738
  %59 = add i32 %54, -1, !dbg !3739
  call void @llvm.dbg.value(metadata i32 %59, metadata !3710, metadata !DIExpression()), !dbg !3733
  %60 = add i32 %55, -1, !dbg !3735
  %61 = icmp eq i32 %60, 0, !dbg !3735
  br i1 %61, label %62, label %52, !dbg !3735, !llvm.loop !3740

62:                                               ; preds = %52, %47
  %63 = phi i64 [ undef, %47 ], [ %58, %52 ]
  %64 = phi i64 [ %46, %47 ], [ %58, %52 ]
  %65 = phi i32 [ %23, %47 ], [ %59, %52 ]
  %66 = icmp ult i32 %49, 3, !dbg !3735
  br i1 %66, label %87, label %70, !dbg !3735

67:                                               ; preds = %35
  call void @llvm.dbg.value(metadata %class.DirectEWMAX* undef, metadata !3716, metadata !DIExpression()), !dbg !3722
  call void @llvm.dbg.value(metadata i64 undef, metadata !3719, metadata !DIExpression()), !dbg !3722
  call void @llvm.dbg.value(metadata i64 undef, metadata !3720, metadata !DIExpression(DW_OP_constu, 10, DW_OP_shl, DW_OP_constu, 8, DW_OP_or, DW_OP_stack_value)), !dbg !3722
  call void @llvm.dbg.value(metadata i32 4, metadata !3721, metadata !DIExpression()), !dbg !3722
  call void @llvm.dbg.value(metadata %class.DirectEWMAX* undef, metadata !3708, metadata !DIExpression()), !dbg !3733
  call void @llvm.dbg.value(metadata i64 0, metadata !3709, metadata !DIExpression()), !dbg !3733
  call void @llvm.dbg.value(metadata i32 %23, metadata !3710, metadata !DIExpression()), !dbg !3733
  call void @llvm.dbg.value(metadata i64 0, metadata !3711, metadata !DIExpression()), !dbg !3733
  call void @llvm.dbg.value(metadata i64 1, metadata !3686, metadata !DIExpression()), !dbg !3696
  %68 = bitcast i64* %37 to i8*, !dbg !3731
  tail call void @llvm.memset.p0i8.i64(i8* nonnull align 8 dereferenceable(16) %68, i8 0, i64 16, i1 false), !dbg !3730
  br label %69, !dbg !3731

69:                                               ; preds = %89, %67, %25
  store i32 %11, i32* %12, align 8, !dbg !3731, !tbaa !2883
  br label %90, !dbg !3742

70:                                               ; preds = %62, %70
  %71 = phi i64 [ %84, %70 ], [ %64, %62 ], !dbg !3733
  %72 = phi i32 [ %85, %70 ], [ %65, %62 ]
  call void @llvm.dbg.value(metadata i32 %72, metadata !3710, metadata !DIExpression()), !dbg !3733
  %73 = sub i64 8, %71, !dbg !3736
  %74 = ashr i64 %73, 4, !dbg !3737
  %75 = add i64 %74, %71, !dbg !3738
  call void @llvm.dbg.value(metadata i32 %72, metadata !3710, metadata !DIExpression(DW_OP_constu, 1, DW_OP_minus, DW_OP_stack_value)), !dbg !3733
  %76 = sub i64 8, %75, !dbg !3736
  %77 = ashr i64 %76, 4, !dbg !3737
  %78 = add i64 %77, %75, !dbg !3738
  call void @llvm.dbg.value(metadata i32 %72, metadata !3710, metadata !DIExpression(DW_OP_constu, 2, DW_OP_minus, DW_OP_stack_value)), !dbg !3733
  %79 = sub i64 8, %78, !dbg !3736
  %80 = ashr i64 %79, 4, !dbg !3737
  %81 = add i64 %80, %78, !dbg !3738
  call void @llvm.dbg.value(metadata i32 %72, metadata !3710, metadata !DIExpression(DW_OP_constu, 3, DW_OP_minus, DW_OP_stack_value)), !dbg !3733
  %82 = sub i64 8, %81, !dbg !3736
  %83 = ashr i64 %82, 4, !dbg !3737
  %84 = add i64 %83, %81, !dbg !3738
  %85 = add i32 %72, -4, !dbg !3739
  call void @llvm.dbg.value(metadata i32 %85, metadata !3710, metadata !DIExpression()), !dbg !3733
  %86 = icmp eq i32 %85, 0, !dbg !3743
  br i1 %86, label %87, label %70, !dbg !3735, !llvm.loop !3744

87:                                               ; preds = %70, %62
  %88 = phi i64 [ %63, %62 ], [ %84, %70 ], !dbg !3738
  store i64 %88, i64* %42, align 8, !dbg !3738, !tbaa !2874
  br label %89, !dbg !3735

89:                                               ; preds = %87, %38
  store i64 0, i64* %37, align 8, !dbg !3730, !tbaa !2890
  call void @llvm.dbg.value(metadata i64 1, metadata !3686, metadata !DIExpression()), !dbg !3696
  br label %69, !dbg !3731

90:                                               ; preds = %15, %69
  %91 = phi i64 [ %18, %15 ], [ 1, %69 ]
  %92 = getelementptr inbounds %class.Counter, %class.Counter* %0, i64 0, i32 4, i32 1, i64 0, !dbg !3746
  store i64 %91, i64* %92, align 8, !dbg !3695, !tbaa !2890
  %93 = tail call i32 @_ZNK6Packet6lengthEv(%class.Packet* %1), !dbg !3747
  %94 = zext i32 %93 to i64, !dbg !3748
  call void @llvm.dbg.value(metadata %class.Counter* %0, metadata !3749, metadata !DIExpression(DW_OP_plus_uconst, 152, DW_OP_stack_value)), !dbg !3754
  call void @llvm.dbg.value(metadata i64 %94, metadata !3752, metadata !DIExpression()), !dbg !3754
  call void @llvm.dbg.value(metadata i32 0, metadata !3753, metadata !DIExpression()), !dbg !3754
  %95 = tail call i32 @_Z13click_jiffiesv(), !dbg !3756
  call void @llvm.dbg.value(metadata %class.Counter* %0, metadata !3758, metadata !DIExpression(DW_OP_plus_uconst, 152, DW_OP_stack_value)), !dbg !3767
  call void @llvm.dbg.value(metadata i32 %95, metadata !3761, metadata !DIExpression()), !dbg !3767
  %96 = getelementptr inbounds %class.Counter, %class.Counter* %0, i64 0, i32 5, i32 0, !dbg !3769
  %97 = load i32, i32* %96, align 8, !dbg !3769, !tbaa !2914
  call void @llvm.dbg.value(metadata i32 %97, metadata !3762, metadata !DIExpression()), !dbg !3767
  %98 = icmp eq i32 %97, %95, !dbg !3770
  br i1 %98, label %99, label %102, !dbg !3771

99:                                               ; preds = %90
  %100 = getelementptr inbounds %class.Counter, %class.Counter* %0, i64 0, i32 5, i32 1, i64 0, !dbg !3754
  %101 = load i64, i64* %100, align 8, !dbg !3772, !tbaa !2890
  br label %173, !dbg !3771

102:                                              ; preds = %90
  call void @llvm.dbg.value(metadata i32 0, metadata !3763, metadata !DIExpression()), !dbg !3773
  %103 = add i32 %97, 1, !dbg !3774
  %104 = icmp eq i32 %103, %95, !dbg !3774
  %105 = xor i32 %97, -1, !dbg !3774
  %106 = add i32 %95, %105, !dbg !3774
  %107 = icmp eq i32 %106, 0, !dbg !3778
  br i1 %104, label %108, label %118, !dbg !3791

108:                                              ; preds = %102
  call void @llvm.dbg.value(metadata i64 0, metadata !3763, metadata !DIExpression()), !dbg !3773
  %109 = getelementptr inbounds %class.Counter, %class.Counter* %0, i64 0, i32 5, i32 1, i64 0, !dbg !3792
  %110 = load i64, i64* %109, align 8, !dbg !3792, !tbaa !2890
  call void @llvm.dbg.value(metadata %class.DirectEWMAX.16* undef, metadata !3793, metadata !DIExpression()), !dbg !3799
  call void @llvm.dbg.value(metadata i64 %110, metadata !3796, metadata !DIExpression()), !dbg !3799
  %111 = shl i64 %110, 4, !dbg !3801
  %112 = or i64 %111, 8, !dbg !3802
  call void @llvm.dbg.value(metadata i64 %112, metadata !3797, metadata !DIExpression()), !dbg !3799
  call void @llvm.dbg.value(metadata i32 4, metadata !3798, metadata !DIExpression()), !dbg !3799
  %113 = getelementptr inbounds %class.Counter, %class.Counter* %0, i64 0, i32 5, i32 2, i64 0, i32 0, !dbg !3803
  %114 = load i64, i64* %113, align 8, !dbg !3803, !tbaa !2907
  %115 = sub i64 %112, %114, !dbg !3804
  %116 = ashr i64 %115, 4, !dbg !3805
  %117 = add i64 %116, %114, !dbg !3806
  store i64 %117, i64* %113, align 8, !dbg !3806, !tbaa !2907
  store i64 0, i64* %109, align 8, !dbg !3807, !tbaa !2890
  call void @llvm.dbg.value(metadata i64 1, metadata !3763, metadata !DIExpression()), !dbg !3773
  br label %152, !dbg !3808

118:                                              ; preds = %102
  %119 = icmp ugt i32 %106, 99, !dbg !3809
  call void @llvm.dbg.value(metadata i64 0, metadata !3763, metadata !DIExpression()), !dbg !3773
  call void @llvm.dbg.value(metadata i64 0, metadata !3763, metadata !DIExpression()), !dbg !3773
  %120 = getelementptr inbounds %class.Counter, %class.Counter* %0, i64 0, i32 5, i32 1, i64 0, !dbg !3792
  br i1 %119, label %150, label %121, !dbg !3791

121:                                              ; preds = %118
  %122 = load i64, i64* %120, align 8, !dbg !3792, !tbaa !2890
  call void @llvm.dbg.value(metadata %class.DirectEWMAX.16* undef, metadata !3793, metadata !DIExpression()), !dbg !3799
  call void @llvm.dbg.value(metadata i64 %122, metadata !3796, metadata !DIExpression()), !dbg !3799
  %123 = shl i64 %122, 4, !dbg !3801
  %124 = or i64 %123, 8, !dbg !3802
  call void @llvm.dbg.value(metadata i64 %124, metadata !3797, metadata !DIExpression()), !dbg !3799
  call void @llvm.dbg.value(metadata i32 4, metadata !3798, metadata !DIExpression()), !dbg !3799
  %125 = getelementptr inbounds %class.Counter, %class.Counter* %0, i64 0, i32 5, i32 2, i64 0, i32 0, !dbg !3803
  %126 = load i64, i64* %125, align 8, !dbg !3803, !tbaa !2907
  %127 = sub i64 %124, %126, !dbg !3804
  %128 = ashr i64 %127, 4, !dbg !3805
  %129 = add i64 %128, %126, !dbg !3806
  store i64 %129, i64* %125, align 8, !dbg !3806, !tbaa !2907
  call void @llvm.dbg.value(metadata %class.DirectEWMAX.16* undef, metadata !3785, metadata !DIExpression()), !dbg !3810
  call void @llvm.dbg.value(metadata i64 0, metadata !3786, metadata !DIExpression()), !dbg !3810
  call void @llvm.dbg.value(metadata i64 8, metadata !3788, metadata !DIExpression()), !dbg !3810
  call void @llvm.dbg.value(metadata i32 4, metadata !3789, metadata !DIExpression()), !dbg !3811
  call void @llvm.dbg.value(metadata i32 %106, metadata !3787, metadata !DIExpression()), !dbg !3810
  br i1 %107, label %172, label %130, !dbg !3812

130:                                              ; preds = %121
  %131 = add i32 %95, -2, !dbg !3812
  %132 = sub i32 %131, %97, !dbg !3812
  %133 = and i32 %106, 3, !dbg !3812
  %134 = icmp eq i32 %133, 0, !dbg !3812
  br i1 %134, label %145, label %135, !dbg !3812

135:                                              ; preds = %130, %135
  %136 = phi i64 [ %141, %135 ], [ %129, %130 ], !dbg !3810
  %137 = phi i32 [ %142, %135 ], [ %106, %130 ]
  %138 = phi i32 [ %143, %135 ], [ %133, %130 ]
  call void @llvm.dbg.value(metadata i32 %137, metadata !3787, metadata !DIExpression()), !dbg !3810
  %139 = sub i64 8, %136, !dbg !3813
  %140 = ashr i64 %139, 4, !dbg !3814
  %141 = add i64 %140, %136, !dbg !3815
  %142 = add i32 %137, -1, !dbg !3816
  call void @llvm.dbg.value(metadata i32 %142, metadata !3787, metadata !DIExpression()), !dbg !3810
  %143 = add i32 %138, -1, !dbg !3812
  %144 = icmp eq i32 %143, 0, !dbg !3812
  br i1 %144, label %145, label %135, !dbg !3812, !llvm.loop !3817

145:                                              ; preds = %135, %130
  %146 = phi i64 [ undef, %130 ], [ %141, %135 ]
  %147 = phi i64 [ %129, %130 ], [ %141, %135 ]
  %148 = phi i32 [ %106, %130 ], [ %142, %135 ]
  %149 = icmp ult i32 %132, 3, !dbg !3812
  br i1 %149, label %170, label %153, !dbg !3812

150:                                              ; preds = %118
  call void @llvm.dbg.value(metadata %class.DirectEWMAX.16* undef, metadata !3793, metadata !DIExpression()), !dbg !3799
  call void @llvm.dbg.value(metadata i64 undef, metadata !3796, metadata !DIExpression()), !dbg !3799
  call void @llvm.dbg.value(metadata i64 undef, metadata !3797, metadata !DIExpression(DW_OP_constu, 4, DW_OP_shl, DW_OP_constu, 8, DW_OP_or, DW_OP_stack_value)), !dbg !3799
  call void @llvm.dbg.value(metadata i32 4, metadata !3798, metadata !DIExpression()), !dbg !3799
  call void @llvm.dbg.value(metadata %class.DirectEWMAX.16* undef, metadata !3785, metadata !DIExpression()), !dbg !3810
  call void @llvm.dbg.value(metadata i64 0, metadata !3786, metadata !DIExpression()), !dbg !3810
  call void @llvm.dbg.value(metadata i32 %106, metadata !3787, metadata !DIExpression()), !dbg !3810
  call void @llvm.dbg.value(metadata i64 0, metadata !3788, metadata !DIExpression()), !dbg !3810
  call void @llvm.dbg.value(metadata i64 1, metadata !3763, metadata !DIExpression()), !dbg !3773
  %151 = bitcast i64* %120 to i8*, !dbg !3808
  tail call void @llvm.memset.p0i8.i64(i8* nonnull align 8 dereferenceable(16) %151, i8 0, i64 16, i1 false), !dbg !3807
  br label %152, !dbg !3808

152:                                              ; preds = %172, %150, %108
  store i32 %95, i32* %96, align 8, !dbg !3808, !tbaa !2914
  br label %173, !dbg !3818

153:                                              ; preds = %145, %153
  %154 = phi i64 [ %167, %153 ], [ %147, %145 ], !dbg !3810
  %155 = phi i32 [ %168, %153 ], [ %148, %145 ]
  call void @llvm.dbg.value(metadata i32 %155, metadata !3787, metadata !DIExpression()), !dbg !3810
  %156 = sub i64 8, %154, !dbg !3813
  %157 = ashr i64 %156, 4, !dbg !3814
  %158 = add i64 %157, %154, !dbg !3815
  call void @llvm.dbg.value(metadata i32 %155, metadata !3787, metadata !DIExpression(DW_OP_constu, 1, DW_OP_minus, DW_OP_stack_value)), !dbg !3810
  %159 = sub i64 8, %158, !dbg !3813
  %160 = ashr i64 %159, 4, !dbg !3814
  %161 = add i64 %160, %158, !dbg !3815
  call void @llvm.dbg.value(metadata i32 %155, metadata !3787, metadata !DIExpression(DW_OP_constu, 2, DW_OP_minus, DW_OP_stack_value)), !dbg !3810
  %162 = sub i64 8, %161, !dbg !3813
  %163 = ashr i64 %162, 4, !dbg !3814
  %164 = add i64 %163, %161, !dbg !3815
  call void @llvm.dbg.value(metadata i32 %155, metadata !3787, metadata !DIExpression(DW_OP_constu, 3, DW_OP_minus, DW_OP_stack_value)), !dbg !3810
  %165 = sub i64 8, %164, !dbg !3813
  %166 = ashr i64 %165, 4, !dbg !3814
  %167 = add i64 %166, %164, !dbg !3815
  %168 = add i32 %155, -4, !dbg !3816
  call void @llvm.dbg.value(metadata i32 %168, metadata !3787, metadata !DIExpression()), !dbg !3810
  %169 = icmp eq i32 %168, 0, !dbg !3819
  br i1 %169, label %170, label %153, !dbg !3812, !llvm.loop !3820

170:                                              ; preds = %153, %145
  %171 = phi i64 [ %146, %145 ], [ %167, %153 ], !dbg !3815
  store i64 %171, i64* %125, align 8, !dbg !3815, !tbaa !2907
  br label %172, !dbg !3812

172:                                              ; preds = %170, %121
  store i64 0, i64* %120, align 8, !dbg !3807, !tbaa !2890
  call void @llvm.dbg.value(metadata i64 1, metadata !3763, metadata !DIExpression()), !dbg !3773
  br label %152, !dbg !3808

173:                                              ; preds = %99, %152
  %174 = phi i64 [ %101, %99 ], [ 0, %152 ], !dbg !3772
  %175 = getelementptr inbounds %class.Counter, %class.Counter* %0, i64 0, i32 5, i32 1, i64 0, !dbg !3822
  %176 = add i64 %174, %94, !dbg !3772
  store i64 %176, i64* %175, align 8, !dbg !3772, !tbaa !2890
  %177 = load i64, i64* %3, align 8, !dbg !3823, !tbaa !3666
  %178 = getelementptr inbounds %class.Counter, %class.Counter* %0, i64 0, i32 6, !dbg !3825
  %179 = load i64, i64* %178, align 8, !dbg !3825, !tbaa !3289
  %180 = icmp eq i64 %177, %179, !dbg !3826
  br i1 %180, label %181, label %198, !dbg !3827

181:                                              ; preds = %173
  %182 = getelementptr inbounds %class.Counter, %class.Counter* %0, i64 0, i32 10, !dbg !3828
  %183 = load i8, i8* %182, align 8, !dbg !3828
  %184 = and i8 %183, 1, !dbg !3828
  %185 = icmp eq i8 %184, 0, !dbg !3828
  br i1 %185, label %186, label %198, !dbg !3829

186:                                              ; preds = %181
  %187 = or i8 %183, 1, !dbg !3830
  store i8 %187, i8* %182, align 8, !dbg !3830
  %188 = getelementptr inbounds %class.Counter, %class.Counter* %0, i64 0, i32 7, !dbg !3832
  %189 = load %class.HandlerCall*, %class.HandlerCall** %188, align 8, !dbg !3832, !tbaa !2921
  %190 = icmp eq %class.HandlerCall* %189, null, !dbg !3832
  br i1 %190, label %198, label %191, !dbg !3834

191:                                              ; preds = %186
  call void @llvm.dbg.value(metadata %class.HandlerCall* %189, metadata !3835, metadata !DIExpression()), !dbg !3840
  call void @llvm.dbg.value(metadata %class.ErrorHandler* null, metadata !3838, metadata !DIExpression()), !dbg !3840
  %192 = getelementptr inbounds %class.HandlerCall, %class.HandlerCall* %189, i64 0, i32 1, !dbg !3842
  %193 = load %class.Handler*, %class.Handler** %192, align 8, !dbg !3842, !tbaa !3343
  %194 = getelementptr inbounds %class.HandlerCall, %class.HandlerCall* %189, i64 0, i32 2, !dbg !3843
  %195 = getelementptr inbounds %class.HandlerCall, %class.HandlerCall* %189, i64 0, i32 0, !dbg !3844
  %196 = load %class.Element*, %class.Element** %195, align 8, !dbg !3844, !tbaa !3336
  %197 = tail call i32 @_ZNK7Handler10call_writeERK6StringP7ElementP12ErrorHandler(%class.Handler* %193, %class.String* nonnull dereferenceable(24) %194, %class.Element* %196, %class.ErrorHandler* null), !dbg !3845
  br label %198, !dbg !3846

198:                                              ; preds = %186, %181, %191, %173
  %199 = load i64, i64* %8, align 8, !dbg !3847, !tbaa !3671
  %200 = getelementptr inbounds %class.Counter, %class.Counter* %0, i64 0, i32 8, !dbg !3849
  %201 = load i64, i64* %200, align 8, !dbg !3849, !tbaa !3552
  %202 = icmp ult i64 %199, %201, !dbg !3850
  br i1 %202, label %220, label %203, !dbg !3851

203:                                              ; preds = %198
  %204 = getelementptr inbounds %class.Counter, %class.Counter* %0, i64 0, i32 10, !dbg !3852
  %205 = load i8, i8* %204, align 8, !dbg !3852
  %206 = and i8 %205, 2, !dbg !3852
  %207 = icmp eq i8 %206, 0, !dbg !3852
  br i1 %207, label %208, label %220, !dbg !3853

208:                                              ; preds = %203
  %209 = or i8 %205, 2, !dbg !3854
  store i8 %209, i8* %204, align 8, !dbg !3854
  %210 = getelementptr inbounds %class.Counter, %class.Counter* %0, i64 0, i32 9, !dbg !3856
  %211 = load %class.HandlerCall*, %class.HandlerCall** %210, align 8, !dbg !3856, !tbaa !2926
  %212 = icmp eq %class.HandlerCall* %211, null, !dbg !3856
  br i1 %212, label %220, label %213, !dbg !3858

213:                                              ; preds = %208
  call void @llvm.dbg.value(metadata %class.HandlerCall* %211, metadata !3835, metadata !DIExpression()), !dbg !3859
  call void @llvm.dbg.value(metadata %class.ErrorHandler* null, metadata !3838, metadata !DIExpression()), !dbg !3859
  %214 = getelementptr inbounds %class.HandlerCall, %class.HandlerCall* %211, i64 0, i32 1, !dbg !3861
  %215 = load %class.Handler*, %class.Handler** %214, align 8, !dbg !3861, !tbaa !3343
  %216 = getelementptr inbounds %class.HandlerCall, %class.HandlerCall* %211, i64 0, i32 2, !dbg !3862
  %217 = getelementptr inbounds %class.HandlerCall, %class.HandlerCall* %211, i64 0, i32 0, !dbg !3863
  %218 = load %class.Element*, %class.Element** %217, align 8, !dbg !3863, !tbaa !3336
  %219 = tail call i32 @_ZNK7Handler10call_writeERK6StringP7ElementP12ErrorHandler(%class.Handler* %215, %class.String* nonnull dereferenceable(24) %216, %class.Element* %218, %class.ErrorHandler* null), !dbg !3864
  br label %220, !dbg !3865

220:                                              ; preds = %208, %203, %198, %213
  ret %class.Packet* %1, !dbg !3866
}

declare i32 @_ZNK6Packet6lengthEv(%class.Packet*) local_unnamed_addr #2

; Function Attrs: sspstrong uwtable
define dso_local void @_ZN7Counter12read_handlerEP7ElementPv(%class.String* noalias sret %0, %class.Element* nocapture %1, i8* %2) #0 align 2 !dbg !3867 {
  call void @llvm.dbg.value(metadata %class.Element* %1, metadata !3869, metadata !DIExpression()), !dbg !3872
  call void @llvm.dbg.value(metadata i8* %2, metadata !3870, metadata !DIExpression()), !dbg !3872
  call void @llvm.dbg.value(metadata %class.Element* %1, metadata !3871, metadata !DIExpression()), !dbg !3872
  %4 = ptrtoint i8* %2 to i64, !dbg !3873
  switch i64 %4, label %296 [
    i64 0, label %5
    i64 1, label %9
    i64 2, label %13
    i64 3, label %103
    i64 4, label %193
    i64 6, label %283
  ], !dbg !3874

5:                                                ; preds = %3
  call void @llvm.dbg.value(metadata %class.Element* %1, metadata !3871, metadata !DIExpression()), !dbg !3872
  %6 = getelementptr inbounds %class.Element, %class.Element* %1, i64 1, !dbg !3875
  %7 = bitcast %class.Element* %6 to i64*, !dbg !3875
  %8 = load i64, i64* %7, align 8, !dbg !3875, !tbaa !3666
  tail call void @_ZN6StringC1Em(%class.String* %0, i64 %8), !dbg !3877
  br label %300, !dbg !3878

9:                                                ; preds = %3
  %10 = getelementptr inbounds %class.Element, %class.Element* %1, i64 1, i32 1, !dbg !3879
  %11 = bitcast [2 x %"class.Element::Port"*]* %10 to i64*, !dbg !3879
  %12 = load i64, i64* %11, align 8, !dbg !3879, !tbaa !3671
  tail call void @_ZN6StringC1Em(%class.String* %0, i64 %12), !dbg !3880
  br label %300, !dbg !3881

13:                                               ; preds = %3
  %14 = getelementptr inbounds %class.Element, %class.Element* %1, i64 1, i32 1, i64 1, !dbg !3882
  call void @llvm.dbg.value(metadata %"class.Element::Port"** %14, metadata !3672, metadata !DIExpression()), !dbg !3883
  call void @llvm.dbg.value(metadata i64 0, metadata !3675, metadata !DIExpression()), !dbg !3883
  call void @llvm.dbg.value(metadata i32 0, metadata !3676, metadata !DIExpression()), !dbg !3883
  %15 = tail call i32 @_Z13click_jiffiesv(), !dbg !3885
  call void @llvm.dbg.value(metadata %"class.Element::Port"** %14, metadata !3681, metadata !DIExpression()), !dbg !3887
  call void @llvm.dbg.value(metadata i32 %15, metadata !3684, metadata !DIExpression()), !dbg !3887
  %16 = bitcast %"class.Element::Port"** %14 to i32*, !dbg !3889
  %17 = load i32, i32* %16, align 8, !dbg !3889, !tbaa !2883
  call void @llvm.dbg.value(metadata i32 %17, metadata !3685, metadata !DIExpression()), !dbg !3887
  %18 = icmp eq i32 %17, %15, !dbg !3890
  br i1 %18, label %19, label %23, !dbg !3891

19:                                               ; preds = %13
  %20 = getelementptr inbounds %class.Element, %class.Element* %1, i64 1, i32 1, i64 3, !dbg !3892
  %21 = bitcast %"class.Element::Port"** %20 to i64*, !dbg !3892
  %22 = load i64, i64* %21, align 8, !dbg !3909, !tbaa !2874, !noalias !3910
  br label %100, !dbg !3891

23:                                               ; preds = %13
  call void @llvm.dbg.value(metadata i32 0, metadata !3686, metadata !DIExpression()), !dbg !3913
  %24 = add i32 %17, 1, !dbg !3914
  %25 = icmp eq i32 %24, %15, !dbg !3914
  %26 = xor i32 %17, -1, !dbg !3914
  %27 = add i32 %15, %26, !dbg !3914
  %28 = icmp eq i32 %27, 0, !dbg !3915
  br i1 %25, label %29, label %41, !dbg !3917

29:                                               ; preds = %23
  call void @llvm.dbg.value(metadata i64 0, metadata !3686, metadata !DIExpression()), !dbg !3913
  %30 = getelementptr inbounds %class.Element, %class.Element* %1, i64 1, i32 1, i64 2, !dbg !3918
  %31 = bitcast %"class.Element::Port"** %30 to i64*, !dbg !3918
  %32 = load i64, i64* %31, align 8, !dbg !3918, !tbaa !2890
  call void @llvm.dbg.value(metadata %class.DirectEWMAX* undef, metadata !3716, metadata !DIExpression()), !dbg !3919
  call void @llvm.dbg.value(metadata i64 %32, metadata !3719, metadata !DIExpression()), !dbg !3919
  %33 = shl i64 %32, 10, !dbg !3921
  %34 = or i64 %33, 8, !dbg !3922
  call void @llvm.dbg.value(metadata i64 %34, metadata !3720, metadata !DIExpression()), !dbg !3919
  call void @llvm.dbg.value(metadata i32 4, metadata !3721, metadata !DIExpression()), !dbg !3919
  %35 = getelementptr inbounds %class.Element, %class.Element* %1, i64 1, i32 1, i64 3, !dbg !3923
  %36 = bitcast %"class.Element::Port"** %35 to i64*, !dbg !3923
  %37 = load i64, i64* %36, align 8, !dbg !3923, !tbaa !2874
  %38 = sub i64 %34, %37, !dbg !3924
  %39 = ashr i64 %38, 4, !dbg !3925
  %40 = add i64 %39, %37, !dbg !3926
  store i64 %40, i64* %36, align 8, !dbg !3926, !tbaa !2874
  store i64 0, i64* %31, align 8, !dbg !3927, !tbaa !2890
  call void @llvm.dbg.value(metadata i64 1, metadata !3686, metadata !DIExpression()), !dbg !3913
  br label %77, !dbg !3928

41:                                               ; preds = %23
  %42 = icmp ugt i32 %27, 99, !dbg !3929
  call void @llvm.dbg.value(metadata i64 0, metadata !3686, metadata !DIExpression()), !dbg !3913
  call void @llvm.dbg.value(metadata i64 0, metadata !3686, metadata !DIExpression()), !dbg !3913
  %43 = getelementptr inbounds %class.Element, %class.Element* %1, i64 1, i32 1, i64 2, !dbg !3918
  %44 = bitcast %"class.Element::Port"** %43 to i64*, !dbg !3918
  br i1 %42, label %75, label %45, !dbg !3917

45:                                               ; preds = %41
  %46 = load i64, i64* %44, align 8, !dbg !3918, !tbaa !2890
  call void @llvm.dbg.value(metadata %class.DirectEWMAX* undef, metadata !3716, metadata !DIExpression()), !dbg !3919
  call void @llvm.dbg.value(metadata i64 %46, metadata !3719, metadata !DIExpression()), !dbg !3919
  %47 = shl i64 %46, 10, !dbg !3921
  %48 = or i64 %47, 8, !dbg !3922
  call void @llvm.dbg.value(metadata i64 %48, metadata !3720, metadata !DIExpression()), !dbg !3919
  call void @llvm.dbg.value(metadata i32 4, metadata !3721, metadata !DIExpression()), !dbg !3919
  %49 = getelementptr inbounds %class.Element, %class.Element* %1, i64 1, i32 1, i64 3, !dbg !3923
  %50 = bitcast %"class.Element::Port"** %49 to i64*, !dbg !3923
  %51 = load i64, i64* %50, align 8, !dbg !3923, !tbaa !2874
  %52 = sub i64 %48, %51, !dbg !3924
  %53 = ashr i64 %52, 4, !dbg !3925
  %54 = add i64 %53, %51, !dbg !3926
  store i64 %54, i64* %50, align 8, !dbg !3926, !tbaa !2874
  call void @llvm.dbg.value(metadata %class.DirectEWMAX* undef, metadata !3708, metadata !DIExpression()), !dbg !3930
  call void @llvm.dbg.value(metadata i64 0, metadata !3709, metadata !DIExpression()), !dbg !3930
  call void @llvm.dbg.value(metadata i64 8, metadata !3711, metadata !DIExpression()), !dbg !3930
  call void @llvm.dbg.value(metadata i32 4, metadata !3712, metadata !DIExpression()), !dbg !3931
  call void @llvm.dbg.value(metadata i32 %27, metadata !3710, metadata !DIExpression()), !dbg !3930
  br i1 %28, label %98, label %55, !dbg !3932

55:                                               ; preds = %45
  %56 = add i32 %15, -2, !dbg !3932
  %57 = sub i32 %56, %17, !dbg !3932
  %58 = and i32 %27, 3, !dbg !3932
  %59 = icmp eq i32 %58, 0, !dbg !3932
  br i1 %59, label %70, label %60, !dbg !3932

60:                                               ; preds = %55, %60
  %61 = phi i64 [ %66, %60 ], [ %54, %55 ], !dbg !3930
  %62 = phi i32 [ %67, %60 ], [ %27, %55 ]
  %63 = phi i32 [ %68, %60 ], [ %58, %55 ]
  call void @llvm.dbg.value(metadata i32 %62, metadata !3710, metadata !DIExpression()), !dbg !3930
  %64 = sub i64 8, %61, !dbg !3933
  %65 = ashr i64 %64, 4, !dbg !3934
  %66 = add i64 %65, %61, !dbg !3935
  %67 = add i32 %62, -1, !dbg !3936
  call void @llvm.dbg.value(metadata i32 %67, metadata !3710, metadata !DIExpression()), !dbg !3930
  %68 = add i32 %63, -1, !dbg !3932
  %69 = icmp eq i32 %68, 0, !dbg !3932
  br i1 %69, label %70, label %60, !dbg !3932, !llvm.loop !3937

70:                                               ; preds = %60, %55
  %71 = phi i64 [ undef, %55 ], [ %66, %60 ]
  %72 = phi i64 [ %54, %55 ], [ %66, %60 ]
  %73 = phi i32 [ %27, %55 ], [ %67, %60 ]
  %74 = icmp ult i32 %57, 3, !dbg !3932
  br i1 %74, label %96, label %79, !dbg !3932

75:                                               ; preds = %41
  call void @llvm.dbg.value(metadata %class.DirectEWMAX* undef, metadata !3716, metadata !DIExpression()), !dbg !3919
  call void @llvm.dbg.value(metadata i64 undef, metadata !3719, metadata !DIExpression()), !dbg !3919
  call void @llvm.dbg.value(metadata i64 undef, metadata !3720, metadata !DIExpression(DW_OP_constu, 10, DW_OP_shl, DW_OP_constu, 8, DW_OP_or, DW_OP_stack_value)), !dbg !3919
  call void @llvm.dbg.value(metadata i32 4, metadata !3721, metadata !DIExpression()), !dbg !3919
  call void @llvm.dbg.value(metadata %class.DirectEWMAX* undef, metadata !3708, metadata !DIExpression()), !dbg !3930
  call void @llvm.dbg.value(metadata i64 0, metadata !3709, metadata !DIExpression()), !dbg !3930
  call void @llvm.dbg.value(metadata i32 %27, metadata !3710, metadata !DIExpression()), !dbg !3930
  call void @llvm.dbg.value(metadata i64 0, metadata !3711, metadata !DIExpression()), !dbg !3930
  call void @llvm.dbg.value(metadata i64 1, metadata !3686, metadata !DIExpression()), !dbg !3913
  %76 = bitcast %"class.Element::Port"** %43 to i8*, !dbg !3928
  tail call void @llvm.memset.p0i8.i64(i8* nonnull align 8 dereferenceable(16) %76, i8 0, i64 16, i1 false), !dbg !3927
  br label %77, !dbg !3928

77:                                               ; preds = %98, %75, %29
  %78 = phi i64 [ %99, %98 ], [ 0, %75 ], [ %40, %29 ]
  store i32 %15, i32* %16, align 8, !dbg !3928, !tbaa !2883
  br label %100, !dbg !3938

79:                                               ; preds = %70, %79
  %80 = phi i64 [ %93, %79 ], [ %72, %70 ], !dbg !3930
  %81 = phi i32 [ %94, %79 ], [ %73, %70 ]
  call void @llvm.dbg.value(metadata i32 %81, metadata !3710, metadata !DIExpression()), !dbg !3930
  %82 = sub i64 8, %80, !dbg !3933
  %83 = ashr i64 %82, 4, !dbg !3934
  %84 = add i64 %83, %80, !dbg !3935
  call void @llvm.dbg.value(metadata i32 %81, metadata !3710, metadata !DIExpression(DW_OP_constu, 1, DW_OP_minus, DW_OP_stack_value)), !dbg !3930
  %85 = sub i64 8, %84, !dbg !3933
  %86 = ashr i64 %85, 4, !dbg !3934
  %87 = add i64 %86, %84, !dbg !3935
  call void @llvm.dbg.value(metadata i32 %81, metadata !3710, metadata !DIExpression(DW_OP_constu, 2, DW_OP_minus, DW_OP_stack_value)), !dbg !3930
  %88 = sub i64 8, %87, !dbg !3933
  %89 = ashr i64 %88, 4, !dbg !3934
  %90 = add i64 %89, %87, !dbg !3935
  call void @llvm.dbg.value(metadata i32 %81, metadata !3710, metadata !DIExpression(DW_OP_constu, 3, DW_OP_minus, DW_OP_stack_value)), !dbg !3930
  %91 = sub i64 8, %90, !dbg !3933
  %92 = ashr i64 %91, 4, !dbg !3934
  %93 = add i64 %92, %90, !dbg !3935
  %94 = add i32 %81, -4, !dbg !3936
  call void @llvm.dbg.value(metadata i32 %94, metadata !3710, metadata !DIExpression()), !dbg !3930
  %95 = icmp eq i32 %94, 0, !dbg !3939
  br i1 %95, label %96, label %79, !dbg !3932, !llvm.loop !3940

96:                                               ; preds = %79, %70
  %97 = phi i64 [ %71, %70 ], [ %93, %79 ], !dbg !3935
  store i64 %97, i64* %50, align 8, !dbg !3935, !tbaa !2874
  br label %98, !dbg !3932

98:                                               ; preds = %96, %45
  %99 = phi i64 [ %97, %96 ], [ %54, %45 ]
  store i64 0, i64* %44, align 8, !dbg !3927, !tbaa !2890
  call void @llvm.dbg.value(metadata i64 1, metadata !3686, metadata !DIExpression()), !dbg !3913
  br label %77, !dbg !3928

100:                                              ; preds = %19, %77
  %101 = phi i64 [ %22, %19 ], [ %78, %77 ], !dbg !3909
  call void @llvm.dbg.value(metadata %"class.Element::Port"** %14, metadata !3906, metadata !DIExpression()), !dbg !3942
  call void @llvm.dbg.value(metadata i32 0, metadata !3907, metadata !DIExpression()), !dbg !3942
  call void @llvm.dbg.value(metadata %"class.Element::Port"** %14, metadata !3900, metadata !DIExpression()), !dbg !3943
  call void @llvm.dbg.value(metadata i32 0, metadata !3902, metadata !DIExpression()), !dbg !3943
  call void @llvm.dbg.value(metadata %class.DirectEWMAX* undef, metadata !3895, metadata !DIExpression()), !dbg !3892
  %102 = mul nsw i64 %101, 1000, !dbg !3944
  tail call void @_Z16cp_unparse_real2li(%class.String* sret %0, i64 %102, i32 10), !dbg !3945
  br label %300, !dbg !3946

103:                                              ; preds = %3
  %104 = getelementptr inbounds %class.Element, %class.Element* %1, i64 1, i32 2, i64 1, !dbg !3947
  call void @llvm.dbg.value(metadata %"class.Element::Port"* %104, metadata !3749, metadata !DIExpression()), !dbg !3948
  call void @llvm.dbg.value(metadata i64 0, metadata !3752, metadata !DIExpression()), !dbg !3948
  call void @llvm.dbg.value(metadata i32 0, metadata !3753, metadata !DIExpression()), !dbg !3948
  %105 = tail call i32 @_Z13click_jiffiesv(), !dbg !3950
  call void @llvm.dbg.value(metadata %"class.Element::Port"* %104, metadata !3758, metadata !DIExpression()), !dbg !3952
  call void @llvm.dbg.value(metadata i32 %105, metadata !3761, metadata !DIExpression()), !dbg !3952
  %106 = bitcast %"class.Element::Port"* %104 to i32*, !dbg !3954
  %107 = load i32, i32* %106, align 8, !dbg !3954, !tbaa !2914
  call void @llvm.dbg.value(metadata i32 %107, metadata !3762, metadata !DIExpression()), !dbg !3952
  %108 = icmp eq i32 %107, %105, !dbg !3955
  br i1 %108, label %109, label %113, !dbg !3956

109:                                              ; preds = %103
  %110 = getelementptr inbounds %class.Element, %class.Element* %1, i64 1, i32 2, i64 2, !dbg !3957
  %111 = bitcast %"class.Element::Port"* %110 to i64*, !dbg !3957
  %112 = load i64, i64* %111, align 8, !dbg !3970, !tbaa !2907
  br label %190, !dbg !3956

113:                                              ; preds = %103
  call void @llvm.dbg.value(metadata i32 0, metadata !3763, metadata !DIExpression()), !dbg !3971
  %114 = add i32 %107, 1, !dbg !3972
  %115 = icmp eq i32 %114, %105, !dbg !3972
  %116 = xor i32 %107, -1, !dbg !3972
  %117 = add i32 %105, %116, !dbg !3972
  %118 = icmp eq i32 %117, 0, !dbg !3973
  br i1 %115, label %119, label %131, !dbg !3975

119:                                              ; preds = %113
  call void @llvm.dbg.value(metadata i64 0, metadata !3763, metadata !DIExpression()), !dbg !3971
  %120 = getelementptr inbounds %class.Element, %class.Element* %1, i64 1, i32 2, i64 1, i32 1, !dbg !3976
  %121 = bitcast i32* %120 to i64*, !dbg !3976
  %122 = load i64, i64* %121, align 8, !dbg !3976, !tbaa !2890
  call void @llvm.dbg.value(metadata %class.DirectEWMAX.16* undef, metadata !3793, metadata !DIExpression()), !dbg !3977
  call void @llvm.dbg.value(metadata i64 %122, metadata !3796, metadata !DIExpression()), !dbg !3977
  %123 = shl i64 %122, 4, !dbg !3979
  %124 = or i64 %123, 8, !dbg !3980
  call void @llvm.dbg.value(metadata i64 %124, metadata !3797, metadata !DIExpression()), !dbg !3977
  call void @llvm.dbg.value(metadata i32 4, metadata !3798, metadata !DIExpression()), !dbg !3977
  %125 = getelementptr inbounds %class.Element, %class.Element* %1, i64 1, i32 2, i64 2, !dbg !3981
  %126 = bitcast %"class.Element::Port"* %125 to i64*, !dbg !3981
  %127 = load i64, i64* %126, align 8, !dbg !3981, !tbaa !2907
  %128 = sub i64 %124, %127, !dbg !3982
  %129 = ashr i64 %128, 4, !dbg !3983
  %130 = add i64 %129, %127, !dbg !3984
  store i64 %130, i64* %126, align 8, !dbg !3984, !tbaa !2907
  store i64 0, i64* %121, align 8, !dbg !3985, !tbaa !2890
  call void @llvm.dbg.value(metadata i64 1, metadata !3763, metadata !DIExpression()), !dbg !3971
  br label %167, !dbg !3986

131:                                              ; preds = %113
  %132 = icmp ugt i32 %117, 99, !dbg !3987
  call void @llvm.dbg.value(metadata i64 0, metadata !3763, metadata !DIExpression()), !dbg !3971
  call void @llvm.dbg.value(metadata i64 0, metadata !3763, metadata !DIExpression()), !dbg !3971
  %133 = getelementptr inbounds %class.Element, %class.Element* %1, i64 1, i32 2, i64 1, i32 1, !dbg !3976
  %134 = bitcast i32* %133 to i64*, !dbg !3976
  br i1 %132, label %165, label %135, !dbg !3975

135:                                              ; preds = %131
  %136 = load i64, i64* %134, align 8, !dbg !3976, !tbaa !2890
  call void @llvm.dbg.value(metadata %class.DirectEWMAX.16* undef, metadata !3793, metadata !DIExpression()), !dbg !3977
  call void @llvm.dbg.value(metadata i64 %136, metadata !3796, metadata !DIExpression()), !dbg !3977
  %137 = shl i64 %136, 4, !dbg !3979
  %138 = or i64 %137, 8, !dbg !3980
  call void @llvm.dbg.value(metadata i64 %138, metadata !3797, metadata !DIExpression()), !dbg !3977
  call void @llvm.dbg.value(metadata i32 4, metadata !3798, metadata !DIExpression()), !dbg !3977
  %139 = getelementptr inbounds %class.Element, %class.Element* %1, i64 1, i32 2, i64 2, !dbg !3981
  %140 = bitcast %"class.Element::Port"* %139 to i64*, !dbg !3981
  %141 = load i64, i64* %140, align 8, !dbg !3981, !tbaa !2907
  %142 = sub i64 %138, %141, !dbg !3982
  %143 = ashr i64 %142, 4, !dbg !3983
  %144 = add i64 %143, %141, !dbg !3984
  store i64 %144, i64* %140, align 8, !dbg !3984, !tbaa !2907
  call void @llvm.dbg.value(metadata %class.DirectEWMAX.16* undef, metadata !3785, metadata !DIExpression()), !dbg !3988
  call void @llvm.dbg.value(metadata i64 0, metadata !3786, metadata !DIExpression()), !dbg !3988
  call void @llvm.dbg.value(metadata i64 8, metadata !3788, metadata !DIExpression()), !dbg !3988
  call void @llvm.dbg.value(metadata i32 4, metadata !3789, metadata !DIExpression()), !dbg !3989
  call void @llvm.dbg.value(metadata i32 %117, metadata !3787, metadata !DIExpression()), !dbg !3988
  br i1 %118, label %188, label %145, !dbg !3990

145:                                              ; preds = %135
  %146 = add i32 %105, -2, !dbg !3990
  %147 = sub i32 %146, %107, !dbg !3990
  %148 = and i32 %117, 3, !dbg !3990
  %149 = icmp eq i32 %148, 0, !dbg !3990
  br i1 %149, label %160, label %150, !dbg !3990

150:                                              ; preds = %145, %150
  %151 = phi i64 [ %156, %150 ], [ %144, %145 ], !dbg !3988
  %152 = phi i32 [ %157, %150 ], [ %117, %145 ]
  %153 = phi i32 [ %158, %150 ], [ %148, %145 ]
  call void @llvm.dbg.value(metadata i32 %152, metadata !3787, metadata !DIExpression()), !dbg !3988
  %154 = sub i64 8, %151, !dbg !3991
  %155 = ashr i64 %154, 4, !dbg !3992
  %156 = add i64 %155, %151, !dbg !3993
  %157 = add i32 %152, -1, !dbg !3994
  call void @llvm.dbg.value(metadata i32 %157, metadata !3787, metadata !DIExpression()), !dbg !3988
  %158 = add i32 %153, -1, !dbg !3990
  %159 = icmp eq i32 %158, 0, !dbg !3990
  br i1 %159, label %160, label %150, !dbg !3990, !llvm.loop !3995

160:                                              ; preds = %150, %145
  %161 = phi i64 [ undef, %145 ], [ %156, %150 ]
  %162 = phi i64 [ %144, %145 ], [ %156, %150 ]
  %163 = phi i32 [ %117, %145 ], [ %157, %150 ]
  %164 = icmp ult i32 %147, 3, !dbg !3990
  br i1 %164, label %186, label %169, !dbg !3990

165:                                              ; preds = %131
  call void @llvm.dbg.value(metadata %class.DirectEWMAX.16* undef, metadata !3793, metadata !DIExpression()), !dbg !3977
  call void @llvm.dbg.value(metadata i64 undef, metadata !3796, metadata !DIExpression()), !dbg !3977
  call void @llvm.dbg.value(metadata i64 undef, metadata !3797, metadata !DIExpression(DW_OP_constu, 4, DW_OP_shl, DW_OP_constu, 8, DW_OP_or, DW_OP_stack_value)), !dbg !3977
  call void @llvm.dbg.value(metadata i32 4, metadata !3798, metadata !DIExpression()), !dbg !3977
  call void @llvm.dbg.value(metadata %class.DirectEWMAX.16* undef, metadata !3785, metadata !DIExpression()), !dbg !3988
  call void @llvm.dbg.value(metadata i64 0, metadata !3786, metadata !DIExpression()), !dbg !3988
  call void @llvm.dbg.value(metadata i32 %117, metadata !3787, metadata !DIExpression()), !dbg !3988
  call void @llvm.dbg.value(metadata i64 0, metadata !3788, metadata !DIExpression()), !dbg !3988
  call void @llvm.dbg.value(metadata i64 1, metadata !3763, metadata !DIExpression()), !dbg !3971
  %166 = bitcast i32* %133 to i8*, !dbg !3986
  tail call void @llvm.memset.p0i8.i64(i8* nonnull align 8 dereferenceable(16) %166, i8 0, i64 16, i1 false), !dbg !3985
  br label %167, !dbg !3986

167:                                              ; preds = %188, %165, %119
  %168 = phi i64 [ %189, %188 ], [ 0, %165 ], [ %130, %119 ]
  store i32 %105, i32* %106, align 8, !dbg !3986, !tbaa !2914
  br label %190, !dbg !3996

169:                                              ; preds = %160, %169
  %170 = phi i64 [ %183, %169 ], [ %162, %160 ], !dbg !3988
  %171 = phi i32 [ %184, %169 ], [ %163, %160 ]
  call void @llvm.dbg.value(metadata i32 %171, metadata !3787, metadata !DIExpression()), !dbg !3988
  %172 = sub i64 8, %170, !dbg !3991
  %173 = ashr i64 %172, 4, !dbg !3992
  %174 = add i64 %173, %170, !dbg !3993
  call void @llvm.dbg.value(metadata i32 %171, metadata !3787, metadata !DIExpression(DW_OP_constu, 1, DW_OP_minus, DW_OP_stack_value)), !dbg !3988
  %175 = sub i64 8, %174, !dbg !3991
  %176 = ashr i64 %175, 4, !dbg !3992
  %177 = add i64 %176, %174, !dbg !3993
  call void @llvm.dbg.value(metadata i32 %171, metadata !3787, metadata !DIExpression(DW_OP_constu, 2, DW_OP_minus, DW_OP_stack_value)), !dbg !3988
  %178 = sub i64 8, %177, !dbg !3991
  %179 = ashr i64 %178, 4, !dbg !3992
  %180 = add i64 %179, %177, !dbg !3993
  call void @llvm.dbg.value(metadata i32 %171, metadata !3787, metadata !DIExpression(DW_OP_constu, 3, DW_OP_minus, DW_OP_stack_value)), !dbg !3988
  %181 = sub i64 8, %180, !dbg !3991
  %182 = ashr i64 %181, 4, !dbg !3992
  %183 = add i64 %182, %180, !dbg !3993
  %184 = add i32 %171, -4, !dbg !3994
  call void @llvm.dbg.value(metadata i32 %184, metadata !3787, metadata !DIExpression()), !dbg !3988
  %185 = icmp eq i32 %184, 0, !dbg !3997
  br i1 %185, label %186, label %169, !dbg !3990, !llvm.loop !3998

186:                                              ; preds = %169, %160
  %187 = phi i64 [ %161, %160 ], [ %183, %169 ], !dbg !3993
  store i64 %187, i64* %140, align 8, !dbg !3993, !tbaa !2907
  br label %188, !dbg !3990

188:                                              ; preds = %186, %135
  %189 = phi i64 [ %187, %186 ], [ %144, %135 ]
  store i64 0, i64* %134, align 8, !dbg !3985, !tbaa !2890
  call void @llvm.dbg.value(metadata i64 1, metadata !3763, metadata !DIExpression()), !dbg !3971
  br label %167, !dbg !3986

190:                                              ; preds = %109, %167
  %191 = phi i64 [ %112, %109 ], [ %168, %167 ], !dbg !3970
  call void @llvm.dbg.value(metadata %"class.Element::Port"* %104, metadata !3965, metadata !DIExpression()), !dbg !4000
  call void @llvm.dbg.value(metadata i32 0, metadata !3967, metadata !DIExpression()), !dbg !4000
  call void @llvm.dbg.value(metadata %class.DirectEWMAX.16* undef, metadata !3960, metadata !DIExpression()), !dbg !3957
  %192 = mul nsw i64 %191, 1000, !dbg !4001
  tail call void @_Z16cp_unparse_real2li(%class.String* sret %0, i64 %192, i32 1), !dbg !4002
  br label %300, !dbg !4003

193:                                              ; preds = %3
  %194 = getelementptr inbounds %class.Element, %class.Element* %1, i64 1, i32 2, i64 1, !dbg !4004
  call void @llvm.dbg.value(metadata %"class.Element::Port"* %194, metadata !3749, metadata !DIExpression()), !dbg !4005
  call void @llvm.dbg.value(metadata i64 0, metadata !3752, metadata !DIExpression()), !dbg !4005
  call void @llvm.dbg.value(metadata i32 0, metadata !3753, metadata !DIExpression()), !dbg !4005
  %195 = tail call i32 @_Z13click_jiffiesv(), !dbg !4007
  call void @llvm.dbg.value(metadata %"class.Element::Port"* %194, metadata !3758, metadata !DIExpression()), !dbg !4009
  call void @llvm.dbg.value(metadata i32 %195, metadata !3761, metadata !DIExpression()), !dbg !4009
  %196 = bitcast %"class.Element::Port"* %194 to i32*, !dbg !4011
  %197 = load i32, i32* %196, align 8, !dbg !4011, !tbaa !2914
  call void @llvm.dbg.value(metadata i32 %197, metadata !3762, metadata !DIExpression()), !dbg !4009
  %198 = icmp eq i32 %197, %195, !dbg !4012
  br i1 %198, label %199, label %203, !dbg !4013

199:                                              ; preds = %193
  %200 = getelementptr inbounds %class.Element, %class.Element* %1, i64 1, i32 2, i64 2, !dbg !4014
  %201 = bitcast %"class.Element::Port"* %200 to i64*, !dbg !4014
  %202 = load i64, i64* %201, align 8, !dbg !4022, !tbaa !2907, !noalias !4023
  br label %280, !dbg !4013

203:                                              ; preds = %193
  call void @llvm.dbg.value(metadata i32 0, metadata !3763, metadata !DIExpression()), !dbg !4026
  %204 = add i32 %197, 1, !dbg !4027
  %205 = icmp eq i32 %204, %195, !dbg !4027
  %206 = xor i32 %197, -1, !dbg !4027
  %207 = add i32 %195, %206, !dbg !4027
  %208 = icmp eq i32 %207, 0, !dbg !4028
  br i1 %205, label %209, label %221, !dbg !4030

209:                                              ; preds = %203
  call void @llvm.dbg.value(metadata i64 0, metadata !3763, metadata !DIExpression()), !dbg !4026
  %210 = getelementptr inbounds %class.Element, %class.Element* %1, i64 1, i32 2, i64 1, i32 1, !dbg !4031
  %211 = bitcast i32* %210 to i64*, !dbg !4031
  %212 = load i64, i64* %211, align 8, !dbg !4031, !tbaa !2890
  call void @llvm.dbg.value(metadata %class.DirectEWMAX.16* undef, metadata !3793, metadata !DIExpression()), !dbg !4032
  call void @llvm.dbg.value(metadata i64 %212, metadata !3796, metadata !DIExpression()), !dbg !4032
  %213 = shl i64 %212, 4, !dbg !4034
  %214 = or i64 %213, 8, !dbg !4035
  call void @llvm.dbg.value(metadata i64 %214, metadata !3797, metadata !DIExpression()), !dbg !4032
  call void @llvm.dbg.value(metadata i32 4, metadata !3798, metadata !DIExpression()), !dbg !4032
  %215 = getelementptr inbounds %class.Element, %class.Element* %1, i64 1, i32 2, i64 2, !dbg !4036
  %216 = bitcast %"class.Element::Port"* %215 to i64*, !dbg !4036
  %217 = load i64, i64* %216, align 8, !dbg !4036, !tbaa !2907
  %218 = sub i64 %214, %217, !dbg !4037
  %219 = ashr i64 %218, 4, !dbg !4038
  %220 = add i64 %219, %217, !dbg !4039
  store i64 %220, i64* %216, align 8, !dbg !4039, !tbaa !2907
  store i64 0, i64* %211, align 8, !dbg !4040, !tbaa !2890
  call void @llvm.dbg.value(metadata i64 1, metadata !3763, metadata !DIExpression()), !dbg !4026
  br label %257, !dbg !4041

221:                                              ; preds = %203
  %222 = icmp ugt i32 %207, 99, !dbg !4042
  call void @llvm.dbg.value(metadata i64 0, metadata !3763, metadata !DIExpression()), !dbg !4026
  call void @llvm.dbg.value(metadata i64 0, metadata !3763, metadata !DIExpression()), !dbg !4026
  %223 = getelementptr inbounds %class.Element, %class.Element* %1, i64 1, i32 2, i64 1, i32 1, !dbg !4031
  %224 = bitcast i32* %223 to i64*, !dbg !4031
  br i1 %222, label %255, label %225, !dbg !4030

225:                                              ; preds = %221
  %226 = load i64, i64* %224, align 8, !dbg !4031, !tbaa !2890
  call void @llvm.dbg.value(metadata %class.DirectEWMAX.16* undef, metadata !3793, metadata !DIExpression()), !dbg !4032
  call void @llvm.dbg.value(metadata i64 %226, metadata !3796, metadata !DIExpression()), !dbg !4032
  %227 = shl i64 %226, 4, !dbg !4034
  %228 = or i64 %227, 8, !dbg !4035
  call void @llvm.dbg.value(metadata i64 %228, metadata !3797, metadata !DIExpression()), !dbg !4032
  call void @llvm.dbg.value(metadata i32 4, metadata !3798, metadata !DIExpression()), !dbg !4032
  %229 = getelementptr inbounds %class.Element, %class.Element* %1, i64 1, i32 2, i64 2, !dbg !4036
  %230 = bitcast %"class.Element::Port"* %229 to i64*, !dbg !4036
  %231 = load i64, i64* %230, align 8, !dbg !4036, !tbaa !2907
  %232 = sub i64 %228, %231, !dbg !4037
  %233 = ashr i64 %232, 4, !dbg !4038
  %234 = add i64 %233, %231, !dbg !4039
  store i64 %234, i64* %230, align 8, !dbg !4039, !tbaa !2907
  call void @llvm.dbg.value(metadata %class.DirectEWMAX.16* undef, metadata !3785, metadata !DIExpression()), !dbg !4043
  call void @llvm.dbg.value(metadata i64 0, metadata !3786, metadata !DIExpression()), !dbg !4043
  call void @llvm.dbg.value(metadata i64 8, metadata !3788, metadata !DIExpression()), !dbg !4043
  call void @llvm.dbg.value(metadata i32 4, metadata !3789, metadata !DIExpression()), !dbg !4044
  call void @llvm.dbg.value(metadata i32 %207, metadata !3787, metadata !DIExpression()), !dbg !4043
  br i1 %208, label %278, label %235, !dbg !4045

235:                                              ; preds = %225
  %236 = add i32 %195, -2, !dbg !4045
  %237 = sub i32 %236, %197, !dbg !4045
  %238 = and i32 %207, 3, !dbg !4045
  %239 = icmp eq i32 %238, 0, !dbg !4045
  br i1 %239, label %250, label %240, !dbg !4045

240:                                              ; preds = %235, %240
  %241 = phi i64 [ %246, %240 ], [ %234, %235 ], !dbg !4043
  %242 = phi i32 [ %247, %240 ], [ %207, %235 ]
  %243 = phi i32 [ %248, %240 ], [ %238, %235 ]
  call void @llvm.dbg.value(metadata i32 %242, metadata !3787, metadata !DIExpression()), !dbg !4043
  %244 = sub i64 8, %241, !dbg !4046
  %245 = ashr i64 %244, 4, !dbg !4047
  %246 = add i64 %245, %241, !dbg !4048
  %247 = add i32 %242, -1, !dbg !4049
  call void @llvm.dbg.value(metadata i32 %247, metadata !3787, metadata !DIExpression()), !dbg !4043
  %248 = add i32 %243, -1, !dbg !4045
  %249 = icmp eq i32 %248, 0, !dbg !4045
  br i1 %249, label %250, label %240, !dbg !4045, !llvm.loop !4050

250:                                              ; preds = %240, %235
  %251 = phi i64 [ undef, %235 ], [ %246, %240 ]
  %252 = phi i64 [ %234, %235 ], [ %246, %240 ]
  %253 = phi i32 [ %207, %235 ], [ %247, %240 ]
  %254 = icmp ult i32 %237, 3, !dbg !4045
  br i1 %254, label %276, label %259, !dbg !4045

255:                                              ; preds = %221
  call void @llvm.dbg.value(metadata %class.DirectEWMAX.16* undef, metadata !3793, metadata !DIExpression()), !dbg !4032
  call void @llvm.dbg.value(metadata i64 undef, metadata !3796, metadata !DIExpression()), !dbg !4032
  call void @llvm.dbg.value(metadata i64 undef, metadata !3797, metadata !DIExpression(DW_OP_constu, 4, DW_OP_shl, DW_OP_constu, 8, DW_OP_or, DW_OP_stack_value)), !dbg !4032
  call void @llvm.dbg.value(metadata i32 4, metadata !3798, metadata !DIExpression()), !dbg !4032
  call void @llvm.dbg.value(metadata %class.DirectEWMAX.16* undef, metadata !3785, metadata !DIExpression()), !dbg !4043
  call void @llvm.dbg.value(metadata i64 0, metadata !3786, metadata !DIExpression()), !dbg !4043
  call void @llvm.dbg.value(metadata i32 %207, metadata !3787, metadata !DIExpression()), !dbg !4043
  call void @llvm.dbg.value(metadata i64 0, metadata !3788, metadata !DIExpression()), !dbg !4043
  call void @llvm.dbg.value(metadata i64 1, metadata !3763, metadata !DIExpression()), !dbg !4026
  %256 = bitcast i32* %223 to i8*, !dbg !4041
  tail call void @llvm.memset.p0i8.i64(i8* nonnull align 8 dereferenceable(16) %256, i8 0, i64 16, i1 false), !dbg !4040
  br label %257, !dbg !4041

257:                                              ; preds = %278, %255, %209
  %258 = phi i64 [ %279, %278 ], [ 0, %255 ], [ %220, %209 ]
  store i32 %195, i32* %196, align 8, !dbg !4041, !tbaa !2914
  br label %280, !dbg !4051

259:                                              ; preds = %250, %259
  %260 = phi i64 [ %273, %259 ], [ %252, %250 ], !dbg !4043
  %261 = phi i32 [ %274, %259 ], [ %253, %250 ]
  call void @llvm.dbg.value(metadata i32 %261, metadata !3787, metadata !DIExpression()), !dbg !4043
  %262 = sub i64 8, %260, !dbg !4046
  %263 = ashr i64 %262, 4, !dbg !4047
  %264 = add i64 %263, %260, !dbg !4048
  call void @llvm.dbg.value(metadata i32 %261, metadata !3787, metadata !DIExpression(DW_OP_constu, 1, DW_OP_minus, DW_OP_stack_value)), !dbg !4043
  %265 = sub i64 8, %264, !dbg !4046
  %266 = ashr i64 %265, 4, !dbg !4047
  %267 = add i64 %266, %264, !dbg !4048
  call void @llvm.dbg.value(metadata i32 %261, metadata !3787, metadata !DIExpression(DW_OP_constu, 2, DW_OP_minus, DW_OP_stack_value)), !dbg !4043
  %268 = sub i64 8, %267, !dbg !4046
  %269 = ashr i64 %268, 4, !dbg !4047
  %270 = add i64 %269, %267, !dbg !4048
  call void @llvm.dbg.value(metadata i32 %261, metadata !3787, metadata !DIExpression(DW_OP_constu, 3, DW_OP_minus, DW_OP_stack_value)), !dbg !4043
  %271 = sub i64 8, %270, !dbg !4046
  %272 = ashr i64 %271, 4, !dbg !4047
  %273 = add i64 %272, %270, !dbg !4048
  %274 = add i32 %261, -4, !dbg !4049
  call void @llvm.dbg.value(metadata i32 %274, metadata !3787, metadata !DIExpression()), !dbg !4043
  %275 = icmp eq i32 %274, 0, !dbg !4052
  br i1 %275, label %276, label %259, !dbg !4045, !llvm.loop !4053

276:                                              ; preds = %259, %250
  %277 = phi i64 [ %251, %250 ], [ %273, %259 ], !dbg !4048
  store i64 %277, i64* %230, align 8, !dbg !4048, !tbaa !2907
  br label %278, !dbg !4045

278:                                              ; preds = %276, %225
  %279 = phi i64 [ %277, %276 ], [ %234, %225 ]
  store i64 0, i64* %224, align 8, !dbg !4040, !tbaa !2890
  call void @llvm.dbg.value(metadata i64 1, metadata !3763, metadata !DIExpression()), !dbg !4026
  br label %257, !dbg !4041

280:                                              ; preds = %199, %257
  %281 = phi i64 [ %202, %199 ], [ %258, %257 ], !dbg !4022
  call void @llvm.dbg.value(metadata %"class.Element::Port"* %194, metadata !4019, metadata !DIExpression()), !dbg !4055
  call void @llvm.dbg.value(metadata i32 0, metadata !4020, metadata !DIExpression()), !dbg !4055
  call void @llvm.dbg.value(metadata %"class.Element::Port"* %194, metadata !3965, metadata !DIExpression()), !dbg !4056
  call void @llvm.dbg.value(metadata i32 0, metadata !3967, metadata !DIExpression()), !dbg !4056
  call void @llvm.dbg.value(metadata %class.DirectEWMAX.16* undef, metadata !3960, metadata !DIExpression()), !dbg !4014
  %282 = mul nsw i64 %281, 1000, !dbg !4057
  tail call void @_Z16cp_unparse_real2li(%class.String* sret %0, i64 %282, i32 4), !dbg !4058
  br label %300, !dbg !4059

283:                                              ; preds = %3
  %284 = getelementptr inbounds %class.Element, %class.Element* %1, i64 1, i32 2, i64 3, !dbg !4060
  %285 = bitcast %"class.Element::Port"* %284 to %class.HandlerCall**, !dbg !4060
  %286 = load %class.HandlerCall*, %class.HandlerCall** %285, align 8, !dbg !4060, !tbaa !2921
  %287 = icmp eq %class.HandlerCall* %286, null, !dbg !4062
  br i1 %287, label %292, label %288, !dbg !4063

288:                                              ; preds = %283
  %289 = getelementptr inbounds %class.Element, %class.Element* %1, i64 1, i32 2, i64 2, i32 1, !dbg !4064
  %290 = bitcast i32* %289 to i64*, !dbg !4064
  %291 = load i64, i64* %290, align 8, !dbg !4064, !tbaa !3289
  tail call void @_ZN6StringC1Em(%class.String* %0, i64 %291), !dbg !4065
  br label %300, !dbg !4066

292:                                              ; preds = %283
  call void @llvm.dbg.value(metadata %class.String* %0, metadata !3077, metadata !DIExpression()), !dbg !4067
  call void @llvm.dbg.value(metadata %class.String* %0, metadata !3082, metadata !DIExpression()), !dbg !4069
  call void @llvm.dbg.value(metadata i8* @_ZN6String9null_dataE, metadata !3085, metadata !DIExpression()), !dbg !4069
  call void @llvm.dbg.value(metadata i32 0, metadata !3086, metadata !DIExpression()), !dbg !4069
  call void @llvm.dbg.value(metadata %"struct.String::memo_t"* null, metadata !3087, metadata !DIExpression()), !dbg !4069
  %293 = getelementptr inbounds %class.String, %class.String* %0, i64 0, i32 0, i32 0, !dbg !4071
  store i8* @_ZN6String9null_dataE, i8** %293, align 8, !dbg !4072, !tbaa !3093
  %294 = getelementptr inbounds %class.String, %class.String* %0, i64 0, i32 0, i32 1, !dbg !4073
  store i32 0, i32* %294, align 8, !dbg !4074, !tbaa !3096
  %295 = getelementptr inbounds %class.String, %class.String* %0, i64 0, i32 0, i32 2, !dbg !4075
  store %"struct.String::memo_t"* null, %"struct.String::memo_t"** %295, align 8, !dbg !4076, !tbaa !2958
  br label %300, !dbg !4077

296:                                              ; preds = %3
  call void @llvm.dbg.value(metadata %class.String* %0, metadata !4078, metadata !DIExpression()), !dbg !4082
  call void @llvm.dbg.value(metadata i8* getelementptr inbounds ([8 x i8], [8 x i8]* @.str.6, i64 0, i64 0), metadata !4081, metadata !DIExpression()), !dbg !4082
  call void @llvm.dbg.value(metadata %class.String* %0, metadata !3082, metadata !DIExpression()), !dbg !4084
  call void @llvm.dbg.value(metadata i8* getelementptr inbounds ([8 x i8], [8 x i8]* @.str.6, i64 0, i64 0), metadata !3085, metadata !DIExpression()), !dbg !4084
  call void @llvm.dbg.value(metadata i32 7, metadata !3086, metadata !DIExpression()), !dbg !4084
  call void @llvm.dbg.value(metadata %"struct.String::memo_t"* null, metadata !3087, metadata !DIExpression()), !dbg !4084
  %297 = getelementptr inbounds %class.String, %class.String* %0, i64 0, i32 0, i32 0, !dbg !4088
  store i8* getelementptr inbounds ([8 x i8], [8 x i8]* @.str.6, i64 0, i64 0), i8** %297, align 8, !dbg !4089, !tbaa !3093
  %298 = getelementptr inbounds %class.String, %class.String* %0, i64 0, i32 0, i32 1, !dbg !4090
  store i32 7, i32* %298, align 8, !dbg !4091, !tbaa !3096
  %299 = getelementptr inbounds %class.String, %class.String* %0, i64 0, i32 0, i32 2, !dbg !4092
  store %"struct.String::memo_t"* null, %"struct.String::memo_t"** %299, align 8, !dbg !4093, !tbaa !2958
  br label %300, !dbg !4094

300:                                              ; preds = %296, %292, %288, %280, %190, %100, %9, %5
  ret void, !dbg !4095
}

declare !dbg !1838 void @_Z16cp_unparse_real2li(%class.String* sret, i64, i32) local_unnamed_addr #2

; Function Attrs: sspstrong uwtable
define dso_local i32 @_ZN7Counter13write_handlerERK6StringP7ElementPvP12ErrorHandler(%class.String* nocapture readonly dereferenceable(24) %0, %class.Element* %1, i8* %2, %class.ErrorHandler* %3) #0 align 2 personality i8* bitcast (i32 (...)* @__gxx_personality_v0 to i8*) !dbg !4096 {
  %5 = alloca [2 x i32], align 4
  call void @llvm.dbg.declare(metadata [2 x i32]* %5, metadata !3049, metadata !DIExpression()), !dbg !4104
  call void @llvm.dbg.declare(metadata [2 x i32]* %5, metadata !3049, metadata !DIExpression()), !dbg !4118
  %6 = alloca %class.String, align 8
  %7 = alloca %class.IntArg, align 4
  %8 = alloca %class.String, align 8
  %9 = alloca %class.IntArg, align 4
  %10 = alloca %class.String, align 8
  call void @llvm.dbg.value(metadata %class.String* %0, metadata !4098, metadata !DIExpression()), !dbg !4122
  call void @llvm.dbg.value(metadata %class.Element* %1, metadata !4099, metadata !DIExpression()), !dbg !4122
  call void @llvm.dbg.value(metadata i8* %2, metadata !4100, metadata !DIExpression()), !dbg !4122
  call void @llvm.dbg.value(metadata %class.ErrorHandler* %3, metadata !4101, metadata !DIExpression()), !dbg !4122
  call void @llvm.dbg.value(metadata %class.Element* %1, metadata !4102, metadata !DIExpression()), !dbg !4122
  %11 = bitcast %class.String* %6 to i8*, !dbg !4123
  call void @llvm.lifetime.start.p0i8(i64 24, i8* nonnull %11) #13, !dbg !4123
  call void @llvm.dbg.declare(metadata %class.String* %6, metadata !4103, metadata !DIExpression()), !dbg !4124
  call void @llvm.dbg.value(metadata %class.String* %6, metadata !3345, metadata !DIExpression()), !dbg !4125
  call void @llvm.dbg.value(metadata %class.String* %0, metadata !3348, metadata !DIExpression()), !dbg !4125
  call void @llvm.dbg.value(metadata %class.String* %6, metadata !3351, metadata !DIExpression()), !dbg !4127
  call void @llvm.dbg.value(metadata %class.String* %0, metadata !3354, metadata !DIExpression()), !dbg !4127
  %12 = bitcast %class.String* %0 to i64*, !dbg !4129
  %13 = load i64, i64* %12, align 8, !dbg !4129, !tbaa !3093
  %14 = getelementptr inbounds %class.String, %class.String* %0, i64 0, i32 0, i32 1, !dbg !4130
  %15 = load i32, i32* %14, align 8, !dbg !4130, !tbaa !3096
  %16 = getelementptr inbounds %class.String, %class.String* %0, i64 0, i32 0, i32 2, !dbg !4131
  %17 = load %"struct.String::memo_t"*, %"struct.String::memo_t"** %16, align 8, !dbg !4131, !tbaa !2958
  call void @llvm.dbg.value(metadata %class.String* %6, metadata !3082, metadata !DIExpression()), !dbg !4132
  call void @llvm.dbg.value(metadata i8* undef, metadata !3085, metadata !DIExpression()), !dbg !4132
  call void @llvm.dbg.value(metadata i32 %15, metadata !3086, metadata !DIExpression()), !dbg !4132
  call void @llvm.dbg.value(metadata %"struct.String::memo_t"* %17, metadata !3087, metadata !DIExpression()), !dbg !4132
  %18 = bitcast %class.String* %6 to i64*, !dbg !4134
  store i64 %13, i64* %18, align 8, !dbg !4134, !tbaa !3093
  %19 = getelementptr inbounds %class.String, %class.String* %6, i64 0, i32 0, i32 1, !dbg !4135
  store i32 %15, i32* %19, align 8, !dbg !4136, !tbaa !3096
  %20 = getelementptr inbounds %class.String, %class.String* %6, i64 0, i32 0, i32 2, !dbg !4137
  store %"struct.String::memo_t"* %17, %"struct.String::memo_t"** %20, align 8, !dbg !4138, !tbaa !2958
  %21 = icmp eq %"struct.String::memo_t"* %17, null, !dbg !4139
  br i1 %21, label %26, label %22, !dbg !4140

22:                                               ; preds = %4
  %23 = getelementptr inbounds %"struct.String::memo_t", %"struct.String::memo_t"* %17, i64 0, i32 0, !dbg !4141
  call void @llvm.dbg.value(metadata i32* %23, metadata !3371, metadata !DIExpression()), !dbg !4142
  %24 = load volatile i32, i32* %23, align 4, !dbg !4144, !tbaa !2974
  %25 = add i32 %24, 1, !dbg !4144
  store volatile i32 %25, i32* %23, align 4, !dbg !4144, !tbaa !2974
  br label %26, !dbg !4145

26:                                               ; preds = %4, %22
  %27 = ptrtoint i8* %2 to i64, !dbg !4146
  switch i64 %27, label %237 [
    i64 6, label %28
    i64 7, label %131
    i64 5, label %230
  ], !dbg !4147

28:                                               ; preds = %26
  %29 = bitcast %class.IntArg* %7 to i8*, !dbg !4148
  call void @llvm.lifetime.start.p0i8(i64 8, i8* nonnull %29) #13, !dbg !4148
  call void @llvm.dbg.value(metadata %class.IntArg* %7, metadata !3159, metadata !DIExpression()), !dbg !4149
  call void @llvm.dbg.value(metadata i32 0, metadata !3162, metadata !DIExpression()), !dbg !4149
  %30 = getelementptr inbounds %class.IntArg, %class.IntArg* %7, i64 0, i32 0, !dbg !4151
  store i32 0, i32* %30, align 4, !dbg !4151, !tbaa !3166
  %31 = bitcast %class.String* %8 to i8*, !dbg !4152
  call void @llvm.lifetime.start.p0i8(i64 24, i8* nonnull %31) #13, !dbg !4152
  invoke void @_Z17cp_shift_spacevecR6String(%class.String* nonnull sret %8, %class.String* nonnull dereferenceable(24) %6)
          to label %32 unwind label %88, !dbg !4152

32:                                               ; preds = %28
  %33 = getelementptr inbounds %class.Element, %class.Element* %1, i64 1, i32 2, i64 2, i32 1, !dbg !4153
  %34 = bitcast i32* %33 to i64*, !dbg !4153
  call void @llvm.dbg.value(metadata %class.IntArg* %7, metadata !4110, metadata !DIExpression()), !dbg !4154
  call void @llvm.dbg.value(metadata %class.String* %8, metadata !4111, metadata !DIExpression()), !dbg !4154
  call void @llvm.dbg.value(metadata i64* %34, metadata !4112, metadata !DIExpression()), !dbg !4154
  call void @llvm.dbg.value(metadata %class.ArgContext* @blank_args, metadata !4113, metadata !DIExpression()), !dbg !4154
  call void @llvm.dbg.value(metadata %class.IntArg* %7, metadata !3058, metadata !DIExpression()), !dbg !4155
  call void @llvm.dbg.value(metadata %class.String* %8, metadata !3060, metadata !DIExpression()), !dbg !4155
  call void @llvm.dbg.value(metadata %class.ArgContext* @blank_args, metadata !3062, metadata !DIExpression()), !dbg !4155
  call void @llvm.dbg.value(metadata i8 0, metadata !3063, metadata !DIExpression()), !dbg !4155
  call void @llvm.dbg.value(metadata i32 2, metadata !3064, metadata !DIExpression()), !dbg !4155
  %35 = bitcast [2 x i32]* %5 to i8*, !dbg !4156
  call void @llvm.lifetime.start.p0i8(i64 8, i8* nonnull %35) #13, !dbg !4156
  call void @llvm.dbg.value(metadata %class.String* %8, metadata !3172, metadata !DIExpression()), !dbg !4157
  %36 = getelementptr inbounds %class.String, %class.String* %8, i64 0, i32 0, i32 0, !dbg !4159
  %37 = load i8*, i8** %36, align 8, !dbg !4159, !tbaa !3093
  call void @llvm.dbg.value(metadata %class.String* %8, metadata !3179, metadata !DIExpression()), !dbg !4160
  %38 = getelementptr inbounds %class.String, %class.String* %8, i64 0, i32 0, i32 1, !dbg !4162
  %39 = load i32, i32* %38, align 8, !dbg !4162, !tbaa !3096
  %40 = sext i32 %39 to i64, !dbg !4163
  %41 = getelementptr inbounds i8, i8* %37, i64 %40, !dbg !4163
  %42 = getelementptr inbounds [2 x i32], [2 x i32]* %5, i64 0, i64 0, !dbg !4164
  %43 = invoke i8* @_ZN6IntArg5parseEPKcS1_biPji(%class.IntArg* nonnull %7, i8* %37, i8* %41, i1 zeroext false, i32 8, i32* nonnull %42, i32 2)
          to label %44 unwind label %92, !dbg !4165

44:                                               ; preds = %32
  call void @llvm.dbg.value(metadata %class.String* %8, metadata !3179, metadata !DIExpression()), !dbg !4166
  %45 = load i8*, i8** %36, align 8, !dbg !4168, !tbaa !3093
  %46 = load i32, i32* %38, align 8, !dbg !4169, !tbaa !3096
  %47 = sext i32 %46 to i64, !dbg !4170
  %48 = getelementptr inbounds i8, i8* %45, i64 %47, !dbg !4170
  %49 = icmp eq i8* %43, %48, !dbg !4171
  %50 = getelementptr inbounds %class.IntArg, %class.IntArg* %7, i64 0, i32 1, !dbg !4155
  br i1 %49, label %52, label %51, !dbg !4172

51:                                               ; preds = %44
  store i32 22, i32* %50, align 4, !dbg !4173, !tbaa !3196
  br label %54, !dbg !4174

52:                                               ; preds = %44
  %53 = load i32, i32* %50, align 4, !dbg !4175, !tbaa !3196
  switch i32 %53, label %54 [
    i32 0, label %56
    i32 34, label %56
  ], !dbg !4174

54:                                               ; preds = %52, %51
  invoke void (%class.ArgContext*, i8*, ...) @_ZNK10ArgContext5errorEPKcz(%class.ArgContext* nonnull @blank_args, i8* getelementptr inbounds ([15 x i8], [15 x i8]* @.str.23, i64 0, i64 0))
          to label %55 unwind label %92, !dbg !4176

55:                                               ; preds = %54
  call void @llvm.lifetime.end.p0i8(i64 8, i8* nonnull %35) #13, !dbg !4177
  br label %66, !dbg !4178

56:                                               ; preds = %52, %52
  call void @llvm.dbg.value(metadata i32* %42, metadata !3202, metadata !DIExpression()), !dbg !4179
  call void @llvm.dbg.value(metadata i32* %42, metadata !3214, metadata !DIExpression()), !dbg !4181
  %57 = getelementptr inbounds [2 x i32], [2 x i32]* %5, i64 0, i64 1, !dbg !4183
  call void @llvm.dbg.value(metadata i32* %57, metadata !3226, metadata !DIExpression()), !dbg !4184
  %58 = load i32, i32* %57, align 4, !dbg !4186, !tbaa !2974
  %59 = zext i32 %58 to i64, !dbg !4186
  %60 = shl nuw i64 %59, 32, !dbg !4187
  %61 = load i32, i32* %42, align 4, !dbg !4188, !tbaa !2974
  %62 = zext i32 %61 to i64, !dbg !4188
  %63 = or i64 %60, %62, !dbg !4189
  call void @llvm.lifetime.end.p0i8(i64 8, i8* nonnull %35) #13, !dbg !4177
  switch i32 %53, label %66 [
    i32 34, label %64
    i32 0, label %65
  ], !dbg !4190

64:                                               ; preds = %56
  invoke void @_ZN6IntArg11range_errorERK10ArgContextbx(%class.IntArg* nonnull %7, %class.ArgContext* nonnull dereferenceable(32) @blank_args, i1 zeroext false, i64 %63)
          to label %66 unwind label %92, !dbg !4191

65:                                               ; preds = %56
  store i64 %63, i64* %34, align 8, !dbg !4194, !tbaa !2890
  br label %66, !dbg !4196

66:                                               ; preds = %65, %56, %55, %64
  %67 = phi i1 [ true, %65 ], [ false, %56 ], [ false, %55 ], [ false, %64 ], !dbg !4197
  call void @llvm.dbg.value(metadata %class.String* %8, metadata !2944, metadata !DIExpression()) #13, !dbg !4198
  call void @llvm.dbg.value(metadata %class.String* %8, metadata !2950, metadata !DIExpression()) #13, !dbg !4200
  %68 = getelementptr inbounds %class.String, %class.String* %8, i64 0, i32 0, i32 2, !dbg !4202
  %69 = load %"struct.String::memo_t"*, %"struct.String::memo_t"** %68, align 8, !dbg !4202, !tbaa !2958
  %70 = icmp eq %"struct.String::memo_t"* %69, null, !dbg !4203
  br i1 %70, label %85, label %71, !dbg !4204

71:                                               ; preds = %66
  %72 = getelementptr inbounds %"struct.String::memo_t", %"struct.String::memo_t"* %69, i64 0, i32 0, !dbg !4205
  %73 = load volatile i32, i32* %72, align 4, !dbg !4205, !tbaa !2965
  %74 = icmp eq i32 %73, 0, !dbg !4205
  br i1 %74, label %75, label %76, !dbg !4205

75:                                               ; preds = %71
  call void @__assert_fail(i8* getelementptr inbounds ([18 x i8], [18 x i8]* @.str.19, i64 0, i64 0), i8* getelementptr inbounds ([29 x i8], [29 x i8]* @.str.20, i64 0, i64 0), i32 273, i8* getelementptr inbounds ([27 x i8], [27 x i8]* @__PRETTY_FUNCTION__._ZNK6String5derefEv, i64 0, i64 0)) #14, !dbg !4205
  unreachable, !dbg !4205

76:                                               ; preds = %71
  call void @llvm.dbg.value(metadata i32* %72, metadata !2967, metadata !DIExpression()) #13, !dbg !4206
  %77 = load volatile i32, i32* %72, align 4, !dbg !4208, !tbaa !2974
  %78 = add i32 %77, -1, !dbg !4208
  store volatile i32 %78, i32* %72, align 4, !dbg !4208, !tbaa !2974
  %79 = icmp eq i32 %78, 0, !dbg !4209
  br i1 %79, label %80, label %81, !dbg !4210

80:                                               ; preds = %76
  invoke void @_ZN6String11delete_memoEPNS_6memo_tE(%"struct.String::memo_t"* nonnull %69)
          to label %81 unwind label %82, !dbg !4211

81:                                               ; preds = %80, %76
  store %"struct.String::memo_t"* null, %"struct.String::memo_t"** %68, align 8, !dbg !4212, !tbaa !2958
  br label %85, !dbg !4213

82:                                               ; preds = %80
  %83 = landingpad { i8*, i32 }
          catch i8* null, !dbg !4214
  %84 = extractvalue { i8*, i32 } %83, 0, !dbg !4214
  call void @__clang_call_terminate(i8* %84) #14, !dbg !4214
  unreachable, !dbg !4214

85:                                               ; preds = %66, %81
  call void @llvm.lifetime.end.p0i8(i64 24, i8* nonnull %31) #13, !dbg !4215
  call void @llvm.lifetime.end.p0i8(i64 8, i8* nonnull %29) #13, !dbg !4215
  br i1 %67, label %120, label %86, !dbg !4216

86:                                               ; preds = %85
  %87 = invoke i32 (%class.ErrorHandler*, i8*, ...) @_ZN12ErrorHandler5errorEPKcz(%class.ErrorHandler* %3, i8* getelementptr inbounds ([51 x i8], [51 x i8]* @.str.7, i64 0, i64 0))
          to label %239 unwind label %116, !dbg !4217

88:                                               ; preds = %28
  %89 = landingpad { i8*, i32 }
          cleanup, !dbg !4218
  %90 = extractvalue { i8*, i32 } %89, 0, !dbg !4218
  %91 = extractvalue { i8*, i32 } %89, 1, !dbg !4218
  br label %113, !dbg !4218

92:                                               ; preds = %64, %54, %32
  %93 = landingpad { i8*, i32 }
          cleanup, !dbg !4218
  %94 = extractvalue { i8*, i32 } %93, 0, !dbg !4218
  %95 = extractvalue { i8*, i32 } %93, 1, !dbg !4218
  call void @llvm.dbg.value(metadata %class.String* %8, metadata !2944, metadata !DIExpression()) #13, !dbg !4219
  call void @llvm.dbg.value(metadata %class.String* %8, metadata !2950, metadata !DIExpression()) #13, !dbg !4221
  %96 = getelementptr inbounds %class.String, %class.String* %8, i64 0, i32 0, i32 2, !dbg !4223
  %97 = load %"struct.String::memo_t"*, %"struct.String::memo_t"** %96, align 8, !dbg !4223, !tbaa !2958
  %98 = icmp eq %"struct.String::memo_t"* %97, null, !dbg !4224
  br i1 %98, label %113, label %99, !dbg !4225

99:                                               ; preds = %92
  %100 = getelementptr inbounds %"struct.String::memo_t", %"struct.String::memo_t"* %97, i64 0, i32 0, !dbg !4226
  %101 = load volatile i32, i32* %100, align 4, !dbg !4226, !tbaa !2965
  %102 = icmp eq i32 %101, 0, !dbg !4226
  br i1 %102, label %103, label %104, !dbg !4226

103:                                              ; preds = %99
  call void @__assert_fail(i8* getelementptr inbounds ([18 x i8], [18 x i8]* @.str.19, i64 0, i64 0), i8* getelementptr inbounds ([29 x i8], [29 x i8]* @.str.20, i64 0, i64 0), i32 273, i8* getelementptr inbounds ([27 x i8], [27 x i8]* @__PRETTY_FUNCTION__._ZNK6String5derefEv, i64 0, i64 0)) #14, !dbg !4226
  unreachable, !dbg !4226

104:                                              ; preds = %99
  call void @llvm.dbg.value(metadata i32* %100, metadata !2967, metadata !DIExpression()) #13, !dbg !4227
  %105 = load volatile i32, i32* %100, align 4, !dbg !4229, !tbaa !2974
  %106 = add i32 %105, -1, !dbg !4229
  store volatile i32 %106, i32* %100, align 4, !dbg !4229, !tbaa !2974
  %107 = icmp eq i32 %106, 0, !dbg !4230
  br i1 %107, label %108, label %109, !dbg !4231

108:                                              ; preds = %104
  invoke void @_ZN6String11delete_memoEPNS_6memo_tE(%"struct.String::memo_t"* nonnull %97)
          to label %109 unwind label %110, !dbg !4232

109:                                              ; preds = %108, %104
  store %"struct.String::memo_t"* null, %"struct.String::memo_t"** %96, align 8, !dbg !4233, !tbaa !2958
  br label %113, !dbg !4234

110:                                              ; preds = %108
  %111 = landingpad { i8*, i32 }
          catch i8* null, !dbg !4235
  %112 = extractvalue { i8*, i32 } %111, 0, !dbg !4235
  call void @__clang_call_terminate(i8* %112) #14, !dbg !4235
  unreachable, !dbg !4235

113:                                              ; preds = %109, %92, %88
  %114 = phi i8* [ %90, %88 ], [ %94, %92 ], [ %94, %109 ], !dbg !4218
  %115 = phi i32 [ %91, %88 ], [ %95, %92 ], [ %95, %109 ], !dbg !4218
  call void @llvm.lifetime.end.p0i8(i64 24, i8* nonnull %31) #13, !dbg !4215
  call void @llvm.lifetime.end.p0i8(i64 8, i8* nonnull %29) #13, !dbg !4215
  br label %258, !dbg !4215

116:                                              ; preds = %219, %120, %237, %189, %86
  %117 = landingpad { i8*, i32 }
          cleanup, !dbg !4218
  %118 = extractvalue { i8*, i32 } %117, 0, !dbg !4218
  %119 = extractvalue { i8*, i32 } %117, 1, !dbg !4218
  br label %258, !dbg !4218

120:                                              ; preds = %85
  %121 = getelementptr inbounds %class.Element, %class.Element* %1, i64 1, i32 2, i64 3, !dbg !4236
  %122 = bitcast %"class.Element::Port"* %121 to %class.HandlerCall**, !dbg !4236
  call void @llvm.dbg.value(metadata %class.HandlerCall** %122, metadata !4238, metadata !DIExpression()), !dbg !4244
  call void @llvm.dbg.value(metadata %class.String* %6, metadata !4241, metadata !DIExpression()), !dbg !4244
  call void @llvm.dbg.value(metadata %class.Element* %1, metadata !4242, metadata !DIExpression()), !dbg !4244
  call void @llvm.dbg.value(metadata %class.ErrorHandler* %3, metadata !4243, metadata !DIExpression()), !dbg !4244
  %123 = invoke i32 @_ZN11HandlerCall5resetERPS_RK6StringiPK7ElementP12ErrorHandler(%class.HandlerCall** nonnull dereferenceable(8) %122, %class.String* nonnull dereferenceable(24) %6, i32 2, %class.Element* %1, %class.ErrorHandler* %3)
          to label %124 unwind label %116, !dbg !4246

124:                                              ; preds = %120
  %125 = icmp slt i32 %123, 0, !dbg !4247
  br i1 %125, label %239, label %126, !dbg !4248

126:                                              ; preds = %124
  %127 = getelementptr inbounds %class.Element, %class.Element* %1, i64 1, i32 4, !dbg !4249
  %128 = bitcast %class.Router** %127 to i8*, !dbg !4249
  %129 = load i8, i8* %128, align 8, !dbg !4250
  %130 = and i8 %129, -2, !dbg !4250
  store i8 %130, i8* %128, align 8, !dbg !4250
  br label %239, !dbg !4251

131:                                              ; preds = %26
  %132 = bitcast %class.IntArg* %9 to i8*, !dbg !4252
  call void @llvm.lifetime.start.p0i8(i64 8, i8* nonnull %132) #13, !dbg !4252
  call void @llvm.dbg.value(metadata %class.IntArg* %9, metadata !3159, metadata !DIExpression()), !dbg !4253
  call void @llvm.dbg.value(metadata i32 0, metadata !3162, metadata !DIExpression()), !dbg !4253
  %133 = getelementptr inbounds %class.IntArg, %class.IntArg* %9, i64 0, i32 0, !dbg !4255
  store i32 0, i32* %133, align 4, !dbg !4255, !tbaa !3166
  %134 = bitcast %class.String* %10 to i8*, !dbg !4256
  call void @llvm.lifetime.start.p0i8(i64 24, i8* nonnull %134) #13, !dbg !4256
  invoke void @_Z17cp_shift_spacevecR6String(%class.String* nonnull sret %10, %class.String* nonnull dereferenceable(24) %6)
          to label %135 unwind label %191, !dbg !4256

135:                                              ; preds = %131
  %136 = getelementptr inbounds %class.Element, %class.Element* %1, i64 1, i32 2, i64 3, i32 1, !dbg !4257
  %137 = bitcast i32* %136 to i64*, !dbg !4257
  call void @llvm.dbg.value(metadata %class.IntArg* %9, metadata !4110, metadata !DIExpression()), !dbg !4258
  call void @llvm.dbg.value(metadata %class.String* %10, metadata !4111, metadata !DIExpression()), !dbg !4258
  call void @llvm.dbg.value(metadata i64* %137, metadata !4112, metadata !DIExpression()), !dbg !4258
  call void @llvm.dbg.value(metadata %class.ArgContext* @blank_args, metadata !4113, metadata !DIExpression()), !dbg !4258
  call void @llvm.dbg.value(metadata %class.IntArg* %9, metadata !3058, metadata !DIExpression()), !dbg !4259
  call void @llvm.dbg.value(metadata %class.String* %10, metadata !3060, metadata !DIExpression()), !dbg !4259
  call void @llvm.dbg.value(metadata %class.ArgContext* @blank_args, metadata !3062, metadata !DIExpression()), !dbg !4259
  call void @llvm.dbg.value(metadata i8 0, metadata !3063, metadata !DIExpression()), !dbg !4259
  call void @llvm.dbg.value(metadata i32 2, metadata !3064, metadata !DIExpression()), !dbg !4259
  %138 = bitcast [2 x i32]* %5 to i8*, !dbg !4260
  call void @llvm.lifetime.start.p0i8(i64 8, i8* nonnull %138) #13, !dbg !4260
  call void @llvm.dbg.value(metadata %class.String* %10, metadata !3172, metadata !DIExpression()), !dbg !4261
  %139 = getelementptr inbounds %class.String, %class.String* %10, i64 0, i32 0, i32 0, !dbg !4263
  %140 = load i8*, i8** %139, align 8, !dbg !4263, !tbaa !3093
  call void @llvm.dbg.value(metadata %class.String* %10, metadata !3179, metadata !DIExpression()), !dbg !4264
  %141 = getelementptr inbounds %class.String, %class.String* %10, i64 0, i32 0, i32 1, !dbg !4266
  %142 = load i32, i32* %141, align 8, !dbg !4266, !tbaa !3096
  %143 = sext i32 %142 to i64, !dbg !4267
  %144 = getelementptr inbounds i8, i8* %140, i64 %143, !dbg !4267
  %145 = getelementptr inbounds [2 x i32], [2 x i32]* %5, i64 0, i64 0, !dbg !4268
  %146 = invoke i8* @_ZN6IntArg5parseEPKcS1_biPji(%class.IntArg* nonnull %9, i8* %140, i8* %144, i1 zeroext false, i32 8, i32* nonnull %145, i32 2)
          to label %147 unwind label %195, !dbg !4269

147:                                              ; preds = %135
  call void @llvm.dbg.value(metadata %class.String* %10, metadata !3179, metadata !DIExpression()), !dbg !4270
  %148 = load i8*, i8** %139, align 8, !dbg !4272, !tbaa !3093
  %149 = load i32, i32* %141, align 8, !dbg !4273, !tbaa !3096
  %150 = sext i32 %149 to i64, !dbg !4274
  %151 = getelementptr inbounds i8, i8* %148, i64 %150, !dbg !4274
  %152 = icmp eq i8* %146, %151, !dbg !4275
  %153 = getelementptr inbounds %class.IntArg, %class.IntArg* %9, i64 0, i32 1, !dbg !4259
  br i1 %152, label %155, label %154, !dbg !4276

154:                                              ; preds = %147
  store i32 22, i32* %153, align 4, !dbg !4277, !tbaa !3196
  br label %157, !dbg !4278

155:                                              ; preds = %147
  %156 = load i32, i32* %153, align 4, !dbg !4279, !tbaa !3196
  switch i32 %156, label %157 [
    i32 0, label %159
    i32 34, label %159
  ], !dbg !4278

157:                                              ; preds = %155, %154
  invoke void (%class.ArgContext*, i8*, ...) @_ZNK10ArgContext5errorEPKcz(%class.ArgContext* nonnull @blank_args, i8* getelementptr inbounds ([15 x i8], [15 x i8]* @.str.23, i64 0, i64 0))
          to label %158 unwind label %195, !dbg !4280

158:                                              ; preds = %157
  call void @llvm.lifetime.end.p0i8(i64 8, i8* nonnull %138) #13, !dbg !4281
  br label %169, !dbg !4282

159:                                              ; preds = %155, %155
  call void @llvm.dbg.value(metadata i32* %145, metadata !3202, metadata !DIExpression()), !dbg !4283
  call void @llvm.dbg.value(metadata i32* %145, metadata !3214, metadata !DIExpression()), !dbg !4285
  %160 = getelementptr inbounds [2 x i32], [2 x i32]* %5, i64 0, i64 1, !dbg !4287
  call void @llvm.dbg.value(metadata i32* %160, metadata !3226, metadata !DIExpression()), !dbg !4288
  %161 = load i32, i32* %160, align 4, !dbg !4290, !tbaa !2974
  %162 = zext i32 %161 to i64, !dbg !4290
  %163 = shl nuw i64 %162, 32, !dbg !4291
  %164 = load i32, i32* %145, align 4, !dbg !4292, !tbaa !2974
  %165 = zext i32 %164 to i64, !dbg !4292
  %166 = or i64 %163, %165, !dbg !4293
  call void @llvm.lifetime.end.p0i8(i64 8, i8* nonnull %138) #13, !dbg !4281
  switch i32 %156, label %169 [
    i32 34, label %167
    i32 0, label %168
  ], !dbg !4294

167:                                              ; preds = %159
  invoke void @_ZN6IntArg11range_errorERK10ArgContextbx(%class.IntArg* nonnull %9, %class.ArgContext* nonnull dereferenceable(32) @blank_args, i1 zeroext false, i64 %166)
          to label %169 unwind label %195, !dbg !4295

168:                                              ; preds = %159
  store i64 %166, i64* %137, align 8, !dbg !4296, !tbaa !2890
  br label %169, !dbg !4297

169:                                              ; preds = %168, %159, %158, %167
  %170 = phi i1 [ true, %168 ], [ false, %159 ], [ false, %158 ], [ false, %167 ], !dbg !4298
  call void @llvm.dbg.value(metadata %class.String* %10, metadata !2944, metadata !DIExpression()) #13, !dbg !4299
  call void @llvm.dbg.value(metadata %class.String* %10, metadata !2950, metadata !DIExpression()) #13, !dbg !4301
  %171 = getelementptr inbounds %class.String, %class.String* %10, i64 0, i32 0, i32 2, !dbg !4303
  %172 = load %"struct.String::memo_t"*, %"struct.String::memo_t"** %171, align 8, !dbg !4303, !tbaa !2958
  %173 = icmp eq %"struct.String::memo_t"* %172, null, !dbg !4304
  br i1 %173, label %188, label %174, !dbg !4305

174:                                              ; preds = %169
  %175 = getelementptr inbounds %"struct.String::memo_t", %"struct.String::memo_t"* %172, i64 0, i32 0, !dbg !4306
  %176 = load volatile i32, i32* %175, align 4, !dbg !4306, !tbaa !2965
  %177 = icmp eq i32 %176, 0, !dbg !4306
  br i1 %177, label %178, label %179, !dbg !4306

178:                                              ; preds = %174
  call void @__assert_fail(i8* getelementptr inbounds ([18 x i8], [18 x i8]* @.str.19, i64 0, i64 0), i8* getelementptr inbounds ([29 x i8], [29 x i8]* @.str.20, i64 0, i64 0), i32 273, i8* getelementptr inbounds ([27 x i8], [27 x i8]* @__PRETTY_FUNCTION__._ZNK6String5derefEv, i64 0, i64 0)) #14, !dbg !4306
  unreachable, !dbg !4306

179:                                              ; preds = %174
  call void @llvm.dbg.value(metadata i32* %175, metadata !2967, metadata !DIExpression()) #13, !dbg !4307
  %180 = load volatile i32, i32* %175, align 4, !dbg !4309, !tbaa !2974
  %181 = add i32 %180, -1, !dbg !4309
  store volatile i32 %181, i32* %175, align 4, !dbg !4309, !tbaa !2974
  %182 = icmp eq i32 %181, 0, !dbg !4310
  br i1 %182, label %183, label %184, !dbg !4311

183:                                              ; preds = %179
  invoke void @_ZN6String11delete_memoEPNS_6memo_tE(%"struct.String::memo_t"* nonnull %172)
          to label %184 unwind label %185, !dbg !4312

184:                                              ; preds = %183, %179
  store %"struct.String::memo_t"* null, %"struct.String::memo_t"** %171, align 8, !dbg !4313, !tbaa !2958
  br label %188, !dbg !4314

185:                                              ; preds = %183
  %186 = landingpad { i8*, i32 }
          catch i8* null, !dbg !4315
  %187 = extractvalue { i8*, i32 } %186, 0, !dbg !4315
  call void @__clang_call_terminate(i8* %187) #14, !dbg !4315
  unreachable, !dbg !4315

188:                                              ; preds = %169, %184
  call void @llvm.lifetime.end.p0i8(i64 24, i8* nonnull %134) #13, !dbg !4316
  call void @llvm.lifetime.end.p0i8(i64 8, i8* nonnull %132) #13, !dbg !4316
  br i1 %170, label %219, label %189, !dbg !4317

189:                                              ; preds = %188
  %190 = invoke i32 (%class.ErrorHandler*, i8*, ...) @_ZN12ErrorHandler5errorEPKcz(%class.ErrorHandler* %3, i8* getelementptr inbounds ([56 x i8], [56 x i8]* @.str.8, i64 0, i64 0))
          to label %239 unwind label %116, !dbg !4318

191:                                              ; preds = %131
  %192 = landingpad { i8*, i32 }
          cleanup, !dbg !4319
  %193 = extractvalue { i8*, i32 } %192, 0, !dbg !4319
  %194 = extractvalue { i8*, i32 } %192, 1, !dbg !4319
  br label %216, !dbg !4319

195:                                              ; preds = %167, %157, %135
  %196 = landingpad { i8*, i32 }
          cleanup, !dbg !4319
  %197 = extractvalue { i8*, i32 } %196, 0, !dbg !4319
  %198 = extractvalue { i8*, i32 } %196, 1, !dbg !4319
  call void @llvm.dbg.value(metadata %class.String* %10, metadata !2944, metadata !DIExpression()) #13, !dbg !4320
  call void @llvm.dbg.value(metadata %class.String* %10, metadata !2950, metadata !DIExpression()) #13, !dbg !4322
  %199 = getelementptr inbounds %class.String, %class.String* %10, i64 0, i32 0, i32 2, !dbg !4324
  %200 = load %"struct.String::memo_t"*, %"struct.String::memo_t"** %199, align 8, !dbg !4324, !tbaa !2958
  %201 = icmp eq %"struct.String::memo_t"* %200, null, !dbg !4325
  br i1 %201, label %216, label %202, !dbg !4326

202:                                              ; preds = %195
  %203 = getelementptr inbounds %"struct.String::memo_t", %"struct.String::memo_t"* %200, i64 0, i32 0, !dbg !4327
  %204 = load volatile i32, i32* %203, align 4, !dbg !4327, !tbaa !2965
  %205 = icmp eq i32 %204, 0, !dbg !4327
  br i1 %205, label %206, label %207, !dbg !4327

206:                                              ; preds = %202
  call void @__assert_fail(i8* getelementptr inbounds ([18 x i8], [18 x i8]* @.str.19, i64 0, i64 0), i8* getelementptr inbounds ([29 x i8], [29 x i8]* @.str.20, i64 0, i64 0), i32 273, i8* getelementptr inbounds ([27 x i8], [27 x i8]* @__PRETTY_FUNCTION__._ZNK6String5derefEv, i64 0, i64 0)) #14, !dbg !4327
  unreachable, !dbg !4327

207:                                              ; preds = %202
  call void @llvm.dbg.value(metadata i32* %203, metadata !2967, metadata !DIExpression()) #13, !dbg !4328
  %208 = load volatile i32, i32* %203, align 4, !dbg !4330, !tbaa !2974
  %209 = add i32 %208, -1, !dbg !4330
  store volatile i32 %209, i32* %203, align 4, !dbg !4330, !tbaa !2974
  %210 = icmp eq i32 %209, 0, !dbg !4331
  br i1 %210, label %211, label %212, !dbg !4332

211:                                              ; preds = %207
  invoke void @_ZN6String11delete_memoEPNS_6memo_tE(%"struct.String::memo_t"* nonnull %200)
          to label %212 unwind label %213, !dbg !4333

212:                                              ; preds = %211, %207
  store %"struct.String::memo_t"* null, %"struct.String::memo_t"** %199, align 8, !dbg !4334, !tbaa !2958
  br label %216, !dbg !4335

213:                                              ; preds = %211
  %214 = landingpad { i8*, i32 }
          catch i8* null, !dbg !4336
  %215 = extractvalue { i8*, i32 } %214, 0, !dbg !4336
  call void @__clang_call_terminate(i8* %215) #14, !dbg !4336
  unreachable, !dbg !4336

216:                                              ; preds = %212, %195, %191
  %217 = phi i8* [ %193, %191 ], [ %197, %195 ], [ %197, %212 ], !dbg !4319
  %218 = phi i32 [ %194, %191 ], [ %198, %195 ], [ %198, %212 ], !dbg !4319
  call void @llvm.lifetime.end.p0i8(i64 24, i8* nonnull %134) #13, !dbg !4316
  call void @llvm.lifetime.end.p0i8(i64 8, i8* nonnull %132) #13, !dbg !4316
  br label %258, !dbg !4316

219:                                              ; preds = %188
  %220 = getelementptr inbounds %class.Element, %class.Element* %1, i64 1, i32 3, !dbg !4337
  %221 = bitcast [2 x i32]* %220 to %class.HandlerCall**, !dbg !4337
  call void @llvm.dbg.value(metadata %class.HandlerCall** %221, metadata !4238, metadata !DIExpression()), !dbg !4339
  call void @llvm.dbg.value(metadata %class.String* %6, metadata !4241, metadata !DIExpression()), !dbg !4339
  call void @llvm.dbg.value(metadata %class.Element* %1, metadata !4242, metadata !DIExpression()), !dbg !4339
  call void @llvm.dbg.value(metadata %class.ErrorHandler* %3, metadata !4243, metadata !DIExpression()), !dbg !4339
  %222 = invoke i32 @_ZN11HandlerCall5resetERPS_RK6StringiPK7ElementP12ErrorHandler(%class.HandlerCall** nonnull dereferenceable(8) %221, %class.String* nonnull dereferenceable(24) %6, i32 2, %class.Element* %1, %class.ErrorHandler* %3)
          to label %223 unwind label %116, !dbg !4341

223:                                              ; preds = %219
  %224 = icmp slt i32 %222, 0, !dbg !4342
  br i1 %224, label %239, label %225, !dbg !4343

225:                                              ; preds = %223
  %226 = getelementptr inbounds %class.Element, %class.Element* %1, i64 1, i32 4, !dbg !4344
  %227 = bitcast %class.Router** %226 to i8*, !dbg !4344
  %228 = load i8, i8* %227, align 8, !dbg !4345
  %229 = and i8 %228, -3, !dbg !4345
  store i8 %229, i8* %227, align 8, !dbg !4345
  br label %239, !dbg !4346

230:                                              ; preds = %26
  call void @llvm.dbg.value(metadata %class.Element* %1, metadata !4102, metadata !DIExpression()), !dbg !4122
  call void @llvm.dbg.value(metadata %class.Element* %1, metadata !3008, metadata !DIExpression()) #13, !dbg !4347
  %231 = getelementptr inbounds %class.Element, %class.Element* %1, i64 1, !dbg !4349
  %232 = getelementptr inbounds %class.Element, %class.Element* %1, i64 1, i32 4, !dbg !4350
  %233 = bitcast %class.Router** %232 to i8*, !dbg !4350
  %234 = bitcast %class.Element* %231 to i8*, !dbg !4351
  tail call void @llvm.memset.p0i8.i64(i8* nonnull align 8 dereferenceable(16) %234, i8 0, i64 16, i1 false) #13, !dbg !4352
  %235 = load i8, i8* %233, align 8, !dbg !4351
  %236 = and i8 %235, -4, !dbg !4353
  store i8 %236, i8* %233, align 8, !dbg !4353
  br label %239, !dbg !4354

237:                                              ; preds = %26
  %238 = invoke i32 (%class.ErrorHandler*, i8*, ...) @_ZN12ErrorHandler5errorEPKcz(%class.ErrorHandler* %3, i8* getelementptr inbounds ([11 x i8], [11 x i8]* @.str.9, i64 0, i64 0))
          to label %239 unwind label %116, !dbg !4355

239:                                              ; preds = %237, %223, %189, %124, %86, %230, %225, %126
  %240 = phi i32 [ 0, %230 ], [ 0, %225 ], [ 0, %126 ], [ %87, %86 ], [ -1, %124 ], [ %190, %189 ], [ -1, %223 ], [ %238, %237 ], !dbg !4356
  call void @llvm.dbg.value(metadata %class.String* %6, metadata !2944, metadata !DIExpression()) #13, !dbg !4357
  call void @llvm.dbg.value(metadata %class.String* %6, metadata !2950, metadata !DIExpression()) #13, !dbg !4359
  %241 = load %"struct.String::memo_t"*, %"struct.String::memo_t"** %20, align 8, !dbg !4361, !tbaa !2958
  %242 = icmp eq %"struct.String::memo_t"* %241, null, !dbg !4362
  br i1 %242, label %257, label %243, !dbg !4363

243:                                              ; preds = %239
  %244 = getelementptr inbounds %"struct.String::memo_t", %"struct.String::memo_t"* %241, i64 0, i32 0, !dbg !4364
  %245 = load volatile i32, i32* %244, align 4, !dbg !4364, !tbaa !2965
  %246 = icmp eq i32 %245, 0, !dbg !4364
  br i1 %246, label %247, label %248, !dbg !4364

247:                                              ; preds = %243
  call void @__assert_fail(i8* getelementptr inbounds ([18 x i8], [18 x i8]* @.str.19, i64 0, i64 0), i8* getelementptr inbounds ([29 x i8], [29 x i8]* @.str.20, i64 0, i64 0), i32 273, i8* getelementptr inbounds ([27 x i8], [27 x i8]* @__PRETTY_FUNCTION__._ZNK6String5derefEv, i64 0, i64 0)) #14, !dbg !4364
  unreachable, !dbg !4364

248:                                              ; preds = %243
  call void @llvm.dbg.value(metadata i32* %244, metadata !2967, metadata !DIExpression()) #13, !dbg !4365
  %249 = load volatile i32, i32* %244, align 4, !dbg !4367, !tbaa !2974
  %250 = add i32 %249, -1, !dbg !4367
  store volatile i32 %250, i32* %244, align 4, !dbg !4367, !tbaa !2974
  %251 = icmp eq i32 %250, 0, !dbg !4368
  br i1 %251, label %252, label %253, !dbg !4369

252:                                              ; preds = %248
  invoke void @_ZN6String11delete_memoEPNS_6memo_tE(%"struct.String::memo_t"* nonnull %241)
          to label %253 unwind label %254, !dbg !4370

253:                                              ; preds = %252, %248
  store %"struct.String::memo_t"* null, %"struct.String::memo_t"** %20, align 8, !dbg !4371, !tbaa !2958
  br label %257, !dbg !4372

254:                                              ; preds = %252
  %255 = landingpad { i8*, i32 }
          catch i8* null, !dbg !4373
  %256 = extractvalue { i8*, i32 } %255, 0, !dbg !4373
  call void @__clang_call_terminate(i8* %256) #14, !dbg !4373
  unreachable, !dbg !4373

257:                                              ; preds = %239, %253
  call void @llvm.lifetime.end.p0i8(i64 24, i8* nonnull %11) #13, !dbg !4374
  ret i32 %240, !dbg !4374

258:                                              ; preds = %216, %116, %113
  %259 = phi i8* [ %118, %116 ], [ %217, %216 ], [ %114, %113 ], !dbg !4356
  %260 = phi i32 [ %119, %116 ], [ %218, %216 ], [ %115, %113 ], !dbg !4356
  call void @llvm.dbg.value(metadata %class.String* %6, metadata !2944, metadata !DIExpression()) #13, !dbg !4375
  call void @llvm.dbg.value(metadata %class.String* %6, metadata !2950, metadata !DIExpression()) #13, !dbg !4377
  %261 = load %"struct.String::memo_t"*, %"struct.String::memo_t"** %20, align 8, !dbg !4379, !tbaa !2958
  %262 = icmp eq %"struct.String::memo_t"* %261, null, !dbg !4380
  br i1 %262, label %277, label %263, !dbg !4381

263:                                              ; preds = %258
  %264 = getelementptr inbounds %"struct.String::memo_t", %"struct.String::memo_t"* %261, i64 0, i32 0, !dbg !4382
  %265 = load volatile i32, i32* %264, align 4, !dbg !4382, !tbaa !2965
  %266 = icmp eq i32 %265, 0, !dbg !4382
  br i1 %266, label %267, label %268, !dbg !4382

267:                                              ; preds = %263
  call void @__assert_fail(i8* getelementptr inbounds ([18 x i8], [18 x i8]* @.str.19, i64 0, i64 0), i8* getelementptr inbounds ([29 x i8], [29 x i8]* @.str.20, i64 0, i64 0), i32 273, i8* getelementptr inbounds ([27 x i8], [27 x i8]* @__PRETTY_FUNCTION__._ZNK6String5derefEv, i64 0, i64 0)) #14, !dbg !4382
  unreachable, !dbg !4382

268:                                              ; preds = %263
  call void @llvm.dbg.value(metadata i32* %264, metadata !2967, metadata !DIExpression()) #13, !dbg !4383
  %269 = load volatile i32, i32* %264, align 4, !dbg !4385, !tbaa !2974
  %270 = add i32 %269, -1, !dbg !4385
  store volatile i32 %270, i32* %264, align 4, !dbg !4385, !tbaa !2974
  %271 = icmp eq i32 %270, 0, !dbg !4386
  br i1 %271, label %272, label %273, !dbg !4387

272:                                              ; preds = %268
  invoke void @_ZN6String11delete_memoEPNS_6memo_tE(%"struct.String::memo_t"* nonnull %261)
          to label %273 unwind label %274, !dbg !4388

273:                                              ; preds = %272, %268
  store %"struct.String::memo_t"* null, %"struct.String::memo_t"** %20, align 8, !dbg !4389, !tbaa !2958
  br label %277, !dbg !4390

274:                                              ; preds = %272
  %275 = landingpad { i8*, i32 }
          catch i8* null, !dbg !4391
  %276 = extractvalue { i8*, i32 } %275, 0, !dbg !4391
  call void @__clang_call_terminate(i8* %276) #14, !dbg !4391
  unreachable, !dbg !4391

277:                                              ; preds = %258, %273
  call void @llvm.lifetime.end.p0i8(i64 24, i8* nonnull %11) #13, !dbg !4374
  %278 = insertvalue { i8*, i32 } undef, i8* %259, 0, !dbg !4374
  %279 = insertvalue { i8*, i32 } %278, i32 %260, 1, !dbg !4374
  resume { i8*, i32 } %279, !dbg !4374
}

; Function Attrs: sspstrong uwtable
define dso_local void @_ZN7Counter12add_handlersEv(%class.Counter* %0) unnamed_addr #0 align 2 !dbg !4392 {
  call void @llvm.dbg.value(metadata %class.Counter* %0, metadata !4394, metadata !DIExpression()), !dbg !4395
  %2 = bitcast %class.Counter* %0 to %class.Element*, !dbg !4396
  tail call void @_ZN7Element16add_read_handlerEPKcPF6StringPS_PvEij(%class.Element* %2, i8* getelementptr inbounds ([6 x i8], [6 x i8]* @.str.10, i64 0, i64 0), void (%class.String*, %class.Element*, i8*)* nonnull @_ZN7Counter12read_handlerEP7ElementPv, i32 0, i32 0), !dbg !4396
  tail call void @_ZN7Element16add_read_handlerEPKcPF6StringPS_PvEij(%class.Element* %2, i8* getelementptr inbounds ([11 x i8], [11 x i8]* @.str.11, i64 0, i64 0), void (%class.String*, %class.Element*, i8*)* nonnull @_ZN7Counter12read_handlerEP7ElementPv, i32 1, i32 0), !dbg !4397
  tail call void @_ZN7Element16add_read_handlerEPKcPF6StringPS_PvEij(%class.Element* %2, i8* getelementptr inbounds ([5 x i8], [5 x i8]* @.str.12, i64 0, i64 0), void (%class.String*, %class.Element*, i8*)* nonnull @_ZN7Counter12read_handlerEP7ElementPv, i32 2, i32 0), !dbg !4398
  tail call void @_ZN7Element16add_read_handlerEPKcPF6StringPS_PvEij(%class.Element* %2, i8* getelementptr inbounds ([9 x i8], [9 x i8]* @.str.13, i64 0, i64 0), void (%class.String*, %class.Element*, i8*)* nonnull @_ZN7Counter12read_handlerEP7ElementPv, i32 3, i32 0), !dbg !4399
  tail call void @_ZN7Element16add_read_handlerEPKcPF6StringPS_PvEij(%class.Element* %2, i8* getelementptr inbounds ([10 x i8], [10 x i8]* @.str.14, i64 0, i64 0), void (%class.String*, %class.Element*, i8*)* nonnull @_ZN7Counter12read_handlerEP7ElementPv, i32 4, i32 0), !dbg !4400
  tail call void @_ZN7Element17add_write_handlerEPKcPFiRK6StringPS_PvP12ErrorHandlerEij(%class.Element* %2, i8* getelementptr inbounds ([6 x i8], [6 x i8]* @.str.15, i64 0, i64 0), i32 (%class.String*, %class.Element*, i8*, %class.ErrorHandler*)* nonnull @_ZN7Counter13write_handlerERK6StringP7ElementPvP12ErrorHandler, i32 5, i32 8192), !dbg !4401
  tail call void @_ZN7Element17add_write_handlerEPKcPFiRK6StringPS_PvP12ErrorHandlerEij(%class.Element* %2, i8* getelementptr inbounds ([13 x i8], [13 x i8]* @.str.16, i64 0, i64 0), i32 (%class.String*, %class.Element*, i8*, %class.ErrorHandler*)* nonnull @_ZN7Counter13write_handlerERK6StringP7ElementPvP12ErrorHandler, i32 5, i32 9216), !dbg !4402
  tail call void @_ZN7Element16add_read_handlerEPKcPF6StringPS_PvEij(%class.Element* %2, i8* getelementptr inbounds ([11 x i8], [11 x i8]* @.str.17, i64 0, i64 0), void (%class.String*, %class.Element*, i8*)* nonnull @_ZN7Counter12read_handlerEP7ElementPv, i32 6, i32 0), !dbg !4403
  tail call void @_ZN7Element17add_write_handlerEPKcPFiRK6StringPS_PvP12ErrorHandlerEij(%class.Element* %2, i8* getelementptr inbounds ([11 x i8], [11 x i8]* @.str.17, i64 0, i64 0), i32 (%class.String*, %class.Element*, i8*, %class.ErrorHandler*)* nonnull @_ZN7Counter13write_handlerERK6StringP7ElementPvP12ErrorHandler, i32 6, i32 0), !dbg !4404
  tail call void @_ZN7Element17add_write_handlerEPKcPFiRK6StringPS_PvP12ErrorHandlerEij(%class.Element* %2, i8* getelementptr inbounds ([16 x i8], [16 x i8]* @.str.18, i64 0, i64 0), i32 (%class.String*, %class.Element*, i8*, %class.ErrorHandler*)* nonnull @_ZN7Counter13write_handlerERK6StringP7ElementPvP12ErrorHandler, i32 7, i32 0), !dbg !4405
  ret void, !dbg !4406
}

declare void @_ZN7Element16add_read_handlerEPKcPF6StringPS_PvEij(%class.Element*, i8*, void (%class.String*, %class.Element*, i8*)*, i32, i32) local_unnamed_addr #2

declare void @_ZN7Element17add_write_handlerEPKcPFiRK6StringPS_PvP12ErrorHandlerEij(%class.Element*, i8*, i32 (%class.String*, %class.Element*, i8*, %class.ErrorHandler*)*, i32, i32) local_unnamed_addr #2

; Function Attrs: sspstrong uwtable
define dso_local i32 @_ZN7Counter5llrpcEjPv(%class.Counter* %0, i32 %1, i8* %2) unnamed_addr #0 align 2 !dbg !4407 {
  %4 = alloca %struct.click_llrpc_counts_st, align 4
  call void @llvm.dbg.value(metadata %class.Counter* %0, metadata !4409, metadata !DIExpression()), !dbg !4424
  call void @llvm.dbg.value(metadata i32 %1, metadata !4410, metadata !DIExpression()), !dbg !4424
  call void @llvm.dbg.value(metadata i8* %2, metadata !4411, metadata !DIExpression()), !dbg !4424
  switch i32 %1, label %135 [
    i32 -1073430527, label %5
    i32 -1073430525, label %95
    i32 32772, label %106
  ], !dbg !4425

5:                                                ; preds = %3
  %6 = bitcast i8* %2 to i32*, !dbg !4426
  call void @llvm.dbg.value(metadata i32* %6, metadata !4412, metadata !DIExpression()), !dbg !4427
  %7 = load i32, i32* %6, align 4, !dbg !4428, !tbaa !2974
  %8 = icmp eq i32 %7, 0, !dbg !4430
  br i1 %8, label %9, label %138, !dbg !4431

9:                                                ; preds = %5
  call void @llvm.dbg.value(metadata %class.Counter* %0, metadata !3672, metadata !DIExpression(DW_OP_plus_uconst, 128, DW_OP_stack_value)), !dbg !4432
  call void @llvm.dbg.value(metadata i64 0, metadata !3675, metadata !DIExpression()), !dbg !4432
  call void @llvm.dbg.value(metadata i32 0, metadata !3676, metadata !DIExpression()), !dbg !4432
  %10 = tail call i32 @_Z13click_jiffiesv(), !dbg !4434
  call void @llvm.dbg.value(metadata %class.Counter* %0, metadata !3681, metadata !DIExpression(DW_OP_plus_uconst, 128, DW_OP_stack_value)), !dbg !4436
  call void @llvm.dbg.value(metadata i32 %10, metadata !3684, metadata !DIExpression()), !dbg !4436
  %11 = getelementptr inbounds %class.Counter, %class.Counter* %0, i64 0, i32 4, i32 0, !dbg !4438
  %12 = load i32, i32* %11, align 8, !dbg !4438, !tbaa !2883
  call void @llvm.dbg.value(metadata i32 %12, metadata !3685, metadata !DIExpression()), !dbg !4436
  %13 = icmp eq i32 %12, %10, !dbg !4439
  br i1 %13, label %14, label %17, !dbg !4440

14:                                               ; preds = %9
  %15 = getelementptr inbounds %class.Counter, %class.Counter* %0, i64 0, i32 4, i32 2, i64 0, i32 0, !dbg !4441
  %16 = load i64, i64* %15, align 8, !dbg !4449, !tbaa !2874
  br label %90, !dbg !4440

17:                                               ; preds = %9
  call void @llvm.dbg.value(metadata i32 0, metadata !3686, metadata !DIExpression()), !dbg !4450
  %18 = add i32 %12, 1, !dbg !4451
  %19 = icmp eq i32 %18, %10, !dbg !4451
  %20 = xor i32 %12, -1, !dbg !4451
  %21 = add i32 %10, %20, !dbg !4451
  %22 = icmp eq i32 %21, 0, !dbg !4452
  br i1 %19, label %23, label %33, !dbg !4454

23:                                               ; preds = %17
  call void @llvm.dbg.value(metadata i64 0, metadata !3686, metadata !DIExpression()), !dbg !4450
  %24 = getelementptr inbounds %class.Counter, %class.Counter* %0, i64 0, i32 4, i32 1, i64 0, !dbg !4455
  %25 = load i64, i64* %24, align 8, !dbg !4455, !tbaa !2890
  call void @llvm.dbg.value(metadata %class.DirectEWMAX* undef, metadata !3716, metadata !DIExpression()), !dbg !4456
  call void @llvm.dbg.value(metadata i64 %25, metadata !3719, metadata !DIExpression()), !dbg !4456
  %26 = shl i64 %25, 10, !dbg !4458
  %27 = or i64 %26, 8, !dbg !4459
  call void @llvm.dbg.value(metadata i64 %27, metadata !3720, metadata !DIExpression()), !dbg !4456
  call void @llvm.dbg.value(metadata i32 4, metadata !3721, metadata !DIExpression()), !dbg !4456
  %28 = getelementptr inbounds %class.Counter, %class.Counter* %0, i64 0, i32 4, i32 2, i64 0, i32 0, !dbg !4460
  %29 = load i64, i64* %28, align 8, !dbg !4460, !tbaa !2874
  %30 = sub i64 %27, %29, !dbg !4461
  %31 = ashr i64 %30, 4, !dbg !4462
  %32 = add i64 %31, %29, !dbg !4463
  store i64 %32, i64* %28, align 8, !dbg !4463, !tbaa !2874
  store i64 0, i64* %24, align 8, !dbg !4464, !tbaa !2890
  call void @llvm.dbg.value(metadata i64 1, metadata !3686, metadata !DIExpression()), !dbg !4450
  br label %67, !dbg !4465

33:                                               ; preds = %17
  %34 = icmp ugt i32 %21, 99, !dbg !4466
  call void @llvm.dbg.value(metadata i64 0, metadata !3686, metadata !DIExpression()), !dbg !4450
  call void @llvm.dbg.value(metadata i64 0, metadata !3686, metadata !DIExpression()), !dbg !4450
  %35 = getelementptr inbounds %class.Counter, %class.Counter* %0, i64 0, i32 4, i32 1, i64 0, !dbg !4455
  br i1 %34, label %65, label %36, !dbg !4454

36:                                               ; preds = %33
  %37 = load i64, i64* %35, align 8, !dbg !4455, !tbaa !2890
  call void @llvm.dbg.value(metadata %class.DirectEWMAX* undef, metadata !3716, metadata !DIExpression()), !dbg !4456
  call void @llvm.dbg.value(metadata i64 %37, metadata !3719, metadata !DIExpression()), !dbg !4456
  %38 = shl i64 %37, 10, !dbg !4458
  %39 = or i64 %38, 8, !dbg !4459
  call void @llvm.dbg.value(metadata i64 %39, metadata !3720, metadata !DIExpression()), !dbg !4456
  call void @llvm.dbg.value(metadata i32 4, metadata !3721, metadata !DIExpression()), !dbg !4456
  %40 = getelementptr inbounds %class.Counter, %class.Counter* %0, i64 0, i32 4, i32 2, i64 0, i32 0, !dbg !4460
  %41 = load i64, i64* %40, align 8, !dbg !4460, !tbaa !2874
  %42 = sub i64 %39, %41, !dbg !4461
  %43 = ashr i64 %42, 4, !dbg !4462
  %44 = add i64 %43, %41, !dbg !4463
  store i64 %44, i64* %40, align 8, !dbg !4463, !tbaa !2874
  call void @llvm.dbg.value(metadata %class.DirectEWMAX* undef, metadata !3708, metadata !DIExpression()), !dbg !4467
  call void @llvm.dbg.value(metadata i64 0, metadata !3709, metadata !DIExpression()), !dbg !4467
  call void @llvm.dbg.value(metadata i64 8, metadata !3711, metadata !DIExpression()), !dbg !4467
  call void @llvm.dbg.value(metadata i32 4, metadata !3712, metadata !DIExpression()), !dbg !4468
  call void @llvm.dbg.value(metadata i32 %21, metadata !3710, metadata !DIExpression()), !dbg !4467
  br i1 %22, label %88, label %45, !dbg !4469

45:                                               ; preds = %36
  %46 = add i32 %10, -2, !dbg !4469
  %47 = sub i32 %46, %12, !dbg !4469
  %48 = and i32 %21, 3, !dbg !4469
  %49 = icmp eq i32 %48, 0, !dbg !4469
  br i1 %49, label %60, label %50, !dbg !4469

50:                                               ; preds = %45, %50
  %51 = phi i64 [ %56, %50 ], [ %44, %45 ], !dbg !4467
  %52 = phi i32 [ %57, %50 ], [ %21, %45 ]
  %53 = phi i32 [ %58, %50 ], [ %48, %45 ]
  call void @llvm.dbg.value(metadata i32 %52, metadata !3710, metadata !DIExpression()), !dbg !4467
  %54 = sub i64 8, %51, !dbg !4470
  %55 = ashr i64 %54, 4, !dbg !4471
  %56 = add i64 %55, %51, !dbg !4472
  %57 = add i32 %52, -1, !dbg !4473
  call void @llvm.dbg.value(metadata i32 %57, metadata !3710, metadata !DIExpression()), !dbg !4467
  %58 = add i32 %53, -1, !dbg !4469
  %59 = icmp eq i32 %58, 0, !dbg !4469
  br i1 %59, label %60, label %50, !dbg !4469, !llvm.loop !4474

60:                                               ; preds = %50, %45
  %61 = phi i64 [ undef, %45 ], [ %56, %50 ]
  %62 = phi i64 [ %44, %45 ], [ %56, %50 ]
  %63 = phi i32 [ %21, %45 ], [ %57, %50 ]
  %64 = icmp ult i32 %47, 3, !dbg !4469
  br i1 %64, label %86, label %69, !dbg !4469

65:                                               ; preds = %33
  call void @llvm.dbg.value(metadata %class.DirectEWMAX* undef, metadata !3716, metadata !DIExpression()), !dbg !4456
  call void @llvm.dbg.value(metadata i64 undef, metadata !3719, metadata !DIExpression()), !dbg !4456
  call void @llvm.dbg.value(metadata i64 undef, metadata !3720, metadata !DIExpression(DW_OP_constu, 10, DW_OP_shl, DW_OP_constu, 8, DW_OP_or, DW_OP_stack_value)), !dbg !4456
  call void @llvm.dbg.value(metadata i32 4, metadata !3721, metadata !DIExpression()), !dbg !4456
  call void @llvm.dbg.value(metadata %class.DirectEWMAX* undef, metadata !3708, metadata !DIExpression()), !dbg !4467
  call void @llvm.dbg.value(metadata i64 0, metadata !3709, metadata !DIExpression()), !dbg !4467
  call void @llvm.dbg.value(metadata i32 %21, metadata !3710, metadata !DIExpression()), !dbg !4467
  call void @llvm.dbg.value(metadata i64 0, metadata !3711, metadata !DIExpression()), !dbg !4467
  call void @llvm.dbg.value(metadata i64 1, metadata !3686, metadata !DIExpression()), !dbg !4450
  %66 = bitcast i64* %35 to i8*, !dbg !4465
  tail call void @llvm.memset.p0i8.i64(i8* nonnull align 8 dereferenceable(16) %66, i8 0, i64 16, i1 false), !dbg !4464
  br label %67, !dbg !4465

67:                                               ; preds = %88, %65, %23
  %68 = phi i64 [ %89, %88 ], [ 0, %65 ], [ %32, %23 ]
  store i32 %10, i32* %11, align 8, !dbg !4465, !tbaa !2883
  br label %90, !dbg !4475

69:                                               ; preds = %60, %69
  %70 = phi i64 [ %83, %69 ], [ %62, %60 ], !dbg !4467
  %71 = phi i32 [ %84, %69 ], [ %63, %60 ]
  call void @llvm.dbg.value(metadata i32 %71, metadata !3710, metadata !DIExpression()), !dbg !4467
  %72 = sub i64 8, %70, !dbg !4470
  %73 = ashr i64 %72, 4, !dbg !4471
  %74 = add i64 %73, %70, !dbg !4472
  call void @llvm.dbg.value(metadata i32 %71, metadata !3710, metadata !DIExpression(DW_OP_constu, 1, DW_OP_minus, DW_OP_stack_value)), !dbg !4467
  %75 = sub i64 8, %74, !dbg !4470
  %76 = ashr i64 %75, 4, !dbg !4471
  %77 = add i64 %76, %74, !dbg !4472
  call void @llvm.dbg.value(metadata i32 %71, metadata !3710, metadata !DIExpression(DW_OP_constu, 2, DW_OP_minus, DW_OP_stack_value)), !dbg !4467
  %78 = sub i64 8, %77, !dbg !4470
  %79 = ashr i64 %78, 4, !dbg !4471
  %80 = add i64 %79, %77, !dbg !4472
  call void @llvm.dbg.value(metadata i32 %71, metadata !3710, metadata !DIExpression(DW_OP_constu, 3, DW_OP_minus, DW_OP_stack_value)), !dbg !4467
  %81 = sub i64 8, %80, !dbg !4470
  %82 = ashr i64 %81, 4, !dbg !4471
  %83 = add i64 %82, %80, !dbg !4472
  %84 = add i32 %71, -4, !dbg !4473
  call void @llvm.dbg.value(metadata i32 %84, metadata !3710, metadata !DIExpression()), !dbg !4467
  %85 = icmp eq i32 %84, 0, !dbg !4476
  br i1 %85, label %86, label %69, !dbg !4469, !llvm.loop !4477

86:                                               ; preds = %69, %60
  %87 = phi i64 [ %61, %60 ], [ %83, %69 ], !dbg !4472
  store i64 %87, i64* %40, align 8, !dbg !4472, !tbaa !2874
  br label %88, !dbg !4469

88:                                               ; preds = %86, %36
  %89 = phi i64 [ %87, %86 ], [ %44, %36 ]
  store i64 0, i64* %35, align 8, !dbg !4464, !tbaa !2890
  call void @llvm.dbg.value(metadata i64 1, metadata !3686, metadata !DIExpression()), !dbg !4450
  br label %67, !dbg !4465

90:                                               ; preds = %14, %67
  %91 = phi i64 [ %16, %14 ], [ %68, %67 ], !dbg !4449
  call void @llvm.dbg.value(metadata %class.Counter* %0, metadata !4446, metadata !DIExpression(DW_OP_plus_uconst, 128, DW_OP_stack_value)), !dbg !4479
  call void @llvm.dbg.value(metadata i32 0, metadata !4447, metadata !DIExpression()), !dbg !4479
  call void @llvm.dbg.value(metadata %class.Counter* %0, metadata !3900, metadata !DIExpression(DW_OP_plus_uconst, 128, DW_OP_stack_value)), !dbg !4480
  call void @llvm.dbg.value(metadata i32 0, metadata !3902, metadata !DIExpression()), !dbg !4480
  call void @llvm.dbg.value(metadata %class.DirectEWMAX* undef, metadata !3895, metadata !DIExpression()), !dbg !4441
  %92 = mul nsw i64 %91, 1000, !dbg !4481
  %93 = lshr i64 %92, 10, !dbg !4482
  %94 = trunc i64 %93 to i32, !dbg !4483
  store i32 %94, i32* %6, align 4, !dbg !4484, !tbaa !2974
  br label %138, !dbg !4485

95:                                               ; preds = %3
  %96 = bitcast i8* %2 to i32*, !dbg !4486
  call void @llvm.dbg.value(metadata i32* %96, metadata !4415, metadata !DIExpression()), !dbg !4487
  %97 = load i32, i32* %96, align 4, !dbg !4488, !tbaa !2974
  %98 = icmp ult i32 %97, 2, !dbg !4490
  br i1 %98, label %99, label %138, !dbg !4490

99:                                               ; preds = %95
  %100 = icmp eq i32 %97, 0, !dbg !4491
  %101 = getelementptr inbounds %class.Counter, %class.Counter* %0, i64 0, i32 2, !dbg !4492
  %102 = getelementptr inbounds %class.Counter, %class.Counter* %0, i64 0, i32 3, !dbg !4492
  %103 = select i1 %100, i64* %101, i64* %102, !dbg !4492
  %104 = load i64, i64* %103, align 8, !dbg !4492, !tbaa !2890
  %105 = trunc i64 %104 to i32, !dbg !4493
  store i32 %105, i32* %96, align 4, !dbg !4494, !tbaa !2974
  br label %138, !dbg !4495

106:                                              ; preds = %3
  call void @llvm.dbg.value(metadata i8* %2, metadata !4418, metadata !DIExpression()), !dbg !4496
  %107 = bitcast %struct.click_llrpc_counts_st* %4 to i8*, !dbg !4497
  call void @llvm.lifetime.start.p0i8(i64 68, i8* nonnull %107) #13, !dbg !4497
  call void @llvm.dbg.declare(metadata %struct.click_llrpc_counts_st* %4, metadata !4421, metadata !DIExpression()), !dbg !4498
  call void @llvm.memcpy.p0i8.p0i8.i64(i8* nonnull align 4 dereferenceable(36) %107, i8* nonnull align 1 dereferenceable(36) %2, i64 36, i1 false), !dbg !4499
  %108 = getelementptr inbounds %struct.click_llrpc_counts_st, %struct.click_llrpc_counts_st* %4, i64 0, i32 0, !dbg !4501
  %109 = load i32, i32* %108, align 4, !dbg !4501, !tbaa !4502
  %110 = icmp ugt i32 %109, 7, !dbg !4504
  br i1 %110, label %133, label %111, !dbg !4505

111:                                              ; preds = %106
  call void @llvm.dbg.value(metadata i32 0, metadata !4422, metadata !DIExpression()), !dbg !4506
  %112 = icmp eq i32 %109, 0, !dbg !4507
  br i1 %112, label %129, label %113, !dbg !4509

113:                                              ; preds = %111
  %114 = getelementptr inbounds %class.Counter, %class.Counter* %0, i64 0, i32 3, !dbg !4510
  %115 = getelementptr inbounds %class.Counter, %class.Counter* %0, i64 0, i32 2, !dbg !4514
  %116 = zext i32 %109 to i64, !dbg !4507
  br label %117, !dbg !4509

117:                                              ; preds = %122, %113
  %118 = phi i64 [ 0, %113 ], [ %127, %122 ]
  call void @llvm.dbg.value(metadata i64 %118, metadata !4422, metadata !DIExpression()), !dbg !4506
  %119 = getelementptr inbounds %struct.click_llrpc_counts_st, %struct.click_llrpc_counts_st* %4, i64 0, i32 1, i64 %118, !dbg !4515
  %120 = load i32, i32* %119, align 4, !dbg !4515, !tbaa !2974
  switch i32 %120, label %133 [
    i32 0, label %122
    i32 1, label %121
  ], !dbg !4516

121:                                              ; preds = %117
  br label %122

122:                                              ; preds = %117, %121
  %123 = phi i64* [ %114, %121 ], [ %115, %117 ]
  %124 = load i64, i64* %123, align 8, !dbg !4514, !tbaa !2890
  %125 = trunc i64 %124 to i32, !dbg !4514
  %126 = getelementptr inbounds %struct.click_llrpc_counts_st, %struct.click_llrpc_counts_st* %4, i64 0, i32 2, i64 %118, !dbg !4514
  store i32 %125, i32* %126, align 4, !dbg !4514, !tbaa !2974
  %127 = add nuw nsw i64 %118, 1, !dbg !4517
  call void @llvm.dbg.value(metadata i64 %127, metadata !4422, metadata !DIExpression()), !dbg !4506
  %128 = icmp eq i64 %127, %116, !dbg !4507
  br i1 %128, label %129, label %117, !dbg !4509, !llvm.loop !4518

129:                                              ; preds = %122, %111
  %130 = getelementptr inbounds i8, i8* %2, i64 36, !dbg !4520
  %131 = getelementptr inbounds %struct.click_llrpc_counts_st, %struct.click_llrpc_counts_st* %4, i64 0, i32 2, !dbg !4520
  %132 = bitcast [8 x i32]* %131 to i8*, !dbg !4520
  call void @llvm.memcpy.p0i8.p0i8.i64(i8* nonnull align 4 dereferenceable(32) %130, i8* nonnull align 4 dereferenceable(32) %132, i64 32, i1 false), !dbg !4520
  br label %133, !dbg !4521

133:                                              ; preds = %117, %106, %129
  %134 = phi i32 [ 0, %129 ], [ -22, %106 ], [ -22, %117 ], !dbg !4496
  call void @llvm.lifetime.end.p0i8(i64 68, i8* nonnull %107) #13, !dbg !4522
  br label %138

135:                                              ; preds = %3
  %136 = bitcast %class.Counter* %0 to %class.Element*, !dbg !4523
  %137 = tail call i32 @_ZN7Element5llrpcEjPv(%class.Element* %136, i32 %1, i8* %2), !dbg !4523
  br label %138, !dbg !4524

138:                                              ; preds = %95, %99, %90, %5, %135, %133
  %139 = phi i32 [ %134, %133 ], [ %137, %135 ], [ 0, %90 ], [ -22, %5 ], [ 0, %99 ], [ -22, %95 ], !dbg !4525
  ret i32 %139, !dbg !4526
}

; Function Attrs: argmemonly nounwind willreturn
declare void @llvm.memcpy.p0i8.p0i8.i64(i8* noalias nocapture writeonly, i8* noalias nocapture readonly, i64, i1 immarg) #7

declare i32 @_ZN7Element5llrpcEjPv(%class.Element*, i32, i8*) unnamed_addr #2

declare void @_ZN7Element4pushEiP6Packet(%class.Element*, i32, %class.Packet*) unnamed_addr #2

declare %class.Packet* @_ZN7Element4pullEi(%class.Element*, i32) unnamed_addr #2

declare zeroext i1 @_ZN7Element8run_taskEP4Task(%class.Element*, %class.Task*) unnamed_addr #2

declare void @_ZN7Element9run_timerEP5Timer(%class.Element*, %class.Timer*) unnamed_addr #2

declare void @_ZN7Element8selectedEii(%class.Element*, i32, i32) unnamed_addr #2

declare void @_ZN7Element8selectedEi(%class.Element*, i32) unnamed_addr #2

; Function Attrs: nounwind sspstrong uwtable
define linkonce_odr dso_local i8* @_ZNK7Counter10class_nameEv(%class.Counter* %0) unnamed_addr #4 comdat align 2 !dbg !4527 {
  call void @llvm.dbg.value(metadata %class.Counter* %0, metadata !4529, metadata !DIExpression()), !dbg !4531
  ret i8* getelementptr inbounds ([8 x i8], [8 x i8]* @.str.21, i64 0, i64 0), !dbg !4532
}

; Function Attrs: nounwind sspstrong uwtable
define linkonce_odr dso_local i8* @_ZNK7Counter10port_countEv(%class.Counter* %0) unnamed_addr #4 comdat align 2 !dbg !4533 {
  call void @llvm.dbg.value(metadata %class.Counter* %0, metadata !4535, metadata !DIExpression()), !dbg !4536
  ret i8* getelementptr inbounds ([0 x i8], [0 x i8]* @_ZN7Element9PORTS_1_1E, i64 0, i64 0), !dbg !4537
}

declare i8* @_ZNK7Element10processingEv(%class.Element*) unnamed_addr #2

declare i8* @_ZNK7Element9flow_codeEv(%class.Element*) unnamed_addr #2

declare i8* @_ZNK7Element5flagsEv(%class.Element*) unnamed_addr #2

declare i8* @_ZN7Element4castEPKc(%class.Element*, i8*) unnamed_addr #2

declare i8* @_ZN7Element9port_castEbiPKc(%class.Element*, i1 zeroext, i32, i8*) unnamed_addr #2

declare i32 @_ZNK7Element15configure_phaseEv(%class.Element*) unnamed_addr #2

declare void @_ZN7Element10take_stateEPS_P12ErrorHandler(%class.Element*, %class.Element*, %class.ErrorHandler*) unnamed_addr #2

declare %class.Element* @_ZNK7Element15hotswap_elementEv(%class.Element*) unnamed_addr #2

declare void @_ZN7Element7cleanupENS_12CleanupStageE(%class.Element*, i32) unnamed_addr #2

declare void @_ZNK7Element11declarationEv(%class.String* sret, %class.Element*) unnamed_addr #2

declare zeroext i1 @_ZNK7Element20can_live_reconfigureEv(%class.Element*) unnamed_addr #2

declare i32 @_ZN7Element16live_reconfigureER6VectorI6StringEP12ErrorHandler(%class.Element*, %class.Vector.0* dereferenceable(16), %class.ErrorHandler*) unnamed_addr #2

; Function Attrs: inlinehint nounwind sspstrong uwtable
define linkonce_odr dso_local i32 @_ZNK6String6lengthEv(%class.String* %0) #9 comdat align 2 !dbg !4538 {
  call void @llvm.dbg.value(metadata %class.String* %0, metadata !4540, metadata !DIExpression()), !dbg !4541
  %2 = getelementptr inbounds %class.String, %class.String* %0, i64 0, i32 0, i32 1, !dbg !4542
  %3 = load i32, i32* %2, align 8, !dbg !4542, !tbaa !3096
  ret i32 %3, !dbg !4543
}

; Function Attrs: noinline noreturn nounwind
define linkonce_odr hidden void @__clang_call_terminate(i8* %0) local_unnamed_addr #10 comdat {
  %2 = tail call i8* @__cxa_begin_catch(i8* %0) #13
  tail call void @_ZSt9terminatev() #14
  unreachable
}

declare i8* @__cxa_begin_catch(i8*) local_unnamed_addr

declare void @_ZSt9terminatev() local_unnamed_addr

; Function Attrs: noreturn nounwind
declare void @__assert_fail(i8*, i8*, i32, i8*) local_unnamed_addr #11

declare void @_ZN6String11delete_memoEPNS_6memo_tE(%"struct.String::memo_t"*) local_unnamed_addr #2

declare i32 @_ZN11HandlerCall10initializeEiPK7ElementP12ErrorHandler(%class.HandlerCall*, i32, %class.Element*, %class.ErrorHandler*) local_unnamed_addr #2

declare i32 @_ZNK7Handler10call_writeERK6StringP7ElementP12ErrorHandler(%class.Handler*, %class.String* dereferenceable(24), %class.Element*, %class.ErrorHandler*) local_unnamed_addr #2

declare i32 @_ZN11HandlerCall5resetERPS_RK6StringiPK7ElementP12ErrorHandler(%class.HandlerCall** dereferenceable(8), %class.String* dereferenceable(24), i32, %class.Element*, %class.ErrorHandler*) local_unnamed_addr #2

declare !dbg !1849 i32 @_Z13click_jiffiesv() local_unnamed_addr #2

; Function Attrs: noinline optnone sspstrong uwtable
define linkonce_odr dso_local void @_Z14args_base_readI6AnyArg6StringEvP4ArgsPKciT_RT0_(%class.Args* %0, i8* %1, i32 %2, %class.String* dereferenceable(24) %3) local_unnamed_addr #12 comdat !dbg !4544 {
  %5 = alloca %class.AnyArg, align 1
  %6 = alloca %class.Args*, align 8
  %7 = alloca i8*, align 8
  %8 = alloca i32, align 4
  %9 = alloca %class.String*, align 8
  %10 = alloca %class.AnyArg, align 1
  store %class.Args* %0, %class.Args** %6, align 8, !tbaa !3342
  call void @llvm.dbg.declare(metadata %class.Args** %6, metadata !4546, metadata !DIExpression()), !dbg !4551
  store i8* %1, i8** %7, align 8, !tbaa !3342
  call void @llvm.dbg.declare(metadata i8** %7, metadata !4547, metadata !DIExpression()), !dbg !4552
  store i32 %2, i32* %8, align 4, !tbaa !2974
  call void @llvm.dbg.declare(metadata i32* %8, metadata !4548, metadata !DIExpression()), !dbg !4553
  call void @llvm.dbg.declare(metadata %class.AnyArg* %5, metadata !4549, metadata !DIExpression()), !dbg !4554
  store %class.String* %3, %class.String** %9, align 8, !tbaa !3342
  call void @llvm.dbg.declare(metadata %class.String** %9, metadata !4550, metadata !DIExpression()), !dbg !4555
  %11 = load %class.Args*, %class.Args** %6, align 8, !dbg !4556, !tbaa !3342
  %12 = load i8*, i8** %7, align 8, !dbg !4557, !tbaa !3342
  %13 = load i32, i32* %8, align 4, !dbg !4558, !tbaa !2974
  %14 = load %class.String*, %class.String** %9, align 8, !dbg !4559, !tbaa !3342
  call void @_ZN4Args9base_readI6AnyArg6StringEEvPKciT_RT0_(%class.Args* %11, i8* %12, i32 %13, %class.String* dereferenceable(24) %14), !dbg !4560
  ret void, !dbg !4561
}

; Function Attrs: sspstrong uwtable
define linkonce_odr dso_local void @_ZN4Args9base_readI6AnyArg6StringEEvPKciT_RT0_(%class.Args* %0, i8* %1, i32 %2, %class.String* dereferenceable(24) %3) local_unnamed_addr #0 comdat align 2 personality i8* bitcast (i32 (...)* @__gxx_personality_v0 to i8*) !dbg !4562 {
  %5 = alloca %"struct.Args::Slot"*, align 8
  %6 = alloca %class.String, align 8
  call void @llvm.dbg.value(metadata %class.Args* %0, metadata !4567, metadata !DIExpression()), !dbg !4577
  call void @llvm.dbg.value(metadata i8* %1, metadata !4568, metadata !DIExpression()), !dbg !4577
  call void @llvm.dbg.value(metadata i32 %2, metadata !4569, metadata !DIExpression()), !dbg !4577
  call void @llvm.dbg.value(metadata %class.String* %3, metadata !4571, metadata !DIExpression()), !dbg !4577
  %7 = bitcast %"struct.Args::Slot"** %5 to i8*, !dbg !4578
  call void @llvm.lifetime.start.p0i8(i64 8, i8* nonnull %7) #13, !dbg !4578
  %8 = bitcast %class.String* %6 to i8*, !dbg !4579
  call void @llvm.lifetime.start.p0i8(i64 24, i8* nonnull %8) #13, !dbg !4579
  call void @llvm.dbg.declare(metadata %class.String* %6, metadata !4573, metadata !DIExpression()), !dbg !4580
  call void @llvm.dbg.value(metadata %"struct.Args::Slot"** %5, metadata !4572, metadata !DIExpression(DW_OP_deref)), !dbg !4577
  call void @_ZN4Args4findEPKciRPNS_4SlotE(%class.String* nonnull sret %6, %class.Args* %0, i8* %1, i32 %2, %"struct.Args::Slot"** nonnull dereferenceable(8) %5), !dbg !4581
  call void @llvm.dbg.value(metadata %class.String* %6, metadata !3147, metadata !DIExpression()), !dbg !4582
  %9 = getelementptr inbounds %class.String, %class.String* %6, i64 0, i32 0, i32 1, !dbg !4584
  %10 = load i32, i32* %9, align 8, !dbg !4584, !tbaa !3096
  %11 = icmp eq i32 %10, 0, !dbg !4585
  %12 = select i1 %11, { i64, i64 } zeroinitializer, { i64, i64 } { i64 ptrtoint (i32 (%class.String*)* @_ZNK6String6lengthEv to i64), i64 0 }, !dbg !4586
  %13 = extractvalue { i64, i64 } %12, 0, !dbg !4580
  %14 = icmp eq i64 %13, 0, !dbg !4580
  br i1 %14, label %64, label %15, !dbg !4579

15:                                               ; preds = %4
  call void @llvm.dbg.value(metadata %class.String* %3, metadata !4587, metadata !DIExpression()), !dbg !4599
  call void @llvm.dbg.value(metadata %class.Args* %0, metadata !4598, metadata !DIExpression()), !dbg !4599
  call void @llvm.dbg.value(metadata %class.Args* %0, metadata !4601, metadata !DIExpression()), !dbg !4608
  call void @llvm.dbg.value(metadata %class.String* %3, metadata !4607, metadata !DIExpression()), !dbg !4608
  call void @llvm.dbg.value(metadata %class.Args* %0, metadata !4610, metadata !DIExpression()), !dbg !4630
  call void @llvm.dbg.value(metadata %class.String* %3, metadata !4614, metadata !DIExpression()), !dbg !4630
  %16 = invoke dereferenceable(48) i8* @_Znwm(i64 48) #16
          to label %17 unwind label %44, !dbg !4633

17:                                               ; preds = %15
  call void @llvm.dbg.value(metadata i8* %16, metadata !4634, metadata !DIExpression()), !dbg !4638
  call void @llvm.dbg.value(metadata %class.String* %3, metadata !4637, metadata !DIExpression()), !dbg !4638
  %18 = bitcast i8* %16 to i32 (...)***, !dbg !4640
  store i32 (...)** bitcast (i8** getelementptr inbounds ({ [5 x i8*] }, { [5 x i8*] }* @_ZTVN4Args5SlotTI6StringEE, i64 0, inrange i32 0, i64 2) to i32 (...)**), i32 (...)*** %18, align 8, !dbg !4640, !tbaa !2855
  %19 = getelementptr inbounds i8, i8* %16, i64 16, !dbg !4641
  %20 = bitcast i8* %19 to %class.String**, !dbg !4641
  store %class.String* %3, %class.String** %20, align 8, !dbg !4641, !tbaa !4642
  call void @llvm.dbg.value(metadata i8* %16, metadata !3077, metadata !DIExpression(DW_OP_plus_uconst, 24, DW_OP_stack_value)), !dbg !4644
  call void @llvm.dbg.value(metadata i8* %16, metadata !3082, metadata !DIExpression(DW_OP_plus_uconst, 24, DW_OP_stack_value)), !dbg !4646
  call void @llvm.dbg.value(metadata i8* @_ZN6String9null_dataE, metadata !3085, metadata !DIExpression()), !dbg !4646
  call void @llvm.dbg.value(metadata i32 0, metadata !3086, metadata !DIExpression()), !dbg !4646
  call void @llvm.dbg.value(metadata %"struct.String::memo_t"* null, metadata !3087, metadata !DIExpression()), !dbg !4646
  %21 = getelementptr inbounds i8, i8* %16, i64 24, !dbg !4648
  %22 = getelementptr inbounds i8, i8* %16, i64 32, !dbg !4649
  %23 = bitcast i8* %22 to i32*, !dbg !4649
  %24 = getelementptr inbounds i8, i8* %16, i64 40, !dbg !4650
  %25 = bitcast i8* %24 to %"struct.String::memo_t"**, !dbg !4650
  call void @llvm.dbg.value(metadata i8* %16, metadata !4615, metadata !DIExpression()), !dbg !4651
  %26 = getelementptr inbounds %class.Args, %class.Args* %0, i64 0, i32 6, !dbg !4652
  %27 = bitcast %"struct.Args::Slot"** %26 to i64*, !dbg !4652
  %28 = load i64, i64* %27, align 8, !dbg !4652, !tbaa !4654
  %29 = getelementptr inbounds i8, i8* %16, i64 8, !dbg !4658
  %30 = bitcast i8* %29 to i64*, !dbg !4659
  store i64 %28, i64* %30, align 8, !dbg !4659, !tbaa !4660
  %31 = bitcast %"struct.Args::Slot"** %26 to i8**, !dbg !4662
  store i8* %16, i8** %31, align 8, !dbg !4662, !tbaa !4654
  call void @llvm.dbg.value(metadata i8* %21, metadata !4575, metadata !DIExpression()), !dbg !4663
  call void @llvm.dbg.value(metadata %class.String* %6, metadata !4664, metadata !DIExpression()), !dbg !4673
  call void @llvm.dbg.value(metadata i8* %21, metadata !4671, metadata !DIExpression()), !dbg !4673
  call void @llvm.dbg.value(metadata %class.Args* %0, metadata !4672, metadata !DIExpression()), !dbg !4673
  call void @llvm.dbg.value(metadata %class.String* %6, metadata !4675, metadata !DIExpression()), !dbg !4680
  call void @llvm.dbg.value(metadata i8* %21, metadata !4678, metadata !DIExpression()), !dbg !4680
  call void @llvm.dbg.value(metadata %class.Args* %0, metadata !4679, metadata !DIExpression()), !dbg !4680
  call void @llvm.dbg.value(metadata i8* %21, metadata !4682, metadata !DIExpression()), !dbg !4686
  call void @llvm.dbg.value(metadata %class.String* %6, metadata !4685, metadata !DIExpression()), !dbg !4686
  call void @llvm.dbg.value(metadata i8* %21, metadata !2950, metadata !DIExpression()), !dbg !4688
  call void @llvm.dbg.value(metadata i8* %21, metadata !3351, metadata !DIExpression()), !dbg !4692
  call void @llvm.dbg.value(metadata %class.String* %6, metadata !3354, metadata !DIExpression()), !dbg !4692
  %32 = bitcast %class.String* %6 to i64*, !dbg !4694
  %33 = load i64, i64* %32, align 8, !dbg !4694, !tbaa !3093
  %34 = getelementptr inbounds %class.String, %class.String* %6, i64 0, i32 0, i32 2, !dbg !4695
  %35 = load %"struct.String::memo_t"*, %"struct.String::memo_t"** %34, align 8, !dbg !4695, !tbaa !2958
  call void @llvm.dbg.value(metadata i8* %21, metadata !3082, metadata !DIExpression()), !dbg !4696
  call void @llvm.dbg.value(metadata i8* undef, metadata !3085, metadata !DIExpression()), !dbg !4696
  call void @llvm.dbg.value(metadata i32 %10, metadata !3086, metadata !DIExpression()), !dbg !4696
  call void @llvm.dbg.value(metadata %"struct.String::memo_t"* %35, metadata !3087, metadata !DIExpression()), !dbg !4696
  %36 = bitcast i8* %21 to i64*, !dbg !4698
  store i64 %33, i64* %36, align 8, !dbg !4698, !tbaa !3093
  store i32 %10, i32* %23, align 8, !dbg !4699, !tbaa !3096
  store %"struct.String::memo_t"* %35, %"struct.String::memo_t"** %25, align 8, !dbg !4700, !tbaa !2958
  %37 = icmp eq %"struct.String::memo_t"* %35, null, !dbg !4701
  br i1 %37, label %42, label %38, !dbg !4702

38:                                               ; preds = %17
  %39 = getelementptr inbounds %"struct.String::memo_t", %"struct.String::memo_t"* %35, i64 0, i32 0, !dbg !4703
  call void @llvm.dbg.value(metadata i32* %39, metadata !3371, metadata !DIExpression()), !dbg !4704
  %40 = load volatile i32, i32* %39, align 4, !dbg !4706, !tbaa !2974
  %41 = add i32 %40, 1, !dbg !4706
  store volatile i32 %41, i32* %39, align 4, !dbg !4706, !tbaa !2974
  br label %42, !dbg !4707

42:                                               ; preds = %38, %17
  %43 = load %"struct.Args::Slot"*, %"struct.Args::Slot"** %5, align 8, !dbg !4708, !tbaa !3342
  call void @llvm.dbg.value(metadata %"struct.Args::Slot"* %43, metadata !4572, metadata !DIExpression()), !dbg !4577
  invoke void @_ZN4Args9postparseEbPNS_4SlotE(%class.Args* nonnull %0, i1 zeroext true, %"struct.Args::Slot"* %43)
          to label %64 unwind label %44, !dbg !4709

44:                                               ; preds = %15, %42
  %45 = landingpad { i8*, i32 }
          cleanup, !dbg !4710
  call void @llvm.dbg.value(metadata %class.String* %6, metadata !2944, metadata !DIExpression()) #13, !dbg !4711
  call void @llvm.dbg.value(metadata %class.String* %6, metadata !2950, metadata !DIExpression()) #13, !dbg !4713
  %46 = getelementptr inbounds %class.String, %class.String* %6, i64 0, i32 0, i32 2, !dbg !4715
  %47 = load %"struct.String::memo_t"*, %"struct.String::memo_t"** %46, align 8, !dbg !4715, !tbaa !2958
  %48 = icmp eq %"struct.String::memo_t"* %47, null, !dbg !4716
  br i1 %48, label %63, label %49, !dbg !4717

49:                                               ; preds = %44
  %50 = getelementptr inbounds %"struct.String::memo_t", %"struct.String::memo_t"* %47, i64 0, i32 0, !dbg !4718
  %51 = load volatile i32, i32* %50, align 4, !dbg !4718, !tbaa !2965
  %52 = icmp eq i32 %51, 0, !dbg !4718
  br i1 %52, label %53, label %54, !dbg !4718

53:                                               ; preds = %49
  call void @__assert_fail(i8* getelementptr inbounds ([18 x i8], [18 x i8]* @.str.19, i64 0, i64 0), i8* getelementptr inbounds ([29 x i8], [29 x i8]* @.str.20, i64 0, i64 0), i32 273, i8* getelementptr inbounds ([27 x i8], [27 x i8]* @__PRETTY_FUNCTION__._ZNK6String5derefEv, i64 0, i64 0)) #14, !dbg !4718
  unreachable, !dbg !4718

54:                                               ; preds = %49
  call void @llvm.dbg.value(metadata i32* %50, metadata !2967, metadata !DIExpression()) #13, !dbg !4719
  %55 = load volatile i32, i32* %50, align 4, !dbg !4721, !tbaa !2974
  %56 = add i32 %55, -1, !dbg !4721
  store volatile i32 %56, i32* %50, align 4, !dbg !4721, !tbaa !2974
  %57 = icmp eq i32 %56, 0, !dbg !4722
  br i1 %57, label %58, label %59, !dbg !4723

58:                                               ; preds = %54
  invoke void @_ZN6String11delete_memoEPNS_6memo_tE(%"struct.String::memo_t"* nonnull %47)
          to label %59 unwind label %60, !dbg !4724

59:                                               ; preds = %58, %54
  store %"struct.String::memo_t"* null, %"struct.String::memo_t"** %46, align 8, !dbg !4725, !tbaa !2958
  br label %63, !dbg !4726

60:                                               ; preds = %58
  %61 = landingpad { i8*, i32 }
          catch i8* null, !dbg !4727
  %62 = extractvalue { i8*, i32 } %61, 0, !dbg !4727
  call void @__clang_call_terminate(i8* %62) #14, !dbg !4727
  unreachable, !dbg !4727

63:                                               ; preds = %44, %59
  call void @llvm.lifetime.end.p0i8(i64 24, i8* nonnull %8) #13, !dbg !4579
  call void @llvm.lifetime.end.p0i8(i64 8, i8* nonnull %7) #13, !dbg !4728
  resume { i8*, i32 } %45, !dbg !4728

64:                                               ; preds = %42, %4
  call void @llvm.dbg.value(metadata %class.String* %6, metadata !2944, metadata !DIExpression()) #13, !dbg !4729
  call void @llvm.dbg.value(metadata %class.String* %6, metadata !2950, metadata !DIExpression()) #13, !dbg !4731
  %65 = getelementptr inbounds %class.String, %class.String* %6, i64 0, i32 0, i32 2, !dbg !4733
  %66 = load %"struct.String::memo_t"*, %"struct.String::memo_t"** %65, align 8, !dbg !4733, !tbaa !2958
  %67 = icmp eq %"struct.String::memo_t"* %66, null, !dbg !4734
  br i1 %67, label %82, label %68, !dbg !4735

68:                                               ; preds = %64
  %69 = getelementptr inbounds %"struct.String::memo_t", %"struct.String::memo_t"* %66, i64 0, i32 0, !dbg !4736
  %70 = load volatile i32, i32* %69, align 4, !dbg !4736, !tbaa !2965
  %71 = icmp eq i32 %70, 0, !dbg !4736
  br i1 %71, label %72, label %73, !dbg !4736

72:                                               ; preds = %68
  call void @__assert_fail(i8* getelementptr inbounds ([18 x i8], [18 x i8]* @.str.19, i64 0, i64 0), i8* getelementptr inbounds ([29 x i8], [29 x i8]* @.str.20, i64 0, i64 0), i32 273, i8* getelementptr inbounds ([27 x i8], [27 x i8]* @__PRETTY_FUNCTION__._ZNK6String5derefEv, i64 0, i64 0)) #14, !dbg !4736
  unreachable, !dbg !4736

73:                                               ; preds = %68
  call void @llvm.dbg.value(metadata i32* %69, metadata !2967, metadata !DIExpression()) #13, !dbg !4737
  %74 = load volatile i32, i32* %69, align 4, !dbg !4739, !tbaa !2974
  %75 = add i32 %74, -1, !dbg !4739
  store volatile i32 %75, i32* %69, align 4, !dbg !4739, !tbaa !2974
  %76 = icmp eq i32 %75, 0, !dbg !4740
  br i1 %76, label %77, label %78, !dbg !4741

77:                                               ; preds = %73
  invoke void @_ZN6String11delete_memoEPNS_6memo_tE(%"struct.String::memo_t"* nonnull %66)
          to label %78 unwind label %79, !dbg !4742

78:                                               ; preds = %77, %73
  store %"struct.String::memo_t"* null, %"struct.String::memo_t"** %65, align 8, !dbg !4743, !tbaa !2958
  br label %82, !dbg !4744

79:                                               ; preds = %77
  %80 = landingpad { i8*, i32 }
          catch i8* null, !dbg !4745
  %81 = extractvalue { i8*, i32 } %80, 0, !dbg !4745
  call void @__clang_call_terminate(i8* %81) #14, !dbg !4745
  unreachable, !dbg !4745

82:                                               ; preds = %64, %78
  call void @llvm.lifetime.end.p0i8(i64 24, i8* nonnull %8) #13, !dbg !4579
  call void @llvm.lifetime.end.p0i8(i64 8, i8* nonnull %7) #13, !dbg !4728
  ret void, !dbg !4728
}

declare void @_ZN4Args4findEPKciRPNS_4SlotE(%class.String* sret, %class.Args*, i8*, i32, %"struct.Args::Slot"** dereferenceable(8)) local_unnamed_addr #2

declare void @_ZN4Args9postparseEbPNS_4SlotE(%class.Args*, i1 zeroext, %"struct.Args::Slot"*) local_unnamed_addr #2

declare void @_ZNK10ArgContext5errorEPKcz(%class.ArgContext*, i8*, ...) local_unnamed_addr #2

; Function Attrs: inlinehint nounwind sspstrong uwtable
define linkonce_odr dso_local void @_ZN4Args5SlotTI6StringED2Ev(%"struct.Args::SlotT"* %0) unnamed_addr #9 comdat align 2 personality i32 (...)* @__gxx_personality_v0 !dbg !4746 {
  call void @llvm.dbg.value(metadata %"struct.Args::SlotT"* %0, metadata !4749, metadata !DIExpression()), !dbg !4750
  %2 = getelementptr %"struct.Args::SlotT", %"struct.Args::SlotT"* %0, i64 0, i32 0, i32 0, !dbg !4751
  store i32 (...)** bitcast (i8** getelementptr inbounds ({ [5 x i8*] }, { [5 x i8*] }* @_ZTVN4Args5SlotTI6StringEE, i64 0, inrange i32 0, i64 2) to i32 (...)**), i32 (...)*** %2, align 8, !dbg !4751, !tbaa !2855
  call void @llvm.dbg.value(metadata %"struct.Args::SlotT"* %0, metadata !2944, metadata !DIExpression(DW_OP_plus_uconst, 24, DW_OP_stack_value)) #13, !dbg !4752
  call void @llvm.dbg.value(metadata %"struct.Args::SlotT"* %0, metadata !2950, metadata !DIExpression(DW_OP_plus_uconst, 24, DW_OP_stack_value)) #13, !dbg !4755
  %3 = getelementptr inbounds %"struct.Args::SlotT", %"struct.Args::SlotT"* %0, i64 0, i32 2, i32 0, i32 2, !dbg !4757
  %4 = load %"struct.String::memo_t"*, %"struct.String::memo_t"** %3, align 8, !dbg !4757, !tbaa !2958
  %5 = icmp eq %"struct.String::memo_t"* %4, null, !dbg !4758
  br i1 %5, label %20, label %6, !dbg !4759

6:                                                ; preds = %1
  %7 = getelementptr inbounds %"struct.String::memo_t", %"struct.String::memo_t"* %4, i64 0, i32 0, !dbg !4760
  %8 = load volatile i32, i32* %7, align 4, !dbg !4760, !tbaa !2965
  %9 = icmp eq i32 %8, 0, !dbg !4760
  br i1 %9, label %10, label %11, !dbg !4760

10:                                               ; preds = %6
  tail call void @__assert_fail(i8* getelementptr inbounds ([18 x i8], [18 x i8]* @.str.19, i64 0, i64 0), i8* getelementptr inbounds ([29 x i8], [29 x i8]* @.str.20, i64 0, i64 0), i32 273, i8* getelementptr inbounds ([27 x i8], [27 x i8]* @__PRETTY_FUNCTION__._ZNK6String5derefEv, i64 0, i64 0)) #14, !dbg !4760
  unreachable, !dbg !4760

11:                                               ; preds = %6
  call void @llvm.dbg.value(metadata i32* %7, metadata !2967, metadata !DIExpression()) #13, !dbg !4761
  %12 = load volatile i32, i32* %7, align 4, !dbg !4763, !tbaa !2974
  %13 = add i32 %12, -1, !dbg !4763
  store volatile i32 %13, i32* %7, align 4, !dbg !4763, !tbaa !2974
  %14 = icmp eq i32 %13, 0, !dbg !4764
  br i1 %14, label %15, label %16, !dbg !4765

15:                                               ; preds = %11
  invoke void @_ZN6String11delete_memoEPNS_6memo_tE(%"struct.String::memo_t"* nonnull %4)
          to label %16 unwind label %17, !dbg !4766

16:                                               ; preds = %15, %11
  store %"struct.String::memo_t"* null, %"struct.String::memo_t"** %3, align 8, !dbg !4767, !tbaa !2958
  br label %20, !dbg !4768

17:                                               ; preds = %15
  %18 = landingpad { i8*, i32 }
          catch i8* null, !dbg !4769
  %19 = extractvalue { i8*, i32 } %18, 0, !dbg !4769
  tail call void @__clang_call_terminate(i8* %19) #14, !dbg !4769
  unreachable, !dbg !4769

20:                                               ; preds = %1, %16
  ret void, !dbg !4751
}

; Function Attrs: inlinehint nounwind sspstrong uwtable
define linkonce_odr dso_local void @_ZN4Args5SlotTI6StringED0Ev(%"struct.Args::SlotT"* %0) unnamed_addr #9 comdat align 2 personality i32 (...)* @__gxx_personality_v0 !dbg !4770 {
  call void @llvm.dbg.value(metadata %"struct.Args::SlotT"* %0, metadata !4772, metadata !DIExpression()), !dbg !4773
  call void @llvm.dbg.value(metadata %"struct.Args::SlotT"* %0, metadata !4749, metadata !DIExpression()) #13, !dbg !4774
  %2 = getelementptr %"struct.Args::SlotT", %"struct.Args::SlotT"* %0, i64 0, i32 0, i32 0, !dbg !4776
  store i32 (...)** bitcast (i8** getelementptr inbounds ({ [5 x i8*] }, { [5 x i8*] }* @_ZTVN4Args5SlotTI6StringEE, i64 0, inrange i32 0, i64 2) to i32 (...)**), i32 (...)*** %2, align 8, !dbg !4776, !tbaa !2855
  call void @llvm.dbg.value(metadata %"struct.Args::SlotT"* %0, metadata !2944, metadata !DIExpression(DW_OP_plus_uconst, 24, DW_OP_stack_value)) #13, !dbg !4777
  call void @llvm.dbg.value(metadata %"struct.Args::SlotT"* %0, metadata !2950, metadata !DIExpression(DW_OP_plus_uconst, 24, DW_OP_stack_value)) #13, !dbg !4779
  %3 = getelementptr inbounds %"struct.Args::SlotT", %"struct.Args::SlotT"* %0, i64 0, i32 2, i32 0, i32 2, !dbg !4781
  %4 = load %"struct.String::memo_t"*, %"struct.String::memo_t"** %3, align 8, !dbg !4781, !tbaa !2958
  %5 = icmp eq %"struct.String::memo_t"* %4, null, !dbg !4782
  br i1 %5, label %19, label %6, !dbg !4783

6:                                                ; preds = %1
  %7 = getelementptr inbounds %"struct.String::memo_t", %"struct.String::memo_t"* %4, i64 0, i32 0, !dbg !4784
  %8 = load volatile i32, i32* %7, align 4, !dbg !4784, !tbaa !2965
  %9 = icmp eq i32 %8, 0, !dbg !4784
  br i1 %9, label %10, label %11, !dbg !4784

10:                                               ; preds = %6
  tail call void @__assert_fail(i8* getelementptr inbounds ([18 x i8], [18 x i8]* @.str.19, i64 0, i64 0), i8* getelementptr inbounds ([29 x i8], [29 x i8]* @.str.20, i64 0, i64 0), i32 273, i8* getelementptr inbounds ([27 x i8], [27 x i8]* @__PRETTY_FUNCTION__._ZNK6String5derefEv, i64 0, i64 0)) #14, !dbg !4784
  unreachable, !dbg !4784

11:                                               ; preds = %6
  call void @llvm.dbg.value(metadata i32* %7, metadata !2967, metadata !DIExpression()) #13, !dbg !4785
  %12 = load volatile i32, i32* %7, align 4, !dbg !4787, !tbaa !2974
  %13 = add i32 %12, -1, !dbg !4787
  store volatile i32 %13, i32* %7, align 4, !dbg !4787, !tbaa !2974
  %14 = icmp eq i32 %13, 0, !dbg !4788
  br i1 %14, label %15, label %19, !dbg !4789

15:                                               ; preds = %11
  invoke void @_ZN6String11delete_memoEPNS_6memo_tE(%"struct.String::memo_t"* nonnull %4)
          to label %19 unwind label %16, !dbg !4790

16:                                               ; preds = %15
  %17 = landingpad { i8*, i32 }
          catch i8* null, !dbg !4791
  %18 = extractvalue { i8*, i32 } %17, 0, !dbg !4791
  tail call void @__clang_call_terminate(i8* %18) #14, !dbg !4791
  unreachable, !dbg !4791

19:                                               ; preds = %11, %15, %1
  %20 = bitcast %"struct.Args::SlotT"* %0 to i8*, !dbg !4792
  tail call void @_ZdlPv(i8* %20) #15, !dbg !4792
  ret void, !dbg !4792
}

; Function Attrs: sspstrong uwtable
define linkonce_odr dso_local void @_ZN4Args5SlotTI6StringE5storeEv(%"struct.Args::SlotT"* %0) unnamed_addr #0 comdat align 2 !dbg !4793 {
  call void @llvm.dbg.value(metadata %"struct.Args::SlotT"* %0, metadata !4795, metadata !DIExpression()), !dbg !4796
  %2 = getelementptr inbounds %"struct.Args::SlotT", %"struct.Args::SlotT"* %0, i64 0, i32 1, !dbg !4797
  %3 = load %class.String*, %class.String** %2, align 8, !dbg !4797, !tbaa !4642
  %4 = getelementptr inbounds %"struct.Args::SlotT", %"struct.Args::SlotT"* %0, i64 0, i32 2, !dbg !4798
  call void @llvm.dbg.value(metadata %class.String* %3, metadata !4799, metadata !DIExpression()), !dbg !4808
  call void @llvm.dbg.value(metadata %class.String* %4, metadata !4805, metadata !DIExpression()), !dbg !4808
  call void @llvm.dbg.value(metadata %class.String* %3, metadata !4682, metadata !DIExpression()), !dbg !4810
  call void @llvm.dbg.value(metadata %class.String* %4, metadata !4685, metadata !DIExpression()), !dbg !4810
  %5 = icmp eq %class.String* %4, %3, !dbg !4812
  br i1 %5, label %35, label %6, !dbg !4813, !prof !4814, !misexpect !4815

6:                                                ; preds = %1
  call void @llvm.dbg.value(metadata %class.String* %3, metadata !2950, metadata !DIExpression()), !dbg !4816
  %7 = getelementptr inbounds %class.String, %class.String* %3, i64 0, i32 0, i32 2, !dbg !4818
  %8 = load %"struct.String::memo_t"*, %"struct.String::memo_t"** %7, align 8, !dbg !4818, !tbaa !2958
  %9 = icmp eq %"struct.String::memo_t"* %8, null, !dbg !4819
  br i1 %9, label %21, label %10, !dbg !4820

10:                                               ; preds = %6
  %11 = getelementptr inbounds %"struct.String::memo_t", %"struct.String::memo_t"* %8, i64 0, i32 0, !dbg !4821
  %12 = load volatile i32, i32* %11, align 4, !dbg !4821, !tbaa !2965
  %13 = icmp eq i32 %12, 0, !dbg !4821
  br i1 %13, label %14, label %15, !dbg !4821

14:                                               ; preds = %10
  tail call void @__assert_fail(i8* getelementptr inbounds ([18 x i8], [18 x i8]* @.str.19, i64 0, i64 0), i8* getelementptr inbounds ([29 x i8], [29 x i8]* @.str.20, i64 0, i64 0), i32 273, i8* getelementptr inbounds ([27 x i8], [27 x i8]* @__PRETTY_FUNCTION__._ZNK6String5derefEv, i64 0, i64 0)) #14, !dbg !4821
  unreachable, !dbg !4821

15:                                               ; preds = %10
  call void @llvm.dbg.value(metadata i32* %11, metadata !2967, metadata !DIExpression()), !dbg !4822
  %16 = load volatile i32, i32* %11, align 4, !dbg !4824, !tbaa !2974
  %17 = add i32 %16, -1, !dbg !4824
  store volatile i32 %17, i32* %11, align 4, !dbg !4824, !tbaa !2974
  %18 = icmp eq i32 %17, 0, !dbg !4825
  br i1 %18, label %19, label %20, !dbg !4826

19:                                               ; preds = %15
  tail call void @_ZN6String11delete_memoEPNS_6memo_tE(%"struct.String::memo_t"* nonnull %8), !dbg !4827
  br label %20, !dbg !4827

