; ModuleID = '../elements/standard/delayunqueue.cc'
source_filename = "../elements/standard/delayunqueue.cc"
target datalayout = "e-m:e-p270:32:32-p271:32:32-p272:64:64-i64:64-f80:128-n8:16:32:64-S128"
target triple = "x86_64-pc-linux-gnu"

%class.atomic_uint32_t = type { i32 }
%class.DelayUnqueue = type { %class.Element.base, %class.Packet*, %class.Timestamp, %class.Task, %class.Timer, %class.NotifierSignal }
%class.Element.base = type <{ i32 (...)**, [2 x %"class.Element::Port"*], [4 x %"class.Element::Port"], [2 x i32], %class.Router*, i32 }>
%"class.Element::Port" = type <{ %class.Element*, i32, [4 x i8] }>
%class.Element = type <{ i32 (...)**, [2 x %"class.Element::Port"*], [4 x %"class.Element::Port"], [2 x i32], %class.Router*, i32, [4 x i8] }>
%class.Router = type opaque
%class.Packet = type { %class.atomic_uint32_t, %class.Packet*, i8*, i8*, i8*, i8*, %"struct.Packet::AllAnno", void (i8*, i64, i8*)*, i8* }
%"struct.Packet::AllAnno" = type { %"union.Packet::Anno", i8*, i8*, i8*, i32, [8 x i8], %class.Packet*, %class.Packet* }
%"union.Packet::Anno" = type { [6 x i64] }
%class.Timestamp = type { %"union.Timestamp::rep_t" }
%"union.Timestamp::rep_t" = type { i64 }
%class.Task = type { %struct.TaskLink.base, i32, i32, %"union.Task::Status", i1 (%class.Task*, i8*)*, i8*, %class.RouterThread*, %class.Element*, %"union.Task::Pending" }
%struct.TaskLink.base = type <{ %struct.TaskLink*, %struct.TaskLink*, i32 }>
%struct.TaskLink = type <{ %struct.TaskLink*, %struct.TaskLink*, i32, [4 x i8] }>
%"union.Task::Status" = type { i32 }
%class.RouterThread = type { %struct.TaskLink, i8, [7 x i8], %class.TimerSet, %class.SelectSet, [32 x i8], %class.Spinlock, %class.atomic_uint32_t, %class.atomic_uint32_t, %"union.Task::Pending", %"union.Task::Pending"*, %class.SpinlockIRQ, [31 x i8], %class.Master*, i32, i8, i32, i32, [40 x i8] }
%class.TimerSet = type <{ %class.Timestamp, i32, i32, i32, [4 x i8], %class.Vector, %class.Vector.0, %class.SimpleSpinlock, [7 x i8], %class.Timestamp, i32, [4 x i8] }>
%class.Vector = type { %class.vector_memory }
%class.vector_memory = type { %struct.char_array*, i32, i32 }
%struct.char_array = type { [16 x i8] }
%class.Vector.0 = type { %class.vector_memory.1 }
%class.vector_memory.1 = type { %struct.char_array.2*, i32, i32 }
%struct.char_array.2 = type opaque
%class.SimpleSpinlock = type { i8 }
%class.SelectSet = type { [2 x i32], i8, %class.Vector.3, %class.Vector.4 }
%class.Vector.3 = type { %class.vector_memory.1 }
%class.Vector.4 = type { %class.vector_memory.5 }
%class.vector_memory.5 = type { %struct.char_array.6*, i32, i32 }
%struct.char_array.6 = type opaque
%class.Spinlock = type { i8 }
%class.SpinlockIRQ = type { i8 }
%class.Master = type opaque
%"union.Task::Pending" = type { %class.Task* }
%class.Timer = type { i32, %class.Timestamp, %union.anon, i8*, %class.Element*, %class.RouterThread* }
%union.anon = type { void (%class.Timer*, i8*)* }
%class.NotifierSignal = type <{ %"union.NotifierSignal::vmvalue", i32, [4 x i8] }>
%"union.NotifierSignal::vmvalue" = type { %class.atomic_uint32_t* }
%struct.anon = type { i16, i8, i8 }
%class.Vector.7 = type { %class.vector_memory.8 }
%class.vector_memory.8 = type { %class.String*, i32, i32 }
%class.String = type { %"struct.String::rep_t" }
%"struct.String::rep_t" = type { i8*, i32, %"struct.String::memo_t"* }
%"struct.String::memo_t" = type { i32, i32, i32, [8 x i8] }
%class.ErrorHandler = type <{ i32 (...)**, i32, [4 x i8] }>
%class.Args = type { %class.ArgContext.base, i8, i8, i8, %class.Vector.7*, %class.Vector.9, %"struct.Args::Slot"*, [48 x i8] }
%class.ArgContext.base = type <{ %class.Element*, %class.ErrorHandler*, i8*, i8 }>
%class.Vector.9 = type { %class.vector_memory.10 }
%class.vector_memory.10 = type { %struct.char_array.11*, i32, i32 }
%struct.char_array.11 = type opaque
%"struct.Args::Slot" = type { i32 (...)**, %"struct.Args::Slot"* }
%class.Notifier = type <{ i32 (...)**, %class.NotifierSignal, i32, [4 x i8] }>
%"struct.NotifierSignal::vmpair" = type { %class.atomic_uint32_t*, i32 }
%class.TimestampArg = type { i8 }

$_ZNK7Element5inputEi = comdat any

$_ZN9Timestamp10assign_nowEv = comdat any

$_ZNK7Element6outputEi = comdat any

$_ZNK7Element4Port4pushEP6Packet = comdat any

$_ZN12DelayUnqueueD2Ev = comdat any

$_ZN12DelayUnqueueD0Ev = comdat any

$_ZNK12DelayUnqueue10class_nameEv = comdat any

$_ZNK12DelayUnqueue10port_countEv = comdat any

$_ZNK12DelayUnqueue10processingEv = comdat any

$__clang_call_terminate = comdat any

$_ZNK7Element4portEbi = comdat any

$_ZNK14NotifierSignal6activeEv = comdat any

$_Z14args_base_readI9TimestampEvP4ArgsPKciRT_ = comdat any

$_ZN4Args9base_readI9TimestampEEvPKciRT_ = comdat any

$_ZNK6String6lengthEv = comdat any

@_ZTV12DelayUnqueue = dso_local unnamed_addr constant { [29 x i8*] } { [29 x i8*] [i8* null, i8* bitcast ({ i8*, i8*, i8* }* @_ZTI12DelayUnqueue to i8*), i8* bitcast (void (%class.DelayUnqueue*)* @_ZN12DelayUnqueueD2Ev to i8*), i8* bitcast (void (%class.DelayUnqueue*)* @_ZN12DelayUnqueueD0Ev to i8*), i8* bitcast (void (%class.Element*, i32, %class.Packet*)* @_ZN7Element4pushEiP6Packet to i8*), i8* bitcast (%class.Packet* (%class.Element*, i32)* @_ZN7Element4pullEi to i8*), i8* bitcast (%class.Packet* (%class.Element*, %class.Packet*)* @_ZN7Element13simple_actionEP6Packet to i8*), i8* bitcast (i1 (%class.DelayUnqueue*, %class.Task*)* @_ZN12DelayUnqueue8run_taskEP4Task to i8*), i8* bitcast (void (%class.Element*, %class.Timer*)* @_ZN7Element9run_timerEP5Timer to i8*), i8* bitcast (void (%class.Element*, i32, i32)* @_ZN7Element8selectedEii to i8*), i8* bitcast (void (%class.Element*, i32)* @_ZN7Element8selectedEi to i8*), i8* bitcast (i8* (%class.DelayUnqueue*)* @_ZNK12DelayUnqueue10class_nameEv to i8*), i8* bitcast (i8* (%class.DelayUnqueue*)* @_ZNK12DelayUnqueue10port_countEv to i8*), i8* bitcast (i8* (%class.DelayUnqueue*)* @_ZNK12DelayUnqueue10processingEv to i8*), i8* bitcast (i8* (%class.Element*)* @_ZNK7Element9flow_codeEv to i8*), i8* bitcast (i8* (%class.Element*)* @_ZNK7Element5flagsEv to i8*), i8* bitcast (i8* (%class.Element*, i8*)* @_ZN7Element4castEPKc to i8*), i8* bitcast (i8* (%class.Element*, i1, i32, i8*)* @_ZN7Element9port_castEbiPKc to i8*), i8* bitcast (i32 (%class.Element*)* @_ZNK7Element15configure_phaseEv to i8*), i8* bitcast (i32 (%class.DelayUnqueue*, %class.Vector.7*, %class.ErrorHandler*)* @_ZN12DelayUnqueue9configureER6VectorI6StringEP12ErrorHandler to i8*), i8* bitcast (void (%class.DelayUnqueue*)* @_ZN12DelayUnqueue12add_handlersEv to i8*), i8* bitcast (i32 (%class.DelayUnqueue*, %class.ErrorHandler*)* @_ZN12DelayUnqueue10initializeEP12ErrorHandler to i8*), i8* bitcast (void (%class.Element*, %class.Element*, %class.ErrorHandler*)* @_ZN7Element10take_stateEPS_P12ErrorHandler to i8*), i8* bitcast (%class.Element* (%class.Element*)* @_ZNK7Element15hotswap_elementEv to i8*), i8* bitcast (void (%class.DelayUnqueue*, i32)* @_ZN12DelayUnqueue7cleanupEN7Element12CleanupStageE to i8*), i8* bitcast (void (%class.String*, %class.Element*)* @_ZNK7Element11declarationEv to i8*), i8* bitcast (i1 (%class.Element*)* @_ZNK7Element20can_live_reconfigureEv to i8*), i8* bitcast (i32 (%class.Element*, %class.Vector.7*, %class.ErrorHandler*)* @_ZN7Element16live_reconfigureER6VectorI6StringEP12ErrorHandler to i8*), i8* bitcast (i32 (%class.Element*, i32, i8*)* @_ZN7Element5llrpcEjPv to i8*)] }, align 8
@.str = private unnamed_addr constant [6 x i8] c"DELAY\00", align 1
@.str.1 = private unnamed_addr constant [6 x i8] c"delay\00", align 1
@_ZTVN10__cxxabiv120__si_class_type_infoE = external global i8*
@_ZTS12DelayUnqueue = dso_local constant [15 x i8] c"12DelayUnqueue\00", align 1
@_ZTI7Element = external constant i8*
@_ZTI12DelayUnqueue = dso_local constant { i8*, i8*, i8* } { i8* bitcast (i8** getelementptr inbounds (i8*, i8** @_ZTVN10__cxxabiv120__si_class_type_infoE, i64 2) to i8*), i8* getelementptr inbounds ([15 x i8], [15 x i8]* @_ZTS12DelayUnqueue, i32 0, i32 0), i8* bitcast (i8** @_ZTI7Element to i8*) }, align 8
@_ZN14NotifierSignal12static_valueE = external global %class.atomic_uint32_t, align 4
@.str.2 = private unnamed_addr constant [47 x i8] c"(unsigned) port < (unsigned) _nports[isoutput]\00", align 1
@.str.3 = private unnamed_addr constant [30 x i8] c"../dummy_inc/click/element.hh\00", align 1
@__PRETTY_FUNCTION__._ZNK7Element4portEbi = private unnamed_addr constant [52 x i8] c"const Element::Port &Element::port(bool, int) const\00", align 1
@.str.4 = private unnamed_addr constant [3 x i8] c"_e\00", align 1
@__PRETTY_FUNCTION__._ZNK7Element4Port4pullEv = private unnamed_addr constant [36 x i8] c"Packet *Element::Port::pull() const\00", align 1
@.str.5 = private unnamed_addr constant [8 x i8] c"_e && p\00", align 1
@__PRETTY_FUNCTION__._ZNK7Element4Port4pushEP6Packet = private unnamed_addr constant [41 x i8] c"void Element::Port::push(Packet *) const\00", align 1
@_ZN13TimestampWarp4kindE = external local_unnamed_addr global i32, align 4
@_ZN6String9null_dataE = external constant i8, align 1
@.str.6 = private unnamed_addr constant [18 x i8] c"_r.memo->refcount\00", align 1
@.str.7 = private unnamed_addr constant [29 x i8] c"../dummy_inc/click/string.hh\00", align 1
@__PRETTY_FUNCTION__._ZNK6String5derefEv = private unnamed_addr constant [27 x i8] c"void String::deref() const\00", align 1
@.str.8 = private unnamed_addr constant [13 x i8] c"DelayUnqueue\00", align 1
@_ZN7Element9PORTS_1_1E = external constant [0 x i8], align 1
@_ZN7Element12PULL_TO_PUSHE = external constant [0 x i8], align 1

@_ZN12DelayUnqueueC1Ev = dso_local unnamed_addr alias void (%class.DelayUnqueue*), void (%class.DelayUnqueue*)* @_ZN12DelayUnqueueC2Ev

; Function Attrs: sspstrong uwtable
define dso_local void @_ZN12DelayUnqueueC2Ev(%class.DelayUnqueue* %0) unnamed_addr #0 align 2 personality i8* bitcast (i32 (...)* @__gxx_personality_v0 to i8*) !dbg !2550 {
  call void @llvm.dbg.value(metadata %class.DelayUnqueue* %0, metadata !3733, metadata !DIExpression()), !dbg !3735
  %2 = bitcast %class.DelayUnqueue* %0 to %class.Element*, !dbg !3736
  tail call void @_ZN7ElementC2Ev(%class.Element* %2), !dbg !3737
  %3 = getelementptr %class.DelayUnqueue, %class.DelayUnqueue* %0, i64 0, i32 0, i32 0, !dbg !3736
  store i32 (...)** bitcast (i8** getelementptr inbounds ({ [29 x i8*] }, { [29 x i8*] }* @_ZTV12DelayUnqueue, i64 0, inrange i32 0, i64 2) to i32 (...)**), i32 (...)*** %3, align 8, !dbg !3736, !tbaa !3738
  %4 = getelementptr inbounds %class.DelayUnqueue, %class.DelayUnqueue* %0, i64 0, i32 1, !dbg !3741
  call void @llvm.dbg.value(metadata %class.DelayUnqueue* %0, metadata !3742, metadata !DIExpression(DW_OP_plus_uconst, 120, DW_OP_stack_value)), !dbg !3745
  call void @llvm.dbg.value(metadata %class.DelayUnqueue* %0, metadata !3747, metadata !DIExpression(DW_OP_plus_uconst, 120, DW_OP_stack_value)), !dbg !3752
  call void @llvm.dbg.value(metadata i32 0, metadata !3750, metadata !DIExpression()), !dbg !3752
  call void @llvm.dbg.value(metadata i32 0, metadata !3751, metadata !DIExpression()), !dbg !3752
  %5 = getelementptr inbounds %class.DelayUnqueue, %class.DelayUnqueue* %0, i64 0, i32 3, !dbg !3755
  call void @llvm.dbg.value(metadata %class.Task* %5, metadata !3756, metadata !DIExpression()), !dbg !3760
  call void @llvm.dbg.value(metadata %class.Element* %2, metadata !3759, metadata !DIExpression()), !dbg !3760
  %6 = getelementptr inbounds %class.DelayUnqueue, %class.DelayUnqueue* %0, i64 0, i32 3, i32 2, !dbg !3762
  %7 = bitcast %class.Packet** %4 to i8*, !dbg !3762
  call void @llvm.memset.p0i8.i64(i8* nonnull align 8 dereferenceable(40) %7, i8 0, i64 40, i1 false), !dbg !3763
  store i32 -1, i32* %6, align 8, !dbg !3762, !tbaa !3764
  %8 = getelementptr inbounds %class.DelayUnqueue, %class.DelayUnqueue* %0, i64 0, i32 3, i32 4, !dbg !3769
  store i1 (%class.Task*, i8*)* null, i1 (%class.Task*, i8*)** %8, align 8, !dbg !3769, !tbaa !3770
  %9 = getelementptr inbounds %class.DelayUnqueue, %class.DelayUnqueue* %0, i64 0, i32 3, i32 5, !dbg !3771
  %10 = bitcast i8** %9 to %class.DelayUnqueue**, !dbg !3771
  store %class.DelayUnqueue* %0, %class.DelayUnqueue** %10, align 8, !dbg !3771, !tbaa !3772
  %11 = getelementptr inbounds %class.DelayUnqueue, %class.DelayUnqueue* %0, i64 0, i32 3, i32 6, !dbg !3773
  %12 = getelementptr inbounds %class.DelayUnqueue, %class.DelayUnqueue* %0, i64 0, i32 3, i32 3, !dbg !3774
  %13 = bitcast %"union.Task::Status"* %12 to %struct.anon*, !dbg !3776
  %14 = bitcast %"union.Task::Status"* %12 to i16*, !dbg !3776
  %15 = bitcast %class.RouterThread** %11 to i8*, !dbg !3777
  tail call void @llvm.memset.p0i8.i64(i8* nonnull align 8 dereferenceable(16) %15, i8 0, i64 16, i1 false), !dbg !3778
  store i16 -2, i16* %14, align 4, !dbg !3777, !tbaa !3779
  %16 = getelementptr inbounds %struct.anon, %struct.anon* %13, i64 0, i32 2, !dbg !3780
  store i8 0, i8* %16, align 1, !dbg !3781, !tbaa !3779
  %17 = getelementptr inbounds %struct.anon, %struct.anon* %13, i64 0, i32 1, !dbg !3782
  store i8 0, i8* %17, align 2, !dbg !3783, !tbaa !3779
  %18 = getelementptr inbounds %class.DelayUnqueue, %class.DelayUnqueue* %0, i64 0, i32 3, i32 8, !dbg !3784
  %19 = bitcast %"union.Task::Pending"* %18 to i64*, !dbg !3785
  store i64 0, i64* %19, align 8, !dbg !3786, !tbaa !3779
  %20 = getelementptr inbounds %class.DelayUnqueue, %class.DelayUnqueue* %0, i64 0, i32 4, !dbg !3787
  invoke void @_ZN5TimerC1EP4Task(%class.Timer* nonnull %20, %class.Task* nonnull %5)
          to label %21 unwind label %24, !dbg !3787

21:                                               ; preds = %1
  call void @llvm.dbg.value(metadata %class.DelayUnqueue* %0, metadata !3788, metadata !DIExpression(DW_OP_plus_uconst, 248, DW_OP_stack_value)), !dbg !3792
  %22 = getelementptr inbounds %class.DelayUnqueue, %class.DelayUnqueue* %0, i64 0, i32 5, i32 1, !dbg !3794
  store i32 1, i32* %22, align 8, !dbg !3794, !tbaa !3795
  %23 = getelementptr inbounds %class.DelayUnqueue, %class.DelayUnqueue* %0, i64 0, i32 5, i32 0, i32 0, !dbg !3797
  store %class.atomic_uint32_t* @_ZN14NotifierSignal12static_valueE, %class.atomic_uint32_t** %23, align 8, !dbg !3799, !tbaa !3779
  ret void, !dbg !3800

24:                                               ; preds = %1
  %25 = landingpad { i8*, i32 }
          cleanup, !dbg !3800
  tail call void @_ZN4TaskD1Ev(%class.Task* nonnull %5) #13, !dbg !3801
  tail call void @_ZN7ElementD2Ev(%class.Element* %2) #13, !dbg !3801
  resume { i8*, i32 } %25, !dbg !3801
}

; Function Attrs: nounwind readnone speculatable willreturn
declare void @llvm.dbg.declare(metadata, metadata, metadata) #1

declare void @_ZN7ElementC2Ev(%class.Element*) unnamed_addr #2

declare i32 @__gxx_personality_v0(...)

declare void @_ZN5TimerC1EP4Task(%class.Timer*, %class.Task*) unnamed_addr #2

; Function Attrs: nounwind
declare void @_ZN4TaskD1Ev(%class.Task*) unnamed_addr #3

; Function Attrs: nounwind
declare void @_ZN7ElementD2Ev(%class.Element*) unnamed_addr #3

; Function Attrs: sspstrong uwtable
define dso_local i32 @_ZN12DelayUnqueue9configureER6VectorI6StringEP12ErrorHandler(%class.DelayUnqueue* %0, %class.Vector.7* dereferenceable(16) %1, %class.ErrorHandler* %2) unnamed_addr #0 align 2 personality i8* bitcast (i32 (...)* @__gxx_personality_v0 to i8*) !dbg !3803 {
  %4 = alloca %class.Args, align 8
  call void @llvm.dbg.value(metadata %class.DelayUnqueue* %0, metadata !3805, metadata !DIExpression()), !dbg !3808
  call void @llvm.dbg.value(metadata %class.Vector.7* %1, metadata !3806, metadata !DIExpression()), !dbg !3808
  call void @llvm.dbg.value(metadata %class.ErrorHandler* %2, metadata !3807, metadata !DIExpression()), !dbg !3808
  %5 = bitcast %class.Args* %4 to i8*, !dbg !3809
  call void @llvm.lifetime.start.p0i8(i64 112, i8* nonnull %5) #13, !dbg !3809
  %6 = bitcast %class.DelayUnqueue* %0 to %class.Element*, !dbg !3810
  call void @_ZN4ArgsC1ERK6VectorI6StringEPK7ElementP12ErrorHandler(%class.Args* nonnull %4, %class.Vector.7* nonnull dereferenceable(16) %1, %class.Element* %6, %class.ErrorHandler* %2), !dbg !3809
  %7 = getelementptr inbounds %class.DelayUnqueue, %class.DelayUnqueue* %0, i64 0, i32 2, !dbg !3811
  call void @llvm.dbg.value(metadata %class.Args* %4, metadata !3812, metadata !DIExpression()), !dbg !3820
  call void @llvm.dbg.value(metadata i8* getelementptr inbounds ([6 x i8], [6 x i8]* @.str, i64 0, i64 0), metadata !3818, metadata !DIExpression()), !dbg !3820
  call void @llvm.dbg.value(metadata %class.Timestamp* %7, metadata !3819, metadata !DIExpression()), !dbg !3820
  call void @llvm.dbg.value(metadata %class.Args* %4, metadata !3822, metadata !DIExpression()), !dbg !3831
  call void @llvm.dbg.value(metadata i8* getelementptr inbounds ([6 x i8], [6 x i8]* @.str, i64 0, i64 0), metadata !3828, metadata !DIExpression()), !dbg !3831
  call void @llvm.dbg.value(metadata i32 3, metadata !3829, metadata !DIExpression()), !dbg !3831
  call void @llvm.dbg.value(metadata %class.Timestamp* %7, metadata !3830, metadata !DIExpression()), !dbg !3831
  invoke void @_Z14args_base_readI9TimestampEvP4ArgsPKciRT_(%class.Args* nonnull %4, i8* getelementptr inbounds ([6 x i8], [6 x i8]* @.str, i64 0, i64 0), i32 3, %class.Timestamp* nonnull dereferenceable(8) %7)
          to label %8 unwind label %11, !dbg !3833

8:                                                ; preds = %3
  %9 = invoke i32 @_ZN4Args8completeEv(%class.Args* nonnull %4)
          to label %10 unwind label %11, !dbg !3834

10:                                               ; preds = %8
  call void @_ZN4ArgsD1Ev(%class.Args* nonnull %4) #13, !dbg !3835
  call void @llvm.lifetime.end.p0i8(i64 112, i8* nonnull %5) #13, !dbg !3835
  ret i32 %9, !dbg !3835

11:                                               ; preds = %3, %8
  %12 = landingpad { i8*, i32 }
          cleanup, !dbg !3836
  call void @_ZN4ArgsD1Ev(%class.Args* nonnull %4) #13, !dbg !3835
  call void @llvm.lifetime.end.p0i8(i64 112, i8* nonnull %5) #13, !dbg !3835
  resume { i8*, i32 } %12, !dbg !3835
}

; Function Attrs: argmemonly nounwind willreturn
declare void @llvm.lifetime.start.p0i8(i64 immarg, i8* nocapture) #4

declare void @_ZN4ArgsC1ERK6VectorI6StringEPK7ElementP12ErrorHandler(%class.Args*, %class.Vector.7* dereferenceable(16), %class.Element*, %class.ErrorHandler*) unnamed_addr #2

declare i32 @_ZN4Args8completeEv(%class.Args*) local_unnamed_addr #2

; Function Attrs: nounwind
declare void @_ZN4ArgsD1Ev(%class.Args*) unnamed_addr #3

; Function Attrs: argmemonly nounwind willreturn
declare void @llvm.lifetime.end.p0i8(i64 immarg, i8* nocapture) #4

; Function Attrs: sspstrong uwtable
define dso_local i32 @_ZN12DelayUnqueue10initializeEP12ErrorHandler(%class.DelayUnqueue* %0, %class.ErrorHandler* %1) unnamed_addr #0 align 2 personality i8* bitcast (i32 (...)* @__gxx_personality_v0 to i8*) !dbg !3837 {
  %3 = alloca %class.NotifierSignal, align 8
  call void @llvm.dbg.value(metadata %class.DelayUnqueue* %0, metadata !3839, metadata !DIExpression()), !dbg !3841
  call void @llvm.dbg.value(metadata %class.ErrorHandler* %1, metadata !3840, metadata !DIExpression()), !dbg !3841
  %4 = bitcast %class.DelayUnqueue* %0 to %class.Element*, !dbg !3842
  %5 = getelementptr inbounds %class.DelayUnqueue, %class.DelayUnqueue* %0, i64 0, i32 3, !dbg !3843
  call void @llvm.dbg.value(metadata %class.Element* %4, metadata !3844, metadata !DIExpression()), !dbg !3854
  call void @llvm.dbg.value(metadata %class.Task* %5, metadata !3852, metadata !DIExpression()), !dbg !3854
  call void @llvm.dbg.value(metadata %class.ErrorHandler* %1, metadata !3853, metadata !DIExpression()), !dbg !3854
  tail call void @_ZN12ScheduleInfo15initialize_taskEP7ElementP4TaskbP12ErrorHandler(%class.Element* %4, %class.Task* nonnull %5, i1 zeroext true, %class.ErrorHandler* %1), !dbg !3856
  %6 = getelementptr inbounds %class.DelayUnqueue, %class.DelayUnqueue* %0, i64 0, i32 4, !dbg !3857
  tail call void @_ZN5Timer10initializeEP7Elementb(%class.Timer* nonnull %6, %class.Element* %4, i1 zeroext false), !dbg !3858
  %7 = bitcast %class.NotifierSignal* %3 to i8*, !dbg !3859
  call void @llvm.lifetime.start.p0i8(i64 16, i8* nonnull %7) #13, !dbg !3859
  call void @llvm.dbg.value(metadata %class.Element* %4, metadata !3860, metadata !DIExpression()), !dbg !3868
  call void @llvm.dbg.value(metadata i32 0, metadata !3866, metadata !DIExpression()), !dbg !3868
  call void @llvm.dbg.value(metadata %class.Task* %5, metadata !3867, metadata !DIExpression()), !dbg !3868
  %8 = bitcast %class.Task* %5 to i8*, !dbg !3870
  call void @_ZN8Notifier21upstream_empty_signalEP7ElementiPFvPvPS_ES2_(%class.NotifierSignal* nonnull sret %3, %class.Element* %4, i32 0, void (i8*, %class.Notifier*)* null, i8* nonnull %8), !dbg !3871
  %9 = getelementptr inbounds %class.DelayUnqueue, %class.DelayUnqueue* %0, i64 0, i32 5, !dbg !3872
  call void @llvm.dbg.value(metadata %class.NotifierSignal* %9, metadata !3873, metadata !DIExpression()), !dbg !3877
  call void @llvm.dbg.value(metadata %class.NotifierSignal* %3, metadata !3876, metadata !DIExpression()), !dbg !3877
  %10 = icmp eq %class.NotifierSignal* %9, %3, !dbg !3879
  br i1 %10, label %30, label %11, !dbg !3881, !prof !3882, !misexpect !3883

11:                                               ; preds = %2
  %12 = getelementptr inbounds %class.DelayUnqueue, %class.DelayUnqueue* %0, i64 0, i32 5, i32 1, !dbg !3884
  %13 = load i32, i32* %12, align 8, !dbg !3884, !tbaa !3795
  %14 = icmp eq i32 %13, 0, !dbg !3884
  br i1 %14, label %15, label %21, !dbg !3887, !prof !3882, !misexpect !3888

15:                                               ; preds = %11
  %16 = bitcast %class.NotifierSignal* %9 to %"struct.NotifierSignal::vmpair"**, !dbg !3889
  %17 = load %"struct.NotifierSignal::vmpair"*, %"struct.NotifierSignal::vmpair"** %16, align 8, !dbg !3889, !tbaa !3779
  %18 = icmp eq %"struct.NotifierSignal::vmpair"* %17, null, !dbg !3890
  br i1 %18, label %21, label %19, !dbg !3890

19:                                               ; preds = %15
  %20 = bitcast %"struct.NotifierSignal::vmpair"* %17 to i8*, !dbg !3890
  call void @_ZdaPv(i8* %20) #14, !dbg !3890
  br label %21, !dbg !3890

21:                                               ; preds = %19, %15, %11
  %22 = getelementptr inbounds %class.NotifierSignal, %class.NotifierSignal* %3, i64 0, i32 1, !dbg !3891
  %23 = load i32, i32* %22, align 8, !dbg !3891, !tbaa !3795
  store i32 %23, i32* %12, align 8, !dbg !3892, !tbaa !3795
  %24 = icmp eq i32 %23, 0, !dbg !3893
  br i1 %24, label %29, label %25, !dbg !3895, !prof !3882, !misexpect !3883

25:                                               ; preds = %21
  %26 = bitcast %class.NotifierSignal* %3 to i64*, !dbg !3896
  %27 = load i64, i64* %26, align 8, !dbg !3896, !tbaa !3779
  %28 = bitcast %class.NotifierSignal* %9 to i64*, !dbg !3897
  store i64 %27, i64* %28, align 8, !dbg !3897, !tbaa !3779
  br label %30, !dbg !3898

29:                                               ; preds = %21
  invoke void @_ZN14NotifierSignal14hard_assign_vmERKS_(%class.NotifierSignal* nonnull %9, %class.NotifierSignal* nonnull dereferenceable(16) %3)
          to label %30 unwind label %41, !dbg !3899

30:                                               ; preds = %25, %2, %29
  call void @llvm.dbg.value(metadata %class.NotifierSignal* %3, metadata !3900, metadata !DIExpression()) #13, !dbg !3903
  %31 = getelementptr inbounds %class.NotifierSignal, %class.NotifierSignal* %3, i64 0, i32 1, !dbg !3905
  %32 = load i32, i32* %31, align 8, !dbg !3905, !tbaa !3795
  %33 = icmp eq i32 %32, 0, !dbg !3905
  br i1 %33, label %34, label %40, !dbg !3908, !prof !3882, !misexpect !3888

34:                                               ; preds = %30
  %35 = bitcast %class.NotifierSignal* %3 to %"struct.NotifierSignal::vmpair"**, !dbg !3909
  %36 = load %"struct.NotifierSignal::vmpair"*, %"struct.NotifierSignal::vmpair"** %35, align 8, !dbg !3909, !tbaa !3779
  %37 = icmp eq %"struct.NotifierSignal::vmpair"* %36, null, !dbg !3910
  br i1 %37, label %40, label %38, !dbg !3910

38:                                               ; preds = %34
  %39 = bitcast %"struct.NotifierSignal::vmpair"* %36 to i8*, !dbg !3910
  call void @_ZdaPv(i8* %39) #14, !dbg !3910
  br label %40, !dbg !3910

40:                                               ; preds = %30, %34, %38
  call void @llvm.lifetime.end.p0i8(i64 16, i8* nonnull %7) #13, !dbg !3872
  ret i32 0, !dbg !3911

41:                                               ; preds = %29
  %42 = landingpad { i8*, i32 }
          cleanup, !dbg !3912
  call void @llvm.dbg.value(metadata %class.NotifierSignal* %3, metadata !3900, metadata !DIExpression()) #13, !dbg !3913
  %43 = load i32, i32* %22, align 8, !dbg !3915, !tbaa !3795
  %44 = icmp eq i32 %43, 0, !dbg !3915
  br i1 %44, label %45, label %51, !dbg !3916, !prof !3882, !misexpect !3888

45:                                               ; preds = %41
  %46 = bitcast %class.NotifierSignal* %3 to %"struct.NotifierSignal::vmpair"**, !dbg !3917
  %47 = load %"struct.NotifierSignal::vmpair"*, %"struct.NotifierSignal::vmpair"** %46, align 8, !dbg !3917, !tbaa !3779
  %48 = icmp eq %"struct.NotifierSignal::vmpair"* %47, null, !dbg !3918
  br i1 %48, label %51, label %49, !dbg !3918

49:                                               ; preds = %45
  %50 = bitcast %"struct.NotifierSignal::vmpair"* %47 to i8*, !dbg !3918
  call void @_ZdaPv(i8* %50) #14, !dbg !3918
  br label %51, !dbg !3918

51:                                               ; preds = %41, %45, %49
  call void @llvm.lifetime.end.p0i8(i64 16, i8* nonnull %7) #13, !dbg !3872
  resume { i8*, i32 } %42, !dbg !3872
}

declare void @_ZN5Timer10initializeEP7Elementb(%class.Timer*, %class.Element*, i1 zeroext) local_unnamed_addr #2

; Function Attrs: sspstrong uwtable
define dso_local void @_ZN12DelayUnqueue7cleanupEN7Element12CleanupStageE(%class.DelayUnqueue* nocapture readonly %0, i32 %1) unnamed_addr #0 align 2 !dbg !3919 {
  call void @llvm.dbg.value(metadata %class.DelayUnqueue* %0, metadata !3921, metadata !DIExpression()), !dbg !3923
  call void @llvm.dbg.value(metadata i32 undef, metadata !3922, metadata !DIExpression()), !dbg !3923
  %3 = getelementptr inbounds %class.DelayUnqueue, %class.DelayUnqueue* %0, i64 0, i32 1, !dbg !3924
  %4 = load %class.Packet*, %class.Packet** %3, align 8, !dbg !3924, !tbaa !3926
  %5 = icmp eq %class.Packet* %4, null, !dbg !3924
  br i1 %5, label %7, label %6, !dbg !3930

6:                                                ; preds = %2
  tail call void @_ZN6Packet4killEv(%class.Packet* nonnull %4), !dbg !3931
  br label %7, !dbg !3932

7:                                                ; preds = %2, %6
  ret void, !dbg !3933
}

declare void @_ZN6Packet4killEv(%class.Packet*) local_unnamed_addr #2

; Function Attrs: sspstrong uwtable
define dso_local zeroext i1 @_ZN12DelayUnqueue8run_taskEP4Task(%class.DelayUnqueue* %0, %class.Task* nocapture readnone %1) unnamed_addr #0 align 2 !dbg !3934 {
  %3 = alloca %class.Timestamp, align 8
  call void @llvm.dbg.declare(metadata %class.Timestamp* %3, metadata !3944, metadata !DIExpression()), !dbg !3947
  %4 = alloca %class.Timestamp, align 8
  call void @llvm.dbg.declare(metadata %class.Timestamp* %4, metadata !3956, metadata !DIExpression()), !dbg !3959
  %5 = alloca %class.Timestamp, align 8
  %6 = alloca %class.Timestamp, align 8
  call void @llvm.dbg.declare(metadata %class.Timestamp* %6, metadata !3961, metadata !DIExpression()), !dbg !3964
  call void @llvm.dbg.value(metadata %class.DelayUnqueue* %0, metadata !3936, metadata !DIExpression()), !dbg !3966
  call void @llvm.dbg.value(metadata %class.Task* undef, metadata !3937, metadata !DIExpression()), !dbg !3966
  call void @llvm.dbg.value(metadata i8 0, metadata !3938, metadata !DIExpression()), !dbg !3966
  %7 = getelementptr inbounds %class.DelayUnqueue, %class.DelayUnqueue* %0, i64 0, i32 1, !dbg !3967
  %8 = bitcast %class.DelayUnqueue* %0 to %class.Element*, !dbg !3967
  %9 = getelementptr inbounds %class.DelayUnqueue, %class.DelayUnqueue* %0, i64 0, i32 2, i32 0, i32 0, !dbg !3969
  %10 = bitcast %class.Timestamp* %6 to i8*, !dbg !3978
  %11 = getelementptr inbounds %class.Timestamp, %class.Timestamp* %6, i64 0, i32 0, i32 0, !dbg !3978
  %12 = load %class.Packet*, %class.Packet** %7, align 8, !dbg !3979, !tbaa !3926
  %13 = icmp eq %class.Packet* %12, null, !dbg !3980
  br label %14, !dbg !3980

14:                                               ; preds = %88, %2
  %15 = phi i1 [ %13, %2 ], [ true, %88 ]
  %16 = phi i8 [ 0, %2 ], [ 1, %88 ], !dbg !3966
  call void @llvm.dbg.value(metadata i8 %16, metadata !3938, metadata !DIExpression()), !dbg !3966
  call void @llvm.dbg.label(metadata !3943), !dbg !3981
  br i1 %15, label %17, label %59, !dbg !3982

17:                                               ; preds = %14
  %18 = call dereferenceable(16) %"class.Element::Port"* @_ZNK7Element5inputEi(%class.Element* %8, i32 0), !dbg !3983
  call void @llvm.dbg.value(metadata %"class.Element::Port"* %18, metadata !3984, metadata !DIExpression()), !dbg !4020
  %19 = getelementptr inbounds %"class.Element::Port", %"class.Element::Port"* %18, i64 0, i32 0, !dbg !4022
  %20 = load %class.Element*, %class.Element** %19, align 8, !dbg !4022, !tbaa !4023
  %21 = icmp eq %class.Element* %20, null, !dbg !4022
  br i1 %21, label %22, label %23, !dbg !4022

22:                                               ; preds = %17
  call void @__assert_fail(i8* getelementptr inbounds ([3 x i8], [3 x i8]* @.str.4, i64 0, i64 0), i8* getelementptr inbounds ([30 x i8], [30 x i8]* @.str.3, i64 0, i64 0), i32 657, i8* getelementptr inbounds ([36 x i8], [36 x i8]* @__PRETTY_FUNCTION__._ZNK7Element4Port4pullEv, i64 0, i64 0)) #15, !dbg !4022
  unreachable, !dbg !4022

23:                                               ; preds = %17
  %24 = getelementptr inbounds %"class.Element::Port", %"class.Element::Port"* %18, i64 0, i32 1, !dbg !4025
  %25 = load i32, i32* %24, align 8, !dbg !4025, !tbaa !4026
  %26 = bitcast %class.Element* %20 to %class.Packet* (%class.Element*, i32)***, !dbg !4027
  %27 = load %class.Packet* (%class.Element*, i32)**, %class.Packet* (%class.Element*, i32)*** %26, align 8, !dbg !4027, !tbaa !3738
  %28 = getelementptr inbounds %class.Packet* (%class.Element*, i32)*, %class.Packet* (%class.Element*, i32)** %27, i64 3, !dbg !4027
  %29 = load %class.Packet* (%class.Element*, i32)*, %class.Packet* (%class.Element*, i32)** %28, align 8, !dbg !4027
  %30 = call %class.Packet* %29(%class.Element* nonnull %20, i32 %25), !dbg !4027
  call void @llvm.dbg.value(metadata %class.Packet* %30, metadata !4018, metadata !DIExpression()), !dbg !4020
  store %class.Packet* %30, %class.Packet** %7, align 8, !dbg !4028, !tbaa !3926
  %31 = icmp eq %class.Packet* %30, null, !dbg !4029
  br i1 %31, label %91, label %32, !dbg !4030

32:                                               ; preds = %23
  %33 = call dereferenceable(8) %class.Timestamp* @_ZN6Packet14timestamp_annoEv(%class.Packet* nonnull %30), !dbg !4031
  call void @llvm.dbg.value(metadata %class.Timestamp* %33, metadata !4033, metadata !DIExpression()), !dbg !4037
  %34 = getelementptr inbounds %class.Timestamp, %class.Timestamp* %33, i64 0, i32 0, i32 0, !dbg !4039
  %35 = load i64, i64* %34, align 8, !dbg !4039, !tbaa !3779
  %36 = icmp slt i64 %35, 0, !dbg !4039
  br i1 %36, label %37, label %41, !dbg !4041, !prof !3882, !misexpect !3888

37:                                               ; preds = %32
  %38 = xor i64 %35, -1, !dbg !4042
  call void @llvm.dbg.value(metadata i64 %38, metadata !4043, metadata !DIExpression()), !dbg !4047
  call void @llvm.dbg.value(metadata i32 1000000000, metadata !4046, metadata !DIExpression()), !dbg !4047
  call void @llvm.dbg.value(metadata i64 %38, metadata !4049, metadata !DIExpression()), !dbg !4056
  call void @llvm.dbg.value(metadata i32 1000000000, metadata !4055, metadata !DIExpression()), !dbg !4056
  %39 = sdiv i64 %38, 1000000000, !dbg !4058
  %40 = xor i64 %39, -1, !dbg !4059
  br label %43, !dbg !4060

41:                                               ; preds = %32
  call void @llvm.dbg.value(metadata i64 %35, metadata !4043, metadata !DIExpression()), !dbg !4061
  call void @llvm.dbg.value(metadata i32 1000000000, metadata !4046, metadata !DIExpression()), !dbg !4061
  call void @llvm.dbg.value(metadata i64 %35, metadata !4049, metadata !DIExpression()), !dbg !4063
  call void @llvm.dbg.value(metadata i32 1000000000, metadata !4055, metadata !DIExpression()), !dbg !4063
  %42 = udiv i64 %35, 1000000000, !dbg !4065
  br label %43, !dbg !4066

43:                                               ; preds = %37, %41
  %44 = phi i64 [ %40, %37 ], [ %42, %41 ]
  %45 = trunc i64 %44 to i32, !dbg !4067
  %46 = icmp eq i32 %45, 0, !dbg !4068
  br i1 %46, label %47, label %50, !dbg !4069

47:                                               ; preds = %43
  %48 = load %class.Packet*, %class.Packet** %7, align 8, !dbg !4070, !tbaa !3926
  %49 = call dereferenceable(8) %class.Timestamp* @_ZN6Packet14timestamp_annoEv(%class.Packet* %48), !dbg !4071
  call void @_ZN9Timestamp10assign_nowEv(%class.Timestamp* nonnull %49), !dbg !4072
  br label %50, !dbg !4070

50:                                               ; preds = %47, %43
  %51 = load %class.Packet*, %class.Packet** %7, align 8, !dbg !4073, !tbaa !3926
  %52 = call dereferenceable(8) %class.Timestamp* @_ZN6Packet14timestamp_annoEv(%class.Packet* %51), !dbg !4074
  call void @llvm.dbg.value(metadata %class.Timestamp* %52, metadata !3974, metadata !DIExpression()), !dbg !3969
  call void @llvm.dbg.value(metadata %class.DelayUnqueue* %0, metadata !3975, metadata !DIExpression(DW_OP_plus_uconst, 120, DW_OP_stack_value)), !dbg !3969
  %53 = load i64, i64* %9, align 8, !dbg !4075, !tbaa !3779
  %54 = getelementptr inbounds %class.Timestamp, %class.Timestamp* %52, i64 0, i32 0, i32 0, !dbg !4076
  %55 = load i64, i64* %54, align 8, !dbg !4077, !tbaa !3779
  %56 = add nsw i64 %55, %53, !dbg !4077
  store i64 %56, i64* %54, align 8, !dbg !4077, !tbaa !3779
  %57 = load %class.Packet*, %class.Packet** %7, align 8, !dbg !4078, !tbaa !3926
  %58 = icmp eq %class.Packet* %57, null, !dbg !4078
  br i1 %58, label %91, label %59, !dbg !4079

59:                                               ; preds = %14, %50
  call void @llvm.lifetime.start.p0i8(i64 8, i8* nonnull %10), !dbg !4080
  call void @_ZN9Timestamp10assign_nowEv(%class.Timestamp* nonnull %6), !dbg !4080
  %60 = load i64, i64* %11, align 8, !dbg !4081
  call void @llvm.lifetime.end.p0i8(i64 8, i8* nonnull %10), !dbg !4081
  call void @llvm.dbg.value(metadata i64 %60, metadata !3939, metadata !DIExpression()), !dbg !4082
  %61 = load %class.Packet*, %class.Packet** %7, align 8, !dbg !4083, !tbaa !3926
  %62 = call dereferenceable(8) %class.Timestamp* @_ZN6Packet14timestamp_annoEv(%class.Packet* %61), !dbg !4085
  call void @llvm.dbg.value(metadata %class.Timestamp* %62, metadata !4086, metadata !DIExpression()), !dbg !4092
  call void @llvm.dbg.value(metadata %class.Timestamp* undef, metadata !4091, metadata !DIExpression()), !dbg !4092
  call void @llvm.dbg.value(metadata %class.Timestamp* undef, metadata !4094, metadata !DIExpression()), !dbg !4098
  call void @llvm.dbg.value(metadata %class.Timestamp* %62, metadata !4097, metadata !DIExpression()), !dbg !4098
  %63 = getelementptr inbounds %class.Timestamp, %class.Timestamp* %62, i64 0, i32 0, i32 0, !dbg !4100
  %64 = load i64, i64* %63, align 8, !dbg !4100, !tbaa !3779
  %65 = icmp slt i64 %60, %64, !dbg !4101
  br i1 %65, label %66, label %88, !dbg !4102

66:                                               ; preds = %59
  call void @llvm.dbg.value(metadata i8 %16, metadata !3938, metadata !DIExpression()), !dbg !3966
  call void @llvm.dbg.value(metadata i8 %16, metadata !3938, metadata !DIExpression()), !dbg !3966
  call void @llvm.dbg.value(metadata i8 %16, metadata !3938, metadata !DIExpression()), !dbg !3966
  call void @llvm.dbg.value(metadata i8 %16, metadata !3938, metadata !DIExpression()), !dbg !3966
  call void @llvm.dbg.value(metadata i8 %16, metadata !3938, metadata !DIExpression()), !dbg !3966
  call void @llvm.dbg.value(metadata i8 %16, metadata !3938, metadata !DIExpression()), !dbg !3966
  %67 = load %class.Packet*, %class.Packet** %7, align 8, !dbg !4103, !tbaa !3926
  %68 = call dereferenceable(8) %class.Timestamp* @_ZN6Packet14timestamp_annoEv(%class.Packet* %67), !dbg !4104
  %69 = getelementptr inbounds %class.Timestamp, %class.Timestamp* %68, i64 0, i32 0, i32 0, !dbg !4103
  %70 = load i64, i64* %69, align 8, !dbg !4103, !tbaa.struct !4105
  %71 = load i32, i32* @_ZN13TimestampWarp4kindE, align 4, !dbg !4108, !tbaa !4114
  %72 = icmp sgt i32 %71, 1, !dbg !4116
  %73 = select i1 %72, i64 0, i64 500000, !dbg !4117
  call void @llvm.dbg.value(metadata i64 %70, metadata !4118, metadata !DIExpression()), !dbg !4124
  call void @llvm.dbg.value(metadata %class.Timestamp* undef, metadata !4123, metadata !DIExpression()), !dbg !4124
  call void @llvm.dbg.value(metadata %class.Timestamp* undef, metadata !4126, metadata !DIExpression()), !dbg !4130
  call void @llvm.dbg.value(metadata %class.Timestamp* undef, metadata !4129, metadata !DIExpression()), !dbg !4130
  %74 = sub nsw i64 %70, %73, !dbg !4132
  call void @llvm.dbg.value(metadata i64 %74, metadata !4118, metadata !DIExpression()), !dbg !4124
  call void @llvm.dbg.value(metadata i64 %74, metadata !3942, metadata !DIExpression()), !dbg !4082
  call void @llvm.dbg.value(metadata %class.Timestamp* undef, metadata !4086, metadata !DIExpression()), !dbg !4133
  call void @llvm.dbg.value(metadata %class.Timestamp* undef, metadata !4091, metadata !DIExpression()), !dbg !4133
  call void @llvm.dbg.value(metadata %class.Timestamp* undef, metadata !4094, metadata !DIExpression()), !dbg !4135
  call void @llvm.dbg.value(metadata %class.Timestamp* undef, metadata !4097, metadata !DIExpression()), !dbg !4135
  %75 = icmp slt i64 %60, %74, !dbg !4137
  br i1 %75, label %76, label %128, !dbg !4138

76:                                               ; preds = %66
  %77 = getelementptr inbounds %class.DelayUnqueue, %class.DelayUnqueue* %0, i64 0, i32 4, !dbg !4139
  call void @llvm.dbg.value(metadata %class.Timer* %77, metadata !3951, metadata !DIExpression()), !dbg !4140
  call void @llvm.dbg.value(metadata %class.Timestamp* undef, metadata !3952, metadata !DIExpression()), !dbg !4140
  %78 = bitcast %class.Timestamp* %5 to i8*, !dbg !4141
  call void @llvm.lifetime.start.p0i8(i64 8, i8* nonnull %78) #13, !dbg !4141
  %79 = bitcast %class.Timestamp* %4 to i8*, !dbg !4142
  call void @llvm.lifetime.start.p0i8(i64 8, i8* nonnull %79), !dbg !4142
  call void @llvm.dbg.value(metadata %class.Timestamp* %4, metadata !4145, metadata !DIExpression()), !dbg !4142
  call void @_ZN9Timestamp10assign_nowEbbb(%class.Timestamp* nonnull %4, i1 zeroext true, i1 zeroext true, i1 zeroext false), !dbg !4147
  %80 = getelementptr inbounds %class.Timestamp, %class.Timestamp* %4, i64 0, i32 0, i32 0, !dbg !4148
  %81 = load i64, i64* %80, align 8, !dbg !4148
  call void @llvm.lifetime.end.p0i8(i64 8, i8* nonnull %79), !dbg !4148
  call void @llvm.dbg.value(metadata i64 %74, metadata !4149, metadata !DIExpression()), !dbg !4153
  call void @llvm.dbg.value(metadata %class.Timestamp* undef, metadata !4152, metadata !DIExpression()), !dbg !4153
  call void @llvm.dbg.value(metadata %class.Timestamp* undef, metadata !3974, metadata !DIExpression()), !dbg !4155
  call void @llvm.dbg.value(metadata %class.Timestamp* undef, metadata !3975, metadata !DIExpression()), !dbg !4155
  %82 = add nsw i64 %81, %74, !dbg !4157
  call void @llvm.dbg.value(metadata i64 %82, metadata !4149, metadata !DIExpression()), !dbg !4153
  %83 = bitcast %class.Timestamp* %3 to i8*, !dbg !4158
  call void @llvm.lifetime.start.p0i8(i64 8, i8* nonnull %83), !dbg !4158
  call void @llvm.dbg.value(metadata %class.Timestamp* %3, metadata !4161, metadata !DIExpression()), !dbg !4158
  call void @_ZN9Timestamp10assign_nowEbbb(%class.Timestamp* nonnull %3, i1 zeroext true, i1 zeroext false, i1 zeroext false), !dbg !4163
  %84 = getelementptr inbounds %class.Timestamp, %class.Timestamp* %3, i64 0, i32 0, i32 0, !dbg !4164
  %85 = load i64, i64* %84, align 8, !dbg !4164
  call void @llvm.lifetime.end.p0i8(i64 8, i8* nonnull %83), !dbg !4164
  call void @llvm.dbg.value(metadata i64 %82, metadata !4118, metadata !DIExpression()), !dbg !4165
  call void @llvm.dbg.value(metadata %class.Timestamp* undef, metadata !4123, metadata !DIExpression()), !dbg !4165
  call void @llvm.dbg.value(metadata %class.Timestamp* undef, metadata !4126, metadata !DIExpression()), !dbg !4167
  call void @llvm.dbg.value(metadata %class.Timestamp* undef, metadata !4129, metadata !DIExpression()), !dbg !4167
  %86 = sub i64 %82, %85, !dbg !4169
  call void @llvm.dbg.value(metadata i64 %86, metadata !4118, metadata !DIExpression()), !dbg !4165
  %87 = getelementptr inbounds %class.Timestamp, %class.Timestamp* %5, i64 0, i32 0, i32 0, !dbg !4170
  store i64 %86, i64* %87, align 8, !dbg !4170
  call void @_ZN5Timer18schedule_at_steadyERK9Timestamp(%class.Timer* nonnull %77, %class.Timestamp* nonnull dereferenceable(8) %5), !dbg !4171
  call void @llvm.lifetime.end.p0i8(i64 8, i8* nonnull %78) #13, !dbg !4171
  call void @llvm.dbg.value(metadata i8 1, metadata !3938, metadata !DIExpression()), !dbg !3966
  br label %133

88:                                               ; preds = %59
  %89 = call dereferenceable(16) %"class.Element::Port"* @_ZNK7Element6outputEi(%class.Element* nonnull %8, i32 0), !dbg !4172
  %90 = load %class.Packet*, %class.Packet** %7, align 8, !dbg !4174, !tbaa !3926
  call void @_ZNK7Element4Port4pushEP6Packet(%"class.Element::Port"* nonnull %89, %class.Packet* %90), !dbg !4175
  store %class.Packet* null, %class.Packet** %7, align 8, !dbg !4176, !tbaa !3926
  call void @llvm.dbg.value(metadata i8 1, metadata !3938, metadata !DIExpression()), !dbg !3966
  call void @llvm.dbg.value(metadata i8 1, metadata !3938, metadata !DIExpression()), !dbg !3966
  br label %14

91:                                               ; preds = %23, %50
  call void @llvm.dbg.value(metadata i8 %16, metadata !3938, metadata !DIExpression()), !dbg !3966
  call void @llvm.dbg.value(metadata i8 %16, metadata !3938, metadata !DIExpression()), !dbg !3966
  call void @llvm.dbg.value(metadata i8 %16, metadata !3938, metadata !DIExpression()), !dbg !3966
  call void @llvm.dbg.value(metadata i8 %16, metadata !3938, metadata !DIExpression()), !dbg !3966
  call void @llvm.dbg.value(metadata i8 %16, metadata !3938, metadata !DIExpression()), !dbg !3966
  call void @llvm.dbg.value(metadata i8 %16, metadata !3938, metadata !DIExpression()), !dbg !3966
  call void @llvm.dbg.value(metadata i8 %16, metadata !3938, metadata !DIExpression()), !dbg !3966
  call void @llvm.dbg.value(metadata i8 %16, metadata !3938, metadata !DIExpression()), !dbg !3966
  call void @llvm.dbg.value(metadata i8 %16, metadata !3938, metadata !DIExpression()), !dbg !3966
  call void @llvm.dbg.value(metadata i8 %16, metadata !3938, metadata !DIExpression()), !dbg !3966
  call void @llvm.dbg.value(metadata i8 %16, metadata !3938, metadata !DIExpression()), !dbg !3966
  call void @llvm.dbg.value(metadata i8 %16, metadata !3938, metadata !DIExpression()), !dbg !3966
  %92 = getelementptr inbounds %class.DelayUnqueue, %class.DelayUnqueue* %0, i64 0, i32 5, !dbg !4177
  call void @llvm.dbg.value(metadata %class.NotifierSignal* %92, metadata !4180, metadata !DIExpression()), !dbg !4184
  call void @llvm.dbg.value(metadata %class.NotifierSignal* %92, metadata !4186, metadata !DIExpression()), !dbg !4193
  call void asm sideeffect "", "~{memory},~{dirflag},~{fpsr},~{flags}"() #13, !dbg !4195, !srcloc !4201
  %93 = getelementptr inbounds %class.DelayUnqueue, %class.DelayUnqueue* %0, i64 0, i32 5, i32 1, !dbg !4202
  %94 = load i32, i32* %93, align 8, !dbg !4202, !tbaa !3795
  %95 = icmp eq i32 %94, 0, !dbg !4202
  br i1 %95, label %96, label %116, !dbg !4203, !prof !3882, !misexpect !3883

96:                                               ; preds = %91
  %97 = bitcast %class.NotifierSignal* %92 to %"struct.NotifierSignal::vmpair"**, !dbg !4204
  %98 = load %"struct.NotifierSignal::vmpair"*, %"struct.NotifierSignal::vmpair"** %97, align 8, !dbg !4204, !tbaa !3779
  call void @llvm.dbg.value(metadata %"struct.NotifierSignal::vmpair"* %98, metadata !4189, metadata !DIExpression()), !dbg !4205
  %99 = getelementptr inbounds %"struct.NotifierSignal::vmpair", %"struct.NotifierSignal::vmpair"* %98, i64 0, i32 1, !dbg !4206
  %100 = load i32, i32* %99, align 8, !dbg !4206, !tbaa !4208
  %101 = icmp eq i32 %100, 0, !dbg !4210
  br i1 %101, label %124, label %107, !dbg !4211

102:                                              ; preds = %107
  %103 = getelementptr inbounds %"struct.NotifierSignal::vmpair", %"struct.NotifierSignal::vmpair"* %109, i64 1, !dbg !4212
  call void @llvm.dbg.value(metadata %"struct.NotifierSignal::vmpair"* %103, metadata !4189, metadata !DIExpression()), !dbg !4205
  call void @llvm.dbg.value(metadata %"struct.NotifierSignal::vmpair"* %103, metadata !4189, metadata !DIExpression()), !dbg !4205
  %104 = getelementptr inbounds %"struct.NotifierSignal::vmpair", %"struct.NotifierSignal::vmpair"* %109, i64 1, i32 1, !dbg !4206
  %105 = load i32, i32* %104, align 8, !dbg !4206, !tbaa !4208
  %106 = icmp eq i32 %105, 0, !dbg !4210
  br i1 %106, label %124, label %107, !dbg !4211, !llvm.loop !4213

107:                                              ; preds = %96, %102
  %108 = phi i32 [ %105, %102 ], [ %100, %96 ]
  %109 = phi %"struct.NotifierSignal::vmpair"* [ %103, %102 ], [ %98, %96 ]
  call void @llvm.dbg.value(metadata %"struct.NotifierSignal::vmpair"* %109, metadata !4189, metadata !DIExpression()), !dbg !4205
  %110 = getelementptr inbounds %"struct.NotifierSignal::vmpair", %"struct.NotifierSignal::vmpair"* %109, i64 0, i32 0, !dbg !4215
  %111 = load %class.atomic_uint32_t*, %class.atomic_uint32_t** %110, align 8, !dbg !4215, !tbaa !4217
  call void @llvm.dbg.value(metadata %class.atomic_uint32_t* %111, metadata !4218, metadata !DIExpression()), !dbg !4222
  call void @llvm.dbg.value(metadata %class.atomic_uint32_t* %111, metadata !4224, metadata !DIExpression()), !dbg !4227
  %112 = getelementptr inbounds %class.atomic_uint32_t, %class.atomic_uint32_t* %111, i64 0, i32 0, !dbg !4229
  %113 = load i32, i32* %112, align 4, !dbg !4229, !tbaa !4230
  %114 = and i32 %113, %108, !dbg !4232
  %115 = icmp eq i32 %114, 0, !dbg !4233
  call void @llvm.dbg.value(metadata %"struct.NotifierSignal::vmpair"* %109, metadata !4189, metadata !DIExpression(DW_OP_plus_uconst, 16, DW_OP_stack_value)), !dbg !4205
  br i1 %115, label %102, label %123, !dbg !4234

116:                                              ; preds = %91
  %117 = getelementptr inbounds %class.NotifierSignal, %class.NotifierSignal* %92, i64 0, i32 0, i32 0, !dbg !4235
  %118 = load %class.atomic_uint32_t*, %class.atomic_uint32_t** %117, align 8, !dbg !4235, !tbaa !3779
  call void @llvm.dbg.value(metadata %class.atomic_uint32_t* %118, metadata !4218, metadata !DIExpression()), !dbg !4236
  call void @llvm.dbg.value(metadata %class.atomic_uint32_t* %118, metadata !4224, metadata !DIExpression()), !dbg !4238
  %119 = getelementptr inbounds %class.atomic_uint32_t, %class.atomic_uint32_t* %118, i64 0, i32 0, !dbg !4240
  %120 = load i32, i32* %119, align 4, !dbg !4240, !tbaa !4230
  %121 = and i32 %120, %94, !dbg !4241
  %122 = icmp eq i32 %121, 0, !dbg !4242
  br i1 %122, label %124, label %123, !dbg !4243

123:                                              ; preds = %107, %116
  br label %124, !dbg !4243

124:                                              ; preds = %102, %96, %116, %123
  %125 = phi { i64, i64 } [ { i64 ptrtoint (i1 (%class.NotifierSignal*)* @_ZNK14NotifierSignal6activeEv to i64), i64 0 }, %123 ], [ zeroinitializer, %116 ], [ zeroinitializer, %96 ], [ zeroinitializer, %102 ]
  %126 = extractvalue { i64, i64 } %125, 0, !dbg !4177
  %127 = icmp eq i64 %126, 0, !dbg !4177
  br i1 %127, label %133, label %128, !dbg !4244

128:                                              ; preds = %66, %124
  call void @llvm.dbg.value(metadata i8 %16, metadata !3938, metadata !DIExpression()), !dbg !3966
  call void @llvm.dbg.value(metadata %class.DelayUnqueue* %0, metadata !4245, metadata !DIExpression(DW_OP_plus_uconst, 128, DW_OP_stack_value)), !dbg !4248
  %129 = getelementptr inbounds %class.DelayUnqueue, %class.DelayUnqueue* %0, i64 0, i32 3, i32 3, !dbg !4250
  %130 = bitcast %"union.Task::Status"* %129 to %struct.anon*, !dbg !4251
  %131 = getelementptr inbounds %struct.anon, %struct.anon* %130, i64 0, i32 1, !dbg !4251
  store i8 1, i8* %131, align 2, !dbg !4252, !tbaa !3779
  %132 = icmp ne i8 %16, 0, !dbg !4253
  br label %133, !dbg !4254

133:                                              ; preds = %76, %124, %128
  %134 = phi i1 [ %132, %128 ], [ false, %124 ], [ false, %76 ]
  ret i1 %134, !dbg !4255
}

; Function Attrs: nounwind readnone speculatable willreturn
declare void @llvm.dbg.label(metadata) #1

; Function Attrs: noinline optnone sspstrong uwtable
define linkonce_odr dso_local dereferenceable(16) %"class.Element::Port"* @_ZNK7Element5inputEi(%class.Element* %0, i32 %1) local_unnamed_addr #5 comdat align 2 !dbg !4256 {
  %3 = alloca %class.Element*, align 8
  %4 = alloca i32, align 4
  store %class.Element* %0, %class.Element** %3, align 8, !tbaa !4265
  call void @llvm.dbg.declare(metadata %class.Element** %3, metadata !4263, metadata !DIExpression()), !dbg !4266
  store i32 %1, i32* %4, align 4, !tbaa !4267
  call void @llvm.dbg.declare(metadata i32* %4, metadata !4264, metadata !DIExpression()), !dbg !4268
  %5 = load %class.Element*, %class.Element** %3, align 8
  %6 = load i32, i32* %4, align 4, !dbg !4269, !tbaa !4267
  %7 = call dereferenceable(16) %"class.Element::Port"* @_ZNK7Element4portEbi(%class.Element* %5, i1 zeroext false, i32 %6), !dbg !4270
  ret %"class.Element::Port"* %7, !dbg !4271
}

declare dereferenceable(8) %class.Timestamp* @_ZN6Packet14timestamp_annoEv(%class.Packet*) local_unnamed_addr #2

; Function Attrs: noinline optnone sspstrong uwtable
define linkonce_odr dso_local void @_ZN9Timestamp10assign_nowEv(%class.Timestamp* %0) local_unnamed_addr #5 comdat align 2 !dbg !4272 {
  %2 = alloca %class.Timestamp*, align 8
  store %class.Timestamp* %0, %class.Timestamp** %2, align 8, !tbaa !4265
  call void @llvm.dbg.declare(metadata %class.Timestamp** %2, metadata !4274, metadata !DIExpression()), !dbg !4275
  %3 = load %class.Timestamp*, %class.Timestamp** %2, align 8
  call void @_ZN9Timestamp10assign_nowEbbb(%class.Timestamp* %3, i1 zeroext false, i1 zeroext false, i1 zeroext false), !dbg !4276
  ret void, !dbg !4277
}

; Function Attrs: noinline nounwind optnone sspstrong uwtable
define linkonce_odr dso_local dereferenceable(16) %"class.Element::Port"* @_ZNK7Element6outputEi(%class.Element* %0, i32 %1) local_unnamed_addr #6 comdat align 2 !dbg !4278 {
  %3 = alloca %class.Element*, align 8
  %4 = alloca i32, align 4
  store %class.Element* %0, %class.Element** %3, align 8, !tbaa !4265
  call void @llvm.dbg.declare(metadata %class.Element** %3, metadata !4281, metadata !DIExpression()), !dbg !4283
  store i32 %1, i32* %4, align 4, !tbaa !4267
  call void @llvm.dbg.declare(metadata i32* %4, metadata !4282, metadata !DIExpression()), !dbg !4284
  %5 = load %class.Element*, %class.Element** %3, align 8
  %6 = load i32, i32* %4, align 4, !dbg !4285, !tbaa !4267
  %7 = call dereferenceable(16) %"class.Element::Port"* @_ZNK7Element4portEbi(%class.Element* %5, i1 zeroext true, i32 %6), !dbg !4286
  ret %"class.Element::Port"* %7, !dbg !4287
}

; Function Attrs: noinline optnone sspstrong uwtable
define linkonce_odr dso_local void @_ZNK7Element4Port4pushEP6Packet(%"class.Element::Port"* %0, %class.Packet* %1) local_unnamed_addr #5 comdat align 2 !dbg !4288 {
  %3 = alloca %"class.Element::Port"*, align 8
  %4 = alloca %class.Packet*, align 8
  store %"class.Element::Port"* %0, %"class.Element::Port"** %3, align 8, !tbaa !4265
  call void @llvm.dbg.declare(metadata %"class.Element::Port"** %3, metadata !4290, metadata !DIExpression()), !dbg !4292
  store %class.Packet* %1, %class.Packet** %4, align 8, !tbaa !4265
  call void @llvm.dbg.declare(metadata %class.Packet** %4, metadata !4291, metadata !DIExpression()), !dbg !4293
  %5 = load %"class.Element::Port"*, %"class.Element::Port"** %3, align 8
  %6 = getelementptr inbounds %"class.Element::Port", %"class.Element::Port"* %5, i32 0, i32 0, !dbg !4294
  %7 = load %class.Element*, %class.Element** %6, align 8, !dbg !4294, !tbaa !4023
  %8 = icmp ne %class.Element* %7, null, !dbg !4294
  br i1 %8, label %9, label %12, !dbg !4294

9:                                                ; preds = %2
  %10 = load %class.Packet*, %class.Packet** %4, align 8, !dbg !4294, !tbaa !4265
  %11 = icmp ne %class.Packet* %10, null, !dbg !4294
  br label %12

12:                                               ; preds = %9, %2
  %13 = phi i1 [ false, %2 ], [ %11, %9 ], !dbg !4292
  br i1 %13, label %14, label %15, !dbg !4294

14:                                               ; preds = %12
  br label %16, !dbg !4294

15:                                               ; preds = %12
  call void @__assert_fail(i8* getelementptr inbounds ([8 x i8], [8 x i8]* @.str.5, i64 0, i64 0), i8* getelementptr inbounds ([30 x i8], [30 x i8]* @.str.3, i64 0, i64 0), i32 611, i8* getelementptr inbounds ([41 x i8], [41 x i8]* @__PRETTY_FUNCTION__._ZNK7Element4Port4pushEP6Packet, i64 0, i64 0)) #15, !dbg !4294
  unreachable, !dbg !4294

16:                                               ; preds = %14
  %17 = getelementptr inbounds %"class.Element::Port", %"class.Element::Port"* %5, i32 0, i32 0, !dbg !4295
  %18 = load %class.Element*, %class.Element** %17, align 8, !dbg !4295, !tbaa !4023
  %19 = getelementptr inbounds %"class.Element::Port", %"class.Element::Port"* %5, i32 0, i32 1, !dbg !4296
  %20 = load i32, i32* %19, align 8, !dbg !4296, !tbaa !4026
  %21 = load %class.Packet*, %class.Packet** %4, align 8, !dbg !4297, !tbaa !4265
  %22 = bitcast %class.Element* %18 to void (%class.Element*, i32, %class.Packet*)***, !dbg !4298
  %23 = load void (%class.Element*, i32, %class.Packet*)**, void (%class.Element*, i32, %class.Packet*)*** %22, align 8, !dbg !4298, !tbaa !3738
  %24 = getelementptr inbounds void (%class.Element*, i32, %class.Packet*)*, void (%class.Element*, i32, %class.Packet*)** %23, i64 2, !dbg !4298
  %25 = load void (%class.Element*, i32, %class.Packet*)*, void (%class.Element*, i32, %class.Packet*)** %24, align 8, !dbg !4298
  call void %25(%class.Element* %18, i32 %20, %class.Packet* %21), !dbg !4298
  ret void, !dbg !4299
}

; Function Attrs: sspstrong uwtable
define dso_local void @_ZN12DelayUnqueue12add_handlersEv(%class.DelayUnqueue* %0) unnamed_addr #0 align 2 personality i8* bitcast (i32 (...)* @__gxx_personality_v0 to i8*) !dbg !4300 {
  %2 = alloca %class.String, align 8
  call void @llvm.dbg.value(metadata %class.DelayUnqueue* %0, metadata !4302, metadata !DIExpression()), !dbg !4303
  %3 = bitcast %class.DelayUnqueue* %0 to %class.Element*, !dbg !4304
  %4 = getelementptr inbounds %class.DelayUnqueue, %class.DelayUnqueue* %0, i64 0, i32 2, !dbg !4305
  tail call void @_ZN7Element17add_data_handlersEPKciP9Timestampb(%class.Element* %3, i8* getelementptr inbounds ([6 x i8], [6 x i8]* @.str.1, i64 0, i64 0), i32 3, %class.Timestamp* nonnull %4, i1 zeroext true), !dbg !4304
  %5 = getelementptr inbounds %class.DelayUnqueue, %class.DelayUnqueue* %0, i64 0, i32 3, !dbg !4306
  %6 = bitcast %class.String* %2 to i8*, !dbg !4307
  call void @llvm.lifetime.start.p0i8(i64 24, i8* nonnull %6) #13, !dbg !4307
  call void @llvm.dbg.value(metadata %class.String* %2, metadata !4308, metadata !DIExpression()), !dbg !4311
  call void @llvm.dbg.value(metadata %class.String* %2, metadata !4313, metadata !DIExpression()), !dbg !4319
  call void @llvm.dbg.value(metadata i8* @_ZN6String9null_dataE, metadata !4316, metadata !DIExpression()), !dbg !4319
  call void @llvm.dbg.value(metadata i32 0, metadata !4317, metadata !DIExpression()), !dbg !4319
  call void @llvm.dbg.value(metadata %"struct.String::memo_t"* null, metadata !4318, metadata !DIExpression()), !dbg !4319
  %7 = getelementptr inbounds %class.String, %class.String* %2, i64 0, i32 0, i32 0, !dbg !4322
  store i8* @_ZN6String9null_dataE, i8** %7, align 8, !dbg !4323, !tbaa !4324
  %8 = getelementptr inbounds %class.String, %class.String* %2, i64 0, i32 0, i32 1, !dbg !4327
  store i32 0, i32* %8, align 8, !dbg !4328, !tbaa !4329
  %9 = getelementptr inbounds %class.String, %class.String* %2, i64 0, i32 0, i32 2, !dbg !4330
  store %"struct.String::memo_t"* null, %"struct.String::memo_t"** %9, align 8, !dbg !4332, !tbaa !4333
  call void @llvm.dbg.value(metadata %class.Element* %3, metadata !4334, metadata !DIExpression()), !dbg !4343
  call void @llvm.dbg.value(metadata %class.Task* %5, metadata !4341, metadata !DIExpression()), !dbg !4343
  call void @llvm.dbg.value(metadata %class.String* %2, metadata !4342, metadata !DIExpression()), !dbg !4343
  invoke void @_ZN7Element17add_task_handlersEP4TaskP14NotifierSignaliRK6String(%class.Element* %3, %class.Task* nonnull %5, %class.NotifierSignal* null, i32 6, %class.String* nonnull dereferenceable(24) %2)
          to label %10 unwind label %28, !dbg !4345

10:                                               ; preds = %1
  call void @llvm.dbg.value(metadata %class.String* %2, metadata !4346, metadata !DIExpression()) #13, !dbg !4349
  call void @llvm.dbg.value(metadata %class.String* %2, metadata !4351, metadata !DIExpression()) #13, !dbg !4354
  %11 = load %"struct.String::memo_t"*, %"struct.String::memo_t"** %9, align 8, !dbg !4357, !tbaa !4333
  %12 = icmp eq %"struct.String::memo_t"* %11, null, !dbg !4359
  br i1 %12, label %27, label %13, !dbg !4360

13:                                               ; preds = %10
  %14 = getelementptr inbounds %"struct.String::memo_t", %"struct.String::memo_t"* %11, i64 0, i32 0, !dbg !4361
  %15 = load volatile i32, i32* %14, align 4, !dbg !4361, !tbaa !4363
  %16 = icmp eq i32 %15, 0, !dbg !4361
  br i1 %16, label %17, label %18, !dbg !4361

17:                                               ; preds = %13
  call void @__assert_fail(i8* getelementptr inbounds ([18 x i8], [18 x i8]* @.str.6, i64 0, i64 0), i8* getelementptr inbounds ([29 x i8], [29 x i8]* @.str.7, i64 0, i64 0), i32 273, i8* getelementptr inbounds ([27 x i8], [27 x i8]* @__PRETTY_FUNCTION__._ZNK6String5derefEv, i64 0, i64 0)) #15, !dbg !4361
  unreachable, !dbg !4361

18:                                               ; preds = %13
  call void @llvm.dbg.value(metadata i32* %14, metadata !4365, metadata !DIExpression()) #13, !dbg !4368
  %19 = load volatile i32, i32* %14, align 4, !dbg !4371, !tbaa !4267
  %20 = add i32 %19, -1, !dbg !4371
  store volatile i32 %20, i32* %14, align 4, !dbg !4371, !tbaa !4267
  %21 = icmp eq i32 %20, 0, !dbg !4372
  br i1 %21, label %22, label %23, !dbg !4373

22:                                               ; preds = %18
  invoke void @_ZN6String11delete_memoEPNS_6memo_tE(%"struct.String::memo_t"* nonnull %11)
          to label %23 unwind label %24, !dbg !4374

23:                                               ; preds = %22, %18
  store %"struct.String::memo_t"* null, %"struct.String::memo_t"** %9, align 8, !dbg !4375, !tbaa !4333
  br label %27, !dbg !4376

24:                                               ; preds = %22
  %25 = landingpad { i8*, i32 }
          catch i8* null, !dbg !4377
  %26 = extractvalue { i8*, i32 } %25, 0, !dbg !4377
  call void @__clang_call_terminate(i8* %26) #15, !dbg !4377
  unreachable, !dbg !4377

27:                                               ; preds = %10, %23
  call void @llvm.lifetime.end.p0i8(i64 24, i8* nonnull %6) #13, !dbg !4307
  ret void, !dbg !4378

28:                                               ; preds = %1
  %29 = landingpad { i8*, i32 }
          cleanup, !dbg !4378
  call void @llvm.dbg.value(metadata %class.String* %2, metadata !4346, metadata !DIExpression()) #13, !dbg !4379
  call void @llvm.dbg.value(metadata %class.String* %2, metadata !4351, metadata !DIExpression()) #13, !dbg !4381
  %30 = load %"struct.String::memo_t"*, %"struct.String::memo_t"** %9, align 8, !dbg !4383, !tbaa !4333
  %31 = icmp eq %"struct.String::memo_t"* %30, null, !dbg !4384
  br i1 %31, label %46, label %32, !dbg !4385

32:                                               ; preds = %28
  %33 = getelementptr inbounds %"struct.String::memo_t", %"struct.String::memo_t"* %30, i64 0, i32 0, !dbg !4386
  %34 = load volatile i32, i32* %33, align 4, !dbg !4386, !tbaa !4363
  %35 = icmp eq i32 %34, 0, !dbg !4386
  br i1 %35, label %36, label %37, !dbg !4386

36:                                               ; preds = %32
  call void @__assert_fail(i8* getelementptr inbounds ([18 x i8], [18 x i8]* @.str.6, i64 0, i64 0), i8* getelementptr inbounds ([29 x i8], [29 x i8]* @.str.7, i64 0, i64 0), i32 273, i8* getelementptr inbounds ([27 x i8], [27 x i8]* @__PRETTY_FUNCTION__._ZNK6String5derefEv, i64 0, i64 0)) #15, !dbg !4386
  unreachable, !dbg !4386

37:                                               ; preds = %32
  call void @llvm.dbg.value(metadata i32* %33, metadata !4365, metadata !DIExpression()) #13, !dbg !4387
  %38 = load volatile i32, i32* %33, align 4, !dbg !4389, !tbaa !4267
  %39 = add i32 %38, -1, !dbg !4389
  store volatile i32 %39, i32* %33, align 4, !dbg !4389, !tbaa !4267
  %40 = icmp eq i32 %39, 0, !dbg !4390
  br i1 %40, label %41, label %42, !dbg !4391

41:                                               ; preds = %37
  invoke void @_ZN6String11delete_memoEPNS_6memo_tE(%"struct.String::memo_t"* nonnull %30)
          to label %42 unwind label %43, !dbg !4392

42:                                               ; preds = %41, %37
  store %"struct.String::memo_t"* null, %"struct.String::memo_t"** %9, align 8, !dbg !4393, !tbaa !4333
  br label %46, !dbg !4394

43:                                               ; preds = %41
  %44 = landingpad { i8*, i32 }
          catch i8* null, !dbg !4395
  %45 = extractvalue { i8*, i32 } %44, 0, !dbg !4395
  call void @__clang_call_terminate(i8* %45) #15, !dbg !4395
  unreachable, !dbg !4395

46:                                               ; preds = %28, %42
  call void @llvm.lifetime.end.p0i8(i64 24, i8* nonnull %6) #13, !dbg !4307
  resume { i8*, i32 } %29, !dbg !4307
}

declare void @_ZN7Element17add_data_handlersEPKciP9Timestampb(%class.Element*, i8*, i32, %class.Timestamp*, i1 zeroext) local_unnamed_addr #2

; Function Attrs: inlinehint nounwind sspstrong uwtable
define linkonce_odr dso_local void @_ZN12DelayUnqueueD2Ev(%class.DelayUnqueue* %0) unnamed_addr #7 comdat align 2 personality i32 (...)* @__gxx_personality_v0 !dbg !4396 {
  call void @llvm.dbg.value(metadata %class.DelayUnqueue* %0, metadata !4399, metadata !DIExpression()), !dbg !4400
  %2 = getelementptr %class.DelayUnqueue, %class.DelayUnqueue* %0, i64 0, i32 0, i32 0, !dbg !4401
  store i32 (...)** bitcast (i8** getelementptr inbounds ({ [29 x i8*] }, { [29 x i8*] }* @_ZTV12DelayUnqueue, i64 0, inrange i32 0, i64 2) to i32 (...)**), i32 (...)*** %2, align 8, !dbg !4401, !tbaa !3738
  call void @llvm.dbg.value(metadata %class.DelayUnqueue* %0, metadata !3900, metadata !DIExpression(DW_OP_plus_uconst, 248, DW_OP_stack_value)) #13, !dbg !4402
  %3 = getelementptr inbounds %class.DelayUnqueue, %class.DelayUnqueue* %0, i64 0, i32 5, i32 1, !dbg !4405
  %4 = load i32, i32* %3, align 8, !dbg !4405, !tbaa !3795
  %5 = icmp eq i32 %4, 0, !dbg !4405
  br i1 %5, label %6, label %13, !dbg !4406, !prof !3882, !misexpect !3888

6:                                                ; preds = %1
  %7 = getelementptr inbounds %class.DelayUnqueue, %class.DelayUnqueue* %0, i64 0, i32 5, !dbg !4407
  call void @llvm.dbg.value(metadata %class.NotifierSignal* %7, metadata !3900, metadata !DIExpression()) #13, !dbg !4402
  %8 = bitcast %class.NotifierSignal* %7 to %"struct.NotifierSignal::vmpair"**, !dbg !4408
  %9 = load %"struct.NotifierSignal::vmpair"*, %"struct.NotifierSignal::vmpair"** %8, align 8, !dbg !4408, !tbaa !3779
  %10 = icmp eq %"struct.NotifierSignal::vmpair"* %9, null, !dbg !4409
  br i1 %10, label %13, label %11, !dbg !4409

11:                                               ; preds = %6
  %12 = bitcast %"struct.NotifierSignal::vmpair"* %9 to i8*, !dbg !4409
  tail call void @_ZdaPv(i8* %12) #14, !dbg !4409
  br label %13, !dbg !4409

13:                                               ; preds = %1, %6, %11
  %14 = getelementptr inbounds %class.DelayUnqueue, %class.DelayUnqueue* %0, i64 0, i32 4, !dbg !4407
  call void @llvm.dbg.value(metadata %class.Timer* %14, metadata !4410, metadata !DIExpression()) #13, !dbg !4413
  call void @llvm.dbg.value(metadata %class.Timer* %14, metadata !4415, metadata !DIExpression()) #13, !dbg !4419
  %15 = getelementptr inbounds %class.Timer, %class.Timer* %14, i64 0, i32 0, !dbg !4423
  %16 = load i32, i32* %15, align 8, !dbg !4423, !tbaa !4424
  %17 = icmp eq i32 %16, 0, !dbg !4425
  br i1 %17, label %22, label %18, !dbg !4426

18:                                               ; preds = %13
  invoke void @_ZN5Timer10unscheduleEv(%class.Timer* nonnull %14)
          to label %22 unwind label %19, !dbg !4427

19:                                               ; preds = %18
  %20 = landingpad { i8*, i32 }
          catch i8* null, !dbg !4428
  %21 = extractvalue { i8*, i32 } %20, 0, !dbg !4428
  tail call void @__clang_call_terminate(i8* %21) #15, !dbg !4428
  unreachable, !dbg !4428

22:                                               ; preds = %13, %18
  %23 = getelementptr inbounds %class.DelayUnqueue, %class.DelayUnqueue* %0, i64 0, i32 3, !dbg !4407
  tail call void @_ZN4TaskD1Ev(%class.Task* nonnull %23) #13, !dbg !4407
  %24 = bitcast %class.DelayUnqueue* %0 to %class.Element*, !dbg !4407
  tail call void @_ZN7ElementD2Ev(%class.Element* %24) #13, !dbg !4407
  ret void, !dbg !4401
}

; Function Attrs: inlinehint nounwind sspstrong uwtable
define linkonce_odr dso_local void @_ZN12DelayUnqueueD0Ev(%class.DelayUnqueue* %0) unnamed_addr #7 comdat align 2 personality i32 (...)* @__gxx_personality_v0 !dbg !4429 {
  call void @llvm.dbg.value(metadata %class.DelayUnqueue* %0, metadata !4431, metadata !DIExpression()), !dbg !4432
  call void @llvm.dbg.value(metadata %class.DelayUnqueue* %0, metadata !4399, metadata !DIExpression()) #13, !dbg !4433
  %2 = getelementptr %class.DelayUnqueue, %class.DelayUnqueue* %0, i64 0, i32 0, i32 0, !dbg !4435
  store i32 (...)** bitcast (i8** getelementptr inbounds ({ [29 x i8*] }, { [29 x i8*] }* @_ZTV12DelayUnqueue, i64 0, inrange i32 0, i64 2) to i32 (...)**), i32 (...)*** %2, align 8, !dbg !4435, !tbaa !3738
  call void @llvm.dbg.value(metadata %class.DelayUnqueue* %0, metadata !3900, metadata !DIExpression(DW_OP_plus_uconst, 248, DW_OP_stack_value)) #13, !dbg !4436
  %3 = getelementptr inbounds %class.DelayUnqueue, %class.DelayUnqueue* %0, i64 0, i32 5, i32 1, !dbg !4438
  %4 = load i32, i32* %3, align 8, !dbg !4438, !tbaa !3795
  %5 = icmp eq i32 %4, 0, !dbg !4438
  br i1 %5, label %6, label %13, !dbg !4439, !prof !3882, !misexpect !3888

6:                                                ; preds = %1
  %7 = getelementptr inbounds %class.DelayUnqueue, %class.DelayUnqueue* %0, i64 0, i32 5, !dbg !4440
  call void @llvm.dbg.value(metadata %class.NotifierSignal* %7, metadata !3900, metadata !DIExpression()) #13, !dbg !4436
  %8 = bitcast %class.NotifierSignal* %7 to %"struct.NotifierSignal::vmpair"**, !dbg !4441
  %9 = load %"struct.NotifierSignal::vmpair"*, %"struct.NotifierSignal::vmpair"** %8, align 8, !dbg !4441, !tbaa !3779
  %10 = icmp eq %"struct.NotifierSignal::vmpair"* %9, null, !dbg !4442
  br i1 %10, label %13, label %11, !dbg !4442

11:                                               ; preds = %6
  %12 = bitcast %"struct.NotifierSignal::vmpair"* %9 to i8*, !dbg !4442
  tail call void @_ZdaPv(i8* %12) #14, !dbg !4442
  br label %13, !dbg !4442

13:                                               ; preds = %11, %6, %1
  %14 = getelementptr inbounds %class.DelayUnqueue, %class.DelayUnqueue* %0, i64 0, i32 4, !dbg !4440
  call void @llvm.dbg.value(metadata %class.Timer* %14, metadata !4410, metadata !DIExpression()) #13, !dbg !4443
  call void @llvm.dbg.value(metadata %class.Timer* %14, metadata !4415, metadata !DIExpression()) #13, !dbg !4445
  %15 = getelementptr inbounds %class.Timer, %class.Timer* %14, i64 0, i32 0, !dbg !4447
  %16 = load i32, i32* %15, align 8, !dbg !4447, !tbaa !4424
  %17 = icmp eq i32 %16, 0, !dbg !4448
  br i1 %17, label %22, label %18, !dbg !4449

18:                                               ; preds = %13
  invoke void @_ZN5Timer10unscheduleEv(%class.Timer* nonnull %14)
          to label %22 unwind label %19, !dbg !4450

19:                                               ; preds = %18
  %20 = landingpad { i8*, i32 }
          catch i8* null, !dbg !4451
  %21 = extractvalue { i8*, i32 } %20, 0, !dbg !4451
  tail call void @__clang_call_terminate(i8* %21) #15, !dbg !4451
  unreachable, !dbg !4451

22:                                               ; preds = %13, %18
  %23 = getelementptr inbounds %class.DelayUnqueue, %class.DelayUnqueue* %0, i64 0, i32 3, !dbg !4440
  tail call void @_ZN4TaskD1Ev(%class.Task* nonnull %23) #13, !dbg !4440
  %24 = bitcast %class.DelayUnqueue* %0 to %class.Element*, !dbg !4440
  tail call void @_ZN7ElementD2Ev(%class.Element* %24) #13, !dbg !4440
  %25 = bitcast %class.DelayUnqueue* %0 to i8*, !dbg !4452
  tail call void @_ZdlPv(i8* %25) #14, !dbg !4452
  ret void, !dbg !4452
}

declare void @_ZN7Element4pushEiP6Packet(%class.Element*, i32, %class.Packet*) unnamed_addr #2

declare %class.Packet* @_ZN7Element4pullEi(%class.Element*, i32) unnamed_addr #2

declare %class.Packet* @_ZN7Element13simple_actionEP6Packet(%class.Element*, %class.Packet*) unnamed_addr #2

declare void @_ZN7Element9run_timerEP5Timer(%class.Element*, %class.Timer*) unnamed_addr #2

declare void @_ZN7Element8selectedEii(%class.Element*, i32, i32) unnamed_addr #2

declare void @_ZN7Element8selectedEi(%class.Element*, i32) unnamed_addr #2

; Function Attrs: nounwind sspstrong uwtable
define linkonce_odr dso_local i8* @_ZNK12DelayUnqueue10class_nameEv(%class.DelayUnqueue* %0) unnamed_addr #8 comdat align 2 !dbg !4453 {
  call void @llvm.dbg.value(metadata %class.DelayUnqueue* %0, metadata !4455, metadata !DIExpression()), !dbg !4457
  ret i8* getelementptr inbounds ([13 x i8], [13 x i8]* @.str.8, i64 0, i64 0), !dbg !4458
}

; Function Attrs: nounwind sspstrong uwtable
define linkonce_odr dso_local i8* @_ZNK12DelayUnqueue10port_countEv(%class.DelayUnqueue* %0) unnamed_addr #8 comdat align 2 !dbg !4459 {
  call void @llvm.dbg.value(metadata %class.DelayUnqueue* %0, metadata !4461, metadata !DIExpression()), !dbg !4462
  ret i8* getelementptr inbounds ([0 x i8], [0 x i8]* @_ZN7Element9PORTS_1_1E, i64 0, i64 0), !dbg !4463
}

; Function Attrs: nounwind sspstrong uwtable
define linkonce_odr dso_local i8* @_ZNK12DelayUnqueue10processingEv(%class.DelayUnqueue* %0) unnamed_addr #8 comdat align 2 !dbg !4464 {
  call void @llvm.dbg.value(metadata %class.DelayUnqueue* %0, metadata !4466, metadata !DIExpression()), !dbg !4467
  ret i8* getelementptr inbounds ([0 x i8], [0 x i8]* @_ZN7Element12PULL_TO_PUSHE, i64 0, i64 0), !dbg !4468
}

declare i8* @_ZNK7Element9flow_codeEv(%class.Element*) unnamed_addr #2

declare i8* @_ZNK7Element5flagsEv(%class.Element*) unnamed_addr #2

declare i8* @_ZN7Element4castEPKc(%class.Element*, i8*) unnamed_addr #2

declare i8* @_ZN7Element9port_castEbiPKc(%class.Element*, i1 zeroext, i32, i8*) unnamed_addr #2

declare i32 @_ZNK7Element15configure_phaseEv(%class.Element*) unnamed_addr #2

declare void @_ZN7Element10take_stateEPS_P12ErrorHandler(%class.Element*, %class.Element*, %class.ErrorHandler*) unnamed_addr #2

declare %class.Element* @_ZNK7Element15hotswap_elementEv(%class.Element*) unnamed_addr #2

declare void @_ZNK7Element11declarationEv(%class.String* sret, %class.Element*) unnamed_addr #2

declare zeroext i1 @_ZNK7Element20can_live_reconfigureEv(%class.Element*) unnamed_addr #2

declare i32 @_ZN7Element16live_reconfigureER6VectorI6StringEP12ErrorHandler(%class.Element*, %class.Vector.7* dereferenceable(16), %class.ErrorHandler*) unnamed_addr #2

declare i32 @_ZN7Element5llrpcEjPv(%class.Element*, i32, i8*) unnamed_addr #2

; Function Attrs: noinline noreturn nounwind
define linkonce_odr hidden void @__clang_call_terminate(i8* %0) local_unnamed_addr #9 comdat {
  %2 = tail call i8* @__cxa_begin_catch(i8* %0) #13
  tail call void @_ZSt9terminatev() #15
  unreachable
}

declare i8* @__cxa_begin_catch(i8*) local_unnamed_addr

declare void @_ZSt9terminatev() local_unnamed_addr

declare void @_ZN5Timer10unscheduleEv(%class.Timer*) local_unnamed_addr #2

declare void @_ZN12ScheduleInfo15initialize_taskEP7ElementP4TaskbP12ErrorHandler(%class.Element*, %class.Task*, i1 zeroext, %class.ErrorHandler*) local_unnamed_addr #2

declare void @_ZN8Notifier21upstream_empty_signalEP7ElementiPFvPvPS_ES2_(%class.NotifierSignal* sret, %class.Element*, i32, void (i8*, %class.Notifier*)*, i8*) local_unnamed_addr #2

; Function Attrs: nobuiltin nounwind
declare void @_ZdaPv(i8*) local_unnamed_addr #10

declare void @_ZN14NotifierSignal14hard_assign_vmERKS_(%class.NotifierSignal*, %class.NotifierSignal* dereferenceable(16)) local_unnamed_addr #2

; Function Attrs: noinline nounwind optnone sspstrong uwtable
define linkonce_odr dso_local dereferenceable(16) %"class.Element::Port"* @_ZNK7Element4portEbi(%class.Element* %0, i1 zeroext %1, i32 %2) local_unnamed_addr #6 comdat align 2 !dbg !4469 {
  %4 = alloca %class.Element*, align 8
  %5 = alloca i8, align 1
  %6 = alloca i32, align 4
  store %class.Element* %0, %class.Element** %4, align 8, !tbaa !4265
  call void @llvm.dbg.declare(metadata %class.Element** %4, metadata !4474, metadata !DIExpression()), !dbg !4477
  %7 = zext i1 %1 to i8
  store i8 %7, i8* %5, align 1, !tbaa !4478
  call void @llvm.dbg.declare(metadata i8* %5, metadata !4475, metadata !DIExpression()), !dbg !4480
  store i32 %2, i32* %6, align 4, !tbaa !4267
  call void @llvm.dbg.declare(metadata i32* %6, metadata !4476, metadata !DIExpression()), !dbg !4481
  %8 = load %class.Element*, %class.Element** %4, align 8
  %9 = load i32, i32* %6, align 4, !dbg !4482, !tbaa !4267
  %10 = getelementptr inbounds %class.Element, %class.Element* %8, i32 0, i32 3, !dbg !4482
  %11 = load i8, i8* %5, align 1, !dbg !4482, !tbaa !4478, !range !4483
  %12 = trunc i8 %11 to i1, !dbg !4482
  %13 = zext i1 %12 to i64, !dbg !4482
  %14 = getelementptr inbounds [2 x i32], [2 x i32]* %10, i64 0, i64 %13, !dbg !4482
  %15 = load i32, i32* %14, align 4, !dbg !4482, !tbaa !4267
  %16 = icmp ult i32 %9, %15, !dbg !4482
  br i1 %16, label %17, label %18, !dbg !4482

17:                                               ; preds = %3
  br label %19, !dbg !4482

18:                                               ; preds = %3
  call void @__assert_fail(i8* getelementptr inbounds ([47 x i8], [47 x i8]* @.str.2, i64 0, i64 0), i8* getelementptr inbounds ([30 x i8], [30 x i8]* @.str.3, i64 0, i64 0), i32 437, i8* getelementptr inbounds ([52 x i8], [52 x i8]* @__PRETTY_FUNCTION__._ZNK7Element4portEbi, i64 0, i64 0)) #15, !dbg !4482
  unreachable, !dbg !4482

19:                                               ; preds = %17
  %20 = getelementptr inbounds %class.Element, %class.Element* %8, i32 0, i32 1, !dbg !4484
  %21 = load i8, i8* %5, align 1, !dbg !4485, !tbaa !4478, !range !4483
  %22 = trunc i8 %21 to i1, !dbg !4485
  %23 = zext i1 %22 to i64, !dbg !4484
  %24 = getelementptr inbounds [2 x %"class.Element::Port"*], [2 x %"class.Element::Port"*]* %20, i64 0, i64 %23, !dbg !4484
  %25 = load %"class.Element::Port"*, %"class.Element::Port"** %24, align 8, !dbg !4484, !tbaa !4265
  %26 = load i32, i32* %6, align 4, !dbg !4486, !tbaa !4267
  %27 = sext i32 %26 to i64, !dbg !4484
  %28 = getelementptr inbounds %"class.Element::Port", %"class.Element::Port"* %25, i64 %27, !dbg !4484
  ret %"class.Element::Port"* %28, !dbg !4487
}

; Function Attrs: noreturn nounwind
declare void @__assert_fail(i8*, i8*, i32, i8*) local_unnamed_addr #11

declare void @_ZN9Timestamp10assign_nowEbbb(%class.Timestamp*, i1 zeroext, i1 zeroext, i1 zeroext) local_unnamed_addr #2

declare void @_ZN5Timer18schedule_at_steadyERK9Timestamp(%class.Timer*, %class.Timestamp* dereferenceable(8)) local_unnamed_addr #2

; Function Attrs: inlinehint sspstrong uwtable
define linkonce_odr dso_local zeroext i1 @_ZNK14NotifierSignal6activeEv(%class.NotifierSignal* %0) #12 comdat align 2 !dbg !4187 {
  call void @llvm.dbg.value(metadata %class.NotifierSignal* %0, metadata !4186, metadata !DIExpression()), !dbg !4488
  tail call void asm sideeffect "", "~{memory},~{dirflag},~{fpsr},~{flags}"() #13, !dbg !4489, !srcloc !4201
  %2 = getelementptr inbounds %class.NotifierSignal, %class.NotifierSignal* %0, i64 0, i32 1, !dbg !4492
  %3 = load i32, i32* %2, align 8, !dbg !4492, !tbaa !3795
  %4 = icmp eq i32 %3, 0, !dbg !4492
  br i1 %4, label %12, label %5, !dbg !4493, !prof !3882, !misexpect !3883

5:                                                ; preds = %1
  %6 = getelementptr inbounds %class.NotifierSignal, %class.NotifierSignal* %0, i64 0, i32 0, i32 0, !dbg !4494
  %7 = load %class.atomic_uint32_t*, %class.atomic_uint32_t** %6, align 8, !dbg !4494, !tbaa !3779
  call void @llvm.dbg.value(metadata %class.atomic_uint32_t* %7, metadata !4218, metadata !DIExpression()), !dbg !4495
  call void @llvm.dbg.value(metadata %class.atomic_uint32_t* %7, metadata !4224, metadata !DIExpression()), !dbg !4497
  %8 = getelementptr inbounds %class.atomic_uint32_t, %class.atomic_uint32_t* %7, i64 0, i32 0, !dbg !4499
  %9 = load i32, i32* %8, align 4, !dbg !4499, !tbaa !4230
  %10 = and i32 %9, %3, !dbg !4500
  %11 = icmp ne i32 %10, 0, !dbg !4501
  ret i1 %11, !dbg !4502

12:                                               ; preds = %1
  %13 = bitcast %class.NotifierSignal* %0 to %"struct.NotifierSignal::vmpair"**, !dbg !4503
  %14 = load %"struct.NotifierSignal::vmpair"*, %"struct.NotifierSignal::vmpair"** %13, align 8, !dbg !4503, !tbaa !3779
  call void @llvm.dbg.value(metadata %"struct.NotifierSignal::vmpair"* %14, metadata !4189, metadata !DIExpression()), !dbg !4504
  %15 = getelementptr inbounds %"struct.NotifierSignal::vmpair", %"struct.NotifierSignal::vmpair"* %14, i64 0, i32 1, !dbg !4505
  %16 = load i32, i32* %15, align 8, !dbg !4505, !tbaa !4208
  %17 = icmp eq i32 %16, 0, !dbg !4506
  br i1 %17, label %32, label %23, !dbg !4507

18:                                               ; preds = %23
  %19 = getelementptr inbounds %"struct.NotifierSignal::vmpair", %"struct.NotifierSignal::vmpair"* %25, i64 1, !dbg !4508
  call void @llvm.dbg.value(metadata %"struct.NotifierSignal::vmpair"* %19, metadata !4189, metadata !DIExpression()), !dbg !4504
  call void @llvm.dbg.value(metadata %"struct.NotifierSignal::vmpair"* %19, metadata !4189, metadata !DIExpression()), !dbg !4504
  %20 = getelementptr inbounds %"struct.NotifierSignal::vmpair", %"struct.NotifierSignal::vmpair"* %25, i64 1, i32 1, !dbg !4505
  %21 = load i32, i32* %20, align 8, !dbg !4505, !tbaa !4208
  %22 = icmp eq i32 %21, 0, !dbg !4506
  br i1 %22, label %32, label %23, !dbg !4507, !llvm.loop !4509

23:                                               ; preds = %12, %18
  %24 = phi i32 [ %21, %18 ], [ %16, %12 ]
  %25 = phi %"struct.NotifierSignal::vmpair"* [ %19, %18 ], [ %14, %12 ]
  call void @llvm.dbg.value(metadata %"struct.NotifierSignal::vmpair"* %25, metadata !4189, metadata !DIExpression()), !dbg !4504
  %26 = getelementptr inbounds %"struct.NotifierSignal::vmpair", %"struct.NotifierSignal::vmpair"* %25, i64 0, i32 0, !dbg !4511
  %27 = load %class.atomic_uint32_t*, %class.atomic_uint32_t** %26, align 8, !dbg !4511, !tbaa !4217
  call void @llvm.dbg.value(metadata %class.atomic_uint32_t* %27, metadata !4218, metadata !DIExpression()), !dbg !4512
  call void @llvm.dbg.value(metadata %class.atomic_uint32_t* %27, metadata !4224, metadata !DIExpression()), !dbg !4514
  %28 = getelementptr inbounds %class.atomic_uint32_t, %class.atomic_uint32_t* %27, i64 0, i32 0, !dbg !4516
  %29 = load i32, i32* %28, align 4, !dbg !4516, !tbaa !4230
  %30 = and i32 %29, %24, !dbg !4517
  %31 = icmp eq i32 %30, 0, !dbg !4518
  call void @llvm.dbg.value(metadata %"struct.NotifierSignal::vmpair"* %25, metadata !4189, metadata !DIExpression(DW_OP_plus_uconst, 16, DW_OP_stack_value)), !dbg !4504
  br i1 %31, label %18, label %32, !dbg !4519

32:                                               ; preds = %23, %18, %12
  %33 = phi i1 [ false, %12 ], [ false, %18 ], [ true, %23 ]
  ret i1 %33
}

declare void @_ZN7Element17add_task_handlersEP4TaskP14NotifierSignaliRK6String(%class.Element*, %class.Task*, %class.NotifierSignal*, i32, %class.String* dereferenceable(24)) local_unnamed_addr #2

declare void @_ZN6String11delete_memoEPNS_6memo_tE(%"struct.String::memo_t"*) local_unnamed_addr #2

; Function Attrs: nobuiltin nounwind
declare void @_ZdlPv(i8*) local_unnamed_addr #10

; Function Attrs: noinline optnone sspstrong uwtable
define linkonce_odr dso_local void @_Z14args_base_readI9TimestampEvP4ArgsPKciRT_(%class.Args* %0, i8* %1, i32 %2, %class.Timestamp* dereferenceable(8) %3) local_unnamed_addr #5 comdat !dbg !4520 {
  %5 = alloca %class.Args*, align 8
  %6 = alloca i8*, align 8
  %7 = alloca i32, align 4
  %8 = alloca %class.Timestamp*, align 8
  store %class.Args* %0, %class.Args** %5, align 8, !tbaa !4265
  call void @llvm.dbg.declare(metadata %class.Args** %5, metadata !4522, metadata !DIExpression()), !dbg !4526
  store i8* %1, i8** %6, align 8, !tbaa !4265
  call void @llvm.dbg.declare(metadata i8** %6, metadata !4523, metadata !DIExpression()), !dbg !4527
  store i32 %2, i32* %7, align 4, !tbaa !4267
  call void @llvm.dbg.declare(metadata i32* %7, metadata !4524, metadata !DIExpression()), !dbg !4528
  store %class.Timestamp* %3, %class.Timestamp** %8, align 8, !tbaa !4265
  call void @llvm.dbg.declare(metadata %class.Timestamp** %8, metadata !4525, metadata !DIExpression()), !dbg !4529
  %9 = load %class.Args*, %class.Args** %5, align 8, !dbg !4530, !tbaa !4265
  %10 = load i8*, i8** %6, align 8, !dbg !4531, !tbaa !4265
  %11 = load i32, i32* %7, align 4, !dbg !4532, !tbaa !4267
  %12 = load %class.Timestamp*, %class.Timestamp** %8, align 8, !dbg !4533, !tbaa !4265
  call void @_ZN4Args9base_readI9TimestampEEvPKciRT_(%class.Args* %9, i8* %10, i32 %11, %class.Timestamp* dereferenceable(8) %12), !dbg !4534
  ret void, !dbg !4535
}

; Function Attrs: sspstrong uwtable
define linkonce_odr dso_local void @_ZN4Args9base_readI9TimestampEEvPKciRT_(%class.Args* %0, i8* %1, i32 %2, %class.Timestamp* dereferenceable(8) %3) local_unnamed_addr #0 comdat align 2 personality i8* bitcast (i32 (...)* @__gxx_personality_v0 to i8*) !dbg !4536 {
  %5 = alloca %"struct.Args::Slot"*, align 8
  %6 = alloca %class.String, align 8
  call void @llvm.dbg.value(metadata %class.Args* %0, metadata !4541, metadata !DIExpression()), !dbg !4550
  call void @llvm.dbg.value(metadata i8* %1, metadata !4542, metadata !DIExpression()), !dbg !4550
  call void @llvm.dbg.value(metadata i32 %2, metadata !4543, metadata !DIExpression()), !dbg !4550
  call void @llvm.dbg.value(metadata %class.Timestamp* %3, metadata !4544, metadata !DIExpression()), !dbg !4550
  %7 = bitcast %"struct.Args::Slot"** %5 to i8*, !dbg !4551
  call void @llvm.lifetime.start.p0i8(i64 8, i8* nonnull %7) #13, !dbg !4551
  %8 = bitcast %class.String* %6 to i8*, !dbg !4552
  call void @llvm.lifetime.start.p0i8(i64 24, i8* nonnull %8) #13, !dbg !4552
  call void @llvm.dbg.declare(metadata %class.String* %6, metadata !4546, metadata !DIExpression()), !dbg !4553
  call void @llvm.dbg.value(metadata %"struct.Args::Slot"** %5, metadata !4545, metadata !DIExpression(DW_OP_deref)), !dbg !4550
  call void @_ZN4Args4findEPKciRPNS_4SlotE(%class.String* nonnull sret %6, %class.Args* %0, i8* %1, i32 %2, %"struct.Args::Slot"** nonnull dereferenceable(8) %5), !dbg !4554
  call void @llvm.dbg.value(metadata %class.String* %6, metadata !4555, metadata !DIExpression()), !dbg !4558
  %9 = getelementptr inbounds %class.String, %class.String* %6, i64 0, i32 0, i32 1, !dbg !4560
  %10 = load i32, i32* %9, align 8, !dbg !4560, !tbaa !4329
  %11 = icmp eq i32 %10, 0, !dbg !4561
  %12 = select i1 %11, { i64, i64 } zeroinitializer, { i64, i64 } { i64 ptrtoint (i32 (%class.String*)* @_ZNK6String6lengthEv to i64), i64 0 }, !dbg !4562
  %13 = extractvalue { i64, i64 } %12, 0, !dbg !4553
  %14 = icmp eq i64 %13, 0, !dbg !4553
  br i1 %14, label %46, label %15, !dbg !4552

15:                                               ; preds = %4
  call void @llvm.dbg.value(metadata %class.Timestamp* %3, metadata !4563, metadata !DIExpression()), !dbg !4590
  call void @llvm.dbg.value(metadata %class.Args* %0, metadata !4589, metadata !DIExpression()), !dbg !4590
  call void @llvm.dbg.value(metadata %class.Args* %0, metadata !4592, metadata !DIExpression()), !dbg !4599
  call void @llvm.dbg.value(metadata %class.Timestamp* %3, metadata !4598, metadata !DIExpression()), !dbg !4599
  %16 = bitcast %class.Timestamp* %3 to i8*, !dbg !4601
  %17 = invoke i8* @_ZN4Args11simple_slotEPvm(%class.Args* nonnull %0, i8* nonnull %16, i64 8)
          to label %18 unwind label %26, !dbg !4603

18:                                               ; preds = %15
  call void @llvm.dbg.value(metadata i8* %17, metadata !4548, metadata !DIExpression()), !dbg !4604
  %19 = icmp eq i8* %17, null, !dbg !4605
  br i1 %19, label %23, label %20, !dbg !4606

20:                                               ; preds = %18
  %21 = bitcast i8* %17 to %class.Timestamp*, !dbg !4607
  call void @llvm.dbg.value(metadata %class.Timestamp* %21, metadata !4548, metadata !DIExpression()), !dbg !4604
  call void @llvm.dbg.value(metadata i8 0, metadata !4608, metadata !DIExpression()), !dbg !4617
  call void @llvm.dbg.value(metadata %class.String* %6, metadata !4614, metadata !DIExpression()), !dbg !4617
  call void @llvm.dbg.value(metadata %class.Timestamp* %21, metadata !4615, metadata !DIExpression()), !dbg !4617
  call void @llvm.dbg.value(metadata %class.Args* %0, metadata !4616, metadata !DIExpression()), !dbg !4617
  call void @llvm.dbg.value(metadata %class.TimestampArg* undef, metadata !4619, metadata !DIExpression()), !dbg !4626
  call void @llvm.dbg.value(metadata %class.String* %6, metadata !4622, metadata !DIExpression()), !dbg !4626
  call void @llvm.dbg.value(metadata %class.Timestamp* %21, metadata !4623, metadata !DIExpression()), !dbg !4626
  call void @llvm.dbg.value(metadata %class.Args* %0, metadata !4624, metadata !DIExpression()), !dbg !4626
  %22 = invoke zeroext i1 @_Z7cp_timeRK6StringP9Timestampb(%class.String* nonnull dereferenceable(24) %6, %class.Timestamp* nonnull %21, i1 zeroext false)
          to label %23 unwind label %26, !dbg !4628

23:                                               ; preds = %20, %18
  %24 = phi i1 [ false, %18 ], [ %22, %20 ], !dbg !4604
  %25 = load %"struct.Args::Slot"*, %"struct.Args::Slot"** %5, align 8, !dbg !4629, !tbaa !4265
  call void @llvm.dbg.value(metadata %"struct.Args::Slot"* %25, metadata !4545, metadata !DIExpression()), !dbg !4550
  invoke void @_ZN4Args9postparseEbPNS_4SlotE(%class.Args* nonnull %0, i1 zeroext %24, %"struct.Args::Slot"* %25)
          to label %46 unwind label %26, !dbg !4630

26:                                               ; preds = %20, %15, %23
  %27 = landingpad { i8*, i32 }
          cleanup, !dbg !4631
  call void @llvm.dbg.value(metadata %class.String* %6, metadata !4346, metadata !DIExpression()) #13, !dbg !4632
  call void @llvm.dbg.value(metadata %class.String* %6, metadata !4351, metadata !DIExpression()) #13, !dbg !4634
  %28 = getelementptr inbounds %class.String, %class.String* %6, i64 0, i32 0, i32 2, !dbg !4636
  %29 = load %"struct.String::memo_t"*, %"struct.String::memo_t"** %28, align 8, !dbg !4636, !tbaa !4333
  %30 = icmp eq %"struct.String::memo_t"* %29, null, !dbg !4637
  br i1 %30, label %45, label %31, !dbg !4638

31:                                               ; preds = %26
  %32 = getelementptr inbounds %"struct.String::memo_t", %"struct.String::memo_t"* %29, i64 0, i32 0, !dbg !4639
  %33 = load volatile i32, i32* %32, align 4, !dbg !4639, !tbaa !4363
  %34 = icmp eq i32 %33, 0, !dbg !4639
  br i1 %34, label %35, label %36, !dbg !4639

35:                                               ; preds = %31
  call void @__assert_fail(i8* getelementptr inbounds ([18 x i8], [18 x i8]* @.str.6, i64 0, i64 0), i8* getelementptr inbounds ([29 x i8], [29 x i8]* @.str.7, i64 0, i64 0), i32 273, i8* getelementptr inbounds ([27 x i8], [27 x i8]* @__PRETTY_FUNCTION__._ZNK6String5derefEv, i64 0, i64 0)) #15, !dbg !4639
  unreachable, !dbg !4639

36:                                               ; preds = %31
  call void @llvm.dbg.value(metadata i32* %32, metadata !4365, metadata !DIExpression()) #13, !dbg !4640
  %37 = load volatile i32, i32* %32, align 4, !dbg !4642, !tbaa !4267
  %38 = add i32 %37, -1, !dbg !4642
  store volatile i32 %38, i32* %32, align 4, !dbg !4642, !tbaa !4267
  %39 = icmp eq i32 %38, 0, !dbg !4643
  br i1 %39, label %40, label %41, !dbg !4644

40:                                               ; preds = %36
  invoke void @_ZN6String11delete_memoEPNS_6memo_tE(%"struct.String::memo_t"* nonnull %29)
          to label %41 unwind label %42, !dbg !4645

41:                                               ; preds = %40, %36
  store %"struct.String::memo_t"* null, %"struct.String::memo_t"** %28, align 8, !dbg !4646, !tbaa !4333
  br label %45, !dbg !4647

42:                                               ; preds = %40
  %43 = landingpad { i8*, i32 }
          catch i8* null, !dbg !4648
  %44 = extractvalue { i8*, i32 } %43, 0, !dbg !4648
  call void @__clang_call_terminate(i8* %44) #15, !dbg !4648
  unreachable, !dbg !4648

45:                                               ; preds = %26, %41
  call void @llvm.lifetime.end.p0i8(i64 24, i8* nonnull %8) #13, !dbg !4552
  call void @llvm.lifetime.end.p0i8(i64 8, i8* nonnull %7) #13, !dbg !4649
  resume { i8*, i32 } %27, !dbg !4649

46:                                               ; preds = %23, %4
  call void @llvm.dbg.value(metadata %class.String* %6, metadata !4346, metadata !DIExpression()) #13, !dbg !4650
  call void @llvm.dbg.value(metadata %class.String* %6, metadata !4351, metadata !DIExpression()) #13, !dbg !4652
  %47 = getelementptr inbounds %class.String, %class.String* %6, i64 0, i32 0, i32 2, !dbg !4654
  %48 = load %"struct.String::memo_t"*, %"struct.String::memo_t"** %47, align 8, !dbg !4654, !tbaa !4333
  %49 = icmp eq %"struct.String::memo_t"* %48, null, !dbg !4655
  br i1 %49, label %64, label %50, !dbg !4656

50:                                               ; preds = %46
  %51 = getelementptr inbounds %"struct.String::memo_t", %"struct.String::memo_t"* %48, i64 0, i32 0, !dbg !4657
  %52 = load volatile i32, i32* %51, align 4, !dbg !4657, !tbaa !4363
  %53 = icmp eq i32 %52, 0, !dbg !4657
  br i1 %53, label %54, label %55, !dbg !4657

54:                                               ; preds = %50
  call void @__assert_fail(i8* getelementptr inbounds ([18 x i8], [18 x i8]* @.str.6, i64 0, i64 0), i8* getelementptr inbounds ([29 x i8], [29 x i8]* @.str.7, i64 0, i64 0), i32 273, i8* getelementptr inbounds ([27 x i8], [27 x i8]* @__PRETTY_FUNCTION__._ZNK6String5derefEv, i64 0, i64 0)) #15, !dbg !4657
  unreachable, !dbg !4657

55:                                               ; preds = %50
  call void @llvm.dbg.value(metadata i32* %51, metadata !4365, metadata !DIExpression()) #13, !dbg !4658
  %56 = load volatile i32, i32* %51, align 4, !dbg !4660, !tbaa !4267
  %57 = add i32 %56, -1, !dbg !4660
  store volatile i32 %57, i32* %51, align 4, !dbg !4660, !tbaa !4267
  %58 = icmp eq i32 %57, 0, !dbg !4661
  br i1 %58, label %59, label %60, !dbg !4662

59:                                               ; preds = %55
  invoke void @_ZN6String11delete_memoEPNS_6memo_tE(%"struct.String::memo_t"* nonnull %48)
          to label %60 unwind label %61, !dbg !4663

60:                                               ; preds = %59, %55
  store %"struct.String::memo_t"* null, %"struct.String::memo_t"** %47, align 8, !dbg !4664, !tbaa !4333
  br label %64, !dbg !4665

61:                                               ; preds = %59
  %62 = landingpad { i8*, i32 }
          catch i8* null, !dbg !4666
  %63 = extractvalue { i8*, i32 } %62, 0, !dbg !4666
  call void @__clang_call_terminate(i8* %63) #15, !dbg !4666
  unreachable, !dbg !4666

64:                                               ; preds = %46, %60
  call void @llvm.lifetime.end.p0i8(i64 24, i8* nonnull %8) #13, !dbg !4552
  call void @llvm.lifetime.end.p0i8(i64 8, i8* nonnull %7) #13, !dbg !4649
  ret void, !dbg !4649
}

declare void @_ZN4Args4findEPKciRPNS_4SlotE(%class.String* sret, %class.Args*, i8*, i32, %"struct.Args::Slot"** dereferenceable(8)) local_unnamed_addr #2

declare void @_ZN4Args9postparseEbPNS_4SlotE(%class.Args*, i1 zeroext, %"struct.Args::Slot"*) local_unnamed_addr #2

; Function Attrs: argmemonly nounwind willreturn
declare void @llvm.memset.p0i8.i64(i8* nocapture writeonly, i8, i64, i1 immarg) #4

; Function Attrs: inlinehint nounwind sspstrong uwtable
define linkonce_odr dso_local i32 @_ZNK6String6lengthEv(%class.String* %0) #7 comdat align 2 !dbg !4667 {
  call void @llvm.dbg.value(metadata %class.String* %0, metadata !4669, metadata !DIExpression()), !dbg !4670
  %2 = getelementptr inbounds %class.String, %class.String* %0, i64 0, i32 0, i32 1, !dbg !4671
  %3 = load i32, i32* %2, align 8, !dbg !4671, !tbaa !4329
  ret i32 %3, !dbg !4672
}

declare i8* @_ZN4Args11simple_slotEPvm(%class.Args*, i8*, i64) local_unnamed_addr #2

declare !dbg !1921 zeroext i1 @_Z7cp_timeRK6StringP9Timestampb(%class.String* dereferenceable(24), %class.Timestamp*, i1 zeroext) local_unnamed_addr #2

; Function Attrs: nounwind readnone speculatable willreturn
declare void @llvm.dbg.value(metadata, metadata, metadata) #1

attributes #0 = { sspstrong uwtable "correctly-rounded-divide-sqrt-fp-math"="false" "disable-tail-calls"="false" "frame-pointer"="none" "less-precise-fpmad"="false" "min-legal-vector-width"="0" "no-infs-fp-math"="false" "no-jump-tables"="false" "no-nans-fp-math"="false" "no-signed-zeros-fp-math"="false" "no-trapping-math"="false" "stack-protector-buffer-size"="8" "target-cpu"="x86-64" "target-features"="+cx8,+fxsr,+mmx,+sse,+sse2,+x87" "unsafe-fp-math"="false" "use-soft-float"="false" }
attributes #1 = { nounwind readnone speculatable willreturn }
attributes #2 = { "correctly-rounded-divide-sqrt-fp-math"="false" "disable-tail-calls"="false" "frame-pointer"="none" "less-precise-fpmad"="false" "no-infs-fp-math"="false" "no-nans-fp-math"="false" "no-signed-zeros-fp-math"="false" "no-trapping-math"="false" "stack-protector-buffer-size"="8" "target-cpu"="x86-64" "target-features"="+cx8,+fxsr,+mmx,+sse,+sse2,+x87" "unsafe-fp-math"="false" "use-soft-float"="false" }
attributes #3 = { nounwind "correctly-rounded-divide-sqrt-fp-math"="false" "disable-tail-calls"="false" "frame-pointer"="none" "less-precise-fpmad"="false" "no-infs-fp-math"="false" "no-nans-fp-math"="false" "no-signed-zeros-fp-math"="false" "no-trapping-math"="false" "stack-protector-buffer-size"="8" "target-cpu"="x86-64" "target-features"="+cx8,+fxsr,+mmx,+sse,+sse2,+x87" "unsafe-fp-math"="false" "use-soft-float"="false" }
attributes #4 = { argmemonly nounwind willreturn }
attributes #5 = { noinline optnone sspstrong uwtable "correctly-rounded-divide-sqrt-fp-math"="false" "disable-tail-calls"="false" "frame-pointer"="none" "less-precise-fpmad"="false" "min-legal-vector-width"="0" "no-infs-fp-math"="false" "no-jump-tables"="false" "no-nans-fp-math"="false" "no-signed-zeros-fp-math"="false" "no-trapping-math"="false" "stack-protector-buffer-size"="8" "target-cpu"="x86-64" "target-features"="+cx8,+fxsr,+mmx,+sse,+sse2,+x87" "unsafe-fp-math"="false" "use-soft-float"="false" }
attributes #6 = { noinline nounwind optnone sspstrong uwtable "correctly-rounded-divide-sqrt-fp-math"="false" "disable-tail-calls"="false" "frame-pointer"="none" "less-precise-fpmad"="false" "min-legal-vector-width"="0" "no-infs-fp-math"="false" "no-jump-tables"="false" "no-nans-fp-math"="false" "no-signed-zeros-fp-math"="false" "no-trapping-math"="false" "stack-protector-buffer-size"="8" "target-cpu"="x86-64" "target-features"="+cx8,+fxsr,+mmx,+sse,+sse2,+x87" "unsafe-fp-math"="false" "use-soft-float"="false" }
attributes #7 = { inlinehint nounwind sspstrong uwtable "correctly-rounded-divide-sqrt-fp-math"="false" "disable-tail-calls"="false" "frame-pointer"="none" "less-precise-fpmad"="false" "min-legal-vector-width"="0" "no-infs-fp-math"="false" "no-jump-tables"="false" "no-nans-fp-math"="false" "no-signed-zeros-fp-math"="false" "no-trapping-math"="false" "stack-protector-buffer-size"="8" "target-cpu"="x86-64" "target-features"="+cx8,+fxsr,+mmx,+sse,+sse2,+x87" "unsafe-fp-math"="false" "use-soft-float"="false" }
attributes #8 = { nounwind sspstrong uwtable "correctly-rounded-divide-sqrt-fp-math"="false" "disable-tail-calls"="false" "frame-pointer"="none" "less-precise-fpmad"="false" "min-legal-vector-width"="0" "no-infs-fp-math"="false" "no-jump-tables"="false" "no-nans-fp-math"="false" "no-signed-zeros-fp-math"="false" "no-trapping-math"="false" "stack-protector-buffer-size"="8" "target-cpu"="x86-64" "target-features"="+cx8,+fxsr,+mmx,+sse,+sse2,+x87" "unsafe-fp-math"="false" "use-soft-float"="false" }
attributes #9 = { noinline noreturn nounwind }
attributes #10 = { nobuiltin nounwind "correctly-rounded-divide-sqrt-fp-math"="false" "disable-tail-calls"="false" "frame-pointer"="none" "less-precise-fpmad"="false" "no-infs-fp-math"="false" "no-nans-fp-math"="false" "no-signed-zeros-fp-math"="false" "no-trapping-math"="false" "stack-protector-buffer-size"="8" "target-cpu"="x86-64" "target-features"="+cx8,+fxsr,+mmx,+sse,+sse2,+x87" "unsafe-fp-math"="false" "use-soft-float"="false" }
attributes #11 = { noreturn nounwind "correctly-rounded-divide-sqrt-fp-math"="false" "disable-tail-calls"="false" "frame-pointer"="none" "less-precise-fpmad"="false" "no-infs-fp-math"="false" "no-nans-fp-math"="false" "no-signed-zeros-fp-math"="false" "no-trapping-math"="false" "stack-protector-buffer-size"="8" "target-cpu"="x86-64" "target-features"="+cx8,+fxsr,+mmx,+sse,+sse2,+x87" "unsafe-fp-math"="false" "use-soft-float"="false" }
attributes #12 = { inlinehint sspstrong uwtable "correctly-rounded-divide-sqrt-fp-math"="false" "disable-tail-calls"="false" "frame-pointer"="none" "less-precise-fpmad"="false" "min-legal-vector-width"="0" "no-infs-fp-math"="false" "no-jump-tables"="false" "no-nans-fp-math"="false" "no-signed-zeros-fp-math"="false" "no-trapping-math"="false" "stack-protector-buffer-size"="8" "target-cpu"="x86-64" "target-features"="+cx8,+fxsr,+mmx,+sse,+sse2,+x87" "unsafe-fp-math"="false" "use-soft-float"="false" }
attributes #13 = { nounwind }
attributes #14 = { builtin nounwind }
attributes #15 = { noreturn nounwind }

!llvm.dbg.cu = !{!0}
!llvm.module.flags = !{!2544, !2545, !2546, !2547, !2548}
!llvm.ident = !{!2549}

!0 = distinct !DICompileUnit(language: DW_LANG_C_plus_plus_14, file: !1, producer: "clang version 10.0.0 ", isOptimized: true, runtimeVersion: 0, emissionKind: FullDebug, enums: !2, retainedTypes: !1380, imports: !1924, splitDebugInlining: false, nameTableKind: None)
!1 = !DIFile(filename: "../elements/standard/delayunqueue.cc", directory: "/home/john/projects/click/ir-dir")
!2 = !{!3, !16, !550, !660, !1283, !1294, !1373}
!3 = !DICompositeType(tag: DW_TAG_enumeration_type, name: "CleanupStage", scope: !5, file: !4, line: 97, baseType: !6, size: 32, elements: !7, identifier: "_ZTSN7Element12CleanupStageE")
!4 = !DIFile(filename: "../dummy_inc/click/element.hh", directory: "/home/john/projects/click/ir-dir")
!5 = !DICompositeType(tag: DW_TAG_class_type, name: "Element", file: !4, line: 29, flags: DIFlagFwdDecl, identifier: "_ZTS7Element")
!6 = !DIBasicType(name: "unsigned int", size: 32, encoding: DW_ATE_unsigned)
!7 = !{!8, !9, !10, !11, !12, !13, !14, !15}
!8 = !DIEnumerator(name: "CLEANUP_NO_ROUTER", value: 0, isUnsigned: true)
!9 = !DIEnumerator(name: "CLEANUP_BEFORE_CONFIGURE", value: 0, isUnsigned: true)
!10 = !DIEnumerator(name: "CLEANUP_CONFIGURE_FAILED", value: 1, isUnsigned: true)
!11 = !DIEnumerator(name: "CLEANUP_CONFIGURED", value: 2, isUnsigned: true)
!12 = !DIEnumerator(name: "CLEANUP_INITIALIZE_FAILED", value: 3, isUnsigned: true)
!13 = !DIEnumerator(name: "CLEANUP_INITIALIZED", value: 4, isUnsigned: true)
!14 = !DIEnumerator(name: "CLEANUP_ROUTER_INITIALIZED", value: 5, isUnsigned: true)
!15 = !DIEnumerator(name: "CLEANUP_MANUAL", value: 6, isUnsigned: true)
!16 = !DICompositeType(tag: DW_TAG_enumeration_type, name: "warp_class_type", scope: !18, file: !17, line: 571, baseType: !6, size: 32, elements: !545, identifier: "_ZTSN9Timestamp15warp_class_typeE")
!17 = !DIFile(filename: "../dummy_inc/click/timestamp.hh", directory: "/home/john/projects/click/ir-dir")
!18 = distinct !DICompositeType(tag: DW_TAG_class_type, name: "Timestamp", file: !17, line: 122, size: 64, flags: DIFlagTypePassByValue | DIFlagNonTrivial, elements: !19, identifier: "_ZTS9Timestamp")
!19 = !{!20, !29, !33, !39, !43, !47, !50, !54, !66, !77, !82, !91, !103, !107, !108, !111, !112, !113, !114, !117, !120, !121, !122, !123, !126, !127, !130, !133, !137, !138, !139, !142, !143, !144, !149, !153, !156, !159, !162, !165, !166, !167, !168, !169, !172, !173, !176, !177, !178, !179, !180, !181, !182, !185, !186, !187, !188, !189, !190, !191, !192, !193, !493, !494, !497, !498, !499, !500, !501, !502, !503, !506, !509, !513, !514, !517, !520, !521, !522, !523, !524, !525, !526, !529, !533, !536, !539, !542}
!20 = !DIDerivedType(tag: DW_TAG_member, name: "_t", scope: !18, file: !17, line: 672, baseType: !21, size: 64)
!21 = distinct !DICompositeType(tag: DW_TAG_union_type, name: "rep_t", scope: !18, file: !17, line: 539, size: 64, flags: DIFlagTypePassByValue, elements: !22, identifier: "_ZTSN9Timestamp5rep_tE")
!22 = !{!23}
!23 = !DIDerivedType(tag: DW_TAG_member, name: "x", scope: !21, file: !17, line: 541, baseType: !24, size: 64)
!24 = !DIDerivedType(tag: DW_TAG_typedef, name: "int64_t", file: !25, line: 27, baseType: !26)
!25 = !DIFile(filename: "/usr/include/bits/stdint-intn.h", directory: "")
!26 = !DIDerivedType(tag: DW_TAG_typedef, name: "__int64_t", file: !27, line: 44, baseType: !28)
!27 = !DIFile(filename: "/usr/include/bits/types.h", directory: "")
!28 = !DIBasicType(name: "long int", size: 64, encoding: DW_ATE_signed)
!29 = !DISubprogram(name: "Timestamp", scope: !18, file: !17, line: 174, type: !30, scopeLine: 174, flags: DIFlagPublic | DIFlagPrototyped, spFlags: DISPFlagOptimized)
!30 = !DISubroutineType(types: !31)
!31 = !{null, !32}
!32 = !DIDerivedType(tag: DW_TAG_pointer_type, baseType: !18, size: 64, flags: DIFlagArtificial | DIFlagObjectPointer)
!33 = !DISubprogram(name: "Timestamp", scope: !18, file: !17, line: 187, type: !34, scopeLine: 187, flags: DIFlagPublic | DIFlagExplicit | DIFlagPrototyped, spFlags: DISPFlagOptimized)
!34 = !DISubroutineType(types: !35)
!35 = !{null, !32, !28, !36}
!36 = !DIDerivedType(tag: DW_TAG_typedef, name: "uint32_t", file: !37, line: 26, baseType: !38)
!37 = !DIFile(filename: "/usr/include/bits/stdint-uintn.h", directory: "")
!38 = !DIDerivedType(tag: DW_TAG_typedef, name: "__uint32_t", file: !27, line: 42, baseType: !6)
!39 = !DISubprogram(name: "Timestamp", scope: !18, file: !17, line: 191, type: !40, scopeLine: 191, flags: DIFlagPublic | DIFlagExplicit | DIFlagPrototyped, spFlags: DISPFlagOptimized)
!40 = !DISubroutineType(types: !41)
!41 = !{null, !32, !42, !36}
!42 = !DIBasicType(name: "int", size: 32, encoding: DW_ATE_signed)
!43 = !DISubprogram(name: "Timestamp", scope: !18, file: !17, line: 195, type: !44, scopeLine: 195, flags: DIFlagPublic | DIFlagExplicit | DIFlagPrototyped, spFlags: DISPFlagOptimized)
!44 = !DISubroutineType(types: !45)
!45 = !{null, !32, !46, !36}
!46 = !DIBasicType(name: "long unsigned int", size: 64, encoding: DW_ATE_unsigned)
!47 = !DISubprogram(name: "Timestamp", scope: !18, file: !17, line: 199, type: !48, scopeLine: 199, flags: DIFlagPublic | DIFlagExplicit | DIFlagPrototyped, spFlags: DISPFlagOptimized)
!48 = !DISubroutineType(types: !49)
!49 = !{null, !32, !6, !36}
!50 = !DISubprogram(name: "Timestamp", scope: !18, file: !17, line: 203, type: !51, scopeLine: 203, flags: DIFlagPublic | DIFlagExplicit | DIFlagPrototyped, spFlags: DISPFlagOptimized)
!51 = !DISubroutineType(types: !52)
!52 = !{null, !32, !53}
!53 = !DIBasicType(name: "double", size: 64, encoding: DW_ATE_float)
!54 = !DISubprogram(name: "Timestamp", scope: !18, file: !17, line: 206, type: !55, scopeLine: 206, flags: DIFlagPublic | DIFlagPrototyped, spFlags: DISPFlagOptimized)
!55 = !DISubroutineType(types: !56)
!56 = !{null, !32, !57}
!57 = !DIDerivedType(tag: DW_TAG_reference_type, baseType: !58, size: 64)
!58 = !DIDerivedType(tag: DW_TAG_const_type, baseType: !59)
!59 = distinct !DICompositeType(tag: DW_TAG_structure_type, name: "timeval", file: !60, line: 8, size: 128, flags: DIFlagTypePassByValue, elements: !61, identifier: "_ZTS7timeval")
!60 = !DIFile(filename: "/usr/include/bits/types/struct_timeval.h", directory: "")
!61 = !{!62, !64}
!62 = !DIDerivedType(tag: DW_TAG_member, name: "tv_sec", scope: !59, file: !60, line: 10, baseType: !63, size: 64)
!63 = !DIDerivedType(tag: DW_TAG_typedef, name: "__time_t", file: !27, line: 160, baseType: !28)
!64 = !DIDerivedType(tag: DW_TAG_member, name: "tv_usec", scope: !59, file: !60, line: 11, baseType: !65, size: 64, offset: 64)
!65 = !DIDerivedType(tag: DW_TAG_typedef, name: "__suseconds_t", file: !27, line: 162, baseType: !28)
!66 = !DISubprogram(name: "Timestamp", scope: !18, file: !17, line: 208, type: !67, scopeLine: 208, flags: DIFlagPublic | DIFlagPrototyped, spFlags: DISPFlagOptimized)
!67 = !DISubroutineType(types: !68)
!68 = !{null, !32, !69}
!69 = !DIDerivedType(tag: DW_TAG_reference_type, baseType: !70, size: 64)
!70 = !DIDerivedType(tag: DW_TAG_const_type, baseType: !71)
!71 = distinct !DICompositeType(tag: DW_TAG_structure_type, name: "timespec", file: !72, line: 10, size: 128, flags: DIFlagTypePassByValue, elements: !73, identifier: "_ZTS8timespec")
!72 = !DIFile(filename: "/usr/include/bits/types/struct_timespec.h", directory: "")
!73 = !{!74, !75}
!74 = !DIDerivedType(tag: DW_TAG_member, name: "tv_sec", scope: !71, file: !72, line: 12, baseType: !63, size: 64)
!75 = !DIDerivedType(tag: DW_TAG_member, name: "tv_nsec", scope: !71, file: !72, line: 16, baseType: !76, size: 64, offset: 64)
!76 = !DIDerivedType(tag: DW_TAG_typedef, name: "__syscall_slong_t", file: !27, line: 196, baseType: !28)
!77 = !DISubprogram(name: "Timestamp", scope: !18, file: !17, line: 212, type: !78, scopeLine: 212, flags: DIFlagPublic | DIFlagPrototyped, spFlags: DISPFlagOptimized)
!78 = !DISubroutineType(types: !79)
!79 = !{null, !32, !80}
!80 = !DIDerivedType(tag: DW_TAG_reference_type, baseType: !81, size: 64)
!81 = !DIDerivedType(tag: DW_TAG_const_type, baseType: !21)
!82 = !DISubprogram(name: "Timestamp", scope: !18, file: !17, line: 217, type: !83, scopeLine: 217, flags: DIFlagPublic | DIFlagPrototyped, spFlags: DISPFlagOptimized)
!83 = !DISubroutineType(types: !84)
!84 = !{null, !32, !85}
!85 = !DIDerivedType(tag: DW_TAG_reference_type, baseType: !86, size: 64)
!86 = !DIDerivedType(tag: DW_TAG_const_type, baseType: !87)
!87 = !DIDerivedType(tag: DW_TAG_typedef, name: "uninitialized_t", scope: !18, file: !17, line: 168, baseType: !88)
!88 = distinct !DICompositeType(tag: DW_TAG_structure_type, name: "uninitialized_type", file: !89, line: 317, size: 8, flags: DIFlagTypePassByValue, elements: !90, identifier: "_ZTS18uninitialized_type")
!89 = !DIFile(filename: "../dummy_inc/click/config.h", directory: "/home/john/projects/click/ir-dir")
!90 = !{}
!91 = !DISubprogram(name: "operator int (Timestamp::*)() const", linkageName: "_ZNK9TimestampcvMS_KFivEEv", scope: !18, file: !17, line: 222, type: !92, scopeLine: 222, flags: DIFlagPublic | DIFlagPrototyped, spFlags: DISPFlagOptimized)
!92 = !DISubroutineType(types: !93)
!93 = !{!94, !101}
!94 = !DIDerivedType(tag: DW_TAG_typedef, name: "unspecified_bool_type", scope: !18, file: !17, line: 221, baseType: !95)
!95 = !DIDerivedType(tag: DW_TAG_ptr_to_member_type, baseType: !96, size: 128, extraData: !18)
!96 = !DISubroutineType(types: !97)
!97 = !{!98, !101}
!98 = !DIDerivedType(tag: DW_TAG_typedef, name: "seconds_type", scope: !18, file: !17, line: 125, baseType: !99)
!99 = !DIDerivedType(tag: DW_TAG_typedef, name: "int32_t", file: !25, line: 26, baseType: !100)
!100 = !DIDerivedType(tag: DW_TAG_typedef, name: "__int32_t", file: !27, line: 41, baseType: !42)
!101 = !DIDerivedType(tag: DW_TAG_pointer_type, baseType: !102, size: 64, flags: DIFlagArtificial | DIFlagObjectPointer)
!102 = !DIDerivedType(tag: DW_TAG_const_type, baseType: !18)
!103 = !DISubprogram(name: "is_negative", linkageName: "_ZNK9Timestamp11is_negativeEv", scope: !18, file: !17, line: 225, type: !104, scopeLine: 225, flags: DIFlagPublic | DIFlagPrototyped, spFlags: DISPFlagOptimized)
!104 = !DISubroutineType(types: !105)
!105 = !{!106, !101}
!106 = !DIBasicType(name: "bool", size: 8, encoding: DW_ATE_boolean)
!107 = !DISubprogram(name: "sec", linkageName: "_ZNK9Timestamp3secEv", scope: !18, file: !17, line: 233, type: !96, scopeLine: 233, flags: DIFlagPublic | DIFlagPrototyped, spFlags: DISPFlagOptimized)
!108 = !DISubprogram(name: "subsec", linkageName: "_ZNK9Timestamp6subsecEv", scope: !18, file: !17, line: 234, type: !109, scopeLine: 234, flags: DIFlagPublic | DIFlagPrototyped, spFlags: DISPFlagOptimized)
!109 = !DISubroutineType(types: !110)
!110 = !{!36, !101}
!111 = !DISubprogram(name: "msec", linkageName: "_ZNK9Timestamp4msecEv", scope: !18, file: !17, line: 235, type: !109, scopeLine: 235, flags: DIFlagPublic | DIFlagPrototyped, spFlags: DISPFlagOptimized)
!112 = !DISubprogram(name: "usec", linkageName: "_ZNK9Timestamp4usecEv", scope: !18, file: !17, line: 236, type: !109, scopeLine: 236, flags: DIFlagPublic | DIFlagPrototyped, spFlags: DISPFlagOptimized)
!113 = !DISubprogram(name: "nsec", linkageName: "_ZNK9Timestamp4nsecEv", scope: !18, file: !17, line: 237, type: !109, scopeLine: 237, flags: DIFlagPublic | DIFlagPrototyped, spFlags: DISPFlagOptimized)
!114 = !DISubprogram(name: "set_sec", linkageName: "_ZN9Timestamp7set_secEi", scope: !18, file: !17, line: 239, type: !115, scopeLine: 239, flags: DIFlagPublic | DIFlagPrototyped, spFlags: DISPFlagOptimized)
!115 = !DISubroutineType(types: !116)
!116 = !{null, !32, !98}
!117 = !DISubprogram(name: "set_subsec", linkageName: "_ZN9Timestamp10set_subsecEj", scope: !18, file: !17, line: 240, type: !118, scopeLine: 240, flags: DIFlagPublic | DIFlagPrototyped, spFlags: DISPFlagOptimized)
!118 = !DISubroutineType(types: !119)
!119 = !{null, !32, !36}
!120 = !DISubprogram(name: "msec1", linkageName: "_ZNK9Timestamp5msec1Ev", scope: !18, file: !17, line: 242, type: !96, scopeLine: 242, flags: DIFlagPublic | DIFlagPrototyped, spFlags: DISPFlagOptimized)
!121 = !DISubprogram(name: "usec1", linkageName: "_ZNK9Timestamp5usec1Ev", scope: !18, file: !17, line: 243, type: !96, scopeLine: 243, flags: DIFlagPublic | DIFlagPrototyped, spFlags: DISPFlagOptimized)
!122 = !DISubprogram(name: "nsec1", linkageName: "_ZNK9Timestamp5nsec1Ev", scope: !18, file: !17, line: 244, type: !96, scopeLine: 244, flags: DIFlagPublic | DIFlagPrototyped, spFlags: DISPFlagOptimized)
!123 = !DISubprogram(name: "timeval", linkageName: "_ZNK9Timestamp7timevalEv", scope: !18, file: !17, line: 250, type: !124, scopeLine: 250, flags: DIFlagPublic | DIFlagPrototyped, spFlags: DISPFlagOptimized)
!124 = !DISubroutineType(types: !125)
!125 = !{!59, !101}
!126 = !DISubprogram(name: "timeval_ceil", linkageName: "_ZNK9Timestamp12timeval_ceilEv", scope: !18, file: !17, line: 251, type: !124, scopeLine: 251, flags: DIFlagPublic | DIFlagPrototyped, spFlags: DISPFlagOptimized)
!127 = !DISubprogram(name: "timespec", linkageName: "_ZNK9Timestamp8timespecEv", scope: !18, file: !17, line: 257, type: !128, scopeLine: 257, flags: DIFlagPublic | DIFlagPrototyped, spFlags: DISPFlagOptimized)
!128 = !DISubroutineType(types: !129)
!129 = !{!71, !101}
!130 = !DISubprogram(name: "doubleval", linkageName: "_ZNK9Timestamp9doublevalEv", scope: !18, file: !17, line: 262, type: !131, scopeLine: 262, flags: DIFlagPublic | DIFlagPrototyped, spFlags: DISPFlagOptimized)
!131 = !DISubroutineType(types: !132)
!132 = !{!53, !101}
!133 = !DISubprogram(name: "msecval", linkageName: "_ZNK9Timestamp7msecvalEv", scope: !18, file: !17, line: 265, type: !134, scopeLine: 265, flags: DIFlagPublic | DIFlagPrototyped, spFlags: DISPFlagOptimized)
!134 = !DISubroutineType(types: !135)
!135 = !{!136, !101}
!136 = !DIDerivedType(tag: DW_TAG_typedef, name: "value_type", scope: !18, file: !17, line: 128, baseType: !24)
!137 = !DISubprogram(name: "usecval", linkageName: "_ZNK9Timestamp7usecvalEv", scope: !18, file: !17, line: 273, type: !134, scopeLine: 273, flags: DIFlagPublic | DIFlagPrototyped, spFlags: DISPFlagOptimized)
!138 = !DISubprogram(name: "nsecval", linkageName: "_ZNK9Timestamp7nsecvalEv", scope: !18, file: !17, line: 281, type: !134, scopeLine: 281, flags: DIFlagPublic | DIFlagPrototyped, spFlags: DISPFlagOptimized)
!139 = !DISubprogram(name: "msec_ceil", linkageName: "_ZNK9Timestamp9msec_ceilEv", scope: !18, file: !17, line: 290, type: !140, scopeLine: 290, flags: DIFlagPublic | DIFlagPrototyped, spFlags: DISPFlagOptimized)
!140 = !DISubroutineType(types: !141)
!141 = !{!18, !101}
!142 = !DISubprogram(name: "usec_ceil", linkageName: "_ZNK9Timestamp9usec_ceilEv", scope: !18, file: !17, line: 295, type: !140, scopeLine: 295, flags: DIFlagPublic | DIFlagPrototyped, spFlags: DISPFlagOptimized)
!143 = !DISubprogram(name: "nsec_ceil", linkageName: "_ZNK9Timestamp9nsec_ceilEv", scope: !18, file: !17, line: 304, type: !140, scopeLine: 304, flags: DIFlagPublic | DIFlagPrototyped, spFlags: DISPFlagOptimized)
!144 = !DISubprogram(name: "make_jiffies", linkageName: "_ZN9Timestamp12make_jiffiesEj", scope: !18, file: !17, line: 310, type: !145, scopeLine: 310, flags: DIFlagPublic | DIFlagPrototyped | DIFlagStaticMember, spFlags: DISPFlagOptimized)
!145 = !DISubroutineType(types: !146)
!146 = !{!18, !147}
!147 = !DIDerivedType(tag: DW_TAG_typedef, name: "click_jiffies_t", file: !148, line: 477, baseType: !6)
!148 = !DIFile(filename: "../dummy_inc/click/glue.hh", directory: "/home/john/projects/click/ir-dir")
!149 = !DISubprogram(name: "make_jiffies", linkageName: "_ZN9Timestamp12make_jiffiesEi", scope: !18, file: !17, line: 312, type: !150, scopeLine: 312, flags: DIFlagPublic | DIFlagPrototyped | DIFlagStaticMember, spFlags: DISPFlagOptimized)
!150 = !DISubroutineType(types: !151)
!151 = !{!18, !152}
!152 = !DIDerivedType(tag: DW_TAG_typedef, name: "click_jiffies_difference_t", file: !148, line: 478, baseType: !42)
!153 = !DISubprogram(name: "jiffies", linkageName: "_ZNK9Timestamp7jiffiesEv", scope: !18, file: !17, line: 314, type: !154, scopeLine: 314, flags: DIFlagPublic | DIFlagPrototyped, spFlags: DISPFlagOptimized)
!154 = !DISubroutineType(types: !155)
!155 = !{!147, !101}
!156 = !DISubprogram(name: "make_sec", linkageName: "_ZN9Timestamp8make_secEi", scope: !18, file: !17, line: 318, type: !157, scopeLine: 318, flags: DIFlagPublic | DIFlagPrototyped | DIFlagStaticMember, spFlags: DISPFlagOptimized)
!157 = !DISubroutineType(types: !158)
!158 = !{!18, !98}
!159 = !DISubprogram(name: "make_msec", linkageName: "_ZN9Timestamp9make_msecEij", scope: !18, file: !17, line: 324, type: !160, scopeLine: 324, flags: DIFlagPublic | DIFlagPrototyped | DIFlagStaticMember, spFlags: DISPFlagOptimized)
!160 = !DISubroutineType(types: !161)
!161 = !{!18, !98, !36}
!162 = !DISubprogram(name: "make_msec", linkageName: "_ZN9Timestamp9make_msecEl", scope: !18, file: !17, line: 328, type: !163, scopeLine: 328, flags: DIFlagPublic | DIFlagPrototyped | DIFlagStaticMember, spFlags: DISPFlagOptimized)
!163 = !DISubroutineType(types: !164)
!164 = !{!18, !136}
!165 = !DISubprogram(name: "make_usec", linkageName: "_ZN9Timestamp9make_usecEij", scope: !18, file: !17, line: 341, type: !160, scopeLine: 341, flags: DIFlagPublic | DIFlagPrototyped | DIFlagStaticMember, spFlags: DISPFlagOptimized)
!166 = !DISubprogram(name: "make_usec", linkageName: "_ZN9Timestamp9make_usecEl", scope: !18, file: !17, line: 345, type: !163, scopeLine: 345, flags: DIFlagPublic | DIFlagPrototyped | DIFlagStaticMember, spFlags: DISPFlagOptimized)
!167 = !DISubprogram(name: "make_nsec", linkageName: "_ZN9Timestamp9make_nsecEij", scope: !18, file: !17, line: 358, type: !160, scopeLine: 358, flags: DIFlagPublic | DIFlagPrototyped | DIFlagStaticMember, spFlags: DISPFlagOptimized)
!168 = !DISubprogram(name: "make_nsec", linkageName: "_ZN9Timestamp9make_nsecEl", scope: !18, file: !17, line: 362, type: !163, scopeLine: 362, flags: DIFlagPublic | DIFlagPrototyped | DIFlagStaticMember, spFlags: DISPFlagOptimized)
!169 = !DISubprogram(name: "epsilon", linkageName: "_ZN9Timestamp7epsilonEv", scope: !18, file: !17, line: 375, type: !170, scopeLine: 375, flags: DIFlagPublic | DIFlagPrototyped | DIFlagStaticMember, spFlags: DISPFlagOptimized)
!170 = !DISubroutineType(types: !171)
!171 = !{!18}
!172 = !DISubprogram(name: "clear", linkageName: "_ZN9Timestamp5clearEv", scope: !18, file: !17, line: 380, type: !30, scopeLine: 380, flags: DIFlagPublic | DIFlagPrototyped, spFlags: DISPFlagOptimized)
!173 = !DISubprogram(name: "assign", linkageName: "_ZN9Timestamp6assignEij", scope: !18, file: !17, line: 388, type: !174, scopeLine: 388, flags: DIFlagPublic | DIFlagPrototyped, spFlags: DISPFlagOptimized)
!174 = !DISubroutineType(types: !175)
!175 = !{null, !32, !98, !36}
!176 = !DISubprogram(name: "assign_usec", linkageName: "_ZN9Timestamp11assign_usecEij", scope: !18, file: !17, line: 397, type: !174, scopeLine: 397, flags: DIFlagPublic | DIFlagPrototyped, spFlags: DISPFlagOptimized)
!177 = !DISubprogram(name: "assign_nsec", linkageName: "_ZN9Timestamp11assign_nsecEij", scope: !18, file: !17, line: 401, type: !174, scopeLine: 401, flags: DIFlagPublic | DIFlagPrototyped, spFlags: DISPFlagOptimized)
!178 = !DISubprogram(name: "set", linkageName: "_ZN9Timestamp3setEij", scope: !18, file: !17, line: 408, type: !174, scopeLine: 408, flags: DIFlagPublic | DIFlagPrototyped, spFlags: DISPFlagOptimized)
!179 = !DISubprogram(name: "set_usec", linkageName: "_ZN9Timestamp8set_usecEij", scope: !18, file: !17, line: 411, type: !174, scopeLine: 411, flags: DIFlagPublic | DIFlagPrototyped, spFlags: DISPFlagOptimized)
!180 = !DISubprogram(name: "set_nsec", linkageName: "_ZN9Timestamp8set_nsecEij", scope: !18, file: !17, line: 414, type: !174, scopeLine: 414, flags: DIFlagPublic | DIFlagPrototyped, spFlags: DISPFlagOptimized)
!181 = !DISubprogram(name: "set_now", linkageName: "_ZN9Timestamp7set_nowEv", scope: !18, file: !17, line: 417, type: !30, scopeLine: 417, flags: DIFlagPublic | DIFlagPrototyped, spFlags: DISPFlagOptimized)
!182 = !DISubprogram(name: "set_timeval_ioctl", linkageName: "_ZN9Timestamp17set_timeval_ioctlEii", scope: !18, file: !17, line: 420, type: !183, scopeLine: 420, flags: DIFlagPublic | DIFlagPrototyped, spFlags: DISPFlagOptimized)
!183 = !DISubroutineType(types: !184)
!184 = !{!42, !32, !42, !42}
!185 = !DISubprogram(name: "now", linkageName: "_ZN9Timestamp3nowEv", scope: !18, file: !17, line: 432, type: !170, scopeLine: 432, flags: DIFlagPublic | DIFlagPrototyped | DIFlagStaticMember, spFlags: DISPFlagOptimized)
!186 = !DISubprogram(name: "assign_now", linkageName: "_ZN9Timestamp10assign_nowEv", scope: !18, file: !17, line: 438, type: !30, scopeLine: 438, flags: DIFlagPublic | DIFlagPrototyped, spFlags: DISPFlagOptimized)
!187 = !DISubprogram(name: "recent", linkageName: "_ZN9Timestamp6recentEv", scope: !18, file: !17, line: 446, type: !170, scopeLine: 446, flags: DIFlagPublic | DIFlagPrototyped | DIFlagStaticMember, spFlags: DISPFlagOptimized)
!188 = !DISubprogram(name: "assign_recent", linkageName: "_ZN9Timestamp13assign_recentEv", scope: !18, file: !17, line: 452, type: !30, scopeLine: 452, flags: DIFlagPublic | DIFlagPrototyped, spFlags: DISPFlagOptimized)
!189 = !DISubprogram(name: "now_steady", linkageName: "_ZN9Timestamp10now_steadyEv", scope: !18, file: !17, line: 466, type: !170, scopeLine: 466, flags: DIFlagPublic | DIFlagPrototyped | DIFlagStaticMember, spFlags: DISPFlagOptimized)
!190 = !DISubprogram(name: "assign_now_steady", linkageName: "_ZN9Timestamp17assign_now_steadyEv", scope: !18, file: !17, line: 472, type: !30, scopeLine: 472, flags: DIFlagPublic | DIFlagPrototyped, spFlags: DISPFlagOptimized)
!191 = !DISubprogram(name: "recent_steady", linkageName: "_ZN9Timestamp13recent_steadyEv", scope: !18, file: !17, line: 481, type: !170, scopeLine: 481, flags: DIFlagPublic | DIFlagPrototyped | DIFlagStaticMember, spFlags: DISPFlagOptimized)
!192 = !DISubprogram(name: "assign_recent_steady", linkageName: "_ZN9Timestamp20assign_recent_steadyEv", scope: !18, file: !17, line: 487, type: !30, scopeLine: 487, flags: DIFlagPublic | DIFlagPrototyped, spFlags: DISPFlagOptimized)
!193 = !DISubprogram(name: "unparse", linkageName: "_ZNK9Timestamp7unparseEv", scope: !18, file: !17, line: 496, type: !194, scopeLine: 496, flags: DIFlagPublic | DIFlagPrototyped, spFlags: DISPFlagOptimized)
!194 = !DISubroutineType(types: !195)
!195 = !{!196, !101}
!196 = distinct !DICompositeType(tag: DW_TAG_class_type, name: "String", file: !197, line: 19, size: 192, flags: DIFlagTypePassByReference | DIFlagNonTrivial, elements: !198, identifier: "_ZTS6String")
!197 = !DIFile(filename: "../dummy_inc/click/string.hh", directory: "/home/john/projects/click/ir-dir")
!198 = !{!199, !205, !223, !224, !228, !232, !234, !235, !239, !244, !248, !251, !254, !260, !263, !266, !269, !272, !275, !278, !281, !284, !287, !291, !295, !298, !299, !302, !305, !306, !309, !312, !315, !319, !325, !329, !332, !333, !338, !341, !342, !346, !347, !350, !351, !354, !355, !358, !361, !364, !367, !370, !373, !376, !379, !382, !385, !388, !391, !392, !393, !394, !397, !400, !401, !402, !403, !404, !405, !406, !410, !413, !416, !419, !420, !421, !422, !423, !424, !427, !431, !432, !433, !434, !437, !438, !439, !440, !441, !442, !445, !446, !447, !448, !451, !454, !455, !458, !461, !464, !467, !470, !473, !476, !477, !478, !479, !482, !485, !488, !489, !490}
!199 = !DIDerivedType(tag: DW_TAG_member, name: "bool_data", scope: !196, file: !197, line: 184, baseType: !200, flags: DIFlagPublic | DIFlagStaticMember)
!200 = !DICompositeType(tag: DW_TAG_array_type, baseType: !201, size: 88, elements: !203)
!201 = !DIDerivedType(tag: DW_TAG_const_type, baseType: !202)
!202 = !DIBasicType(name: "char", size: 8, encoding: DW_ATE_signed_char)
!203 = !{!204}
!204 = !DISubrange(count: 11)
!205 = !DIDerivedType(tag: DW_TAG_member, name: "_r", scope: !196, file: !197, line: 211, baseType: !206, size: 192)
!206 = distinct !DICompositeType(tag: DW_TAG_structure_type, name: "rep_t", scope: !196, file: !197, line: 204, size: 192, flags: DIFlagTypePassByValue, elements: !207, identifier: "_ZTSN6String5rep_tE")
!207 = !{!208, !210, !211}
!208 = !DIDerivedType(tag: DW_TAG_member, name: "data", scope: !206, file: !197, line: 205, baseType: !209, size: 64)
!209 = !DIDerivedType(tag: DW_TAG_pointer_type, baseType: !201, size: 64)
!210 = !DIDerivedType(tag: DW_TAG_member, name: "length", scope: !206, file: !197, line: 206, baseType: !42, size: 32, offset: 64)
!211 = !DIDerivedType(tag: DW_TAG_member, name: "memo", scope: !206, file: !197, line: 207, baseType: !212, size: 64, offset: 128)
!212 = !DIDerivedType(tag: DW_TAG_pointer_type, baseType: !213, size: 64)
!213 = distinct !DICompositeType(tag: DW_TAG_structure_type, name: "memo_t", scope: !196, file: !197, line: 189, size: 160, flags: DIFlagTypePassByValue, elements: !214, identifier: "_ZTSN6String6memo_tE")
!214 = !{!215, !217, !218, !219}
!215 = !DIDerivedType(tag: DW_TAG_member, name: "refcount", scope: !213, file: !197, line: 190, baseType: !216, size: 32)
!216 = !DIDerivedType(tag: DW_TAG_volatile_type, baseType: !36)
!217 = !DIDerivedType(tag: DW_TAG_member, name: "capacity", scope: !213, file: !197, line: 191, baseType: !36, size: 32, offset: 32)
!218 = !DIDerivedType(tag: DW_TAG_member, name: "dirty", scope: !213, file: !197, line: 192, baseType: !216, size: 32, offset: 64)
!219 = !DIDerivedType(tag: DW_TAG_member, name: "real_data", scope: !213, file: !197, line: 197, baseType: !220, size: 64, offset: 96)
!220 = !DICompositeType(tag: DW_TAG_array_type, baseType: !202, size: 64, elements: !221)
!221 = !{!222}
!222 = !DISubrange(count: 8)
!223 = !DIDerivedType(tag: DW_TAG_member, name: "null_data", scope: !196, file: !197, line: 292, baseType: !201, flags: DIFlagStaticMember)
!224 = !DIDerivedType(tag: DW_TAG_member, name: "oom_data", scope: !196, file: !197, line: 293, baseType: !225, flags: DIFlagStaticMember)
!225 = !DICompositeType(tag: DW_TAG_array_type, baseType: !201, size: 120, elements: !226)
!226 = !{!227}
!227 = !DISubrange(count: 15)
!228 = !DIDerivedType(tag: DW_TAG_member, name: "int_data", scope: !196, file: !197, line: 294, baseType: !229, flags: DIFlagStaticMember)
!229 = !DICompositeType(tag: DW_TAG_array_type, baseType: !201, size: 160, elements: !230)
!230 = !{!231}
!231 = !DISubrange(count: 20)
!232 = !DIDerivedType(tag: DW_TAG_member, name: "null_string_rep", scope: !196, file: !197, line: 295, baseType: !233, flags: DIFlagStaticMember)
!233 = !DIDerivedType(tag: DW_TAG_const_type, baseType: !206)
!234 = !DIDerivedType(tag: DW_TAG_member, name: "oom_string_rep", scope: !196, file: !197, line: 296, baseType: !233, flags: DIFlagStaticMember)
!235 = !DISubprogram(name: "String", scope: !196, file: !197, line: 39, type: !236, scopeLine: 39, flags: DIFlagPublic | DIFlagPrototyped, spFlags: DISPFlagOptimized)
!236 = !DISubroutineType(types: !237)
!237 = !{null, !238}
!238 = !DIDerivedType(tag: DW_TAG_pointer_type, baseType: !196, size: 64, flags: DIFlagArtificial | DIFlagObjectPointer)
!239 = !DISubprogram(name: "String", scope: !196, file: !197, line: 40, type: !240, scopeLine: 40, flags: DIFlagPublic | DIFlagPrototyped, spFlags: DISPFlagOptimized)
!240 = !DISubroutineType(types: !241)
!241 = !{null, !238, !242}
!242 = !DIDerivedType(tag: DW_TAG_reference_type, baseType: !243, size: 64)
!243 = !DIDerivedType(tag: DW_TAG_const_type, baseType: !196)
!244 = !DISubprogram(name: "String", scope: !196, file: !197, line: 42, type: !245, scopeLine: 42, flags: DIFlagPublic | DIFlagPrototyped, spFlags: DISPFlagOptimized)
!245 = !DISubroutineType(types: !246)
!246 = !{null, !238, !247}
!247 = !DIDerivedType(tag: DW_TAG_rvalue_reference_type, baseType: !196, size: 64)
!248 = !DISubprogram(name: "String", scope: !196, file: !197, line: 44, type: !249, scopeLine: 44, flags: DIFlagPublic | DIFlagPrototyped, spFlags: DISPFlagOptimized)
!249 = !DISubroutineType(types: !250)
!250 = !{null, !238, !209}
!251 = !DISubprogram(name: "String", scope: !196, file: !197, line: 45, type: !252, scopeLine: 45, flags: DIFlagPublic | DIFlagPrototyped, spFlags: DISPFlagOptimized)
!252 = !DISubroutineType(types: !253)
!253 = !{null, !238, !209, !42}
!254 = !DISubprogram(name: "String", scope: !196, file: !197, line: 46, type: !255, scopeLine: 46, flags: DIFlagPublic | DIFlagPrototyped, spFlags: DISPFlagOptimized)
!255 = !DISubroutineType(types: !256)
!256 = !{null, !238, !257, !42}
!257 = !DIDerivedType(tag: DW_TAG_pointer_type, baseType: !258, size: 64)
!258 = !DIDerivedType(tag: DW_TAG_const_type, baseType: !259)
!259 = !DIBasicType(name: "unsigned char", size: 8, encoding: DW_ATE_unsigned_char)
!260 = !DISubprogram(name: "String", scope: !196, file: !197, line: 47, type: !261, scopeLine: 47, flags: DIFlagPublic | DIFlagPrototyped, spFlags: DISPFlagOptimized)
!261 = !DISubroutineType(types: !262)
!262 = !{null, !238, !209, !209}
!263 = !DISubprogram(name: "String", scope: !196, file: !197, line: 48, type: !264, scopeLine: 48, flags: DIFlagPublic | DIFlagPrototyped, spFlags: DISPFlagOptimized)
!264 = !DISubroutineType(types: !265)
!265 = !{null, !238, !257, !257}
!266 = !DISubprogram(name: "String", scope: !196, file: !197, line: 49, type: !267, scopeLine: 49, flags: DIFlagPublic | DIFlagExplicit | DIFlagPrototyped, spFlags: DISPFlagOptimized)
!267 = !DISubroutineType(types: !268)
!268 = !{null, !238, !106}
!269 = !DISubprogram(name: "String", scope: !196, file: !197, line: 50, type: !270, scopeLine: 50, flags: DIFlagPublic | DIFlagExplicit | DIFlagPrototyped, spFlags: DISPFlagOptimized)
!270 = !DISubroutineType(types: !271)
!271 = !{null, !238, !202}
!272 = !DISubprogram(name: "String", scope: !196, file: !197, line: 51, type: !273, scopeLine: 51, flags: DIFlagPublic | DIFlagExplicit | DIFlagPrototyped, spFlags: DISPFlagOptimized)
!273 = !DISubroutineType(types: !274)
!274 = !{null, !238, !259}
!275 = !DISubprogram(name: "String", scope: !196, file: !197, line: 52, type: !276, scopeLine: 52, flags: DIFlagPublic | DIFlagExplicit | DIFlagPrototyped, spFlags: DISPFlagOptimized)
!276 = !DISubroutineType(types: !277)
!277 = !{null, !238, !42}
!278 = !DISubprogram(name: "String", scope: !196, file: !197, line: 53, type: !279, scopeLine: 53, flags: DIFlagPublic | DIFlagExplicit | DIFlagPrototyped, spFlags: DISPFlagOptimized)
!279 = !DISubroutineType(types: !280)
!280 = !{null, !238, !6}
!281 = !DISubprogram(name: "String", scope: !196, file: !197, line: 54, type: !282, scopeLine: 54, flags: DIFlagPublic | DIFlagExplicit | DIFlagPrototyped, spFlags: DISPFlagOptimized)
!282 = !DISubroutineType(types: !283)
!283 = !{null, !238, !28}
!284 = !DISubprogram(name: "String", scope: !196, file: !197, line: 55, type: !285, scopeLine: 55, flags: DIFlagPublic | DIFlagExplicit | DIFlagPrototyped, spFlags: DISPFlagOptimized)
!285 = !DISubroutineType(types: !286)
!286 = !{null, !238, !46}
!287 = !DISubprogram(name: "String", scope: !196, file: !197, line: 57, type: !288, scopeLine: 57, flags: DIFlagPublic | DIFlagExplicit | DIFlagPrototyped, spFlags: DISPFlagOptimized)
!288 = !DISubroutineType(types: !289)
!289 = !{null, !238, !290}
!290 = !DIBasicType(name: "long long int", size: 64, encoding: DW_ATE_signed)
!291 = !DISubprogram(name: "String", scope: !196, file: !197, line: 58, type: !292, scopeLine: 58, flags: DIFlagPublic | DIFlagExplicit | DIFlagPrototyped, spFlags: DISPFlagOptimized)
!292 = !DISubroutineType(types: !293)
!293 = !{null, !238, !294}
!294 = !DIBasicType(name: "long long unsigned int", size: 64, encoding: DW_ATE_unsigned)
!295 = !DISubprogram(name: "String", scope: !196, file: !197, line: 65, type: !296, scopeLine: 65, flags: DIFlagPublic | DIFlagExplicit | DIFlagPrototyped, spFlags: DISPFlagOptimized)
!296 = !DISubroutineType(types: !297)
!297 = !{null, !238, !53}
!298 = !DISubprogram(name: "~String", scope: !196, file: !197, line: 67, type: !236, scopeLine: 67, flags: DIFlagPublic | DIFlagPrototyped, spFlags: DISPFlagOptimized)
!299 = !DISubprogram(name: "make_empty", linkageName: "_ZN6String10make_emptyEv", scope: !196, file: !197, line: 69, type: !300, scopeLine: 69, flags: DIFlagPublic | DIFlagPrototyped | DIFlagStaticMember, spFlags: DISPFlagOptimized)
!300 = !DISubroutineType(types: !301)
!301 = !{!242}
!302 = !DISubprogram(name: "make_uninitialized", linkageName: "_ZN6String18make_uninitializedEi", scope: !196, file: !197, line: 70, type: !303, scopeLine: 70, flags: DIFlagPublic | DIFlagPrototyped | DIFlagStaticMember, spFlags: DISPFlagOptimized)
!303 = !DISubroutineType(types: !304)
!304 = !{!196, !42}
!305 = !DISubprogram(name: "make_garbage", linkageName: "_ZN6String12make_garbageEi", scope: !196, file: !197, line: 71, type: !303, scopeLine: 71, flags: DIFlagPublic | DIFlagPrototyped | DIFlagStaticMember, spFlags: DISPFlagOptimized)
!306 = !DISubprogram(name: "make_stable", linkageName: "_ZN6String11make_stableEPKc", scope: !196, file: !197, line: 72, type: !307, scopeLine: 72, flags: DIFlagPublic | DIFlagPrototyped | DIFlagStaticMember, spFlags: DISPFlagOptimized)
!307 = !DISubroutineType(types: !308)
!308 = !{!196, !209}
!309 = !DISubprogram(name: "make_stable", linkageName: "_ZN6String11make_stableEPKci", scope: !196, file: !197, line: 73, type: !310, scopeLine: 73, flags: DIFlagPublic | DIFlagPrototyped | DIFlagStaticMember, spFlags: DISPFlagOptimized)
!310 = !DISubroutineType(types: !311)
!311 = !{!196, !209, !42}
!312 = !DISubprogram(name: "make_stable", linkageName: "_ZN6String11make_stableEPKcS1_", scope: !196, file: !197, line: 74, type: !313, scopeLine: 74, flags: DIFlagPublic | DIFlagPrototyped | DIFlagStaticMember, spFlags: DISPFlagOptimized)
!313 = !DISubroutineType(types: !314)
!314 = !{!196, !209, !209}
!315 = !DISubprogram(name: "make_numeric", linkageName: "_ZN6String12make_numericElib", scope: !196, file: !197, line: 75, type: !316, scopeLine: 75, flags: DIFlagPublic | DIFlagPrototyped | DIFlagStaticMember, spFlags: DISPFlagOptimized)
!316 = !DISubroutineType(types: !317)
!317 = !{!196, !318, !42, !106}
!318 = !DIDerivedType(tag: DW_TAG_typedef, name: "intmax_t", scope: !196, file: !197, line: 27, baseType: !24)
!319 = !DISubprogram(name: "make_numeric", linkageName: "_ZN6String12make_numericEmib", scope: !196, file: !197, line: 76, type: !320, scopeLine: 76, flags: DIFlagPublic | DIFlagPrototyped | DIFlagStaticMember, spFlags: DISPFlagOptimized)
!320 = !DISubroutineType(types: !321)
!321 = !{!196, !322, !42, !106}
!322 = !DIDerivedType(tag: DW_TAG_typedef, name: "uintmax_t", scope: !196, file: !197, line: 28, baseType: !323)
!323 = !DIDerivedType(tag: DW_TAG_typedef, name: "uint64_t", file: !37, line: 27, baseType: !324)
!324 = !DIDerivedType(tag: DW_TAG_typedef, name: "__uint64_t", file: !27, line: 45, baseType: !46)
!325 = !DISubprogram(name: "data", linkageName: "_ZNK6String4dataEv", scope: !196, file: !197, line: 78, type: !326, scopeLine: 78, flags: DIFlagPublic | DIFlagPrototyped, spFlags: DISPFlagOptimized)
!326 = !DISubroutineType(types: !327)
!327 = !{!209, !328}
!328 = !DIDerivedType(tag: DW_TAG_pointer_type, baseType: !243, size: 64, flags: DIFlagArtificial | DIFlagObjectPointer)
!329 = !DISubprogram(name: "length", linkageName: "_ZNK6String6lengthEv", scope: !196, file: !197, line: 79, type: !330, scopeLine: 79, flags: DIFlagPublic | DIFlagPrototyped, spFlags: DISPFlagOptimized)
!330 = !DISubroutineType(types: !331)
!331 = !{!42, !328}
!332 = !DISubprogram(name: "c_str", linkageName: "_ZNK6String5c_strEv", scope: !196, file: !197, line: 81, type: !326, scopeLine: 81, flags: DIFlagPublic | DIFlagPrototyped, spFlags: DISPFlagOptimized)
!333 = !DISubprogram(name: "operator int (String::*)() const", linkageName: "_ZNK6StringcvMS_KFivEEv", scope: !196, file: !197, line: 83, type: !334, scopeLine: 83, flags: DIFlagPublic | DIFlagPrototyped, spFlags: DISPFlagOptimized)
!334 = !DISubroutineType(types: !335)
!335 = !{!336, !328}
!336 = !DIDerivedType(tag: DW_TAG_typedef, name: "unspecified_bool_type", scope: !196, file: !197, line: 24, baseType: !337)
!337 = !DIDerivedType(tag: DW_TAG_ptr_to_member_type, baseType: !330, size: 128, extraData: !196)
!338 = !DISubprogram(name: "empty", linkageName: "_ZNK6String5emptyEv", scope: !196, file: !197, line: 84, type: !339, scopeLine: 84, flags: DIFlagPublic | DIFlagPrototyped, spFlags: DISPFlagOptimized)
!339 = !DISubroutineType(types: !340)
!340 = !{!106, !328}
!341 = !DISubprogram(name: "operator!", linkageName: "_ZNK6StringntEv", scope: !196, file: !197, line: 85, type: !339, scopeLine: 85, flags: DIFlagPublic | DIFlagPrototyped, spFlags: DISPFlagOptimized)
!342 = !DISubprogram(name: "begin", linkageName: "_ZNK6String5beginEv", scope: !196, file: !197, line: 87, type: !343, scopeLine: 87, flags: DIFlagPublic | DIFlagPrototyped, spFlags: DISPFlagOptimized)
!343 = !DISubroutineType(types: !344)
!344 = !{!345, !328}
!345 = !DIDerivedType(tag: DW_TAG_typedef, name: "const_iterator", scope: !196, file: !197, line: 21, baseType: !209)
!346 = !DISubprogram(name: "end", linkageName: "_ZNK6String3endEv", scope: !196, file: !197, line: 88, type: !343, scopeLine: 88, flags: DIFlagPublic | DIFlagPrototyped, spFlags: DISPFlagOptimized)
!347 = !DISubprogram(name: "operator[]", linkageName: "_ZNK6StringixEi", scope: !196, file: !197, line: 90, type: !348, scopeLine: 90, flags: DIFlagPublic | DIFlagPrototyped, spFlags: DISPFlagOptimized)
!348 = !DISubroutineType(types: !349)
!349 = !{!202, !328, !42}
!350 = !DISubprogram(name: "at", linkageName: "_ZNK6String2atEi", scope: !196, file: !197, line: 91, type: !348, scopeLine: 91, flags: DIFlagPublic | DIFlagPrototyped, spFlags: DISPFlagOptimized)
!351 = !DISubprogram(name: "front", linkageName: "_ZNK6String5frontEv", scope: !196, file: !197, line: 92, type: !352, scopeLine: 92, flags: DIFlagPublic | DIFlagPrototyped, spFlags: DISPFlagOptimized)
!352 = !DISubroutineType(types: !353)
!353 = !{!202, !328}
!354 = !DISubprogram(name: "back", linkageName: "_ZNK6String4backEv", scope: !196, file: !197, line: 93, type: !352, scopeLine: 93, flags: DIFlagPublic | DIFlagPrototyped, spFlags: DISPFlagOptimized)
!355 = !DISubprogram(name: "hashcode", linkageName: "_ZN6String8hashcodeEPKcS1_", scope: !196, file: !197, line: 95, type: !356, scopeLine: 95, flags: DIFlagPublic | DIFlagPrototyped | DIFlagStaticMember, spFlags: DISPFlagOptimized)
!356 = !DISubroutineType(types: !357)
!357 = !{!36, !209, !209}
!358 = !DISubprogram(name: "hashcode", linkageName: "_ZN6String8hashcodeEPKhS1_", scope: !196, file: !197, line: 96, type: !359, scopeLine: 96, flags: DIFlagPublic | DIFlagPrototyped | DIFlagStaticMember, spFlags: DISPFlagOptimized)
!359 = !DISubroutineType(types: !360)
!360 = !{!36, !257, !257}
!361 = !DISubprogram(name: "hashcode", linkageName: "_ZNK6String8hashcodeEv", scope: !196, file: !197, line: 98, type: !362, scopeLine: 98, flags: DIFlagPublic | DIFlagPrototyped, spFlags: DISPFlagOptimized)
!362 = !DISubroutineType(types: !363)
!363 = !{!36, !328}
!364 = !DISubprogram(name: "substring", linkageName: "_ZNK6String9substringEPKcS1_", scope: !196, file: !197, line: 100, type: !365, scopeLine: 100, flags: DIFlagPublic | DIFlagPrototyped, spFlags: DISPFlagOptimized)
!365 = !DISubroutineType(types: !366)
!366 = !{!196, !328, !209, !209}
!367 = !DISubprogram(name: "substring", linkageName: "_ZNK6String9substringEii", scope: !196, file: !197, line: 101, type: !368, scopeLine: 101, flags: DIFlagPublic | DIFlagPrototyped, spFlags: DISPFlagOptimized)
!368 = !DISubroutineType(types: !369)
!369 = !{!196, !328, !42, !42}
!370 = !DISubprogram(name: "substring", linkageName: "_ZNK6String9substringEi", scope: !196, file: !197, line: 102, type: !371, scopeLine: 102, flags: DIFlagPublic | DIFlagPrototyped, spFlags: DISPFlagOptimized)
!371 = !DISubroutineType(types: !372)
!372 = !{!196, !328, !42}
!373 = !DISubprogram(name: "trim_space", linkageName: "_ZNK6String10trim_spaceEv", scope: !196, file: !197, line: 103, type: !374, scopeLine: 103, flags: DIFlagPublic | DIFlagPrototyped, spFlags: DISPFlagOptimized)
!374 = !DISubroutineType(types: !375)
!375 = !{!196, !328}
!376 = !DISubprogram(name: "equals", linkageName: "_ZNK6String6equalsERKS_", scope: !196, file: !197, line: 105, type: !377, scopeLine: 105, flags: DIFlagPublic | DIFlagPrototyped, spFlags: DISPFlagOptimized)
!377 = !DISubroutineType(types: !378)
!378 = !{!106, !328, !242}
!379 = !DISubprogram(name: "equals", linkageName: "_ZNK6String6equalsEPKci", scope: !196, file: !197, line: 106, type: !380, scopeLine: 106, flags: DIFlagPublic | DIFlagPrototyped, spFlags: DISPFlagOptimized)
!380 = !DISubroutineType(types: !381)
!381 = !{!106, !328, !209, !42}
!382 = !DISubprogram(name: "compare", linkageName: "_ZN6String7compareERKS_S1_", scope: !196, file: !197, line: 107, type: !383, scopeLine: 107, flags: DIFlagPublic | DIFlagPrototyped | DIFlagStaticMember, spFlags: DISPFlagOptimized)
!383 = !DISubroutineType(types: !384)
!384 = !{!42, !242, !242}
!385 = !DISubprogram(name: "compare", linkageName: "_ZNK6String7compareERKS_", scope: !196, file: !197, line: 108, type: !386, scopeLine: 108, flags: DIFlagPublic | DIFlagPrototyped, spFlags: DISPFlagOptimized)
!386 = !DISubroutineType(types: !387)
!387 = !{!42, !328, !242}
!388 = !DISubprogram(name: "compare", linkageName: "_ZNK6String7compareEPKci", scope: !196, file: !197, line: 109, type: !389, scopeLine: 109, flags: DIFlagPublic | DIFlagPrototyped, spFlags: DISPFlagOptimized)
!389 = !DISubroutineType(types: !390)
!390 = !{!42, !328, !209, !42}
!391 = !DISubprogram(name: "starts_with", linkageName: "_ZNK6String11starts_withERKS_", scope: !196, file: !197, line: 110, type: !377, scopeLine: 110, flags: DIFlagPublic | DIFlagPrototyped, spFlags: DISPFlagOptimized)
!392 = !DISubprogram(name: "starts_with", linkageName: "_ZNK6String11starts_withEPKci", scope: !196, file: !197, line: 111, type: !380, scopeLine: 111, flags: DIFlagPublic | DIFlagPrototyped, spFlags: DISPFlagOptimized)
!393 = !DISubprogram(name: "glob_match", linkageName: "_ZNK6String10glob_matchERKS_", scope: !196, file: !197, line: 112, type: !377, scopeLine: 112, flags: DIFlagPublic | DIFlagPrototyped, spFlags: DISPFlagOptimized)
!394 = !DISubprogram(name: "find_left", linkageName: "_ZNK6String9find_leftEci", scope: !196, file: !197, line: 125, type: !395, scopeLine: 125, flags: DIFlagPublic | DIFlagPrototyped, spFlags: DISPFlagOptimized)
!395 = !DISubroutineType(types: !396)
!396 = !{!42, !328, !202, !42}
!397 = !DISubprogram(name: "find_left", linkageName: "_ZNK6String9find_leftERKS_i", scope: !196, file: !197, line: 126, type: !398, scopeLine: 126, flags: DIFlagPublic | DIFlagPrototyped, spFlags: DISPFlagOptimized)
!398 = !DISubroutineType(types: !399)
!399 = !{!42, !328, !242, !42}
!400 = !DISubprogram(name: "find_right", linkageName: "_ZNK6String10find_rightEci", scope: !196, file: !197, line: 127, type: !395, scopeLine: 127, flags: DIFlagPublic | DIFlagPrototyped, spFlags: DISPFlagOptimized)
!401 = !DISubprogram(name: "lower", linkageName: "_ZNK6String5lowerEv", scope: !196, file: !197, line: 129, type: !374, scopeLine: 129, flags: DIFlagPublic | DIFlagPrototyped, spFlags: DISPFlagOptimized)
!402 = !DISubprogram(name: "upper", linkageName: "_ZNK6String5upperEv", scope: !196, file: !197, line: 130, type: !374, scopeLine: 130, flags: DIFlagPublic | DIFlagPrototyped, spFlags: DISPFlagOptimized)
!403 = !DISubprogram(name: "printable", linkageName: "_ZNK6String9printableEv", scope: !196, file: !197, line: 131, type: !374, scopeLine: 131, flags: DIFlagPublic | DIFlagPrototyped, spFlags: DISPFlagOptimized)
!404 = !DISubprogram(name: "quoted_hex", linkageName: "_ZNK6String10quoted_hexEv", scope: !196, file: !197, line: 132, type: !374, scopeLine: 132, flags: DIFlagPublic | DIFlagPrototyped, spFlags: DISPFlagOptimized)
!405 = !DISubprogram(name: "encode_json", linkageName: "_ZNK6String11encode_jsonEv", scope: !196, file: !197, line: 133, type: !374, scopeLine: 133, flags: DIFlagPublic | DIFlagPrototyped, spFlags: DISPFlagOptimized)
!406 = !DISubprogram(name: "operator=", linkageName: "_ZN6StringaSERKS_", scope: !196, file: !197, line: 135, type: !407, scopeLine: 135, flags: DIFlagPublic | DIFlagPrototyped, spFlags: DISPFlagOptimized)
!407 = !DISubroutineType(types: !408)
!408 = !{!409, !238, !242}
!409 = !DIDerivedType(tag: DW_TAG_reference_type, baseType: !196, size: 64)
!410 = !DISubprogram(name: "operator=", linkageName: "_ZN6StringaSEOS_", scope: !196, file: !197, line: 137, type: !411, scopeLine: 137, flags: DIFlagPublic | DIFlagPrototyped, spFlags: DISPFlagOptimized)
!411 = !DISubroutineType(types: !412)
!412 = !{!409, !238, !247}
!413 = !DISubprogram(name: "operator=", linkageName: "_ZN6StringaSEPKc", scope: !196, file: !197, line: 139, type: !414, scopeLine: 139, flags: DIFlagPublic | DIFlagPrototyped, spFlags: DISPFlagOptimized)
!414 = !DISubroutineType(types: !415)
!415 = !{!409, !238, !209}
!416 = !DISubprogram(name: "swap", linkageName: "_ZN6String4swapERS_", scope: !196, file: !197, line: 141, type: !417, scopeLine: 141, flags: DIFlagPublic | DIFlagPrototyped, spFlags: DISPFlagOptimized)
!417 = !DISubroutineType(types: !418)
!418 = !{null, !238, !409}
!419 = !DISubprogram(name: "append", linkageName: "_ZN6String6appendERKS_", scope: !196, file: !197, line: 143, type: !240, scopeLine: 143, flags: DIFlagPublic | DIFlagPrototyped, spFlags: DISPFlagOptimized)
!420 = !DISubprogram(name: "append", linkageName: "_ZN6String6appendEPKc", scope: !196, file: !197, line: 144, type: !249, scopeLine: 144, flags: DIFlagPublic | DIFlagPrototyped, spFlags: DISPFlagOptimized)
!421 = !DISubprogram(name: "append", linkageName: "_ZN6String6appendEPKci", scope: !196, file: !197, line: 145, type: !252, scopeLine: 145, flags: DIFlagPublic | DIFlagPrototyped, spFlags: DISPFlagOptimized)
!422 = !DISubprogram(name: "append", linkageName: "_ZN6String6appendEPKcS1_", scope: !196, file: !197, line: 146, type: !261, scopeLine: 146, flags: DIFlagPublic | DIFlagPrototyped, spFlags: DISPFlagOptimized)
!423 = !DISubprogram(name: "append", linkageName: "_ZN6String6appendEc", scope: !196, file: !197, line: 147, type: !270, scopeLine: 147, flags: DIFlagPublic | DIFlagPrototyped, spFlags: DISPFlagOptimized)
!424 = !DISubprogram(name: "append_fill", linkageName: "_ZN6String11append_fillEii", scope: !196, file: !197, line: 148, type: !425, scopeLine: 148, flags: DIFlagPublic | DIFlagPrototyped, spFlags: DISPFlagOptimized)
!425 = !DISubroutineType(types: !426)
!426 = !{null, !238, !42, !42}
!427 = !DISubprogram(name: "append_uninitialized", linkageName: "_ZN6String20append_uninitializedEi", scope: !196, file: !197, line: 149, type: !428, scopeLine: 149, flags: DIFlagPublic | DIFlagPrototyped, spFlags: DISPFlagOptimized)
!428 = !DISubroutineType(types: !429)
!429 = !{!430, !238, !42}
!430 = !DIDerivedType(tag: DW_TAG_pointer_type, baseType: !202, size: 64)
!431 = !DISubprogram(name: "append_garbage", linkageName: "_ZN6String14append_garbageEi", scope: !196, file: !197, line: 150, type: !428, scopeLine: 150, flags: DIFlagPublic | DIFlagPrototyped, spFlags: DISPFlagOptimized)
!432 = !DISubprogram(name: "operator+=", linkageName: "_ZN6StringpLERKS_", scope: !196, file: !197, line: 152, type: !407, scopeLine: 152, flags: DIFlagPublic | DIFlagPrototyped, spFlags: DISPFlagOptimized)
!433 = !DISubprogram(name: "operator+=", linkageName: "_ZN6StringpLEPKc", scope: !196, file: !197, line: 153, type: !414, scopeLine: 153, flags: DIFlagPublic | DIFlagPrototyped, spFlags: DISPFlagOptimized)
!434 = !DISubprogram(name: "operator+=", linkageName: "_ZN6StringpLEc", scope: !196, file: !197, line: 154, type: !435, scopeLine: 154, flags: DIFlagPublic | DIFlagPrototyped, spFlags: DISPFlagOptimized)
!435 = !DISubroutineType(types: !436)
!436 = !{!409, !238, !202}
!437 = !DISubprogram(name: "is_shared", linkageName: "_ZNK6String9is_sharedEv", scope: !196, file: !197, line: 160, type: !339, scopeLine: 160, flags: DIFlagPublic | DIFlagPrototyped, spFlags: DISPFlagOptimized)
!438 = !DISubprogram(name: "is_stable", linkageName: "_ZNK6String9is_stableEv", scope: !196, file: !197, line: 161, type: !339, scopeLine: 161, flags: DIFlagPublic | DIFlagPrototyped, spFlags: DISPFlagOptimized)
!439 = !DISubprogram(name: "unique", linkageName: "_ZNK6String6uniqueEv", scope: !196, file: !197, line: 163, type: !374, scopeLine: 163, flags: DIFlagPublic | DIFlagPrototyped, spFlags: DISPFlagOptimized)
!440 = !DISubprogram(name: "unshared", linkageName: "_ZNK6String8unsharedEv", scope: !196, file: !197, line: 164, type: !374, scopeLine: 164, flags: DIFlagPublic | DIFlagPrototyped, spFlags: DISPFlagOptimized)
!441 = !DISubprogram(name: "compact", linkageName: "_ZNK6String7compactEv", scope: !196, file: !197, line: 165, type: !374, scopeLine: 165, flags: DIFlagPublic | DIFlagPrototyped, spFlags: DISPFlagOptimized)
!442 = !DISubprogram(name: "mutable_data", linkageName: "_ZN6String12mutable_dataEv", scope: !196, file: !197, line: 167, type: !443, scopeLine: 167, flags: DIFlagPublic | DIFlagPrototyped, spFlags: DISPFlagOptimized)
!443 = !DISubroutineType(types: !444)
!444 = !{!430, !238}
!445 = !DISubprogram(name: "mutable_c_str", linkageName: "_ZN6String13mutable_c_strEv", scope: !196, file: !197, line: 168, type: !443, scopeLine: 168, flags: DIFlagPublic | DIFlagPrototyped, spFlags: DISPFlagOptimized)
!446 = !DISubprogram(name: "make_out_of_memory", linkageName: "_ZN6String18make_out_of_memoryEv", scope: !196, file: !197, line: 170, type: !300, scopeLine: 170, flags: DIFlagPublic | DIFlagPrototyped | DIFlagStaticMember, spFlags: DISPFlagOptimized)
!447 = !DISubprogram(name: "out_of_memory", linkageName: "_ZNK6String13out_of_memoryEv", scope: !196, file: !197, line: 171, type: !339, scopeLine: 171, flags: DIFlagPublic | DIFlagPrototyped, spFlags: DISPFlagOptimized)
!448 = !DISubprogram(name: "out_of_memory_data", linkageName: "_ZN6String18out_of_memory_dataEv", scope: !196, file: !197, line: 172, type: !449, scopeLine: 172, flags: DIFlagPublic | DIFlagPrototyped | DIFlagStaticMember, spFlags: DISPFlagOptimized)
!449 = !DISubroutineType(types: !450)
!450 = !{!209}
!451 = !DISubprogram(name: "out_of_memory_length", linkageName: "_ZN6String20out_of_memory_lengthEv", scope: !196, file: !197, line: 173, type: !452, scopeLine: 173, flags: DIFlagPublic | DIFlagPrototyped | DIFlagStaticMember, spFlags: DISPFlagOptimized)
!452 = !DISubroutineType(types: !453)
!453 = !{!42}
!454 = !DISubprogram(name: "empty_data", linkageName: "_ZN6String10empty_dataEv", scope: !196, file: !197, line: 174, type: !449, scopeLine: 174, flags: DIFlagPublic | DIFlagPrototyped | DIFlagStaticMember, spFlags: DISPFlagOptimized)
!455 = !DISubprogram(name: "skip_utf8_char", linkageName: "_ZN6String14skip_utf8_charEPKcS1_", scope: !196, file: !197, line: 180, type: !456, scopeLine: 180, flags: DIFlagPublic | DIFlagPrototyped | DIFlagStaticMember, spFlags: DISPFlagOptimized)
!456 = !DISubroutineType(types: !457)
!457 = !{!209, !209, !209}
!458 = !DISubprogram(name: "skip_utf8_char", linkageName: "_ZN6String14skip_utf8_charEPKhS1_", scope: !196, file: !197, line: 181, type: !459, scopeLine: 181, flags: DIFlagPublic | DIFlagPrototyped | DIFlagStaticMember, spFlags: DISPFlagOptimized)
!459 = !DISubroutineType(types: !460)
!460 = !{!257, !257, !257}
!461 = !DISubprogram(name: "assign_memo", linkageName: "_ZNK6String11assign_memoEPKciPNS_6memo_tE", scope: !196, file: !197, line: 256, type: !462, scopeLine: 256, flags: DIFlagPrototyped, spFlags: DISPFlagOptimized)
!462 = !DISubroutineType(types: !463)
!463 = !{null, !328, !209, !42, !212}
!464 = !DISubprogram(name: "String", scope: !196, file: !197, line: 263, type: !465, scopeLine: 263, flags: DIFlagPrototyped, spFlags: DISPFlagOptimized)
!465 = !DISubroutineType(types: !466)
!466 = !{null, !238, !209, !42, !212}
!467 = !DISubprogram(name: "assign", linkageName: "_ZNK6String6assignERKS_", scope: !196, file: !197, line: 267, type: !468, scopeLine: 267, flags: DIFlagPrototyped, spFlags: DISPFlagOptimized)
!468 = !DISubroutineType(types: !469)
!469 = !{null, !328, !242}
!470 = !DISubprogram(name: "deref", linkageName: "_ZNK6String5derefEv", scope: !196, file: !197, line: 271, type: !471, scopeLine: 271, flags: DIFlagPrototyped, spFlags: DISPFlagOptimized)
!471 = !DISubroutineType(types: !472)
!472 = !{null, !328}
!473 = !DISubprogram(name: "assign", linkageName: "_ZN6String6assignEPKcib", scope: !196, file: !197, line: 280, type: !474, scopeLine: 280, flags: DIFlagPrototyped, spFlags: DISPFlagOptimized)
!474 = !DISubroutineType(types: !475)
!475 = !{null, !238, !209, !42, !106}
!476 = !DISubprogram(name: "assign_out_of_memory", linkageName: "_ZN6String20assign_out_of_memoryEv", scope: !196, file: !197, line: 281, type: !236, scopeLine: 281, flags: DIFlagPrototyped, spFlags: DISPFlagOptimized)
!477 = !DISubprogram(name: "append", linkageName: "_ZN6String6appendEPKciPNS_6memo_tE", scope: !196, file: !197, line: 282, type: !465, scopeLine: 282, flags: DIFlagPrototyped, spFlags: DISPFlagOptimized)
!478 = !DISubprogram(name: "hard_make_stable", linkageName: "_ZN6String16hard_make_stableEPKci", scope: !196, file: !197, line: 283, type: !310, scopeLine: 283, flags: DIFlagPrototyped | DIFlagStaticMember, spFlags: DISPFlagOptimized)
!479 = !DISubprogram(name: "absent_memo", linkageName: "_ZN6String11absent_memoEv", scope: !196, file: !197, line: 284, type: !480, scopeLine: 284, flags: DIFlagPrototyped | DIFlagStaticMember, spFlags: DISPFlagOptimized)
!480 = !DISubroutineType(types: !481)
!481 = !{!212}
!482 = !DISubprogram(name: "create_memo", linkageName: "_ZN6String11create_memoEPcii", scope: !196, file: !197, line: 287, type: !483, scopeLine: 287, flags: DIFlagPrototyped | DIFlagStaticMember, spFlags: DISPFlagOptimized)
!483 = !DISubroutineType(types: !484)
!484 = !{!212, !430, !42, !42}
!485 = !DISubprogram(name: "delete_memo", linkageName: "_ZN6String11delete_memoEPNS_6memo_tE", scope: !196, file: !197, line: 288, type: !486, scopeLine: 288, flags: DIFlagPrototyped | DIFlagStaticMember, spFlags: DISPFlagOptimized)
!486 = !DISubroutineType(types: !487)
!487 = !{null, !212}
!488 = !DISubprogram(name: "hard_c_str", linkageName: "_ZNK6String10hard_c_strEv", scope: !196, file: !197, line: 289, type: !326, scopeLine: 289, flags: DIFlagPrototyped, spFlags: DISPFlagOptimized)
!489 = !DISubprogram(name: "hard_equals", linkageName: "_ZNK6String11hard_equalsEPKci", scope: !196, file: !197, line: 290, type: !380, scopeLine: 290, flags: DIFlagPrototyped, spFlags: DISPFlagOptimized)
!490 = !DISubprogram(name: "make_claim", linkageName: "_ZN6String10make_claimEPcii", scope: !196, file: !197, line: 299, type: !491, scopeLine: 299, flags: DIFlagPrototyped | DIFlagStaticMember, spFlags: DISPFlagOptimized)
!491 = !DISubroutineType(types: !492)
!492 = !{!196, !430, !42, !42}
!493 = !DISubprogram(name: "unparse_interval", linkageName: "_ZNK9Timestamp16unparse_intervalEv", scope: !18, file: !17, line: 501, type: !194, scopeLine: 501, flags: DIFlagPublic | DIFlagPrototyped, spFlags: DISPFlagOptimized)
!494 = !DISubprogram(name: "msec_to_subsec", linkageName: "_ZN9Timestamp14msec_to_subsecEj", scope: !18, file: !17, line: 510, type: !495, scopeLine: 510, flags: DIFlagPublic | DIFlagPrototyped | DIFlagStaticMember, spFlags: DISPFlagOptimized)
!495 = !DISubroutineType(types: !496)
!496 = !{!36, !36}
!497 = !DISubprogram(name: "usec_to_subsec", linkageName: "_ZN9Timestamp14usec_to_subsecEj", scope: !18, file: !17, line: 514, type: !495, scopeLine: 514, flags: DIFlagPublic | DIFlagPrototyped | DIFlagStaticMember, spFlags: DISPFlagOptimized)
!498 = !DISubprogram(name: "nsec_to_subsec", linkageName: "_ZN9Timestamp14nsec_to_subsecEj", scope: !18, file: !17, line: 518, type: !495, scopeLine: 518, flags: DIFlagPublic | DIFlagPrototyped | DIFlagStaticMember, spFlags: DISPFlagOptimized)
!499 = !DISubprogram(name: "subsec_to_msec", linkageName: "_ZN9Timestamp14subsec_to_msecEj", scope: !18, file: !17, line: 522, type: !495, scopeLine: 522, flags: DIFlagPublic | DIFlagPrototyped | DIFlagStaticMember, spFlags: DISPFlagOptimized)
!500 = !DISubprogram(name: "subsec_to_usec", linkageName: "_ZN9Timestamp14subsec_to_usecEj", scope: !18, file: !17, line: 526, type: !495, scopeLine: 526, flags: DIFlagPublic | DIFlagPrototyped | DIFlagStaticMember, spFlags: DISPFlagOptimized)
!501 = !DISubprogram(name: "subsec_to_nsec", linkageName: "_ZN9Timestamp14subsec_to_nsecEj", scope: !18, file: !17, line: 530, type: !495, scopeLine: 530, flags: DIFlagPublic | DIFlagPrototyped | DIFlagStaticMember, spFlags: DISPFlagOptimized)
!502 = !DISubprogram(name: "warp_class", linkageName: "_ZN9Timestamp10warp_classEv", scope: !18, file: !17, line: 581, type: !452, scopeLine: 581, flags: DIFlagPublic | DIFlagPrototyped | DIFlagStaticMember, spFlags: DISPFlagOptimized)
!503 = !DISubprogram(name: "warp_speed", linkageName: "_ZN9Timestamp10warp_speedEv", scope: !18, file: !17, line: 588, type: !504, scopeLine: 588, flags: DIFlagPublic | DIFlagPrototyped | DIFlagStaticMember, spFlags: DISPFlagOptimized)
!504 = !DISubroutineType(types: !505)
!505 = !{!53}
!506 = !DISubprogram(name: "warp_set_class", linkageName: "_ZN9Timestamp14warp_set_classENS_15warp_class_typeEd", scope: !18, file: !17, line: 621, type: !507, scopeLine: 621, flags: DIFlagPublic | DIFlagPrototyped | DIFlagStaticMember, spFlags: DISPFlagOptimized)
!507 = !DISubroutineType(types: !508)
!508 = !{null, !16, !53}
!509 = !DISubprogram(name: "warp_set_now", linkageName: "_ZN9Timestamp12warp_set_nowERKS_S1_", scope: !18, file: !17, line: 628, type: !510, scopeLine: 628, flags: DIFlagPublic | DIFlagPrototyped | DIFlagStaticMember, spFlags: DISPFlagOptimized)
!510 = !DISubroutineType(types: !511)
!511 = !{null, !512, !512}
!512 = !DIDerivedType(tag: DW_TAG_reference_type, baseType: !102, size: 64)
!513 = !DISubprogram(name: "warp_real_delay", linkageName: "_ZNK9Timestamp15warp_real_delayEv", scope: !18, file: !17, line: 632, type: !140, scopeLine: 632, flags: DIFlagPublic | DIFlagPrototyped, spFlags: DISPFlagOptimized)
!514 = !DISubprogram(name: "warp_jumping", linkageName: "_ZN9Timestamp12warp_jumpingEv", scope: !18, file: !17, line: 635, type: !515, scopeLine: 635, flags: DIFlagPublic | DIFlagPrototyped | DIFlagStaticMember, spFlags: DISPFlagOptimized)
!515 = !DISubroutineType(types: !516)
!516 = !{!106}
!517 = !DISubprogram(name: "warp_jump_steady", linkageName: "_ZN9Timestamp16warp_jump_steadyERKS_", scope: !18, file: !17, line: 640, type: !518, scopeLine: 640, flags: DIFlagPublic | DIFlagPrototyped | DIFlagStaticMember, spFlags: DISPFlagOptimized)
!518 = !DISubroutineType(types: !519)
!519 = !{null, !512}
!520 = !DISubprogram(name: "now_unwarped", linkageName: "_ZN9Timestamp12now_unwarpedEv", scope: !18, file: !17, line: 647, type: !170, scopeLine: 647, flags: DIFlagPublic | DIFlagPrototyped | DIFlagStaticMember, spFlags: DISPFlagOptimized)
!521 = !DISubprogram(name: "assign_now_unwarped", linkageName: "_ZN9Timestamp19assign_now_unwarpedEv", scope: !18, file: !17, line: 653, type: !30, scopeLine: 653, flags: DIFlagPublic | DIFlagPrototyped, spFlags: DISPFlagOptimized)
!522 = !DISubprogram(name: "now_steady_unwarped", linkageName: "_ZN9Timestamp19now_steady_unwarpedEv", scope: !18, file: !17, line: 659, type: !170, scopeLine: 659, flags: DIFlagPublic | DIFlagPrototyped | DIFlagStaticMember, spFlags: DISPFlagOptimized)
!523 = !DISubprogram(name: "assign_now_steady_unwarped", linkageName: "_ZN9Timestamp26assign_now_steady_unwarpedEv", scope: !18, file: !17, line: 666, type: !30, scopeLine: 666, flags: DIFlagPublic | DIFlagPrototyped, spFlags: DISPFlagOptimized)
!524 = !DISubprogram(name: "add_fix", linkageName: "_ZN9Timestamp7add_fixEv", scope: !18, file: !17, line: 674, type: !30, scopeLine: 674, flags: DIFlagPrototyped, spFlags: DISPFlagOptimized)
!525 = !DISubprogram(name: "sub_fix", linkageName: "_ZN9Timestamp7sub_fixEv", scope: !18, file: !17, line: 686, type: !30, scopeLine: 686, flags: DIFlagPrototyped, spFlags: DISPFlagOptimized)
!526 = !DISubprogram(name: "value_div", linkageName: "_ZN9Timestamp9value_divElj", scope: !18, file: !17, line: 698, type: !527, scopeLine: 698, flags: DIFlagPrototyped | DIFlagStaticMember, spFlags: DISPFlagOptimized)
!527 = !DISubroutineType(types: !528)
!528 = !{!136, !136, !36}
!529 = !DISubprogram(name: "value_div_mod", linkageName: "_ZN9Timestamp13value_div_modERiS0_lj", scope: !18, file: !17, line: 702, type: !530, scopeLine: 702, flags: DIFlagPrototyped | DIFlagStaticMember, spFlags: DISPFlagOptimized)
!530 = !DISubroutineType(types: !531)
!531 = !{null, !532, !532, !136, !36}
!532 = !DIDerivedType(tag: DW_TAG_reference_type, baseType: !99, size: 64)
!533 = !DISubprogram(name: "assign_now", linkageName: "_ZN9Timestamp10assign_nowEbbb", scope: !18, file: !17, line: 709, type: !534, scopeLine: 709, flags: DIFlagPrototyped, spFlags: DISPFlagOptimized)
!534 = !DISubroutineType(types: !535)
!535 = !{null, !32, !106, !106, !106}
!536 = !DISubprogram(name: "warp_adjust", linkageName: "_ZN9Timestamp11warp_adjustEbRKS_S1_", scope: !18, file: !17, line: 712, type: !537, scopeLine: 712, flags: DIFlagPrototyped | DIFlagStaticMember, spFlags: DISPFlagOptimized)
!537 = !DISubroutineType(types: !538)
!538 = !{null, !106, !512, !512}
!539 = !DISubprogram(name: "warped", linkageName: "_ZNK9Timestamp6warpedEb", scope: !18, file: !17, line: 713, type: !540, scopeLine: 713, flags: DIFlagPrototyped, spFlags: DISPFlagOptimized)
!540 = !DISubroutineType(types: !541)
!541 = !{!18, !101, !106}
!542 = !DISubprogram(name: "warp", linkageName: "_ZN9Timestamp4warpEbb", scope: !18, file: !17, line: 714, type: !543, scopeLine: 714, flags: DIFlagPrototyped, spFlags: DISPFlagOptimized)
!543 = !DISubroutineType(types: !544)
!544 = !{null, !32, !106, !106}
!545 = !{!546, !547, !548, !549}
!546 = !DIEnumerator(name: "warp_none", value: 0, isUnsigned: true)
!547 = !DIEnumerator(name: "warp_linear", value: 1, isUnsigned: true)
!548 = !DIEnumerator(name: "warp_nowait", value: 2, isUnsigned: true)
!549 = !DIEnumerator(name: "warp_simulation", value: 3, isUnsigned: true)
!550 = !DICompositeType(tag: DW_TAG_enumeration_type, name: "DeprecatedFlags", scope: !552, file: !551, line: 252, baseType: !6, size: 32, elements: !649, identifier: "_ZTSN7Handler15DeprecatedFlagsE")
!551 = !DIFile(filename: "../dummy_inc/click/handler.hh", directory: "/home/john/projects/click/ir-dir")
!552 = distinct !DICompositeType(tag: DW_TAG_class_type, name: "Handler", file: !551, line: 19, size: 576, flags: DIFlagTypePassByReference | DIFlagNonTrivial, elements: !553, identifier: "_ZTS7Handler")
!553 = !{!554, !555, !575, !584, !585, !586, !587, !588, !589, !590, !594, !597, !600, !603, !604, !605, !606, !609, !610, !611, !612, !613, !614, !615, !616, !617, !620, !623, !626, !629, !632, !635, !638, !642, !646}
!554 = !DIDerivedType(tag: DW_TAG_member, name: "_name", scope: !552, file: !551, line: 289, baseType: !196, size: 192)
!555 = !DIDerivedType(tag: DW_TAG_member, name: "_read_hook", scope: !552, file: !551, line: 293, baseType: !556, size: 64, offset: 192)
!556 = distinct !DICompositeType(tag: DW_TAG_union_type, scope: !552, file: !551, line: 290, size: 64, flags: DIFlagTypePassByValue, elements: !557, identifier: "_ZTSN7HandlerUt1_E")
!557 = !{!558, !569}
!558 = !DIDerivedType(tag: DW_TAG_member, name: "h", scope: !556, file: !551, line: 291, baseType: !559, size: 64)
!559 = !DIDerivedType(tag: DW_TAG_typedef, name: "HandlerCallback", file: !551, line: 13, baseType: !560)
!560 = !DIDerivedType(tag: DW_TAG_pointer_type, baseType: !561, size: 64)
!561 = !DISubroutineType(types: !562)
!562 = !{!42, !42, !409, !563, !564, !566}
!563 = !DIDerivedType(tag: DW_TAG_pointer_type, baseType: !5, size: 64)
!564 = !DIDerivedType(tag: DW_TAG_pointer_type, baseType: !565, size: 64)
!565 = !DIDerivedType(tag: DW_TAG_const_type, baseType: !552)
!566 = !DIDerivedType(tag: DW_TAG_pointer_type, baseType: !567, size: 64)
!567 = !DICompositeType(tag: DW_TAG_class_type, name: "ErrorHandler", file: !568, line: 90, flags: DIFlagFwdDecl, identifier: "_ZTS12ErrorHandler")
!568 = !DIFile(filename: "../dummy_inc/click/error.hh", directory: "/home/john/projects/click/ir-dir")
!569 = !DIDerivedType(tag: DW_TAG_member, name: "r", scope: !556, file: !551, line: 292, baseType: !570, size: 64)
!570 = !DIDerivedType(tag: DW_TAG_typedef, name: "ReadHandlerCallback", file: !551, line: 15, baseType: !571)
!571 = !DIDerivedType(tag: DW_TAG_pointer_type, baseType: !572, size: 64)
!572 = !DISubroutineType(types: !573)
!573 = !{!196, !563, !574}
!574 = !DIDerivedType(tag: DW_TAG_pointer_type, baseType: null, size: 64)
!575 = !DIDerivedType(tag: DW_TAG_member, name: "_write_hook", scope: !552, file: !551, line: 297, baseType: !576, size: 64, offset: 256)
!576 = distinct !DICompositeType(tag: DW_TAG_union_type, scope: !552, file: !551, line: 294, size: 64, flags: DIFlagTypePassByValue, elements: !577, identifier: "_ZTSN7HandlerUt2_E")
!577 = !{!578, !579}
!578 = !DIDerivedType(tag: DW_TAG_member, name: "h", scope: !576, file: !551, line: 295, baseType: !559, size: 64)
!579 = !DIDerivedType(tag: DW_TAG_member, name: "w", scope: !576, file: !551, line: 296, baseType: !580, size: 64)
!580 = !DIDerivedType(tag: DW_TAG_typedef, name: "WriteHandlerCallback", file: !551, line: 16, baseType: !581)
!581 = !DIDerivedType(tag: DW_TAG_pointer_type, baseType: !582, size: 64)
!582 = !DISubroutineType(types: !583)
!583 = !{!42, !242, !563, !574, !566}
!584 = !DIDerivedType(tag: DW_TAG_member, name: "_read_user_data", scope: !552, file: !551, line: 298, baseType: !574, size: 64, offset: 320)
!585 = !DIDerivedType(tag: DW_TAG_member, name: "_write_user_data", scope: !552, file: !551, line: 299, baseType: !574, size: 64, offset: 384)
!586 = !DIDerivedType(tag: DW_TAG_member, name: "_flags", scope: !552, file: !551, line: 300, baseType: !36, size: 32, offset: 448)
!587 = !DIDerivedType(tag: DW_TAG_member, name: "_use_count", scope: !552, file: !551, line: 301, baseType: !42, size: 32, offset: 480)
!588 = !DIDerivedType(tag: DW_TAG_member, name: "_next_by_name", scope: !552, file: !551, line: 302, baseType: !42, size: 32, offset: 512)
!589 = !DIDerivedType(tag: DW_TAG_member, name: "the_blank_handler", scope: !552, file: !551, line: 304, baseType: !564, flags: DIFlagStaticMember)
!590 = !DISubprogram(name: "name", linkageName: "_ZNK7Handler4nameEv", scope: !552, file: !551, line: 62, type: !591, scopeLine: 62, flags: DIFlagPublic | DIFlagPrototyped, spFlags: DISPFlagOptimized)
!591 = !DISubroutineType(types: !592)
!592 = !{!242, !593}
!593 = !DIDerivedType(tag: DW_TAG_pointer_type, baseType: !565, size: 64, flags: DIFlagArtificial | DIFlagObjectPointer)
!594 = !DISubprogram(name: "flags", linkageName: "_ZNK7Handler5flagsEv", scope: !552, file: !551, line: 69, type: !595, scopeLine: 69, flags: DIFlagPublic | DIFlagPrototyped, spFlags: DISPFlagOptimized)
!595 = !DISubroutineType(types: !596)
!596 = !{!36, !593}
!597 = !DISubprogram(name: "user_data", linkageName: "_ZNK7Handler9user_dataEi", scope: !552, file: !551, line: 75, type: !598, scopeLine: 75, flags: DIFlagPublic | DIFlagPrototyped, spFlags: DISPFlagOptimized)
!598 = !DISubroutineType(types: !599)
!599 = !{!574, !593, !42}
!600 = !DISubprogram(name: "read_user_data", linkageName: "_ZNK7Handler14read_user_dataEv", scope: !552, file: !551, line: 80, type: !601, scopeLine: 80, flags: DIFlagPublic | DIFlagPrototyped, spFlags: DISPFlagOptimized)
!601 = !DISubroutineType(types: !602)
!602 = !{!574, !593}
!603 = !DISubprogram(name: "write_user_data", linkageName: "_ZNK7Handler15write_user_dataEv", scope: !552, file: !551, line: 85, type: !601, scopeLine: 85, flags: DIFlagPublic | DIFlagPrototyped, spFlags: DISPFlagOptimized)
!604 = !DISubprogram(name: "user_data1", linkageName: "_ZNK7Handler10user_data1Ev", scope: !552, file: !551, line: 90, type: !601, scopeLine: 90, flags: DIFlagPublic | DIFlagPrototyped, spFlags: DISPFlagOptimized)
!605 = !DISubprogram(name: "user_data2", linkageName: "_ZNK7Handler10user_data2Ev", scope: !552, file: !551, line: 91, type: !601, scopeLine: 91, flags: DIFlagPublic | DIFlagPrototyped, spFlags: DISPFlagOptimized)
!606 = !DISubprogram(name: "readable", linkageName: "_ZNK7Handler8readableEv", scope: !552, file: !551, line: 96, type: !607, scopeLine: 96, flags: DIFlagPublic | DIFlagPrototyped, spFlags: DISPFlagOptimized)
!607 = !DISubroutineType(types: !608)
!608 = !{!106, !593}
!609 = !DISubprogram(name: "read_param", linkageName: "_ZNK7Handler10read_paramEv", scope: !552, file: !551, line: 102, type: !607, scopeLine: 102, flags: DIFlagPublic | DIFlagPrototyped, spFlags: DISPFlagOptimized)
!610 = !DISubprogram(name: "read_visible", linkageName: "_ZNK7Handler12read_visibleEv", scope: !552, file: !551, line: 111, type: !607, scopeLine: 111, flags: DIFlagPublic | DIFlagPrototyped, spFlags: DISPFlagOptimized)
!611 = !DISubprogram(name: "writable", linkageName: "_ZNK7Handler8writableEv", scope: !552, file: !551, line: 116, type: !607, scopeLine: 116, flags: DIFlagPublic | DIFlagPrototyped, spFlags: DISPFlagOptimized)
!612 = !DISubprogram(name: "write_visible", linkageName: "_ZNK7Handler13write_visibleEv", scope: !552, file: !551, line: 125, type: !607, scopeLine: 125, flags: DIFlagPublic | DIFlagPrototyped, spFlags: DISPFlagOptimized)
!613 = !DISubprogram(name: "visible", linkageName: "_ZNK7Handler7visibleEv", scope: !552, file: !551, line: 130, type: !607, scopeLine: 130, flags: DIFlagPublic | DIFlagPrototyped, spFlags: DISPFlagOptimized)
!614 = !DISubprogram(name: "allow_concurrent_handlers", linkageName: "_ZNK7Handler25allow_concurrent_handlersEv", scope: !552, file: !551, line: 136, type: !607, scopeLine: 136, flags: DIFlagPublic | DIFlagPrototyped, spFlags: DISPFlagOptimized)
!615 = !DISubprogram(name: "allow_concurrent_threads", linkageName: "_ZNK7Handler24allow_concurrent_threadsEv", scope: !552, file: !551, line: 142, type: !607, scopeLine: 142, flags: DIFlagPublic | DIFlagPrototyped, spFlags: DISPFlagOptimized)
!616 = !DISubprogram(name: "raw", linkageName: "_ZNK7Handler3rawEv", scope: !552, file: !551, line: 164, type: !607, scopeLine: 164, flags: DIFlagPublic | DIFlagPrototyped, spFlags: DISPFlagOptimized)
!617 = !DISubprogram(name: "call_read", linkageName: "_ZNK7Handler9call_readEP7ElementRK6StringP12ErrorHandler", scope: !552, file: !551, line: 177, type: !618, scopeLine: 177, flags: DIFlagPublic | DIFlagPrototyped, spFlags: DISPFlagOptimized)
!618 = !DISubroutineType(types: !619)
!619 = !{!196, !593, !563, !242, !566}
!620 = !DISubprogram(name: "call_read", linkageName: "_ZNK7Handler9call_readEP7ElementP12ErrorHandler", scope: !552, file: !551, line: 186, type: !621, scopeLine: 186, flags: DIFlagPublic | DIFlagPrototyped, spFlags: DISPFlagOptimized)
!621 = !DISubroutineType(types: !622)
!622 = !{!196, !593, !563, !566}
!623 = !DISubprogram(name: "call_write", linkageName: "_ZNK7Handler10call_writeERK6StringP7ElementP12ErrorHandler", scope: !552, file: !551, line: 198, type: !624, scopeLine: 198, flags: DIFlagPublic | DIFlagPrototyped, spFlags: DISPFlagOptimized)
!624 = !DISubroutineType(types: !625)
!625 = !{!42, !593, !242, !563, !566}
!626 = !DISubprogram(name: "unparse_name", linkageName: "_ZNK7Handler12unparse_nameEP7Element", scope: !552, file: !551, line: 207, type: !627, scopeLine: 207, flags: DIFlagPublic | DIFlagPrototyped, spFlags: DISPFlagOptimized)
!627 = !DISubroutineType(types: !628)
!628 = !{!196, !593, !563}
!629 = !DISubprogram(name: "unparse_name", linkageName: "_ZN7Handler12unparse_nameEP7ElementRK6String", scope: !552, file: !551, line: 216, type: !630, scopeLine: 216, flags: DIFlagPublic | DIFlagPrototyped | DIFlagStaticMember, spFlags: DISPFlagOptimized)
!630 = !DISubroutineType(types: !631)
!631 = !{!196, !563, !242}
!632 = !DISubprogram(name: "blank_handler", linkageName: "_ZN7Handler13blank_handlerEv", scope: !552, file: !551, line: 223, type: !633, scopeLine: 223, flags: DIFlagPublic | DIFlagPrototyped | DIFlagStaticMember, spFlags: DISPFlagOptimized)
!633 = !DISubroutineType(types: !634)
!634 = !{!564}
!635 = !DISubprogram(name: "__call_read", linkageName: "_ZNK7Handler11__call_readEP7ElementPv", scope: !552, file: !551, line: 281, type: !636, scopeLine: 281, flags: DIFlagPublic | DIFlagPrototyped, spFlags: DISPFlagOptimized)
!636 = !DISubroutineType(types: !637)
!637 = !{!196, !593, !563, !574}
!638 = !DISubprogram(name: "Handler", scope: !552, file: !551, line: 306, type: !639, scopeLine: 306, flags: DIFlagPrototyped, spFlags: DISPFlagOptimized)
!639 = !DISubroutineType(types: !640)
!640 = !{null, !641, !242}
!641 = !DIDerivedType(tag: DW_TAG_pointer_type, baseType: !552, size: 64, flags: DIFlagArtificial | DIFlagObjectPointer)
!642 = !DISubprogram(name: "combine", linkageName: "_ZN7Handler7combineERKS_", scope: !552, file: !551, line: 308, type: !643, scopeLine: 308, flags: DIFlagPrototyped, spFlags: DISPFlagOptimized)
!643 = !DISubroutineType(types: !644)
!644 = !{null, !641, !645}
!645 = !DIDerivedType(tag: DW_TAG_reference_type, baseType: !565, size: 64)
!646 = !DISubprogram(name: "compatible", linkageName: "_ZNK7Handler10compatibleERKS_", scope: !552, file: !551, line: 309, type: !647, scopeLine: 309, flags: DIFlagPrototyped, spFlags: DISPFlagOptimized)
!647 = !DISubroutineType(types: !648)
!648 = !{!106, !593, !645}
!649 = !{!650, !651, !652, !653, !654, !655, !656, !657, !658, !659}
!650 = !DIEnumerator(name: "OP_READ", value: 1, isUnsigned: true)
!651 = !DIEnumerator(name: "OP_WRITE", value: 2, isUnsigned: true)
!652 = !DIEnumerator(name: "READ_PARAM", value: 4, isUnsigned: true)
!653 = !DIEnumerator(name: "RAW", value: 64, isUnsigned: true)
!654 = !DIEnumerator(name: "CALM", value: 2048, isUnsigned: true)
!655 = !DIEnumerator(name: "EXPENSIVE", value: 4096, isUnsigned: true)
!656 = !DIEnumerator(name: "BUTTON", value: 8192, isUnsigned: true)
!657 = !DIEnumerator(name: "CHECKBOX", value: 16384, isUnsigned: true)
!658 = !DIEnumerator(name: "USER_FLAG_SHIFT", value: 28, isUnsigned: true)
!659 = !DIEnumerator(name: "USER_FLAG_0", value: 268435456, isUnsigned: true)
!660 = !DICompositeType(tag: DW_TAG_enumeration_type, name: "PacketType", scope: !662, file: !661, line: 368, baseType: !6, size: 32, elements: !1275, identifier: "_ZTSN6Packet10PacketTypeE")
!661 = !DIFile(filename: "../dummy_inc/click/packet.hh", directory: "/home/john/projects/click/ir-dir")
!662 = distinct !DICompositeType(tag: DW_TAG_class_type, name: "Packet", file: !661, line: 35, size: 1344, flags: DIFlagTypePassByReference | DIFlagNonTrivial, elements: !663, identifier: "_ZTS6Packet")
!663 = !{!664, !723, !725, !727, !728, !729, !730, !766, !773, !774, !863, !866, !869, !872, !875, !879, !883, !886, !889, !892, !893, !896, !897, !898, !899, !900, !901, !904, !907, !910, !911, !914, !915, !918, !921, !922, !923, !924, !927, !930, !933, !936, !937, !938, !941, !942, !943, !946, !947, !948, !949, !950, !951, !952, !953, !954, !955, !956, !957, !958, !959, !960, !961, !966, !969, !974, !975, !976, !979, !984, !985, !986, !989, !992, !997, !1002, !1007, !1012, !1016, !1019, !1023, !1026, !1032, !1035, !1038, !1041, !1044, !1048, !1051, !1052, !1053, !1054, !1144, !1147, !1148, !1151, !1155, !1160, !1164, !1169, !1172, !1175, !1178, !1181, !1187, !1190, !1193, !1196, !1199, !1202, !1205, !1208, !1211, !1214, !1215, !1218, !1222, !1223, !1224, !1225, !1226, !1227, !1228, !1229, !1230, !1231, !1232, !1233, !1234, !1235, !1236, !1237, !1238, !1239, !1240, !1241, !1242, !1243, !1244, !1245, !1246, !1247, !1248, !1249, !1250, !1251, !1252, !1253, !1254, !1255, !1256, !1259, !1260, !1264, !1267, !1270, !1273, !1274}
!664 = !DIDerivedType(tag: DW_TAG_member, name: "_use_count", scope: !662, file: !661, line: 731, baseType: !665, size: 32)
!665 = distinct !DICompositeType(tag: DW_TAG_class_type, name: "atomic_uint32_t", file: !666, line: 52, size: 32, flags: DIFlagTypePassByValue, elements: !667, identifier: "_ZTS15atomic_uint32_t")
!666 = !DIFile(filename: "../dummy_inc/click/atomic.hh", directory: "/home/john/projects/click/ir-dir")
!667 = !{!668, !669, !674, !675, !680, !683, !684, !685, !686, !689, !692, !693, !694, !697, !698, !701, !704, !707, !711, !714, !717, !720}
!668 = !DIDerivedType(tag: DW_TAG_member, name: "_val", scope: !665, file: !666, line: 91, baseType: !36, size: 32)
!669 = !DISubprogram(name: "value", linkageName: "_ZNK15atomic_uint32_t5valueEv", scope: !665, file: !666, line: 57, type: !670, scopeLine: 57, flags: DIFlagPublic | DIFlagPrototyped, spFlags: DISPFlagOptimized)
!670 = !DISubroutineType(types: !671)
!671 = !{!36, !672}
!672 = !DIDerivedType(tag: DW_TAG_pointer_type, baseType: !673, size: 64, flags: DIFlagArtificial | DIFlagObjectPointer)
!673 = !DIDerivedType(tag: DW_TAG_const_type, baseType: !665)
!674 = !DISubprogram(name: "operator unsigned int", linkageName: "_ZNK15atomic_uint32_tcvjEv", scope: !665, file: !666, line: 58, type: !670, scopeLine: 58, flags: DIFlagPublic | DIFlagPrototyped, spFlags: DISPFlagOptimized)
!675 = !DISubprogram(name: "operator=", linkageName: "_ZN15atomic_uint32_taSEj", scope: !665, file: !666, line: 60, type: !676, scopeLine: 60, flags: DIFlagPublic | DIFlagPrototyped, spFlags: DISPFlagOptimized)
!676 = !DISubroutineType(types: !677)
!677 = !{!678, !679, !36}
!678 = !DIDerivedType(tag: DW_TAG_reference_type, baseType: !665, size: 64)
!679 = !DIDerivedType(tag: DW_TAG_pointer_type, baseType: !665, size: 64, flags: DIFlagArtificial | DIFlagObjectPointer)
!680 = !DISubprogram(name: "operator+=", linkageName: "_ZN15atomic_uint32_tpLEi", scope: !665, file: !666, line: 62, type: !681, scopeLine: 62, flags: DIFlagPublic | DIFlagPrototyped, spFlags: DISPFlagOptimized)
!681 = !DISubroutineType(types: !682)
!682 = !{!678, !679, !99}
!683 = !DISubprogram(name: "operator-=", linkageName: "_ZN15atomic_uint32_tmIEi", scope: !665, file: !666, line: 63, type: !681, scopeLine: 63, flags: DIFlagPublic | DIFlagPrototyped, spFlags: DISPFlagOptimized)
!684 = !DISubprogram(name: "operator|=", linkageName: "_ZN15atomic_uint32_toREj", scope: !665, file: !666, line: 64, type: !676, scopeLine: 64, flags: DIFlagPublic | DIFlagPrototyped, spFlags: DISPFlagOptimized)
!685 = !DISubprogram(name: "operator&=", linkageName: "_ZN15atomic_uint32_taNEj", scope: !665, file: !666, line: 65, type: !676, scopeLine: 65, flags: DIFlagPublic | DIFlagPrototyped, spFlags: DISPFlagOptimized)
!686 = !DISubprogram(name: "operator++", linkageName: "_ZN15atomic_uint32_tppEv", scope: !665, file: !666, line: 67, type: !687, scopeLine: 67, flags: DIFlagPublic | DIFlagPrototyped, spFlags: DISPFlagOptimized)
!687 = !DISubroutineType(types: !688)
!688 = !{null, !679}
!689 = !DISubprogram(name: "operator++", linkageName: "_ZN15atomic_uint32_tppEi", scope: !665, file: !666, line: 68, type: !690, scopeLine: 68, flags: DIFlagPublic | DIFlagPrototyped, spFlags: DISPFlagOptimized)
!690 = !DISubroutineType(types: !691)
!691 = !{null, !679, !42}
!692 = !DISubprogram(name: "operator--", linkageName: "_ZN15atomic_uint32_tmmEv", scope: !665, file: !666, line: 69, type: !687, scopeLine: 69, flags: DIFlagPublic | DIFlagPrototyped, spFlags: DISPFlagOptimized)
!693 = !DISubprogram(name: "operator--", linkageName: "_ZN15atomic_uint32_tmmEi", scope: !665, file: !666, line: 70, type: !690, scopeLine: 70, flags: DIFlagPublic | DIFlagPrototyped, spFlags: DISPFlagOptimized)
!694 = !DISubprogram(name: "swap", linkageName: "_ZN15atomic_uint32_t4swapEj", scope: !665, file: !666, line: 72, type: !695, scopeLine: 72, flags: DIFlagPublic | DIFlagPrototyped, spFlags: DISPFlagOptimized)
!695 = !DISubroutineType(types: !696)
!696 = !{!36, !679, !36}
!697 = !DISubprogram(name: "fetch_and_add", linkageName: "_ZN15atomic_uint32_t13fetch_and_addEj", scope: !665, file: !666, line: 73, type: !695, scopeLine: 73, flags: DIFlagPublic | DIFlagPrototyped, spFlags: DISPFlagOptimized)
!698 = !DISubprogram(name: "dec_and_test", linkageName: "_ZN15atomic_uint32_t12dec_and_testEv", scope: !665, file: !666, line: 74, type: !699, scopeLine: 74, flags: DIFlagPublic | DIFlagPrototyped, spFlags: DISPFlagOptimized)
!699 = !DISubroutineType(types: !700)
!700 = !{!106, !679}
!701 = !DISubprogram(name: "compare_swap", linkageName: "_ZN15atomic_uint32_t12compare_swapEjj", scope: !665, file: !666, line: 75, type: !702, scopeLine: 75, flags: DIFlagPublic | DIFlagPrototyped, spFlags: DISPFlagOptimized)
!702 = !DISubroutineType(types: !703)
!703 = !{!36, !679, !36, !36}
!704 = !DISubprogram(name: "compare_and_swap", linkageName: "_ZN15atomic_uint32_t16compare_and_swapEjj", scope: !665, file: !666, line: 76, type: !705, scopeLine: 76, flags: DIFlagPublic | DIFlagPrototyped, spFlags: DISPFlagOptimized)
!705 = !DISubroutineType(types: !706)
!706 = !{!106, !679, !36, !36}
!707 = !DISubprogram(name: "swap", linkageName: "_ZN15atomic_uint32_t4swapERVjj", scope: !665, file: !666, line: 78, type: !708, scopeLine: 78, flags: DIFlagPublic | DIFlagPrototyped | DIFlagStaticMember, spFlags: DISPFlagOptimized)
!708 = !DISubroutineType(types: !709)
!709 = !{!36, !710, !36}
!710 = !DIDerivedType(tag: DW_TAG_reference_type, baseType: !216, size: 64)
!711 = !DISubprogram(name: "inc", linkageName: "_ZN15atomic_uint32_t3incERVj", scope: !665, file: !666, line: 79, type: !712, scopeLine: 79, flags: DIFlagPublic | DIFlagPrototyped | DIFlagStaticMember, spFlags: DISPFlagOptimized)
!712 = !DISubroutineType(types: !713)
!713 = !{null, !710}
!714 = !DISubprogram(name: "dec_and_test", linkageName: "_ZN15atomic_uint32_t12dec_and_testERVj", scope: !665, file: !666, line: 80, type: !715, scopeLine: 80, flags: DIFlagPublic | DIFlagPrototyped | DIFlagStaticMember, spFlags: DISPFlagOptimized)
!715 = !DISubroutineType(types: !716)
!716 = !{!106, !710}
!717 = !DISubprogram(name: "compare_swap", linkageName: "_ZN15atomic_uint32_t12compare_swapERVjjj", scope: !665, file: !666, line: 81, type: !718, scopeLine: 81, flags: DIFlagPublic | DIFlagPrototyped | DIFlagStaticMember, spFlags: DISPFlagOptimized)
!718 = !DISubroutineType(types: !719)
!719 = !{!36, !710, !36, !36}
!720 = !DISubprogram(name: "compare_and_swap", linkageName: "_ZN15atomic_uint32_t16compare_and_swapERVjjj", scope: !665, file: !666, line: 82, type: !721, scopeLine: 82, flags: DIFlagPublic | DIFlagPrototyped | DIFlagStaticMember, spFlags: DISPFlagOptimized)
!721 = !DISubroutineType(types: !722)
!722 = !{!106, !710, !36, !36}
!723 = !DIDerivedType(tag: DW_TAG_member, name: "_data_packet", scope: !662, file: !661, line: 732, baseType: !724, size: 64, offset: 64)
!724 = !DIDerivedType(tag: DW_TAG_pointer_type, baseType: !662, size: 64)
!725 = !DIDerivedType(tag: DW_TAG_member, name: "_head", scope: !662, file: !661, line: 734, baseType: !726, size: 64, offset: 128)
!726 = !DIDerivedType(tag: DW_TAG_pointer_type, baseType: !259, size: 64)
!727 = !DIDerivedType(tag: DW_TAG_member, name: "_data", scope: !662, file: !661, line: 735, baseType: !726, size: 64, offset: 192)
!728 = !DIDerivedType(tag: DW_TAG_member, name: "_tail", scope: !662, file: !661, line: 736, baseType: !726, size: 64, offset: 256)
!729 = !DIDerivedType(tag: DW_TAG_member, name: "_end", scope: !662, file: !661, line: 737, baseType: !726, size: 64, offset: 320)
!730 = !DIDerivedType(tag: DW_TAG_member, name: "_aa", scope: !662, file: !661, line: 741, baseType: !731, size: 832, offset: 384)
!731 = distinct !DICompositeType(tag: DW_TAG_structure_type, name: "AllAnno", scope: !662, file: !661, line: 716, size: 832, flags: DIFlagTypePassByValue, elements: !732, identifier: "_ZTSN6Packet7AllAnnoE")
!732 = !{!733, !759, !760, !761, !762, !763, !764, !765}
!733 = !DIDerivedType(tag: DW_TAG_member, name: "cb", scope: !731, file: !661, line: 717, baseType: !734, size: 384)
!734 = distinct !DICompositeType(tag: DW_TAG_union_type, name: "Anno", scope: !662, file: !661, line: 702, size: 384, flags: DIFlagTypePassByValue, elements: !735, identifier: "_ZTSN6Packet4AnnoE")
!735 = !{!736, !740, !744, !751, !755}
!736 = !DIDerivedType(tag: DW_TAG_member, name: "c", scope: !734, file: !661, line: 703, baseType: !737, size: 384)
!737 = !DICompositeType(tag: DW_TAG_array_type, baseType: !202, size: 384, elements: !738)
!738 = !{!739}
!739 = !DISubrange(count: 48)
!740 = !DIDerivedType(tag: DW_TAG_member, name: "u8", scope: !734, file: !661, line: 704, baseType: !741, size: 384)
!741 = !DICompositeType(tag: DW_TAG_array_type, baseType: !742, size: 384, elements: !738)
!742 = !DIDerivedType(tag: DW_TAG_typedef, name: "uint8_t", file: !37, line: 24, baseType: !743)
!743 = !DIDerivedType(tag: DW_TAG_typedef, name: "__uint8_t", file: !27, line: 38, baseType: !259)
!744 = !DIDerivedType(tag: DW_TAG_member, name: "u16", scope: !734, file: !661, line: 705, baseType: !745, size: 384)
!745 = !DICompositeType(tag: DW_TAG_array_type, baseType: !746, size: 384, elements: !749)
!746 = !DIDerivedType(tag: DW_TAG_typedef, name: "uint16_t", file: !37, line: 25, baseType: !747)
!747 = !DIDerivedType(tag: DW_TAG_typedef, name: "__uint16_t", file: !27, line: 40, baseType: !748)
!748 = !DIBasicType(name: "unsigned short", size: 16, encoding: DW_ATE_unsigned)
!749 = !{!750}
!750 = !DISubrange(count: 24)
!751 = !DIDerivedType(tag: DW_TAG_member, name: "u32", scope: !734, file: !661, line: 706, baseType: !752, size: 384)
!752 = !DICompositeType(tag: DW_TAG_array_type, baseType: !36, size: 384, elements: !753)
!753 = !{!754}
!754 = !DISubrange(count: 12)
!755 = !DIDerivedType(tag: DW_TAG_member, name: "u64", scope: !734, file: !661, line: 708, baseType: !756, size: 384)
!756 = !DICompositeType(tag: DW_TAG_array_type, baseType: !323, size: 384, elements: !757)
!757 = !{!758}
!758 = !DISubrange(count: 6)
!759 = !DIDerivedType(tag: DW_TAG_member, name: "mac", scope: !731, file: !661, line: 718, baseType: !726, size: 64, offset: 384)
!760 = !DIDerivedType(tag: DW_TAG_member, name: "nh", scope: !731, file: !661, line: 719, baseType: !726, size: 64, offset: 448)
!761 = !DIDerivedType(tag: DW_TAG_member, name: "h", scope: !731, file: !661, line: 720, baseType: !726, size: 64, offset: 512)
!762 = !DIDerivedType(tag: DW_TAG_member, name: "pkt_type", scope: !731, file: !661, line: 721, baseType: !660, size: 32, offset: 576)
!763 = !DIDerivedType(tag: DW_TAG_member, name: "timestamp", scope: !731, file: !661, line: 722, baseType: !220, size: 64, offset: 608)
!764 = !DIDerivedType(tag: DW_TAG_member, name: "next", scope: !731, file: !661, line: 723, baseType: !724, size: 64, offset: 704)
!765 = !DIDerivedType(tag: DW_TAG_member, name: "prev", scope: !731, file: !661, line: 724, baseType: !724, size: 64, offset: 768)
!766 = !DIDerivedType(tag: DW_TAG_member, name: "_destructor", scope: !662, file: !661, line: 746, baseType: !767, size: 64, offset: 1216)
!767 = !DIDerivedType(tag: DW_TAG_typedef, name: "buffer_destructor_type", scope: !662, file: !661, line: 65, baseType: !768)
!768 = !DIDerivedType(tag: DW_TAG_pointer_type, baseType: !769, size: 64)
!769 = !DISubroutineType(types: !770)
!770 = !{null, !726, !771, !574}
!771 = !DIDerivedType(tag: DW_TAG_typedef, name: "size_t", file: !772, line: 46, baseType: !46)
!772 = !DIFile(filename: "/usr/lib/clang/10.0.0/include/stddef.h", directory: "")
!773 = !DIDerivedType(tag: DW_TAG_member, name: "_destructor_argument", scope: !662, file: !661, line: 747, baseType: !574, size: 64, offset: 1280)
!774 = !DISubprogram(name: "make", linkageName: "_ZN6Packet4makeEjPKvjj", scope: !662, file: !661, line: 52, type: !775, scopeLine: 52, flags: DIFlagPublic | DIFlagPrototyped | DIFlagStaticMember, spFlags: DISPFlagOptimized)
!775 = !DISubroutineType(types: !776)
!776 = !{!777, !36, !861, !36, !36}
!777 = !DIDerivedType(tag: DW_TAG_pointer_type, baseType: !778, size: 64)
!778 = distinct !DICompositeType(tag: DW_TAG_class_type, name: "WritablePacket", file: !661, line: 778, size: 1344, flags: DIFlagTypePassByReference | DIFlagNonTrivial, elements: !779, identifier: "_ZTS14WritablePacket")
!779 = !{!780, !781, !786, !787, !788, !789, !790, !795, !796, !819, !824, !825, !830, !835, !840, !841, !845, !846, !851, !852, !855, !858}
!780 = !DIDerivedType(tag: DW_TAG_inheritance, scope: !778, baseType: !662, flags: DIFlagPublic, extraData: i32 0)
!781 = !DISubprogram(name: "data", linkageName: "_ZNK14WritablePacket4dataEv", scope: !778, file: !661, line: 780, type: !782, scopeLine: 780, flags: DIFlagPublic | DIFlagPrototyped, spFlags: DISPFlagOptimized)
!782 = !DISubroutineType(types: !783)
!783 = !{!726, !784}
!784 = !DIDerivedType(tag: DW_TAG_pointer_type, baseType: !785, size: 64, flags: DIFlagArtificial | DIFlagObjectPointer)
!785 = !DIDerivedType(tag: DW_TAG_const_type, baseType: !778)
!786 = !DISubprogram(name: "end_data", linkageName: "_ZNK14WritablePacket8end_dataEv", scope: !778, file: !661, line: 781, type: !782, scopeLine: 781, flags: DIFlagPublic | DIFlagPrototyped, spFlags: DISPFlagOptimized)
!787 = !DISubprogram(name: "buffer", linkageName: "_ZNK14WritablePacket6bufferEv", scope: !778, file: !661, line: 782, type: !782, scopeLine: 782, flags: DIFlagPublic | DIFlagPrototyped, spFlags: DISPFlagOptimized)
!788 = !DISubprogram(name: "end_buffer", linkageName: "_ZNK14WritablePacket10end_bufferEv", scope: !778, file: !661, line: 783, type: !782, scopeLine: 783, flags: DIFlagPublic | DIFlagPrototyped, spFlags: DISPFlagOptimized)
!789 = !DISubprogram(name: "mac_header", linkageName: "_ZNK14WritablePacket10mac_headerEv", scope: !778, file: !661, line: 784, type: !782, scopeLine: 784, flags: DIFlagPublic | DIFlagPrototyped, spFlags: DISPFlagOptimized)
!790 = !DISubprogram(name: "ether_header", linkageName: "_ZNK14WritablePacket12ether_headerEv", scope: !778, file: !661, line: 785, type: !791, scopeLine: 785, flags: DIFlagPublic | DIFlagPrototyped, spFlags: DISPFlagOptimized)
!791 = !DISubroutineType(types: !792)
!792 = !{!793, !784}
!793 = !DIDerivedType(tag: DW_TAG_pointer_type, baseType: !794, size: 64)
!794 = !DICompositeType(tag: DW_TAG_structure_type, name: "click_ether", file: !661, line: 24, flags: DIFlagFwdDecl, identifier: "_ZTS11click_ether")
!795 = !DISubprogram(name: "network_header", linkageName: "_ZNK14WritablePacket14network_headerEv", scope: !778, file: !661, line: 786, type: !782, scopeLine: 786, flags: DIFlagPublic | DIFlagPrototyped, spFlags: DISPFlagOptimized)
!796 = !DISubprogram(name: "ip_header", linkageName: "_ZNK14WritablePacket9ip_headerEv", scope: !778, file: !661, line: 787, type: !797, scopeLine: 787, flags: DIFlagPublic | DIFlagPrototyped, spFlags: DISPFlagOptimized)
!797 = !DISubroutineType(types: !798)
!798 = !{!799, !784}
!799 = !DIDerivedType(tag: DW_TAG_pointer_type, baseType: !800, size: 64)
!800 = distinct !DICompositeType(tag: DW_TAG_structure_type, name: "click_ip", file: !801, line: 23, size: 160, flags: DIFlagTypePassByValue, elements: !802, identifier: "_ZTS8click_ip")
!801 = !DIFile(filename: "../dummy_inc/clicknet/ip.h", directory: "/home/john/projects/click/ir-dir")
!802 = !{!803, !804, !805, !806, !807, !808, !809, !810, !811, !812, !818}
!803 = !DIDerivedType(tag: DW_TAG_member, name: "ip_hl", scope: !800, file: !801, line: 28, baseType: !6, size: 4, flags: DIFlagBitField, extraData: i64 0)
!804 = !DIDerivedType(tag: DW_TAG_member, name: "ip_v", scope: !800, file: !801, line: 29, baseType: !6, size: 4, offset: 4, flags: DIFlagBitField, extraData: i64 0)
!805 = !DIDerivedType(tag: DW_TAG_member, name: "ip_tos", scope: !800, file: !801, line: 33, baseType: !742, size: 8, offset: 8)
!806 = !DIDerivedType(tag: DW_TAG_member, name: "ip_len", scope: !800, file: !801, line: 40, baseType: !746, size: 16, offset: 16)
!807 = !DIDerivedType(tag: DW_TAG_member, name: "ip_id", scope: !800, file: !801, line: 41, baseType: !746, size: 16, offset: 32)
!808 = !DIDerivedType(tag: DW_TAG_member, name: "ip_off", scope: !800, file: !801, line: 42, baseType: !746, size: 16, offset: 48)
!809 = !DIDerivedType(tag: DW_TAG_member, name: "ip_ttl", scope: !800, file: !801, line: 47, baseType: !742, size: 8, offset: 64)
!810 = !DIDerivedType(tag: DW_TAG_member, name: "ip_p", scope: !800, file: !801, line: 48, baseType: !742, size: 8, offset: 72)
!811 = !DIDerivedType(tag: DW_TAG_member, name: "ip_sum", scope: !800, file: !801, line: 49, baseType: !746, size: 16, offset: 80)
!812 = !DIDerivedType(tag: DW_TAG_member, name: "ip_src", scope: !800, file: !801, line: 50, baseType: !813, size: 32, offset: 96)
!813 = distinct !DICompositeType(tag: DW_TAG_structure_type, name: "in_addr", file: !814, line: 31, size: 32, flags: DIFlagTypePassByValue, elements: !815, identifier: "_ZTS7in_addr")
!814 = !DIFile(filename: "/usr/include/netinet/in.h", directory: "")
!815 = !{!816}
!816 = !DIDerivedType(tag: DW_TAG_member, name: "s_addr", scope: !813, file: !814, line: 33, baseType: !817, size: 32)
!817 = !DIDerivedType(tag: DW_TAG_typedef, name: "in_addr_t", file: !814, line: 30, baseType: !36)
!818 = !DIDerivedType(tag: DW_TAG_member, name: "ip_dst", scope: !800, file: !801, line: 51, baseType: !813, size: 32, offset: 128)
!819 = !DISubprogram(name: "ip6_header", linkageName: "_ZNK14WritablePacket10ip6_headerEv", scope: !778, file: !661, line: 788, type: !820, scopeLine: 788, flags: DIFlagPublic | DIFlagPrototyped, spFlags: DISPFlagOptimized)
!820 = !DISubroutineType(types: !821)
!821 = !{!822, !784}
!822 = !DIDerivedType(tag: DW_TAG_pointer_type, baseType: !823, size: 64)
!823 = !DICompositeType(tag: DW_TAG_structure_type, name: "click_ip6", file: !661, line: 27, flags: DIFlagFwdDecl, identifier: "_ZTS9click_ip6")
!824 = !DISubprogram(name: "transport_header", linkageName: "_ZNK14WritablePacket16transport_headerEv", scope: !778, file: !661, line: 789, type: !782, scopeLine: 789, flags: DIFlagPublic | DIFlagPrototyped, spFlags: DISPFlagOptimized)
!825 = !DISubprogram(name: "icmp_header", linkageName: "_ZNK14WritablePacket11icmp_headerEv", scope: !778, file: !661, line: 790, type: !826, scopeLine: 790, flags: DIFlagPublic | DIFlagPrototyped, spFlags: DISPFlagOptimized)
!826 = !DISubroutineType(types: !827)
!827 = !{!828, !784}
!828 = !DIDerivedType(tag: DW_TAG_pointer_type, baseType: !829, size: 64)
!829 = !DICompositeType(tag: DW_TAG_structure_type, name: "click_icmp", file: !661, line: 26, flags: DIFlagFwdDecl, identifier: "_ZTS10click_icmp")
!830 = !DISubprogram(name: "tcp_header", linkageName: "_ZNK14WritablePacket10tcp_headerEv", scope: !778, file: !661, line: 791, type: !831, scopeLine: 791, flags: DIFlagPublic | DIFlagPrototyped, spFlags: DISPFlagOptimized)
!831 = !DISubroutineType(types: !832)
!832 = !{!833, !784}
!833 = !DIDerivedType(tag: DW_TAG_pointer_type, baseType: !834, size: 64)
!834 = !DICompositeType(tag: DW_TAG_structure_type, name: "click_tcp", file: !661, line: 28, flags: DIFlagFwdDecl, identifier: "_ZTS9click_tcp")
!835 = !DISubprogram(name: "udp_header", linkageName: "_ZNK14WritablePacket10udp_headerEv", scope: !778, file: !661, line: 792, type: !836, scopeLine: 792, flags: DIFlagPublic | DIFlagPrototyped, spFlags: DISPFlagOptimized)
!836 = !DISubroutineType(types: !837)
!837 = !{!838, !784}
!838 = !DIDerivedType(tag: DW_TAG_pointer_type, baseType: !839, size: 64)
!839 = !DICompositeType(tag: DW_TAG_structure_type, name: "click_udp", file: !661, line: 29, flags: DIFlagFwdDecl, identifier: "_ZTS9click_udp")
!840 = !DISubprogram(name: "buffer_data", linkageName: "_ZNK14WritablePacket11buffer_dataEv", scope: !778, file: !661, line: 795, type: !782, scopeLine: 795, flags: DIFlagPublic | DIFlagPrototyped, spFlags: DISPFlagOptimized)
!841 = !DISubprogram(name: "WritablePacket", scope: !778, file: !661, line: 800, type: !842, scopeLine: 800, flags: DIFlagPrototyped, spFlags: DISPFlagOptimized)
!842 = !DISubroutineType(types: !843)
!843 = !{null, !844}
!844 = !DIDerivedType(tag: DW_TAG_pointer_type, baseType: !778, size: 64, flags: DIFlagArtificial | DIFlagObjectPointer)
!845 = !DISubprogram(name: "initialize", linkageName: "_ZN14WritablePacket10initializeEv", scope: !778, file: !661, line: 802, type: !842, scopeLine: 802, flags: DIFlagPrototyped, spFlags: DISPFlagOptimized)
!846 = !DISubprogram(name: "WritablePacket", scope: !778, file: !661, line: 804, type: !847, scopeLine: 804, flags: DIFlagPrototyped, spFlags: DISPFlagOptimized)
!847 = !DISubroutineType(types: !848)
!848 = !{null, !844, !849}
!849 = !DIDerivedType(tag: DW_TAG_reference_type, baseType: !850, size: 64)
!850 = !DIDerivedType(tag: DW_TAG_const_type, baseType: !662)
!851 = !DISubprogram(name: "~WritablePacket", scope: !778, file: !661, line: 805, type: !842, scopeLine: 805, flags: DIFlagPrototyped, spFlags: DISPFlagOptimized)
!852 = !DISubprogram(name: "pool_allocate", linkageName: "_ZN14WritablePacket13pool_allocateEb", scope: !778, file: !661, line: 808, type: !853, scopeLine: 808, flags: DIFlagPrototyped | DIFlagStaticMember, spFlags: DISPFlagOptimized)
!853 = !DISubroutineType(types: !854)
!854 = !{!777, !106}
!855 = !DISubprogram(name: "pool_allocate", linkageName: "_ZN14WritablePacket13pool_allocateEjjj", scope: !778, file: !661, line: 809, type: !856, scopeLine: 809, flags: DIFlagPrototyped | DIFlagStaticMember, spFlags: DISPFlagOptimized)
!856 = !DISubroutineType(types: !857)
!857 = !{!777, !36, !36, !36}
!858 = !DISubprogram(name: "recycle", linkageName: "_ZN14WritablePacket7recycleEPS_", scope: !778, file: !661, line: 811, type: !859, scopeLine: 811, flags: DIFlagPrototyped | DIFlagStaticMember, spFlags: DISPFlagOptimized)
!859 = !DISubroutineType(types: !860)
!860 = !{null, !777}
!861 = !DIDerivedType(tag: DW_TAG_pointer_type, baseType: !862, size: 64)
!862 = !DIDerivedType(tag: DW_TAG_const_type, baseType: null)
!863 = !DISubprogram(name: "make", linkageName: "_ZN6Packet4makeEPKvj", scope: !662, file: !661, line: 54, type: !864, scopeLine: 54, flags: DIFlagPublic | DIFlagPrototyped | DIFlagStaticMember, spFlags: DISPFlagOptimized)
!864 = !DISubroutineType(types: !865)
!865 = !{!777, !861, !36}
!866 = !DISubprogram(name: "make", linkageName: "_ZN6Packet4makeEj", scope: !662, file: !661, line: 55, type: !867, scopeLine: 55, flags: DIFlagPublic | DIFlagPrototyped | DIFlagStaticMember, spFlags: DISPFlagOptimized)
!867 = !DISubroutineType(types: !868)
!868 = !{!777, !36}
!869 = !DISubprogram(name: "make", linkageName: "_ZN6Packet4makeEPhjPFvS0_mPvES1_ii", scope: !662, file: !661, line: 66, type: !870, scopeLine: 66, flags: DIFlagPublic | DIFlagPrototyped | DIFlagStaticMember, spFlags: DISPFlagOptimized)
!870 = !DISubroutineType(types: !871)
!871 = !{!777, !726, !36, !767, !574, !42, !42}
!872 = !DISubprogram(name: "static_cleanup", linkageName: "_ZN6Packet14static_cleanupEv", scope: !662, file: !661, line: 71, type: !873, scopeLine: 71, flags: DIFlagPublic | DIFlagPrototyped | DIFlagStaticMember, spFlags: DISPFlagOptimized)
!873 = !DISubroutineType(types: !874)
!874 = !{null}
!875 = !DISubprogram(name: "kill", linkageName: "_ZN6Packet4killEv", scope: !662, file: !661, line: 73, type: !876, scopeLine: 73, flags: DIFlagPublic | DIFlagPrototyped, spFlags: DISPFlagOptimized)
!876 = !DISubroutineType(types: !877)
!877 = !{null, !878}
!878 = !DIDerivedType(tag: DW_TAG_pointer_type, baseType: !662, size: 64, flags: DIFlagArtificial | DIFlagObjectPointer)
!879 = !DISubprogram(name: "shared", linkageName: "_ZNK6Packet6sharedEv", scope: !662, file: !661, line: 75, type: !880, scopeLine: 75, flags: DIFlagPublic | DIFlagPrototyped, spFlags: DISPFlagOptimized)
!880 = !DISubroutineType(types: !881)
!881 = !{!106, !882}
!882 = !DIDerivedType(tag: DW_TAG_pointer_type, baseType: !850, size: 64, flags: DIFlagArtificial | DIFlagObjectPointer)
!883 = !DISubprogram(name: "clone", linkageName: "_ZN6Packet5cloneEv", scope: !662, file: !661, line: 76, type: !884, scopeLine: 76, flags: DIFlagPublic | DIFlagPrototyped, spFlags: DISPFlagOptimized)
!884 = !DISubroutineType(types: !885)
!885 = !{!724, !878}
!886 = !DISubprogram(name: "uniqueify", linkageName: "_ZN6Packet9uniqueifyEv", scope: !662, file: !661, line: 77, type: !887, scopeLine: 77, flags: DIFlagPublic | DIFlagPrototyped, spFlags: DISPFlagOptimized)
!887 = !DISubroutineType(types: !888)
!888 = !{!777, !878}
!889 = !DISubprogram(name: "data", linkageName: "_ZNK6Packet4dataEv", scope: !662, file: !661, line: 79, type: !890, scopeLine: 79, flags: DIFlagPublic | DIFlagPrototyped, spFlags: DISPFlagOptimized)
!890 = !DISubroutineType(types: !891)
!891 = !{!257, !882}
!892 = !DISubprogram(name: "end_data", linkageName: "_ZNK6Packet8end_dataEv", scope: !662, file: !661, line: 80, type: !890, scopeLine: 80, flags: DIFlagPublic | DIFlagPrototyped, spFlags: DISPFlagOptimized)
!893 = !DISubprogram(name: "length", linkageName: "_ZNK6Packet6lengthEv", scope: !662, file: !661, line: 81, type: !894, scopeLine: 81, flags: DIFlagPublic | DIFlagPrototyped, spFlags: DISPFlagOptimized)
!894 = !DISubroutineType(types: !895)
!895 = !{!36, !882}
!896 = !DISubprogram(name: "headroom", linkageName: "_ZNK6Packet8headroomEv", scope: !662, file: !661, line: 82, type: !894, scopeLine: 82, flags: DIFlagPublic | DIFlagPrototyped, spFlags: DISPFlagOptimized)
!897 = !DISubprogram(name: "tailroom", linkageName: "_ZNK6Packet8tailroomEv", scope: !662, file: !661, line: 83, type: !894, scopeLine: 83, flags: DIFlagPublic | DIFlagPrototyped, spFlags: DISPFlagOptimized)
!898 = !DISubprogram(name: "buffer", linkageName: "_ZNK6Packet6bufferEv", scope: !662, file: !661, line: 84, type: !890, scopeLine: 84, flags: DIFlagPublic | DIFlagPrototyped, spFlags: DISPFlagOptimized)
!899 = !DISubprogram(name: "end_buffer", linkageName: "_ZNK6Packet10end_bufferEv", scope: !662, file: !661, line: 85, type: !890, scopeLine: 85, flags: DIFlagPublic | DIFlagPrototyped, spFlags: DISPFlagOptimized)
!900 = !DISubprogram(name: "buffer_length", linkageName: "_ZNK6Packet13buffer_lengthEv", scope: !662, file: !661, line: 86, type: !894, scopeLine: 86, flags: DIFlagPublic | DIFlagPrototyped, spFlags: DISPFlagOptimized)
!901 = !DISubprogram(name: "buffer_destructor", linkageName: "_ZNK6Packet17buffer_destructorEv", scope: !662, file: !661, line: 97, type: !902, scopeLine: 97, flags: DIFlagPublic | DIFlagPrototyped, spFlags: DISPFlagOptimized)
!902 = !DISubroutineType(types: !903)
!903 = !{!767, !882}
!904 = !DISubprogram(name: "set_buffer_destructor", linkageName: "_ZN6Packet21set_buffer_destructorEPFvPhmPvE", scope: !662, file: !661, line: 101, type: !905, scopeLine: 101, flags: DIFlagPublic | DIFlagPrototyped, spFlags: DISPFlagOptimized)
!905 = !DISubroutineType(types: !906)
!906 = !{null, !878, !767}
!907 = !DISubprogram(name: "destructor_argument", linkageName: "_ZN6Packet19destructor_argumentEv", scope: !662, file: !661, line: 105, type: !908, scopeLine: 105, flags: DIFlagPublic | DIFlagPrototyped, spFlags: DISPFlagOptimized)
!908 = !DISubroutineType(types: !909)
!909 = !{!574, !878}
!910 = !DISubprogram(name: "reset_buffer", linkageName: "_ZN6Packet12reset_bufferEv", scope: !662, file: !661, line: 109, type: !876, scopeLine: 109, flags: DIFlagPublic | DIFlagPrototyped, spFlags: DISPFlagOptimized)
!911 = !DISubprogram(name: "push", linkageName: "_ZN6Packet4pushEj", scope: !662, file: !661, line: 141, type: !912, scopeLine: 141, flags: DIFlagPublic | DIFlagPrototyped, spFlags: DISPFlagOptimized)
!912 = !DISubroutineType(types: !913)
!913 = !{!777, !878, !36}
!914 = !DISubprogram(name: "push_mac_header", linkageName: "_ZN6Packet15push_mac_headerEj", scope: !662, file: !661, line: 152, type: !912, scopeLine: 152, flags: DIFlagPublic | DIFlagPrototyped, spFlags: DISPFlagOptimized)
!915 = !DISubprogram(name: "nonunique_push", linkageName: "_ZN6Packet14nonunique_pushEj", scope: !662, file: !661, line: 171, type: !916, scopeLine: 171, flags: DIFlagPublic | DIFlagPrototyped, spFlags: DISPFlagOptimized)
!916 = !DISubroutineType(types: !917)
!917 = !{!724, !878, !36}
!918 = !DISubprogram(name: "pull", linkageName: "_ZN6Packet4pullEj", scope: !662, file: !661, line: 187, type: !919, scopeLine: 187, flags: DIFlagPublic | DIFlagPrototyped, spFlags: DISPFlagOptimized)
!919 = !DISubroutineType(types: !920)
!920 = !{null, !878, !36}
!921 = !DISubprogram(name: "put", linkageName: "_ZN6Packet3putEj", scope: !662, file: !661, line: 213, type: !912, scopeLine: 213, flags: DIFlagPublic | DIFlagPrototyped, spFlags: DISPFlagOptimized)
!922 = !DISubprogram(name: "nonunique_put", linkageName: "_ZN6Packet13nonunique_putEj", scope: !662, file: !661, line: 230, type: !916, scopeLine: 230, flags: DIFlagPublic | DIFlagPrototyped, spFlags: DISPFlagOptimized)
!923 = !DISubprogram(name: "take", linkageName: "_ZN6Packet4takeEj", scope: !662, file: !661, line: 245, type: !919, scopeLine: 245, flags: DIFlagPublic | DIFlagPrototyped, spFlags: DISPFlagOptimized)
!924 = !DISubprogram(name: "shift_data", linkageName: "_ZN6Packet10shift_dataEib", scope: !662, file: !661, line: 269, type: !925, scopeLine: 269, flags: DIFlagPublic | DIFlagPrototyped, spFlags: DISPFlagOptimized)
!925 = !DISubroutineType(types: !926)
!926 = !{!724, !878, !42, !106}
!927 = !DISubprogram(name: "shrink_data", linkageName: "_ZN6Packet11shrink_dataEPKhj", scope: !662, file: !661, line: 271, type: !928, scopeLine: 271, flags: DIFlagPublic | DIFlagPrototyped, spFlags: DISPFlagOptimized)
!928 = !DISubroutineType(types: !929)
!929 = !{null, !878, !257, !36}
!930 = !DISubprogram(name: "change_headroom_and_length", linkageName: "_ZN6Packet26change_headroom_and_lengthEjj", scope: !662, file: !661, line: 272, type: !931, scopeLine: 272, flags: DIFlagPublic | DIFlagPrototyped, spFlags: DISPFlagOptimized)
!931 = !DISubroutineType(types: !932)
!932 = !{null, !878, !36, !36}
!933 = !DISubprogram(name: "copy", linkageName: "_ZN6Packet4copyEPS_i", scope: !662, file: !661, line: 274, type: !934, scopeLine: 274, flags: DIFlagPublic | DIFlagPrototyped, spFlags: DISPFlagOptimized)
!934 = !DISubroutineType(types: !935)
!935 = !{!106, !878, !724, !42}
!936 = !DISubprogram(name: "has_mac_header", linkageName: "_ZNK6Packet14has_mac_headerEv", scope: !662, file: !661, line: 279, type: !880, scopeLine: 279, flags: DIFlagPublic | DIFlagPrototyped, spFlags: DISPFlagOptimized)
!937 = !DISubprogram(name: "mac_header", linkageName: "_ZNK6Packet10mac_headerEv", scope: !662, file: !661, line: 280, type: !890, scopeLine: 280, flags: DIFlagPublic | DIFlagPrototyped, spFlags: DISPFlagOptimized)
!938 = !DISubprogram(name: "mac_header_offset", linkageName: "_ZNK6Packet17mac_header_offsetEv", scope: !662, file: !661, line: 281, type: !939, scopeLine: 281, flags: DIFlagPublic | DIFlagPrototyped, spFlags: DISPFlagOptimized)
!939 = !DISubroutineType(types: !940)
!940 = !{!42, !882}
!941 = !DISubprogram(name: "mac_header_length", linkageName: "_ZNK6Packet17mac_header_lengthEv", scope: !662, file: !661, line: 282, type: !894, scopeLine: 282, flags: DIFlagPublic | DIFlagPrototyped, spFlags: DISPFlagOptimized)
!942 = !DISubprogram(name: "mac_length", linkageName: "_ZNK6Packet10mac_lengthEv", scope: !662, file: !661, line: 283, type: !939, scopeLine: 283, flags: DIFlagPublic | DIFlagPrototyped, spFlags: DISPFlagOptimized)
!943 = !DISubprogram(name: "set_mac_header", linkageName: "_ZN6Packet14set_mac_headerEPKh", scope: !662, file: !661, line: 284, type: !944, scopeLine: 284, flags: DIFlagPublic | DIFlagPrototyped, spFlags: DISPFlagOptimized)
!944 = !DISubroutineType(types: !945)
!945 = !{null, !878, !257}
!946 = !DISubprogram(name: "set_mac_header", linkageName: "_ZN6Packet14set_mac_headerEPKhj", scope: !662, file: !661, line: 285, type: !928, scopeLine: 285, flags: DIFlagPublic | DIFlagPrototyped, spFlags: DISPFlagOptimized)
!947 = !DISubprogram(name: "clear_mac_header", linkageName: "_ZN6Packet16clear_mac_headerEv", scope: !662, file: !661, line: 286, type: !876, scopeLine: 286, flags: DIFlagPublic | DIFlagPrototyped, spFlags: DISPFlagOptimized)
!948 = !DISubprogram(name: "has_network_header", linkageName: "_ZNK6Packet18has_network_headerEv", scope: !662, file: !661, line: 288, type: !880, scopeLine: 288, flags: DIFlagPublic | DIFlagPrototyped, spFlags: DISPFlagOptimized)
!949 = !DISubprogram(name: "network_header", linkageName: "_ZNK6Packet14network_headerEv", scope: !662, file: !661, line: 289, type: !890, scopeLine: 289, flags: DIFlagPublic | DIFlagPrototyped, spFlags: DISPFlagOptimized)
!950 = !DISubprogram(name: "network_header_offset", linkageName: "_ZNK6Packet21network_header_offsetEv", scope: !662, file: !661, line: 290, type: !939, scopeLine: 290, flags: DIFlagPublic | DIFlagPrototyped, spFlags: DISPFlagOptimized)
!951 = !DISubprogram(name: "network_header_length", linkageName: "_ZNK6Packet21network_header_lengthEv", scope: !662, file: !661, line: 291, type: !894, scopeLine: 291, flags: DIFlagPublic | DIFlagPrototyped, spFlags: DISPFlagOptimized)
!952 = !DISubprogram(name: "network_length", linkageName: "_ZNK6Packet14network_lengthEv", scope: !662, file: !661, line: 292, type: !939, scopeLine: 292, flags: DIFlagPublic | DIFlagPrototyped, spFlags: DISPFlagOptimized)
!953 = !DISubprogram(name: "set_network_header", linkageName: "_ZN6Packet18set_network_headerEPKhj", scope: !662, file: !661, line: 293, type: !928, scopeLine: 293, flags: DIFlagPublic | DIFlagPrototyped, spFlags: DISPFlagOptimized)
!954 = !DISubprogram(name: "set_network_header_length", linkageName: "_ZN6Packet25set_network_header_lengthEj", scope: !662, file: !661, line: 294, type: !919, scopeLine: 294, flags: DIFlagPublic | DIFlagPrototyped, spFlags: DISPFlagOptimized)
!955 = !DISubprogram(name: "clear_network_header", linkageName: "_ZN6Packet20clear_network_headerEv", scope: !662, file: !661, line: 295, type: !876, scopeLine: 295, flags: DIFlagPublic | DIFlagPrototyped, spFlags: DISPFlagOptimized)
!956 = !DISubprogram(name: "has_transport_header", linkageName: "_ZNK6Packet20has_transport_headerEv", scope: !662, file: !661, line: 297, type: !880, scopeLine: 297, flags: DIFlagPublic | DIFlagPrototyped, spFlags: DISPFlagOptimized)
!957 = !DISubprogram(name: "transport_header", linkageName: "_ZNK6Packet16transport_headerEv", scope: !662, file: !661, line: 298, type: !890, scopeLine: 298, flags: DIFlagPublic | DIFlagPrototyped, spFlags: DISPFlagOptimized)
!958 = !DISubprogram(name: "transport_header_offset", linkageName: "_ZNK6Packet23transport_header_offsetEv", scope: !662, file: !661, line: 299, type: !939, scopeLine: 299, flags: DIFlagPublic | DIFlagPrototyped, spFlags: DISPFlagOptimized)
!959 = !DISubprogram(name: "transport_length", linkageName: "_ZNK6Packet16transport_lengthEv", scope: !662, file: !661, line: 300, type: !939, scopeLine: 300, flags: DIFlagPublic | DIFlagPrototyped, spFlags: DISPFlagOptimized)
!960 = !DISubprogram(name: "clear_transport_header", linkageName: "_ZN6Packet22clear_transport_headerEv", scope: !662, file: !661, line: 301, type: !876, scopeLine: 301, flags: DIFlagPublic | DIFlagPrototyped, spFlags: DISPFlagOptimized)
!961 = !DISubprogram(name: "ether_header", linkageName: "_ZNK6Packet12ether_headerEv", scope: !662, file: !661, line: 304, type: !962, scopeLine: 304, flags: DIFlagPublic | DIFlagPrototyped, spFlags: DISPFlagOptimized)
!962 = !DISubroutineType(types: !963)
!963 = !{!964, !882}
!964 = !DIDerivedType(tag: DW_TAG_pointer_type, baseType: !965, size: 64)
!965 = !DIDerivedType(tag: DW_TAG_const_type, baseType: !794)
!966 = !DISubprogram(name: "set_ether_header", linkageName: "_ZN6Packet16set_ether_headerEPK11click_ether", scope: !662, file: !661, line: 305, type: !967, scopeLine: 305, flags: DIFlagPublic | DIFlagPrototyped, spFlags: DISPFlagOptimized)
!967 = !DISubroutineType(types: !968)
!968 = !{null, !878, !964}
!969 = !DISubprogram(name: "ip_header", linkageName: "_ZNK6Packet9ip_headerEv", scope: !662, file: !661, line: 307, type: !970, scopeLine: 307, flags: DIFlagPublic | DIFlagPrototyped, spFlags: DISPFlagOptimized)
!970 = !DISubroutineType(types: !971)
!971 = !{!972, !882}
!972 = !DIDerivedType(tag: DW_TAG_pointer_type, baseType: !973, size: 64)
!973 = !DIDerivedType(tag: DW_TAG_const_type, baseType: !800)
!974 = !DISubprogram(name: "ip_header_offset", linkageName: "_ZNK6Packet16ip_header_offsetEv", scope: !662, file: !661, line: 308, type: !939, scopeLine: 308, flags: DIFlagPublic | DIFlagPrototyped, spFlags: DISPFlagOptimized)
!975 = !DISubprogram(name: "ip_header_length", linkageName: "_ZNK6Packet16ip_header_lengthEv", scope: !662, file: !661, line: 309, type: !894, scopeLine: 309, flags: DIFlagPublic | DIFlagPrototyped, spFlags: DISPFlagOptimized)
!976 = !DISubprogram(name: "set_ip_header", linkageName: "_ZN6Packet13set_ip_headerEPK8click_ipj", scope: !662, file: !661, line: 310, type: !977, scopeLine: 310, flags: DIFlagPublic | DIFlagPrototyped, spFlags: DISPFlagOptimized)
!977 = !DISubroutineType(types: !978)
!978 = !{null, !878, !972, !36}
!979 = !DISubprogram(name: "ip6_header", linkageName: "_ZNK6Packet10ip6_headerEv", scope: !662, file: !661, line: 312, type: !980, scopeLine: 312, flags: DIFlagPublic | DIFlagPrototyped, spFlags: DISPFlagOptimized)
!980 = !DISubroutineType(types: !981)
!981 = !{!982, !882}
!982 = !DIDerivedType(tag: DW_TAG_pointer_type, baseType: !983, size: 64)
!983 = !DIDerivedType(tag: DW_TAG_const_type, baseType: !823)
!984 = !DISubprogram(name: "ip6_header_offset", linkageName: "_ZNK6Packet17ip6_header_offsetEv", scope: !662, file: !661, line: 313, type: !939, scopeLine: 313, flags: DIFlagPublic | DIFlagPrototyped, spFlags: DISPFlagOptimized)
!985 = !DISubprogram(name: "ip6_header_length", linkageName: "_ZNK6Packet17ip6_header_lengthEv", scope: !662, file: !661, line: 314, type: !894, scopeLine: 314, flags: DIFlagPublic | DIFlagPrototyped, spFlags: DISPFlagOptimized)
!986 = !DISubprogram(name: "set_ip6_header", linkageName: "_ZN6Packet14set_ip6_headerEPK9click_ip6", scope: !662, file: !661, line: 315, type: !987, scopeLine: 315, flags: DIFlagPublic | DIFlagPrototyped, spFlags: DISPFlagOptimized)
!987 = !DISubroutineType(types: !988)
!988 = !{null, !878, !982}
!989 = !DISubprogram(name: "set_ip6_header", linkageName: "_ZN6Packet14set_ip6_headerEPK9click_ip6j", scope: !662, file: !661, line: 316, type: !990, scopeLine: 316, flags: DIFlagPublic | DIFlagPrototyped, spFlags: DISPFlagOptimized)
!990 = !DISubroutineType(types: !991)
!991 = !{null, !878, !982, !36}
!992 = !DISubprogram(name: "icmp_header", linkageName: "_ZNK6Packet11icmp_headerEv", scope: !662, file: !661, line: 318, type: !993, scopeLine: 318, flags: DIFlagPublic | DIFlagPrototyped, spFlags: DISPFlagOptimized)
!993 = !DISubroutineType(types: !994)
!994 = !{!995, !882}
!995 = !DIDerivedType(tag: DW_TAG_pointer_type, baseType: !996, size: 64)
!996 = !DIDerivedType(tag: DW_TAG_const_type, baseType: !829)
!997 = !DISubprogram(name: "tcp_header", linkageName: "_ZNK6Packet10tcp_headerEv", scope: !662, file: !661, line: 319, type: !998, scopeLine: 319, flags: DIFlagPublic | DIFlagPrototyped, spFlags: DISPFlagOptimized)
!998 = !DISubroutineType(types: !999)
!999 = !{!1000, !882}
!1000 = !DIDerivedType(tag: DW_TAG_pointer_type, baseType: !1001, size: 64)
!1001 = !DIDerivedType(tag: DW_TAG_const_type, baseType: !834)
!1002 = !DISubprogram(name: "udp_header", linkageName: "_ZNK6Packet10udp_headerEv", scope: !662, file: !661, line: 320, type: !1003, scopeLine: 320, flags: DIFlagPublic | DIFlagPrototyped, spFlags: DISPFlagOptimized)
!1003 = !DISubroutineType(types: !1004)
!1004 = !{!1005, !882}
!1005 = !DIDerivedType(tag: DW_TAG_pointer_type, baseType: !1006, size: 64)
!1006 = !DIDerivedType(tag: DW_TAG_const_type, baseType: !839)
!1007 = !DISubprogram(name: "xanno", linkageName: "_ZNK6Packet5xannoEv", scope: !662, file: !661, line: 340, type: !1008, scopeLine: 340, flags: DIFlagPrototyped, spFlags: DISPFlagOptimized)
!1008 = !DISubroutineType(types: !1009)
!1009 = !{!1010, !882}
!1010 = !DIDerivedType(tag: DW_TAG_pointer_type, baseType: !1011, size: 64)
!1011 = !DIDerivedType(tag: DW_TAG_const_type, baseType: !734)
!1012 = !DISubprogram(name: "xanno", linkageName: "_ZN6Packet5xannoEv", scope: !662, file: !661, line: 341, type: !1013, scopeLine: 341, flags: DIFlagPrototyped, spFlags: DISPFlagOptimized)
!1013 = !DISubroutineType(types: !1014)
!1014 = !{!1015, !878}
!1015 = !DIDerivedType(tag: DW_TAG_pointer_type, baseType: !734, size: 64)
!1016 = !DISubprogram(name: "timestamp_anno", linkageName: "_ZNK6Packet14timestamp_annoEv", scope: !662, file: !661, line: 354, type: !1017, scopeLine: 354, flags: DIFlagPublic | DIFlagPrototyped, spFlags: DISPFlagOptimized)
!1017 = !DISubroutineType(types: !1018)
!1018 = !{!512, !882}
!1019 = !DISubprogram(name: "timestamp_anno", linkageName: "_ZN6Packet14timestamp_annoEv", scope: !662, file: !661, line: 356, type: !1020, scopeLine: 356, flags: DIFlagPublic | DIFlagPrototyped, spFlags: DISPFlagOptimized)
!1020 = !DISubroutineType(types: !1021)
!1021 = !{!1022, !878}
!1022 = !DIDerivedType(tag: DW_TAG_reference_type, baseType: !18, size: 64)
!1023 = !DISubprogram(name: "set_timestamp_anno", linkageName: "_ZN6Packet18set_timestamp_annoERK9Timestamp", scope: !662, file: !661, line: 359, type: !1024, scopeLine: 359, flags: DIFlagPublic | DIFlagPrototyped, spFlags: DISPFlagOptimized)
!1024 = !DISubroutineType(types: !1025)
!1025 = !{null, !878, !512}
!1026 = !DISubprogram(name: "device_anno", linkageName: "_ZNK6Packet11device_annoEv", scope: !662, file: !661, line: 362, type: !1027, scopeLine: 362, flags: DIFlagPublic | DIFlagPrototyped, spFlags: DISPFlagOptimized)
!1027 = !DISubroutineType(types: !1028)
!1028 = !{!1029, !882}
!1029 = !DIDerivedType(tag: DW_TAG_pointer_type, baseType: !1030, size: 64)
!1030 = !DIDerivedType(tag: DW_TAG_typedef, name: "net_device", file: !148, line: 326, baseType: !1031)
!1031 = !DICompositeType(tag: DW_TAG_structure_type, name: "device", file: !148, line: 326, flags: DIFlagFwdDecl, identifier: "_ZTS6device")
!1032 = !DISubprogram(name: "set_device_anno", linkageName: "_ZN6Packet15set_device_annoEP6device", scope: !662, file: !661, line: 364, type: !1033, scopeLine: 364, flags: DIFlagPublic | DIFlagPrototyped, spFlags: DISPFlagOptimized)
!1033 = !DISubroutineType(types: !1034)
!1034 = !{null, !878, !1029}
!1035 = !DISubprogram(name: "packet_type_anno", linkageName: "_ZNK6Packet16packet_type_annoEv", scope: !662, file: !661, line: 383, type: !1036, scopeLine: 383, flags: DIFlagPublic | DIFlagPrototyped, spFlags: DISPFlagOptimized)
!1036 = !DISubroutineType(types: !1037)
!1037 = !{!660, !882}
!1038 = !DISubprogram(name: "set_packet_type_anno", linkageName: "_ZN6Packet20set_packet_type_annoENS_10PacketTypeE", scope: !662, file: !661, line: 385, type: !1039, scopeLine: 385, flags: DIFlagPublic | DIFlagPrototyped, spFlags: DISPFlagOptimized)
!1039 = !DISubroutineType(types: !1040)
!1040 = !{null, !878, !660}
!1041 = !DISubprogram(name: "next", linkageName: "_ZNK6Packet4nextEv", scope: !662, file: !661, line: 410, type: !1042, scopeLine: 410, flags: DIFlagPublic | DIFlagPrototyped, spFlags: DISPFlagOptimized)
!1042 = !DISubroutineType(types: !1043)
!1043 = !{!724, !882}
!1044 = !DISubprogram(name: "next", linkageName: "_ZN6Packet4nextEv", scope: !662, file: !661, line: 412, type: !1045, scopeLine: 412, flags: DIFlagPublic | DIFlagPrototyped, spFlags: DISPFlagOptimized)
!1045 = !DISubroutineType(types: !1046)
!1046 = !{!1047, !878}
!1047 = !DIDerivedType(tag: DW_TAG_reference_type, baseType: !724, size: 64)
!1048 = !DISubprogram(name: "set_next", linkageName: "_ZN6Packet8set_nextEPS_", scope: !662, file: !661, line: 414, type: !1049, scopeLine: 414, flags: DIFlagPublic | DIFlagPrototyped, spFlags: DISPFlagOptimized)
!1049 = !DISubroutineType(types: !1050)
!1050 = !{null, !878, !724}
!1051 = !DISubprogram(name: "prev", linkageName: "_ZNK6Packet4prevEv", scope: !662, file: !661, line: 417, type: !1042, scopeLine: 417, flags: DIFlagPublic | DIFlagPrototyped, spFlags: DISPFlagOptimized)
!1052 = !DISubprogram(name: "prev", linkageName: "_ZN6Packet4prevEv", scope: !662, file: !661, line: 419, type: !1045, scopeLine: 419, flags: DIFlagPublic | DIFlagPrototyped, spFlags: DISPFlagOptimized)
!1053 = !DISubprogram(name: "set_prev", linkageName: "_ZN6Packet8set_prevEPS_", scope: !662, file: !661, line: 421, type: !1049, scopeLine: 421, flags: DIFlagPublic | DIFlagPrototyped, spFlags: DISPFlagOptimized)
!1054 = !DISubprogram(name: "dst_ip_anno", linkageName: "_ZNK6Packet11dst_ip_annoEv", scope: !662, file: !661, line: 431, type: !1055, scopeLine: 431, flags: DIFlagPublic | DIFlagPrototyped, spFlags: DISPFlagOptimized)
!1055 = !DISubroutineType(types: !1056)
!1056 = !{!1057, !882}
!1057 = distinct !DICompositeType(tag: DW_TAG_class_type, name: "IPAddress", file: !1058, line: 15, size: 32, flags: DIFlagTypePassByValue | DIFlagNonTrivial, elements: !1059, identifier: "_ZTS9IPAddress")
!1058 = !DIFile(filename: "../dummy_inc/click/ipaddress.hh", directory: "/home/john/projects/click/ir-dir")
!1059 = !{!1060, !1061, !1065, !1068, !1071, !1074, !1077, !1080, !1083, !1086, !1091, !1094, !1097, !1102, !1105, !1106, !1107, !1108, !1111, !1112, !1115, !1118, !1119, !1122, !1125, !1128, !1129, !1133, !1134, !1135, !1138, !1139, !1142, !1143}
!1060 = !DIDerivedType(tag: DW_TAG_member, name: "_addr", scope: !1057, file: !1058, line: 152, baseType: !36, size: 32)
!1061 = !DISubprogram(name: "IPAddress", scope: !1057, file: !1058, line: 20, type: !1062, scopeLine: 20, flags: DIFlagPublic | DIFlagPrototyped, spFlags: DISPFlagOptimized)
!1062 = !DISubroutineType(types: !1063)
!1063 = !{null, !1064}
!1064 = !DIDerivedType(tag: DW_TAG_pointer_type, baseType: !1057, size: 64, flags: DIFlagArtificial | DIFlagObjectPointer)
!1065 = !DISubprogram(name: "IPAddress", scope: !1057, file: !1058, line: 25, type: !1066, scopeLine: 25, flags: DIFlagPublic | DIFlagPrototyped, spFlags: DISPFlagOptimized)
!1066 = !DISubroutineType(types: !1067)
!1067 = !{null, !1064, !6}
!1068 = !DISubprogram(name: "IPAddress", scope: !1057, file: !1058, line: 29, type: !1069, scopeLine: 29, flags: DIFlagPublic | DIFlagExplicit | DIFlagPrototyped, spFlags: DISPFlagOptimized)
!1069 = !DISubroutineType(types: !1070)
!1070 = !{null, !1064, !42}
!1071 = !DISubprogram(name: "IPAddress", scope: !1057, file: !1058, line: 33, type: !1072, scopeLine: 33, flags: DIFlagPublic | DIFlagExplicit | DIFlagPrototyped, spFlags: DISPFlagOptimized)
!1072 = !DISubroutineType(types: !1073)
!1073 = !{null, !1064, !46}
!1074 = !DISubprogram(name: "IPAddress", scope: !1057, file: !1058, line: 37, type: !1075, scopeLine: 37, flags: DIFlagPublic | DIFlagExplicit | DIFlagPrototyped, spFlags: DISPFlagOptimized)
!1075 = !DISubroutineType(types: !1076)
!1076 = !{null, !1064, !28}
!1077 = !DISubprogram(name: "IPAddress", scope: !1057, file: !1058, line: 42, type: !1078, scopeLine: 42, flags: DIFlagPublic | DIFlagPrototyped, spFlags: DISPFlagOptimized)
!1078 = !DISubroutineType(types: !1079)
!1079 = !{null, !1064, !813}
!1080 = !DISubprogram(name: "IPAddress", scope: !1057, file: !1058, line: 50, type: !1081, scopeLine: 50, flags: DIFlagPublic | DIFlagExplicit | DIFlagPrototyped, spFlags: DISPFlagOptimized)
!1081 = !DISubroutineType(types: !1082)
!1082 = !{null, !1064, !257}
!1083 = !DISubprogram(name: "IPAddress", scope: !1057, file: !1058, line: 63, type: !1084, scopeLine: 63, flags: DIFlagPublic | DIFlagExplicit | DIFlagPrototyped, spFlags: DISPFlagOptimized)
!1084 = !DISubroutineType(types: !1085)
!1085 = !{null, !1064, !242}
!1086 = !DISubprogram(name: "IPAddress", scope: !1057, file: !1058, line: 66, type: !1087, scopeLine: 66, flags: DIFlagPublic | DIFlagPrototyped, spFlags: DISPFlagOptimized)
!1087 = !DISubroutineType(types: !1088)
!1088 = !{null, !1064, !1089}
!1089 = !DIDerivedType(tag: DW_TAG_reference_type, baseType: !1090, size: 64)
!1090 = !DIDerivedType(tag: DW_TAG_const_type, baseType: !88)
!1091 = !DISubprogram(name: "make_prefix", linkageName: "_ZN9IPAddress11make_prefixEi", scope: !1057, file: !1058, line: 78, type: !1092, scopeLine: 78, flags: DIFlagPublic | DIFlagPrototyped | DIFlagStaticMember, spFlags: DISPFlagOptimized)
!1092 = !DISubroutineType(types: !1093)
!1093 = !{!1057, !42}
!1094 = !DISubprogram(name: "make_broadcast", linkageName: "_ZN9IPAddress14make_broadcastEv", scope: !1057, file: !1058, line: 81, type: !1095, scopeLine: 81, flags: DIFlagPublic | DIFlagPrototyped | DIFlagStaticMember, spFlags: DISPFlagOptimized)
!1095 = !DISubroutineType(types: !1096)
!1096 = !{!1057}
!1097 = !DISubprogram(name: "empty", linkageName: "_ZNK9IPAddress5emptyEv", scope: !1057, file: !1058, line: 86, type: !1098, scopeLine: 86, flags: DIFlagPublic | DIFlagPrototyped, spFlags: DISPFlagOptimized)
!1098 = !DISubroutineType(types: !1099)
!1099 = !{!106, !1100}
!1100 = !DIDerivedType(tag: DW_TAG_pointer_type, baseType: !1101, size: 64, flags: DIFlagArtificial | DIFlagObjectPointer)
!1101 = !DIDerivedType(tag: DW_TAG_const_type, baseType: !1057)
!1102 = !DISubprogram(name: "addr", linkageName: "_ZNK9IPAddress4addrEv", scope: !1057, file: !1058, line: 91, type: !1103, scopeLine: 91, flags: DIFlagPublic | DIFlagPrototyped, spFlags: DISPFlagOptimized)
!1103 = !DISubroutineType(types: !1104)
!1104 = !{!36, !1100}
!1105 = !DISubprogram(name: "operator unsigned int", linkageName: "_ZNK9IPAddresscvjEv", scope: !1057, file: !1058, line: 99, type: !1103, scopeLine: 99, flags: DIFlagPublic | DIFlagPrototyped, spFlags: DISPFlagOptimized)
!1106 = !DISubprogram(name: "is_multicast", linkageName: "_ZNK9IPAddress12is_multicastEv", scope: !1057, file: !1058, line: 106, type: !1098, scopeLine: 106, flags: DIFlagPublic | DIFlagPrototyped, spFlags: DISPFlagOptimized)
!1107 = !DISubprogram(name: "is_link_local", linkageName: "_ZNK9IPAddress13is_link_localEv", scope: !1057, file: !1058, line: 110, type: !1098, scopeLine: 110, flags: DIFlagPublic | DIFlagPrototyped, spFlags: DISPFlagOptimized)
!1108 = !DISubprogram(name: "in_addr", linkageName: "_ZNK9IPAddress7in_addrEv", scope: !1057, file: !1058, line: 114, type: !1109, scopeLine: 114, flags: DIFlagPublic | DIFlagPrototyped, spFlags: DISPFlagOptimized)
!1109 = !DISubroutineType(types: !1110)
!1110 = !{!813, !1100}
!1111 = !DISubprogram(name: "operator in_addr", linkageName: "_ZNK9IPAddresscv7in_addrEv", scope: !1057, file: !1058, line: 115, type: !1109, scopeLine: 115, flags: DIFlagPublic | DIFlagPrototyped, spFlags: DISPFlagOptimized)
!1112 = !DISubprogram(name: "data", linkageName: "_ZN9IPAddress4dataEv", scope: !1057, file: !1058, line: 117, type: !1113, scopeLine: 117, flags: DIFlagPublic | DIFlagPrototyped, spFlags: DISPFlagOptimized)
!1113 = !DISubroutineType(types: !1114)
!1114 = !{!726, !1064}
!1115 = !DISubprogram(name: "data", linkageName: "_ZNK9IPAddress4dataEv", scope: !1057, file: !1058, line: 118, type: !1116, scopeLine: 118, flags: DIFlagPublic | DIFlagPrototyped, spFlags: DISPFlagOptimized)
!1116 = !DISubroutineType(types: !1117)
!1117 = !{!257, !1100}
!1118 = !DISubprogram(name: "hashcode", linkageName: "_ZNK9IPAddress8hashcodeEv", scope: !1057, file: !1058, line: 120, type: !1103, scopeLine: 120, flags: DIFlagPublic | DIFlagPrototyped, spFlags: DISPFlagOptimized)
!1119 = !DISubprogram(name: "mask_to_prefix_len", linkageName: "_ZNK9IPAddress18mask_to_prefix_lenEv", scope: !1057, file: !1058, line: 122, type: !1120, scopeLine: 122, flags: DIFlagPublic | DIFlagPrototyped, spFlags: DISPFlagOptimized)
!1120 = !DISubroutineType(types: !1121)
!1121 = !{!42, !1100}
!1122 = !DISubprogram(name: "matches_prefix", linkageName: "_ZNK9IPAddress14matches_prefixES_S_", scope: !1057, file: !1058, line: 123, type: !1123, scopeLine: 123, flags: DIFlagPublic | DIFlagPrototyped, spFlags: DISPFlagOptimized)
!1123 = !DISubroutineType(types: !1124)
!1124 = !{!106, !1100, !1057, !1057}
!1125 = !DISubprogram(name: "mask_as_specific", linkageName: "_ZNK9IPAddress16mask_as_specificES_", scope: !1057, file: !1058, line: 124, type: !1126, scopeLine: 124, flags: DIFlagPublic | DIFlagPrototyped, spFlags: DISPFlagOptimized)
!1126 = !DISubroutineType(types: !1127)
!1127 = !{!106, !1100, !1057}
!1128 = !DISubprogram(name: "mask_more_specific", linkageName: "_ZNK9IPAddress18mask_more_specificES_", scope: !1057, file: !1058, line: 125, type: !1126, scopeLine: 125, flags: DIFlagPublic | DIFlagPrototyped, spFlags: DISPFlagOptimized)
!1129 = !DISubprogram(name: "operator&=", linkageName: "_ZN9IPAddressaNES_", scope: !1057, file: !1058, line: 137, type: !1130, scopeLine: 137, flags: DIFlagPublic | DIFlagPrototyped, spFlags: DISPFlagOptimized)
!1130 = !DISubroutineType(types: !1131)
!1131 = !{!1132, !1064, !1057}
!1132 = !DIDerivedType(tag: DW_TAG_reference_type, baseType: !1057, size: 64)
!1133 = !DISubprogram(name: "operator|=", linkageName: "_ZN9IPAddressoRES_", scope: !1057, file: !1058, line: 138, type: !1130, scopeLine: 138, flags: DIFlagPublic | DIFlagPrototyped, spFlags: DISPFlagOptimized)
!1134 = !DISubprogram(name: "operator^=", linkageName: "_ZN9IPAddresseOES_", scope: !1057, file: !1058, line: 139, type: !1130, scopeLine: 139, flags: DIFlagPublic | DIFlagPrototyped, spFlags: DISPFlagOptimized)
!1135 = !DISubprogram(name: "unparse", linkageName: "_ZNK9IPAddress7unparseEv", scope: !1057, file: !1058, line: 141, type: !1136, scopeLine: 141, flags: DIFlagPublic | DIFlagPrototyped, spFlags: DISPFlagOptimized)
!1136 = !DISubroutineType(types: !1137)
!1137 = !{!196, !1100}
!1138 = !DISubprogram(name: "unparse_mask", linkageName: "_ZNK9IPAddress12unparse_maskEv", scope: !1057, file: !1058, line: 142, type: !1136, scopeLine: 142, flags: DIFlagPublic | DIFlagPrototyped, spFlags: DISPFlagOptimized)
!1139 = !DISubprogram(name: "unparse_with_mask", linkageName: "_ZNK9IPAddress17unparse_with_maskES_", scope: !1057, file: !1058, line: 143, type: !1140, scopeLine: 143, flags: DIFlagPublic | DIFlagPrototyped, spFlags: DISPFlagOptimized)
!1140 = !DISubroutineType(types: !1141)
!1141 = !{!196, !1100, !1057}
!1142 = !DISubprogram(name: "s", linkageName: "_ZNK9IPAddress1sEv", scope: !1057, file: !1058, line: 145, type: !1136, scopeLine: 145, flags: DIFlagPublic | DIFlagPrototyped, spFlags: DISPFlagOptimized)
!1143 = !DISubprogram(name: "operator String", linkageName: "_ZNK9IPAddresscv6StringEv", scope: !1057, file: !1058, line: 146, type: !1136, scopeLine: 146, flags: DIFlagPublic | DIFlagPrototyped, spFlags: DISPFlagOptimized)
!1144 = !DISubprogram(name: "set_dst_ip_anno", linkageName: "_ZN6Packet15set_dst_ip_annoE9IPAddress", scope: !662, file: !661, line: 436, type: !1145, scopeLine: 436, flags: DIFlagPublic | DIFlagPrototyped, spFlags: DISPFlagOptimized)
!1145 = !DISubroutineType(types: !1146)
!1146 = !{null, !878, !1057}
!1147 = !DISubprogram(name: "anno", linkageName: "_ZN6Packet4annoEv", scope: !662, file: !661, line: 441, type: !908, scopeLine: 441, flags: DIFlagPublic | DIFlagPrototyped, spFlags: DISPFlagOptimized)
!1148 = !DISubprogram(name: "anno", linkageName: "_ZNK6Packet4annoEv", scope: !662, file: !661, line: 444, type: !1149, scopeLine: 444, flags: DIFlagPublic | DIFlagPrototyped, spFlags: DISPFlagOptimized)
!1149 = !DISubroutineType(types: !1150)
!1150 = !{!861, !882}
!1151 = !DISubprogram(name: "anno_u8", linkageName: "_ZN6Packet7anno_u8Ev", scope: !662, file: !661, line: 447, type: !1152, scopeLine: 447, flags: DIFlagPublic | DIFlagPrototyped, spFlags: DISPFlagOptimized)
!1152 = !DISubroutineType(types: !1153)
!1153 = !{!1154, !878}
!1154 = !DIDerivedType(tag: DW_TAG_pointer_type, baseType: !742, size: 64)
!1155 = !DISubprogram(name: "anno_u8", linkageName: "_ZNK6Packet7anno_u8Ev", scope: !662, file: !661, line: 450, type: !1156, scopeLine: 450, flags: DIFlagPublic | DIFlagPrototyped, spFlags: DISPFlagOptimized)
!1156 = !DISubroutineType(types: !1157)
!1157 = !{!1158, !882}
!1158 = !DIDerivedType(tag: DW_TAG_pointer_type, baseType: !1159, size: 64)
!1159 = !DIDerivedType(tag: DW_TAG_const_type, baseType: !742)
!1160 = !DISubprogram(name: "anno_u32", linkageName: "_ZN6Packet8anno_u32Ev", scope: !662, file: !661, line: 453, type: !1161, scopeLine: 453, flags: DIFlagPublic | DIFlagPrototyped, spFlags: DISPFlagOptimized)
!1161 = !DISubroutineType(types: !1162)
!1162 = !{!1163, !878}
!1163 = !DIDerivedType(tag: DW_TAG_pointer_type, baseType: !36, size: 64)
!1164 = !DISubprogram(name: "anno_u32", linkageName: "_ZNK6Packet8anno_u32Ev", scope: !662, file: !661, line: 456, type: !1165, scopeLine: 456, flags: DIFlagPublic | DIFlagPrototyped, spFlags: DISPFlagOptimized)
!1165 = !DISubroutineType(types: !1166)
!1166 = !{!1167, !882}
!1167 = !DIDerivedType(tag: DW_TAG_pointer_type, baseType: !1168, size: 64)
!1168 = !DIDerivedType(tag: DW_TAG_const_type, baseType: !36)
!1169 = !DISubprogram(name: "anno_u8", linkageName: "_ZNK6Packet7anno_u8Ei", scope: !662, file: !661, line: 460, type: !1170, scopeLine: 460, flags: DIFlagPublic | DIFlagPrototyped, spFlags: DISPFlagOptimized)
!1170 = !DISubroutineType(types: !1171)
!1171 = !{!742, !882, !42}
!1172 = !DISubprogram(name: "set_anno_u8", linkageName: "_ZN6Packet11set_anno_u8Eih", scope: !662, file: !661, line: 469, type: !1173, scopeLine: 469, flags: DIFlagPublic | DIFlagPrototyped, spFlags: DISPFlagOptimized)
!1173 = !DISubroutineType(types: !1174)
!1174 = !{null, !878, !42, !742}
!1175 = !DISubprogram(name: "anno_u16", linkageName: "_ZNK6Packet8anno_u16Ei", scope: !662, file: !661, line: 479, type: !1176, scopeLine: 479, flags: DIFlagPublic | DIFlagPrototyped, spFlags: DISPFlagOptimized)
!1176 = !DISubroutineType(types: !1177)
!1177 = !{!746, !882, !42}
!1178 = !DISubprogram(name: "set_anno_u16", linkageName: "_ZN6Packet12set_anno_u16Eit", scope: !662, file: !661, line: 494, type: !1179, scopeLine: 494, flags: DIFlagPublic | DIFlagPrototyped, spFlags: DISPFlagOptimized)
!1179 = !DISubroutineType(types: !1180)
!1180 = !{null, !878, !42, !746}
!1181 = !DISubprogram(name: "anno_s16", linkageName: "_ZNK6Packet8anno_s16Ei", scope: !662, file: !661, line: 507, type: !1182, scopeLine: 507, flags: DIFlagPublic | DIFlagPrototyped, spFlags: DISPFlagOptimized)
!1182 = !DISubroutineType(types: !1183)
!1183 = !{!1184, !882, !42}
!1184 = !DIDerivedType(tag: DW_TAG_typedef, name: "int16_t", file: !25, line: 25, baseType: !1185)
!1185 = !DIDerivedType(tag: DW_TAG_typedef, name: "__int16_t", file: !27, line: 39, baseType: !1186)
!1186 = !DIBasicType(name: "short", size: 16, encoding: DW_ATE_signed)
!1187 = !DISubprogram(name: "set_anno_s16", linkageName: "_ZN6Packet12set_anno_s16Eis", scope: !662, file: !661, line: 522, type: !1188, scopeLine: 522, flags: DIFlagPublic | DIFlagPrototyped, spFlags: DISPFlagOptimized)
!1188 = !DISubroutineType(types: !1189)
!1189 = !{null, !878, !42, !1184}
!1190 = !DISubprogram(name: "anno_u32", linkageName: "_ZNK6Packet8anno_u32Ei", scope: !662, file: !661, line: 535, type: !1191, scopeLine: 535, flags: DIFlagPublic | DIFlagPrototyped, spFlags: DISPFlagOptimized)
!1191 = !DISubroutineType(types: !1192)
!1192 = !{!36, !882, !42}
!1193 = !DISubprogram(name: "set_anno_u32", linkageName: "_ZN6Packet12set_anno_u32Eij", scope: !662, file: !661, line: 550, type: !1194, scopeLine: 550, flags: DIFlagPublic | DIFlagPrototyped, spFlags: DISPFlagOptimized)
!1194 = !DISubroutineType(types: !1195)
!1195 = !{null, !878, !42, !36}
!1196 = !DISubprogram(name: "anno_s32", linkageName: "_ZNK6Packet8anno_s32Ei", scope: !662, file: !661, line: 556, type: !1197, scopeLine: 556, flags: DIFlagPublic | DIFlagPrototyped, spFlags: DISPFlagOptimized)
!1197 = !DISubroutineType(types: !1198)
!1198 = !{!99, !882, !42}
!1199 = !DISubprogram(name: "set_anno_s32", linkageName: "_ZN6Packet12set_anno_s32Eii", scope: !662, file: !661, line: 571, type: !1200, scopeLine: 571, flags: DIFlagPublic | DIFlagPrototyped, spFlags: DISPFlagOptimized)
!1200 = !DISubroutineType(types: !1201)
!1201 = !{null, !878, !42, !99}
!1202 = !DISubprogram(name: "anno_u64", linkageName: "_ZNK6Packet8anno_u64Ei", scope: !662, file: !661, line: 585, type: !1203, scopeLine: 585, flags: DIFlagPublic | DIFlagPrototyped, spFlags: DISPFlagOptimized)
!1203 = !DISubroutineType(types: !1204)
!1204 = !{!323, !882, !42}
!1205 = !DISubprogram(name: "set_anno_u64", linkageName: "_ZN6Packet12set_anno_u64Eim", scope: !662, file: !661, line: 600, type: !1206, scopeLine: 600, flags: DIFlagPublic | DIFlagPrototyped, spFlags: DISPFlagOptimized)
!1206 = !DISubroutineType(types: !1207)
!1207 = !{null, !878, !42, !323}
!1208 = !DISubprogram(name: "anno_ptr", linkageName: "_ZNK6Packet8anno_ptrEi", scope: !662, file: !661, line: 614, type: !1209, scopeLine: 614, flags: DIFlagPublic | DIFlagPrototyped, spFlags: DISPFlagOptimized)
!1209 = !DISubroutineType(types: !1210)
!1210 = !{!574, !882, !42}
!1211 = !DISubprogram(name: "set_anno_ptr", linkageName: "_ZN6Packet12set_anno_ptrEiPKv", scope: !662, file: !661, line: 629, type: !1212, scopeLine: 629, flags: DIFlagPublic | DIFlagPrototyped, spFlags: DISPFlagOptimized)
!1212 = !DISubroutineType(types: !1213)
!1213 = !{null, !878, !42, !861}
!1214 = !DISubprogram(name: "data_packet", linkageName: "_ZN6Packet11data_packetEv", scope: !662, file: !661, line: 638, type: !884, scopeLine: 638, flags: DIFlagPublic | DIFlagPrototyped, spFlags: DISPFlagOptimized)
!1215 = !DISubprogram(name: "clear_annotations", linkageName: "_ZN6Packet17clear_annotationsEb", scope: !662, file: !661, line: 643, type: !1216, scopeLine: 643, flags: DIFlagPublic | DIFlagPrototyped, spFlags: DISPFlagOptimized)
!1216 = !DISubroutineType(types: !1217)
!1217 = !{null, !878, !106}
!1218 = !DISubprogram(name: "copy_annotations", linkageName: "_ZN6Packet16copy_annotationsEPKS_", scope: !662, file: !661, line: 644, type: !1219, scopeLine: 644, flags: DIFlagPublic | DIFlagPrototyped, spFlags: DISPFlagOptimized)
!1219 = !DISubroutineType(types: !1220)
!1220 = !{null, !878, !1221}
!1221 = !DIDerivedType(tag: DW_TAG_pointer_type, baseType: !850, size: 64)
!1222 = !DISubprogram(name: "buffer_data", linkageName: "_ZNK6Packet11buffer_dataEv", scope: !662, file: !661, line: 661, type: !890, scopeLine: 661, flags: DIFlagPublic | DIFlagPrototyped, spFlags: DISPFlagOptimized)
!1223 = !DISubprogram(name: "addr_anno", linkageName: "_ZN6Packet9addr_annoEv", scope: !662, file: !661, line: 662, type: !908, scopeLine: 662, flags: DIFlagPublic | DIFlagPrototyped, spFlags: DISPFlagOptimized)
!1224 = !DISubprogram(name: "addr_anno", linkageName: "_ZNK6Packet9addr_annoEv", scope: !662, file: !661, line: 663, type: !1149, scopeLine: 663, flags: DIFlagPublic | DIFlagPrototyped, spFlags: DISPFlagOptimized)
!1225 = !DISubprogram(name: "user_anno", linkageName: "_ZN6Packet9user_annoEv", scope: !662, file: !661, line: 664, type: !908, scopeLine: 664, flags: DIFlagPublic | DIFlagPrototyped, spFlags: DISPFlagOptimized)
!1226 = !DISubprogram(name: "user_anno", linkageName: "_ZNK6Packet9user_annoEv", scope: !662, file: !661, line: 665, type: !1149, scopeLine: 665, flags: DIFlagPublic | DIFlagPrototyped, spFlags: DISPFlagOptimized)
!1227 = !DISubprogram(name: "user_anno_u8", linkageName: "_ZN6Packet12user_anno_u8Ev", scope: !662, file: !661, line: 666, type: !1152, scopeLine: 666, flags: DIFlagPublic | DIFlagPrototyped, spFlags: DISPFlagOptimized)
!1228 = !DISubprogram(name: "user_anno_u8", linkageName: "_ZNK6Packet12user_anno_u8Ev", scope: !662, file: !661, line: 667, type: !1156, scopeLine: 667, flags: DIFlagPublic | DIFlagPrototyped, spFlags: DISPFlagOptimized)
!1229 = !DISubprogram(name: "user_anno_u32", linkageName: "_ZN6Packet13user_anno_u32Ev", scope: !662, file: !661, line: 668, type: !1161, scopeLine: 668, flags: DIFlagPublic | DIFlagPrototyped, spFlags: DISPFlagOptimized)
!1230 = !DISubprogram(name: "user_anno_u32", linkageName: "_ZNK6Packet13user_anno_u32Ev", scope: !662, file: !661, line: 669, type: !1165, scopeLine: 669, flags: DIFlagPublic | DIFlagPrototyped, spFlags: DISPFlagOptimized)
!1231 = !DISubprogram(name: "user_anno_u8", linkageName: "_ZNK6Packet12user_anno_u8Ei", scope: !662, file: !661, line: 670, type: !1170, scopeLine: 670, flags: DIFlagPublic | DIFlagPrototyped, spFlags: DISPFlagOptimized)
!1232 = !DISubprogram(name: "set_user_anno_u8", linkageName: "_ZN6Packet16set_user_anno_u8Eih", scope: !662, file: !661, line: 671, type: !1173, scopeLine: 671, flags: DIFlagPublic | DIFlagPrototyped, spFlags: DISPFlagOptimized)
!1233 = !DISubprogram(name: "user_anno_u16", linkageName: "_ZNK6Packet13user_anno_u16Ei", scope: !662, file: !661, line: 672, type: !1176, scopeLine: 672, flags: DIFlagPublic | DIFlagPrototyped, spFlags: DISPFlagOptimized)
!1234 = !DISubprogram(name: "set_user_anno_u16", linkageName: "_ZN6Packet17set_user_anno_u16Eit", scope: !662, file: !661, line: 673, type: !1179, scopeLine: 673, flags: DIFlagPublic | DIFlagPrototyped, spFlags: DISPFlagOptimized)
!1235 = !DISubprogram(name: "user_anno_u32", linkageName: "_ZNK6Packet13user_anno_u32Ei", scope: !662, file: !661, line: 674, type: !1191, scopeLine: 674, flags: DIFlagPublic | DIFlagPrototyped, spFlags: DISPFlagOptimized)
!1236 = !DISubprogram(name: "set_user_anno_u32", linkageName: "_ZN6Packet17set_user_anno_u32Eij", scope: !662, file: !661, line: 675, type: !1194, scopeLine: 675, flags: DIFlagPublic | DIFlagPrototyped, spFlags: DISPFlagOptimized)
!1237 = !DISubprogram(name: "user_anno_s32", linkageName: "_ZNK6Packet13user_anno_s32Ei", scope: !662, file: !661, line: 676, type: !1197, scopeLine: 676, flags: DIFlagPublic | DIFlagPrototyped, spFlags: DISPFlagOptimized)
!1238 = !DISubprogram(name: "set_user_anno_s32", linkageName: "_ZN6Packet17set_user_anno_s32Eii", scope: !662, file: !661, line: 677, type: !1200, scopeLine: 677, flags: DIFlagPublic | DIFlagPrototyped, spFlags: DISPFlagOptimized)
!1239 = !DISubprogram(name: "user_anno_u64", linkageName: "_ZNK6Packet13user_anno_u64Ei", scope: !662, file: !661, line: 679, type: !1203, scopeLine: 679, flags: DIFlagPublic | DIFlagPrototyped, spFlags: DISPFlagOptimized)
!1240 = !DISubprogram(name: "set_user_anno_u64", linkageName: "_ZN6Packet17set_user_anno_u64Eim", scope: !662, file: !661, line: 680, type: !1206, scopeLine: 680, flags: DIFlagPublic | DIFlagPrototyped, spFlags: DISPFlagOptimized)
!1241 = !DISubprogram(name: "all_user_anno", linkageName: "_ZNK6Packet13all_user_annoEv", scope: !662, file: !661, line: 682, type: !1156, scopeLine: 682, flags: DIFlagPublic | DIFlagPrototyped, spFlags: DISPFlagOptimized)
!1242 = !DISubprogram(name: "all_user_anno", linkageName: "_ZN6Packet13all_user_annoEv", scope: !662, file: !661, line: 683, type: !1152, scopeLine: 683, flags: DIFlagPublic | DIFlagPrototyped, spFlags: DISPFlagOptimized)
!1243 = !DISubprogram(name: "all_user_anno_u", linkageName: "_ZNK6Packet15all_user_anno_uEv", scope: !662, file: !661, line: 684, type: !1165, scopeLine: 684, flags: DIFlagPublic | DIFlagPrototyped, spFlags: DISPFlagOptimized)
!1244 = !DISubprogram(name: "all_user_anno_u", linkageName: "_ZN6Packet15all_user_anno_uEv", scope: !662, file: !661, line: 685, type: !1161, scopeLine: 685, flags: DIFlagPublic | DIFlagPrototyped, spFlags: DISPFlagOptimized)
!1245 = !DISubprogram(name: "user_anno_c", linkageName: "_ZNK6Packet11user_anno_cEi", scope: !662, file: !661, line: 686, type: !1170, scopeLine: 686, flags: DIFlagPublic | DIFlagPrototyped, spFlags: DISPFlagOptimized)
!1246 = !DISubprogram(name: "set_user_anno_c", linkageName: "_ZN6Packet15set_user_anno_cEih", scope: !662, file: !661, line: 687, type: !1173, scopeLine: 687, flags: DIFlagPublic | DIFlagPrototyped, spFlags: DISPFlagOptimized)
!1247 = !DISubprogram(name: "user_anno_s", linkageName: "_ZNK6Packet11user_anno_sEi", scope: !662, file: !661, line: 688, type: !1182, scopeLine: 688, flags: DIFlagPublic | DIFlagPrototyped, spFlags: DISPFlagOptimized)
!1248 = !DISubprogram(name: "set_user_anno_s", linkageName: "_ZN6Packet15set_user_anno_sEis", scope: !662, file: !661, line: 689, type: !1188, scopeLine: 689, flags: DIFlagPublic | DIFlagPrototyped, spFlags: DISPFlagOptimized)
!1249 = !DISubprogram(name: "user_anno_us", linkageName: "_ZNK6Packet12user_anno_usEi", scope: !662, file: !661, line: 690, type: !1176, scopeLine: 690, flags: DIFlagPublic | DIFlagPrototyped, spFlags: DISPFlagOptimized)
!1250 = !DISubprogram(name: "set_user_anno_us", linkageName: "_ZN6Packet16set_user_anno_usEit", scope: !662, file: !661, line: 691, type: !1179, scopeLine: 691, flags: DIFlagPublic | DIFlagPrototyped, spFlags: DISPFlagOptimized)
!1251 = !DISubprogram(name: "user_anno_i", linkageName: "_ZNK6Packet11user_anno_iEi", scope: !662, file: !661, line: 692, type: !1197, scopeLine: 692, flags: DIFlagPublic | DIFlagPrototyped, spFlags: DISPFlagOptimized)
!1252 = !DISubprogram(name: "set_user_anno_i", linkageName: "_ZN6Packet15set_user_anno_iEii", scope: !662, file: !661, line: 693, type: !1200, scopeLine: 693, flags: DIFlagPublic | DIFlagPrototyped, spFlags: DISPFlagOptimized)
!1253 = !DISubprogram(name: "user_anno_u", linkageName: "_ZNK6Packet11user_anno_uEi", scope: !662, file: !661, line: 694, type: !1191, scopeLine: 694, flags: DIFlagPublic | DIFlagPrototyped, spFlags: DISPFlagOptimized)
!1254 = !DISubprogram(name: "set_user_anno_u", linkageName: "_ZN6Packet15set_user_anno_uEij", scope: !662, file: !661, line: 695, type: !1194, scopeLine: 695, flags: DIFlagPublic | DIFlagPrototyped, spFlags: DISPFlagOptimized)
!1255 = !DISubprogram(name: "Packet", scope: !662, file: !661, line: 751, type: !876, scopeLine: 751, flags: DIFlagPrototyped, spFlags: DISPFlagOptimized)
!1256 = !DISubprogram(name: "Packet", scope: !662, file: !661, line: 756, type: !1257, scopeLine: 756, flags: DIFlagPrototyped, spFlags: DISPFlagOptimized)
!1257 = !DISubroutineType(types: !1258)
!1258 = !{null, !878, !849}
!1259 = !DISubprogram(name: "~Packet", scope: !662, file: !661, line: 757, type: !876, scopeLine: 757, flags: DIFlagPrototyped, spFlags: DISPFlagOptimized)
!1260 = !DISubprogram(name: "operator=", linkageName: "_ZN6PacketaSERKS_", scope: !662, file: !661, line: 758, type: !1261, scopeLine: 758, flags: DIFlagPrototyped, spFlags: DISPFlagOptimized)
!1261 = !DISubroutineType(types: !1262)
!1262 = !{!1263, !878, !849}
!1263 = !DIDerivedType(tag: DW_TAG_reference_type, baseType: !662, size: 64)
!1264 = !DISubprogram(name: "alloc_data", linkageName: "_ZN6Packet10alloc_dataEjjj", scope: !662, file: !661, line: 761, type: !1265, scopeLine: 761, flags: DIFlagPrototyped, spFlags: DISPFlagOptimized)
!1265 = !DISubroutineType(types: !1266)
!1266 = !{!106, !878, !36, !36, !36}
!1267 = !DISubprogram(name: "shift_header_annotations", linkageName: "_ZN6Packet24shift_header_annotationsEPKhi", scope: !662, file: !661, line: 768, type: !1268, scopeLine: 768, flags: DIFlagPrototyped, spFlags: DISPFlagOptimized)
!1268 = !DISubroutineType(types: !1269)
!1269 = !{null, !878, !257, !99}
!1270 = !DISubprogram(name: "expensive_uniqueify", linkageName: "_ZN6Packet19expensive_uniqueifyEiib", scope: !662, file: !661, line: 769, type: !1271, scopeLine: 769, flags: DIFlagPrototyped, spFlags: DISPFlagOptimized)
!1271 = !DISubroutineType(types: !1272)
!1272 = !{!777, !878, !99, !99, !106}
!1273 = !DISubprogram(name: "expensive_push", linkageName: "_ZN6Packet14expensive_pushEj", scope: !662, file: !661, line: 770, type: !912, scopeLine: 770, flags: DIFlagPrototyped, spFlags: DISPFlagOptimized)
!1274 = !DISubprogram(name: "expensive_put", linkageName: "_ZN6Packet13expensive_putEj", scope: !662, file: !661, line: 771, type: !912, scopeLine: 771, flags: DIFlagPrototyped, spFlags: DISPFlagOptimized)
!1275 = !{!1276, !1277, !1278, !1279, !1280, !1281, !1282}
!1276 = !DIEnumerator(name: "HOST", value: 0, isUnsigned: true)
!1277 = !DIEnumerator(name: "BROADCAST", value: 1, isUnsigned: true)
!1278 = !DIEnumerator(name: "MULTICAST", value: 2, isUnsigned: true)
!1279 = !DIEnumerator(name: "OTHERHOST", value: 3, isUnsigned: true)
!1280 = !DIEnumerator(name: "OUTGOING", value: 4, isUnsigned: true)
!1281 = !DIEnumerator(name: "LOOPBACK", value: 5, isUnsigned: true)
!1282 = !DIEnumerator(name: "FASTROUTE", value: 6, isUnsigned: true)
!1283 = !DICompositeType(tag: DW_TAG_enumeration_type, scope: !18, file: !17, line: 142, baseType: !6, size: 32, elements: !1284, identifier: "_ZTSN9TimestampUt0_E")
!1284 = !{!1285, !1286, !1287, !1288, !1289, !1290, !1291, !1292, !1293}
!1285 = !DIEnumerator(name: "nsec_per_sec", value: 1000000000, isUnsigned: true)
!1286 = !DIEnumerator(name: "nsec_per_msec", value: 1000000, isUnsigned: true)
!1287 = !DIEnumerator(name: "nsec_per_usec", value: 1000, isUnsigned: true)
!1288 = !DIEnumerator(name: "usec_per_sec", value: 1000000, isUnsigned: true)
!1289 = !DIEnumerator(name: "usec_per_msec", value: 1000, isUnsigned: true)
!1290 = !DIEnumerator(name: "msec_per_sec", value: 1000, isUnsigned: true)
!1291 = !DIEnumerator(name: "subsec_per_sec", value: 1000000000, isUnsigned: true)
!1292 = !DIEnumerator(name: "subsec_per_msec", value: 1000000, isUnsigned: true)
!1293 = !DIEnumerator(name: "subsec_per_usec", value: 1000, isUnsigned: true)
!1294 = !DICompositeType(tag: DW_TAG_enumeration_type, scope: !1296, file: !1295, line: 62, baseType: !6, size: 32, elements: !1368, identifier: "_ZTSN14NotifierSignalUt_E")
!1295 = !DIFile(filename: "../dummy_inc/click/notifier.hh", directory: "/home/john/projects/click/ir-dir")
!1296 = distinct !DICompositeType(tag: DW_TAG_class_type, name: "NotifierSignal", file: !1295, line: 12, size: 128, flags: DIFlagTypePassByReference | DIFlagNonTrivial, elements: !1297, identifier: "_ZTS14NotifierSignal")
!1297 = !{!1298, !1309, !1310, !1311, !1315, !1318, !1323, !1324, !1327, !1328, !1329, !1330, !1334, !1339, !1342, !1343, !1344, !1345, !1346, !1350, !1351, !1354, !1360, !1361, !1362, !1363}
!1298 = !DIDerivedType(tag: DW_TAG_member, name: "_v", scope: !1296, file: !1295, line: 59, baseType: !1299, size: 64)
!1299 = distinct !DICompositeType(tag: DW_TAG_union_type, name: "vmvalue", scope: !1296, file: !1295, line: 54, size: 64, flags: DIFlagTypePassByValue, elements: !1300, identifier: "_ZTSN14NotifierSignal7vmvalueE")
!1300 = !{!1301, !1303}
!1301 = !DIDerivedType(tag: DW_TAG_member, name: "v1", scope: !1299, file: !1295, line: 55, baseType: !1302, size: 64)
!1302 = !DIDerivedType(tag: DW_TAG_pointer_type, baseType: !665, size: 64)
!1303 = !DIDerivedType(tag: DW_TAG_member, name: "vm", scope: !1299, file: !1295, line: 56, baseType: !1304, size: 64)
!1304 = !DIDerivedType(tag: DW_TAG_pointer_type, baseType: !1305, size: 64)
!1305 = distinct !DICompositeType(tag: DW_TAG_structure_type, name: "vmpair", scope: !1296, file: !1295, line: 50, size: 128, flags: DIFlagTypePassByValue, elements: !1306, identifier: "_ZTSN14NotifierSignal6vmpairE")
!1306 = !{!1307, !1308}
!1307 = !DIDerivedType(tag: DW_TAG_member, name: "value", scope: !1305, file: !1295, line: 51, baseType: !1302, size: 64)
!1308 = !DIDerivedType(tag: DW_TAG_member, name: "mask", scope: !1305, file: !1295, line: 52, baseType: !36, size: 32, offset: 64)
!1309 = !DIDerivedType(tag: DW_TAG_member, name: "_mask", scope: !1296, file: !1295, line: 60, baseType: !36, size: 32, offset: 64)
!1310 = !DIDerivedType(tag: DW_TAG_member, name: "static_value", scope: !1296, file: !1295, line: 66, baseType: !665, flags: DIFlagStaticMember)
