; ModuleID = '../elements/standard/drivermanager.cc'
source_filename = "../elements/standard/drivermanager.cc"
target datalayout = "e-m:e-p270:32:32-p271:32:32-p272:64:64-i64:64-f80:128-n8:16:32:64-S128"
target triple = "x86_64-pc-linux-gnu"

%class.DriverManager = type { %class.Script }
%class.Script = type { %class.Element.base, %class.Vector.5, %class.Vector.5, %class.Vector.5, %class.Vector.0, %class.Vector.0, %class.String, %class.String, i32, i32, i32, i32, i32, %class.Vector.5, %class.Timer, i32* }
%class.Element.base = type <{ i32 (...)**, [2 x %"class.Element::Port"*], [4 x %"class.Element::Port"], [2 x i32], %class.Router*, i32 }>
%"class.Element::Port" = type <{ %class.Element*, i32, [4 x i8] }>
%class.Element = type <{ i32 (...)**, [2 x %"class.Element::Port"*], [4 x %"class.Element::Port"], [2 x i32], %class.Router*, i32, [4 x i8] }>
%class.Router = type { %class.Master*, %class.atomic_uint32_t, i32, i8, i32, %class.atomic_uint32_t, %class.Vector, %class.Vector.0, %class.Vector.0, %class.Vector.2, %class.Vector.5, %class.Vector.6, i32, %class.Vector.5, [2 x %class.Vector.5], %class.Vector.5, %class.Vector.8, %class.Vector.5, %class.Vector.0, %class.Vector.5, %class.Vector.5, %class.Vector.5, %class.Vector.5, %class.Handler**, i32, i32, %class.Vector.0, %class.Vector.12, %class.Element*, %class.String, %"struct.Router::notifier_signals_t"*, %class.HashMap_ArenaFactory*, %class.Router*, %class.ThreadSched*, %class.NameInfo*, %class.Vector.5, %class.Vector.0, %class.Router* }
%class.Master = type opaque
%class.atomic_uint32_t = type { i32 }
%class.Vector = type { %class.vector_memory }
%class.vector_memory = type { %struct.char_array*, i32, i32 }
%struct.char_array = type opaque
%class.Vector.2 = type { %class.vector_memory.3 }
%class.vector_memory.3 = type { %struct.char_array.4*, i32, i32 }
%struct.char_array.4 = type { [4 x i8] }
%class.Vector.6 = type { %class.vector_memory.7 }
%class.vector_memory.7 = type { %"struct.Router::element_landmark_t"*, i32, i32 }
%"struct.Router::element_landmark_t" = type { i32, %class.String }
%class.Vector.8 = type { %class.vector_memory.9 }
%class.vector_memory.9 = type { %struct.char_array.10*, i32, i32 }
%struct.char_array.10 = type { [16 x i8] }
%class.Handler = type <{ %class.String, %union.anon, %union.anon.11, i8*, i8*, i32, i32, i32, [4 x i8] }>
%union.anon = type { i32 (i32, %class.String*, %class.Element*, %class.Handler*, %class.ErrorHandler*)* }
%class.ErrorHandler = type <{ i32 (...)**, i32, [4 x i8] }>
%union.anon.11 = type { i32 (i32, %class.String*, %class.Element*, %class.Handler*, %class.ErrorHandler*)* }
%class.Vector.12 = type { %class.vector_memory }
%"struct.Router::notifier_signals_t" = type { %class.String, i32, [128 x %class.atomic_uint32_t], %"struct.Router::notifier_signals_t"* }
%class.HashMap_ArenaFactory = type opaque
%class.ThreadSched = type { i32 (...)** }
%class.NameInfo = type opaque
%class.Vector.0 = type { %class.vector_memory.1 }
%class.vector_memory.1 = type { %class.String*, i32, i32 }
%class.String = type { %"struct.String::rep_t" }
%"struct.String::rep_t" = type { i8*, i32, %"struct.String::memo_t"* }
%"struct.String::memo_t" = type { i32, i32, i32, [8 x i8] }
%class.Vector.5 = type { %class.vector_memory.3 }
%class.Timer = type { i32, %class.Timestamp, %union.anon.13, i8*, %class.Element*, %class.RouterThread* }
%class.Timestamp = type { %"union.Timestamp::rep_t" }
%"union.Timestamp::rep_t" = type { i64 }
%union.anon.13 = type { void (%class.Timer*, i8*)* }
%class.RouterThread = type { %struct.TaskLink, i8, [7 x i8], %class.TimerSet, %class.SelectSet, [32 x i8], %class.Spinlock, %class.atomic_uint32_t, %class.atomic_uint32_t, %"union.Task::Pending", %"union.Task::Pending"*, %class.SpinlockIRQ, [31 x i8], %class.Master*, i32, i8, i32, i32, [40 x i8] }
%struct.TaskLink = type <{ %struct.TaskLink*, %struct.TaskLink*, i32, [4 x i8] }>
%class.TimerSet = type <{ %class.Timestamp, i32, i32, i32, [4 x i8], %class.Vector.14, %class.Vector.15, %class.SimpleSpinlock, [7 x i8], %class.Timestamp, i32, [4 x i8] }>
%class.Vector.14 = type { %class.vector_memory.9 }
%class.Vector.15 = type { %class.vector_memory }
%class.SimpleSpinlock = type { i8 }
%class.SelectSet = type { [2 x i32], i8, %class.Vector.16, %class.Vector.17 }
%class.Vector.16 = type { %class.vector_memory }
%class.Vector.17 = type { %class.vector_memory.18 }
%class.vector_memory.18 = type { %struct.char_array.19*, i32, i32 }
%struct.char_array.19 = type opaque
%class.Spinlock = type { i8 }
%"union.Task::Pending" = type { %class.Task* }
%class.Task = type { %struct.TaskLink.base, i32, i32, %"union.Task::Status", i1 (%class.Task*, i8*)*, i8*, %class.RouterThread*, %class.Element*, %"union.Task::Pending" }
%struct.TaskLink.base = type <{ %struct.TaskLink*, %struct.TaskLink*, i32 }>
%"union.Task::Status" = type { i32 }
%class.SpinlockIRQ = type { i8 }
%class.Packet = type { %class.atomic_uint32_t, %class.Packet*, i8*, i8*, i8*, i8*, %"struct.Packet::AllAnno", void (i8*, i64, i8*)*, i8* }
%"struct.Packet::AllAnno" = type { %"union.Packet::Anno", i8*, i8*, i8*, i32, [8 x i8], %class.Packet*, %class.Packet* }
%"union.Packet::Anno" = type { [6 x i64] }

$_ZN6ScriptD2Ev = comdat any

$_ZN13DriverManagerD0Ev = comdat any

$_ZNK13DriverManager10class_nameEv = comdat any

$_ZNK6Script10port_countEv = comdat any

$_ZNK6Script10processingEv = comdat any

$__clang_call_terminate = comdat any

$_ZTV13DriverManager = comdat any

$_ZTS13DriverManager = comdat any

$_ZTI13DriverManager = comdat any

@_ZTV13DriverManager = linkonce_odr dso_local unnamed_addr constant { [29 x i8*] } { [29 x i8*] [i8* null, i8* bitcast ({ i8*, i8*, i8* }* @_ZTI13DriverManager to i8*), i8* bitcast (void (%class.Script*)* @_ZN6ScriptD2Ev to i8*), i8* bitcast (void (%class.DriverManager*)* @_ZN13DriverManagerD0Ev to i8*), i8* bitcast (void (%class.Script*, i32, %class.Packet*)* @_ZN6Script4pushEiP6Packet to i8*), i8* bitcast (%class.Packet* (%class.Script*, i32)* @_ZN6Script4pullEi to i8*), i8* bitcast (%class.Packet* (%class.Element*, %class.Packet*)* @_ZN7Element13simple_actionEP6Packet to i8*), i8* bitcast (i1 (%class.Element*, %class.Task*)* @_ZN7Element8run_taskEP4Task to i8*), i8* bitcast (void (%class.Script*, %class.Timer*)* @_ZN6Script9run_timerEP5Timer to i8*), i8* bitcast (void (%class.Element*, i32, i32)* @_ZN7Element8selectedEii to i8*), i8* bitcast (void (%class.Element*, i32)* @_ZN7Element8selectedEi to i8*), i8* bitcast (i8* (%class.DriverManager*)* @_ZNK13DriverManager10class_nameEv to i8*), i8* bitcast (i8* (%class.Script*)* @_ZNK6Script10port_countEv to i8*), i8* bitcast (i8* (%class.Script*)* @_ZNK6Script10processingEv to i8*), i8* bitcast (i8* (%class.Element*)* @_ZNK7Element9flow_codeEv to i8*), i8* bitcast (i8* (%class.Element*)* @_ZNK7Element5flagsEv to i8*), i8* bitcast (i8* (%class.Element*, i8*)* @_ZN7Element4castEPKc to i8*), i8* bitcast (i8* (%class.Element*, i1, i32, i8*)* @_ZN7Element9port_castEbiPKc to i8*), i8* bitcast (i32 (%class.Element*)* @_ZNK7Element15configure_phaseEv to i8*), i8* bitcast (i32 (%class.Script*, %class.Vector.0*, %class.ErrorHandler*)* @_ZN6Script9configureER6VectorI6StringEP12ErrorHandler to i8*), i8* bitcast (void (%class.Script*)* @_ZN6Script12add_handlersEv to i8*), i8* bitcast (i32 (%class.Script*, %class.ErrorHandler*)* @_ZN6Script10initializeEP12ErrorHandler to i8*), i8* bitcast (void (%class.Element*, %class.Element*, %class.ErrorHandler*)* @_ZN7Element10take_stateEPS_P12ErrorHandler to i8*), i8* bitcast (%class.Element* (%class.Element*)* @_ZNK7Element15hotswap_elementEv to i8*), i8* bitcast (void (%class.Element*, i32)* @_ZN7Element7cleanupENS_12CleanupStageE to i8*), i8* bitcast (void (%class.String*, %class.Element*)* @_ZNK7Element11declarationEv to i8*), i8* bitcast (i1 (%class.Element*)* @_ZNK7Element20can_live_reconfigureEv to i8*), i8* bitcast (i32 (%class.Element*, %class.Vector.0*, %class.ErrorHandler*)* @_ZN7Element16live_reconfigureER6VectorI6StringEP12ErrorHandler to i8*), i8* bitcast (i32 (%class.Element*, i32, i8*)* @_ZN7Element5llrpcEjPv to i8*)] }, comdat, align 8
@_ZTVN10__cxxabiv120__si_class_type_infoE = external global i8*
@_ZTS13DriverManager = linkonce_odr dso_local constant [16 x i8] c"13DriverManager\00", comdat, align 1
@_ZTI6Script = external constant i8*
@_ZTI13DriverManager = linkonce_odr dso_local constant { i8*, i8*, i8* } { i8* bitcast (i8** getelementptr inbounds (i8*, i8** @_ZTVN10__cxxabiv120__si_class_type_infoE, i64 2) to i8*), i8* getelementptr inbounds ([16 x i8], [16 x i8]* @_ZTS13DriverManager, i32 0, i32 0), i8* bitcast (i8** @_ZTI6Script to i8*) }, comdat, align 8
@_ZTV6Script = external unnamed_addr constant { [29 x i8*] }, align 8
@.str = private unnamed_addr constant [18 x i8] c"_r.memo->refcount\00", align 1
@.str.1 = private unnamed_addr constant [29 x i8] c"../dummy_inc/click/string.hh\00", align 1
@__PRETTY_FUNCTION__._ZNK6String5derefEv = private unnamed_addr constant [27 x i8] c"void String::deref() const\00", align 1
@.str.2 = private unnamed_addr constant [14 x i8] c"DriverManager\00", align 1
@.str.3 = private unnamed_addr constant [4 x i8] c"-/-\00", align 1
@.str.4 = private unnamed_addr constant [6 x i8] c"ah/ah\00", align 1

@_ZN13DriverManagerC1Ev = dso_local unnamed_addr alias void (%class.DriverManager*), void (%class.DriverManager*)* @_ZN13DriverManagerC2Ev

; Function Attrs: sspstrong uwtable
define dso_local void @_ZN13DriverManagerC2Ev(%class.DriverManager* %0) unnamed_addr #0 align 2 !dbg !1188 {
  call void @llvm.dbg.value(metadata %class.DriverManager* %0, metadata !1205, metadata !DIExpression()), !dbg !1207
  %2 = getelementptr %class.DriverManager, %class.DriverManager* %0, i64 0, i32 0, !dbg !1208
  tail call void @_ZN6ScriptC2Ev(%class.Script* %2), !dbg !1209
  %3 = getelementptr %class.DriverManager, %class.DriverManager* %0, i64 0, i32 0, i32 0, i32 0, !dbg !1208
  store i32 (...)** bitcast (i8** getelementptr inbounds ({ [29 x i8*] }, { [29 x i8*] }* @_ZTV13DriverManager, i64 0, inrange i32 0, i64 2) to i32 (...)**), i32 (...)*** %3, align 8, !dbg !1208, !tbaa !1210
  %4 = getelementptr inbounds %class.DriverManager, %class.DriverManager* %0, i64 0, i32 0, i32 11, !dbg !1213
  store i32 1, i32* %4, align 4, !dbg !1215, !tbaa !1216
  ret void, !dbg !1229
}

declare void @_ZN6ScriptC2Ev(%class.Script*) unnamed_addr #1

; Function Attrs: inlinehint nounwind sspstrong uwtable
define linkonce_odr dso_local void @_ZN6ScriptD2Ev(%class.Script* %0) unnamed_addr #2 comdat align 2 personality i32 (...)* @__gxx_personality_v0 !dbg !1230 {
  call void @llvm.dbg.value(metadata %class.Script* %0, metadata !1236, metadata !DIExpression()), !dbg !1238
  %2 = getelementptr %class.Script, %class.Script* %0, i64 0, i32 0, i32 0, !dbg !1239
  store i32 (...)** bitcast (i8** getelementptr inbounds ({ [29 x i8*] }, { [29 x i8*] }* @_ZTV6Script, i64 0, inrange i32 0, i64 2) to i32 (...)**), i32 (...)*** %2, align 8, !dbg !1239, !tbaa !1210
  %3 = getelementptr inbounds %class.Script, %class.Script* %0, i64 0, i32 14, !dbg !1240
  call void @llvm.dbg.value(metadata %class.Timer* %3, metadata !1242, metadata !DIExpression()) #9, !dbg !4091
  call void @llvm.dbg.value(metadata %class.Timer* %3, metadata !4093, metadata !DIExpression()) #9, !dbg !4097
  %4 = getelementptr inbounds %class.Timer, %class.Timer* %3, i64 0, i32 0, !dbg !4101
  %5 = load i32, i32* %4, align 8, !dbg !4101, !tbaa !4102
  %6 = icmp eq i32 %5, 0, !dbg !4103
  br i1 %6, label %11, label %7, !dbg !4104

7:                                                ; preds = %1
  invoke void @_ZN5Timer10unscheduleEv(%class.Timer* nonnull %3)
          to label %11 unwind label %8, !dbg !4105

8:                                                ; preds = %7
  %9 = landingpad { i8*, i32 }
          catch i8* null, !dbg !4106
  %10 = extractvalue { i8*, i32 } %9, 0, !dbg !4106
  tail call void @__clang_call_terminate(i8* %10) #10, !dbg !4106
  unreachable, !dbg !4106

11:                                               ; preds = %1, %7
  %12 = getelementptr inbounds %class.Script, %class.Script* %0, i64 0, i32 13, !dbg !1240
  call void @llvm.dbg.value(metadata %class.Vector.5* %12, metadata !4107, metadata !DIExpression()) #9, !dbg !4112
  call void @llvm.dbg.value(metadata %class.Vector.5* %12, metadata !4114, metadata !DIExpression()) #9, !dbg !4119
  %13 = bitcast %class.Vector.5* %12 to i8**, !dbg !4122
  %14 = load i8*, i8** %13, align 8, !dbg !4124, !tbaa !4125
  %15 = icmp eq i8* %14, null, !dbg !4124
  br i1 %15, label %17, label %16, !dbg !4124

16:                                               ; preds = %11
  tail call void @_ZdaPv(i8* nonnull %14) #11, !dbg !4124
  br label %17, !dbg !4124

17:                                               ; preds = %11, %16
  call void @llvm.dbg.value(metadata %class.Script* %0, metadata !4126, metadata !DIExpression(DW_OP_plus_uconst, 216, DW_OP_stack_value)) #9, !dbg !4129
  call void @llvm.dbg.value(metadata %class.Script* %0, metadata !4131, metadata !DIExpression(DW_OP_plus_uconst, 216, DW_OP_stack_value)) #9, !dbg !4134
  %18 = getelementptr inbounds %class.Script, %class.Script* %0, i64 0, i32 7, i32 0, i32 2, !dbg !4137
  %19 = load %"struct.String::memo_t"*, %"struct.String::memo_t"** %18, align 8, !dbg !4137, !tbaa !4139
  %20 = icmp eq %"struct.String::memo_t"* %19, null, !dbg !4140
  br i1 %20, label %35, label %21, !dbg !4141

21:                                               ; preds = %17
  %22 = getelementptr inbounds %"struct.String::memo_t", %"struct.String::memo_t"* %19, i64 0, i32 0, !dbg !4142
  %23 = load volatile i32, i32* %22, align 4, !dbg !4142, !tbaa !4144
  %24 = icmp eq i32 %23, 0, !dbg !4142
  br i1 %24, label %25, label %26, !dbg !4142

25:                                               ; preds = %21
  tail call void @__assert_fail(i8* getelementptr inbounds ([18 x i8], [18 x i8]* @.str, i64 0, i64 0), i8* getelementptr inbounds ([29 x i8], [29 x i8]* @.str.1, i64 0, i64 0), i32 273, i8* getelementptr inbounds ([27 x i8], [27 x i8]* @__PRETTY_FUNCTION__._ZNK6String5derefEv, i64 0, i64 0)) #10, !dbg !4142
  unreachable, !dbg !4142

26:                                               ; preds = %21
  call void @llvm.dbg.value(metadata i32* %22, metadata !4146, metadata !DIExpression()) #9, !dbg !4149
  %27 = load volatile i32, i32* %22, align 4, !dbg !4152, !tbaa !4153
  %28 = add i32 %27, -1, !dbg !4152
  store volatile i32 %28, i32* %22, align 4, !dbg !4152, !tbaa !4153
  %29 = icmp eq i32 %28, 0, !dbg !4154
  br i1 %29, label %30, label %31, !dbg !4155

30:                                               ; preds = %26
  invoke void @_ZN6String11delete_memoEPNS_6memo_tE(%"struct.String::memo_t"* nonnull %19)
          to label %31 unwind label %32, !dbg !4156

31:                                               ; preds = %30, %26
  store %"struct.String::memo_t"* null, %"struct.String::memo_t"** %18, align 8, !dbg !4157, !tbaa !4139
  br label %35, !dbg !4158

32:                                               ; preds = %30
  %33 = landingpad { i8*, i32 }
          catch i8* null, !dbg !4159
  %34 = extractvalue { i8*, i32 } %33, 0, !dbg !4159
  tail call void @__clang_call_terminate(i8* %34) #10, !dbg !4159
  unreachable, !dbg !4159

35:                                               ; preds = %17, %31
  call void @llvm.dbg.value(metadata %class.Script* %0, metadata !4126, metadata !DIExpression(DW_OP_plus_uconst, 192, DW_OP_stack_value)) #9, !dbg !4160
  call void @llvm.dbg.value(metadata %class.Script* %0, metadata !4131, metadata !DIExpression(DW_OP_plus_uconst, 192, DW_OP_stack_value)) #9, !dbg !4162
  %36 = getelementptr inbounds %class.Script, %class.Script* %0, i64 0, i32 6, i32 0, i32 2, !dbg !4164
  %37 = load %"struct.String::memo_t"*, %"struct.String::memo_t"** %36, align 8, !dbg !4164, !tbaa !4139
  %38 = icmp eq %"struct.String::memo_t"* %37, null, !dbg !4165
  br i1 %38, label %53, label %39, !dbg !4166

39:                                               ; preds = %35
  %40 = getelementptr inbounds %"struct.String::memo_t", %"struct.String::memo_t"* %37, i64 0, i32 0, !dbg !4167
  %41 = load volatile i32, i32* %40, align 4, !dbg !4167, !tbaa !4144
  %42 = icmp eq i32 %41, 0, !dbg !4167
  br i1 %42, label %43, label %44, !dbg !4167

43:                                               ; preds = %39
  tail call void @__assert_fail(i8* getelementptr inbounds ([18 x i8], [18 x i8]* @.str, i64 0, i64 0), i8* getelementptr inbounds ([29 x i8], [29 x i8]* @.str.1, i64 0, i64 0), i32 273, i8* getelementptr inbounds ([27 x i8], [27 x i8]* @__PRETTY_FUNCTION__._ZNK6String5derefEv, i64 0, i64 0)) #10, !dbg !4167
  unreachable, !dbg !4167

44:                                               ; preds = %39
  call void @llvm.dbg.value(metadata i32* %40, metadata !4146, metadata !DIExpression()) #9, !dbg !4168
  %45 = load volatile i32, i32* %40, align 4, !dbg !4170, !tbaa !4153
  %46 = add i32 %45, -1, !dbg !4170
  store volatile i32 %46, i32* %40, align 4, !dbg !4170, !tbaa !4153
  %47 = icmp eq i32 %46, 0, !dbg !4171
  br i1 %47, label %48, label %49, !dbg !4172

48:                                               ; preds = %44
  invoke void @_ZN6String11delete_memoEPNS_6memo_tE(%"struct.String::memo_t"* nonnull %37)
          to label %49 unwind label %50, !dbg !4173

49:                                               ; preds = %48, %44
  store %"struct.String::memo_t"* null, %"struct.String::memo_t"** %36, align 8, !dbg !4174, !tbaa !4139
  br label %53, !dbg !4175

50:                                               ; preds = %48
  %51 = landingpad { i8*, i32 }
          catch i8* null, !dbg !4176
  %52 = extractvalue { i8*, i32 } %51, 0, !dbg !4176
  tail call void @__clang_call_terminate(i8* %52) #10, !dbg !4176
  unreachable, !dbg !4176

53:                                               ; preds = %35, %49
  %54 = getelementptr inbounds %class.Script, %class.Script* %0, i64 0, i32 5, !dbg !1240
  call void @llvm.dbg.value(metadata %class.Vector.0* %54, metadata !4177, metadata !DIExpression()) #9, !dbg !4182
  call void @llvm.dbg.value(metadata %class.Vector.0* %54, metadata !4184, metadata !DIExpression()) #9, !dbg !4188
  %55 = getelementptr inbounds %class.Vector.0, %class.Vector.0* %54, i64 0, i32 0, i32 0, !dbg !4191
  %56 = load %class.String*, %class.String** %55, align 8, !dbg !4191, !tbaa !4193
  %57 = getelementptr inbounds %class.Script, %class.Script* %0, i64 0, i32 5, i32 0, i32 1, !dbg !4194
  %58 = load i32, i32* %57, align 8, !dbg !4194, !tbaa !4195
  %59 = sext i32 %58 to i64, !dbg !4194
  call void @llvm.dbg.value(metadata %class.String* %56, metadata !4196, metadata !DIExpression()) #9, !dbg !4202
  call void @llvm.dbg.value(metadata i64 %59, metadata !4199, metadata !DIExpression()) #9, !dbg !4202
  call void @llvm.dbg.value(metadata i64 0, metadata !4200, metadata !DIExpression()) #9, !dbg !4204
  %60 = icmp eq i32 %58, 0, !dbg !4205
  br i1 %60, label %61, label %63, !dbg !4207

61:                                               ; preds = %53
  %62 = bitcast %class.String* %56 to i8*, !dbg !4207
  br label %88, !dbg !4207

63:                                               ; preds = %53, %82
  %64 = phi i64 [ %83, %82 ], [ 0, %53 ]
  call void @llvm.dbg.value(metadata i64 %64, metadata !4200, metadata !DIExpression()) #9, !dbg !4204
  call void @llvm.dbg.value(metadata %class.String* undef, metadata !4126, metadata !DIExpression()) #9, !dbg !4208
  call void @llvm.dbg.value(metadata %class.String* undef, metadata !4131, metadata !DIExpression()) #9, !dbg !4210
  %65 = getelementptr inbounds %class.String, %class.String* %56, i64 %64, i32 0, i32 2, !dbg !4212
  %66 = load %"struct.String::memo_t"*, %"struct.String::memo_t"** %65, align 8, !dbg !4212, !tbaa !4139
  %67 = icmp eq %"struct.String::memo_t"* %66, null, !dbg !4213
  br i1 %67, label %82, label %68, !dbg !4214

68:                                               ; preds = %63
  %69 = getelementptr inbounds %"struct.String::memo_t", %"struct.String::memo_t"* %66, i64 0, i32 0, !dbg !4215
  %70 = load volatile i32, i32* %69, align 4, !dbg !4215, !tbaa !4144
  %71 = icmp eq i32 %70, 0, !dbg !4215
  br i1 %71, label %72, label %73, !dbg !4215

72:                                               ; preds = %68
  tail call void @__assert_fail(i8* getelementptr inbounds ([18 x i8], [18 x i8]* @.str, i64 0, i64 0), i8* getelementptr inbounds ([29 x i8], [29 x i8]* @.str.1, i64 0, i64 0), i32 273, i8* getelementptr inbounds ([27 x i8], [27 x i8]* @__PRETTY_FUNCTION__._ZNK6String5derefEv, i64 0, i64 0)) #10, !dbg !4215
  unreachable, !dbg !4215

73:                                               ; preds = %68
  call void @llvm.dbg.value(metadata i32* %69, metadata !4146, metadata !DIExpression()) #9, !dbg !4216
  %74 = load volatile i32, i32* %69, align 4, !dbg !4218, !tbaa !4153
  %75 = add i32 %74, -1, !dbg !4218
  store volatile i32 %75, i32* %69, align 4, !dbg !4218, !tbaa !4153
  %76 = icmp eq i32 %75, 0, !dbg !4219
  br i1 %76, label %77, label %78, !dbg !4220

77:                                               ; preds = %73
  invoke void @_ZN6String11delete_memoEPNS_6memo_tE(%"struct.String::memo_t"* nonnull %66)
          to label %78 unwind label %79, !dbg !4221

78:                                               ; preds = %77, %73
  store %"struct.String::memo_t"* null, %"struct.String::memo_t"** %65, align 8, !dbg !4222, !tbaa !4139
  br label %82, !dbg !4223

79:                                               ; preds = %77
  %80 = landingpad { i8*, i32 }
          catch i8* null, !dbg !4224
  %81 = extractvalue { i8*, i32 } %80, 0, !dbg !4224
  tail call void @__clang_call_terminate(i8* %81) #10, !dbg !4224
  unreachable, !dbg !4224

82:                                               ; preds = %78, %63
  %83 = add nuw i64 %64, 1, !dbg !4225
  call void @llvm.dbg.value(metadata i64 %83, metadata !4200, metadata !DIExpression()) #9, !dbg !4204
  %84 = icmp eq i64 %83, %59, !dbg !4205
  br i1 %84, label %85, label %63, !dbg !4207, !llvm.loop !4226

85:                                               ; preds = %82
  %86 = bitcast %class.Vector.0* %54 to i8**, !dbg !4228
  %87 = load i8*, i8** %86, align 8, !dbg !4229, !tbaa !4193
  br label %88, !dbg !4229

88:                                               ; preds = %85, %61
  %89 = phi i8* [ %87, %85 ], [ %62, %61 ], !dbg !4229
  %90 = icmp eq i8* %89, null, !dbg !4229
  br i1 %90, label %92, label %91, !dbg !4229

91:                                               ; preds = %88
  tail call void @_ZdaPv(i8* nonnull %89) #11, !dbg !4229
  br label %92, !dbg !4229

92:                                               ; preds = %88, %91
  %93 = getelementptr inbounds %class.Script, %class.Script* %0, i64 0, i32 4, !dbg !1240
  call void @llvm.dbg.value(metadata %class.Vector.0* %93, metadata !4177, metadata !DIExpression()) #9, !dbg !4230
  call void @llvm.dbg.value(metadata %class.Vector.0* %93, metadata !4184, metadata !DIExpression()) #9, !dbg !4232
  %94 = getelementptr inbounds %class.Vector.0, %class.Vector.0* %93, i64 0, i32 0, i32 0, !dbg !4234
  %95 = load %class.String*, %class.String** %94, align 8, !dbg !4234, !tbaa !4193
  %96 = getelementptr inbounds %class.Script, %class.Script* %0, i64 0, i32 4, i32 0, i32 1, !dbg !4235
  %97 = load i32, i32* %96, align 8, !dbg !4235, !tbaa !4195
  %98 = sext i32 %97 to i64, !dbg !4235
  call void @llvm.dbg.value(metadata %class.String* %95, metadata !4196, metadata !DIExpression()) #9, !dbg !4236
  call void @llvm.dbg.value(metadata i64 %98, metadata !4199, metadata !DIExpression()) #9, !dbg !4236
  call void @llvm.dbg.value(metadata i64 0, metadata !4200, metadata !DIExpression()) #9, !dbg !4238
  %99 = icmp eq i32 %97, 0, !dbg !4239
  br i1 %99, label %100, label %102, !dbg !4240

100:                                              ; preds = %92
  %101 = bitcast %class.String* %95 to i8*, !dbg !4240
  br label %127, !dbg !4240

102:                                              ; preds = %92, %121
  %103 = phi i64 [ %122, %121 ], [ 0, %92 ]
  call void @llvm.dbg.value(metadata i64 %103, metadata !4200, metadata !DIExpression()) #9, !dbg !4238
  call void @llvm.dbg.value(metadata %class.String* undef, metadata !4126, metadata !DIExpression()) #9, !dbg !4241
  call void @llvm.dbg.value(metadata %class.String* undef, metadata !4131, metadata !DIExpression()) #9, !dbg !4243
  %104 = getelementptr inbounds %class.String, %class.String* %95, i64 %103, i32 0, i32 2, !dbg !4245
  %105 = load %"struct.String::memo_t"*, %"struct.String::memo_t"** %104, align 8, !dbg !4245, !tbaa !4139
  %106 = icmp eq %"struct.String::memo_t"* %105, null, !dbg !4246
  br i1 %106, label %121, label %107, !dbg !4247

107:                                              ; preds = %102
  %108 = getelementptr inbounds %"struct.String::memo_t", %"struct.String::memo_t"* %105, i64 0, i32 0, !dbg !4248
  %109 = load volatile i32, i32* %108, align 4, !dbg !4248, !tbaa !4144
  %110 = icmp eq i32 %109, 0, !dbg !4248
  br i1 %110, label %111, label %112, !dbg !4248

111:                                              ; preds = %107
  tail call void @__assert_fail(i8* getelementptr inbounds ([18 x i8], [18 x i8]* @.str, i64 0, i64 0), i8* getelementptr inbounds ([29 x i8], [29 x i8]* @.str.1, i64 0, i64 0), i32 273, i8* getelementptr inbounds ([27 x i8], [27 x i8]* @__PRETTY_FUNCTION__._ZNK6String5derefEv, i64 0, i64 0)) #10, !dbg !4248
  unreachable, !dbg !4248

112:                                              ; preds = %107
  call void @llvm.dbg.value(metadata i32* %108, metadata !4146, metadata !DIExpression()) #9, !dbg !4249
  %113 = load volatile i32, i32* %108, align 4, !dbg !4251, !tbaa !4153
  %114 = add i32 %113, -1, !dbg !4251
  store volatile i32 %114, i32* %108, align 4, !dbg !4251, !tbaa !4153
  %115 = icmp eq i32 %114, 0, !dbg !4252
  br i1 %115, label %116, label %117, !dbg !4253

116:                                              ; preds = %112
  invoke void @_ZN6String11delete_memoEPNS_6memo_tE(%"struct.String::memo_t"* nonnull %105)
          to label %117 unwind label %118, !dbg !4254

117:                                              ; preds = %116, %112
  store %"struct.String::memo_t"* null, %"struct.String::memo_t"** %104, align 8, !dbg !4255, !tbaa !4139
  br label %121, !dbg !4256

118:                                              ; preds = %116
  %119 = landingpad { i8*, i32 }
          catch i8* null, !dbg !4257
  %120 = extractvalue { i8*, i32 } %119, 0, !dbg !4257
  tail call void @__clang_call_terminate(i8* %120) #10, !dbg !4257
  unreachable, !dbg !4257

121:                                              ; preds = %117, %102
  %122 = add nuw i64 %103, 1, !dbg !4258
  call void @llvm.dbg.value(metadata i64 %122, metadata !4200, metadata !DIExpression()) #9, !dbg !4238
  %123 = icmp eq i64 %122, %98, !dbg !4239
  br i1 %123, label %124, label %102, !dbg !4240, !llvm.loop !4259

124:                                              ; preds = %121
  %125 = bitcast %class.Vector.0* %93 to i8**, !dbg !4261
  %126 = load i8*, i8** %125, align 8, !dbg !4262, !tbaa !4193
  br label %127, !dbg !4262

127:                                              ; preds = %124, %100
  %128 = phi i8* [ %126, %124 ], [ %101, %100 ], !dbg !4262
  %129 = icmp eq i8* %128, null, !dbg !4262
  br i1 %129, label %131, label %130, !dbg !4262

130:                                              ; preds = %127
  tail call void @_ZdaPv(i8* nonnull %128) #11, !dbg !4262
  br label %131, !dbg !4262

131:                                              ; preds = %127, %130
  %132 = getelementptr inbounds %class.Script, %class.Script* %0, i64 0, i32 3, !dbg !1240
  call void @llvm.dbg.value(metadata %class.Vector.5* %132, metadata !4107, metadata !DIExpression()) #9, !dbg !4263
  call void @llvm.dbg.value(metadata %class.Vector.5* %132, metadata !4114, metadata !DIExpression()) #9, !dbg !4265
  %133 = bitcast %class.Vector.5* %132 to i8**, !dbg !4267
  %134 = load i8*, i8** %133, align 8, !dbg !4268, !tbaa !4125
  %135 = icmp eq i8* %134, null, !dbg !4268
  br i1 %135, label %137, label %136, !dbg !4268

136:                                              ; preds = %131
  tail call void @_ZdaPv(i8* nonnull %134) #11, !dbg !4268
  br label %137, !dbg !4268

137:                                              ; preds = %131, %136
  %138 = getelementptr inbounds %class.Script, %class.Script* %0, i64 0, i32 2, !dbg !1240
  call void @llvm.dbg.value(metadata %class.Vector.5* %138, metadata !4107, metadata !DIExpression()) #9, !dbg !4269
  call void @llvm.dbg.value(metadata %class.Vector.5* %138, metadata !4114, metadata !DIExpression()) #9, !dbg !4271
  %139 = bitcast %class.Vector.5* %138 to i8**, !dbg !4273
  %140 = load i8*, i8** %139, align 8, !dbg !4274, !tbaa !4125
  %141 = icmp eq i8* %140, null, !dbg !4274
  br i1 %141, label %143, label %142, !dbg !4274

142:                                              ; preds = %137
  tail call void @_ZdaPv(i8* nonnull %140) #11, !dbg !4274
  br label %143, !dbg !4274

143:                                              ; preds = %137, %142
  %144 = getelementptr inbounds %class.Script, %class.Script* %0, i64 0, i32 1, !dbg !1240
  call void @llvm.dbg.value(metadata %class.Vector.5* %144, metadata !4107, metadata !DIExpression()) #9, !dbg !4275
  call void @llvm.dbg.value(metadata %class.Vector.5* %144, metadata !4114, metadata !DIExpression()) #9, !dbg !4277
  %145 = bitcast %class.Vector.5* %144 to i8**, !dbg !4279
  %146 = load i8*, i8** %145, align 8, !dbg !4280, !tbaa !4125
  %147 = icmp eq i8* %146, null, !dbg !4280
  br i1 %147, label %149, label %148, !dbg !4280

148:                                              ; preds = %143
  tail call void @_ZdaPv(i8* nonnull %146) #11, !dbg !4280
  br label %149, !dbg !4280

149:                                              ; preds = %143, %148
  %150 = bitcast %class.Script* %0 to %class.Element*, !dbg !1240
  tail call void @_ZN7ElementD2Ev(%class.Element* %150) #9, !dbg !1240
  ret void, !dbg !1239
}

; Function Attrs: inlinehint nounwind sspstrong uwtable
define linkonce_odr dso_local void @_ZN13DriverManagerD0Ev(%class.DriverManager* %0) unnamed_addr #2 comdat align 2 !dbg !4281 {
  call void @llvm.dbg.value(metadata %class.DriverManager* %0, metadata !4284, metadata !DIExpression()), !dbg !4285
  %2 = getelementptr %class.DriverManager, %class.DriverManager* %0, i64 0, i32 0, !dbg !4286
  tail call void @_ZN6ScriptD2Ev(%class.Script* %2) #9, !dbg !4286
  %3 = bitcast %class.DriverManager* %0 to i8*, !dbg !4286
  tail call void @_ZdlPv(i8* %3) #11, !dbg !4286
  ret void, !dbg !4286
}

declare void @_ZN6Script4pushEiP6Packet(%class.Script*, i32, %class.Packet*) unnamed_addr #1

declare %class.Packet* @_ZN6Script4pullEi(%class.Script*, i32) unnamed_addr #1

declare %class.Packet* @_ZN7Element13simple_actionEP6Packet(%class.Element*, %class.Packet*) unnamed_addr #1

declare zeroext i1 @_ZN7Element8run_taskEP4Task(%class.Element*, %class.Task*) unnamed_addr #1

declare void @_ZN6Script9run_timerEP5Timer(%class.Script*, %class.Timer*) unnamed_addr #1

declare void @_ZN7Element8selectedEii(%class.Element*, i32, i32) unnamed_addr #1

declare void @_ZN7Element8selectedEi(%class.Element*, i32) unnamed_addr #1

; Function Attrs: nounwind sspstrong uwtable
define linkonce_odr dso_local i8* @_ZNK13DriverManager10class_nameEv(%class.DriverManager* %0) unnamed_addr #3 comdat align 2 !dbg !4287 {
  call void @llvm.dbg.value(metadata %class.DriverManager* %0, metadata !4289, metadata !DIExpression()), !dbg !4291
  ret i8* getelementptr inbounds ([14 x i8], [14 x i8]* @.str.2, i64 0, i64 0), !dbg !4292
}

; Function Attrs: nounwind sspstrong uwtable
define linkonce_odr dso_local i8* @_ZNK6Script10port_countEv(%class.Script* %0) unnamed_addr #3 comdat align 2 !dbg !4293 {
  call void @llvm.dbg.value(metadata %class.Script* %0, metadata !4300, metadata !DIExpression()), !dbg !4302
  ret i8* getelementptr inbounds ([4 x i8], [4 x i8]* @.str.3, i64 0, i64 0), !dbg !4303
}

; Function Attrs: nounwind sspstrong uwtable
define linkonce_odr dso_local i8* @_ZNK6Script10processingEv(%class.Script* %0) unnamed_addr #3 comdat align 2 !dbg !4304 {
  call void @llvm.dbg.value(metadata %class.Script* %0, metadata !4307, metadata !DIExpression()), !dbg !4308
  ret i8* getelementptr inbounds ([6 x i8], [6 x i8]* @.str.4, i64 0, i64 0), !dbg !4309
}

declare i8* @_ZNK7Element9flow_codeEv(%class.Element*) unnamed_addr #1

declare i8* @_ZNK7Element5flagsEv(%class.Element*) unnamed_addr #1

declare i8* @_ZN7Element4castEPKc(%class.Element*, i8*) unnamed_addr #1

declare i8* @_ZN7Element9port_castEbiPKc(%class.Element*, i1 zeroext, i32, i8*) unnamed_addr #1

declare i32 @_ZNK7Element15configure_phaseEv(%class.Element*) unnamed_addr #1

declare i32 @_ZN6Script9configureER6VectorI6StringEP12ErrorHandler(%class.Script*, %class.Vector.0* dereferenceable(16), %class.ErrorHandler*) unnamed_addr #1

declare void @_ZN6Script12add_handlersEv(%class.Script*) unnamed_addr #1

declare i32 @_ZN6Script10initializeEP12ErrorHandler(%class.Script*, %class.ErrorHandler*) unnamed_addr #1

declare void @_ZN7Element10take_stateEPS_P12ErrorHandler(%class.Element*, %class.Element*, %class.ErrorHandler*) unnamed_addr #1

declare %class.Element* @_ZNK7Element15hotswap_elementEv(%class.Element*) unnamed_addr #1

declare void @_ZN7Element7cleanupENS_12CleanupStageE(%class.Element*, i32) unnamed_addr #1

declare void @_ZNK7Element11declarationEv(%class.String* sret, %class.Element*) unnamed_addr #1

declare zeroext i1 @_ZNK7Element20can_live_reconfigureEv(%class.Element*) unnamed_addr #1

declare i32 @_ZN7Element16live_reconfigureER6VectorI6StringEP12ErrorHandler(%class.Element*, %class.Vector.0* dereferenceable(16), %class.ErrorHandler*) unnamed_addr #1

declare i32 @_ZN7Element5llrpcEjPv(%class.Element*, i32, i8*) unnamed_addr #1

; Function Attrs: nounwind
declare void @_ZN7ElementD2Ev(%class.Element*) unnamed_addr #4

declare i32 @__gxx_personality_v0(...)

; Function Attrs: noinline noreturn nounwind
define linkonce_odr hidden void @__clang_call_terminate(i8* %0) local_unnamed_addr #5 comdat {
  %2 = tail call i8* @__cxa_begin_catch(i8* %0) #9
  tail call void @_ZSt9terminatev() #10
  unreachable
}

declare i8* @__cxa_begin_catch(i8*) local_unnamed_addr

declare void @_ZSt9terminatev() local_unnamed_addr

declare void @_ZN5Timer10unscheduleEv(%class.Timer*) local_unnamed_addr #1

; Function Attrs: nobuiltin nounwind
declare void @_ZdaPv(i8*) local_unnamed_addr #6

; Function Attrs: noreturn nounwind
declare void @__assert_fail(i8*, i8*, i32, i8*) local_unnamed_addr #7

declare void @_ZN6String11delete_memoEPNS_6memo_tE(%"struct.String::memo_t"*) local_unnamed_addr #1

; Function Attrs: nobuiltin nounwind
declare void @_ZdlPv(i8*) local_unnamed_addr #6

; Function Attrs: nounwind readnone speculatable willreturn
declare void @llvm.dbg.value(metadata, metadata, metadata) #8

attributes #0 = { sspstrong uwtable "correctly-rounded-divide-sqrt-fp-math"="false" "disable-tail-calls"="false" "frame-pointer"="none" "less-precise-fpmad"="false" "min-legal-vector-width"="0" "no-infs-fp-math"="false" "no-jump-tables"="false" "no-nans-fp-math"="false" "no-signed-zeros-fp-math"="false" "no-trapping-math"="false" "stack-protector-buffer-size"="8" "target-cpu"="x86-64" "target-features"="+cx8,+fxsr,+mmx,+sse,+sse2,+x87" "unsafe-fp-math"="false" "use-soft-float"="false" }
attributes #1 = { "correctly-rounded-divide-sqrt-fp-math"="false" "disable-tail-calls"="false" "frame-pointer"="none" "less-precise-fpmad"="false" "no-infs-fp-math"="false" "no-nans-fp-math"="false" "no-signed-zeros-fp-math"="false" "no-trapping-math"="false" "stack-protector-buffer-size"="8" "target-cpu"="x86-64" "target-features"="+cx8,+fxsr,+mmx,+sse,+sse2,+x87" "unsafe-fp-math"="false" "use-soft-float"="false" }
attributes #2 = { inlinehint nounwind sspstrong uwtable "correctly-rounded-divide-sqrt-fp-math"="false" "disable-tail-calls"="false" "frame-pointer"="none" "less-precise-fpmad"="false" "min-legal-vector-width"="0" "no-infs-fp-math"="false" "no-jump-tables"="false" "no-nans-fp-math"="false" "no-signed-zeros-fp-math"="false" "no-trapping-math"="false" "stack-protector-buffer-size"="8" "target-cpu"="x86-64" "target-features"="+cx8,+fxsr,+mmx,+sse,+sse2,+x87" "unsafe-fp-math"="false" "use-soft-float"="false" }
attributes #3 = { nounwind sspstrong uwtable "correctly-rounded-divide-sqrt-fp-math"="false" "disable-tail-calls"="false" "frame-pointer"="none" "less-precise-fpmad"="false" "min-legal-vector-width"="0" "no-infs-fp-math"="false" "no-jump-tables"="false" "no-nans-fp-math"="false" "no-signed-zeros-fp-math"="false" "no-trapping-math"="false" "stack-protector-buffer-size"="8" "target-cpu"="x86-64" "target-features"="+cx8,+fxsr,+mmx,+sse,+sse2,+x87" "unsafe-fp-math"="false" "use-soft-float"="false" }
attributes #4 = { nounwind "correctly-rounded-divide-sqrt-fp-math"="false" "disable-tail-calls"="false" "frame-pointer"="none" "less-precise-fpmad"="false" "no-infs-fp-math"="false" "no-nans-fp-math"="false" "no-signed-zeros-fp-math"="false" "no-trapping-math"="false" "stack-protector-buffer-size"="8" "target-cpu"="x86-64" "target-features"="+cx8,+fxsr,+mmx,+sse,+sse2,+x87" "unsafe-fp-math"="false" "use-soft-float"="false" }
attributes #5 = { noinline noreturn nounwind }
attributes #6 = { nobuiltin nounwind "correctly-rounded-divide-sqrt-fp-math"="false" "disable-tail-calls"="false" "frame-pointer"="none" "less-precise-fpmad"="false" "no-infs-fp-math"="false" "no-nans-fp-math"="false" "no-signed-zeros-fp-math"="false" "no-trapping-math"="false" "stack-protector-buffer-size"="8" "target-cpu"="x86-64" "target-features"="+cx8,+fxsr,+mmx,+sse,+sse2,+x87" "unsafe-fp-math"="false" "use-soft-float"="false" }
attributes #7 = { noreturn nounwind "correctly-rounded-divide-sqrt-fp-math"="false" "disable-tail-calls"="false" "frame-pointer"="none" "less-precise-fpmad"="false" "no-infs-fp-math"="false" "no-nans-fp-math"="false" "no-signed-zeros-fp-math"="false" "no-trapping-math"="false" "stack-protector-buffer-size"="8" "target-cpu"="x86-64" "target-features"="+cx8,+fxsr,+mmx,+sse,+sse2,+x87" "unsafe-fp-math"="false" "use-soft-float"="false" }
attributes #8 = { nounwind readnone speculatable willreturn }
attributes #9 = { nounwind }
attributes #10 = { noreturn nounwind }
attributes #11 = { builtin nounwind }

!llvm.dbg.cu = !{!0}
!llvm.module.flags = !{!1182, !1183, !1184, !1185, !1186}
!llvm.ident = !{!1187}

!0 = distinct !DICompileUnit(language: DW_LANG_C_plus_plus_14, file: !1, producer: "clang version 10.0.0 ", isOptimized: true, runtimeVersion: 0, emissionKind: FullDebug, enums: !2, retainedTypes: !548, imports: !552, splitDebugInlining: false, nameTableKind: None)
!1 = !DIFile(filename: "../elements/standard/drivermanager.cc", directory: "/home/john/projects/click/ir-dir")
!2 = !{!3, !14}
!3 = !DICompositeType(tag: DW_TAG_enumeration_type, name: "Type", scope: !5, file: !4, line: 479, baseType: !6, size: 32, elements: !7, identifier: "_ZTSN6Script4TypeE")
!4 = !DIFile(filename: "../elements/standard/script.hh", directory: "/home/john/projects/click/ir-dir")
!5 = !DICompositeType(tag: DW_TAG_class_type, name: "Script", file: !4, line: 444, flags: DIFlagFwdDecl, identifier: "_ZTS6Script")
!6 = !DIBasicType(name: "unsigned int", size: 32, encoding: DW_ATE_unsigned)
!7 = !{!8, !9, !10, !11, !12, !13}
!8 = !DIEnumerator(name: "type_active", value: 0, isUnsigned: true)
!9 = !DIEnumerator(name: "type_driver", value: 1, isUnsigned: true)
!10 = !DIEnumerator(name: "type_signal", value: 2, isUnsigned: true)
!11 = !DIEnumerator(name: "type_passive", value: 3, isUnsigned: true)
!12 = !DIEnumerator(name: "type_proxy", value: 4, isUnsigned: true)
!13 = !DIEnumerator(name: "type_push", value: 5, isUnsigned: true)
!14 = !DICompositeType(tag: DW_TAG_enumeration_type, name: "warp_class_type", scope: !16, file: !15, line: 571, baseType: !6, size: 32, elements: !543, identifier: "_ZTSN9Timestamp15warp_class_typeE")
!15 = !DIFile(filename: "../dummy_inc/click/timestamp.hh", directory: "/home/john/projects/click/ir-dir")
!16 = distinct !DICompositeType(tag: DW_TAG_class_type, name: "Timestamp", file: !15, line: 122, size: 64, flags: DIFlagTypePassByValue | DIFlagNonTrivial, elements: !17, identifier: "_ZTS9Timestamp")
!17 = !{!18, !27, !31, !37, !41, !45, !48, !52, !64, !75, !80, !89, !101, !105, !106, !109, !110, !111, !112, !115, !118, !119, !120, !121, !124, !125, !128, !131, !135, !136, !137, !140, !141, !142, !147, !151, !154, !157, !160, !163, !164, !165, !166, !167, !170, !171, !174, !175, !176, !177, !178, !179, !180, !183, !184, !185, !186, !187, !188, !189, !190, !191, !491, !492, !495, !496, !497, !498, !499, !500, !501, !504, !507, !511, !512, !515, !518, !519, !520, !521, !522, !523, !524, !527, !531, !534, !537, !540}
!18 = !DIDerivedType(tag: DW_TAG_member, name: "_t", scope: !16, file: !15, line: 672, baseType: !19, size: 64)
!19 = distinct !DICompositeType(tag: DW_TAG_union_type, name: "rep_t", scope: !16, file: !15, line: 539, size: 64, flags: DIFlagTypePassByValue, elements: !20, identifier: "_ZTSN9Timestamp5rep_tE")
!20 = !{!21}
!21 = !DIDerivedType(tag: DW_TAG_member, name: "x", scope: !19, file: !15, line: 541, baseType: !22, size: 64)
!22 = !DIDerivedType(tag: DW_TAG_typedef, name: "int64_t", file: !23, line: 27, baseType: !24)
!23 = !DIFile(filename: "/usr/include/bits/stdint-intn.h", directory: "")
!24 = !DIDerivedType(tag: DW_TAG_typedef, name: "__int64_t", file: !25, line: 44, baseType: !26)
!25 = !DIFile(filename: "/usr/include/bits/types.h", directory: "")
!26 = !DIBasicType(name: "long int", size: 64, encoding: DW_ATE_signed)
!27 = !DISubprogram(name: "Timestamp", scope: !16, file: !15, line: 174, type: !28, scopeLine: 174, flags: DIFlagPublic | DIFlagPrototyped, spFlags: DISPFlagOptimized)
!28 = !DISubroutineType(types: !29)
!29 = !{null, !30}
!30 = !DIDerivedType(tag: DW_TAG_pointer_type, baseType: !16, size: 64, flags: DIFlagArtificial | DIFlagObjectPointer)
!31 = !DISubprogram(name: "Timestamp", scope: !16, file: !15, line: 187, type: !32, scopeLine: 187, flags: DIFlagPublic | DIFlagExplicit | DIFlagPrototyped, spFlags: DISPFlagOptimized)
!32 = !DISubroutineType(types: !33)
!33 = !{null, !30, !26, !34}
!34 = !DIDerivedType(tag: DW_TAG_typedef, name: "uint32_t", file: !35, line: 26, baseType: !36)
!35 = !DIFile(filename: "/usr/include/bits/stdint-uintn.h", directory: "")
!36 = !DIDerivedType(tag: DW_TAG_typedef, name: "__uint32_t", file: !25, line: 42, baseType: !6)
!37 = !DISubprogram(name: "Timestamp", scope: !16, file: !15, line: 191, type: !38, scopeLine: 191, flags: DIFlagPublic | DIFlagExplicit | DIFlagPrototyped, spFlags: DISPFlagOptimized)
!38 = !DISubroutineType(types: !39)
!39 = !{null, !30, !40, !34}
!40 = !DIBasicType(name: "int", size: 32, encoding: DW_ATE_signed)
!41 = !DISubprogram(name: "Timestamp", scope: !16, file: !15, line: 195, type: !42, scopeLine: 195, flags: DIFlagPublic | DIFlagExplicit | DIFlagPrototyped, spFlags: DISPFlagOptimized)
!42 = !DISubroutineType(types: !43)
!43 = !{null, !30, !44, !34}
!44 = !DIBasicType(name: "long unsigned int", size: 64, encoding: DW_ATE_unsigned)
!45 = !DISubprogram(name: "Timestamp", scope: !16, file: !15, line: 199, type: !46, scopeLine: 199, flags: DIFlagPublic | DIFlagExplicit | DIFlagPrototyped, spFlags: DISPFlagOptimized)
!46 = !DISubroutineType(types: !47)
!47 = !{null, !30, !6, !34}
!48 = !DISubprogram(name: "Timestamp", scope: !16, file: !15, line: 203, type: !49, scopeLine: 203, flags: DIFlagPublic | DIFlagExplicit | DIFlagPrototyped, spFlags: DISPFlagOptimized)
!49 = !DISubroutineType(types: !50)
!50 = !{null, !30, !51}
!51 = !DIBasicType(name: "double", size: 64, encoding: DW_ATE_float)
!52 = !DISubprogram(name: "Timestamp", scope: !16, file: !15, line: 206, type: !53, scopeLine: 206, flags: DIFlagPublic | DIFlagPrototyped, spFlags: DISPFlagOptimized)
!53 = !DISubroutineType(types: !54)
!54 = !{null, !30, !55}
!55 = !DIDerivedType(tag: DW_TAG_reference_type, baseType: !56, size: 64)
!56 = !DIDerivedType(tag: DW_TAG_const_type, baseType: !57)
!57 = distinct !DICompositeType(tag: DW_TAG_structure_type, name: "timeval", file: !58, line: 8, size: 128, flags: DIFlagTypePassByValue, elements: !59, identifier: "_ZTS7timeval")
!58 = !DIFile(filename: "/usr/include/bits/types/struct_timeval.h", directory: "")
!59 = !{!60, !62}
!60 = !DIDerivedType(tag: DW_TAG_member, name: "tv_sec", scope: !57, file: !58, line: 10, baseType: !61, size: 64)
!61 = !DIDerivedType(tag: DW_TAG_typedef, name: "__time_t", file: !25, line: 160, baseType: !26)
!62 = !DIDerivedType(tag: DW_TAG_member, name: "tv_usec", scope: !57, file: !58, line: 11, baseType: !63, size: 64, offset: 64)
!63 = !DIDerivedType(tag: DW_TAG_typedef, name: "__suseconds_t", file: !25, line: 162, baseType: !26)
!64 = !DISubprogram(name: "Timestamp", scope: !16, file: !15, line: 208, type: !65, scopeLine: 208, flags: DIFlagPublic | DIFlagPrototyped, spFlags: DISPFlagOptimized)
!65 = !DISubroutineType(types: !66)
!66 = !{null, !30, !67}
!67 = !DIDerivedType(tag: DW_TAG_reference_type, baseType: !68, size: 64)
!68 = !DIDerivedType(tag: DW_TAG_const_type, baseType: !69)
!69 = distinct !DICompositeType(tag: DW_TAG_structure_type, name: "timespec", file: !70, line: 10, size: 128, flags: DIFlagTypePassByValue, elements: !71, identifier: "_ZTS8timespec")
!70 = !DIFile(filename: "/usr/include/bits/types/struct_timespec.h", directory: "")
!71 = !{!72, !73}
!72 = !DIDerivedType(tag: DW_TAG_member, name: "tv_sec", scope: !69, file: !70, line: 12, baseType: !61, size: 64)
!73 = !DIDerivedType(tag: DW_TAG_member, name: "tv_nsec", scope: !69, file: !70, line: 16, baseType: !74, size: 64, offset: 64)
!74 = !DIDerivedType(tag: DW_TAG_typedef, name: "__syscall_slong_t", file: !25, line: 196, baseType: !26)
!75 = !DISubprogram(name: "Timestamp", scope: !16, file: !15, line: 212, type: !76, scopeLine: 212, flags: DIFlagPublic | DIFlagPrototyped, spFlags: DISPFlagOptimized)
!76 = !DISubroutineType(types: !77)
!77 = !{null, !30, !78}
!78 = !DIDerivedType(tag: DW_TAG_reference_type, baseType: !79, size: 64)
!79 = !DIDerivedType(tag: DW_TAG_const_type, baseType: !19)
!80 = !DISubprogram(name: "Timestamp", scope: !16, file: !15, line: 217, type: !81, scopeLine: 217, flags: DIFlagPublic | DIFlagPrototyped, spFlags: DISPFlagOptimized)
!81 = !DISubroutineType(types: !82)
!82 = !{null, !30, !83}
!83 = !DIDerivedType(tag: DW_TAG_reference_type, baseType: !84, size: 64)
!84 = !DIDerivedType(tag: DW_TAG_const_type, baseType: !85)
!85 = !DIDerivedType(tag: DW_TAG_typedef, name: "uninitialized_t", scope: !16, file: !15, line: 168, baseType: !86)
!86 = distinct !DICompositeType(tag: DW_TAG_structure_type, name: "uninitialized_type", file: !87, line: 317, size: 8, flags: DIFlagTypePassByValue, elements: !88, identifier: "_ZTS18uninitialized_type")
!87 = !DIFile(filename: "../dummy_inc/click/config.h", directory: "/home/john/projects/click/ir-dir")
!88 = !{}
!89 = !DISubprogram(name: "operator int (Timestamp::*)() const", linkageName: "_ZNK9TimestampcvMS_KFivEEv", scope: !16, file: !15, line: 222, type: !90, scopeLine: 222, flags: DIFlagPublic | DIFlagPrototyped, spFlags: DISPFlagOptimized)
!90 = !DISubroutineType(types: !91)
!91 = !{!92, !99}
!92 = !DIDerivedType(tag: DW_TAG_typedef, name: "unspecified_bool_type", scope: !16, file: !15, line: 221, baseType: !93)
!93 = !DIDerivedType(tag: DW_TAG_ptr_to_member_type, baseType: !94, size: 128, extraData: !16)
!94 = !DISubroutineType(types: !95)
!95 = !{!96, !99}
!96 = !DIDerivedType(tag: DW_TAG_typedef, name: "seconds_type", scope: !16, file: !15, line: 125, baseType: !97)
!97 = !DIDerivedType(tag: DW_TAG_typedef, name: "int32_t", file: !23, line: 26, baseType: !98)
!98 = !DIDerivedType(tag: DW_TAG_typedef, name: "__int32_t", file: !25, line: 41, baseType: !40)
!99 = !DIDerivedType(tag: DW_TAG_pointer_type, baseType: !100, size: 64, flags: DIFlagArtificial | DIFlagObjectPointer)
!100 = !DIDerivedType(tag: DW_TAG_const_type, baseType: !16)
!101 = !DISubprogram(name: "is_negative", linkageName: "_ZNK9Timestamp11is_negativeEv", scope: !16, file: !15, line: 225, type: !102, scopeLine: 225, flags: DIFlagPublic | DIFlagPrototyped, spFlags: DISPFlagOptimized)
!102 = !DISubroutineType(types: !103)
!103 = !{!104, !99}
!104 = !DIBasicType(name: "bool", size: 8, encoding: DW_ATE_boolean)
!105 = !DISubprogram(name: "sec", linkageName: "_ZNK9Timestamp3secEv", scope: !16, file: !15, line: 233, type: !94, scopeLine: 233, flags: DIFlagPublic | DIFlagPrototyped, spFlags: DISPFlagOptimized)
!106 = !DISubprogram(name: "subsec", linkageName: "_ZNK9Timestamp6subsecEv", scope: !16, file: !15, line: 234, type: !107, scopeLine: 234, flags: DIFlagPublic | DIFlagPrototyped, spFlags: DISPFlagOptimized)
!107 = !DISubroutineType(types: !108)
!108 = !{!34, !99}
!109 = !DISubprogram(name: "msec", linkageName: "_ZNK9Timestamp4msecEv", scope: !16, file: !15, line: 235, type: !107, scopeLine: 235, flags: DIFlagPublic | DIFlagPrototyped, spFlags: DISPFlagOptimized)
!110 = !DISubprogram(name: "usec", linkageName: "_ZNK9Timestamp4usecEv", scope: !16, file: !15, line: 236, type: !107, scopeLine: 236, flags: DIFlagPublic | DIFlagPrototyped, spFlags: DISPFlagOptimized)
!111 = !DISubprogram(name: "nsec", linkageName: "_ZNK9Timestamp4nsecEv", scope: !16, file: !15, line: 237, type: !107, scopeLine: 237, flags: DIFlagPublic | DIFlagPrototyped, spFlags: DISPFlagOptimized)
!112 = !DISubprogram(name: "set_sec", linkageName: "_ZN9Timestamp7set_secEi", scope: !16, file: !15, line: 239, type: !113, scopeLine: 239, flags: DIFlagPublic | DIFlagPrototyped, spFlags: DISPFlagOptimized)
!113 = !DISubroutineType(types: !114)
!114 = !{null, !30, !96}
!115 = !DISubprogram(name: "set_subsec", linkageName: "_ZN9Timestamp10set_subsecEj", scope: !16, file: !15, line: 240, type: !116, scopeLine: 240, flags: DIFlagPublic | DIFlagPrototyped, spFlags: DISPFlagOptimized)
!116 = !DISubroutineType(types: !117)
!117 = !{null, !30, !34}
!118 = !DISubprogram(name: "msec1", linkageName: "_ZNK9Timestamp5msec1Ev", scope: !16, file: !15, line: 242, type: !94, scopeLine: 242, flags: DIFlagPublic | DIFlagPrototyped, spFlags: DISPFlagOptimized)
!119 = !DISubprogram(name: "usec1", linkageName: "_ZNK9Timestamp5usec1Ev", scope: !16, file: !15, line: 243, type: !94, scopeLine: 243, flags: DIFlagPublic | DIFlagPrototyped, spFlags: DISPFlagOptimized)
!120 = !DISubprogram(name: "nsec1", linkageName: "_ZNK9Timestamp5nsec1Ev", scope: !16, file: !15, line: 244, type: !94, scopeLine: 244, flags: DIFlagPublic | DIFlagPrototyped, spFlags: DISPFlagOptimized)
!121 = !DISubprogram(name: "timeval", linkageName: "_ZNK9Timestamp7timevalEv", scope: !16, file: !15, line: 250, type: !122, scopeLine: 250, flags: DIFlagPublic | DIFlagPrototyped, spFlags: DISPFlagOptimized)
!122 = !DISubroutineType(types: !123)
!123 = !{!57, !99}
!124 = !DISubprogram(name: "timeval_ceil", linkageName: "_ZNK9Timestamp12timeval_ceilEv", scope: !16, file: !15, line: 251, type: !122, scopeLine: 251, flags: DIFlagPublic | DIFlagPrototyped, spFlags: DISPFlagOptimized)
!125 = !DISubprogram(name: "timespec", linkageName: "_ZNK9Timestamp8timespecEv", scope: !16, file: !15, line: 257, type: !126, scopeLine: 257, flags: DIFlagPublic | DIFlagPrototyped, spFlags: DISPFlagOptimized)
!126 = !DISubroutineType(types: !127)
!127 = !{!69, !99}
!128 = !DISubprogram(name: "doubleval", linkageName: "_ZNK9Timestamp9doublevalEv", scope: !16, file: !15, line: 262, type: !129, scopeLine: 262, flags: DIFlagPublic | DIFlagPrototyped, spFlags: DISPFlagOptimized)
!129 = !DISubroutineType(types: !130)
!130 = !{!51, !99}
!131 = !DISubprogram(name: "msecval", linkageName: "_ZNK9Timestamp7msecvalEv", scope: !16, file: !15, line: 265, type: !132, scopeLine: 265, flags: DIFlagPublic | DIFlagPrototyped, spFlags: DISPFlagOptimized)
!132 = !DISubroutineType(types: !133)
!133 = !{!134, !99}
!134 = !DIDerivedType(tag: DW_TAG_typedef, name: "value_type", scope: !16, file: !15, line: 128, baseType: !22)
!135 = !DISubprogram(name: "usecval", linkageName: "_ZNK9Timestamp7usecvalEv", scope: !16, file: !15, line: 273, type: !132, scopeLine: 273, flags: DIFlagPublic | DIFlagPrototyped, spFlags: DISPFlagOptimized)
!136 = !DISubprogram(name: "nsecval", linkageName: "_ZNK9Timestamp7nsecvalEv", scope: !16, file: !15, line: 281, type: !132, scopeLine: 281, flags: DIFlagPublic | DIFlagPrototyped, spFlags: DISPFlagOptimized)
!137 = !DISubprogram(name: "msec_ceil", linkageName: "_ZNK9Timestamp9msec_ceilEv", scope: !16, file: !15, line: 290, type: !138, scopeLine: 290, flags: DIFlagPublic | DIFlagPrototyped, spFlags: DISPFlagOptimized)
!138 = !DISubroutineType(types: !139)
!139 = !{!16, !99}
!140 = !DISubprogram(name: "usec_ceil", linkageName: "_ZNK9Timestamp9usec_ceilEv", scope: !16, file: !15, line: 295, type: !138, scopeLine: 295, flags: DIFlagPublic | DIFlagPrototyped, spFlags: DISPFlagOptimized)
!141 = !DISubprogram(name: "nsec_ceil", linkageName: "_ZNK9Timestamp9nsec_ceilEv", scope: !16, file: !15, line: 304, type: !138, scopeLine: 304, flags: DIFlagPublic | DIFlagPrototyped, spFlags: DISPFlagOptimized)
!142 = !DISubprogram(name: "make_jiffies", linkageName: "_ZN9Timestamp12make_jiffiesEj", scope: !16, file: !15, line: 310, type: !143, scopeLine: 310, flags: DIFlagPublic | DIFlagPrototyped | DIFlagStaticMember, spFlags: DISPFlagOptimized)
!143 = !DISubroutineType(types: !144)
!144 = !{!16, !145}
!145 = !DIDerivedType(tag: DW_TAG_typedef, name: "click_jiffies_t", file: !146, line: 477, baseType: !6)
!146 = !DIFile(filename: "../dummy_inc/click/glue.hh", directory: "/home/john/projects/click/ir-dir")
!147 = !DISubprogram(name: "make_jiffies", linkageName: "_ZN9Timestamp12make_jiffiesEi", scope: !16, file: !15, line: 312, type: !148, scopeLine: 312, flags: DIFlagPublic | DIFlagPrototyped | DIFlagStaticMember, spFlags: DISPFlagOptimized)
!148 = !DISubroutineType(types: !149)
!149 = !{!16, !150}
!150 = !DIDerivedType(tag: DW_TAG_typedef, name: "click_jiffies_difference_t", file: !146, line: 478, baseType: !40)
!151 = !DISubprogram(name: "jiffies", linkageName: "_ZNK9Timestamp7jiffiesEv", scope: !16, file: !15, line: 314, type: !152, scopeLine: 314, flags: DIFlagPublic | DIFlagPrototyped, spFlags: DISPFlagOptimized)
!152 = !DISubroutineType(types: !153)
!153 = !{!145, !99}
!154 = !DISubprogram(name: "make_sec", linkageName: "_ZN9Timestamp8make_secEi", scope: !16, file: !15, line: 318, type: !155, scopeLine: 318, flags: DIFlagPublic | DIFlagPrototyped | DIFlagStaticMember, spFlags: DISPFlagOptimized)
!155 = !DISubroutineType(types: !156)
!156 = !{!16, !96}
!157 = !DISubprogram(name: "make_msec", linkageName: "_ZN9Timestamp9make_msecEij", scope: !16, file: !15, line: 324, type: !158, scopeLine: 324, flags: DIFlagPublic | DIFlagPrototyped | DIFlagStaticMember, spFlags: DISPFlagOptimized)
!158 = !DISubroutineType(types: !159)
!159 = !{!16, !96, !34}
!160 = !DISubprogram(name: "make_msec", linkageName: "_ZN9Timestamp9make_msecEl", scope: !16, file: !15, line: 328, type: !161, scopeLine: 328, flags: DIFlagPublic | DIFlagPrototyped | DIFlagStaticMember, spFlags: DISPFlagOptimized)
!161 = !DISubroutineType(types: !162)
!162 = !{!16, !134}
!163 = !DISubprogram(name: "make_usec", linkageName: "_ZN9Timestamp9make_usecEij", scope: !16, file: !15, line: 341, type: !158, scopeLine: 341, flags: DIFlagPublic | DIFlagPrototyped | DIFlagStaticMember, spFlags: DISPFlagOptimized)
!164 = !DISubprogram(name: "make_usec", linkageName: "_ZN9Timestamp9make_usecEl", scope: !16, file: !15, line: 345, type: !161, scopeLine: 345, flags: DIFlagPublic | DIFlagPrototyped | DIFlagStaticMember, spFlags: DISPFlagOptimized)
!165 = !DISubprogram(name: "make_nsec", linkageName: "_ZN9Timestamp9make_nsecEij", scope: !16, file: !15, line: 358, type: !158, scopeLine: 358, flags: DIFlagPublic | DIFlagPrototyped | DIFlagStaticMember, spFlags: DISPFlagOptimized)
!166 = !DISubprogram(name: "make_nsec", linkageName: "_ZN9Timestamp9make_nsecEl", scope: !16, file: !15, line: 362, type: !161, scopeLine: 362, flags: DIFlagPublic | DIFlagPrototyped | DIFlagStaticMember, spFlags: DISPFlagOptimized)
!167 = !DISubprogram(name: "epsilon", linkageName: "_ZN9Timestamp7epsilonEv", scope: !16, file: !15, line: 375, type: !168, scopeLine: 375, flags: DIFlagPublic | DIFlagPrototyped | DIFlagStaticMember, spFlags: DISPFlagOptimized)
!168 = !DISubroutineType(types: !169)
!169 = !{!16}
!170 = !DISubprogram(name: "clear", linkageName: "_ZN9Timestamp5clearEv", scope: !16, file: !15, line: 380, type: !28, scopeLine: 380, flags: DIFlagPublic | DIFlagPrototyped, spFlags: DISPFlagOptimized)
!171 = !DISubprogram(name: "assign", linkageName: "_ZN9Timestamp6assignEij", scope: !16, file: !15, line: 388, type: !172, scopeLine: 388, flags: DIFlagPublic | DIFlagPrototyped, spFlags: DISPFlagOptimized)
!172 = !DISubroutineType(types: !173)
!173 = !{null, !30, !96, !34}
!174 = !DISubprogram(name: "assign_usec", linkageName: "_ZN9Timestamp11assign_usecEij", scope: !16, file: !15, line: 397, type: !172, scopeLine: 397, flags: DIFlagPublic | DIFlagPrototyped, spFlags: DISPFlagOptimized)
!175 = !DISubprogram(name: "assign_nsec", linkageName: "_ZN9Timestamp11assign_nsecEij", scope: !16, file: !15, line: 401, type: !172, scopeLine: 401, flags: DIFlagPublic | DIFlagPrototyped, spFlags: DISPFlagOptimized)
!176 = !DISubprogram(name: "set", linkageName: "_ZN9Timestamp3setEij", scope: !16, file: !15, line: 408, type: !172, scopeLine: 408, flags: DIFlagPublic | DIFlagPrototyped, spFlags: DISPFlagOptimized)
!177 = !DISubprogram(name: "set_usec", linkageName: "_ZN9Timestamp8set_usecEij", scope: !16, file: !15, line: 411, type: !172, scopeLine: 411, flags: DIFlagPublic | DIFlagPrototyped, spFlags: DISPFlagOptimized)
!178 = !DISubprogram(name: "set_nsec", linkageName: "_ZN9Timestamp8set_nsecEij", scope: !16, file: !15, line: 414, type: !172, scopeLine: 414, flags: DIFlagPublic | DIFlagPrototyped, spFlags: DISPFlagOptimized)
!179 = !DISubprogram(name: "set_now", linkageName: "_ZN9Timestamp7set_nowEv", scope: !16, file: !15, line: 417, type: !28, scopeLine: 417, flags: DIFlagPublic | DIFlagPrototyped, spFlags: DISPFlagOptimized)
!180 = !DISubprogram(name: "set_timeval_ioctl", linkageName: "_ZN9Timestamp17set_timeval_ioctlEii", scope: !16, file: !15, line: 420, type: !181, scopeLine: 420, flags: DIFlagPublic | DIFlagPrototyped, spFlags: DISPFlagOptimized)
!181 = !DISubroutineType(types: !182)
!182 = !{!40, !30, !40, !40}
!183 = !DISubprogram(name: "now", linkageName: "_ZN9Timestamp3nowEv", scope: !16, file: !15, line: 432, type: !168, scopeLine: 432, flags: DIFlagPublic | DIFlagPrototyped | DIFlagStaticMember, spFlags: DISPFlagOptimized)
!184 = !DISubprogram(name: "assign_now", linkageName: "_ZN9Timestamp10assign_nowEv", scope: !16, file: !15, line: 438, type: !28, scopeLine: 438, flags: DIFlagPublic | DIFlagPrototyped, spFlags: DISPFlagOptimized)
!185 = !DISubprogram(name: "recent", linkageName: "_ZN9Timestamp6recentEv", scope: !16, file: !15, line: 446, type: !168, scopeLine: 446, flags: DIFlagPublic | DIFlagPrototyped | DIFlagStaticMember, spFlags: DISPFlagOptimized)
!186 = !DISubprogram(name: "assign_recent", linkageName: "_ZN9Timestamp13assign_recentEv", scope: !16, file: !15, line: 452, type: !28, scopeLine: 452, flags: DIFlagPublic | DIFlagPrototyped, spFlags: DISPFlagOptimized)
!187 = !DISubprogram(name: "now_steady", linkageName: "_ZN9Timestamp10now_steadyEv", scope: !16, file: !15, line: 466, type: !168, scopeLine: 466, flags: DIFlagPublic | DIFlagPrototyped | DIFlagStaticMember, spFlags: DISPFlagOptimized)
!188 = !DISubprogram(name: "assign_now_steady", linkageName: "_ZN9Timestamp17assign_now_steadyEv", scope: !16, file: !15, line: 472, type: !28, scopeLine: 472, flags: DIFlagPublic | DIFlagPrototyped, spFlags: DISPFlagOptimized)
!189 = !DISubprogram(name: "recent_steady", linkageName: "_ZN9Timestamp13recent_steadyEv", scope: !16, file: !15, line: 481, type: !168, scopeLine: 481, flags: DIFlagPublic | DIFlagPrototyped | DIFlagStaticMember, spFlags: DISPFlagOptimized)
!190 = !DISubprogram(name: "assign_recent_steady", linkageName: "_ZN9Timestamp20assign_recent_steadyEv", scope: !16, file: !15, line: 487, type: !28, scopeLine: 487, flags: DIFlagPublic | DIFlagPrototyped, spFlags: DISPFlagOptimized)
!191 = !DISubprogram(name: "unparse", linkageName: "_ZNK9Timestamp7unparseEv", scope: !16, file: !15, line: 496, type: !192, scopeLine: 496, flags: DIFlagPublic | DIFlagPrototyped, spFlags: DISPFlagOptimized)
!192 = !DISubroutineType(types: !193)
!193 = !{!194, !99}
!194 = distinct !DICompositeType(tag: DW_TAG_class_type, name: "String", file: !195, line: 19, size: 192, flags: DIFlagTypePassByReference | DIFlagNonTrivial, elements: !196, identifier: "_ZTS6String")
!195 = !DIFile(filename: "../dummy_inc/click/string.hh", directory: "/home/john/projects/click/ir-dir")
!196 = !{!197, !203, !221, !222, !226, !230, !232, !233, !237, !242, !246, !249, !252, !258, !261, !264, !267, !270, !273, !276, !279, !282, !285, !289, !293, !296, !297, !300, !303, !304, !307, !310, !313, !317, !323, !327, !330, !331, !336, !339, !340, !344, !345, !348, !349, !352, !353, !356, !359, !362, !365, !368, !371, !374, !377, !380, !383, !386, !389, !390, !391, !392, !395, !398, !399, !400, !401, !402, !403, !404, !408, !411, !414, !417, !418, !419, !420, !421, !422, !425, !429, !430, !431, !432, !435, !436, !437, !438, !439, !440, !443, !444, !445, !446, !449, !452, !453, !456, !459, !462, !465, !468, !471, !474, !475, !476, !477, !480, !483, !486, !487, !488}
!197 = !DIDerivedType(tag: DW_TAG_member, name: "bool_data", scope: !194, file: !195, line: 184, baseType: !198, flags: DIFlagPublic | DIFlagStaticMember)
!198 = !DICompositeType(tag: DW_TAG_array_type, baseType: !199, size: 88, elements: !201)
!199 = !DIDerivedType(tag: DW_TAG_const_type, baseType: !200)
!200 = !DIBasicType(name: "char", size: 8, encoding: DW_ATE_signed_char)
!201 = !{!202}
!202 = !DISubrange(count: 11)
!203 = !DIDerivedType(tag: DW_TAG_member, name: "_r", scope: !194, file: !195, line: 211, baseType: !204, size: 192)
!204 = distinct !DICompositeType(tag: DW_TAG_structure_type, name: "rep_t", scope: !194, file: !195, line: 204, size: 192, flags: DIFlagTypePassByValue, elements: !205, identifier: "_ZTSN6String5rep_tE")
!205 = !{!206, !208, !209}
!206 = !DIDerivedType(tag: DW_TAG_member, name: "data", scope: !204, file: !195, line: 205, baseType: !207, size: 64)
!207 = !DIDerivedType(tag: DW_TAG_pointer_type, baseType: !199, size: 64)
!208 = !DIDerivedType(tag: DW_TAG_member, name: "length", scope: !204, file: !195, line: 206, baseType: !40, size: 32, offset: 64)
!209 = !DIDerivedType(tag: DW_TAG_member, name: "memo", scope: !204, file: !195, line: 207, baseType: !210, size: 64, offset: 128)
!210 = !DIDerivedType(tag: DW_TAG_pointer_type, baseType: !211, size: 64)
!211 = distinct !DICompositeType(tag: DW_TAG_structure_type, name: "memo_t", scope: !194, file: !195, line: 189, size: 160, flags: DIFlagTypePassByValue, elements: !212, identifier: "_ZTSN6String6memo_tE")
!212 = !{!213, !215, !216, !217}
!213 = !DIDerivedType(tag: DW_TAG_member, name: "refcount", scope: !211, file: !195, line: 190, baseType: !214, size: 32)
!214 = !DIDerivedType(tag: DW_TAG_volatile_type, baseType: !34)
!215 = !DIDerivedType(tag: DW_TAG_member, name: "capacity", scope: !211, file: !195, line: 191, baseType: !34, size: 32, offset: 32)
!216 = !DIDerivedType(tag: DW_TAG_member, name: "dirty", scope: !211, file: !195, line: 192, baseType: !214, size: 32, offset: 64)
!217 = !DIDerivedType(tag: DW_TAG_member, name: "real_data", scope: !211, file: !195, line: 197, baseType: !218, size: 64, offset: 96)
!218 = !DICompositeType(tag: DW_TAG_array_type, baseType: !200, size: 64, elements: !219)
!219 = !{!220}
!220 = !DISubrange(count: 8)
!221 = !DIDerivedType(tag: DW_TAG_member, name: "null_data", scope: !194, file: !195, line: 292, baseType: !199, flags: DIFlagStaticMember)
!222 = !DIDerivedType(tag: DW_TAG_member, name: "oom_data", scope: !194, file: !195, line: 293, baseType: !223, flags: DIFlagStaticMember)
!223 = !DICompositeType(tag: DW_TAG_array_type, baseType: !199, size: 120, elements: !224)
!224 = !{!225}
!225 = !DISubrange(count: 15)
!226 = !DIDerivedType(tag: DW_TAG_member, name: "int_data", scope: !194, file: !195, line: 294, baseType: !227, flags: DIFlagStaticMember)
!227 = !DICompositeType(tag: DW_TAG_array_type, baseType: !199, size: 160, elements: !228)
!228 = !{!229}
!229 = !DISubrange(count: 20)
!230 = !DIDerivedType(tag: DW_TAG_member, name: "null_string_rep", scope: !194, file: !195, line: 295, baseType: !231, flags: DIFlagStaticMember)
!231 = !DIDerivedType(tag: DW_TAG_const_type, baseType: !204)
!232 = !DIDerivedType(tag: DW_TAG_member, name: "oom_string_rep", scope: !194, file: !195, line: 296, baseType: !231, flags: DIFlagStaticMember)
!233 = !DISubprogram(name: "String", scope: !194, file: !195, line: 39, type: !234, scopeLine: 39, flags: DIFlagPublic | DIFlagPrototyped, spFlags: DISPFlagOptimized)
!234 = !DISubroutineType(types: !235)
!235 = !{null, !236}
!236 = !DIDerivedType(tag: DW_TAG_pointer_type, baseType: !194, size: 64, flags: DIFlagArtificial | DIFlagObjectPointer)
!237 = !DISubprogram(name: "String", scope: !194, file: !195, line: 40, type: !238, scopeLine: 40, flags: DIFlagPublic | DIFlagPrototyped, spFlags: DISPFlagOptimized)
!238 = !DISubroutineType(types: !239)
!239 = !{null, !236, !240}
!240 = !DIDerivedType(tag: DW_TAG_reference_type, baseType: !241, size: 64)
!241 = !DIDerivedType(tag: DW_TAG_const_type, baseType: !194)
!242 = !DISubprogram(name: "String", scope: !194, file: !195, line: 42, type: !243, scopeLine: 42, flags: DIFlagPublic | DIFlagPrototyped, spFlags: DISPFlagOptimized)
!243 = !DISubroutineType(types: !244)
!244 = !{null, !236, !245}
!245 = !DIDerivedType(tag: DW_TAG_rvalue_reference_type, baseType: !194, size: 64)
!246 = !DISubprogram(name: "String", scope: !194, file: !195, line: 44, type: !247, scopeLine: 44, flags: DIFlagPublic | DIFlagPrototyped, spFlags: DISPFlagOptimized)
!247 = !DISubroutineType(types: !248)
!248 = !{null, !236, !207}
!249 = !DISubprogram(name: "String", scope: !194, file: !195, line: 45, type: !250, scopeLine: 45, flags: DIFlagPublic | DIFlagPrototyped, spFlags: DISPFlagOptimized)
!250 = !DISubroutineType(types: !251)
!251 = !{null, !236, !207, !40}
!252 = !DISubprogram(name: "String", scope: !194, file: !195, line: 46, type: !253, scopeLine: 46, flags: DIFlagPublic | DIFlagPrototyped, spFlags: DISPFlagOptimized)
!253 = !DISubroutineType(types: !254)
!254 = !{null, !236, !255, !40}
!255 = !DIDerivedType(tag: DW_TAG_pointer_type, baseType: !256, size: 64)
!256 = !DIDerivedType(tag: DW_TAG_const_type, baseType: !257)
!257 = !DIBasicType(name: "unsigned char", size: 8, encoding: DW_ATE_unsigned_char)
!258 = !DISubprogram(name: "String", scope: !194, file: !195, line: 47, type: !259, scopeLine: 47, flags: DIFlagPublic | DIFlagPrototyped, spFlags: DISPFlagOptimized)
!259 = !DISubroutineType(types: !260)
!260 = !{null, !236, !207, !207}
!261 = !DISubprogram(name: "String", scope: !194, file: !195, line: 48, type: !262, scopeLine: 48, flags: DIFlagPublic | DIFlagPrototyped, spFlags: DISPFlagOptimized)
!262 = !DISubroutineType(types: !263)
!263 = !{null, !236, !255, !255}
!264 = !DISubprogram(name: "String", scope: !194, file: !195, line: 49, type: !265, scopeLine: 49, flags: DIFlagPublic | DIFlagExplicit | DIFlagPrototyped, spFlags: DISPFlagOptimized)
!265 = !DISubroutineType(types: !266)
!266 = !{null, !236, !104}
!267 = !DISubprogram(name: "String", scope: !194, file: !195, line: 50, type: !268, scopeLine: 50, flags: DIFlagPublic | DIFlagExplicit | DIFlagPrototyped, spFlags: DISPFlagOptimized)
!268 = !DISubroutineType(types: !269)
!269 = !{null, !236, !200}
!270 = !DISubprogram(name: "String", scope: !194, file: !195, line: 51, type: !271, scopeLine: 51, flags: DIFlagPublic | DIFlagExplicit | DIFlagPrototyped, spFlags: DISPFlagOptimized)
!271 = !DISubroutineType(types: !272)
!272 = !{null, !236, !257}
!273 = !DISubprogram(name: "String", scope: !194, file: !195, line: 52, type: !274, scopeLine: 52, flags: DIFlagPublic | DIFlagExplicit | DIFlagPrototyped, spFlags: DISPFlagOptimized)
!274 = !DISubroutineType(types: !275)
!275 = !{null, !236, !40}
!276 = !DISubprogram(name: "String", scope: !194, file: !195, line: 53, type: !277, scopeLine: 53, flags: DIFlagPublic | DIFlagExplicit | DIFlagPrototyped, spFlags: DISPFlagOptimized)
!277 = !DISubroutineType(types: !278)
!278 = !{null, !236, !6}
!279 = !DISubprogram(name: "String", scope: !194, file: !195, line: 54, type: !280, scopeLine: 54, flags: DIFlagPublic | DIFlagExplicit | DIFlagPrototyped, spFlags: DISPFlagOptimized)
!280 = !DISubroutineType(types: !281)
!281 = !{null, !236, !26}
!282 = !DISubprogram(name: "String", scope: !194, file: !195, line: 55, type: !283, scopeLine: 55, flags: DIFlagPublic | DIFlagExplicit | DIFlagPrototyped, spFlags: DISPFlagOptimized)
!283 = !DISubroutineType(types: !284)
!284 = !{null, !236, !44}
!285 = !DISubprogram(name: "String", scope: !194, file: !195, line: 57, type: !286, scopeLine: 57, flags: DIFlagPublic | DIFlagExplicit | DIFlagPrototyped, spFlags: DISPFlagOptimized)
!286 = !DISubroutineType(types: !287)
!287 = !{null, !236, !288}
!288 = !DIBasicType(name: "long long int", size: 64, encoding: DW_ATE_signed)
!289 = !DISubprogram(name: "String", scope: !194, file: !195, line: 58, type: !290, scopeLine: 58, flags: DIFlagPublic | DIFlagExplicit | DIFlagPrototyped, spFlags: DISPFlagOptimized)
!290 = !DISubroutineType(types: !291)
!291 = !{null, !236, !292}
!292 = !DIBasicType(name: "long long unsigned int", size: 64, encoding: DW_ATE_unsigned)
!293 = !DISubprogram(name: "String", scope: !194, file: !195, line: 65, type: !294, scopeLine: 65, flags: DIFlagPublic | DIFlagExplicit | DIFlagPrototyped, spFlags: DISPFlagOptimized)
!294 = !DISubroutineType(types: !295)
!295 = !{null, !236, !51}
!296 = !DISubprogram(name: "~String", scope: !194, file: !195, line: 67, type: !234, scopeLine: 67, flags: DIFlagPublic | DIFlagPrototyped, spFlags: DISPFlagOptimized)
!297 = !DISubprogram(name: "make_empty", linkageName: "_ZN6String10make_emptyEv", scope: !194, file: !195, line: 69, type: !298, scopeLine: 69, flags: DIFlagPublic | DIFlagPrototyped | DIFlagStaticMember, spFlags: DISPFlagOptimized)
!298 = !DISubroutineType(types: !299)
!299 = !{!240}
!300 = !DISubprogram(name: "make_uninitialized", linkageName: "_ZN6String18make_uninitializedEi", scope: !194, file: !195, line: 70, type: !301, scopeLine: 70, flags: DIFlagPublic | DIFlagPrototyped | DIFlagStaticMember, spFlags: DISPFlagOptimized)
!301 = !DISubroutineType(types: !302)
!302 = !{!194, !40}
!303 = !DISubprogram(name: "make_garbage", linkageName: "_ZN6String12make_garbageEi", scope: !194, file: !195, line: 71, type: !301, scopeLine: 71, flags: DIFlagPublic | DIFlagPrototyped | DIFlagStaticMember, spFlags: DISPFlagOptimized)
!304 = !DISubprogram(name: "make_stable", linkageName: "_ZN6String11make_stableEPKc", scope: !194, file: !195, line: 72, type: !305, scopeLine: 72, flags: DIFlagPublic | DIFlagPrototyped | DIFlagStaticMember, spFlags: DISPFlagOptimized)
!305 = !DISubroutineType(types: !306)
!306 = !{!194, !207}
!307 = !DISubprogram(name: "make_stable", linkageName: "_ZN6String11make_stableEPKci", scope: !194, file: !195, line: 73, type: !308, scopeLine: 73, flags: DIFlagPublic | DIFlagPrototyped | DIFlagStaticMember, spFlags: DISPFlagOptimized)
!308 = !DISubroutineType(types: !309)
!309 = !{!194, !207, !40}
!310 = !DISubprogram(name: "make_stable", linkageName: "_ZN6String11make_stableEPKcS1_", scope: !194, file: !195, line: 74, type: !311, scopeLine: 74, flags: DIFlagPublic | DIFlagPrototyped | DIFlagStaticMember, spFlags: DISPFlagOptimized)
!311 = !DISubroutineType(types: !312)
!312 = !{!194, !207, !207}
!313 = !DISubprogram(name: "make_numeric", linkageName: "_ZN6String12make_numericElib", scope: !194, file: !195, line: 75, type: !314, scopeLine: 75, flags: DIFlagPublic | DIFlagPrototyped | DIFlagStaticMember, spFlags: DISPFlagOptimized)
!314 = !DISubroutineType(types: !315)
!315 = !{!194, !316, !40, !104}
!316 = !DIDerivedType(tag: DW_TAG_typedef, name: "intmax_t", scope: !194, file: !195, line: 27, baseType: !22)
!317 = !DISubprogram(name: "make_numeric", linkageName: "_ZN6String12make_numericEmib", scope: !194, file: !195, line: 76, type: !318, scopeLine: 76, flags: DIFlagPublic | DIFlagPrototyped | DIFlagStaticMember, spFlags: DISPFlagOptimized)
!318 = !DISubroutineType(types: !319)
!319 = !{!194, !320, !40, !104}
!320 = !DIDerivedType(tag: DW_TAG_typedef, name: "uintmax_t", scope: !194, file: !195, line: 28, baseType: !321)
!321 = !DIDerivedType(tag: DW_TAG_typedef, name: "uint64_t", file: !35, line: 27, baseType: !322)
!322 = !DIDerivedType(tag: DW_TAG_typedef, name: "__uint64_t", file: !25, line: 45, baseType: !44)
!323 = !DISubprogram(name: "data", linkageName: "_ZNK6String4dataEv", scope: !194, file: !195, line: 78, type: !324, scopeLine: 78, flags: DIFlagPublic | DIFlagPrototyped, spFlags: DISPFlagOptimized)
!324 = !DISubroutineType(types: !325)
!325 = !{!207, !326}
!326 = !DIDerivedType(tag: DW_TAG_pointer_type, baseType: !241, size: 64, flags: DIFlagArtificial | DIFlagObjectPointer)
!327 = !DISubprogram(name: "length", linkageName: "_ZNK6String6lengthEv", scope: !194, file: !195, line: 79, type: !328, scopeLine: 79, flags: DIFlagPublic | DIFlagPrototyped, spFlags: DISPFlagOptimized)
!328 = !DISubroutineType(types: !329)
!329 = !{!40, !326}
!330 = !DISubprogram(name: "c_str", linkageName: "_ZNK6String5c_strEv", scope: !194, file: !195, line: 81, type: !324, scopeLine: 81, flags: DIFlagPublic | DIFlagPrototyped, spFlags: DISPFlagOptimized)
!331 = !DISubprogram(name: "operator int (String::*)() const", linkageName: "_ZNK6StringcvMS_KFivEEv", scope: !194, file: !195, line: 83, type: !332, scopeLine: 83, flags: DIFlagPublic | DIFlagPrototyped, spFlags: DISPFlagOptimized)
!332 = !DISubroutineType(types: !333)
!333 = !{!334, !326}
!334 = !DIDerivedType(tag: DW_TAG_typedef, name: "unspecified_bool_type", scope: !194, file: !195, line: 24, baseType: !335)
!335 = !DIDerivedType(tag: DW_TAG_ptr_to_member_type, baseType: !328, size: 128, extraData: !194)
!336 = !DISubprogram(name: "empty", linkageName: "_ZNK6String5emptyEv", scope: !194, file: !195, line: 84, type: !337, scopeLine: 84, flags: DIFlagPublic | DIFlagPrototyped, spFlags: DISPFlagOptimized)
!337 = !DISubroutineType(types: !338)
!338 = !{!104, !326}
!339 = !DISubprogram(name: "operator!", linkageName: "_ZNK6StringntEv", scope: !194, file: !195, line: 85, type: !337, scopeLine: 85, flags: DIFlagPublic | DIFlagPrototyped, spFlags: DISPFlagOptimized)
!340 = !DISubprogram(name: "begin", linkageName: "_ZNK6String5beginEv", scope: !194, file: !195, line: 87, type: !341, scopeLine: 87, flags: DIFlagPublic | DIFlagPrototyped, spFlags: DISPFlagOptimized)
!341 = !DISubroutineType(types: !342)
!342 = !{!343, !326}
!343 = !DIDerivedType(tag: DW_TAG_typedef, name: "const_iterator", scope: !194, file: !195, line: 21, baseType: !207)
!344 = !DISubprogram(name: "end", linkageName: "_ZNK6String3endEv", scope: !194, file: !195, line: 88, type: !341, scopeLine: 88, flags: DIFlagPublic | DIFlagPrototyped, spFlags: DISPFlagOptimized)
!345 = !DISubprogram(name: "operator[]", linkageName: "_ZNK6StringixEi", scope: !194, file: !195, line: 90, type: !346, scopeLine: 90, flags: DIFlagPublic | DIFlagPrototyped, spFlags: DISPFlagOptimized)
!346 = !DISubroutineType(types: !347)
!347 = !{!200, !326, !40}
!348 = !DISubprogram(name: "at", linkageName: "_ZNK6String2atEi", scope: !194, file: !195, line: 91, type: !346, scopeLine: 91, flags: DIFlagPublic | DIFlagPrototyped, spFlags: DISPFlagOptimized)
!349 = !DISubprogram(name: "front", linkageName: "_ZNK6String5frontEv", scope: !194, file: !195, line: 92, type: !350, scopeLine: 92, flags: DIFlagPublic | DIFlagPrototyped, spFlags: DISPFlagOptimized)
!350 = !DISubroutineType(types: !351)
!351 = !{!200, !326}
!352 = !DISubprogram(name: "back", linkageName: "_ZNK6String4backEv", scope: !194, file: !195, line: 93, type: !350, scopeLine: 93, flags: DIFlagPublic | DIFlagPrototyped, spFlags: DISPFlagOptimized)
!353 = !DISubprogram(name: "hashcode", linkageName: "_ZN6String8hashcodeEPKcS1_", scope: !194, file: !195, line: 95, type: !354, scopeLine: 95, flags: DIFlagPublic | DIFlagPrototyped | DIFlagStaticMember, spFlags: DISPFlagOptimized)
!354 = !DISubroutineType(types: !355)
!355 = !{!34, !207, !207}
!356 = !DISubprogram(name: "hashcode", linkageName: "_ZN6String8hashcodeEPKhS1_", scope: !194, file: !195, line: 96, type: !357, scopeLine: 96, flags: DIFlagPublic | DIFlagPrototyped | DIFlagStaticMember, spFlags: DISPFlagOptimized)
!357 = !DISubroutineType(types: !358)
!358 = !{!34, !255, !255}
!359 = !DISubprogram(name: "hashcode", linkageName: "_ZNK6String8hashcodeEv", scope: !194, file: !195, line: 98, type: !360, scopeLine: 98, flags: DIFlagPublic | DIFlagPrototyped, spFlags: DISPFlagOptimized)
!360 = !DISubroutineType(types: !361)
!361 = !{!34, !326}
!362 = !DISubprogram(name: "substring", linkageName: "_ZNK6String9substringEPKcS1_", scope: !194, file: !195, line: 100, type: !363, scopeLine: 100, flags: DIFlagPublic | DIFlagPrototyped, spFlags: DISPFlagOptimized)
!363 = !DISubroutineType(types: !364)
!364 = !{!194, !326, !207, !207}
!365 = !DISubprogram(name: "substring", linkageName: "_ZNK6String9substringEii", scope: !194, file: !195, line: 101, type: !366, scopeLine: 101, flags: DIFlagPublic | DIFlagPrototyped, spFlags: DISPFlagOptimized)
!366 = !DISubroutineType(types: !367)
!367 = !{!194, !326, !40, !40}
!368 = !DISubprogram(name: "substring", linkageName: "_ZNK6String9substringEi", scope: !194, file: !195, line: 102, type: !369, scopeLine: 102, flags: DIFlagPublic | DIFlagPrototyped, spFlags: DISPFlagOptimized)
!369 = !DISubroutineType(types: !370)
!370 = !{!194, !326, !40}
!371 = !DISubprogram(name: "trim_space", linkageName: "_ZNK6String10trim_spaceEv", scope: !194, file: !195, line: 103, type: !372, scopeLine: 103, flags: DIFlagPublic | DIFlagPrototyped, spFlags: DISPFlagOptimized)
!372 = !DISubroutineType(types: !373)
!373 = !{!194, !326}
!374 = !DISubprogram(name: "equals", linkageName: "_ZNK6String6equalsERKS_", scope: !194, file: !195, line: 105, type: !375, scopeLine: 105, flags: DIFlagPublic | DIFlagPrototyped, spFlags: DISPFlagOptimized)
!375 = !DISubroutineType(types: !376)
!376 = !{!104, !326, !240}
!377 = !DISubprogram(name: "equals", linkageName: "_ZNK6String6equalsEPKci", scope: !194, file: !195, line: 106, type: !378, scopeLine: 106, flags: DIFlagPublic | DIFlagPrototyped, spFlags: DISPFlagOptimized)
!378 = !DISubroutineType(types: !379)
!379 = !{!104, !326, !207, !40}
!380 = !DISubprogram(name: "compare", linkageName: "_ZN6String7compareERKS_S1_", scope: !194, file: !195, line: 107, type: !381, scopeLine: 107, flags: DIFlagPublic | DIFlagPrototyped | DIFlagStaticMember, spFlags: DISPFlagOptimized)
!381 = !DISubroutineType(types: !382)
!382 = !{!40, !240, !240}
!383 = !DISubprogram(name: "compare", linkageName: "_ZNK6String7compareERKS_", scope: !194, file: !195, line: 108, type: !384, scopeLine: 108, flags: DIFlagPublic | DIFlagPrototyped, spFlags: DISPFlagOptimized)
!384 = !DISubroutineType(types: !385)
!385 = !{!40, !326, !240}
!386 = !DISubprogram(name: "compare", linkageName: "_ZNK6String7compareEPKci", scope: !194, file: !195, line: 109, type: !387, scopeLine: 109, flags: DIFlagPublic | DIFlagPrototyped, spFlags: DISPFlagOptimized)
!387 = !DISubroutineType(types: !388)
!388 = !{!40, !326, !207, !40}
!389 = !DISubprogram(name: "starts_with", linkageName: "_ZNK6String11starts_withERKS_", scope: !194, file: !195, line: 110, type: !375, scopeLine: 110, flags: DIFlagPublic | DIFlagPrototyped, spFlags: DISPFlagOptimized)
!390 = !DISubprogram(name: "starts_with", linkageName: "_ZNK6String11starts_withEPKci", scope: !194, file: !195, line: 111, type: !378, scopeLine: 111, flags: DIFlagPublic | DIFlagPrototyped, spFlags: DISPFlagOptimized)
!391 = !DISubprogram(name: "glob_match", linkageName: "_ZNK6String10glob_matchERKS_", scope: !194, file: !195, line: 112, type: !375, scopeLine: 112, flags: DIFlagPublic | DIFlagPrototyped, spFlags: DISPFlagOptimized)
!392 = !DISubprogram(name: "find_left", linkageName: "_ZNK6String9find_leftEci", scope: !194, file: !195, line: 125, type: !393, scopeLine: 125, flags: DIFlagPublic | DIFlagPrototyped, spFlags: DISPFlagOptimized)
!393 = !DISubroutineType(types: !394)
!394 = !{!40, !326, !200, !40}
!395 = !DISubprogram(name: "find_left", linkageName: "_ZNK6String9find_leftERKS_i", scope: !194, file: !195, line: 126, type: !396, scopeLine: 126, flags: DIFlagPublic | DIFlagPrototyped, spFlags: DISPFlagOptimized)
!396 = !DISubroutineType(types: !397)
!397 = !{!40, !326, !240, !40}
!398 = !DISubprogram(name: "find_right", linkageName: "_ZNK6String10find_rightEci", scope: !194, file: !195, line: 127, type: !393, scopeLine: 127, flags: DIFlagPublic | DIFlagPrototyped, spFlags: DISPFlagOptimized)
!399 = !DISubprogram(name: "lower", linkageName: "_ZNK6String5lowerEv", scope: !194, file: !195, line: 129, type: !372, scopeLine: 129, flags: DIFlagPublic | DIFlagPrototyped, spFlags: DISPFlagOptimized)
!400 = !DISubprogram(name: "upper", linkageName: "_ZNK6String5upperEv", scope: !194, file: !195, line: 130, type: !372, scopeLine: 130, flags: DIFlagPublic | DIFlagPrototyped, spFlags: DISPFlagOptimized)
!401 = !DISubprogram(name: "printable", linkageName: "_ZNK6String9printableEv", scope: !194, file: !195, line: 131, type: !372, scopeLine: 131, flags: DIFlagPublic | DIFlagPrototyped, spFlags: DISPFlagOptimized)
!402 = !DISubprogram(name: "quoted_hex", linkageName: "_ZNK6String10quoted_hexEv", scope: !194, file: !195, line: 132, type: !372, scopeLine: 132, flags: DIFlagPublic | DIFlagPrototyped, spFlags: DISPFlagOptimized)
!403 = !DISubprogram(name: "encode_json", linkageName: "_ZNK6String11encode_jsonEv", scope: !194, file: !195, line: 133, type: !372, scopeLine: 133, flags: DIFlagPublic | DIFlagPrototyped, spFlags: DISPFlagOptimized)
!404 = !DISubprogram(name: "operator=", linkageName: "_ZN6StringaSERKS_", scope: !194, file: !195, line: 135, type: !405, scopeLine: 135, flags: DIFlagPublic | DIFlagPrototyped, spFlags: DISPFlagOptimized)
!405 = !DISubroutineType(types: !406)
!406 = !{!407, !236, !240}
!407 = !DIDerivedType(tag: DW_TAG_reference_type, baseType: !194, size: 64)
!408 = !DISubprogram(name: "operator=", linkageName: "_ZN6StringaSEOS_", scope: !194, file: !195, line: 137, type: !409, scopeLine: 137, flags: DIFlagPublic | DIFlagPrototyped, spFlags: DISPFlagOptimized)
!409 = !DISubroutineType(types: !410)
!410 = !{!407, !236, !245}
!411 = !DISubprogram(name: "operator=", linkageName: "_ZN6StringaSEPKc", scope: !194, file: !195, line: 139, type: !412, scopeLine: 139, flags: DIFlagPublic | DIFlagPrototyped, spFlags: DISPFlagOptimized)
!412 = !DISubroutineType(types: !413)
!413 = !{!407, !236, !207}
!414 = !DISubprogram(name: "swap", linkageName: "_ZN6String4swapERS_", scope: !194, file: !195, line: 141, type: !415, scopeLine: 141, flags: DIFlagPublic | DIFlagPrototyped, spFlags: DISPFlagOptimized)
!415 = !DISubroutineType(types: !416)
!416 = !{null, !236, !407}
!417 = !DISubprogram(name: "append", linkageName: "_ZN6String6appendERKS_", scope: !194, file: !195, line: 143, type: !238, scopeLine: 143, flags: DIFlagPublic | DIFlagPrototyped, spFlags: DISPFlagOptimized)
!418 = !DISubprogram(name: "append", linkageName: "_ZN6String6appendEPKc", scope: !194, file: !195, line: 144, type: !247, scopeLine: 144, flags: DIFlagPublic | DIFlagPrototyped, spFlags: DISPFlagOptimized)
!419 = !DISubprogram(name: "append", linkageName: "_ZN6String6appendEPKci", scope: !194, file: !195, line: 145, type: !250, scopeLine: 145, flags: DIFlagPublic | DIFlagPrototyped, spFlags: DISPFlagOptimized)
!420 = !DISubprogram(name: "append", linkageName: "_ZN6String6appendEPKcS1_", scope: !194, file: !195, line: 146, type: !259, scopeLine: 146, flags: DIFlagPublic | DIFlagPrototyped, spFlags: DISPFlagOptimized)
!421 = !DISubprogram(name: "append", linkageName: "_ZN6String6appendEc", scope: !194, file: !195, line: 147, type: !268, scopeLine: 147, flags: DIFlagPublic | DIFlagPrototyped, spFlags: DISPFlagOptimized)
!422 = !DISubprogram(name: "append_fill", linkageName: "_ZN6String11append_fillEii", scope: !194, file: !195, line: 148, type: !423, scopeLine: 148, flags: DIFlagPublic | DIFlagPrototyped, spFlags: DISPFlagOptimized)
!423 = !DISubroutineType(types: !424)
!424 = !{null, !236, !40, !40}
!425 = !DISubprogram(name: "append_uninitialized", linkageName: "_ZN6String20append_uninitializedEi", scope: !194, file: !195, line: 149, type: !426, scopeLine: 149, flags: DIFlagPublic | DIFlagPrototyped, spFlags: DISPFlagOptimized)
!426 = !DISubroutineType(types: !427)
!427 = !{!428, !236, !40}
!428 = !DIDerivedType(tag: DW_TAG_pointer_type, baseType: !200, size: 64)
!429 = !DISubprogram(name: "append_garbage", linkageName: "_ZN6String14append_garbageEi", scope: !194, file: !195, line: 150, type: !426, scopeLine: 150, flags: DIFlagPublic | DIFlagPrototyped, spFlags: DISPFlagOptimized)
!430 = !DISubprogram(name: "operator+=", linkageName: "_ZN6StringpLERKS_", scope: !194, file: !195, line: 152, type: !405, scopeLine: 152, flags: DIFlagPublic | DIFlagPrototyped, spFlags: DISPFlagOptimized)
!431 = !DISubprogram(name: "operator+=", linkageName: "_ZN6StringpLEPKc", scope: !194, file: !195, line: 153, type: !412, scopeLine: 153, flags: DIFlagPublic | DIFlagPrototyped, spFlags: DISPFlagOptimized)
!432 = !DISubprogram(name: "operator+=", linkageName: "_ZN6StringpLEc", scope: !194, file: !195, line: 154, type: !433, scopeLine: 154, flags: DIFlagPublic | DIFlagPrototyped, spFlags: DISPFlagOptimized)
!433 = !DISubroutineType(types: !434)
!434 = !{!407, !236, !200}
!435 = !DISubprogram(name: "is_shared", linkageName: "_ZNK6String9is_sharedEv", scope: !194, file: !195, line: 160, type: !337, scopeLine: 160, flags: DIFlagPublic | DIFlagPrototyped, spFlags: DISPFlagOptimized)
!436 = !DISubprogram(name: "is_stable", linkageName: "_ZNK6String9is_stableEv", scope: !194, file: !195, line: 161, type: !337, scopeLine: 161, flags: DIFlagPublic | DIFlagPrototyped, spFlags: DISPFlagOptimized)
!437 = !DISubprogram(name: "unique", linkageName: "_ZNK6String6uniqueEv", scope: !194, file: !195, line: 163, type: !372, scopeLine: 163, flags: DIFlagPublic | DIFlagPrototyped, spFlags: DISPFlagOptimized)
!438 = !DISubprogram(name: "unshared", linkageName: "_ZNK6String8unsharedEv", scope: !194, file: !195, line: 164, type: !372, scopeLine: 164, flags: DIFlagPublic | DIFlagPrototyped, spFlags: DISPFlagOptimized)
!439 = !DISubprogram(name: "compact", linkageName: "_ZNK6String7compactEv", scope: !194, file: !195, line: 165, type: !372, scopeLine: 165, flags: DIFlagPublic | DIFlagPrototyped, spFlags: DISPFlagOptimized)
!440 = !DISubprogram(name: "mutable_data", linkageName: "_ZN6String12mutable_dataEv", scope: !194, file: !195, line: 167, type: !441, scopeLine: 167, flags: DIFlagPublic | DIFlagPrototyped, spFlags: DISPFlagOptimized)
!441 = !DISubroutineType(types: !442)
!442 = !{!428, !236}
!443 = !DISubprogram(name: "mutable_c_str", linkageName: "_ZN6String13mutable_c_strEv", scope: !194, file: !195, line: 168, type: !441, scopeLine: 168, flags: DIFlagPublic | DIFlagPrototyped, spFlags: DISPFlagOptimized)
!444 = !DISubprogram(name: "make_out_of_memory", linkageName: "_ZN6String18make_out_of_memoryEv", scope: !194, file: !195, line: 170, type: !298, scopeLine: 170, flags: DIFlagPublic | DIFlagPrototyped | DIFlagStaticMember, spFlags: DISPFlagOptimized)
!445 = !DISubprogram(name: "out_of_memory", linkageName: "_ZNK6String13out_of_memoryEv", scope: !194, file: !195, line: 171, type: !337, scopeLine: 171, flags: DIFlagPublic | DIFlagPrototyped, spFlags: DISPFlagOptimized)
!446 = !DISubprogram(name: "out_of_memory_data", linkageName: "_ZN6String18out_of_memory_dataEv", scope: !194, file: !195, line: 172, type: !447, scopeLine: 172, flags: DIFlagPublic | DIFlagPrototyped | DIFlagStaticMember, spFlags: DISPFlagOptimized)
!447 = !DISubroutineType(types: !448)
!448 = !{!207}
!449 = !DISubprogram(name: "out_of_memory_length", linkageName: "_ZN6String20out_of_memory_lengthEv", scope: !194, file: !195, line: 173, type: !450, scopeLine: 173, flags: DIFlagPublic | DIFlagPrototyped | DIFlagStaticMember, spFlags: DISPFlagOptimized)
!450 = !DISubroutineType(types: !451)
!451 = !{!40}
!452 = !DISubprogram(name: "empty_data", linkageName: "_ZN6String10empty_dataEv", scope: !194, file: !195, line: 174, type: !447, scopeLine: 174, flags: DIFlagPublic | DIFlagPrototyped | DIFlagStaticMember, spFlags: DISPFlagOptimized)
!453 = !DISubprogram(name: "skip_utf8_char", linkageName: "_ZN6String14skip_utf8_charEPKcS1_", scope: !194, file: !195, line: 180, type: !454, scopeLine: 180, flags: DIFlagPublic | DIFlagPrototyped | DIFlagStaticMember, spFlags: DISPFlagOptimized)
!454 = !DISubroutineType(types: !455)
!455 = !{!207, !207, !207}
!456 = !DISubprogram(name: "skip_utf8_char", linkageName: "_ZN6String14skip_utf8_charEPKhS1_", scope: !194, file: !195, line: 181, type: !457, scopeLine: 181, flags: DIFlagPublic | DIFlagPrototyped | DIFlagStaticMember, spFlags: DISPFlagOptimized)
!457 = !DISubroutineType(types: !458)
!458 = !{!255, !255, !255}
!459 = !DISubprogram(name: "assign_memo", linkageName: "_ZNK6String11assign_memoEPKciPNS_6memo_tE", scope: !194, file: !195, line: 256, type: !460, scopeLine: 256, flags: DIFlagPrototyped, spFlags: DISPFlagOptimized)
!460 = !DISubroutineType(types: !461)
!461 = !{null, !326, !207, !40, !210}
!462 = !DISubprogram(name: "String", scope: !194, file: !195, line: 263, type: !463, scopeLine: 263, flags: DIFlagPrototyped, spFlags: DISPFlagOptimized)
!463 = !DISubroutineType(types: !464)
!464 = !{null, !236, !207, !40, !210}
!465 = !DISubprogram(name: "assign", linkageName: "_ZNK6String6assignERKS_", scope: !194, file: !195, line: 267, type: !466, scopeLine: 267, flags: DIFlagPrototyped, spFlags: DISPFlagOptimized)
!466 = !DISubroutineType(types: !467)
!467 = !{null, !326, !240}
!468 = !DISubprogram(name: "deref", linkageName: "_ZNK6String5derefEv", scope: !194, file: !195, line: 271, type: !469, scopeLine: 271, flags: DIFlagPrototyped, spFlags: DISPFlagOptimized)
!469 = !DISubroutineType(types: !470)
!470 = !{null, !326}
!471 = !DISubprogram(name: "assign", linkageName: "_ZN6String6assignEPKcib", scope: !194, file: !195, line: 280, type: !472, scopeLine: 280, flags: DIFlagPrototyped, spFlags: DISPFlagOptimized)
!472 = !DISubroutineType(types: !473)
!473 = !{null, !236, !207, !40, !104}
!474 = !DISubprogram(name: "assign_out_of_memory", linkageName: "_ZN6String20assign_out_of_memoryEv", scope: !194, file: !195, line: 281, type: !234, scopeLine: 281, flags: DIFlagPrototyped, spFlags: DISPFlagOptimized)
!475 = !DISubprogram(name: "append", linkageName: "_ZN6String6appendEPKciPNS_6memo_tE", scope: !194, file: !195, line: 282, type: !463, scopeLine: 282, flags: DIFlagPrototyped, spFlags: DISPFlagOptimized)
!476 = !DISubprogram(name: "hard_make_stable", linkageName: "_ZN6String16hard_make_stableEPKci", scope: !194, file: !195, line: 283, type: !308, scopeLine: 283, flags: DIFlagPrototyped | DIFlagStaticMember, spFlags: DISPFlagOptimized)
!477 = !DISubprogram(name: "absent_memo", linkageName: "_ZN6String11absent_memoEv", scope: !194, file: !195, line: 284, type: !478, scopeLine: 284, flags: DIFlagPrototyped | DIFlagStaticMember, spFlags: DISPFlagOptimized)
!478 = !DISubroutineType(types: !479)
!479 = !{!210}
!480 = !DISubprogram(name: "create_memo", linkageName: "_ZN6String11create_memoEPcii", scope: !194, file: !195, line: 287, type: !481, scopeLine: 287, flags: DIFlagPrototyped | DIFlagStaticMember, spFlags: DISPFlagOptimized)
!481 = !DISubroutineType(types: !482)
!482 = !{!210, !428, !40, !40}
!483 = !DISubprogram(name: "delete_memo", linkageName: "_ZN6String11delete_memoEPNS_6memo_tE", scope: !194, file: !195, line: 288, type: !484, scopeLine: 288, flags: DIFlagPrototyped | DIFlagStaticMember, spFlags: DISPFlagOptimized)
!484 = !DISubroutineType(types: !485)
!485 = !{null, !210}
!486 = !DISubprogram(name: "hard_c_str", linkageName: "_ZNK6String10hard_c_strEv", scope: !194, file: !195, line: 289, type: !324, scopeLine: 289, flags: DIFlagPrototyped, spFlags: DISPFlagOptimized)
!487 = !DISubprogram(name: "hard_equals", linkageName: "_ZNK6String11hard_equalsEPKci", scope: !194, file: !195, line: 290, type: !378, scopeLine: 290, flags: DIFlagPrototyped, spFlags: DISPFlagOptimized)
!488 = !DISubprogram(name: "make_claim", linkageName: "_ZN6String10make_claimEPcii", scope: !194, file: !195, line: 299, type: !489, scopeLine: 299, flags: DIFlagPrototyped | DIFlagStaticMember, spFlags: DISPFlagOptimized)
!489 = !DISubroutineType(types: !490)
!490 = !{!194, !428, !40, !40}
!491 = !DISubprogram(name: "unparse_interval", linkageName: "_ZNK9Timestamp16unparse_intervalEv", scope: !16, file: !15, line: 501, type: !192, scopeLine: 501, flags: DIFlagPublic | DIFlagPrototyped, spFlags: DISPFlagOptimized)
!492 = !DISubprogram(name: "msec_to_subsec", linkageName: "_ZN9Timestamp14msec_to_subsecEj", scope: !16, file: !15, line: 510, type: !493, scopeLine: 510, flags: DIFlagPublic | DIFlagPrototyped | DIFlagStaticMember, spFlags: DISPFlagOptimized)
!493 = !DISubroutineType(types: !494)
!494 = !{!34, !34}
!495 = !DISubprogram(name: "usec_to_subsec", linkageName: "_ZN9Timestamp14usec_to_subsecEj", scope: !16, file: !15, line: 514, type: !493, scopeLine: 514, flags: DIFlagPublic | DIFlagPrototyped | DIFlagStaticMember, spFlags: DISPFlagOptimized)
!496 = !DISubprogram(name: "nsec_to_subsec", linkageName: "_ZN9Timestamp14nsec_to_subsecEj", scope: !16, file: !15, line: 518, type: !493, scopeLine: 518, flags: DIFlagPublic | DIFlagPrototyped | DIFlagStaticMember, spFlags: DISPFlagOptimized)
!497 = !DISubprogram(name: "subsec_to_msec", linkageName: "_ZN9Timestamp14subsec_to_msecEj", scope: !16, file: !15, line: 522, type: !493, scopeLine: 522, flags: DIFlagPublic | DIFlagPrototyped | DIFlagStaticMember, spFlags: DISPFlagOptimized)
!498 = !DISubprogram(name: "subsec_to_usec", linkageName: "_ZN9Timestamp14subsec_to_usecEj", scope: !16, file: !15, line: 526, type: !493, scopeLine: 526, flags: DIFlagPublic | DIFlagPrototyped | DIFlagStaticMember, spFlags: DISPFlagOptimized)
!499 = !DISubprogram(name: "subsec_to_nsec", linkageName: "_ZN9Timestamp14subsec_to_nsecEj", scope: !16, file: !15, line: 530, type: !493, scopeLine: 530, flags: DIFlagPublic | DIFlagPrototyped | DIFlagStaticMember, spFlags: DISPFlagOptimized)
!500 = !DISubprogram(name: "warp_class", linkageName: "_ZN9Timestamp10warp_classEv", scope: !16, file: !15, line: 581, type: !450, scopeLine: 581, flags: DIFlagPublic | DIFlagPrototyped | DIFlagStaticMember, spFlags: DISPFlagOptimized)
!501 = !DISubprogram(name: "warp_speed", linkageName: "_ZN9Timestamp10warp_speedEv", scope: !16, file: !15, line: 588, type: !502, scopeLine: 588, flags: DIFlagPublic | DIFlagPrototyped | DIFlagStaticMember, spFlags: DISPFlagOptimized)
!502 = !DISubroutineType(types: !503)
!503 = !{!51}
!504 = !DISubprogram(name: "warp_set_class", linkageName: "_ZN9Timestamp14warp_set_classENS_15warp_class_typeEd", scope: !16, file: !15, line: 621, type: !505, scopeLine: 621, flags: DIFlagPublic | DIFlagPrototyped | DIFlagStaticMember, spFlags: DISPFlagOptimized)
!505 = !DISubroutineType(types: !506)
!506 = !{null, !14, !51}
!507 = !DISubprogram(name: "warp_set_now", linkageName: "_ZN9Timestamp12warp_set_nowERKS_S1_", scope: !16, file: !15, line: 628, type: !508, scopeLine: 628, flags: DIFlagPublic | DIFlagPrototyped | DIFlagStaticMember, spFlags: DISPFlagOptimized)
!508 = !DISubroutineType(types: !509)
!509 = !{null, !510, !510}
!510 = !DIDerivedType(tag: DW_TAG_reference_type, baseType: !100, size: 64)
!511 = !DISubprogram(name: "warp_real_delay", linkageName: "_ZNK9Timestamp15warp_real_delayEv", scope: !16, file: !15, line: 632, type: !138, scopeLine: 632, flags: DIFlagPublic | DIFlagPrototyped, spFlags: DISPFlagOptimized)
!512 = !DISubprogram(name: "warp_jumping", linkageName: "_ZN9Timestamp12warp_jumpingEv", scope: !16, file: !15, line: 635, type: !513, scopeLine: 635, flags: DIFlagPublic | DIFlagPrototyped | DIFlagStaticMember, spFlags: DISPFlagOptimized)
!513 = !DISubroutineType(types: !514)
!514 = !{!104}
!515 = !DISubprogram(name: "warp_jump_steady", linkageName: "_ZN9Timestamp16warp_jump_steadyERKS_", scope: !16, file: !15, line: 640, type: !516, scopeLine: 640, flags: DIFlagPublic | DIFlagPrototyped | DIFlagStaticMember, spFlags: DISPFlagOptimized)
!516 = !DISubroutineType(types: !517)
!517 = !{null, !510}
!518 = !DISubprogram(name: "now_unwarped", linkageName: "_ZN9Timestamp12now_unwarpedEv", scope: !16, file: !15, line: 647, type: !168, scopeLine: 647, flags: DIFlagPublic | DIFlagPrototyped | DIFlagStaticMember, spFlags: DISPFlagOptimized)
!519 = !DISubprogram(name: "assign_now_unwarped", linkageName: "_ZN9Timestamp19assign_now_unwarpedEv", scope: !16, file: !15, line: 653, type: !28, scopeLine: 653, flags: DIFlagPublic | DIFlagPrototyped, spFlags: DISPFlagOptimized)
!520 = !DISubprogram(name: "now_steady_unwarped", linkageName: "_ZN9Timestamp19now_steady_unwarpedEv", scope: !16, file: !15, line: 659, type: !168, scopeLine: 659, flags: DIFlagPublic | DIFlagPrototyped | DIFlagStaticMember, spFlags: DISPFlagOptimized)
!521 = !DISubprogram(name: "assign_now_steady_unwarped", linkageName: "_ZN9Timestamp26assign_now_steady_unwarpedEv", scope: !16, file: !15, line: 666, type: !28, scopeLine: 666, flags: DIFlagPublic | DIFlagPrototyped, spFlags: DISPFlagOptimized)
!522 = !DISubprogram(name: "add_fix", linkageName: "_ZN9Timestamp7add_fixEv", scope: !16, file: !15, line: 674, type: !28, scopeLine: 674, flags: DIFlagPrototyped, spFlags: DISPFlagOptimized)
!523 = !DISubprogram(name: "sub_fix", linkageName: "_ZN9Timestamp7sub_fixEv", scope: !16, file: !15, line: 686, type: !28, scopeLine: 686, flags: DIFlagPrototyped, spFlags: DISPFlagOptimized)
!524 = !DISubprogram(name: "value_div", linkageName: "_ZN9Timestamp9value_divElj", scope: !16, file: !15, line: 698, type: !525, scopeLine: 698, flags: DIFlagPrototyped | DIFlagStaticMember, spFlags: DISPFlagOptimized)
!525 = !DISubroutineType(types: !526)
!526 = !{!134, !134, !34}
!527 = !DISubprogram(name: "value_div_mod", linkageName: "_ZN9Timestamp13value_div_modERiS0_lj", scope: !16, file: !15, line: 702, type: !528, scopeLine: 702, flags: DIFlagPrototyped | DIFlagStaticMember, spFlags: DISPFlagOptimized)
!528 = !DISubroutineType(types: !529)
!529 = !{null, !530, !530, !134, !34}
!530 = !DIDerivedType(tag: DW_TAG_reference_type, baseType: !97, size: 64)
!531 = !DISubprogram(name: "assign_now", linkageName: "_ZN9Timestamp10assign_nowEbbb", scope: !16, file: !15, line: 709, type: !532, scopeLine: 709, flags: DIFlagPrototyped, spFlags: DISPFlagOptimized)
!532 = !DISubroutineType(types: !533)
!533 = !{null, !30, !104, !104, !104}
!534 = !DISubprogram(name: "warp_adjust", linkageName: "_ZN9Timestamp11warp_adjustEbRKS_S1_", scope: !16, file: !15, line: 712, type: !535, scopeLine: 712, flags: DIFlagPrototyped | DIFlagStaticMember, spFlags: DISPFlagOptimized)
!535 = !DISubroutineType(types: !536)
!536 = !{null, !104, !510, !510}
!537 = !DISubprogram(name: "warped", linkageName: "_ZNK9Timestamp6warpedEb", scope: !16, file: !15, line: 713, type: !538, scopeLine: 713, flags: DIFlagPrototyped, spFlags: DISPFlagOptimized)
!538 = !DISubroutineType(types: !539)
!539 = !{!16, !99, !104}
!540 = !DISubprogram(name: "warp", linkageName: "_ZN9Timestamp4warpEbb", scope: !16, file: !15, line: 714, type: !541, scopeLine: 714, flags: DIFlagPrototyped, spFlags: DISPFlagOptimized)
!541 = !DISubroutineType(types: !542)
!542 = !{null, !30, !104, !104}
!543 = !{!544, !545, !546, !547}
!544 = !DIEnumerator(name: "warp_none", value: 0, isUnsigned: true)
!545 = !DIEnumerator(name: "warp_linear", value: 1, isUnsigned: true)
!546 = !DIEnumerator(name: "warp_nowait", value: 2, isUnsigned: true)
!547 = !DIEnumerator(name: "warp_simulation", value: 3, isUnsigned: true)
!548 = !{!549, !104}
!549 = !DIDerivedType(tag: DW_TAG_pointer_type, baseType: !550, size: 64)
!550 = !DIDerivedType(tag: DW_TAG_typedef, name: "uint8_t", file: !35, line: 24, baseType: !551)
!551 = !DIDerivedType(tag: DW_TAG_typedef, name: "__uint8_t", file: !25, line: 38, baseType: !257)
!552 = !{!553, !610, !614, !620, !624, !630, !634, !639, !641, !646, !650, !654, !667, !671, !675, !679, !683, !687, !691, !695, !699, !703, !711, !715, !719, !721, !723, !727, !731, !737, !741, !745, !747, !755, !759, !766, !768, !772, !776, !780, !784, !788, !793, !798, !799, !800, !801, !803, !804, !805, !806, !807, !808, !809, !811, !812, !813, !814, !815, !816, !817, !822, !823, !824, !825, !826, !827, !828, !829, !830, !831, !832, !833, !834, !835, !836, !837, !838, !839, !840, !841, !842, !843, !844, !845, !846, !852, !854, !856, !860, !862, !864, !866, !868, !870, !872, !874, !879, !883, !885, !887, !892, !894, !896, !898, !900, !902, !904, !907, !909, !911, !915, !919, !921, !923, !925, !927, !929, !931, !933, !935, !937, !939, !943, !947, !949, !951, !953, !955, !957, !959, !961, !963, !965, !967, !969, !971, !973, !975, !977, !981, !985, !989, !991, !993, !995, !997, !999, !1001, !1003, !1005, !1007, !1011, !1015, !1019, !1021, !1023, !1025, !1029, !1033, !1037, !1039, !1041, !1043, !1045, !1047, !1049, !1051, !1053, !1055, !1057, !1059, !1061, !1065, !1069, !1073, !1075, !1077, !1079, !1081, !1085, !1089, !1091, !1093, !1095, !1097, !1099, !1101, !1105, !1109, !1111, !1113, !1115, !1117, !1121, !1125, !1129, !1131, !1133, !1135, !1137, !1139, !1141, !1145, !1149, !1153, !1155, !1159, !1163, !1165, !1167, !1169, !1171, !1173, !1175, !1177}
!553 = !DIImportedEntity(tag: DW_TAG_imported_declaration, scope: !554, entity: !555, file: !556, line: 58)
!554 = !DINamespace(name: "std", scope: null)
!555 = distinct !DICompositeType(tag: DW_TAG_class_type, name: "exception_ptr", scope: !557, file: !556, line: 80, size: 64, flags: DIFlagTypePassByReference | DIFlagNonTrivial, elements: !558, identifier: "_ZTSNSt15__exception_ptr13exception_ptrE")
!556 = !DIFile(filename: "/usr/bin/../lib64/gcc/x86_64-pc-linux-gnu/10.1.0/../../../../include/c++/10.1.0/bits/exception_ptr.h", directory: "")
!557 = !DINamespace(name: "__exception_ptr", scope: !554)
!558 = !{!559, !561, !565, !568, !569, !574, !575, !579, !585, !589, !593, !596, !597, !600, !603}
!559 = !DIDerivedType(tag: DW_TAG_member, name: "_M_exception_object", scope: !555, file: !556, line: 82, baseType: !560, size: 64)
!560 = !DIDerivedType(tag: DW_TAG_pointer_type, baseType: null, size: 64)
!561 = !DISubprogram(name: "exception_ptr", scope: !555, file: !556, line: 84, type: !562, scopeLine: 84, flags: DIFlagExplicit | DIFlagPrototyped, spFlags: DISPFlagOptimized)
!562 = !DISubroutineType(types: !563)
!563 = !{null, !564, !560}
!564 = !DIDerivedType(tag: DW_TAG_pointer_type, baseType: !555, size: 64, flags: DIFlagArtificial | DIFlagObjectPointer)
!565 = !DISubprogram(name: "_M_addref", linkageName: "_ZNSt15__exception_ptr13exception_ptr9_M_addrefEv", scope: !555, file: !556, line: 86, type: !566, scopeLine: 86, flags: DIFlagPrototyped, spFlags: DISPFlagOptimized)
!566 = !DISubroutineType(types: !567)
!567 = !{null, !564}
!568 = !DISubprogram(name: "_M_release", linkageName: "_ZNSt15__exception_ptr13exception_ptr10_M_releaseEv", scope: !555, file: !556, line: 87, type: !566, scopeLine: 87, flags: DIFlagPrototyped, spFlags: DISPFlagOptimized)
!569 = !DISubprogram(name: "_M_get", linkageName: "_ZNKSt15__exception_ptr13exception_ptr6_M_getEv", scope: !555, file: !556, line: 89, type: !570, scopeLine: 89, flags: DIFlagPrototyped, spFlags: DISPFlagOptimized)
!570 = !DISubroutineType(types: !571)
!571 = !{!560, !572}
!572 = !DIDerivedType(tag: DW_TAG_pointer_type, baseType: !573, size: 64, flags: DIFlagArtificial | DIFlagObjectPointer)
!573 = !DIDerivedType(tag: DW_TAG_const_type, baseType: !555)
!574 = !DISubprogram(name: "exception_ptr", scope: !555, file: !556, line: 97, type: !566, scopeLine: 97, flags: DIFlagPublic | DIFlagPrototyped, spFlags: DISPFlagOptimized)
!575 = !DISubprogram(name: "exception_ptr", scope: !555, file: !556, line: 99, type: !576, scopeLine: 99, flags: DIFlagPublic | DIFlagPrototyped, spFlags: DISPFlagOptimized)
!576 = !DISubroutineType(types: !577)
!577 = !{null, !564, !578}
!578 = !DIDerivedType(tag: DW_TAG_reference_type, baseType: !573, size: 64)
!579 = !DISubprogram(name: "exception_ptr", scope: !555, file: !556, line: 102, type: !580, scopeLine: 102, flags: DIFlagPublic | DIFlagPrototyped, spFlags: DISPFlagOptimized)
!580 = !DISubroutineType(types: !581)
!581 = !{null, !564, !582}
!582 = !DIDerivedType(tag: DW_TAG_typedef, name: "nullptr_t", scope: !554, file: !583, line: 264, baseType: !584)
!583 = !DIFile(filename: "/usr/bin/../lib64/gcc/x86_64-pc-linux-gnu/10.1.0/../../../../include/c++/10.1.0/x86_64-pc-linux-gnu/bits/c++config.h", directory: "")
!584 = !DIBasicType(tag: DW_TAG_unspecified_type, name: "decltype(nullptr)")
!585 = !DISubprogram(name: "exception_ptr", scope: !555, file: !556, line: 106, type: !586, scopeLine: 106, flags: DIFlagPublic | DIFlagPrototyped, spFlags: DISPFlagOptimized)
!586 = !DISubroutineType(types: !587)
!587 = !{null, !564, !588}
!588 = !DIDerivedType(tag: DW_TAG_rvalue_reference_type, baseType: !555, size: 64)
!589 = !DISubprogram(name: "operator=", linkageName: "_ZNSt15__exception_ptr13exception_ptraSERKS0_", scope: !555, file: !556, line: 119, type: !590, scopeLine: 119, flags: DIFlagPublic | DIFlagPrototyped, spFlags: DISPFlagOptimized)
!590 = !DISubroutineType(types: !591)
!591 = !{!592, !564, !578}
!592 = !DIDerivedType(tag: DW_TAG_reference_type, baseType: !555, size: 64)
!593 = !DISubprogram(name: "operator=", linkageName: "_ZNSt15__exception_ptr13exception_ptraSEOS0_", scope: !555, file: !556, line: 123, type: !594, scopeLine: 123, flags: DIFlagPublic | DIFlagPrototyped, spFlags: DISPFlagOptimized)
!594 = !DISubroutineType(types: !595)
!595 = !{!592, !564, !588}
!596 = !DISubprogram(name: "~exception_ptr", scope: !555, file: !556, line: 130, type: !566, scopeLine: 130, flags: DIFlagPublic | DIFlagPrototyped, spFlags: DISPFlagOptimized)
!597 = !DISubprogram(name: "swap", linkageName: "_ZNSt15__exception_ptr13exception_ptr4swapERS0_", scope: !555, file: !556, line: 133, type: !598, scopeLine: 133, flags: DIFlagPublic | DIFlagPrototyped, spFlags: DISPFlagOptimized)
!598 = !DISubroutineType(types: !599)
!599 = !{null, !564, !592}
!600 = !DISubprogram(name: "operator bool", linkageName: "_ZNKSt15__exception_ptr13exception_ptrcvbEv", scope: !555, file: !556, line: 145, type: !601, scopeLine: 145, flags: DIFlagPublic | DIFlagExplicit | DIFlagPrototyped, spFlags: DISPFlagOptimized)
!601 = !DISubroutineType(types: !602)
!602 = !{!104, !572}
!603 = !DISubprogram(name: "__cxa_exception_type", linkageName: "_ZNKSt15__exception_ptr13exception_ptr20__cxa_exception_typeEv", scope: !555, file: !556, line: 154, type: !604, scopeLine: 154, flags: DIFlagPublic | DIFlagPrototyped, spFlags: DISPFlagOptimized)
!604 = !DISubroutineType(types: !605)
!605 = !{!606, !572}
!606 = !DIDerivedType(tag: DW_TAG_pointer_type, baseType: !607, size: 64)
!607 = !DIDerivedType(tag: DW_TAG_const_type, baseType: !608)
!608 = !DICompositeType(tag: DW_TAG_class_type, name: "type_info", scope: !554, file: !609, line: 88, flags: DIFlagFwdDecl, identifier: "_ZTSSt9type_info")
!609 = !DIFile(filename: "/usr/bin/../lib64/gcc/x86_64-pc-linux-gnu/10.1.0/../../../../include/c++/10.1.0/typeinfo", directory: "")
!610 = !DIImportedEntity(tag: DW_TAG_imported_declaration, scope: !557, entity: !611, file: !556, line: 74)
!611 = !DISubprogram(name: "rethrow_exception", linkageName: "_ZSt17rethrow_exceptionNSt15__exception_ptr13exception_ptrE", scope: !554, file: !556, line: 70, type: !612, flags: DIFlagPrototyped | DIFlagNoReturn, spFlags: DISPFlagOptimized)
!612 = !DISubroutineType(types: !613)
!613 = !{null, !555}
!614 = !DIImportedEntity(tag: DW_TAG_imported_declaration, scope: !554, entity: !615, file: !619, line: 52)
!615 = !DISubprogram(name: "abs", scope: !616, file: !616, line: 840, type: !617, flags: DIFlagPrototyped, spFlags: DISPFlagOptimized)
!616 = !DIFile(filename: "/usr/include/stdlib.h", directory: "")
!617 = !DISubroutineType(types: !618)
!618 = !{!40, !40}
!619 = !DIFile(filename: "/usr/bin/../lib64/gcc/x86_64-pc-linux-gnu/10.1.0/../../../../include/c++/10.1.0/bits/std_abs.h", directory: "")
!620 = !DIImportedEntity(tag: DW_TAG_imported_declaration, scope: !554, entity: !621, file: !623, line: 127)
!621 = !DIDerivedType(tag: DW_TAG_typedef, name: "div_t", file: !616, line: 62, baseType: !622)
!622 = !DICompositeType(tag: DW_TAG_structure_type, file: !616, line: 58, flags: DIFlagFwdDecl, identifier: "_ZTS5div_t")
!623 = !DIFile(filename: "/usr/bin/../lib64/gcc/x86_64-pc-linux-gnu/10.1.0/../../../../include/c++/10.1.0/cstdlib", directory: "")
!624 = !DIImportedEntity(tag: DW_TAG_imported_declaration, scope: !554, entity: !625, file: !623, line: 128)
!625 = !DIDerivedType(tag: DW_TAG_typedef, name: "ldiv_t", file: !616, line: 70, baseType: !626)
!626 = distinct !DICompositeType(tag: DW_TAG_structure_type, file: !616, line: 66, size: 128, flags: DIFlagTypePassByValue, elements: !627, identifier: "_ZTS6ldiv_t")
!627 = !{!628, !629}
!628 = !DIDerivedType(tag: DW_TAG_member, name: "quot", scope: !626, file: !616, line: 68, baseType: !26, size: 64)
!629 = !DIDerivedType(tag: DW_TAG_member, name: "rem", scope: !626, file: !616, line: 69, baseType: !26, size: 64, offset: 64)
!630 = !DIImportedEntity(tag: DW_TAG_imported_declaration, scope: !554, entity: !631, file: !623, line: 130)
!631 = !DISubprogram(name: "abort", scope: !616, file: !616, line: 591, type: !632, flags: DIFlagPrototyped | DIFlagNoReturn, spFlags: DISPFlagOptimized)
!632 = !DISubroutineType(types: !633)
!633 = !{null}
!634 = !DIImportedEntity(tag: DW_TAG_imported_declaration, scope: !554, entity: !635, file: !623, line: 134)
!635 = !DISubprogram(name: "atexit", scope: !616, file: !616, line: 595, type: !636, flags: DIFlagPrototyped, spFlags: DISPFlagOptimized)
!636 = !DISubroutineType(types: !637)
!637 = !{!40, !638}
!638 = !DIDerivedType(tag: DW_TAG_pointer_type, baseType: !632, size: 64)
!639 = !DIImportedEntity(tag: DW_TAG_imported_declaration, scope: !554, entity: !640, file: !623, line: 137)
!640 = !DISubprogram(name: "at_quick_exit", scope: !616, file: !616, line: 600, type: !636, flags: DIFlagPrototyped, spFlags: DISPFlagOptimized)
!641 = !DIImportedEntity(tag: DW_TAG_imported_declaration, scope: !554, entity: !642, file: !623, line: 140)
!642 = !DISubprogram(name: "atof", scope: !643, file: !643, line: 25, type: !644, flags: DIFlagPrototyped, spFlags: DISPFlagOptimized)
!643 = !DIFile(filename: "/usr/include/bits/stdlib-float.h", directory: "")
!644 = !DISubroutineType(types: !645)
!645 = !{!51, !207}
!646 = !DIImportedEntity(tag: DW_TAG_imported_declaration, scope: !554, entity: !647, file: !623, line: 141)
!647 = !DISubprogram(name: "atoi", scope: !616, file: !616, line: 361, type: !648, flags: DIFlagPrototyped, spFlags: DISPFlagOptimized)
!648 = !DISubroutineType(types: !649)
!649 = !{!40, !207}
!650 = !DIImportedEntity(tag: DW_TAG_imported_declaration, scope: !554, entity: !651, file: !623, line: 142)
!651 = !DISubprogram(name: "atol", scope: !616, file: !616, line: 366, type: !652, flags: DIFlagPrototyped, spFlags: DISPFlagOptimized)
!652 = !DISubroutineType(types: !653)
!653 = !{!26, !207}
!654 = !DIImportedEntity(tag: DW_TAG_imported_declaration, scope: !554, entity: !655, file: !623, line: 143)
!655 = !DISubprogram(name: "bsearch", scope: !656, file: !656, line: 20, type: !657, flags: DIFlagPrototyped, spFlags: DISPFlagOptimized)
!656 = !DIFile(filename: "/usr/include/bits/stdlib-bsearch.h", directory: "")
!657 = !DISubroutineType(types: !658)
!658 = !{!560, !659, !659, !661, !661, !663}
!659 = !DIDerivedType(tag: DW_TAG_pointer_type, baseType: !660, size: 64)
!660 = !DIDerivedType(tag: DW_TAG_const_type, baseType: null)
!661 = !DIDerivedType(tag: DW_TAG_typedef, name: "size_t", file: !662, line: 46, baseType: !44)
!662 = !DIFile(filename: "/usr/lib/clang/10.0.0/include/stddef.h", directory: "")
!663 = !DIDerivedType(tag: DW_TAG_typedef, name: "__compar_fn_t", file: !616, line: 808, baseType: !664)
!664 = !DIDerivedType(tag: DW_TAG_pointer_type, baseType: !665, size: 64)
!665 = !DISubroutineType(types: !666)
!666 = !{!40, !659, !659}
!667 = !DIImportedEntity(tag: DW_TAG_imported_declaration, scope: !554, entity: !668, file: !623, line: 144)
!668 = !DISubprogram(name: "calloc", scope: !616, file: !616, line: 542, type: !669, flags: DIFlagPrototyped, spFlags: DISPFlagOptimized)
!669 = !DISubroutineType(types: !670)
!670 = !{!560, !661, !661}
!671 = !DIImportedEntity(tag: DW_TAG_imported_declaration, scope: !554, entity: !672, file: !623, line: 145)
!672 = !DISubprogram(name: "div", scope: !616, file: !616, line: 852, type: !673, flags: DIFlagPrototyped, spFlags: DISPFlagOptimized)
!673 = !DISubroutineType(types: !674)
!674 = !{!621, !40, !40}
!675 = !DIImportedEntity(tag: DW_TAG_imported_declaration, scope: !554, entity: !676, file: !623, line: 146)
!676 = !DISubprogram(name: "exit", scope: !616, file: !616, line: 617, type: !677, flags: DIFlagPrototyped | DIFlagNoReturn, spFlags: DISPFlagOptimized)
!677 = !DISubroutineType(types: !678)
!678 = !{null, !40}
!679 = !DIImportedEntity(tag: DW_TAG_imported_declaration, scope: !554, entity: !680, file: !623, line: 147)
!680 = !DISubprogram(name: "free", scope: !616, file: !616, line: 565, type: !681, flags: DIFlagPrototyped, spFlags: DISPFlagOptimized)
!681 = !DISubroutineType(types: !682)
!682 = !{null, !560}
!683 = !DIImportedEntity(tag: DW_TAG_imported_declaration, scope: !554, entity: !684, file: !623, line: 148)
!684 = !DISubprogram(name: "getenv", scope: !616, file: !616, line: 634, type: !685, flags: DIFlagPrototyped, spFlags: DISPFlagOptimized)
!685 = !DISubroutineType(types: !686)
!686 = !{!428, !207}
!687 = !DIImportedEntity(tag: DW_TAG_imported_declaration, scope: !554, entity: !688, file: !623, line: 149)
!688 = !DISubprogram(name: "labs", scope: !616, file: !616, line: 841, type: !689, flags: DIFlagPrototyped, spFlags: DISPFlagOptimized)
!689 = !DISubroutineType(types: !690)
!690 = !{!26, !26}
!691 = !DIImportedEntity(tag: DW_TAG_imported_declaration, scope: !554, entity: !692, file: !623, line: 150)
!692 = !DISubprogram(name: "ldiv", scope: !616, file: !616, line: 854, type: !693, flags: DIFlagPrototyped, spFlags: DISPFlagOptimized)
!693 = !DISubroutineType(types: !694)
!694 = !{!625, !26, !26}
!695 = !DIImportedEntity(tag: DW_TAG_imported_declaration, scope: !554, entity: !696, file: !623, line: 151)
!696 = !DISubprogram(name: "malloc", scope: !616, file: !616, line: 539, type: !697, flags: DIFlagPrototyped, spFlags: DISPFlagOptimized)
!697 = !DISubroutineType(types: !698)
!698 = !{!560, !661}
!699 = !DIImportedEntity(tag: DW_TAG_imported_declaration, scope: !554, entity: !700, file: !623, line: 153)
!700 = !DISubprogram(name: "mblen", scope: !616, file: !616, line: 922, type: !701, flags: DIFlagPrototyped, spFlags: DISPFlagOptimized)
!701 = !DISubroutineType(types: !702)
!702 = !{!40, !207, !661}
!703 = !DIImportedEntity(tag: DW_TAG_imported_declaration, scope: !554, entity: !704, file: !623, line: 154)
!704 = !DISubprogram(name: "mbstowcs", scope: !616, file: !616, line: 933, type: !705, flags: DIFlagPrototyped, spFlags: DISPFlagOptimized)
!705 = !DISubroutineType(types: !706)
!706 = !{!661, !707, !710, !661}
!707 = !DIDerivedType(tag: DW_TAG_restrict_type, baseType: !708)
!708 = !DIDerivedType(tag: DW_TAG_pointer_type, baseType: !709, size: 64)
!709 = !DIBasicType(name: "wchar_t", size: 32, encoding: DW_ATE_signed)
!710 = !DIDerivedType(tag: DW_TAG_restrict_type, baseType: !207)
!711 = !DIImportedEntity(tag: DW_TAG_imported_declaration, scope: !554, entity: !712, file: !623, line: 155)
!712 = !DISubprogram(name: "mbtowc", scope: !616, file: !616, line: 925, type: !713, flags: DIFlagPrototyped, spFlags: DISPFlagOptimized)
!713 = !DISubroutineType(types: !714)
!714 = !{!40, !707, !710, !661}
!715 = !DIImportedEntity(tag: DW_TAG_imported_declaration, scope: !554, entity: !716, file: !623, line: 157)
!716 = !DISubprogram(name: "qsort", scope: !616, file: !616, line: 830, type: !717, flags: DIFlagPrototyped, spFlags: DISPFlagOptimized)
!717 = !DISubroutineType(types: !718)
!718 = !{null, !560, !661, !661, !663}
!719 = !DIImportedEntity(tag: DW_TAG_imported_declaration, scope: !554, entity: !720, file: !623, line: 160)
!720 = !DISubprogram(name: "quick_exit", scope: !616, file: !616, line: 623, type: !677, flags: DIFlagPrototyped | DIFlagNoReturn, spFlags: DISPFlagOptimized)
!721 = !DIImportedEntity(tag: DW_TAG_imported_declaration, scope: !554, entity: !722, file: !623, line: 163)
!722 = !DISubprogram(name: "rand", scope: !616, file: !616, line: 453, type: !450, flags: DIFlagPrototyped, spFlags: DISPFlagOptimized)
!723 = !DIImportedEntity(tag: DW_TAG_imported_declaration, scope: !554, entity: !724, file: !623, line: 164)
!724 = !DISubprogram(name: "realloc", scope: !616, file: !616, line: 550, type: !725, flags: DIFlagPrototyped, spFlags: DISPFlagOptimized)
!725 = !DISubroutineType(types: !726)
!726 = !{!560, !560, !661}
!727 = !DIImportedEntity(tag: DW_TAG_imported_declaration, scope: !554, entity: !728, file: !623, line: 165)
!728 = !DISubprogram(name: "srand", scope: !616, file: !616, line: 455, type: !729, flags: DIFlagPrototyped, spFlags: DISPFlagOptimized)
!729 = !DISubroutineType(types: !730)
!730 = !{null, !6}
!731 = !DIImportedEntity(tag: DW_TAG_imported_declaration, scope: !554, entity: !732, file: !623, line: 166)
!732 = !DISubprogram(name: "strtod", scope: !616, file: !616, line: 117, type: !733, flags: DIFlagPrototyped, spFlags: DISPFlagOptimized)
!733 = !DISubroutineType(types: !734)
!734 = !{!51, !710, !735}
!735 = !DIDerivedType(tag: DW_TAG_restrict_type, baseType: !736)
!736 = !DIDerivedType(tag: DW_TAG_pointer_type, baseType: !428, size: 64)
!737 = !DIImportedEntity(tag: DW_TAG_imported_declaration, scope: !554, entity: !738, file: !623, line: 167)
!738 = !DISubprogram(name: "strtol", scope: !616, file: !616, line: 176, type: !739, flags: DIFlagPrototyped, spFlags: DISPFlagOptimized)
!739 = !DISubroutineType(types: !740)
!740 = !{!26, !710, !735, !40}
!741 = !DIImportedEntity(tag: DW_TAG_imported_declaration, scope: !554, entity: !742, file: !623, line: 168)
!742 = !DISubprogram(name: "strtoul", scope: !616, file: !616, line: 180, type: !743, flags: DIFlagPrototyped, spFlags: DISPFlagOptimized)
!743 = !DISubroutineType(types: !744)
!744 = !{!44, !710, !735, !40}
!745 = !DIImportedEntity(tag: DW_TAG_imported_declaration, scope: !554, entity: !746, file: !623, line: 169)
!746 = !DISubprogram(name: "system", scope: !616, file: !616, line: 784, type: !648, flags: DIFlagPrototyped, spFlags: DISPFlagOptimized)
!747 = !DIImportedEntity(tag: DW_TAG_imported_declaration, scope: !554, entity: !748, file: !623, line: 171)
!748 = !DISubprogram(name: "wcstombs", scope: !616, file: !616, line: 936, type: !749, flags: DIFlagPrototyped, spFlags: DISPFlagOptimized)
!749 = !DISubroutineType(types: !750)
!750 = !{!661, !751, !752, !661}
!751 = !DIDerivedType(tag: DW_TAG_restrict_type, baseType: !428)
!752 = !DIDerivedType(tag: DW_TAG_restrict_type, baseType: !753)
!753 = !DIDerivedType(tag: DW_TAG_pointer_type, baseType: !754, size: 64)
!754 = !DIDerivedType(tag: DW_TAG_const_type, baseType: !709)
!755 = !DIImportedEntity(tag: DW_TAG_imported_declaration, scope: !554, entity: !756, file: !623, line: 172)
!756 = !DISubprogram(name: "wctomb", scope: !616, file: !616, line: 929, type: !757, flags: DIFlagPrototyped, spFlags: DISPFlagOptimized)
!757 = !DISubroutineType(types: !758)
!758 = !{!40, !428, !709}
!759 = !DIImportedEntity(tag: DW_TAG_imported_declaration, scope: !760, entity: !761, file: !623, line: 200)
!760 = !DINamespace(name: "__gnu_cxx", scope: null)
!761 = !DIDerivedType(tag: DW_TAG_typedef, name: "lldiv_t", file: !616, line: 80, baseType: !762)
!762 = distinct !DICompositeType(tag: DW_TAG_structure_type, file: !616, line: 76, size: 128, flags: DIFlagTypePassByValue, elements: !763, identifier: "_ZTS7lldiv_t")
!763 = !{!764, !765}
!764 = !DIDerivedType(tag: DW_TAG_member, name: "quot", scope: !762, file: !616, line: 78, baseType: !288, size: 64)
!765 = !DIDerivedType(tag: DW_TAG_member, name: "rem", scope: !762, file: !616, line: 79, baseType: !288, size: 64, offset: 64)
!766 = !DIImportedEntity(tag: DW_TAG_imported_declaration, scope: !760, entity: !767, file: !623, line: 206)
!767 = !DISubprogram(name: "_Exit", scope: !616, file: !616, line: 629, type: !677, flags: DIFlagPrototyped | DIFlagNoReturn, spFlags: DISPFlagOptimized)
!768 = !DIImportedEntity(tag: DW_TAG_imported_declaration, scope: !760, entity: !769, file: !623, line: 210)
!769 = !DISubprogram(name: "llabs", scope: !616, file: !616, line: 844, type: !770, flags: DIFlagPrototyped, spFlags: DISPFlagOptimized)
!770 = !DISubroutineType(types: !771)
!771 = !{!288, !288}
!772 = !DIImportedEntity(tag: DW_TAG_imported_declaration, scope: !760, entity: !773, file: !623, line: 216)
!773 = !DISubprogram(name: "lldiv", scope: !616, file: !616, line: 858, type: !774, flags: DIFlagPrototyped, spFlags: DISPFlagOptimized)
!774 = !DISubroutineType(types: !775)
!775 = !{!761, !288, !288}
!776 = !DIImportedEntity(tag: DW_TAG_imported_declaration, scope: !760, entity: !777, file: !623, line: 227)
!777 = !DISubprogram(name: "atoll", scope: !616, file: !616, line: 373, type: !778, flags: DIFlagPrototyped, spFlags: DISPFlagOptimized)
!778 = !DISubroutineType(types: !779)
!779 = !{!288, !207}
!780 = !DIImportedEntity(tag: DW_TAG_imported_declaration, scope: !760, entity: !781, file: !623, line: 228)
!781 = !DISubprogram(name: "strtoll", scope: !616, file: !616, line: 200, type: !782, flags: DIFlagPrototyped, spFlags: DISPFlagOptimized)
!782 = !DISubroutineType(types: !783)
!783 = !{!288, !710, !735, !40}
!784 = !DIImportedEntity(tag: DW_TAG_imported_declaration, scope: !760, entity: !785, file: !623, line: 229)
!785 = !DISubprogram(name: "strtoull", scope: !616, file: !616, line: 205, type: !786, flags: DIFlagPrototyped, spFlags: DISPFlagOptimized)
!786 = !DISubroutineType(types: !787)
!787 = !{!292, !710, !735, !40}
!788 = !DIImportedEntity(tag: DW_TAG_imported_declaration, scope: !760, entity: !789, file: !623, line: 231)
!789 = !DISubprogram(name: "strtof", scope: !616, file: !616, line: 123, type: !790, flags: DIFlagPrototyped, spFlags: DISPFlagOptimized)
!790 = !DISubroutineType(types: !791)
!791 = !{!792, !710, !735}
!792 = !DIBasicType(name: "float", size: 32, encoding: DW_ATE_float)
!793 = !DIImportedEntity(tag: DW_TAG_imported_declaration, scope: !760, entity: !794, file: !623, line: 232)
!794 = !DISubprogram(name: "strtold", scope: !616, file: !616, line: 126, type: !795, flags: DIFlagPrototyped, spFlags: DISPFlagOptimized)
!795 = !DISubroutineType(types: !796)
!796 = !{!797, !710, !735}
!797 = !DIBasicType(name: "long double", size: 128, encoding: DW_ATE_float)
!798 = !DIImportedEntity(tag: DW_TAG_imported_declaration, scope: !554, entity: !761, file: !623, line: 240)
!799 = !DIImportedEntity(tag: DW_TAG_imported_declaration, scope: !554, entity: !767, file: !623, line: 242)
!800 = !DIImportedEntity(tag: DW_TAG_imported_declaration, scope: !554, entity: !769, file: !623, line: 244)
!801 = !DIImportedEntity(tag: DW_TAG_imported_declaration, scope: !554, entity: !802, file: !623, line: 245)
!802 = !DISubprogram(name: "div", linkageName: "_ZN9__gnu_cxx3divExx", scope: !760, file: !623, line: 213, type: !774, flags: DIFlagPrototyped, spFlags: DISPFlagOptimized)
!803 = !DIImportedEntity(tag: DW_TAG_imported_declaration, scope: !554, entity: !773, file: !623, line: 246)
!804 = !DIImportedEntity(tag: DW_TAG_imported_declaration, scope: !554, entity: !777, file: !623, line: 248)
!805 = !DIImportedEntity(tag: DW_TAG_imported_declaration, scope: !554, entity: !789, file: !623, line: 249)
!806 = !DIImportedEntity(tag: DW_TAG_imported_declaration, scope: !554, entity: !781, file: !623, line: 250)
!807 = !DIImportedEntity(tag: DW_TAG_imported_declaration, scope: !554, entity: !785, file: !623, line: 251)
!808 = !DIImportedEntity(tag: DW_TAG_imported_declaration, scope: !554, entity: !794, file: !623, line: 252)
!809 = !DIImportedEntity(tag: DW_TAG_imported_declaration, scope: !0, entity: !631, file: !810, line: 38)
!810 = !DIFile(filename: "/usr/bin/../lib64/gcc/x86_64-pc-linux-gnu/10.1.0/../../../../include/c++/10.1.0/stdlib.h", directory: "")
!811 = !DIImportedEntity(tag: DW_TAG_imported_declaration, scope: !0, entity: !635, file: !810, line: 39)
!812 = !DIImportedEntity(tag: DW_TAG_imported_declaration, scope: !0, entity: !676, file: !810, line: 40)
!813 = !DIImportedEntity(tag: DW_TAG_imported_declaration, scope: !0, entity: !640, file: !810, line: 43)
!814 = !DIImportedEntity(tag: DW_TAG_imported_declaration, scope: !0, entity: !720, file: !810, line: 46)
!815 = !DIImportedEntity(tag: DW_TAG_imported_declaration, scope: !0, entity: !621, file: !810, line: 51)
!816 = !DIImportedEntity(tag: DW_TAG_imported_declaration, scope: !0, entity: !625, file: !810, line: 52)
!817 = !DIImportedEntity(tag: DW_TAG_imported_declaration, scope: !0, entity: !818, file: !810, line: 54)
!818 = !DISubprogram(name: "abs", linkageName: "_ZSt3absg", scope: !554, file: !619, line: 103, type: !819, flags: DIFlagPrototyped, spFlags: DISPFlagOptimized)
!819 = !DISubroutineType(types: !820)
!820 = !{!821, !821}
!821 = !DIBasicType(name: "__float128", size: 128, encoding: DW_ATE_float)
!822 = !DIImportedEntity(tag: DW_TAG_imported_declaration, scope: !0, entity: !642, file: !810, line: 55)
!823 = !DIImportedEntity(tag: DW_TAG_imported_declaration, scope: !0, entity: !647, file: !810, line: 56)
!824 = !DIImportedEntity(tag: DW_TAG_imported_declaration, scope: !0, entity: !651, file: !810, line: 57)
!825 = !DIImportedEntity(tag: DW_TAG_imported_declaration, scope: !0, entity: !655, file: !810, line: 58)
!826 = !DIImportedEntity(tag: DW_TAG_imported_declaration, scope: !0, entity: !668, file: !810, line: 59)
!827 = !DIImportedEntity(tag: DW_TAG_imported_declaration, scope: !0, entity: !802, file: !810, line: 60)
!828 = !DIImportedEntity(tag: DW_TAG_imported_declaration, scope: !0, entity: !680, file: !810, line: 61)
!829 = !DIImportedEntity(tag: DW_TAG_imported_declaration, scope: !0, entity: !684, file: !810, line: 62)
!830 = !DIImportedEntity(tag: DW_TAG_imported_declaration, scope: !0, entity: !688, file: !810, line: 63)
!831 = !DIImportedEntity(tag: DW_TAG_imported_declaration, scope: !0, entity: !692, file: !810, line: 64)
!832 = !DIImportedEntity(tag: DW_TAG_imported_declaration, scope: !0, entity: !696, file: !810, line: 65)
!833 = !DIImportedEntity(tag: DW_TAG_imported_declaration, scope: !0, entity: !700, file: !810, line: 67)
!834 = !DIImportedEntity(tag: DW_TAG_imported_declaration, scope: !0, entity: !704, file: !810, line: 68)
!835 = !DIImportedEntity(tag: DW_TAG_imported_declaration, scope: !0, entity: !712, file: !810, line: 69)
!836 = !DIImportedEntity(tag: DW_TAG_imported_declaration, scope: !0, entity: !716, file: !810, line: 71)
!837 = !DIImportedEntity(tag: DW_TAG_imported_declaration, scope: !0, entity: !722, file: !810, line: 72)
!838 = !DIImportedEntity(tag: DW_TAG_imported_declaration, scope: !0, entity: !724, file: !810, line: 73)
!839 = !DIImportedEntity(tag: DW_TAG_imported_declaration, scope: !0, entity: !728, file: !810, line: 74)
!840 = !DIImportedEntity(tag: DW_TAG_imported_declaration, scope: !0, entity: !732, file: !810, line: 75)
!841 = !DIImportedEntity(tag: DW_TAG_imported_declaration, scope: !0, entity: !738, file: !810, line: 76)
!842 = !DIImportedEntity(tag: DW_TAG_imported_declaration, scope: !0, entity: !742, file: !810, line: 77)
!843 = !DIImportedEntity(tag: DW_TAG_imported_declaration, scope: !0, entity: !746, file: !810, line: 78)
!844 = !DIImportedEntity(tag: DW_TAG_imported_declaration, scope: !0, entity: !748, file: !810, line: 80)
!845 = !DIImportedEntity(tag: DW_TAG_imported_declaration, scope: !0, entity: !756, file: !810, line: 81)
!846 = !DIImportedEntity(tag: DW_TAG_imported_declaration, scope: !554, entity: !847, file: !851, line: 83)
!847 = !DISubprogram(name: "acos", scope: !848, file: !848, line: 53, type: !849, flags: DIFlagPrototyped, spFlags: DISPFlagOptimized)
!848 = !DIFile(filename: "/usr/include/bits/mathcalls.h", directory: "")
!849 = !DISubroutineType(types: !850)
!850 = !{!51, !51}
!851 = !DIFile(filename: "/usr/bin/../lib64/gcc/x86_64-pc-linux-gnu/10.1.0/../../../../include/c++/10.1.0/cmath", directory: "")
!852 = !DIImportedEntity(tag: DW_TAG_imported_declaration, scope: !554, entity: !853, file: !851, line: 102)
!853 = !DISubprogram(name: "asin", scope: !848, file: !848, line: 55, type: !849, flags: DIFlagPrototyped, spFlags: DISPFlagOptimized)
!854 = !DIImportedEntity(tag: DW_TAG_imported_declaration, scope: !554, entity: !855, file: !851, line: 121)
!855 = !DISubprogram(name: "atan", scope: !848, file: !848, line: 57, type: !849, flags: DIFlagPrototyped, spFlags: DISPFlagOptimized)
!856 = !DIImportedEntity(tag: DW_TAG_imported_declaration, scope: !554, entity: !857, file: !851, line: 140)
!857 = !DISubprogram(name: "atan2", scope: !848, file: !848, line: 59, type: !858, flags: DIFlagPrototyped, spFlags: DISPFlagOptimized)
!858 = !DISubroutineType(types: !859)
!859 = !{!51, !51, !51}
!860 = !DIImportedEntity(tag: DW_TAG_imported_declaration, scope: !554, entity: !861, file: !851, line: 161)
!861 = !DISubprogram(name: "ceil", scope: !848, file: !848, line: 159, type: !849, flags: DIFlagPrototyped, spFlags: DISPFlagOptimized)
!862 = !DIImportedEntity(tag: DW_TAG_imported_declaration, scope: !554, entity: !863, file: !851, line: 180)
!863 = !DISubprogram(name: "cos", scope: !848, file: !848, line: 62, type: !849, flags: DIFlagPrototyped, spFlags: DISPFlagOptimized)
!864 = !DIImportedEntity(tag: DW_TAG_imported_declaration, scope: !554, entity: !865, file: !851, line: 199)
!865 = !DISubprogram(name: "cosh", scope: !848, file: !848, line: 71, type: !849, flags: DIFlagPrototyped, spFlags: DISPFlagOptimized)
!866 = !DIImportedEntity(tag: DW_TAG_imported_declaration, scope: !554, entity: !867, file: !851, line: 218)
!867 = !DISubprogram(name: "exp", scope: !848, file: !848, line: 95, type: !849, flags: DIFlagPrototyped, spFlags: DISPFlagOptimized)
!868 = !DIImportedEntity(tag: DW_TAG_imported_declaration, scope: !554, entity: !869, file: !851, line: 237)
!869 = !DISubprogram(name: "fabs", scope: !848, file: !848, line: 162, type: !849, flags: DIFlagPrototyped, spFlags: DISPFlagOptimized)
!870 = !DIImportedEntity(tag: DW_TAG_imported_declaration, scope: !554, entity: !871, file: !851, line: 256)
!871 = !DISubprogram(name: "floor", scope: !848, file: !848, line: 165, type: !849, flags: DIFlagPrototyped, spFlags: DISPFlagOptimized)
!872 = !DIImportedEntity(tag: DW_TAG_imported_declaration, scope: !554, entity: !873, file: !851, line: 275)
!873 = !DISubprogram(name: "fmod", scope: !848, file: !848, line: 168, type: !858, flags: DIFlagPrototyped, spFlags: DISPFlagOptimized)
!874 = !DIImportedEntity(tag: DW_TAG_imported_declaration, scope: !554, entity: !875, file: !851, line: 296)
!875 = !DISubprogram(name: "frexp", scope: !848, file: !848, line: 98, type: !876, flags: DIFlagPrototyped, spFlags: DISPFlagOptimized)
!876 = !DISubroutineType(types: !877)
!877 = !{!51, !51, !878}
!878 = !DIDerivedType(tag: DW_TAG_pointer_type, baseType: !40, size: 64)
!879 = !DIImportedEntity(tag: DW_TAG_imported_declaration, scope: !554, entity: !880, file: !851, line: 315)
!880 = !DISubprogram(name: "ldexp", scope: !848, file: !848, line: 101, type: !881, flags: DIFlagPrototyped, spFlags: DISPFlagOptimized)
!881 = !DISubroutineType(types: !882)
!882 = !{!51, !51, !40}
!883 = !DIImportedEntity(tag: DW_TAG_imported_declaration, scope: !554, entity: !884, file: !851, line: 334)
!884 = !DISubprogram(name: "log", scope: !848, file: !848, line: 104, type: !849, flags: DIFlagPrototyped, spFlags: DISPFlagOptimized)
!885 = !DIImportedEntity(tag: DW_TAG_imported_declaration, scope: !554, entity: !886, file: !851, line: 353)
!886 = !DISubprogram(name: "log10", scope: !848, file: !848, line: 107, type: !849, flags: DIFlagPrototyped, spFlags: DISPFlagOptimized)
!887 = !DIImportedEntity(tag: DW_TAG_imported_declaration, scope: !554, entity: !888, file: !851, line: 372)
!888 = !DISubprogram(name: "modf", scope: !848, file: !848, line: 110, type: !889, flags: DIFlagPrototyped, spFlags: DISPFlagOptimized)
!889 = !DISubroutineType(types: !890)
!890 = !{!51, !51, !891}
!891 = !DIDerivedType(tag: DW_TAG_pointer_type, baseType: !51, size: 64)
!892 = !DIImportedEntity(tag: DW_TAG_imported_declaration, scope: !554, entity: !893, file: !851, line: 384)
!893 = !DISubprogram(name: "pow", scope: !848, file: !848, line: 140, type: !858, flags: DIFlagPrototyped, spFlags: DISPFlagOptimized)
!894 = !DIImportedEntity(tag: DW_TAG_imported_declaration, scope: !554, entity: !895, file: !851, line: 421)
!895 = !DISubprogram(name: "sin", scope: !848, file: !848, line: 64, type: !849, flags: DIFlagPrototyped, spFlags: DISPFlagOptimized)
!896 = !DIImportedEntity(tag: DW_TAG_imported_declaration, scope: !554, entity: !897, file: !851, line: 440)
!897 = !DISubprogram(name: "sinh", scope: !848, file: !848, line: 73, type: !849, flags: DIFlagPrototyped, spFlags: DISPFlagOptimized)
!898 = !DIImportedEntity(tag: DW_TAG_imported_declaration, scope: !554, entity: !899, file: !851, line: 459)
!899 = !DISubprogram(name: "sqrt", scope: !848, file: !848, line: 143, type: !849, flags: DIFlagPrototyped, spFlags: DISPFlagOptimized)
!900 = !DIImportedEntity(tag: DW_TAG_imported_declaration, scope: !554, entity: !901, file: !851, line: 478)
!901 = !DISubprogram(name: "tan", scope: !848, file: !848, line: 66, type: !849, flags: DIFlagPrototyped, spFlags: DISPFlagOptimized)
!902 = !DIImportedEntity(tag: DW_TAG_imported_declaration, scope: !554, entity: !903, file: !851, line: 497)
!903 = !DISubprogram(name: "tanh", scope: !848, file: !848, line: 75, type: !849, flags: DIFlagPrototyped, spFlags: DISPFlagOptimized)
!904 = !DIImportedEntity(tag: DW_TAG_imported_declaration, scope: !554, entity: !905, file: !851, line: 1065)
!905 = !DIDerivedType(tag: DW_TAG_typedef, name: "double_t", file: !906, line: 150, baseType: !51)
!906 = !DIFile(filename: "/usr/include/math.h", directory: "")
!907 = !DIImportedEntity(tag: DW_TAG_imported_declaration, scope: !554, entity: !908, file: !851, line: 1066)
!908 = !DIDerivedType(tag: DW_TAG_typedef, name: "float_t", file: !906, line: 149, baseType: !792)
!909 = !DIImportedEntity(tag: DW_TAG_imported_declaration, scope: !554, entity: !910, file: !851, line: 1069)
!910 = !DISubprogram(name: "acosh", scope: !848, file: !848, line: 85, type: !849, flags: DIFlagPrototyped, spFlags: DISPFlagOptimized)
!911 = !DIImportedEntity(tag: DW_TAG_imported_declaration, scope: !554, entity: !912, file: !851, line: 1070)
!912 = !DISubprogram(name: "acoshf", scope: !848, file: !848, line: 85, type: !913, flags: DIFlagPrototyped, spFlags: DISPFlagOptimized)
!913 = !DISubroutineType(types: !914)
!914 = !{!792, !792}
!915 = !DIImportedEntity(tag: DW_TAG_imported_declaration, scope: !554, entity: !916, file: !851, line: 1071)
!916 = !DISubprogram(name: "acoshl", scope: !848, file: !848, line: 85, type: !917, flags: DIFlagPrototyped, spFlags: DISPFlagOptimized)
!917 = !DISubroutineType(types: !918)
!918 = !{!797, !797}
!919 = !DIImportedEntity(tag: DW_TAG_imported_declaration, scope: !554, entity: !920, file: !851, line: 1073)
!920 = !DISubprogram(name: "asinh", scope: !848, file: !848, line: 87, type: !849, flags: DIFlagPrototyped, spFlags: DISPFlagOptimized)
!921 = !DIImportedEntity(tag: DW_TAG_imported_declaration, scope: !554, entity: !922, file: !851, line: 1074)
!922 = !DISubprogram(name: "asinhf", scope: !848, file: !848, line: 87, type: !913, flags: DIFlagPrototyped, spFlags: DISPFlagOptimized)
!923 = !DIImportedEntity(tag: DW_TAG_imported_declaration, scope: !554, entity: !924, file: !851, line: 1075)
!924 = !DISubprogram(name: "asinhl", scope: !848, file: !848, line: 87, type: !917, flags: DIFlagPrototyped, spFlags: DISPFlagOptimized)
!925 = !DIImportedEntity(tag: DW_TAG_imported_declaration, scope: !554, entity: !926, file: !851, line: 1077)
!926 = !DISubprogram(name: "atanh", scope: !848, file: !848, line: 89, type: !849, flags: DIFlagPrototyped, spFlags: DISPFlagOptimized)
!927 = !DIImportedEntity(tag: DW_TAG_imported_declaration, scope: !554, entity: !928, file: !851, line: 1078)
!928 = !DISubprogram(name: "atanhf", scope: !848, file: !848, line: 89, type: !913, flags: DIFlagPrototyped, spFlags: DISPFlagOptimized)
!929 = !DIImportedEntity(tag: DW_TAG_imported_declaration, scope: !554, entity: !930, file: !851, line: 1079)
!930 = !DISubprogram(name: "atanhl", scope: !848, file: !848, line: 89, type: !917, flags: DIFlagPrototyped, spFlags: DISPFlagOptimized)
!931 = !DIImportedEntity(tag: DW_TAG_imported_declaration, scope: !554, entity: !932, file: !851, line: 1081)
!932 = !DISubprogram(name: "cbrt", scope: !848, file: !848, line: 152, type: !849, flags: DIFlagPrototyped, spFlags: DISPFlagOptimized)
!933 = !DIImportedEntity(tag: DW_TAG_imported_declaration, scope: !554, entity: !934, file: !851, line: 1082)
!934 = !DISubprogram(name: "cbrtf", scope: !848, file: !848, line: 152, type: !913, flags: DIFlagPrototyped, spFlags: DISPFlagOptimized)
!935 = !DIImportedEntity(tag: DW_TAG_imported_declaration, scope: !554, entity: !936, file: !851, line: 1083)
!936 = !DISubprogram(name: "cbrtl", scope: !848, file: !848, line: 152, type: !917, flags: DIFlagPrototyped, spFlags: DISPFlagOptimized)
!937 = !DIImportedEntity(tag: DW_TAG_imported_declaration, scope: !554, entity: !938, file: !851, line: 1085)
!938 = !DISubprogram(name: "copysign", scope: !848, file: !848, line: 196, type: !858, flags: DIFlagPrototyped, spFlags: DISPFlagOptimized)
!939 = !DIImportedEntity(tag: DW_TAG_imported_declaration, scope: !554, entity: !940, file: !851, line: 1086)
!940 = !DISubprogram(name: "copysignf", scope: !848, file: !848, line: 196, type: !941, flags: DIFlagPrototyped, spFlags: DISPFlagOptimized)
!941 = !DISubroutineType(types: !942)
!942 = !{!792, !792, !792}
!943 = !DIImportedEntity(tag: DW_TAG_imported_declaration, scope: !554, entity: !944, file: !851, line: 1087)
!944 = !DISubprogram(name: "copysignl", scope: !848, file: !848, line: 196, type: !945, flags: DIFlagPrototyped, spFlags: DISPFlagOptimized)
!945 = !DISubroutineType(types: !946)
!946 = !{!797, !797, !797}
!947 = !DIImportedEntity(tag: DW_TAG_imported_declaration, scope: !554, entity: !948, file: !851, line: 1089)
!948 = !DISubprogram(name: "erf", scope: !848, file: !848, line: 228, type: !849, flags: DIFlagPrototyped, spFlags: DISPFlagOptimized)
!949 = !DIImportedEntity(tag: DW_TAG_imported_declaration, scope: !554, entity: !950, file: !851, line: 1090)
!950 = !DISubprogram(name: "erff", scope: !848, file: !848, line: 228, type: !913, flags: DIFlagPrototyped, spFlags: DISPFlagOptimized)
!951 = !DIImportedEntity(tag: DW_TAG_imported_declaration, scope: !554, entity: !952, file: !851, line: 1091)
!952 = !DISubprogram(name: "erfl", scope: !848, file: !848, line: 228, type: !917, flags: DIFlagPrototyped, spFlags: DISPFlagOptimized)
!953 = !DIImportedEntity(tag: DW_TAG_imported_declaration, scope: !554, entity: !954, file: !851, line: 1093)
!954 = !DISubprogram(name: "erfc", scope: !848, file: !848, line: 229, type: !849, flags: DIFlagPrototyped, spFlags: DISPFlagOptimized)
!955 = !DIImportedEntity(tag: DW_TAG_imported_declaration, scope: !554, entity: !956, file: !851, line: 1094)
!956 = !DISubprogram(name: "erfcf", scope: !848, file: !848, line: 229, type: !913, flags: DIFlagPrototyped, spFlags: DISPFlagOptimized)
!957 = !DIImportedEntity(tag: DW_TAG_imported_declaration, scope: !554, entity: !958, file: !851, line: 1095)
!958 = !DISubprogram(name: "erfcl", scope: !848, file: !848, line: 229, type: !917, flags: DIFlagPrototyped, spFlags: DISPFlagOptimized)
!959 = !DIImportedEntity(tag: DW_TAG_imported_declaration, scope: !554, entity: !960, file: !851, line: 1097)
!960 = !DISubprogram(name: "exp2", scope: !848, file: !848, line: 130, type: !849, flags: DIFlagPrototyped, spFlags: DISPFlagOptimized)
!961 = !DIImportedEntity(tag: DW_TAG_imported_declaration, scope: !554, entity: !962, file: !851, line: 1098)
!962 = !DISubprogram(name: "exp2f", scope: !848, file: !848, line: 130, type: !913, flags: DIFlagPrototyped, spFlags: DISPFlagOptimized)
!963 = !DIImportedEntity(tag: DW_TAG_imported_declaration, scope: !554, entity: !964, file: !851, line: 1099)
!964 = !DISubprogram(name: "exp2l", scope: !848, file: !848, line: 130, type: !917, flags: DIFlagPrototyped, spFlags: DISPFlagOptimized)
!965 = !DIImportedEntity(tag: DW_TAG_imported_declaration, scope: !554, entity: !966, file: !851, line: 1101)
!966 = !DISubprogram(name: "expm1", scope: !848, file: !848, line: 119, type: !849, flags: DIFlagPrototyped, spFlags: DISPFlagOptimized)
!967 = !DIImportedEntity(tag: DW_TAG_imported_declaration, scope: !554, entity: !968, file: !851, line: 1102)
!968 = !DISubprogram(name: "expm1f", scope: !848, file: !848, line: 119, type: !913, flags: DIFlagPrototyped, spFlags: DISPFlagOptimized)
!969 = !DIImportedEntity(tag: DW_TAG_imported_declaration, scope: !554, entity: !970, file: !851, line: 1103)
!970 = !DISubprogram(name: "expm1l", scope: !848, file: !848, line: 119, type: !917, flags: DIFlagPrototyped, spFlags: DISPFlagOptimized)
!971 = !DIImportedEntity(tag: DW_TAG_imported_declaration, scope: !554, entity: !972, file: !851, line: 1105)
!972 = !DISubprogram(name: "fdim", scope: !848, file: !848, line: 326, type: !858, flags: DIFlagPrototyped, spFlags: DISPFlagOptimized)
!973 = !DIImportedEntity(tag: DW_TAG_imported_declaration, scope: !554, entity: !974, file: !851, line: 1106)
!974 = !DISubprogram(name: "fdimf", scope: !848, file: !848, line: 326, type: !941, flags: DIFlagPrototyped, spFlags: DISPFlagOptimized)
!975 = !DIImportedEntity(tag: DW_TAG_imported_declaration, scope: !554, entity: !976, file: !851, line: 1107)
!976 = !DISubprogram(name: "fdiml", scope: !848, file: !848, line: 326, type: !945, flags: DIFlagPrototyped, spFlags: DISPFlagOptimized)
!977 = !DIImportedEntity(tag: DW_TAG_imported_declaration, scope: !554, entity: !978, file: !851, line: 1109)
!978 = !DISubprogram(name: "fma", scope: !848, file: !848, line: 335, type: !979, flags: DIFlagPrototyped, spFlags: DISPFlagOptimized)
!979 = !DISubroutineType(types: !980)
!980 = !{!51, !51, !51, !51}
!981 = !DIImportedEntity(tag: DW_TAG_imported_declaration, scope: !554, entity: !982, file: !851, line: 1110)
!982 = !DISubprogram(name: "fmaf", scope: !848, file: !848, line: 335, type: !983, flags: DIFlagPrototyped, spFlags: DISPFlagOptimized)
!983 = !DISubroutineType(types: !984)
!984 = !{!792, !792, !792, !792}
!985 = !DIImportedEntity(tag: DW_TAG_imported_declaration, scope: !554, entity: !986, file: !851, line: 1111)
!986 = !DISubprogram(name: "fmal", scope: !848, file: !848, line: 335, type: !987, flags: DIFlagPrototyped, spFlags: DISPFlagOptimized)
!987 = !DISubroutineType(types: !988)
!988 = !{!797, !797, !797, !797}
!989 = !DIImportedEntity(tag: DW_TAG_imported_declaration, scope: !554, entity: !990, file: !851, line: 1113)
!990 = !DISubprogram(name: "fmax", scope: !848, file: !848, line: 329, type: !858, flags: DIFlagPrototyped, spFlags: DISPFlagOptimized)
!991 = !DIImportedEntity(tag: DW_TAG_imported_declaration, scope: !554, entity: !992, file: !851, line: 1114)
!992 = !DISubprogram(name: "fmaxf", scope: !848, file: !848, line: 329, type: !941, flags: DIFlagPrototyped, spFlags: DISPFlagOptimized)
!993 = !DIImportedEntity(tag: DW_TAG_imported_declaration, scope: !554, entity: !994, file: !851, line: 1115)
!994 = !DISubprogram(name: "fmaxl", scope: !848, file: !848, line: 329, type: !945, flags: DIFlagPrototyped, spFlags: DISPFlagOptimized)
!995 = !DIImportedEntity(tag: DW_TAG_imported_declaration, scope: !554, entity: !996, file: !851, line: 1117)
!996 = !DISubprogram(name: "fmin", scope: !848, file: !848, line: 332, type: !858, flags: DIFlagPrototyped, spFlags: DISPFlagOptimized)
!997 = !DIImportedEntity(tag: DW_TAG_imported_declaration, scope: !554, entity: !998, file: !851, line: 1118)
!998 = !DISubprogram(name: "fminf", scope: !848, file: !848, line: 332, type: !941, flags: DIFlagPrototyped, spFlags: DISPFlagOptimized)
!999 = !DIImportedEntity(tag: DW_TAG_imported_declaration, scope: !554, entity: !1000, file: !851, line: 1119)
!1000 = !DISubprogram(name: "fminl", scope: !848, file: !848, line: 332, type: !945, flags: DIFlagPrototyped, spFlags: DISPFlagOptimized)
!1001 = !DIImportedEntity(tag: DW_TAG_imported_declaration, scope: !554, entity: !1002, file: !851, line: 1121)
!1002 = !DISubprogram(name: "hypot", scope: !848, file: !848, line: 147, type: !858, flags: DIFlagPrototyped, spFlags: DISPFlagOptimized)
!1003 = !DIImportedEntity(tag: DW_TAG_imported_declaration, scope: !554, entity: !1004, file: !851, line: 1122)
!1004 = !DISubprogram(name: "hypotf", scope: !848, file: !848, line: 147, type: !941, flags: DIFlagPrototyped, spFlags: DISPFlagOptimized)
!1005 = !DIImportedEntity(tag: DW_TAG_imported_declaration, scope: !554, entity: !1006, file: !851, line: 1123)
!1006 = !DISubprogram(name: "hypotl", scope: !848, file: !848, line: 147, type: !945, flags: DIFlagPrototyped, spFlags: DISPFlagOptimized)
!1007 = !DIImportedEntity(tag: DW_TAG_imported_declaration, scope: !554, entity: !1008, file: !851, line: 1125)
!1008 = !DISubprogram(name: "ilogb", scope: !848, file: !848, line: 280, type: !1009, flags: DIFlagPrototyped, spFlags: DISPFlagOptimized)
!1009 = !DISubroutineType(types: !1010)
!1010 = !{!40, !51}
!1011 = !DIImportedEntity(tag: DW_TAG_imported_declaration, scope: !554, entity: !1012, file: !851, line: 1126)
!1012 = !DISubprogram(name: "ilogbf", scope: !848, file: !848, line: 280, type: !1013, flags: DIFlagPrototyped, spFlags: DISPFlagOptimized)
!1013 = !DISubroutineType(types: !1014)
!1014 = !{!40, !792}
!1015 = !DIImportedEntity(tag: DW_TAG_imported_declaration, scope: !554, entity: !1016, file: !851, line: 1127)
!1016 = !DISubprogram(name: "ilogbl", scope: !848, file: !848, line: 280, type: !1017, flags: DIFlagPrototyped, spFlags: DISPFlagOptimized)
!1017 = !DISubroutineType(types: !1018)
!1018 = !{!40, !797}
!1019 = !DIImportedEntity(tag: DW_TAG_imported_declaration, scope: !554, entity: !1020, file: !851, line: 1129)
!1020 = !DISubprogram(name: "lgamma", scope: !848, file: !848, line: 230, type: !849, flags: DIFlagPrototyped, spFlags: DISPFlagOptimized)
!1021 = !DIImportedEntity(tag: DW_TAG_imported_declaration, scope: !554, entity: !1022, file: !851, line: 1130)
!1022 = !DISubprogram(name: "lgammaf", scope: !848, file: !848, line: 230, type: !913, flags: DIFlagPrototyped, spFlags: DISPFlagOptimized)
!1023 = !DIImportedEntity(tag: DW_TAG_imported_declaration, scope: !554, entity: !1024, file: !851, line: 1131)
!1024 = !DISubprogram(name: "lgammal", scope: !848, file: !848, line: 230, type: !917, flags: DIFlagPrototyped, spFlags: DISPFlagOptimized)
!1025 = !DIImportedEntity(tag: DW_TAG_imported_declaration, scope: !554, entity: !1026, file: !851, line: 1134)
!1026 = !DISubprogram(name: "llrint", scope: !848, file: !848, line: 316, type: !1027, flags: DIFlagPrototyped, spFlags: DISPFlagOptimized)
!1027 = !DISubroutineType(types: !1028)
!1028 = !{!288, !51}
!1029 = !DIImportedEntity(tag: DW_TAG_imported_declaration, scope: !554, entity: !1030, file: !851, line: 1135)
!1030 = !DISubprogram(name: "llrintf", scope: !848, file: !848, line: 316, type: !1031, flags: DIFlagPrototyped, spFlags: DISPFlagOptimized)
!1031 = !DISubroutineType(types: !1032)
!1032 = !{!288, !792}
!1033 = !DIImportedEntity(tag: DW_TAG_imported_declaration, scope: !554, entity: !1034, file: !851, line: 1136)
!1034 = !DISubprogram(name: "llrintl", scope: !848, file: !848, line: 316, type: !1035, flags: DIFlagPrototyped, spFlags: DISPFlagOptimized)
!1035 = !DISubroutineType(types: !1036)
!1036 = !{!288, !797}
!1037 = !DIImportedEntity(tag: DW_TAG_imported_declaration, scope: !554, entity: !1038, file: !851, line: 1138)
!1038 = !DISubprogram(name: "llround", scope: !848, file: !848, line: 322, type: !1027, flags: DIFlagPrototyped, spFlags: DISPFlagOptimized)
!1039 = !DIImportedEntity(tag: DW_TAG_imported_declaration, scope: !554, entity: !1040, file: !851, line: 1139)
!1040 = !DISubprogram(name: "llroundf", scope: !848, file: !848, line: 322, type: !1031, flags: DIFlagPrototyped, spFlags: DISPFlagOptimized)
!1041 = !DIImportedEntity(tag: DW_TAG_imported_declaration, scope: !554, entity: !1042, file: !851, line: 1140)
!1042 = !DISubprogram(name: "llroundl", scope: !848, file: !848, line: 322, type: !1035, flags: DIFlagPrototyped, spFlags: DISPFlagOptimized)
!1043 = !DIImportedEntity(tag: DW_TAG_imported_declaration, scope: !554, entity: !1044, file: !851, line: 1143)
!1044 = !DISubprogram(name: "log1p", scope: !848, file: !848, line: 122, type: !849, flags: DIFlagPrototyped, spFlags: DISPFlagOptimized)
!1045 = !DIImportedEntity(tag: DW_TAG_imported_declaration, scope: !554, entity: !1046, file: !851, line: 1144)
!1046 = !DISubprogram(name: "log1pf", scope: !848, file: !848, line: 122, type: !913, flags: DIFlagPrototyped, spFlags: DISPFlagOptimized)
!1047 = !DIImportedEntity(tag: DW_TAG_imported_declaration, scope: !554, entity: !1048, file: !851, line: 1145)
!1048 = !DISubprogram(name: "log1pl", scope: !848, file: !848, line: 122, type: !917, flags: DIFlagPrototyped, spFlags: DISPFlagOptimized)
!1049 = !DIImportedEntity(tag: DW_TAG_imported_declaration, scope: !554, entity: !1050, file: !851, line: 1147)
!1050 = !DISubprogram(name: "log2", scope: !848, file: !848, line: 133, type: !849, flags: DIFlagPrototyped, spFlags: DISPFlagOptimized)
!1051 = !DIImportedEntity(tag: DW_TAG_imported_declaration, scope: !554, entity: !1052, file: !851, line: 1148)
!1052 = !DISubprogram(name: "log2f", scope: !848, file: !848, line: 133, type: !913, flags: DIFlagPrototyped, spFlags: DISPFlagOptimized)
!1053 = !DIImportedEntity(tag: DW_TAG_imported_declaration, scope: !554, entity: !1054, file: !851, line: 1149)
!1054 = !DISubprogram(name: "log2l", scope: !848, file: !848, line: 133, type: !917, flags: DIFlagPrototyped, spFlags: DISPFlagOptimized)
!1055 = !DIImportedEntity(tag: DW_TAG_imported_declaration, scope: !554, entity: !1056, file: !851, line: 1151)
!1056 = !DISubprogram(name: "logb", scope: !848, file: !848, line: 125, type: !849, flags: DIFlagPrototyped, spFlags: DISPFlagOptimized)
!1057 = !DIImportedEntity(tag: DW_TAG_imported_declaration, scope: !554, entity: !1058, file: !851, line: 1152)
!1058 = !DISubprogram(name: "logbf", scope: !848, file: !848, line: 125, type: !913, flags: DIFlagPrototyped, spFlags: DISPFlagOptimized)
!1059 = !DIImportedEntity(tag: DW_TAG_imported_declaration, scope: !554, entity: !1060, file: !851, line: 1153)
!1060 = !DISubprogram(name: "logbl", scope: !848, file: !848, line: 125, type: !917, flags: DIFlagPrototyped, spFlags: DISPFlagOptimized)
!1061 = !DIImportedEntity(tag: DW_TAG_imported_declaration, scope: !554, entity: !1062, file: !851, line: 1155)
!1062 = !DISubprogram(name: "lrint", scope: !848, file: !848, line: 314, type: !1063, flags: DIFlagPrototyped, spFlags: DISPFlagOptimized)
!1063 = !DISubroutineType(types: !1064)
!1064 = !{!26, !51}
!1065 = !DIImportedEntity(tag: DW_TAG_imported_declaration, scope: !554, entity: !1066, file: !851, line: 1156)
!1066 = !DISubprogram(name: "lrintf", scope: !848, file: !848, line: 314, type: !1067, flags: DIFlagPrototyped, spFlags: DISPFlagOptimized)
!1067 = !DISubroutineType(types: !1068)
!1068 = !{!26, !792}
!1069 = !DIImportedEntity(tag: DW_TAG_imported_declaration, scope: !554, entity: !1070, file: !851, line: 1157)
!1070 = !DISubprogram(name: "lrintl", scope: !848, file: !848, line: 314, type: !1071, flags: DIFlagPrototyped, spFlags: DISPFlagOptimized)
!1071 = !DISubroutineType(types: !1072)
!1072 = !{!26, !797}
!1073 = !DIImportedEntity(tag: DW_TAG_imported_declaration, scope: !554, entity: !1074, file: !851, line: 1159)
!1074 = !DISubprogram(name: "lround", scope: !848, file: !848, line: 320, type: !1063, flags: DIFlagPrototyped, spFlags: DISPFlagOptimized)
!1075 = !DIImportedEntity(tag: DW_TAG_imported_declaration, scope: !554, entity: !1076, file: !851, line: 1160)
!1076 = !DISubprogram(name: "lroundf", scope: !848, file: !848, line: 320, type: !1067, flags: DIFlagPrototyped, spFlags: DISPFlagOptimized)
!1077 = !DIImportedEntity(tag: DW_TAG_imported_declaration, scope: !554, entity: !1078, file: !851, line: 1161)
!1078 = !DISubprogram(name: "lroundl", scope: !848, file: !848, line: 320, type: !1071, flags: DIFlagPrototyped, spFlags: DISPFlagOptimized)
!1079 = !DIImportedEntity(tag: DW_TAG_imported_declaration, scope: !554, entity: !1080, file: !851, line: 1163)
!1080 = !DISubprogram(name: "nan", scope: !848, file: !848, line: 201, type: !644, flags: DIFlagPrototyped, spFlags: DISPFlagOptimized)
!1081 = !DIImportedEntity(tag: DW_TAG_imported_declaration, scope: !554, entity: !1082, file: !851, line: 1164)
!1082 = !DISubprogram(name: "nanf", scope: !848, file: !848, line: 201, type: !1083, flags: DIFlagPrototyped, spFlags: DISPFlagOptimized)
!1083 = !DISubroutineType(types: !1084)
!1084 = !{!792, !207}
!1085 = !DIImportedEntity(tag: DW_TAG_imported_declaration, scope: !554, entity: !1086, file: !851, line: 1165)
!1086 = !DISubprogram(name: "nanl", scope: !848, file: !848, line: 201, type: !1087, flags: DIFlagPrototyped, spFlags: DISPFlagOptimized)
!1087 = !DISubroutineType(types: !1088)
!1088 = !{!797, !207}
!1089 = !DIImportedEntity(tag: DW_TAG_imported_declaration, scope: !554, entity: !1090, file: !851, line: 1167)
!1090 = !DISubprogram(name: "nearbyint", scope: !848, file: !848, line: 294, type: !849, flags: DIFlagPrototyped, spFlags: DISPFlagOptimized)
!1091 = !DIImportedEntity(tag: DW_TAG_imported_declaration, scope: !554, entity: !1092, file: !851, line: 1168)
!1092 = !DISubprogram(name: "nearbyintf", scope: !848, file: !848, line: 294, type: !913, flags: DIFlagPrototyped, spFlags: DISPFlagOptimized)
!1093 = !DIImportedEntity(tag: DW_TAG_imported_declaration, scope: !554, entity: !1094, file: !851, line: 1169)
!1094 = !DISubprogram(name: "nearbyintl", scope: !848, file: !848, line: 294, type: !917, flags: DIFlagPrototyped, spFlags: DISPFlagOptimized)
!1095 = !DIImportedEntity(tag: DW_TAG_imported_declaration, scope: !554, entity: !1096, file: !851, line: 1171)
!1096 = !DISubprogram(name: "nextafter", scope: !848, file: !848, line: 259, type: !858, flags: DIFlagPrototyped, spFlags: DISPFlagOptimized)
!1097 = !DIImportedEntity(tag: DW_TAG_imported_declaration, scope: !554, entity: !1098, file: !851, line: 1172)
!1098 = !DISubprogram(name: "nextafterf", scope: !848, file: !848, line: 259, type: !941, flags: DIFlagPrototyped, spFlags: DISPFlagOptimized)
!1099 = !DIImportedEntity(tag: DW_TAG_imported_declaration, scope: !554, entity: !1100, file: !851, line: 1173)
!1100 = !DISubprogram(name: "nextafterl", scope: !848, file: !848, line: 259, type: !945, flags: DIFlagPrototyped, spFlags: DISPFlagOptimized)
!1101 = !DIImportedEntity(tag: DW_TAG_imported_declaration, scope: !554, entity: !1102, file: !851, line: 1175)
!1102 = !DISubprogram(name: "nexttoward", scope: !848, file: !848, line: 261, type: !1103, flags: DIFlagPrototyped, spFlags: DISPFlagOptimized)
!1103 = !DISubroutineType(types: !1104)
!1104 = !{!51, !51, !797}
!1105 = !DIImportedEntity(tag: DW_TAG_imported_declaration, scope: !554, entity: !1106, file: !851, line: 1176)
!1106 = !DISubprogram(name: "nexttowardf", scope: !848, file: !848, line: 261, type: !1107, flags: DIFlagPrototyped, spFlags: DISPFlagOptimized)
!1107 = !DISubroutineType(types: !1108)
!1108 = !{!792, !792, !797}
!1109 = !DIImportedEntity(tag: DW_TAG_imported_declaration, scope: !554, entity: !1110, file: !851, line: 1177)
!1110 = !DISubprogram(name: "nexttowardl", scope: !848, file: !848, line: 261, type: !945, flags: DIFlagPrototyped, spFlags: DISPFlagOptimized)
!1111 = !DIImportedEntity(tag: DW_TAG_imported_declaration, scope: !554, entity: !1112, file: !851, line: 1179)
!1112 = !DISubprogram(name: "remainder", scope: !848, file: !848, line: 272, type: !858, flags: DIFlagPrototyped, spFlags: DISPFlagOptimized)
!1113 = !DIImportedEntity(tag: DW_TAG_imported_declaration, scope: !554, entity: !1114, file: !851, line: 1180)
!1114 = !DISubprogram(name: "remainderf", scope: !848, file: !848, line: 272, type: !941, flags: DIFlagPrototyped, spFlags: DISPFlagOptimized)
!1115 = !DIImportedEntity(tag: DW_TAG_imported_declaration, scope: !554, entity: !1116, file: !851, line: 1181)
!1116 = !DISubprogram(name: "remainderl", scope: !848, file: !848, line: 272, type: !945, flags: DIFlagPrototyped, spFlags: DISPFlagOptimized)
!1117 = !DIImportedEntity(tag: DW_TAG_imported_declaration, scope: !554, entity: !1118, file: !851, line: 1183)
!1118 = !DISubprogram(name: "remquo", scope: !848, file: !848, line: 307, type: !1119, flags: DIFlagPrototyped, spFlags: DISPFlagOptimized)
!1119 = !DISubroutineType(types: !1120)
!1120 = !{!51, !51, !51, !878}
!1121 = !DIImportedEntity(tag: DW_TAG_imported_declaration, scope: !554, entity: !1122, file: !851, line: 1184)
!1122 = !DISubprogram(name: "remquof", scope: !848, file: !848, line: 307, type: !1123, flags: DIFlagPrototyped, spFlags: DISPFlagOptimized)
!1123 = !DISubroutineType(types: !1124)
!1124 = !{!792, !792, !792, !878}
!1125 = !DIImportedEntity(tag: DW_TAG_imported_declaration, scope: !554, entity: !1126, file: !851, line: 1185)
!1126 = !DISubprogram(name: "remquol", scope: !848, file: !848, line: 307, type: !1127, flags: DIFlagPrototyped, spFlags: DISPFlagOptimized)
!1127 = !DISubroutineType(types: !1128)
!1128 = !{!797, !797, !797, !878}
!1129 = !DIImportedEntity(tag: DW_TAG_imported_declaration, scope: !554, entity: !1130, file: !851, line: 1187)
!1130 = !DISubprogram(name: "rint", scope: !848, file: !848, line: 256, type: !849, flags: DIFlagPrototyped, spFlags: DISPFlagOptimized)
!1131 = !DIImportedEntity(tag: DW_TAG_imported_declaration, scope: !554, entity: !1132, file: !851, line: 1188)
!1132 = !DISubprogram(name: "rintf", scope: !848, file: !848, line: 256, type: !913, flags: DIFlagPrototyped, spFlags: DISPFlagOptimized)
!1133 = !DIImportedEntity(tag: DW_TAG_imported_declaration, scope: !554, entity: !1134, file: !851, line: 1189)
!1134 = !DISubprogram(name: "rintl", scope: !848, file: !848, line: 256, type: !917, flags: DIFlagPrototyped, spFlags: DISPFlagOptimized)
!1135 = !DIImportedEntity(tag: DW_TAG_imported_declaration, scope: !554, entity: !1136, file: !851, line: 1191)
!1136 = !DISubprogram(name: "round", scope: !848, file: !848, line: 298, type: !849, flags: DIFlagPrototyped, spFlags: DISPFlagOptimized)
!1137 = !DIImportedEntity(tag: DW_TAG_imported_declaration, scope: !554, entity: !1138, file: !851, line: 1192)
!1138 = !DISubprogram(name: "roundf", scope: !848, file: !848, line: 298, type: !913, flags: DIFlagPrototyped, spFlags: DISPFlagOptimized)
!1139 = !DIImportedEntity(tag: DW_TAG_imported_declaration, scope: !554, entity: !1140, file: !851, line: 1193)
!1140 = !DISubprogram(name: "roundl", scope: !848, file: !848, line: 298, type: !917, flags: DIFlagPrototyped, spFlags: DISPFlagOptimized)
!1141 = !DIImportedEntity(tag: DW_TAG_imported_declaration, scope: !554, entity: !1142, file: !851, line: 1195)
!1142 = !DISubprogram(name: "scalbln", scope: !848, file: !848, line: 290, type: !1143, flags: DIFlagPrototyped, spFlags: DISPFlagOptimized)
!1143 = !DISubroutineType(types: !1144)
!1144 = !{!51, !51, !26}
!1145 = !DIImportedEntity(tag: DW_TAG_imported_declaration, scope: !554, entity: !1146, file: !851, line: 1196)
!1146 = !DISubprogram(name: "scalblnf", scope: !848, file: !848, line: 290, type: !1147, flags: DIFlagPrototyped, spFlags: DISPFlagOptimized)
!1147 = !DISubroutineType(types: !1148)
!1148 = !{!792, !792, !26}
!1149 = !DIImportedEntity(tag: DW_TAG_imported_declaration, scope: !554, entity: !1150, file: !851, line: 1197)
!1150 = !DISubprogram(name: "scalblnl", scope: !848, file: !848, line: 290, type: !1151, flags: DIFlagPrototyped, spFlags: DISPFlagOptimized)
!1151 = !DISubroutineType(types: !1152)
!1152 = !{!797, !797, !26}
!1153 = !DIImportedEntity(tag: DW_TAG_imported_declaration, scope: !554, entity: !1154, file: !851, line: 1199)
!1154 = !DISubprogram(name: "scalbn", scope: !848, file: !848, line: 276, type: !881, flags: DIFlagPrototyped, spFlags: DISPFlagOptimized)
!1155 = !DIImportedEntity(tag: DW_TAG_imported_declaration, scope: !554, entity: !1156, file: !851, line: 1200)
!1156 = !DISubprogram(name: "scalbnf", scope: !848, file: !848, line: 276, type: !1157, flags: DIFlagPrototyped, spFlags: DISPFlagOptimized)
!1157 = !DISubroutineType(types: !1158)
!1158 = !{!792, !792, !40}
!1159 = !DIImportedEntity(tag: DW_TAG_imported_declaration, scope: !554, entity: !1160, file: !851, line: 1201)
!1160 = !DISubprogram(name: "scalbnl", scope: !848, file: !848, line: 276, type: !1161, flags: DIFlagPrototyped, spFlags: DISPFlagOptimized)
!1161 = !DISubroutineType(types: !1162)
!1162 = !{!797, !797, !40}
!1163 = !DIImportedEntity(tag: DW_TAG_imported_declaration, scope: !554, entity: !1164, file: !851, line: 1203)
!1164 = !DISubprogram(name: "tgamma", scope: !848, file: !848, line: 235, type: !849, flags: DIFlagPrototyped, spFlags: DISPFlagOptimized)
!1165 = !DIImportedEntity(tag: DW_TAG_imported_declaration, scope: !554, entity: !1166, file: !851, line: 1204)
!1166 = !DISubprogram(name: "tgammaf", scope: !848, file: !848, line: 235, type: !913, flags: DIFlagPrototyped, spFlags: DISPFlagOptimized)
!1167 = !DIImportedEntity(tag: DW_TAG_imported_declaration, scope: !554, entity: !1168, file: !851, line: 1205)
!1168 = !DISubprogram(name: "tgammal", scope: !848, file: !848, line: 235, type: !917, flags: DIFlagPrototyped, spFlags: DISPFlagOptimized)
!1169 = !DIImportedEntity(tag: DW_TAG_imported_declaration, scope: !554, entity: !1170, file: !851, line: 1207)
!1170 = !DISubprogram(name: "trunc", scope: !848, file: !848, line: 302, type: !849, flags: DIFlagPrototyped, spFlags: DISPFlagOptimized)
!1171 = !DIImportedEntity(tag: DW_TAG_imported_declaration, scope: !554, entity: !1172, file: !851, line: 1208)
!1172 = !DISubprogram(name: "truncf", scope: !848, file: !848, line: 302, type: !913, flags: DIFlagPrototyped, spFlags: DISPFlagOptimized)
!1173 = !DIImportedEntity(tag: DW_TAG_imported_declaration, scope: !554, entity: !1174, file: !851, line: 1209)
!1174 = !DISubprogram(name: "truncl", scope: !848, file: !848, line: 302, type: !917, flags: DIFlagPrototyped, spFlags: DISPFlagOptimized)
!1175 = !DIImportedEntity(tag: DW_TAG_imported_declaration, scope: !0, entity: !818, file: !1176, line: 38)
!1176 = !DIFile(filename: "/usr/bin/../lib64/gcc/x86_64-pc-linux-gnu/10.1.0/../../../../include/c++/10.1.0/math.h", directory: "")
!1177 = !DIImportedEntity(tag: DW_TAG_imported_declaration, scope: !0, entity: !1178, file: !1176, line: 54)
!1178 = !DISubprogram(name: "modf", linkageName: "_ZSt4modfePe", scope: !554, file: !851, line: 380, type: !1179, flags: DIFlagPrototyped, spFlags: DISPFlagOptimized)
!1179 = !DISubroutineType(types: !1180)
!1180 = !{!797, !797, !1181}
!1181 = !DIDerivedType(tag: DW_TAG_pointer_type, baseType: !797, size: 64)
!1182 = !{i32 7, !"Dwarf Version", i32 4}
!1183 = !{i32 2, !"Debug Info Version", i32 3}
!1184 = !{i32 1, !"wchar_size", i32 4}
!1185 = !{i32 7, !"PIC Level", i32 2}
!1186 = !{i32 7, !"PIE Level", i32 2}
!1187 = !{!"clang version 10.0.0 "}
!1188 = distinct !DISubprogram(name: "DriverManager", linkageName: "_ZN13DriverManagerC2Ev", scope: !1189, file: !1, line: 30, type: !1194, scopeLine: 31, flags: DIFlagPrototyped | DIFlagAllCallsDescribed, spFlags: DISPFlagDefinition | DISPFlagOptimized, unit: !0, declaration: !1193, retainedNodes: !1204)
!1189 = distinct !DICompositeType(tag: DW_TAG_class_type, name: "DriverManager", file: !1190, line: 46, size: 2688, flags: DIFlagTypePassByReference | DIFlagNonTrivial, elements: !1191, vtableHolder: !1202, identifier: "_ZTS13DriverManager")
!1190 = !DIFile(filename: "../elements/standard/drivermanager.hh", directory: "/home/john/projects/click/ir-dir")
!1191 = !{!1192, !1193, !1197}
!1192 = !DIDerivedType(tag: DW_TAG_inheritance, scope: !1189, baseType: !5, flags: DIFlagPublic, extraData: i32 0)
!1193 = !DISubprogram(name: "DriverManager", scope: !1189, file: !1190, line: 48, type: !1194, scopeLine: 48, flags: DIFlagPublic | DIFlagPrototyped, spFlags: DISPFlagOptimized)
!1194 = !DISubroutineType(types: !1195)
!1195 = !{null, !1196}
!1196 = !DIDerivedType(tag: DW_TAG_pointer_type, baseType: !1189, size: 64, flags: DIFlagArtificial | DIFlagObjectPointer)
!1197 = !DISubprogram(name: "class_name", linkageName: "_ZNK13DriverManager10class_nameEv", scope: !1189, file: !1190, line: 50, type: !1198, scopeLine: 50, containingType: !1189, virtualIndex: 9, flags: DIFlagPublic | DIFlagPrototyped, spFlags: DISPFlagVirtual | DISPFlagOptimized)
!1198 = !DISubroutineType(types: !1199)
!1199 = !{!207, !1200}
!1200 = !DIDerivedType(tag: DW_TAG_pointer_type, baseType: !1201, size: 64, flags: DIFlagArtificial | DIFlagObjectPointer)
!1201 = !DIDerivedType(tag: DW_TAG_const_type, baseType: !1189)
!1202 = !DICompositeType(tag: DW_TAG_class_type, name: "Element", file: !1203, line: 29, flags: DIFlagFwdDecl, identifier: "_ZTS7Element")
!1203 = !DIFile(filename: "../dummy_inc/click/element.hh", directory: "/home/john/projects/click/ir-dir")
!1204 = !{!1205}
!1205 = !DILocalVariable(name: "this", arg: 1, scope: !1188, type: !1206, flags: DIFlagArtificial | DIFlagObjectPointer)
!1206 = !DIDerivedType(tag: DW_TAG_pointer_type, baseType: !1189, size: 64)
!1207 = !DILocation(line: 0, scope: !1188)
!1208 = !DILocation(line: 31, column: 1, scope: !1188)
!1209 = !DILocation(line: 30, column: 16, scope: !1188)
!1210 = !{!1211, !1211, i64 0}
!1211 = !{!"vtable pointer", !1212, i64 0}
!1212 = !{!"Simple C++ TBAA"}
!1213 = !DILocation(line: 32, column: 5, scope: !1214)
!1214 = distinct !DILexicalBlock(scope: !1188, file: !1, line: 31, column: 1)
!1215 = !DILocation(line: 32, column: 11, scope: !1214)
!1216 = !{!1217, !1222, i64 252}
!1217 = !{!"_ZTS6Script", !1218, i64 112, !1218, i64 128, !1218, i64 144, !1223, i64 160, !1223, i64 176, !1225, i64 192, !1225, i64 216, !1222, i64 240, !1222, i64 244, !1222, i64 248, !1222, i64 252, !1222, i64 256, !1218, i64 264, !1227, i64 280, !1220, i64 328}
!1218 = !{!"_ZTS6VectorIiE", !1219, i64 0}
!1219 = !{!"_ZTS13vector_memoryI18sized_array_memoryILm4EEE", !1220, i64 0, !1222, i64 8, !1222, i64 12}
!1220 = !{!"any pointer", !1221, i64 0}
!1221 = !{!"omnipotent char", !1212, i64 0}
!1222 = !{!"int", !1221, i64 0}
!1223 = !{!"_ZTS6VectorI6StringE", !1224, i64 0}
!1224 = !{!"_ZTS13vector_memoryI18typed_array_memoryI6StringEE", !1220, i64 0, !1222, i64 8, !1222, i64 12}
!1225 = !{!"_ZTS6String", !1226, i64 0}
!1226 = !{!"_ZTSN6String5rep_tE", !1220, i64 0, !1222, i64 8, !1220, i64 16}
!1227 = !{!"_ZTS5Timer", !1222, i64 0, !1228, i64 8, !1221, i64 16, !1220, i64 24, !1220, i64 32, !1220, i64 40}
!1228 = !{!"_ZTS9Timestamp", !1221, i64 0}
!1229 = !DILocation(line: 33, column: 1, scope: !1188)
!1230 = distinct !DISubprogram(name: "~Script", linkageName: "_ZN6ScriptD2Ev", scope: !5, file: !4, line: 444, type: !1231, scopeLine: 444, flags: DIFlagArtificial | DIFlagPrototyped | DIFlagAllCallsDescribed, spFlags: DISPFlagDefinition | DISPFlagOptimized, unit: !0, declaration: !1234, retainedNodes: !1235)
!1231 = !DISubroutineType(types: !1232)
!1232 = !{null, !1233}
!1233 = !DIDerivedType(tag: DW_TAG_pointer_type, baseType: !5, size: 64, flags: DIFlagArtificial | DIFlagObjectPointer)
!1234 = !DISubprogram(name: "~Script", scope: !5, type: !1231, containingType: !5, virtualIndex: 0, flags: DIFlagPublic | DIFlagArtificial | DIFlagPrototyped, spFlags: DISPFlagVirtual | DISPFlagOptimized)
!1235 = !{!1236}
!1236 = !DILocalVariable(name: "this", arg: 1, scope: !1230, type: !1237, flags: DIFlagArtificial | DIFlagObjectPointer)
!1237 = !DIDerivedType(tag: DW_TAG_pointer_type, baseType: !5, size: 64)
!1238 = !DILocation(line: 0, scope: !1230)
!1239 = !DILocation(line: 444, column: 7, scope: !1230)
!1240 = !DILocation(line: 444, column: 7, scope: !1241)
!1241 = distinct !DILexicalBlock(scope: !1230, file: !4, line: 444, column: 7)
!1242 = !DILocalVariable(name: "this", arg: 1, scope: !1243, type: !1257, flags: DIFlagArtificial | DIFlagObjectPointer)
!1243 = distinct !DISubprogram(name: "~Timer", linkageName: "_ZN5TimerD2Ev", scope: !1245, file: !1244, line: 55, type: !4003, scopeLine: 55, flags: DIFlagPrototyped | DIFlagAllCallsDescribed, spFlags: DISPFlagDefinition | DISPFlagOptimized, unit: !0, declaration: !4026, retainedNodes: !4090)
!1244 = !DIFile(filename: "../dummy_inc/click/timer.hh", directory: "/home/john/projects/click/ir-dir")
!1245 = distinct !DICompositeType(tag: DW_TAG_class_type, name: "Timer", file: !1244, line: 14, size: 384, flags: DIFlagTypePassByReference | DIFlagNonTrivial, elements: !1246, identifier: "_ZTS5Timer")
!1246 = !{!1247, !1248, !1249, !1258, !1259, !1261, !4002, !4006, !4012, !4015, !4018, !4021, !4026, !4027, !4028, !4029, !4030, !4031, !4032, !4036, !4037, !4040, !4043, !4046, !4049, !4052, !4055, !4058, !4061, !4064, !4065, !4066, !4067, !4068, !4069, !4072, !4073, !4074, !4075, !4076, !4077, !4078, !4079, !4080, !4081, !4082, !4083, !4087, !4088, !4089}
!1247 = !DIDerivedType(tag: DW_TAG_member, name: "_schedpos1", scope: !1245, file: !1244, line: 341, baseType: !40, size: 32)
!1248 = !DIDerivedType(tag: DW_TAG_member, name: "_expiry_s", scope: !1245, file: !1244, line: 342, baseType: !16, size: 64, offset: 64)
!1249 = !DIDerivedType(tag: DW_TAG_member, name: "_hook", scope: !1245, file: !1244, line: 345, baseType: !1250, size: 64, offset: 128)
!1250 = distinct !DICompositeType(tag: DW_TAG_union_type, scope: !1245, file: !1244, line: 343, size: 64, flags: DIFlagTypePassByValue, elements: !1251, identifier: "_ZTSN5TimerUt0_E")
!1251 = !{!1252}
!1252 = !DIDerivedType(tag: DW_TAG_member, name: "callback", scope: !1250, file: !1244, line: 344, baseType: !1253, size: 64)
!1253 = !DIDerivedType(tag: DW_TAG_typedef, name: "TimerCallback", file: !1244, line: 11, baseType: !1254)
!1254 = !DIDerivedType(tag: DW_TAG_pointer_type, baseType: !1255, size: 64)
!1255 = !DISubroutineType(types: !1256)
!1256 = !{null, !1257, !560}
!1257 = !DIDerivedType(tag: DW_TAG_pointer_type, baseType: !1245, size: 64)
!1258 = !DIDerivedType(tag: DW_TAG_member, name: "_thunk", scope: !1245, file: !1244, line: 346, baseType: !560, size: 64, offset: 192)
!1259 = !DIDerivedType(tag: DW_TAG_member, name: "_owner", scope: !1245, file: !1244, line: 347, baseType: !1260, size: 64, offset: 256)
!1260 = !DIDerivedType(tag: DW_TAG_pointer_type, baseType: !1202, size: 64)
!1261 = !DIDerivedType(tag: DW_TAG_member, name: "_thread", scope: !1245, file: !1244, line: 348, baseType: !1262, size: 64, offset: 320)
!1262 = !DIDerivedType(tag: DW_TAG_pointer_type, baseType: !1263, size: 64)
!1263 = distinct !DICompositeType(tag: DW_TAG_class_type, name: "RouterThread", file: !1264, line: 28, size: 2560, flags: DIFlagTypePassByReference | DIFlagNonTrivial, elements: !1265, identifier: "_ZTS12RouterThread")
!1264 = !DIFile(filename: "../dummy_inc/click/routerthread.hh", directory: "/home/john/projects/click/ir-dir")
!1265 = !{!1266, !1278, !1280, !3418, !3769, !3787, !3788, !3789, !3903, !3905, !3919, !3920, !3921, !3922, !3923, !3924, !3929, !3932, !3937, !3941, !3945, !3949, !3952, !3955, !3958, !3959, !3965, !3968, !3969, !3970, !3973, !3974, !3975, !3976, !3977, !3980, !3981, !3982, !3985, !3986, !3989, !3990, !3991, !3994, !3995, !3996, !3997, !3998, !3999, !4000, !4001}
!1266 = !DIDerivedType(tag: DW_TAG_member, name: "_task_link", scope: !1263, file: !1264, line: 119, baseType: !1267, size: 192)
!1267 = distinct !DICompositeType(tag: DW_TAG_structure_type, name: "TaskLink", file: !1268, line: 31, size: 192, flags: DIFlagTypePassByValue | DIFlagNonTrivial, elements: !1269, identifier: "_ZTS8TaskLink")
!1268 = !DIFile(filename: "../dummy_inc/click/task.hh", directory: "/home/john/projects/click/ir-dir")
!1269 = !{!1270, !1272, !1273, !1274}
!1270 = !DIDerivedType(tag: DW_TAG_member, name: "_prev", scope: !1267, file: !1268, line: 33, baseType: !1271, size: 64)
!1271 = !DIDerivedType(tag: DW_TAG_pointer_type, baseType: !1267, size: 64)
!1272 = !DIDerivedType(tag: DW_TAG_member, name: "_next", scope: !1267, file: !1268, line: 34, baseType: !1271, size: 64, offset: 64)
!1273 = !DIDerivedType(tag: DW_TAG_member, name: "_pass", scope: !1267, file: !1268, line: 37, baseType: !6, size: 32, offset: 128)
!1274 = !DISubprogram(name: "TaskLink", scope: !1267, file: !1268, line: 39, type: !1275, scopeLine: 39, flags: DIFlagPrototyped, spFlags: DISPFlagOptimized)
!1275 = !DISubroutineType(types: !1276)
!1276 = !{null, !1277}
!1277 = !DIDerivedType(tag: DW_TAG_pointer_type, baseType: !1267, size: 64, flags: DIFlagArtificial | DIFlagObjectPointer)
!1278 = !DIDerivedType(tag: DW_TAG_member, name: "_stop_flag", scope: !1263, file: !1264, line: 120, baseType: !1279, size: 8, offset: 192)
!1279 = !DIDerivedType(tag: DW_TAG_volatile_type, baseType: !104)
!1280 = !DIDerivedType(tag: DW_TAG_member, name: "_timers", scope: !1263, file: !1264, line: 125, baseType: !1281, size: 640, offset: 256)
!1281 = distinct !DICompositeType(tag: DW_TAG_class_type, name: "TimerSet", file: !1282, line: 12, size: 640, flags: DIFlagTypePassByReference | DIFlagNonTrivial, elements: !1283, identifier: "_ZTS8TimerSet")
!1282 = !DIFile(filename: "../dummy_inc/click/timerset.hh", directory: "/home/john/projects/click/ir-dir")
!1283 = !{!1284, !1285, !1286, !1287, !1288, !1499, !1681, !1695, !1696, !1697, !1701, !1706, !1707, !1711, !1714, !1717, !1718, !1721, !3404, !3407, !3408, !3411, !3412, !3413, !3414, !3417}
!1284 = !DIDerivedType(tag: DW_TAG_member, name: "_timer_expiry", scope: !1281, file: !1282, line: 58, baseType: !16, size: 64, align: 64)
!1285 = !DIDerivedType(tag: DW_TAG_member, name: "_max_timer_stride", scope: !1281, file: !1282, line: 60, baseType: !6, size: 32, offset: 64)
!1286 = !DIDerivedType(tag: DW_TAG_member, name: "_timer_stride", scope: !1281, file: !1282, line: 61, baseType: !6, size: 32, offset: 96)
!1287 = !DIDerivedType(tag: DW_TAG_member, name: "_timer_count", scope: !1281, file: !1282, line: 62, baseType: !6, size: 32, offset: 128)
!1288 = !DIDerivedType(tag: DW_TAG_member, name: "_timer_heap", scope: !1281, file: !1282, line: 63, baseType: !1289, size: 128, offset: 192)
!1289 = distinct !DICompositeType(tag: DW_TAG_class_type, name: "Vector<TimerSet::heap_element>", file: !1290, line: 111, size: 128, flags: DIFlagTypePassByReference | DIFlagNonTrivial, elements: !1291, templateParams: !1498, identifier: "_ZTS6VectorIN8TimerSet12heap_elementEE")
!1290 = !DIFile(filename: "../dummy_inc/click/vector.hh", directory: "/home/john/projects/click/ir-dir")
!1291 = !{!1292, !1380, !1384, !1407, !1412, !1416, !1420, !1423, !1426, !1431, !1432, !1438, !1439, !1440, !1441, !1444, !1445, !1448, !1449, !1452, !1456, !1459, !1460, !1461, !1464, !1467, !1468, !1469, !1470, !1471, !1472, !1473, !1476, !1479, !1482, !1483, !1484, !1485, !1488, !1491, !1494, !1495}
!1292 = !DIDerivedType(tag: DW_TAG_member, name: "vm_", scope: !1289, file: !1290, line: 114, baseType: !1293, size: 128)
!1293 = distinct !DICompositeType(tag: DW_TAG_class_type, name: "vector_memory<sized_array_memory<16> >", file: !1290, line: 11, size: 128, flags: DIFlagTypePassByReference | DIFlagNonTrivial, elements: !1294, templateParams: !1378, identifier: "_ZTS13vector_memoryI18sized_array_memoryILm16EEE")
!1294 = !{!1295, !1329, !1331, !1332, !1339, !1343, !1344, !1348, !1351, !1352, !1356, !1357, !1360, !1363, !1366, !1369, !1370, !1371, !1374}
!1295 = !DIDerivedType(tag: DW_TAG_member, name: "l_", scope: !1293, file: !1290, line: 68, baseType: !1296, size: 64, flags: DIFlagPublic)
!1296 = !DIDerivedType(tag: DW_TAG_pointer_type, baseType: !1297, size: 64)
!1297 = !DIDerivedType(tag: DW_TAG_typedef, name: "type", scope: !1293, file: !1290, line: 13, baseType: !1298)
!1298 = !DIDerivedType(tag: DW_TAG_typedef, name: "type", scope: !1300, file: !1299, line: 11, baseType: !1320)
!1299 = !DIFile(filename: "../dummy_inc/click/array_memory.hh", directory: "/home/john/projects/click/ir-dir")
!1300 = distinct !DICompositeType(tag: DW_TAG_class_type, name: "sized_array_memory<16>", file: !1299, line: 10, size: 8, flags: DIFlagTypePassByValue, elements: !1301, templateParams: !1318, identifier: "_ZTS18sized_array_memoryILm16EE")
!1301 = !{!1302, !1305, !1308, !1311, !1312, !1313, !1316, !1317}
!1302 = !DISubprogram(name: "fill", linkageName: "_ZN18sized_array_memoryILm16EE4fillEPvmPKv", scope: !1300, file: !1299, line: 19, type: !1303, scopeLine: 19, flags: DIFlagPublic | DIFlagPrototyped | DIFlagStaticMember, spFlags: DISPFlagOptimized)
!1303 = !DISubroutineType(types: !1304)
!1304 = !{null, !560, !661, !659}
!1305 = !DISubprogram(name: "move_construct", linkageName: "_ZN18sized_array_memoryILm16EE14move_constructEPvS1_", scope: !1300, file: !1299, line: 23, type: !1306, scopeLine: 23, flags: DIFlagPublic | DIFlagPrototyped | DIFlagStaticMember, spFlags: DISPFlagOptimized)
!1306 = !DISubroutineType(types: !1307)
!1307 = !{null, !560, !560}
!1308 = !DISubprogram(name: "copy", linkageName: "_ZN18sized_array_memoryILm16EE4copyEPvPKvm", scope: !1300, file: !1299, line: 26, type: !1309, scopeLine: 26, flags: DIFlagPublic | DIFlagPrototyped | DIFlagStaticMember, spFlags: DISPFlagOptimized)
!1309 = !DISubroutineType(types: !1310)
!1310 = !{null, !560, !659, !661}
!1311 = !DISubprogram(name: "move", linkageName: "_ZN18sized_array_memoryILm16EE4moveEPvPKvm", scope: !1300, file: !1299, line: 30, type: !1309, scopeLine: 30, flags: DIFlagPublic | DIFlagPrototyped | DIFlagStaticMember, spFlags: DISPFlagOptimized)
!1312 = !DISubprogram(name: "move_onto", linkageName: "_ZN18sized_array_memoryILm16EE9move_ontoEPvPKvm", scope: !1300, file: !1299, line: 34, type: !1309, scopeLine: 34, flags: DIFlagPublic | DIFlagPrototyped | DIFlagStaticMember, spFlags: DISPFlagOptimized)
!1313 = !DISubprogram(name: "destroy", linkageName: "_ZN18sized_array_memoryILm16EE7destroyEPvm", scope: !1300, file: !1299, line: 38, type: !1314, scopeLine: 38, flags: DIFlagPublic | DIFlagPrototyped | DIFlagStaticMember, spFlags: DISPFlagOptimized)
!1314 = !DISubroutineType(types: !1315)
!1315 = !{null, !560, !661}
!1316 = !DISubprogram(name: "mark_noaccess", linkageName: "_ZN18sized_array_memoryILm16EE13mark_noaccessEPvm", scope: !1300, file: !1299, line: 41, type: !1314, scopeLine: 41, flags: DIFlagPublic | DIFlagPrototyped | DIFlagStaticMember, spFlags: DISPFlagOptimized)
!1317 = !DISubprogram(name: "mark_undefined", linkageName: "_ZN18sized_array_memoryILm16EE14mark_undefinedEPvm", scope: !1300, file: !1299, line: 48, type: !1314, scopeLine: 48, flags: DIFlagPublic | DIFlagPrototyped | DIFlagStaticMember, spFlags: DISPFlagOptimized)
!1318 = !{!1319}
!1319 = !DITemplateValueParameter(name: "s", type: !44, value: i64 16)
!1320 = distinct !DICompositeType(tag: DW_TAG_structure_type, name: "char_array<16>", file: !1321, line: 165, size: 128, flags: DIFlagTypePassByValue, elements: !1322, templateParams: !1327, identifier: "_ZTS10char_arrayILm16EE")
!1321 = !DIFile(filename: "../dummy_inc/click/type_traits.hh", directory: "/home/john/projects/click/ir-dir")
!1322 = !{!1323}
!1323 = !DIDerivedType(tag: DW_TAG_member, name: "x", scope: !1320, file: !1321, line: 166, baseType: !1324, size: 128)
!1324 = !DICompositeType(tag: DW_TAG_array_type, baseType: !200, size: 128, elements: !1325)
!1325 = !{!1326}
!1326 = !DISubrange(count: 16)
!1327 = !{!1328}
!1328 = !DITemplateValueParameter(name: "S", type: !44, value: i64 16)
!1329 = !DIDerivedType(tag: DW_TAG_member, name: "n_", scope: !1293, file: !1290, line: 69, baseType: !1330, size: 32, offset: 64, flags: DIFlagPublic)
!1330 = !DIDerivedType(tag: DW_TAG_typedef, name: "size_type", file: !1290, line: 12, baseType: !40)
!1331 = !DIDerivedType(tag: DW_TAG_member, name: "capacity_", scope: !1293, file: !1290, line: 70, baseType: !1330, size: 32, offset: 96, flags: DIFlagPublic)
!1332 = !DISubprogram(name: "need_argument_copy", linkageName: "_ZNK13vector_memoryI18sized_array_memoryILm16EEE18need_argument_copyEPK10char_arrayILm16EE", scope: !1293, file: !1290, line: 15, type: !1333, scopeLine: 15, flags: DIFlagPublic | DIFlagPrototyped, spFlags: DISPFlagOptimized)
!1333 = !DISubroutineType(types: !1334)
!1334 = !{!104, !1335, !1337}
!1335 = !DIDerivedType(tag: DW_TAG_pointer_type, baseType: !1336, size: 64, flags: DIFlagArtificial | DIFlagObjectPointer)
!1336 = !DIDerivedType(tag: DW_TAG_const_type, baseType: !1293)
!1337 = !DIDerivedType(tag: DW_TAG_pointer_type, baseType: !1338, size: 64)
!1338 = !DIDerivedType(tag: DW_TAG_const_type, baseType: !1297)
!1339 = !DISubprogram(name: "vector_memory", scope: !1293, file: !1290, line: 20, type: !1340, scopeLine: 20, flags: DIFlagPublic | DIFlagPrototyped, spFlags: DISPFlagOptimized)
!1340 = !DISubroutineType(types: !1341)
!1341 = !{null, !1342}
!1342 = !DIDerivedType(tag: DW_TAG_pointer_type, baseType: !1293, size: 64, flags: DIFlagArtificial | DIFlagObjectPointer)
!1343 = !DISubprogram(name: "~vector_memory", scope: !1293, file: !1290, line: 23, type: !1340, scopeLine: 23, flags: DIFlagPublic | DIFlagPrototyped, spFlags: DISPFlagOptimized)
!1344 = !DISubprogram(name: "assign", linkageName: "_ZN13vector_memoryI18sized_array_memoryILm16EEE6assignERKS2_", scope: !1293, file: !1290, line: 25, type: !1345, scopeLine: 25, flags: DIFlagPublic | DIFlagPrototyped, spFlags: DISPFlagOptimized)
!1345 = !DISubroutineType(types: !1346)
!1346 = !{null, !1342, !1347}
!1347 = !DIDerivedType(tag: DW_TAG_reference_type, baseType: !1336, size: 64)
!1348 = !DISubprogram(name: "assign", linkageName: "_ZN13vector_memoryI18sized_array_memoryILm16EEE6assignEiPK10char_arrayILm16EE", scope: !1293, file: !1290, line: 26, type: !1349, scopeLine: 26, flags: DIFlagPublic | DIFlagPrototyped, spFlags: DISPFlagOptimized)
!1349 = !DISubroutineType(types: !1350)
!1350 = !{null, !1342, !1330, !1337}
!1351 = !DISubprogram(name: "resize", linkageName: "_ZN13vector_memoryI18sized_array_memoryILm16EEE6resizeEiPK10char_arrayILm16EE", scope: !1293, file: !1290, line: 27, type: !1349, scopeLine: 27, flags: DIFlagPublic | DIFlagPrototyped, spFlags: DISPFlagOptimized)
!1352 = !DISubprogram(name: "begin", linkageName: "_ZN13vector_memoryI18sized_array_memoryILm16EEE5beginEv", scope: !1293, file: !1290, line: 28, type: !1353, scopeLine: 28, flags: DIFlagPublic | DIFlagPrototyped, spFlags: DISPFlagOptimized)
!1353 = !DISubroutineType(types: !1354)
!1354 = !{!1355, !1342}
!1355 = !DIDerivedType(tag: DW_TAG_typedef, name: "iterator", scope: !1293, file: !1290, line: 14, baseType: !1296)
!1356 = !DISubprogram(name: "end", linkageName: "_ZN13vector_memoryI18sized_array_memoryILm16EEE3endEv", scope: !1293, file: !1290, line: 31, type: !1353, scopeLine: 31, flags: DIFlagPublic | DIFlagPrototyped, spFlags: DISPFlagOptimized)
!1357 = !DISubprogram(name: "insert", linkageName: "_ZN13vector_memoryI18sized_array_memoryILm16EEE6insertEP10char_arrayILm16EEPKS4_", scope: !1293, file: !1290, line: 34, type: !1358, scopeLine: 34, flags: DIFlagPublic | DIFlagPrototyped, spFlags: DISPFlagOptimized)
!1358 = !DISubroutineType(types: !1359)
!1359 = !{!1355, !1342, !1355, !1337}
!1360 = !DISubprogram(name: "erase", linkageName: "_ZN13vector_memoryI18sized_array_memoryILm16EEE5eraseEP10char_arrayILm16EES5_", scope: !1293, file: !1290, line: 35, type: !1361, scopeLine: 35, flags: DIFlagPublic | DIFlagPrototyped, spFlags: DISPFlagOptimized)
!1361 = !DISubroutineType(types: !1362)
!1362 = !{!1355, !1342, !1355, !1355}
!1363 = !DISubprogram(name: "push_back", linkageName: "_ZN13vector_memoryI18sized_array_memoryILm16EEE9push_backEPK10char_arrayILm16EE", scope: !1293, file: !1290, line: 36, type: !1364, scopeLine: 36, flags: DIFlagPublic | DIFlagPrototyped, spFlags: DISPFlagOptimized)
!1364 = !DISubroutineType(types: !1365)
!1365 = !{null, !1342, !1337}
!1366 = !DISubprogram(name: "move_construct_back", linkageName: "_ZN13vector_memoryI18sized_array_memoryILm16EEE19move_construct_backEP10char_arrayILm16EE", scope: !1293, file: !1290, line: 45, type: !1367, scopeLine: 45, flags: DIFlagPublic | DIFlagPrototyped, spFlags: DISPFlagOptimized)
!1367 = !DISubroutineType(types: !1368)
!1368 = !{null, !1342, !1296}
!1369 = !DISubprogram(name: "pop_back", linkageName: "_ZN13vector_memoryI18sized_array_memoryILm16EEE8pop_backEv", scope: !1293, file: !1290, line: 54, type: !1340, scopeLine: 54, flags: DIFlagPublic | DIFlagPrototyped, spFlags: DISPFlagOptimized)
!1370 = !DISubprogram(name: "clear", linkageName: "_ZN13vector_memoryI18sized_array_memoryILm16EEE5clearEv", scope: !1293, file: !1290, line: 60, type: !1340, scopeLine: 60, flags: DIFlagPublic | DIFlagPrototyped, spFlags: DISPFlagOptimized)
!1371 = !DISubprogram(name: "reserve_and_push_back", linkageName: "_ZN13vector_memoryI18sized_array_memoryILm16EEE21reserve_and_push_backEiPK10char_arrayILm16EE", scope: !1293, file: !1290, line: 65, type: !1372, scopeLine: 65, flags: DIFlagPublic | DIFlagPrototyped, spFlags: DISPFlagOptimized)
!1372 = !DISubroutineType(types: !1373)
!1373 = !{!104, !1342, !1330, !1337}
!1374 = !DISubprogram(name: "swap", linkageName: "_ZN13vector_memoryI18sized_array_memoryILm16EEE4swapERS2_", scope: !1293, file: !1290, line: 66, type: !1375, scopeLine: 66, flags: DIFlagPublic | DIFlagPrototyped, spFlags: DISPFlagOptimized)
!1375 = !DISubroutineType(types: !1376)
!1376 = !{null, !1342, !1377}
!1377 = !DIDerivedType(tag: DW_TAG_reference_type, baseType: !1293, size: 64)
!1378 = !{!1379}
!1379 = !DITemplateTypeParameter(name: "AM", type: !1300)
!1380 = !DISubprogram(name: "Vector", scope: !1289, file: !1290, line: 137, type: !1381, scopeLine: 137, flags: DIFlagPublic | DIFlagExplicit | DIFlagPrototyped, spFlags: DISPFlagOptimized)
!1381 = !DISubroutineType(types: !1382)
!1382 = !{null, !1383}
!1383 = !DIDerivedType(tag: DW_TAG_pointer_type, baseType: !1289, size: 64, flags: DIFlagArtificial | DIFlagObjectPointer)
!1384 = !DISubprogram(name: "Vector", scope: !1289, file: !1290, line: 138, type: !1385, scopeLine: 138, flags: DIFlagPublic | DIFlagExplicit | DIFlagPrototyped, spFlags: DISPFlagOptimized)
!1385 = !DISubroutineType(types: !1386)
!1386 = !{null, !1383, !1387, !1388}
!1387 = !DIDerivedType(tag: DW_TAG_typedef, name: "size_type", file: !1290, line: 128, baseType: !40)
!1388 = !DIDerivedType(tag: DW_TAG_typedef, name: "value_argument_type", scope: !1289, file: !1290, line: 125, baseType: !1389)
!1389 = !DIDerivedType(tag: DW_TAG_typedef, name: "type", scope: !1390, file: !1321, line: 150, baseType: !1405)
!1390 = distinct !DICompositeType(tag: DW_TAG_structure_type, name: "fast_argument<TimerSet::heap_element, true>", file: !1321, line: 148, size: 8, flags: DIFlagTypePassByValue, elements: !1391, templateParams: !1394, identifier: "_ZTS13fast_argumentIN8TimerSet12heap_elementELb1EE")
!1391 = !{!1392}
!1392 = !DIDerivedType(tag: DW_TAG_member, name: "is_reference", scope: !1390, file: !1321, line: 149, baseType: !1393, flags: DIFlagStaticMember, extraData: i1 true)
!1393 = !DIDerivedType(tag: DW_TAG_const_type, baseType: !104)
!1394 = !{!1395, !1404}
!1395 = !DITemplateTypeParameter(name: "T", type: !1396)
!1396 = distinct !DICompositeType(tag: DW_TAG_structure_type, name: "heap_element", scope: !1281, file: !1282, line: 36, size: 128, flags: DIFlagTypePassByValue | DIFlagNonTrivial, elements: !1397, identifier: "_ZTSN8TimerSet12heap_elementE")
!1397 = !{!1398, !1399, !1400}
!1398 = !DIDerivedType(tag: DW_TAG_member, name: "expiry_s", scope: !1396, file: !1282, line: 37, baseType: !16, size: 64)
!1399 = !DIDerivedType(tag: DW_TAG_member, name: "t", scope: !1396, file: !1282, line: 38, baseType: !1257, size: 64, offset: 64)
!1400 = !DISubprogram(name: "heap_element", scope: !1396, file: !1282, line: 42, type: !1401, scopeLine: 42, flags: DIFlagPrototyped, spFlags: DISPFlagOptimized)
!1401 = !DISubroutineType(types: !1402)
!1402 = !{null, !1403, !1257}
!1403 = !DIDerivedType(tag: DW_TAG_pointer_type, baseType: !1396, size: 64, flags: DIFlagArtificial | DIFlagObjectPointer)
!1404 = !DITemplateValueParameter(name: "use_reference", type: !104, value: i8 1)
!1405 = !DIDerivedType(tag: DW_TAG_reference_type, baseType: !1406, size: 64)
!1406 = !DIDerivedType(tag: DW_TAG_const_type, baseType: !1396)
!1407 = !DISubprogram(name: "Vector", scope: !1289, file: !1290, line: 139, type: !1408, scopeLine: 139, flags: DIFlagPublic | DIFlagPrototyped, spFlags: DISPFlagOptimized)
!1408 = !DISubroutineType(types: !1409)
!1409 = !{null, !1383, !1410}
!1410 = !DIDerivedType(tag: DW_TAG_reference_type, baseType: !1411, size: 64)
!1411 = !DIDerivedType(tag: DW_TAG_const_type, baseType: !1289)
!1412 = !DISubprogram(name: "Vector", scope: !1289, file: !1290, line: 141, type: !1413, scopeLine: 141, flags: DIFlagPublic | DIFlagPrototyped, spFlags: DISPFlagOptimized)
!1413 = !DISubroutineType(types: !1414)
!1414 = !{null, !1383, !1415}
!1415 = !DIDerivedType(tag: DW_TAG_rvalue_reference_type, baseType: !1289, size: 64)
!1416 = !DISubprogram(name: "operator=", linkageName: "_ZN6VectorIN8TimerSet12heap_elementEEaSERKS2_", scope: !1289, file: !1290, line: 144, type: !1417, scopeLine: 144, flags: DIFlagPublic | DIFlagPrototyped, spFlags: DISPFlagOptimized)
!1417 = !DISubroutineType(types: !1418)
!1418 = !{!1419, !1383, !1410}
!1419 = !DIDerivedType(tag: DW_TAG_reference_type, baseType: !1289, size: 64)
!1420 = !DISubprogram(name: "operator=", linkageName: "_ZN6VectorIN8TimerSet12heap_elementEEaSEOS2_", scope: !1289, file: !1290, line: 146, type: !1421, scopeLine: 146, flags: DIFlagPublic | DIFlagPrototyped, spFlags: DISPFlagOptimized)
!1421 = !DISubroutineType(types: !1422)
!1422 = !{!1419, !1383, !1415}
!1423 = !DISubprogram(name: "assign", linkageName: "_ZN6VectorIN8TimerSet12heap_elementEE6assignEiRKS1_", scope: !1289, file: !1290, line: 148, type: !1424, scopeLine: 148, flags: DIFlagPublic | DIFlagPrototyped, spFlags: DISPFlagOptimized)
!1424 = !DISubroutineType(types: !1425)
!1425 = !{!1419, !1383, !1387, !1388}
!1426 = !DISubprogram(name: "begin", linkageName: "_ZN6VectorIN8TimerSet12heap_elementEE5beginEv", scope: !1289, file: !1290, line: 150, type: !1427, scopeLine: 150, flags: DIFlagPublic | DIFlagPrototyped, spFlags: DISPFlagOptimized)
!1427 = !DISubroutineType(types: !1428)
!1428 = !{!1429, !1383}
!1429 = !DIDerivedType(tag: DW_TAG_typedef, name: "iterator", scope: !1289, file: !1290, line: 130, baseType: !1430)
!1430 = !DIDerivedType(tag: DW_TAG_pointer_type, baseType: !1396, size: 64)
!1431 = !DISubprogram(name: "end", linkageName: "_ZN6VectorIN8TimerSet12heap_elementEE3endEv", scope: !1289, file: !1290, line: 151, type: !1427, scopeLine: 151, flags: DIFlagPublic | DIFlagPrototyped, spFlags: DISPFlagOptimized)
!1432 = !DISubprogram(name: "begin", linkageName: "_ZNK6VectorIN8TimerSet12heap_elementEE5beginEv", scope: !1289, file: !1290, line: 152, type: !1433, scopeLine: 152, flags: DIFlagPublic | DIFlagPrototyped, spFlags: DISPFlagOptimized)
!1433 = !DISubroutineType(types: !1434)
!1434 = !{!1435, !1437}
!1435 = !DIDerivedType(tag: DW_TAG_typedef, name: "const_iterator", scope: !1289, file: !1290, line: 131, baseType: !1436)
!1436 = !DIDerivedType(tag: DW_TAG_pointer_type, baseType: !1406, size: 64)
!1437 = !DIDerivedType(tag: DW_TAG_pointer_type, baseType: !1411, size: 64, flags: DIFlagArtificial | DIFlagObjectPointer)
!1438 = !DISubprogram(name: "end", linkageName: "_ZNK6VectorIN8TimerSet12heap_elementEE3endEv", scope: !1289, file: !1290, line: 153, type: !1433, scopeLine: 153, flags: DIFlagPublic | DIFlagPrototyped, spFlags: DISPFlagOptimized)
!1439 = !DISubprogram(name: "cbegin", linkageName: "_ZNK6VectorIN8TimerSet12heap_elementEE6cbeginEv", scope: !1289, file: !1290, line: 154, type: !1433, scopeLine: 154, flags: DIFlagPublic | DIFlagPrototyped, spFlags: DISPFlagOptimized)
!1440 = !DISubprogram(name: "cend", linkageName: "_ZNK6VectorIN8TimerSet12heap_elementEE4cendEv", scope: !1289, file: !1290, line: 155, type: !1433, scopeLine: 155, flags: DIFlagPublic | DIFlagPrototyped, spFlags: DISPFlagOptimized)
!1441 = !DISubprogram(name: "size", linkageName: "_ZNK6VectorIN8TimerSet12heap_elementEE4sizeEv", scope: !1289, file: !1290, line: 157, type: !1442, scopeLine: 157, flags: DIFlagPublic | DIFlagPrototyped, spFlags: DISPFlagOptimized)
!1442 = !DISubroutineType(types: !1443)
!1443 = !{!1387, !1437}
!1444 = !DISubprogram(name: "capacity", linkageName: "_ZNK6VectorIN8TimerSet12heap_elementEE8capacityEv", scope: !1289, file: !1290, line: 158, type: !1442, scopeLine: 158, flags: DIFlagPublic | DIFlagPrototyped, spFlags: DISPFlagOptimized)
!1445 = !DISubprogram(name: "empty", linkageName: "_ZNK6VectorIN8TimerSet12heap_elementEE5emptyEv", scope: !1289, file: !1290, line: 159, type: !1446, scopeLine: 159, flags: DIFlagPublic | DIFlagPrototyped, spFlags: DISPFlagOptimized)
!1446 = !DISubroutineType(types: !1447)
!1447 = !{!104, !1437}
!1448 = !DISubprogram(name: "resize", linkageName: "_ZN6VectorIN8TimerSet12heap_elementEE6resizeEiRKS1_", scope: !1289, file: !1290, line: 160, type: !1385, scopeLine: 160, flags: DIFlagPublic | DIFlagPrototyped, spFlags: DISPFlagOptimized)
!1449 = !DISubprogram(name: "reserve", linkageName: "_ZN6VectorIN8TimerSet12heap_elementEE7reserveEi", scope: !1289, file: !1290, line: 161, type: !1450, scopeLine: 161, flags: DIFlagPublic | DIFlagPrototyped, spFlags: DISPFlagOptimized)
!1450 = !DISubroutineType(types: !1451)
!1451 = !{!104, !1383, !1387}
!1452 = !DISubprogram(name: "operator[]", linkageName: "_ZN6VectorIN8TimerSet12heap_elementEEixEi", scope: !1289, file: !1290, line: 163, type: !1453, scopeLine: 163, flags: DIFlagPublic | DIFlagPrototyped, spFlags: DISPFlagOptimized)
!1453 = !DISubroutineType(types: !1454)
!1454 = !{!1455, !1383, !1387}
!1455 = !DIDerivedType(tag: DW_TAG_reference_type, baseType: !1396, size: 64)
!1456 = !DISubprogram(name: "operator[]", linkageName: "_ZNK6VectorIN8TimerSet12heap_elementEEixEi", scope: !1289, file: !1290, line: 164, type: !1457, scopeLine: 164, flags: DIFlagPublic | DIFlagPrototyped, spFlags: DISPFlagOptimized)
!1457 = !DISubroutineType(types: !1458)
!1458 = !{!1405, !1437, !1387}
!1459 = !DISubprogram(name: "at", linkageName: "_ZN6VectorIN8TimerSet12heap_elementEE2atEi", scope: !1289, file: !1290, line: 165, type: !1453, scopeLine: 165, flags: DIFlagPublic | DIFlagPrototyped, spFlags: DISPFlagOptimized)
!1460 = !DISubprogram(name: "at", linkageName: "_ZNK6VectorIN8TimerSet12heap_elementEE2atEi", scope: !1289, file: !1290, line: 166, type: !1457, scopeLine: 166, flags: DIFlagPublic | DIFlagPrototyped, spFlags: DISPFlagOptimized)
!1461 = !DISubprogram(name: "front", linkageName: "_ZN6VectorIN8TimerSet12heap_elementEE5frontEv", scope: !1289, file: !1290, line: 167, type: !1462, scopeLine: 167, flags: DIFlagPublic | DIFlagPrototyped, spFlags: DISPFlagOptimized)
!1462 = !DISubroutineType(types: !1463)
!1463 = !{!1455, !1383}
!1464 = !DISubprogram(name: "front", linkageName: "_ZNK6VectorIN8TimerSet12heap_elementEE5frontEv", scope: !1289, file: !1290, line: 168, type: !1465, scopeLine: 168, flags: DIFlagPublic | DIFlagPrototyped, spFlags: DISPFlagOptimized)
!1465 = !DISubroutineType(types: !1466)
!1466 = !{!1405, !1437}
!1467 = !DISubprogram(name: "back", linkageName: "_ZN6VectorIN8TimerSet12heap_elementEE4backEv", scope: !1289, file: !1290, line: 169, type: !1462, scopeLine: 169, flags: DIFlagPublic | DIFlagPrototyped, spFlags: DISPFlagOptimized)
!1468 = !DISubprogram(name: "back", linkageName: "_ZNK6VectorIN8TimerSet12heap_elementEE4backEv", scope: !1289, file: !1290, line: 170, type: !1465, scopeLine: 170, flags: DIFlagPublic | DIFlagPrototyped, spFlags: DISPFlagOptimized)
!1469 = !DISubprogram(name: "unchecked_at", linkageName: "_ZN6VectorIN8TimerSet12heap_elementEE12unchecked_atEi", scope: !1289, file: !1290, line: 172, type: !1453, scopeLine: 172, flags: DIFlagPublic | DIFlagPrototyped, spFlags: DISPFlagOptimized)
!1470 = !DISubprogram(name: "unchecked_at", linkageName: "_ZNK6VectorIN8TimerSet12heap_elementEE12unchecked_atEi", scope: !1289, file: !1290, line: 173, type: !1457, scopeLine: 173, flags: DIFlagPublic | DIFlagPrototyped, spFlags: DISPFlagOptimized)
!1471 = !DISubprogram(name: "at_u", linkageName: "_ZN6VectorIN8TimerSet12heap_elementEE4at_uEi", scope: !1289, file: !1290, line: 174, type: !1453, scopeLine: 174, flags: DIFlagPublic | DIFlagPrototyped, spFlags: DISPFlagOptimized)
!1472 = !DISubprogram(name: "at_u", linkageName: "_ZNK6VectorIN8TimerSet12heap_elementEE4at_uEi", scope: !1289, file: !1290, line: 175, type: !1457, scopeLine: 175, flags: DIFlagPublic | DIFlagPrototyped, spFlags: DISPFlagOptimized)
!1473 = !DISubprogram(name: "data", linkageName: "_ZN6VectorIN8TimerSet12heap_elementEE4dataEv", scope: !1289, file: !1290, line: 177, type: !1474, scopeLine: 177, flags: DIFlagPublic | DIFlagPrototyped, spFlags: DISPFlagOptimized)
!1474 = !DISubroutineType(types: !1475)
!1475 = !{!1430, !1383}
!1476 = !DISubprogram(name: "data", linkageName: "_ZNK6VectorIN8TimerSet12heap_elementEE4dataEv", scope: !1289, file: !1290, line: 178, type: !1477, scopeLine: 178, flags: DIFlagPublic | DIFlagPrototyped, spFlags: DISPFlagOptimized)
!1477 = !DISubroutineType(types: !1478)
!1478 = !{!1436, !1437}
!1479 = !DISubprogram(name: "push_back", linkageName: "_ZN6VectorIN8TimerSet12heap_elementEE9push_backERKS1_", scope: !1289, file: !1290, line: 180, type: !1480, scopeLine: 180, flags: DIFlagPublic | DIFlagPrototyped, spFlags: DISPFlagOptimized)
!1480 = !DISubroutineType(types: !1481)
!1481 = !{null, !1383, !1388}
!1482 = !DISubprogram(name: "pop_back", linkageName: "_ZN6VectorIN8TimerSet12heap_elementEE8pop_backEv", scope: !1289, file: !1290, line: 185, type: !1381, scopeLine: 185, flags: DIFlagPublic | DIFlagPrototyped, spFlags: DISPFlagOptimized)
!1483 = !DISubprogram(name: "push_front", linkageName: "_ZN6VectorIN8TimerSet12heap_elementEE10push_frontERKS1_", scope: !1289, file: !1290, line: 186, type: !1480, scopeLine: 186, flags: DIFlagPublic | DIFlagPrototyped, spFlags: DISPFlagOptimized)
!1484 = !DISubprogram(name: "pop_front", linkageName: "_ZN6VectorIN8TimerSet12heap_elementEE9pop_frontEv", scope: !1289, file: !1290, line: 187, type: !1381, scopeLine: 187, flags: DIFlagPublic | DIFlagPrototyped, spFlags: DISPFlagOptimized)
!1485 = !DISubprogram(name: "insert", linkageName: "_ZN6VectorIN8TimerSet12heap_elementEE6insertEPS1_RKS1_", scope: !1289, file: !1290, line: 189, type: !1486, scopeLine: 189, flags: DIFlagPublic | DIFlagPrototyped, spFlags: DISPFlagOptimized)
!1486 = !DISubroutineType(types: !1487)
!1487 = !{!1429, !1383, !1429, !1388}
!1488 = !DISubprogram(name: "erase", linkageName: "_ZN6VectorIN8TimerSet12heap_elementEE5eraseEPS1_", scope: !1289, file: !1290, line: 190, type: !1489, scopeLine: 190, flags: DIFlagPublic | DIFlagPrototyped, spFlags: DISPFlagOptimized)
!1489 = !DISubroutineType(types: !1490)
!1490 = !{!1429, !1383, !1429}
!1491 = !DISubprogram(name: "erase", linkageName: "_ZN6VectorIN8TimerSet12heap_elementEE5eraseEPS1_S3_", scope: !1289, file: !1290, line: 191, type: !1492, scopeLine: 191, flags: DIFlagPublic | DIFlagPrototyped, spFlags: DISPFlagOptimized)
!1492 = !DISubroutineType(types: !1493)
!1493 = !{!1429, !1383, !1429, !1429}
!1494 = !DISubprogram(name: "clear", linkageName: "_ZN6VectorIN8TimerSet12heap_elementEE5clearEv", scope: !1289, file: !1290, line: 193, type: !1381, scopeLine: 193, flags: DIFlagPublic | DIFlagPrototyped, spFlags: DISPFlagOptimized)
!1495 = !DISubprogram(name: "swap", linkageName: "_ZN6VectorIN8TimerSet12heap_elementEE4swapERS2_", scope: !1289, file: !1290, line: 195, type: !1496, scopeLine: 195, flags: DIFlagPublic | DIFlagPrototyped, spFlags: DISPFlagOptimized)
!1496 = !DISubroutineType(types: !1497)
!1497 = !{null, !1383, !1419}
!1498 = !{!1395}
!1499 = !DIDerivedType(tag: DW_TAG_member, name: "_timer_runchunk", scope: !1281, file: !1282, line: 64, baseType: !1500, size: 128, offset: 320)
!1500 = distinct !DICompositeType(tag: DW_TAG_class_type, name: "Vector<Timer *>", file: !1290, line: 111, size: 128, flags: DIFlagTypePassByReference | DIFlagNonTrivial, elements: !1501, templateParams: !1680, identifier: "_ZTS6VectorIP5TimerE")
!1501 = !{!1502, !1572, !1576, !1587, !1592, !1596, !1600, !1603, !1606, !1611, !1612, !1619, !1620, !1621, !1622, !1625, !1626, !1629, !1630, !1633, !1637, !1641, !1642, !1643, !1646, !1649, !1650, !1651, !1652, !1653, !1654, !1655, !1658, !1661, !1664, !1665, !1666, !1667, !1670, !1673, !1676, !1677}
!1502 = !DIDerivedType(tag: DW_TAG_member, name: "vm_", scope: !1500, file: !1290, line: 114, baseType: !1503, size: 128)
!1503 = distinct !DICompositeType(tag: DW_TAG_class_type, name: "vector_memory<sized_array_memory<8> >", file: !1290, line: 11, size: 128, flags: DIFlagTypePassByReference | DIFlagNonTrivial, elements: !1504, templateParams: !1570, identifier: "_ZTS13vector_memoryI18sized_array_memoryILm8EEE")
!1504 = !{!1505, !1522, !1523, !1524, !1531, !1535, !1536, !1540, !1543, !1544, !1548, !1549, !1552, !1555, !1558, !1561, !1562, !1563, !1566}
!1505 = !DIDerivedType(tag: DW_TAG_member, name: "l_", scope: !1503, file: !1290, line: 68, baseType: !1506, size: 64, flags: DIFlagPublic)
!1506 = !DIDerivedType(tag: DW_TAG_pointer_type, baseType: !1507, size: 64)
!1507 = !DIDerivedType(tag: DW_TAG_typedef, name: "type", scope: !1503, file: !1290, line: 13, baseType: !1508)
!1508 = !DIDerivedType(tag: DW_TAG_typedef, name: "type", scope: !1509, file: !1299, line: 11, baseType: !1521)
!1509 = distinct !DICompositeType(tag: DW_TAG_class_type, name: "sized_array_memory<8>", file: !1299, line: 10, size: 8, flags: DIFlagTypePassByValue, elements: !1510, templateParams: !1519, identifier: "_ZTS18sized_array_memoryILm8EE")
!1510 = !{!1511, !1512, !1513, !1514, !1515, !1516, !1517, !1518}
!1511 = !DISubprogram(name: "fill", linkageName: "_ZN18sized_array_memoryILm8EE4fillEPvmPKv", scope: !1509, file: !1299, line: 19, type: !1303, scopeLine: 19, flags: DIFlagPublic | DIFlagPrototyped | DIFlagStaticMember, spFlags: DISPFlagOptimized)
!1512 = !DISubprogram(name: "move_construct", linkageName: "_ZN18sized_array_memoryILm8EE14move_constructEPvS1_", scope: !1509, file: !1299, line: 23, type: !1306, scopeLine: 23, flags: DIFlagPublic | DIFlagPrototyped | DIFlagStaticMember, spFlags: DISPFlagOptimized)
!1513 = !DISubprogram(name: "copy", linkageName: "_ZN18sized_array_memoryILm8EE4copyEPvPKvm", scope: !1509, file: !1299, line: 26, type: !1309, scopeLine: 26, flags: DIFlagPublic | DIFlagPrototyped | DIFlagStaticMember, spFlags: DISPFlagOptimized)
!1514 = !DISubprogram(name: "move", linkageName: "_ZN18sized_array_memoryILm8EE4moveEPvPKvm", scope: !1509, file: !1299, line: 30, type: !1309, scopeLine: 30, flags: DIFlagPublic | DIFlagPrototyped | DIFlagStaticMember, spFlags: DISPFlagOptimized)
!1515 = !DISubprogram(name: "move_onto", linkageName: "_ZN18sized_array_memoryILm8EE9move_ontoEPvPKvm", scope: !1509, file: !1299, line: 34, type: !1309, scopeLine: 34, flags: DIFlagPublic | DIFlagPrototyped | DIFlagStaticMember, spFlags: DISPFlagOptimized)
!1516 = !DISubprogram(name: "destroy", linkageName: "_ZN18sized_array_memoryILm8EE7destroyEPvm", scope: !1509, file: !1299, line: 38, type: !1314, scopeLine: 38, flags: DIFlagPublic | DIFlagPrototyped | DIFlagStaticMember, spFlags: DISPFlagOptimized)
!1517 = !DISubprogram(name: "mark_noaccess", linkageName: "_ZN18sized_array_memoryILm8EE13mark_noaccessEPvm", scope: !1509, file: !1299, line: 41, type: !1314, scopeLine: 41, flags: DIFlagPublic | DIFlagPrototyped | DIFlagStaticMember, spFlags: DISPFlagOptimized)
!1518 = !DISubprogram(name: "mark_undefined", linkageName: "_ZN18sized_array_memoryILm8EE14mark_undefinedEPvm", scope: !1509, file: !1299, line: 48, type: !1314, scopeLine: 48, flags: DIFlagPublic | DIFlagPrototyped | DIFlagStaticMember, spFlags: DISPFlagOptimized)
!1519 = !{!1520}
!1520 = !DITemplateValueParameter(name: "s", type: !44, value: i64 8)
!1521 = !DICompositeType(tag: DW_TAG_structure_type, name: "char_array<8>", file: !1321, line: 165, flags: DIFlagFwdDecl, identifier: "_ZTS10char_arrayILm8EE")
!1522 = !DIDerivedType(tag: DW_TAG_member, name: "n_", scope: !1503, file: !1290, line: 69, baseType: !1330, size: 32, offset: 64, flags: DIFlagPublic)
!1523 = !DIDerivedType(tag: DW_TAG_member, name: "capacity_", scope: !1503, file: !1290, line: 70, baseType: !1330, size: 32, offset: 96, flags: DIFlagPublic)
!1524 = !DISubprogram(name: "need_argument_copy", linkageName: "_ZNK13vector_memoryI18sized_array_memoryILm8EEE18need_argument_copyEPK10char_arrayILm8EE", scope: !1503, file: !1290, line: 15, type: !1525, scopeLine: 15, flags: DIFlagPublic | DIFlagPrototyped, spFlags: DISPFlagOptimized)
!1525 = !DISubroutineType(types: !1526)
!1526 = !{!104, !1527, !1529}
!1527 = !DIDerivedType(tag: DW_TAG_pointer_type, baseType: !1528, size: 64, flags: DIFlagArtificial | DIFlagObjectPointer)
!1528 = !DIDerivedType(tag: DW_TAG_const_type, baseType: !1503)
!1529 = !DIDerivedType(tag: DW_TAG_pointer_type, baseType: !1530, size: 64)
!1530 = !DIDerivedType(tag: DW_TAG_const_type, baseType: !1507)
!1531 = !DISubprogram(name: "vector_memory", scope: !1503, file: !1290, line: 20, type: !1532, scopeLine: 20, flags: DIFlagPublic | DIFlagPrototyped, spFlags: DISPFlagOptimized)
!1532 = !DISubroutineType(types: !1533)
!1533 = !{null, !1534}
!1534 = !DIDerivedType(tag: DW_TAG_pointer_type, baseType: !1503, size: 64, flags: DIFlagArtificial | DIFlagObjectPointer)
!1535 = !DISubprogram(name: "~vector_memory", scope: !1503, file: !1290, line: 23, type: !1532, scopeLine: 23, flags: DIFlagPublic | DIFlagPrototyped, spFlags: DISPFlagOptimized)
!1536 = !DISubprogram(name: "assign", linkageName: "_ZN13vector_memoryI18sized_array_memoryILm8EEE6assignERKS2_", scope: !1503, file: !1290, line: 25, type: !1537, scopeLine: 25, flags: DIFlagPublic | DIFlagPrototyped, spFlags: DISPFlagOptimized)
!1537 = !DISubroutineType(types: !1538)
!1538 = !{null, !1534, !1539}
!1539 = !DIDerivedType(tag: DW_TAG_reference_type, baseType: !1528, size: 64)
!1540 = !DISubprogram(name: "assign", linkageName: "_ZN13vector_memoryI18sized_array_memoryILm8EEE6assignEiPK10char_arrayILm8EE", scope: !1503, file: !1290, line: 26, type: !1541, scopeLine: 26, flags: DIFlagPublic | DIFlagPrototyped, spFlags: DISPFlagOptimized)
!1541 = !DISubroutineType(types: !1542)
!1542 = !{null, !1534, !1330, !1529}
!1543 = !DISubprogram(name: "resize", linkageName: "_ZN13vector_memoryI18sized_array_memoryILm8EEE6resizeEiPK10char_arrayILm8EE", scope: !1503, file: !1290, line: 27, type: !1541, scopeLine: 27, flags: DIFlagPublic | DIFlagPrototyped, spFlags: DISPFlagOptimized)
!1544 = !DISubprogram(name: "begin", linkageName: "_ZN13vector_memoryI18sized_array_memoryILm8EEE5beginEv", scope: !1503, file: !1290, line: 28, type: !1545, scopeLine: 28, flags: DIFlagPublic | DIFlagPrototyped, spFlags: DISPFlagOptimized)
!1545 = !DISubroutineType(types: !1546)
!1546 = !{!1547, !1534}
!1547 = !DIDerivedType(tag: DW_TAG_typedef, name: "iterator", scope: !1503, file: !1290, line: 14, baseType: !1506)
!1548 = !DISubprogram(name: "end", linkageName: "_ZN13vector_memoryI18sized_array_memoryILm8EEE3endEv", scope: !1503, file: !1290, line: 31, type: !1545, scopeLine: 31, flags: DIFlagPublic | DIFlagPrototyped, spFlags: DISPFlagOptimized)
!1549 = !DISubprogram(name: "insert", linkageName: "_ZN13vector_memoryI18sized_array_memoryILm8EEE6insertEP10char_arrayILm8EEPKS4_", scope: !1503, file: !1290, line: 34, type: !1550, scopeLine: 34, flags: DIFlagPublic | DIFlagPrototyped, spFlags: DISPFlagOptimized)
!1550 = !DISubroutineType(types: !1551)
!1551 = !{!1547, !1534, !1547, !1529}
!1552 = !DISubprogram(name: "erase", linkageName: "_ZN13vector_memoryI18sized_array_memoryILm8EEE5eraseEP10char_arrayILm8EES5_", scope: !1503, file: !1290, line: 35, type: !1553, scopeLine: 35, flags: DIFlagPublic | DIFlagPrototyped, spFlags: DISPFlagOptimized)
!1553 = !DISubroutineType(types: !1554)
!1554 = !{!1547, !1534, !1547, !1547}
!1555 = !DISubprogram(name: "push_back", linkageName: "_ZN13vector_memoryI18sized_array_memoryILm8EEE9push_backEPK10char_arrayILm8EE", scope: !1503, file: !1290, line: 36, type: !1556, scopeLine: 36, flags: DIFlagPublic | DIFlagPrototyped, spFlags: DISPFlagOptimized)
!1556 = !DISubroutineType(types: !1557)
!1557 = !{null, !1534, !1529}
!1558 = !DISubprogram(name: "move_construct_back", linkageName: "_ZN13vector_memoryI18sized_array_memoryILm8EEE19move_construct_backEP10char_arrayILm8EE", scope: !1503, file: !1290, line: 45, type: !1559, scopeLine: 45, flags: DIFlagPublic | DIFlagPrototyped, spFlags: DISPFlagOptimized)
!1559 = !DISubroutineType(types: !1560)
!1560 = !{null, !1534, !1506}
!1561 = !DISubprogram(name: "pop_back", linkageName: "_ZN13vector_memoryI18sized_array_memoryILm8EEE8pop_backEv", scope: !1503, file: !1290, line: 54, type: !1532, scopeLine: 54, flags: DIFlagPublic | DIFlagPrototyped, spFlags: DISPFlagOptimized)
!1562 = !DISubprogram(name: "clear", linkageName: "_ZN13vector_memoryI18sized_array_memoryILm8EEE5clearEv", scope: !1503, file: !1290, line: 60, type: !1532, scopeLine: 60, flags: DIFlagPublic | DIFlagPrototyped, spFlags: DISPFlagOptimized)
!1563 = !DISubprogram(name: "reserve_and_push_back", linkageName: "_ZN13vector_memoryI18sized_array_memoryILm8EEE21reserve_and_push_backEiPK10char_arrayILm8EE", scope: !1503, file: !1290, line: 65, type: !1564, scopeLine: 65, flags: DIFlagPublic | DIFlagPrototyped, spFlags: DISPFlagOptimized)
!1564 = !DISubroutineType(types: !1565)
!1565 = !{!104, !1534, !1330, !1529}
!1566 = !DISubprogram(name: "swap", linkageName: "_ZN13vector_memoryI18sized_array_memoryILm8EEE4swapERS2_", scope: !1503, file: !1290, line: 66, type: !1567, scopeLine: 66, flags: DIFlagPublic | DIFlagPrototyped, spFlags: DISPFlagOptimized)
!1567 = !DISubroutineType(types: !1568)
!1568 = !{null, !1534, !1569}
!1569 = !DIDerivedType(tag: DW_TAG_reference_type, baseType: !1503, size: 64)
!1570 = !{!1571}
!1571 = !DITemplateTypeParameter(name: "AM", type: !1509)
!1572 = !DISubprogram(name: "Vector", scope: !1500, file: !1290, line: 137, type: !1573, scopeLine: 137, flags: DIFlagPublic | DIFlagExplicit | DIFlagPrototyped, spFlags: DISPFlagOptimized)
!1573 = !DISubroutineType(types: !1574)
!1574 = !{null, !1575}
!1575 = !DIDerivedType(tag: DW_TAG_pointer_type, baseType: !1500, size: 64, flags: DIFlagArtificial | DIFlagObjectPointer)
!1576 = !DISubprogram(name: "Vector", scope: !1500, file: !1290, line: 138, type: !1577, scopeLine: 138, flags: DIFlagPublic | DIFlagExplicit | DIFlagPrototyped, spFlags: DISPFlagOptimized)
!1577 = !DISubroutineType(types: !1578)
!1578 = !{null, !1575, !1387, !1579}
!1579 = !DIDerivedType(tag: DW_TAG_typedef, name: "value_argument_type", scope: !1500, file: !1290, line: 125, baseType: !1580)
!1580 = !DIDerivedType(tag: DW_TAG_typedef, name: "type", scope: !1581, file: !1321, line: 157, baseType: !1257)
!1581 = distinct !DICompositeType(tag: DW_TAG_structure_type, name: "fast_argument<Timer *, false>", file: !1321, line: 155, size: 8, flags: DIFlagTypePassByValue, elements: !1582, templateParams: !1584, identifier: "_ZTS13fast_argumentIP5TimerLb0EE")
!1582 = !{!1583}
!1583 = !DIDerivedType(tag: DW_TAG_member, name: "is_reference", scope: !1581, file: !1321, line: 156, baseType: !1393, flags: DIFlagStaticMember, extraData: i1 false)
!1584 = !{!1585, !1586}
!1585 = !DITemplateTypeParameter(name: "T", type: !1257)
!1586 = !DITemplateValueParameter(name: "use_reference", type: !104, value: i8 0)
!1587 = !DISubprogram(name: "Vector", scope: !1500, file: !1290, line: 139, type: !1588, scopeLine: 139, flags: DIFlagPublic | DIFlagPrototyped, spFlags: DISPFlagOptimized)
!1588 = !DISubroutineType(types: !1589)
!1589 = !{null, !1575, !1590}
!1590 = !DIDerivedType(tag: DW_TAG_reference_type, baseType: !1591, size: 64)
!1591 = !DIDerivedType(tag: DW_TAG_const_type, baseType: !1500)
!1592 = !DISubprogram(name: "Vector", scope: !1500, file: !1290, line: 141, type: !1593, scopeLine: 141, flags: DIFlagPublic | DIFlagPrototyped, spFlags: DISPFlagOptimized)
!1593 = !DISubroutineType(types: !1594)
!1594 = !{null, !1575, !1595}
!1595 = !DIDerivedType(tag: DW_TAG_rvalue_reference_type, baseType: !1500, size: 64)
!1596 = !DISubprogram(name: "operator=", linkageName: "_ZN6VectorIP5TimerEaSERKS2_", scope: !1500, file: !1290, line: 144, type: !1597, scopeLine: 144, flags: DIFlagPublic | DIFlagPrototyped, spFlags: DISPFlagOptimized)
!1597 = !DISubroutineType(types: !1598)
!1598 = !{!1599, !1575, !1590}
!1599 = !DIDerivedType(tag: DW_TAG_reference_type, baseType: !1500, size: 64)
!1600 = !DISubprogram(name: "operator=", linkageName: "_ZN6VectorIP5TimerEaSEOS2_", scope: !1500, file: !1290, line: 146, type: !1601, scopeLine: 146, flags: DIFlagPublic | DIFlagPrototyped, spFlags: DISPFlagOptimized)
!1601 = !DISubroutineType(types: !1602)
!1602 = !{!1599, !1575, !1595}
!1603 = !DISubprogram(name: "assign", linkageName: "_ZN6VectorIP5TimerE6assignEiS1_", scope: !1500, file: !1290, line: 148, type: !1604, scopeLine: 148, flags: DIFlagPublic | DIFlagPrototyped, spFlags: DISPFlagOptimized)
!1604 = !DISubroutineType(types: !1605)
!1605 = !{!1599, !1575, !1387, !1579}
!1606 = !DISubprogram(name: "begin", linkageName: "_ZN6VectorIP5TimerE5beginEv", scope: !1500, file: !1290, line: 150, type: !1607, scopeLine: 150, flags: DIFlagPublic | DIFlagPrototyped, spFlags: DISPFlagOptimized)
!1607 = !DISubroutineType(types: !1608)
!1608 = !{!1609, !1575}
!1609 = !DIDerivedType(tag: DW_TAG_typedef, name: "iterator", scope: !1500, file: !1290, line: 130, baseType: !1610)
!1610 = !DIDerivedType(tag: DW_TAG_pointer_type, baseType: !1257, size: 64)
!1611 = !DISubprogram(name: "end", linkageName: "_ZN6VectorIP5TimerE3endEv", scope: !1500, file: !1290, line: 151, type: !1607, scopeLine: 151, flags: DIFlagPublic | DIFlagPrototyped, spFlags: DISPFlagOptimized)
!1612 = !DISubprogram(name: "begin", linkageName: "_ZNK6VectorIP5TimerE5beginEv", scope: !1500, file: !1290, line: 152, type: !1613, scopeLine: 152, flags: DIFlagPublic | DIFlagPrototyped, spFlags: DISPFlagOptimized)
!1613 = !DISubroutineType(types: !1614)
!1614 = !{!1615, !1618}
!1615 = !DIDerivedType(tag: DW_TAG_typedef, name: "const_iterator", scope: !1500, file: !1290, line: 131, baseType: !1616)
!1616 = !DIDerivedType(tag: DW_TAG_pointer_type, baseType: !1617, size: 64)
!1617 = !DIDerivedType(tag: DW_TAG_const_type, baseType: !1257)
!1618 = !DIDerivedType(tag: DW_TAG_pointer_type, baseType: !1591, size: 64, flags: DIFlagArtificial | DIFlagObjectPointer)
!1619 = !DISubprogram(name: "end", linkageName: "_ZNK6VectorIP5TimerE3endEv", scope: !1500, file: !1290, line: 153, type: !1613, scopeLine: 153, flags: DIFlagPublic | DIFlagPrototyped, spFlags: DISPFlagOptimized)
!1620 = !DISubprogram(name: "cbegin", linkageName: "_ZNK6VectorIP5TimerE6cbeginEv", scope: !1500, file: !1290, line: 154, type: !1613, scopeLine: 154, flags: DIFlagPublic | DIFlagPrototyped, spFlags: DISPFlagOptimized)
!1621 = !DISubprogram(name: "cend", linkageName: "_ZNK6VectorIP5TimerE4cendEv", scope: !1500, file: !1290, line: 155, type: !1613, scopeLine: 155, flags: DIFlagPublic | DIFlagPrototyped, spFlags: DISPFlagOptimized)
!1622 = !DISubprogram(name: "size", linkageName: "_ZNK6VectorIP5TimerE4sizeEv", scope: !1500, file: !1290, line: 157, type: !1623, scopeLine: 157, flags: DIFlagPublic | DIFlagPrototyped, spFlags: DISPFlagOptimized)
!1623 = !DISubroutineType(types: !1624)
!1624 = !{!1387, !1618}
!1625 = !DISubprogram(name: "capacity", linkageName: "_ZNK6VectorIP5TimerE8capacityEv", scope: !1500, file: !1290, line: 158, type: !1623, scopeLine: 158, flags: DIFlagPublic | DIFlagPrototyped, spFlags: DISPFlagOptimized)
!1626 = !DISubprogram(name: "empty", linkageName: "_ZNK6VectorIP5TimerE5emptyEv", scope: !1500, file: !1290, line: 159, type: !1627, scopeLine: 159, flags: DIFlagPublic | DIFlagPrototyped, spFlags: DISPFlagOptimized)
!1627 = !DISubroutineType(types: !1628)
!1628 = !{!104, !1618}
!1629 = !DISubprogram(name: "resize", linkageName: "_ZN6VectorIP5TimerE6resizeEiS1_", scope: !1500, file: !1290, line: 160, type: !1577, scopeLine: 160, flags: DIFlagPublic | DIFlagPrototyped, spFlags: DISPFlagOptimized)
!1630 = !DISubprogram(name: "reserve", linkageName: "_ZN6VectorIP5TimerE7reserveEi", scope: !1500, file: !1290, line: 161, type: !1631, scopeLine: 161, flags: DIFlagPublic | DIFlagPrototyped, spFlags: DISPFlagOptimized)
!1631 = !DISubroutineType(types: !1632)
!1632 = !{!104, !1575, !1387}
!1633 = !DISubprogram(name: "operator[]", linkageName: "_ZN6VectorIP5TimerEixEi", scope: !1500, file: !1290, line: 163, type: !1634, scopeLine: 163, flags: DIFlagPublic | DIFlagPrototyped, spFlags: DISPFlagOptimized)
!1634 = !DISubroutineType(types: !1635)
!1635 = !{!1636, !1575, !1387}
!1636 = !DIDerivedType(tag: DW_TAG_reference_type, baseType: !1257, size: 64)
!1637 = !DISubprogram(name: "operator[]", linkageName: "_ZNK6VectorIP5TimerEixEi", scope: !1500, file: !1290, line: 164, type: !1638, scopeLine: 164, flags: DIFlagPublic | DIFlagPrototyped, spFlags: DISPFlagOptimized)
!1638 = !DISubroutineType(types: !1639)
!1639 = !{!1640, !1618, !1387}
!1640 = !DIDerivedType(tag: DW_TAG_reference_type, baseType: !1617, size: 64)
!1641 = !DISubprogram(name: "at", linkageName: "_ZN6VectorIP5TimerE2atEi", scope: !1500, file: !1290, line: 165, type: !1634, scopeLine: 165, flags: DIFlagPublic | DIFlagPrototyped, spFlags: DISPFlagOptimized)
!1642 = !DISubprogram(name: "at", linkageName: "_ZNK6VectorIP5TimerE2atEi", scope: !1500, file: !1290, line: 166, type: !1638, scopeLine: 166, flags: DIFlagPublic | DIFlagPrototyped, spFlags: DISPFlagOptimized)
!1643 = !DISubprogram(name: "front", linkageName: "_ZN6VectorIP5TimerE5frontEv", scope: !1500, file: !1290, line: 167, type: !1644, scopeLine: 167, flags: DIFlagPublic | DIFlagPrototyped, spFlags: DISPFlagOptimized)
!1644 = !DISubroutineType(types: !1645)
!1645 = !{!1636, !1575}
!1646 = !DISubprogram(name: "front", linkageName: "_ZNK6VectorIP5TimerE5frontEv", scope: !1500, file: !1290, line: 168, type: !1647, scopeLine: 168, flags: DIFlagPublic | DIFlagPrototyped, spFlags: DISPFlagOptimized)
!1647 = !DISubroutineType(types: !1648)
!1648 = !{!1640, !1618}
!1649 = !DISubprogram(name: "back", linkageName: "_ZN6VectorIP5TimerE4backEv", scope: !1500, file: !1290, line: 169, type: !1644, scopeLine: 169, flags: DIFlagPublic | DIFlagPrototyped, spFlags: DISPFlagOptimized)
!1650 = !DISubprogram(name: "back", linkageName: "_ZNK6VectorIP5TimerE4backEv", scope: !1500, file: !1290, line: 170, type: !1647, scopeLine: 170, flags: DIFlagPublic | DIFlagPrototyped, spFlags: DISPFlagOptimized)
!1651 = !DISubprogram(name: "unchecked_at", linkageName: "_ZN6VectorIP5TimerE12unchecked_atEi", scope: !1500, file: !1290, line: 172, type: !1634, scopeLine: 172, flags: DIFlagPublic | DIFlagPrototyped, spFlags: DISPFlagOptimized)
!1652 = !DISubprogram(name: "unchecked_at", linkageName: "_ZNK6VectorIP5TimerE12unchecked_atEi", scope: !1500, file: !1290, line: 173, type: !1638, scopeLine: 173, flags: DIFlagPublic | DIFlagPrototyped, spFlags: DISPFlagOptimized)
!1653 = !DISubprogram(name: "at_u", linkageName: "_ZN6VectorIP5TimerE4at_uEi", scope: !1500, file: !1290, line: 174, type: !1634, scopeLine: 174, flags: DIFlagPublic | DIFlagPrototyped, spFlags: DISPFlagOptimized)
!1654 = !DISubprogram(name: "at_u", linkageName: "_ZNK6VectorIP5TimerE4at_uEi", scope: !1500, file: !1290, line: 175, type: !1638, scopeLine: 175, flags: DIFlagPublic | DIFlagPrototyped, spFlags: DISPFlagOptimized)
!1655 = !DISubprogram(name: "data", linkageName: "_ZN6VectorIP5TimerE4dataEv", scope: !1500, file: !1290, line: 177, type: !1656, scopeLine: 177, flags: DIFlagPublic | DIFlagPrototyped, spFlags: DISPFlagOptimized)
!1656 = !DISubroutineType(types: !1657)
!1657 = !{!1610, !1575}
!1658 = !DISubprogram(name: "data", linkageName: "_ZNK6VectorIP5TimerE4dataEv", scope: !1500, file: !1290, line: 178, type: !1659, scopeLine: 178, flags: DIFlagPublic | DIFlagPrototyped, spFlags: DISPFlagOptimized)
!1659 = !DISubroutineType(types: !1660)
!1660 = !{!1616, !1618}
!1661 = !DISubprogram(name: "push_back", linkageName: "_ZN6VectorIP5TimerE9push_backES1_", scope: !1500, file: !1290, line: 180, type: !1662, scopeLine: 180, flags: DIFlagPublic | DIFlagPrototyped, spFlags: DISPFlagOptimized)
!1662 = !DISubroutineType(types: !1663)
!1663 = !{null, !1575, !1579}
!1664 = !DISubprogram(name: "pop_back", linkageName: "_ZN6VectorIP5TimerE8pop_backEv", scope: !1500, file: !1290, line: 185, type: !1573, scopeLine: 185, flags: DIFlagPublic | DIFlagPrototyped, spFlags: DISPFlagOptimized)
!1665 = !DISubprogram(name: "push_front", linkageName: "_ZN6VectorIP5TimerE10push_frontES1_", scope: !1500, file: !1290, line: 186, type: !1662, scopeLine: 186, flags: DIFlagPublic | DIFlagPrototyped, spFlags: DISPFlagOptimized)
!1666 = !DISubprogram(name: "pop_front", linkageName: "_ZN6VectorIP5TimerE9pop_frontEv", scope: !1500, file: !1290, line: 187, type: !1573, scopeLine: 187, flags: DIFlagPublic | DIFlagPrototyped, spFlags: DISPFlagOptimized)
!1667 = !DISubprogram(name: "insert", linkageName: "_ZN6VectorIP5TimerE6insertEPS1_S1_", scope: !1500, file: !1290, line: 189, type: !1668, scopeLine: 189, flags: DIFlagPublic | DIFlagPrototyped, spFlags: DISPFlagOptimized)
!1668 = !DISubroutineType(types: !1669)
!1669 = !{!1609, !1575, !1609, !1579}
!1670 = !DISubprogram(name: "erase", linkageName: "_ZN6VectorIP5TimerE5eraseEPS1_", scope: !1500, file: !1290, line: 190, type: !1671, scopeLine: 190, flags: DIFlagPublic | DIFlagPrototyped, spFlags: DISPFlagOptimized)
!1671 = !DISubroutineType(types: !1672)
!1672 = !{!1609, !1575, !1609}
!1673 = !DISubprogram(name: "erase", linkageName: "_ZN6VectorIP5TimerE5eraseEPS1_S3_", scope: !1500, file: !1290, line: 191, type: !1674, scopeLine: 191, flags: DIFlagPublic | DIFlagPrototyped, spFlags: DISPFlagOptimized)
!1674 = !DISubroutineType(types: !1675)
!1675 = !{!1609, !1575, !1609, !1609}
!1676 = !DISubprogram(name: "clear", linkageName: "_ZN6VectorIP5TimerE5clearEv", scope: !1500, file: !1290, line: 193, type: !1573, scopeLine: 193, flags: DIFlagPublic | DIFlagPrototyped, spFlags: DISPFlagOptimized)
!1677 = !DISubprogram(name: "swap", linkageName: "_ZN6VectorIP5TimerE4swapERS2_", scope: !1500, file: !1290, line: 195, type: !1678, scopeLine: 195, flags: DIFlagPublic | DIFlagPrototyped, spFlags: DISPFlagOptimized)
!1678 = !DISubroutineType(types: !1679)
!1679 = !{null, !1575, !1599}
!1680 = !{!1585}
!1681 = !DIDerivedType(tag: DW_TAG_member, name: "_timer_lock", scope: !1281, file: !1282, line: 65, baseType: !1682, size: 8, offset: 448)
!1682 = distinct !DICompositeType(tag: DW_TAG_class_type, name: "SimpleSpinlock", file: !1683, line: 194, size: 8, flags: DIFlagTypePassByReference | DIFlagNonTrivial, elements: !1684, identifier: "_ZTS14SimpleSpinlock")
!1683 = !DIFile(filename: "../dummy_inc/click/sync.hh", directory: "/home/john/projects/click/ir-dir")
!1684 = !{!1685, !1689, !1690, !1691, !1692}
!1685 = !DISubprogram(name: "SimpleSpinlock", scope: !1682, file: !1683, line: 196, type: !1686, scopeLine: 196, flags: DIFlagPublic | DIFlagPrototyped, spFlags: DISPFlagOptimized)
!1686 = !DISubroutineType(types: !1687)
!1687 = !{null, !1688}
!1688 = !DIDerivedType(tag: DW_TAG_pointer_type, baseType: !1682, size: 64, flags: DIFlagArtificial | DIFlagObjectPointer)
!1689 = !DISubprogram(name: "~SimpleSpinlock", scope: !1682, file: !1683, line: 197, type: !1686, scopeLine: 197, flags: DIFlagPublic | DIFlagPrototyped, spFlags: DISPFlagOptimized)
!1690 = !DISubprogram(name: "acquire", linkageName: "_ZN14SimpleSpinlock7acquireEv", scope: !1682, file: !1683, line: 199, type: !1686, scopeLine: 199, flags: DIFlagPublic | DIFlagPrototyped, spFlags: DISPFlagOptimized)
!1691 = !DISubprogram(name: "release", linkageName: "_ZN14SimpleSpinlock7releaseEv", scope: !1682, file: !1683, line: 200, type: !1686, scopeLine: 200, flags: DIFlagPublic | DIFlagPrototyped, spFlags: DISPFlagOptimized)
!1692 = !DISubprogram(name: "attempt", linkageName: "_ZN14SimpleSpinlock7attemptEv", scope: !1682, file: !1683, line: 201, type: !1693, scopeLine: 201, flags: DIFlagPublic | DIFlagPrototyped, spFlags: DISPFlagOptimized)
!1693 = !DISubroutineType(types: !1694)
!1694 = !{!104, !1688}
!1695 = !DIDerivedType(tag: DW_TAG_member, name: "_timer_check", scope: !1281, file: !1282, line: 71, baseType: !16, size: 64, offset: 512)
!1696 = !DIDerivedType(tag: DW_TAG_member, name: "_timer_check_reports", scope: !1281, file: !1282, line: 72, baseType: !34, size: 32, offset: 576)
!1697 = !DISubprogram(name: "TimerSet", scope: !1281, file: !1282, line: 14, type: !1698, scopeLine: 14, flags: DIFlagPublic | DIFlagPrototyped, spFlags: DISPFlagOptimized)
!1698 = !DISubroutineType(types: !1699)
!1699 = !{null, !1700}
!1700 = !DIDerivedType(tag: DW_TAG_pointer_type, baseType: !1281, size: 64, flags: DIFlagArtificial | DIFlagObjectPointer)
!1701 = !DISubprogram(name: "timer_expiry_steady", linkageName: "_ZNK8TimerSet19timer_expiry_steadyEv", scope: !1281, file: !1282, line: 16, type: !1702, scopeLine: 16, flags: DIFlagPublic | DIFlagPrototyped, spFlags: DISPFlagOptimized)
!1702 = !DISubroutineType(types: !1703)
!1703 = !{!16, !1704}
!1704 = !DIDerivedType(tag: DW_TAG_pointer_type, baseType: !1705, size: 64, flags: DIFlagArtificial | DIFlagObjectPointer)
!1705 = !DIDerivedType(tag: DW_TAG_const_type, baseType: !1281)
!1706 = !DISubprogram(name: "timer_expiry_steady_adjusted", linkageName: "_ZNK8TimerSet28timer_expiry_steady_adjustedEv", scope: !1281, file: !1282, line: 17, type: !1702, scopeLine: 17, flags: DIFlagPublic | DIFlagPrototyped, spFlags: DISPFlagOptimized)
!1707 = !DISubprogram(name: "next_timer_delay", linkageName: "_ZNK8TimerSet16next_timer_delayEbR9Timestamp", scope: !1281, file: !1282, line: 19, type: !1708, scopeLine: 19, flags: DIFlagPublic | DIFlagPrototyped, spFlags: DISPFlagOptimized)
!1708 = !DISubroutineType(types: !1709)
!1709 = !{!40, !1704, !104, !1710}
!1710 = !DIDerivedType(tag: DW_TAG_reference_type, baseType: !16, size: 64)
!1711 = !DISubprogram(name: "next_timer", linkageName: "_ZN8TimerSet10next_timerEv", scope: !1281, file: !1282, line: 22, type: !1712, scopeLine: 22, flags: DIFlagPublic | DIFlagPrototyped, spFlags: DISPFlagOptimized)
!1712 = !DISubroutineType(types: !1713)
!1713 = !{!1257, !1700}
!1714 = !DISubprogram(name: "max_timer_stride", linkageName: "_ZNK8TimerSet16max_timer_strideEv", scope: !1281, file: !1282, line: 24, type: !1715, scopeLine: 24, flags: DIFlagPublic | DIFlagPrototyped, spFlags: DISPFlagOptimized)
!1715 = !DISubroutineType(types: !1716)
!1716 = !{!6, !1704}
!1717 = !DISubprogram(name: "timer_stride", linkageName: "_ZNK8TimerSet12timer_strideEv", scope: !1281, file: !1282, line: 25, type: !1715, scopeLine: 25, flags: DIFlagPublic | DIFlagPrototyped, spFlags: DISPFlagOptimized)
!1718 = !DISubprogram(name: "set_max_timer_stride", linkageName: "_ZN8TimerSet20set_max_timer_strideEj", scope: !1281, file: !1282, line: 26, type: !1719, scopeLine: 26, flags: DIFlagPublic | DIFlagPrototyped, spFlags: DISPFlagOptimized)
!1719 = !DISubroutineType(types: !1720)
!1720 = !{null, !1700, !6}
!1721 = !DISubprogram(name: "kill_router", linkageName: "_ZN8TimerSet11kill_routerEP6Router", scope: !1281, file: !1282, line: 28, type: !1722, scopeLine: 28, flags: DIFlagPublic | DIFlagPrototyped, spFlags: DISPFlagOptimized)
!1722 = !DISubroutineType(types: !1723)
!1723 = !{null, !1700, !1724}
!1724 = !DIDerivedType(tag: DW_TAG_pointer_type, baseType: !1725, size: 64)
!1725 = distinct !DICompositeType(tag: DW_TAG_class_type, name: "Router", file: !1726, line: 23, size: 3776, flags: DIFlagTypePassByReference | DIFlagNonTrivial, elements: !1727, identifier: "_ZTS6Router")
!1726 = !DIFile(filename: "../dummy_inc/click/router.hh", directory: "/home/john/projects/click/ir-dir")
!1727 = !{!1728, !1731, !1790, !1792, !1793, !1794, !1795, !1796, !1797, !1909, !2098, !2099, !2287, !2398, !2594, !2595, !2596, !2600, !2601, !2756, !2757, !2758, !2759, !2760, !2761, !2762, !2861, !2862, !2863, !2864, !2976, !2977, !2978, !2981, !2984, !2985, !2989, !2992, !2993, !2994, !2995, !3000, !3003, !3004, !3005, !3006, !3009, !3013, !3014, !3017, !3020, !3023, !3026, !3029, !3033, !3036, !3039, !3040, !3041, !3044, !3047, !3050, !3055, !3060, !3063, !3064, !3069, !3070, !3073, !3074, !3077, !3080, !3083, !3086, !3089, !3092, !3095, !3098, !3101, !3104, !3107, !3110, !3113, !3116, !3119, !3122, !3125, !3128, !3131, !3134, !3292, !3293, !3294, !3295, !3298, !3301, !3302, !3303, !3304, !3305, !3306, !3309, !3312, !3315, !3318, !3321, !3324, !3327, !3330, !3333, !3338, !3342, !3346, !3350, !3353, !3356, !3357, !3358, !3359, !3360, !3363, !3364, !3365, !3368, !3371, !3372, !3375, !3376, !3377, !3380, !3383, !3386, !3389, !3392, !3396, !3399, !3402, !3403}
!1728 = !DIDerivedType(tag: DW_TAG_member, name: "_master", scope: !1725, file: !1726, line: 229, baseType: !1729, size: 64)
!1729 = !DIDerivedType(tag: DW_TAG_pointer_type, baseType: !1730, size: 64)
!1730 = !DICompositeType(tag: DW_TAG_class_type, name: "Master", file: !1203, line: 11, flags: DIFlagFwdDecl, identifier: "_ZTS6Master")
!1731 = !DIDerivedType(tag: DW_TAG_member, name: "_runcount", scope: !1725, file: !1726, line: 231, baseType: !1732, size: 32, offset: 64)
!1732 = distinct !DICompositeType(tag: DW_TAG_class_type, name: "atomic_uint32_t", file: !1733, line: 52, size: 32, flags: DIFlagTypePassByValue, elements: !1734, identifier: "_ZTS15atomic_uint32_t")
!1733 = !DIFile(filename: "../dummy_inc/click/atomic.hh", directory: "/home/john/projects/click/ir-dir")
!1734 = !{!1735, !1736, !1741, !1742, !1747, !1750, !1751, !1752, !1753, !1756, !1759, !1760, !1761, !1764, !1765, !1768, !1771, !1774, !1778, !1781, !1784, !1787}
!1735 = !DIDerivedType(tag: DW_TAG_member, name: "_val", scope: !1732, file: !1733, line: 91, baseType: !34, size: 32)
!1736 = !DISubprogram(name: "value", linkageName: "_ZNK15atomic_uint32_t5valueEv", scope: !1732, file: !1733, line: 57, type: !1737, scopeLine: 57, flags: DIFlagPublic | DIFlagPrototyped, spFlags: DISPFlagOptimized)
!1737 = !DISubroutineType(types: !1738)
!1738 = !{!34, !1739}
!1739 = !DIDerivedType(tag: DW_TAG_pointer_type, baseType: !1740, size: 64, flags: DIFlagArtificial | DIFlagObjectPointer)
!1740 = !DIDerivedType(tag: DW_TAG_const_type, baseType: !1732)
!1741 = !DISubprogram(name: "operator unsigned int", linkageName: "_ZNK15atomic_uint32_tcvjEv", scope: !1732, file: !1733, line: 58, type: !1737, scopeLine: 58, flags: DIFlagPublic | DIFlagPrototyped, spFlags: DISPFlagOptimized)
!1742 = !DISubprogram(name: "operator=", linkageName: "_ZN15atomic_uint32_taSEj", scope: !1732, file: !1733, line: 60, type: !1743, scopeLine: 60, flags: DIFlagPublic | DIFlagPrototyped, spFlags: DISPFlagOptimized)
!1743 = !DISubroutineType(types: !1744)
!1744 = !{!1745, !1746, !34}
!1745 = !DIDerivedType(tag: DW_TAG_reference_type, baseType: !1732, size: 64)
!1746 = !DIDerivedType(tag: DW_TAG_pointer_type, baseType: !1732, size: 64, flags: DIFlagArtificial | DIFlagObjectPointer)
!1747 = !DISubprogram(name: "operator+=", linkageName: "_ZN15atomic_uint32_tpLEi", scope: !1732, file: !1733, line: 62, type: !1748, scopeLine: 62, flags: DIFlagPublic | DIFlagPrototyped, spFlags: DISPFlagOptimized)
!1748 = !DISubroutineType(types: !1749)
!1749 = !{!1745, !1746, !97}
!1750 = !DISubprogram(name: "operator-=", linkageName: "_ZN15atomic_uint32_tmIEi", scope: !1732, file: !1733, line: 63, type: !1748, scopeLine: 63, flags: DIFlagPublic | DIFlagPrototyped, spFlags: DISPFlagOptimized)
!1751 = !DISubprogram(name: "operator|=", linkageName: "_ZN15atomic_uint32_toREj", scope: !1732, file: !1733, line: 64, type: !1743, scopeLine: 64, flags: DIFlagPublic | DIFlagPrototyped, spFlags: DISPFlagOptimized)
!1752 = !DISubprogram(name: "operator&=", linkageName: "_ZN15atomic_uint32_taNEj", scope: !1732, file: !1733, line: 65, type: !1743, scopeLine: 65, flags: DIFlagPublic | DIFlagPrototyped, spFlags: DISPFlagOptimized)
!1753 = !DISubprogram(name: "operator++", linkageName: "_ZN15atomic_uint32_tppEv", scope: !1732, file: !1733, line: 67, type: !1754, scopeLine: 67, flags: DIFlagPublic | DIFlagPrototyped, spFlags: DISPFlagOptimized)
!1754 = !DISubroutineType(types: !1755)
!1755 = !{null, !1746}
!1756 = !DISubprogram(name: "operator++", linkageName: "_ZN15atomic_uint32_tppEi", scope: !1732, file: !1733, line: 68, type: !1757, scopeLine: 68, flags: DIFlagPublic | DIFlagPrototyped, spFlags: DISPFlagOptimized)
!1757 = !DISubroutineType(types: !1758)
!1758 = !{null, !1746, !40}
!1759 = !DISubprogram(name: "operator--", linkageName: "_ZN15atomic_uint32_tmmEv", scope: !1732, file: !1733, line: 69, type: !1754, scopeLine: 69, flags: DIFlagPublic | DIFlagPrototyped, spFlags: DISPFlagOptimized)
!1760 = !DISubprogram(name: "operator--", linkageName: "_ZN15atomic_uint32_tmmEi", scope: !1732, file: !1733, line: 70, type: !1757, scopeLine: 70, flags: DIFlagPublic | DIFlagPrototyped, spFlags: DISPFlagOptimized)
!1761 = !DISubprogram(name: "swap", linkageName: "_ZN15atomic_uint32_t4swapEj", scope: !1732, file: !1733, line: 72, type: !1762, scopeLine: 72, flags: DIFlagPublic | DIFlagPrototyped, spFlags: DISPFlagOptimized)
!1762 = !DISubroutineType(types: !1763)
!1763 = !{!34, !1746, !34}
!1764 = !DISubprogram(name: "fetch_and_add", linkageName: "_ZN15atomic_uint32_t13fetch_and_addEj", scope: !1732, file: !1733, line: 73, type: !1762, scopeLine: 73, flags: DIFlagPublic | DIFlagPrototyped, spFlags: DISPFlagOptimized)
!1765 = !DISubprogram(name: "dec_and_test", linkageName: "_ZN15atomic_uint32_t12dec_and_testEv", scope: !1732, file: !1733, line: 74, type: !1766, scopeLine: 74, flags: DIFlagPublic | DIFlagPrototyped, spFlags: DISPFlagOptimized)
!1766 = !DISubroutineType(types: !1767)
!1767 = !{!104, !1746}
!1768 = !DISubprogram(name: "compare_swap", linkageName: "_ZN15atomic_uint32_t12compare_swapEjj", scope: !1732, file: !1733, line: 75, type: !1769, scopeLine: 75, flags: DIFlagPublic | DIFlagPrototyped, spFlags: DISPFlagOptimized)
!1769 = !DISubroutineType(types: !1770)
!1770 = !{!34, !1746, !34, !34}
!1771 = !DISubprogram(name: "compare_and_swap", linkageName: "_ZN15atomic_uint32_t16compare_and_swapEjj", scope: !1732, file: !1733, line: 76, type: !1772, scopeLine: 76, flags: DIFlagPublic | DIFlagPrototyped, spFlags: DISPFlagOptimized)
!1772 = !DISubroutineType(types: !1773)
!1773 = !{!104, !1746, !34, !34}
!1774 = !DISubprogram(name: "swap", linkageName: "_ZN15atomic_uint32_t4swapERVjj", scope: !1732, file: !1733, line: 78, type: !1775, scopeLine: 78, flags: DIFlagPublic | DIFlagPrototyped | DIFlagStaticMember, spFlags: DISPFlagOptimized)
!1775 = !DISubroutineType(types: !1776)
!1776 = !{!34, !1777, !34}
!1777 = !DIDerivedType(tag: DW_TAG_reference_type, baseType: !214, size: 64)
!1778 = !DISubprogram(name: "inc", linkageName: "_ZN15atomic_uint32_t3incERVj", scope: !1732, file: !1733, line: 79, type: !1779, scopeLine: 79, flags: DIFlagPublic | DIFlagPrototyped | DIFlagStaticMember, spFlags: DISPFlagOptimized)
!1779 = !DISubroutineType(types: !1780)
!1780 = !{null, !1777}
!1781 = !DISubprogram(name: "dec_and_test", linkageName: "_ZN15atomic_uint32_t12dec_and_testERVj", scope: !1732, file: !1733, line: 80, type: !1782, scopeLine: 80, flags: DIFlagPublic | DIFlagPrototyped | DIFlagStaticMember, spFlags: DISPFlagOptimized)
!1782 = !DISubroutineType(types: !1783)
!1783 = !{!104, !1777}
!1784 = !DISubprogram(name: "compare_swap", linkageName: "_ZN15atomic_uint32_t12compare_swapERVjjj", scope: !1732, file: !1733, line: 81, type: !1785, scopeLine: 81, flags: DIFlagPublic | DIFlagPrototyped | DIFlagStaticMember, spFlags: DISPFlagOptimized)
!1785 = !DISubroutineType(types: !1786)
!1786 = !{!34, !1777, !34, !34}
!1787 = !DISubprogram(name: "compare_and_swap", linkageName: "_ZN15atomic_uint32_t16compare_and_swapERVjjj", scope: !1732, file: !1733, line: 82, type: !1788, scopeLine: 82, flags: DIFlagPublic | DIFlagPrototyped | DIFlagStaticMember, spFlags: DISPFlagOptimized)
!1788 = !DISubroutineType(types: !1789)
!1789 = !{!104, !1777, !34, !34}
!1790 = !DIDerivedType(tag: DW_TAG_member, name: "_state", scope: !1725, file: !1726, line: 233, baseType: !1791, size: 32, offset: 96)
!1791 = !DIDerivedType(tag: DW_TAG_volatile_type, baseType: !40)
!1792 = !DIDerivedType(tag: DW_TAG_member, name: "_have_connections", scope: !1725, file: !1726, line: 234, baseType: !104, size: 1, offset: 128, flags: DIFlagBitField, extraData: i64 128)
!1793 = !DIDerivedType(tag: DW_TAG_member, name: "_conn_sorted", scope: !1725, file: !1726, line: 235, baseType: !104, size: 1, offset: 129, flags: DIFlagBitField, extraData: i64 128)
!1794 = !DIDerivedType(tag: DW_TAG_member, name: "_have_configuration", scope: !1725, file: !1726, line: 236, baseType: !104, size: 1, offset: 130, flags: DIFlagBitField, extraData: i64 128)
!1795 = !DIDerivedType(tag: DW_TAG_member, name: "_running", scope: !1725, file: !1726, line: 237, baseType: !1791, size: 32, offset: 160)
!1796 = !DIDerivedType(tag: DW_TAG_member, name: "_refcount", scope: !1725, file: !1726, line: 239, baseType: !1732, size: 32, offset: 192)
!1797 = !DIDerivedType(tag: DW_TAG_member, name: "_elements", scope: !1725, file: !1726, line: 241, baseType: !1798, size: 128, offset: 256)
!1798 = distinct !DICompositeType(tag: DW_TAG_class_type, name: "Vector<Element *>", file: !1290, line: 111, size: 128, flags: DIFlagTypePassByReference | DIFlagNonTrivial, elements: !1799, templateParams: !1908, identifier: "_ZTS6VectorIP7ElementE")
!1799 = !{!1800, !1801, !1805, !1815, !1820, !1824, !1828, !1831, !1834, !1839, !1840, !1847, !1848, !1849, !1850, !1853, !1854, !1857, !1858, !1861, !1865, !1869, !1870, !1871, !1874, !1877, !1878, !1879, !1880, !1881, !1882, !1883, !1886, !1889, !1892, !1893, !1894, !1895, !1898, !1901, !1904, !1905}
!1800 = !DIDerivedType(tag: DW_TAG_member, name: "vm_", scope: !1798, file: !1290, line: 114, baseType: !1503, size: 128)
!1801 = !DISubprogram(name: "Vector", scope: !1798, file: !1290, line: 137, type: !1802, scopeLine: 137, flags: DIFlagPublic | DIFlagExplicit | DIFlagPrototyped, spFlags: DISPFlagOptimized)
!1802 = !DISubroutineType(types: !1803)
!1803 = !{null, !1804}
!1804 = !DIDerivedType(tag: DW_TAG_pointer_type, baseType: !1798, size: 64, flags: DIFlagArtificial | DIFlagObjectPointer)
!1805 = !DISubprogram(name: "Vector", scope: !1798, file: !1290, line: 138, type: !1806, scopeLine: 138, flags: DIFlagPublic | DIFlagExplicit | DIFlagPrototyped, spFlags: DISPFlagOptimized)
!1806 = !DISubroutineType(types: !1807)
!1807 = !{null, !1804, !1387, !1808}
!1808 = !DIDerivedType(tag: DW_TAG_typedef, name: "value_argument_type", scope: !1798, file: !1290, line: 125, baseType: !1809)
!1809 = !DIDerivedType(tag: DW_TAG_typedef, name: "type", scope: !1810, file: !1321, line: 157, baseType: !1260)
!1810 = distinct !DICompositeType(tag: DW_TAG_structure_type, name: "fast_argument<Element *, false>", file: !1321, line: 155, size: 8, flags: DIFlagTypePassByValue, elements: !1811, templateParams: !1813, identifier: "_ZTS13fast_argumentIP7ElementLb0EE")
!1811 = !{!1812}
!1812 = !DIDerivedType(tag: DW_TAG_member, name: "is_reference", scope: !1810, file: !1321, line: 156, baseType: !1393, flags: DIFlagStaticMember, extraData: i1 false)
!1813 = !{!1814, !1586}
!1814 = !DITemplateTypeParameter(name: "T", type: !1260)
!1815 = !DISubprogram(name: "Vector", scope: !1798, file: !1290, line: 139, type: !1816, scopeLine: 139, flags: DIFlagPublic | DIFlagPrototyped, spFlags: DISPFlagOptimized)
!1816 = !DISubroutineType(types: !1817)
!1817 = !{null, !1804, !1818}
!1818 = !DIDerivedType(tag: DW_TAG_reference_type, baseType: !1819, size: 64)
!1819 = !DIDerivedType(tag: DW_TAG_const_type, baseType: !1798)
!1820 = !DISubprogram(name: "Vector", scope: !1798, file: !1290, line: 141, type: !1821, scopeLine: 141, flags: DIFlagPublic | DIFlagPrototyped, spFlags: DISPFlagOptimized)
!1821 = !DISubroutineType(types: !1822)
!1822 = !{null, !1804, !1823}
!1823 = !DIDerivedType(tag: DW_TAG_rvalue_reference_type, baseType: !1798, size: 64)
!1824 = !DISubprogram(name: "operator=", linkageName: "_ZN6VectorIP7ElementEaSERKS2_", scope: !1798, file: !1290, line: 144, type: !1825, scopeLine: 144, flags: DIFlagPublic | DIFlagPrototyped, spFlags: DISPFlagOptimized)
!1825 = !DISubroutineType(types: !1826)
!1826 = !{!1827, !1804, !1818}
!1827 = !DIDerivedType(tag: DW_TAG_reference_type, baseType: !1798, size: 64)
!1828 = !DISubprogram(name: "operator=", linkageName: "_ZN6VectorIP7ElementEaSEOS2_", scope: !1798, file: !1290, line: 146, type: !1829, scopeLine: 146, flags: DIFlagPublic | DIFlagPrototyped, spFlags: DISPFlagOptimized)
!1829 = !DISubroutineType(types: !1830)
!1830 = !{!1827, !1804, !1823}
!1831 = !DISubprogram(name: "assign", linkageName: "_ZN6VectorIP7ElementE6assignEiS1_", scope: !1798, file: !1290, line: 148, type: !1832, scopeLine: 148, flags: DIFlagPublic | DIFlagPrototyped, spFlags: DISPFlagOptimized)
!1832 = !DISubroutineType(types: !1833)
!1833 = !{!1827, !1804, !1387, !1808}
!1834 = !DISubprogram(name: "begin", linkageName: "_ZN6VectorIP7ElementE5beginEv", scope: !1798, file: !1290, line: 150, type: !1835, scopeLine: 150, flags: DIFlagPublic | DIFlagPrototyped, spFlags: DISPFlagOptimized)
!1835 = !DISubroutineType(types: !1836)
!1836 = !{!1837, !1804}
!1837 = !DIDerivedType(tag: DW_TAG_typedef, name: "iterator", scope: !1798, file: !1290, line: 130, baseType: !1838)
!1838 = !DIDerivedType(tag: DW_TAG_pointer_type, baseType: !1260, size: 64)
!1839 = !DISubprogram(name: "end", linkageName: "_ZN6VectorIP7ElementE3endEv", scope: !1798, file: !1290, line: 151, type: !1835, scopeLine: 151, flags: DIFlagPublic | DIFlagPrototyped, spFlags: DISPFlagOptimized)
!1840 = !DISubprogram(name: "begin", linkageName: "_ZNK6VectorIP7ElementE5beginEv", scope: !1798, file: !1290, line: 152, type: !1841, scopeLine: 152, flags: DIFlagPublic | DIFlagPrototyped, spFlags: DISPFlagOptimized)
!1841 = !DISubroutineType(types: !1842)
!1842 = !{!1843, !1846}
!1843 = !DIDerivedType(tag: DW_TAG_typedef, name: "const_iterator", scope: !1798, file: !1290, line: 131, baseType: !1844)
!1844 = !DIDerivedType(tag: DW_TAG_pointer_type, baseType: !1845, size: 64)
!1845 = !DIDerivedType(tag: DW_TAG_const_type, baseType: !1260)
!1846 = !DIDerivedType(tag: DW_TAG_pointer_type, baseType: !1819, size: 64, flags: DIFlagArtificial | DIFlagObjectPointer)
!1847 = !DISubprogram(name: "end", linkageName: "_ZNK6VectorIP7ElementE3endEv", scope: !1798, file: !1290, line: 153, type: !1841, scopeLine: 153, flags: DIFlagPublic | DIFlagPrototyped, spFlags: DISPFlagOptimized)
!1848 = !DISubprogram(name: "cbegin", linkageName: "_ZNK6VectorIP7ElementE6cbeginEv", scope: !1798, file: !1290, line: 154, type: !1841, scopeLine: 154, flags: DIFlagPublic | DIFlagPrototyped, spFlags: DISPFlagOptimized)
!1849 = !DISubprogram(name: "cend", linkageName: "_ZNK6VectorIP7ElementE4cendEv", scope: !1798, file: !1290, line: 155, type: !1841, scopeLine: 155, flags: DIFlagPublic | DIFlagPrototyped, spFlags: DISPFlagOptimized)
!1850 = !DISubprogram(name: "size", linkageName: "_ZNK6VectorIP7ElementE4sizeEv", scope: !1798, file: !1290, line: 157, type: !1851, scopeLine: 157, flags: DIFlagPublic | DIFlagPrototyped, spFlags: DISPFlagOptimized)
!1851 = !DISubroutineType(types: !1852)
!1852 = !{!1387, !1846}
!1853 = !DISubprogram(name: "capacity", linkageName: "_ZNK6VectorIP7ElementE8capacityEv", scope: !1798, file: !1290, line: 158, type: !1851, scopeLine: 158, flags: DIFlagPublic | DIFlagPrototyped, spFlags: DISPFlagOptimized)
!1854 = !DISubprogram(name: "empty", linkageName: "_ZNK6VectorIP7ElementE5emptyEv", scope: !1798, file: !1290, line: 159, type: !1855, scopeLine: 159, flags: DIFlagPublic | DIFlagPrototyped, spFlags: DISPFlagOptimized)
!1855 = !DISubroutineType(types: !1856)
!1856 = !{!104, !1846}
!1857 = !DISubprogram(name: "resize", linkageName: "_ZN6VectorIP7ElementE6resizeEiS1_", scope: !1798, file: !1290, line: 160, type: !1806, scopeLine: 160, flags: DIFlagPublic | DIFlagPrototyped, spFlags: DISPFlagOptimized)
!1858 = !DISubprogram(name: "reserve", linkageName: "_ZN6VectorIP7ElementE7reserveEi", scope: !1798, file: !1290, line: 161, type: !1859, scopeLine: 161, flags: DIFlagPublic | DIFlagPrototyped, spFlags: DISPFlagOptimized)
!1859 = !DISubroutineType(types: !1860)
!1860 = !{!104, !1804, !1387}
!1861 = !DISubprogram(name: "operator[]", linkageName: "_ZN6VectorIP7ElementEixEi", scope: !1798, file: !1290, line: 163, type: !1862, scopeLine: 163, flags: DIFlagPublic | DIFlagPrototyped, spFlags: DISPFlagOptimized)
!1862 = !DISubroutineType(types: !1863)
!1863 = !{!1864, !1804, !1387}
!1864 = !DIDerivedType(tag: DW_TAG_reference_type, baseType: !1260, size: 64)
!1865 = !DISubprogram(name: "operator[]", linkageName: "_ZNK6VectorIP7ElementEixEi", scope: !1798, file: !1290, line: 164, type: !1866, scopeLine: 164, flags: DIFlagPublic | DIFlagPrototyped, spFlags: DISPFlagOptimized)
!1866 = !DISubroutineType(types: !1867)
!1867 = !{!1868, !1846, !1387}
!1868 = !DIDerivedType(tag: DW_TAG_reference_type, baseType: !1845, size: 64)
!1869 = !DISubprogram(name: "at", linkageName: "_ZN6VectorIP7ElementE2atEi", scope: !1798, file: !1290, line: 165, type: !1862, scopeLine: 165, flags: DIFlagPublic | DIFlagPrototyped, spFlags: DISPFlagOptimized)
!1870 = !DISubprogram(name: "at", linkageName: "_ZNK6VectorIP7ElementE2atEi", scope: !1798, file: !1290, line: 166, type: !1866, scopeLine: 166, flags: DIFlagPublic | DIFlagPrototyped, spFlags: DISPFlagOptimized)
!1871 = !DISubprogram(name: "front", linkageName: "_ZN6VectorIP7ElementE5frontEv", scope: !1798, file: !1290, line: 167, type: !1872, scopeLine: 167, flags: DIFlagPublic | DIFlagPrototyped, spFlags: DISPFlagOptimized)
!1872 = !DISubroutineType(types: !1873)
!1873 = !{!1864, !1804}
!1874 = !DISubprogram(name: "front", linkageName: "_ZNK6VectorIP7ElementE5frontEv", scope: !1798, file: !1290, line: 168, type: !1875, scopeLine: 168, flags: DIFlagPublic | DIFlagPrototyped, spFlags: DISPFlagOptimized)
!1875 = !DISubroutineType(types: !1876)
!1876 = !{!1868, !1846}
!1877 = !DISubprogram(name: "back", linkageName: "_ZN6VectorIP7ElementE4backEv", scope: !1798, file: !1290, line: 169, type: !1872, scopeLine: 169, flags: DIFlagPublic | DIFlagPrototyped, spFlags: DISPFlagOptimized)
!1878 = !DISubprogram(name: "back", linkageName: "_ZNK6VectorIP7ElementE4backEv", scope: !1798, file: !1290, line: 170, type: !1875, scopeLine: 170, flags: DIFlagPublic | DIFlagPrototyped, spFlags: DISPFlagOptimized)
!1879 = !DISubprogram(name: "unchecked_at", linkageName: "_ZN6VectorIP7ElementE12unchecked_atEi", scope: !1798, file: !1290, line: 172, type: !1862, scopeLine: 172, flags: DIFlagPublic | DIFlagPrototyped, spFlags: DISPFlagOptimized)
!1880 = !DISubprogram(name: "unchecked_at", linkageName: "_ZNK6VectorIP7ElementE12unchecked_atEi", scope: !1798, file: !1290, line: 173, type: !1866, scopeLine: 173, flags: DIFlagPublic | DIFlagPrototyped, spFlags: DISPFlagOptimized)
!1881 = !DISubprogram(name: "at_u", linkageName: "_ZN6VectorIP7ElementE4at_uEi", scope: !1798, file: !1290, line: 174, type: !1862, scopeLine: 174, flags: DIFlagPublic | DIFlagPrototyped, spFlags: DISPFlagOptimized)
!1882 = !DISubprogram(name: "at_u", linkageName: "_ZNK6VectorIP7ElementE4at_uEi", scope: !1798, file: !1290, line: 175, type: !1866, scopeLine: 175, flags: DIFlagPublic | DIFlagPrototyped, spFlags: DISPFlagOptimized)
!1883 = !DISubprogram(name: "data", linkageName: "_ZN6VectorIP7ElementE4dataEv", scope: !1798, file: !1290, line: 177, type: !1884, scopeLine: 177, flags: DIFlagPublic | DIFlagPrototyped, spFlags: DISPFlagOptimized)
!1884 = !DISubroutineType(types: !1885)
!1885 = !{!1838, !1804}
!1886 = !DISubprogram(name: "data", linkageName: "_ZNK6VectorIP7ElementE4dataEv", scope: !1798, file: !1290, line: 178, type: !1887, scopeLine: 178, flags: DIFlagPublic | DIFlagPrototyped, spFlags: DISPFlagOptimized)
!1887 = !DISubroutineType(types: !1888)
!1888 = !{!1844, !1846}
!1889 = !DISubprogram(name: "push_back", linkageName: "_ZN6VectorIP7ElementE9push_backES1_", scope: !1798, file: !1290, line: 180, type: !1890, scopeLine: 180, flags: DIFlagPublic | DIFlagPrototyped, spFlags: DISPFlagOptimized)
!1890 = !DISubroutineType(types: !1891)
!1891 = !{null, !1804, !1808}
!1892 = !DISubprogram(name: "pop_back", linkageName: "_ZN6VectorIP7ElementE8pop_backEv", scope: !1798, file: !1290, line: 185, type: !1802, scopeLine: 185, flags: DIFlagPublic | DIFlagPrototyped, spFlags: DISPFlagOptimized)
!1893 = !DISubprogram(name: "push_front", linkageName: "_ZN6VectorIP7ElementE10push_frontES1_", scope: !1798, file: !1290, line: 186, type: !1890, scopeLine: 186, flags: DIFlagPublic | DIFlagPrototyped, spFlags: DISPFlagOptimized)
!1894 = !DISubprogram(name: "pop_front", linkageName: "_ZN6VectorIP7ElementE9pop_frontEv", scope: !1798, file: !1290, line: 187, type: !1802, scopeLine: 187, flags: DIFlagPublic | DIFlagPrototyped, spFlags: DISPFlagOptimized)
!1895 = !DISubprogram(name: "insert", linkageName: "_ZN6VectorIP7ElementE6insertEPS1_S1_", scope: !1798, file: !1290, line: 189, type: !1896, scopeLine: 189, flags: DIFlagPublic | DIFlagPrototyped, spFlags: DISPFlagOptimized)
!1896 = !DISubroutineType(types: !1897)
!1897 = !{!1837, !1804, !1837, !1808}
!1898 = !DISubprogram(name: "erase", linkageName: "_ZN6VectorIP7ElementE5eraseEPS1_", scope: !1798, file: !1290, line: 190, type: !1899, scopeLine: 190, flags: DIFlagPublic | DIFlagPrototyped, spFlags: DISPFlagOptimized)
!1899 = !DISubroutineType(types: !1900)
!1900 = !{!1837, !1804, !1837}
