; ModuleID = '../elements/standard/fullnotequeue.cc'
source_filename = "../elements/standard/fullnotequeue.cc"
target datalayout = "e-m:e-p270:32:32-p271:32:32-p272:64:64-i64:64-f80:128-n8:16:32:64-S128"
target triple = "x86_64-pc-linux-gnu"

%class.atomic_uint32_t = type { i32 }
%class.FullNoteQueue = type { %class.NotifierQueue, %class.ActiveNotifier }
%class.NotifierQueue = type { %class.SimpleQueue, i32, %class.ActiveNotifier }
%class.SimpleQueue = type { %class.Element.base, %class.Storage, %class.Packet**, i32, i32 }
%class.Element.base = type <{ i32 (...)**, [2 x %"class.Element::Port"*], [4 x %"class.Element::Port"], [2 x i32], %class.Router*, i32 }>
%"class.Element::Port" = type <{ %class.Element*, i32, [4 x i8] }>
%class.Element = type <{ i32 (...)**, [2 x %"class.Element::Port"*], [4 x %"class.Element::Port"], [2 x i32], %class.Router*, i32, [4 x i8] }>
%class.Router = type opaque
%class.Storage = type { i32, i32, i32 }
%class.Packet = type { %class.atomic_uint32_t, %class.Packet*, i8*, i8*, i8*, i8*, %"struct.Packet::AllAnno", void (i8*, i64, i8*)*, i8* }
%"struct.Packet::AllAnno" = type { %"union.Packet::Anno", i8*, i8*, i8*, i32, [8 x i8], %class.Packet*, %class.Packet* }
%"union.Packet::Anno" = type { [6 x i64] }
%class.ActiveNotifier = type { %class.Notifier.base, %class.Task*, %"union.ActiveNotifier::task_or_signal_t"* }
%class.Notifier.base = type <{ i32 (...)**, %class.NotifierSignal, i32 }>
%class.NotifierSignal = type <{ %"union.NotifierSignal::vmvalue", i32, [4 x i8] }>
%"union.NotifierSignal::vmvalue" = type { %class.atomic_uint32_t* }
%class.Task = type { %struct.TaskLink.base, i32, i32, %"union.Task::Status", i1 (%class.Task*, i8*)*, i8*, %class.RouterThread*, %class.Element*, %"union.Task::Pending" }
%struct.TaskLink.base = type <{ %struct.TaskLink*, %struct.TaskLink*, i32 }>
%struct.TaskLink = type <{ %struct.TaskLink*, %struct.TaskLink*, i32, [4 x i8] }>
%"union.Task::Status" = type { i32 }
%class.RouterThread = type { %struct.TaskLink, i8, [7 x i8], %class.TimerSet, %class.SelectSet, [32 x i8], %class.Spinlock, %class.atomic_uint32_t, %class.atomic_uint32_t, %"union.Task::Pending", %"union.Task::Pending"*, %class.SpinlockIRQ, [31 x i8], %class.Master*, i32, i8, i32, i32, [40 x i8] }
%class.TimerSet = type <{ %class.Timestamp, i32, i32, i32, [4 x i8], %class.Vector, %class.Vector.0, %class.SimpleSpinlock, [7 x i8], %class.Timestamp, i32, [4 x i8] }>
%class.Vector = type { %class.vector_memory }
%class.vector_memory = type { %struct.char_array*, i32, i32 }
%struct.char_array = type { [16 x i8] }
%class.Vector.0 = type { %class.vector_memory.1 }
%class.vector_memory.1 = type { %struct.char_array.2*, i32, i32 }
%struct.char_array.2 = type opaque
%class.SimpleSpinlock = type { i8 }
%class.Timestamp = type { %"union.Timestamp::rep_t" }
%"union.Timestamp::rep_t" = type { i64 }
%class.SelectSet = type { [2 x i32], i8, %class.Vector.3, %class.Vector.4 }
%class.Vector.3 = type { %class.vector_memory.1 }
%class.Vector.4 = type { %class.vector_memory.5 }
%class.vector_memory.5 = type { %struct.char_array.6*, i32, i32 }
%struct.char_array.6 = type opaque
%class.Spinlock = type { i8 }
%class.SpinlockIRQ = type { i8 }
%class.Master = type opaque
%"union.Task::Pending" = type { %class.Task* }
%"union.ActiveNotifier::task_or_signal_t" = type { %class.Task* }
%class.Vector.7 = type opaque
%class.ErrorHandler = type opaque
%class.Notifier = type <{ i32 (...)**, %class.NotifierSignal, i32, [4 x i8] }>
%struct.anon = type { i16, i8, i8 }
%class.Timer = type { i32, %class.Timestamp, %union.anon, i8*, %class.Element*, %class.RouterThread* }
%union.anon = type { void (%class.Timer*, i8*)* }
%class.String = type { %"struct.String::rep_t" }
%"struct.String::rep_t" = type { i8*, i32, %"struct.String::memo_t"* }
%"struct.String::memo_t" = type { i32, i32, i32, [8 x i8] }

$_ZN14ActiveNotifier10set_activeEbb = comdat any

$_ZN13FullNoteQueueD2Ev = comdat any

$_ZN13FullNoteQueueD0Ev = comdat any

$_ZNK13FullNoteQueue10class_nameEv = comdat any

$_ZNK11SimpleQueue10port_countEv = comdat any

$_ZNK11SimpleQueue10processingEv = comdat any

$_ZNK11SimpleQueue20can_live_reconfigureEv = comdat any

$_ZNK7Element19checked_output_pushEiP6Packet = comdat any

$_ZNK7Element8noutputsEv = comdat any

$_ZNK7Element4Port4pushEP6Packet = comdat any

@_ZTV13FullNoteQueue = dso_local unnamed_addr constant { [29 x i8*] } { [29 x i8*] [i8* null, i8* bitcast ({ i8*, i8*, i8* }* @_ZTI13FullNoteQueue to i8*), i8* bitcast (void (%class.FullNoteQueue*)* @_ZN13FullNoteQueueD2Ev to i8*), i8* bitcast (void (%class.FullNoteQueue*)* @_ZN13FullNoteQueueD0Ev to i8*), i8* bitcast (void (%class.FullNoteQueue*, i32, %class.Packet*)* @_ZN13FullNoteQueue4pushEiP6Packet to i8*), i8* bitcast (%class.Packet* (%class.FullNoteQueue*, i32)* @_ZN13FullNoteQueue4pullEi to i8*), i8* bitcast (%class.Packet* (%class.Element*, %class.Packet*)* @_ZN7Element13simple_actionEP6Packet to i8*), i8* bitcast (i1 (%class.Element*, %class.Task*)* @_ZN7Element8run_taskEP4Task to i8*), i8* bitcast (void (%class.Element*, %class.Timer*)* @_ZN7Element9run_timerEP5Timer to i8*), i8* bitcast (void (%class.Element*, i32, i32)* @_ZN7Element8selectedEii to i8*), i8* bitcast (void (%class.Element*, i32)* @_ZN7Element8selectedEi to i8*), i8* bitcast (i8* (%class.FullNoteQueue*)* @_ZNK13FullNoteQueue10class_nameEv to i8*), i8* bitcast (i8* (%class.SimpleQueue*)* @_ZNK11SimpleQueue10port_countEv to i8*), i8* bitcast (i8* (%class.SimpleQueue*)* @_ZNK11SimpleQueue10processingEv to i8*), i8* bitcast (i8* (%class.Element*)* @_ZNK7Element9flow_codeEv to i8*), i8* bitcast (i8* (%class.Element*)* @_ZNK7Element5flagsEv to i8*), i8* bitcast (i8* (%class.FullNoteQueue*, i8*)* @_ZN13FullNoteQueue4castEPKc to i8*), i8* bitcast (i8* (%class.Element*, i1, i32, i8*)* @_ZN7Element9port_castEbiPKc to i8*), i8* bitcast (i32 (%class.Element*)* @_ZNK7Element15configure_phaseEv to i8*), i8* bitcast (i32 (%class.FullNoteQueue*, %class.Vector.7*, %class.ErrorHandler*)* @_ZN13FullNoteQueue9configureER6VectorI6StringEP12ErrorHandler to i8*), i8* bitcast (void (%class.SimpleQueue*)* @_ZN11SimpleQueue12add_handlersEv to i8*), i8* bitcast (i32 (%class.SimpleQueue*, %class.ErrorHandler*)* @_ZN11SimpleQueue10initializeEP12ErrorHandler to i8*), i8* bitcast (void (%class.SimpleQueue*, %class.Element*, %class.ErrorHandler*)* @_ZN11SimpleQueue10take_stateEP7ElementP12ErrorHandler to i8*), i8* bitcast (%class.Element* (%class.Element*)* @_ZNK7Element15hotswap_elementEv to i8*), i8* bitcast (void (%class.SimpleQueue*, i32)* @_ZN11SimpleQueue7cleanupEN7Element12CleanupStageE to i8*), i8* bitcast (void (%class.String*, %class.Element*)* @_ZNK7Element11declarationEv to i8*), i8* bitcast (i1 (%class.SimpleQueue*)* @_ZNK11SimpleQueue20can_live_reconfigureEv to i8*), i8* bitcast (i32 (%class.FullNoteQueue*, %class.Vector.7*, %class.ErrorHandler*)* @_ZN13FullNoteQueue16live_reconfigureER6VectorI6StringEP12ErrorHandler to i8*), i8* bitcast (i32 (%class.Element*, i32, i8*)* @_ZN7Element5llrpcEjPv to i8*)] }, align 8
@.str = private unnamed_addr constant [14 x i8] c"FullNoteQueue\00", align 1
@_ZN8Notifier13FULL_NOTIFIERE = external constant [0 x i8], align 1
@_ZTVN10__cxxabiv120__si_class_type_infoE = external global i8*
@_ZTS13FullNoteQueue = dso_local constant [16 x i8] c"13FullNoteQueue\00", align 1
@_ZTI13NotifierQueue = external constant i8*
@_ZTI13FullNoteQueue = dso_local constant { i8*, i8*, i8* } { i8* bitcast (i8** getelementptr inbounds (i8*, i8** @_ZTVN10__cxxabiv120__si_class_type_infoE, i64 2) to i8*), i8* getelementptr inbounds ([16 x i8], [16 x i8]* @_ZTS13FullNoteQueue, i32 0, i32 0), i8* bitcast (i8** @_ZTI13NotifierQueue to i8*) }, align 8
@_ZTV13NotifierQueue = external unnamed_addr constant { [29 x i8*] }, align 8
@_ZN14NotifierSignal12static_valueE = external global %class.atomic_uint32_t, align 4
@.str.1 = private unnamed_addr constant [49 x i8] c"_v.v1 != &static_value && !(_mask & (_mask - 1))\00", align 1
@.str.2 = private unnamed_addr constant [31 x i8] c"../dummy_inc/click/notifier.hh\00", align 1
@__PRETTY_FUNCTION__._ZN14NotifierSignal10set_activeEb = private unnamed_addr constant [38 x i8] c"bool NotifierSignal::set_active(bool)\00", align 1
@.str.3 = private unnamed_addr constant [22 x i8] c"%p{element}: overflow\00", align 1
@.str.4 = private unnamed_addr constant [8 x i8] c"_e && p\00", align 1
@.str.5 = private unnamed_addr constant [30 x i8] c"../dummy_inc/click/element.hh\00", align 1
@__PRETTY_FUNCTION__._ZNK7Element4Port4pushEP6Packet = private unnamed_addr constant [41 x i8] c"void Element::Port::push(Packet *) const\00", align 1
@.str.6 = private unnamed_addr constant [6 x i8] c"Queue\00", align 1
@_ZN7Element11PORTS_1_1X2E = external constant [0 x i8], align 1
@.str.7 = private unnamed_addr constant [5 x i8] c"h/lh\00", align 1

@_ZN13FullNoteQueueC1Ev = dso_local unnamed_addr alias void (%class.FullNoteQueue*), void (%class.FullNoteQueue*)* @_ZN13FullNoteQueueC2Ev

; Function Attrs: sspstrong uwtable
define dso_local void @_ZN13FullNoteQueueC2Ev(%class.FullNoteQueue* %0) unnamed_addr #0 align 2 personality i8* bitcast (i32 (...)* @__gxx_personality_v0 to i8*) !dbg !1906 {
  call void @llvm.dbg.value(metadata %class.FullNoteQueue* %0, metadata !1908, metadata !DIExpression()), !dbg !1909
  %2 = getelementptr %class.FullNoteQueue, %class.FullNoteQueue* %0, i64 0, i32 0, !dbg !1910
  tail call void @_ZN13NotifierQueueC2Ev(%class.NotifierQueue* %2), !dbg !1911
  %3 = getelementptr %class.FullNoteQueue, %class.FullNoteQueue* %0, i64 0, i32 0, i32 0, i32 0, i32 0, !dbg !1910
  store i32 (...)** bitcast (i8** getelementptr inbounds ({ [29 x i8*] }, { [29 x i8*] }* @_ZTV13FullNoteQueue, i64 0, inrange i32 0, i64 2) to i32 (...)**), i32 (...)*** %3, align 8, !dbg !1910, !tbaa !1912
  %4 = getelementptr inbounds %class.FullNoteQueue, %class.FullNoteQueue* %0, i64 0, i32 1, !dbg !1911
  invoke void @_ZN14ActiveNotifierC1EN8Notifier8SearchOpE(%class.ActiveNotifier* nonnull %4, i32 0)
          to label %5 unwind label %6, !dbg !1911

5:                                                ; preds = %1
  ret void, !dbg !1915

6:                                                ; preds = %1
  %7 = landingpad { i8*, i32 }
          cleanup, !dbg !1915
  call void @llvm.dbg.value(metadata %class.NotifierQueue* %2, metadata !1916, metadata !DIExpression()) #11, !dbg !1924
  store i32 (...)** bitcast (i8** getelementptr inbounds ({ [29 x i8*] }, { [29 x i8*] }* @_ZTV13NotifierQueue, i64 0, inrange i32 0, i64 2) to i32 (...)**), i32 (...)*** %3, align 8, !dbg !1927, !tbaa !1912
  %8 = getelementptr inbounds %class.FullNoteQueue, %class.FullNoteQueue* %0, i64 0, i32 0, i32 2, !dbg !1928
  tail call void @_ZN14ActiveNotifierD1Ev(%class.ActiveNotifier* nonnull %8) #11, !dbg !1928
  %9 = bitcast %class.FullNoteQueue* %0 to %class.Element*, !dbg !1928
  tail call void @_ZN7ElementD2Ev(%class.Element* %9) #11, !dbg !1928
  resume { i8*, i32 } %7, !dbg !1930
}

; Function Attrs: nounwind readnone speculatable willreturn
declare void @llvm.dbg.declare(metadata, metadata, metadata) #1

declare void @_ZN13NotifierQueueC2Ev(%class.NotifierQueue*) unnamed_addr #2

declare void @_ZN14ActiveNotifierC1EN8Notifier8SearchOpE(%class.ActiveNotifier*, i32) unnamed_addr #2

declare i32 @__gxx_personality_v0(...)

; Function Attrs: sspstrong uwtable
define dso_local i8* @_ZN13FullNoteQueue4castEPKc(%class.FullNoteQueue* %0, i8* %1) unnamed_addr #0 align 2 !dbg !1931 {
  call void @llvm.dbg.value(metadata %class.FullNoteQueue* %0, metadata !1933, metadata !DIExpression()), !dbg !1935
  call void @llvm.dbg.value(metadata i8* %1, metadata !1934, metadata !DIExpression()), !dbg !1935
  %3 = tail call i32 @strcmp(i8* nonnull dereferenceable(1) %1, i8* nonnull dereferenceable(14) getelementptr inbounds ([14 x i8], [14 x i8]* @.str, i64 0, i64 0)) #12, !dbg !1936
  %4 = icmp eq i32 %3, 0, !dbg !1938
  br i1 %4, label %5, label %7, !dbg !1939

5:                                                ; preds = %2
  %6 = bitcast %class.FullNoteQueue* %0 to i8*, !dbg !1940
  br label %16, !dbg !1941

7:                                                ; preds = %2
  %8 = tail call i32 @strcmp(i8* nonnull dereferenceable(1) %1, i8* nonnull dereferenceable(1) getelementptr inbounds ([0 x i8], [0 x i8]* @_ZN8Notifier13FULL_NOTIFIERE, i64 0, i64 0)) #12, !dbg !1942
  %9 = icmp eq i32 %8, 0, !dbg !1944
  br i1 %9, label %10, label %13, !dbg !1945

10:                                               ; preds = %7
  %11 = getelementptr inbounds %class.FullNoteQueue, %class.FullNoteQueue* %0, i64 0, i32 1, !dbg !1946
  %12 = bitcast %class.ActiveNotifier* %11 to i8*, !dbg !1947
  br label %16, !dbg !1948

13:                                               ; preds = %7
  %14 = getelementptr %class.FullNoteQueue, %class.FullNoteQueue* %0, i64 0, i32 0, !dbg !1949
  %15 = tail call i8* @_ZN13NotifierQueue4castEPKc(%class.NotifierQueue* %14, i8* %1), !dbg !1949
  br label %16, !dbg !1950

16:                                               ; preds = %13, %10, %5
  %17 = phi i8* [ %6, %5 ], [ %12, %10 ], [ %15, %13 ], !dbg !1951
  ret i8* %17, !dbg !1952
}

; Function Attrs: nofree nounwind readonly
declare i32 @strcmp(i8* nocapture, i8* nocapture) local_unnamed_addr #3

declare i8* @_ZN13NotifierQueue4castEPKc(%class.NotifierQueue*, i8*) unnamed_addr #2

; Function Attrs: sspstrong uwtable
define dso_local i32 @_ZN13FullNoteQueue9configureER6VectorI6StringEP12ErrorHandler(%class.FullNoteQueue* %0, %class.Vector.7* nonnull %1, %class.ErrorHandler* %2) unnamed_addr #0 align 2 !dbg !1953 {
  call void @llvm.dbg.value(metadata %class.FullNoteQueue* %0, metadata !1955, metadata !DIExpression()), !dbg !1958
  call void @llvm.dbg.value(metadata %class.Vector.7* %1, metadata !1956, metadata !DIExpression()), !dbg !1958
  call void @llvm.dbg.value(metadata %class.ErrorHandler* %2, metadata !1957, metadata !DIExpression()), !dbg !1958
  %4 = getelementptr inbounds %class.FullNoteQueue, %class.FullNoteQueue* %0, i64 0, i32 1, !dbg !1959
  %5 = bitcast %class.ActiveNotifier* %4 to %class.Notifier*, !dbg !1959
  call void @llvm.dbg.value(metadata %class.FullNoteQueue* %0, metadata !1960, metadata !DIExpression()), !dbg !1971
  %6 = getelementptr inbounds %class.FullNoteQueue, %class.FullNoteQueue* %0, i64 0, i32 0, i32 0, i32 0, i32 4, !dbg !1973
  %7 = load %class.Router*, %class.Router** %6, align 8, !dbg !1973, !tbaa !1974
  %8 = tail call i32 @_ZN8Notifier10initializeEPKcP6Router(%class.Notifier* nonnull %5, i8* getelementptr inbounds ([0 x i8], [0 x i8]* @_ZN8Notifier13FULL_NOTIFIERE, i64 0, i64 0), %class.Router* %7), !dbg !1979
  call void @llvm.dbg.value(metadata %class.ActiveNotifier* %4, metadata !1980, metadata !DIExpression()), !dbg !3173
  call void @llvm.dbg.value(metadata i1 true, metadata !1987, metadata !DIExpression()), !dbg !3173
  call void @llvm.dbg.value(metadata i1 false, metadata !1988, metadata !DIExpression()), !dbg !3173
  call void @llvm.dbg.value(metadata %class.ActiveNotifier* %4, metadata !3175, metadata !DIExpression()), !dbg !3183
  call void @llvm.dbg.value(metadata i1 true, metadata !3182, metadata !DIExpression()), !dbg !3183
  call void @llvm.dbg.value(metadata %class.ActiveNotifier* %4, metadata !3185, metadata !DIExpression(DW_OP_plus_uconst, 8, DW_OP_stack_value)), !dbg !3260
  call void @llvm.dbg.value(metadata i1 true, metadata !3257, metadata !DIExpression()), !dbg !3260
  %9 = getelementptr inbounds %class.FullNoteQueue, %class.FullNoteQueue* %0, i64 0, i32 1, i32 0, i32 1, i32 0, i32 0, !dbg !3262
  %10 = load %class.atomic_uint32_t*, %class.atomic_uint32_t** %9, align 8, !dbg !3262, !tbaa !3263
  %11 = icmp eq %class.atomic_uint32_t* %10, @_ZN14NotifierSignal12static_valueE, !dbg !3262
  br i1 %11, label %17, label %12, !dbg !3262

12:                                               ; preds = %3
  %13 = getelementptr inbounds %class.FullNoteQueue, %class.FullNoteQueue* %0, i64 0, i32 1, i32 0, i32 1, i32 1, !dbg !3262
  %14 = load i32, i32* %13, align 8, !dbg !3262, !tbaa !3264
  %15 = tail call i32 @llvm.ctpop.i32(i32 %14), !dbg !3262, !range !3266
  %16 = icmp ult i32 %15, 2, !dbg !3262
  br i1 %16, label %18, label %17, !dbg !3262

17:                                               ; preds = %12, %3
  tail call void @__assert_fail(i8* getelementptr inbounds ([49 x i8], [49 x i8]* @.str.1, i64 0, i64 0), i8* getelementptr inbounds ([31 x i8], [31 x i8]* @.str.2, i64 0, i64 0), i32 293, i8* getelementptr inbounds ([38 x i8], [38 x i8]* @__PRETTY_FUNCTION__._ZN14NotifierSignal10set_activeEb, i64 0, i64 0)) #13, !dbg !3262
  unreachable, !dbg !3262

18:                                               ; preds = %12
  call void @llvm.dbg.value(metadata %class.atomic_uint32_t* %10, metadata !3267, metadata !DIExpression()), !dbg !3271
  call void @llvm.dbg.value(metadata %class.atomic_uint32_t* %10, metadata !3273, metadata !DIExpression()), !dbg !3276
  %19 = getelementptr inbounds %class.atomic_uint32_t, %class.atomic_uint32_t* %10, i64 0, i32 0, !dbg !3278
  %20 = load i32, i32* %19, align 4, !dbg !3278, !tbaa !3279
  call void @llvm.dbg.value(metadata i32 %20, metadata !3258, metadata !DIExpression()), !dbg !3260
  %21 = or i32 %20, %14, !dbg !3281
  call void @llvm.dbg.value(metadata %class.atomic_uint32_t* %10, metadata !3282, metadata !DIExpression()), !dbg !3286
  call void @llvm.dbg.value(metadata i32 %21, metadata !3285, metadata !DIExpression()), !dbg !3286
  store i32 %21, i32* %19, align 4, !dbg !3288, !tbaa !3279
  call void @llvm.dbg.value(metadata i1 undef, metadata !1989, metadata !DIExpression()), !dbg !3173
  %22 = getelementptr %class.FullNoteQueue, %class.FullNoteQueue* %0, i64 0, i32 0, !dbg !3289
  %23 = tail call i32 @_ZN13NotifierQueue9configureER6VectorI6StringEP12ErrorHandler(%class.NotifierQueue* %22, %class.Vector.7* nonnull %1, %class.ErrorHandler* %2), !dbg !3289
  ret i32 %23, !dbg !3290
}

declare i32 @_ZN8Notifier10initializeEPKcP6Router(%class.Notifier*, i8*, %class.Router*) local_unnamed_addr #2

; Function Attrs: inlinehint sspstrong uwtable
define linkonce_odr dso_local void @_ZN14ActiveNotifier10set_activeEbb(%class.ActiveNotifier* %0, i1 zeroext %1, i1 zeroext %2) local_unnamed_addr #4 comdat align 2 !dbg !1981 {
  call void @llvm.dbg.value(metadata %class.ActiveNotifier* %0, metadata !1980, metadata !DIExpression()), !dbg !3291
  call void @llvm.dbg.value(metadata i1 %1, metadata !1987, metadata !DIExpression()), !dbg !3291
  call void @llvm.dbg.value(metadata i1 %2, metadata !1988, metadata !DIExpression()), !dbg !3291
  %4 = bitcast %class.ActiveNotifier* %0 to %class.Notifier*, !dbg !3292
  call void @llvm.dbg.value(metadata %class.Notifier* %4, metadata !3175, metadata !DIExpression()), !dbg !3293
  call void @llvm.dbg.value(metadata i1 %1, metadata !3182, metadata !DIExpression()), !dbg !3293
  call void @llvm.dbg.value(metadata %class.Notifier* %4, metadata !3185, metadata !DIExpression(DW_OP_plus_uconst, 8, DW_OP_stack_value)), !dbg !3295
  call void @llvm.dbg.value(metadata i1 %1, metadata !3257, metadata !DIExpression()), !dbg !3295
  %5 = getelementptr inbounds %class.ActiveNotifier, %class.ActiveNotifier* %0, i64 0, i32 0, i32 1, i32 0, i32 0, !dbg !3297
  %6 = load %class.atomic_uint32_t*, %class.atomic_uint32_t** %5, align 8, !dbg !3297, !tbaa !3263
  %7 = icmp eq %class.atomic_uint32_t* %6, @_ZN14NotifierSignal12static_valueE, !dbg !3297
  br i1 %7, label %13, label %8, !dbg !3297

8:                                                ; preds = %3
  %9 = getelementptr inbounds %class.ActiveNotifier, %class.ActiveNotifier* %0, i64 0, i32 0, i32 1, i32 1, !dbg !3297
  %10 = load i32, i32* %9, align 8, !dbg !3297, !tbaa !3264
  %11 = tail call i32 @llvm.ctpop.i32(i32 %10), !dbg !3297, !range !3266
  %12 = icmp ult i32 %11, 2, !dbg !3297
  br i1 %12, label %14, label %13, !dbg !3297

13:                                               ; preds = %8, %3
  tail call void @__assert_fail(i8* getelementptr inbounds ([49 x i8], [49 x i8]* @.str.1, i64 0, i64 0), i8* getelementptr inbounds ([31 x i8], [31 x i8]* @.str.2, i64 0, i64 0), i32 293, i8* getelementptr inbounds ([38 x i8], [38 x i8]* @__PRETTY_FUNCTION__._ZN14NotifierSignal10set_activeEb, i64 0, i64 0)) #13, !dbg !3297
  unreachable, !dbg !3297

14:                                               ; preds = %8
  call void @llvm.dbg.value(metadata %class.atomic_uint32_t* %6, metadata !3267, metadata !DIExpression()), !dbg !3298
  call void @llvm.dbg.value(metadata %class.atomic_uint32_t* %6, metadata !3273, metadata !DIExpression()), !dbg !3300
  %15 = getelementptr inbounds %class.atomic_uint32_t, %class.atomic_uint32_t* %6, i64 0, i32 0, !dbg !3302
  %16 = load i32, i32* %15, align 4, !dbg !3302, !tbaa !3279
  call void @llvm.dbg.value(metadata i32 %16, metadata !3258, metadata !DIExpression()), !dbg !3295
  %17 = or i32 %16, %10, !dbg !3303
  %18 = xor i32 %10, -1, !dbg !3303
  %19 = and i32 %16, %18, !dbg !3303
  %20 = select i1 %1, i32 %17, i32 %19, !dbg !3303
  call void @llvm.dbg.value(metadata %class.atomic_uint32_t* %6, metadata !3282, metadata !DIExpression()), !dbg !3304
  call void @llvm.dbg.value(metadata i32 %20, metadata !3285, metadata !DIExpression()), !dbg !3304
  store i32 %20, i32* %15, align 4, !dbg !3306, !tbaa !3279
  %21 = and i32 %16, %10, !dbg !3307
  %22 = icmp ne i32 %21, 0, !dbg !3308
  call void @llvm.dbg.value(metadata i1 %22, metadata !1989, metadata !DIExpression()), !dbg !3291
  %23 = and i1 %1, %2, !dbg !3309
  %24 = xor i1 %23, true, !dbg !3309
  %25 = or i1 %22, %24, !dbg !3309
  br i1 %25, label %84, label %26, !dbg !3309

26:                                               ; preds = %14
  %27 = getelementptr inbounds %class.ActiveNotifier, %class.ActiveNotifier* %0, i64 0, i32 1, !dbg !3310
  %28 = load %class.Task*, %class.Task** %27, align 8, !dbg !3310, !tbaa !3311
  %29 = icmp eq %class.Task* %28, null, !dbg !3310
  br i1 %29, label %39, label %30, !dbg !3313

30:                                               ; preds = %26
  call void @llvm.dbg.value(metadata %class.Task* %28, metadata !3314, metadata !DIExpression()), !dbg !3317
  %31 = getelementptr inbounds %class.Task, %class.Task* %28, i64 0, i32 3, !dbg !3319
  %32 = bitcast %"union.Task::Status"* %31 to %struct.anon*, !dbg !3320
  %33 = getelementptr inbounds %struct.anon, %struct.anon* %32, i64 0, i32 1, !dbg !3320
  store i8 1, i8* %33, align 2, !dbg !3321, !tbaa !3263
  tail call void asm sideeffect "", "~{memory},~{dirflag},~{fpsr},~{flags}"() #11, !dbg !3322, !srcloc !3328
  %34 = getelementptr inbounds %class.Task, %class.Task* %28, i64 0, i32 8, !dbg !3329
  %35 = bitcast %"union.Task::Pending"* %34 to i64*, !dbg !3331
  %36 = load i64, i64* %35, align 8, !dbg !3331, !tbaa !3263
  %37 = icmp ult i64 %36, 2, !dbg !3332
  br i1 %37, label %38, label %84, !dbg !3333

38:                                               ; preds = %30
  tail call void @_ZN4Task17complete_scheduleEP12RouterThread(%class.Task* nonnull %28, %class.RouterThread* null), !dbg !3334
  br label %84, !dbg !3334

39:                                               ; preds = %26
  %40 = getelementptr inbounds %class.ActiveNotifier, %class.ActiveNotifier* %0, i64 0, i32 2, !dbg !3335
  %41 = load %"union.ActiveNotifier::task_or_signal_t"*, %"union.ActiveNotifier::task_or_signal_t"** %40, align 8, !dbg !3335, !tbaa !3336
  call void @llvm.dbg.value(metadata %"union.ActiveNotifier::task_or_signal_t"* %41, metadata !1990, metadata !DIExpression()), !dbg !3337
  %42 = icmp eq %"union.ActiveNotifier::task_or_signal_t"* %41, null, !dbg !3338
  br i1 %42, label %84, label %43, !dbg !3339

43:                                               ; preds = %39
  call void @llvm.dbg.value(metadata %"union.ActiveNotifier::task_or_signal_t"* %41, metadata !1990, metadata !DIExpression()), !dbg !3337
  %44 = bitcast %"union.ActiveNotifier::task_or_signal_t"* %41 to i64*, !dbg !3340
  %45 = load i64, i64* %44, align 8, !dbg !3340, !tbaa !3263
  %46 = icmp ugt i64 %45, 1, !dbg !3344
  br i1 %46, label %47, label %64, !dbg !3345

47:                                               ; preds = %43, %59
  %48 = phi %"union.ActiveNotifier::task_or_signal_t"* [ %60, %59 ], [ %41, %43 ]
  call void @llvm.dbg.value(metadata %"union.ActiveNotifier::task_or_signal_t"* %48, metadata !1990, metadata !DIExpression()), !dbg !3337
  %49 = getelementptr %"union.ActiveNotifier::task_or_signal_t", %"union.ActiveNotifier::task_or_signal_t"* %48, i64 0, i32 0, !dbg !3346
  %50 = load %class.Task*, %class.Task** %49, align 8, !dbg !3346, !tbaa !3263
  call void @llvm.dbg.value(metadata %class.Task* %50, metadata !3314, metadata !DIExpression()), !dbg !3347
  %51 = getelementptr inbounds %class.Task, %class.Task* %50, i64 0, i32 3, !dbg !3349
  %52 = bitcast %"union.Task::Status"* %51 to %struct.anon*, !dbg !3350
  %53 = getelementptr inbounds %struct.anon, %struct.anon* %52, i64 0, i32 1, !dbg !3350
  store i8 1, i8* %53, align 2, !dbg !3351, !tbaa !3263
  tail call void asm sideeffect "", "~{memory},~{dirflag},~{fpsr},~{flags}"() #11, !dbg !3352, !srcloc !3328
  %54 = getelementptr inbounds %class.Task, %class.Task* %50, i64 0, i32 8, !dbg !3355
  %55 = bitcast %"union.Task::Pending"* %54 to i64*, !dbg !3356
  %56 = load i64, i64* %55, align 8, !dbg !3356, !tbaa !3263
  %57 = icmp ult i64 %56, 2, !dbg !3357
  br i1 %57, label %58, label %59, !dbg !3358

58:                                               ; preds = %47
  tail call void @_ZN4Task17complete_scheduleEP12RouterThread(%class.Task* nonnull %50, %class.RouterThread* null), !dbg !3359
  br label %59, !dbg !3359

59:                                               ; preds = %47, %58
  %60 = getelementptr inbounds %"union.ActiveNotifier::task_or_signal_t", %"union.ActiveNotifier::task_or_signal_t"* %48, i64 1, !dbg !3360
  call void @llvm.dbg.value(metadata %"union.ActiveNotifier::task_or_signal_t"* %60, metadata !1990, metadata !DIExpression()), !dbg !3337
  %61 = bitcast %"union.ActiveNotifier::task_or_signal_t"* %60 to i64*, !dbg !3340
  %62 = load i64, i64* %61, align 8, !dbg !3340, !tbaa !3263
  %63 = icmp ugt i64 %62, 1, !dbg !3344
  br i1 %63, label %47, label %64, !dbg !3345, !llvm.loop !3361

64:                                               ; preds = %59, %43
  %65 = phi %"union.ActiveNotifier::task_or_signal_t"* [ %41, %43 ], [ %60, %59 ], !dbg !3337
  %66 = phi i64 [ %45, %43 ], [ %62, %59 ], !dbg !3340
  call void @llvm.dbg.value(metadata %"union.ActiveNotifier::task_or_signal_t"* %65, metadata !1990, metadata !DIExpression()), !dbg !3337
  %67 = icmp eq i64 %66, 1, !dbg !3363
  br i1 %67, label %68, label %84, !dbg !3365

68:                                               ; preds = %64
  %69 = getelementptr inbounds %"union.ActiveNotifier::task_or_signal_t", %"union.ActiveNotifier::task_or_signal_t"* %65, i64 1, !dbg !3366
  call void @llvm.dbg.value(metadata %"union.ActiveNotifier::task_or_signal_t"* %69, metadata !1990, metadata !DIExpression()), !dbg !3337
  %70 = bitcast %"union.ActiveNotifier::task_or_signal_t"* %69 to i64*, !dbg !3368
  %71 = load i64, i64* %70, align 8, !dbg !3368, !tbaa !3263
  %72 = icmp eq i64 %71, 0, !dbg !3370
  br i1 %72, label %84, label %73, !dbg !3371

73:                                               ; preds = %68, %73
  %74 = phi %"union.ActiveNotifier::task_or_signal_t"* [ %80, %73 ], [ %69, %68 ]
  call void @llvm.dbg.value(metadata %"union.ActiveNotifier::task_or_signal_t"* %74, metadata !1990, metadata !DIExpression()), !dbg !3337
  %75 = bitcast %"union.ActiveNotifier::task_or_signal_t"* %74 to void (i8*, %class.Notifier*)**, !dbg !3372
  %76 = load void (i8*, %class.Notifier*)*, void (i8*, %class.Notifier*)** %75, align 8, !dbg !3372, !tbaa !3263
  %77 = getelementptr inbounds %"union.ActiveNotifier::task_or_signal_t", %"union.ActiveNotifier::task_or_signal_t"* %74, i64 1, !dbg !3373
  %78 = bitcast %"union.ActiveNotifier::task_or_signal_t"* %77 to i8**, !dbg !3374
  %79 = load i8*, i8** %78, align 8, !dbg !3374, !tbaa !3263
  tail call void %76(i8* %79, %class.Notifier* %4), !dbg !3375
  %80 = getelementptr inbounds %"union.ActiveNotifier::task_or_signal_t", %"union.ActiveNotifier::task_or_signal_t"* %74, i64 2, !dbg !3376
  call void @llvm.dbg.value(metadata %"union.ActiveNotifier::task_or_signal_t"* %80, metadata !1990, metadata !DIExpression()), !dbg !3337
  %81 = bitcast %"union.ActiveNotifier::task_or_signal_t"* %80 to i64*, !dbg !3368
  %82 = load i64, i64* %81, align 8, !dbg !3368, !tbaa !3263
  %83 = icmp eq i64 %82, 0, !dbg !3370
  br i1 %83, label %84, label %73, !dbg !3371, !llvm.loop !3377

84:                                               ; preds = %73, %68, %38, %30, %64, %39, %14
  ret void, !dbg !3379
}

declare i32 @_ZN13NotifierQueue9configureER6VectorI6StringEP12ErrorHandler(%class.NotifierQueue*, %class.Vector.7* nonnull, %class.ErrorHandler*) unnamed_addr #2

; Function Attrs: sspstrong uwtable
define dso_local i32 @_ZN13FullNoteQueue16live_reconfigureER6VectorI6StringEP12ErrorHandler(%class.FullNoteQueue* %0, %class.Vector.7* nonnull %1, %class.ErrorHandler* %2) unnamed_addr #0 align 2 !dbg !3380 {
  call void @llvm.dbg.value(metadata %class.FullNoteQueue* %0, metadata !3382, metadata !DIExpression()), !dbg !3386
  call void @llvm.dbg.value(metadata %class.Vector.7* %1, metadata !3383, metadata !DIExpression()), !dbg !3386
  call void @llvm.dbg.value(metadata %class.ErrorHandler* %2, metadata !3384, metadata !DIExpression()), !dbg !3386
  %4 = getelementptr %class.FullNoteQueue, %class.FullNoteQueue* %0, i64 0, i32 0, i32 0, !dbg !3387
  %5 = tail call i32 @_ZN11SimpleQueue16live_reconfigureER6VectorI6StringEP12ErrorHandler(%class.SimpleQueue* %4, %class.Vector.7* nonnull %1, %class.ErrorHandler* %2), !dbg !3387
  call void @llvm.dbg.value(metadata i32 %5, metadata !3385, metadata !DIExpression()), !dbg !3386
  %6 = icmp sgt i32 %5, -1, !dbg !3388
  br i1 %6, label %7, label %26, !dbg !3390

7:                                                ; preds = %3
  call void @llvm.dbg.value(metadata %class.FullNoteQueue* %0, metadata !3391, metadata !DIExpression(DW_OP_plus_uconst, 108, DW_OP_stack_value)), !dbg !3395
  %8 = getelementptr inbounds %class.FullNoteQueue, %class.FullNoteQueue* %0, i64 0, i32 0, i32 0, i32 1, i32 1, !dbg !3397
  %9 = load volatile i32, i32* %8, align 4, !dbg !3397, !tbaa !3398
  %10 = getelementptr inbounds %class.FullNoteQueue, %class.FullNoteQueue* %0, i64 0, i32 0, i32 0, i32 1, i32 2, !dbg !3400
  %11 = load volatile i32, i32* %10, align 4, !dbg !3400, !tbaa !3401
  call void @llvm.dbg.value(metadata %class.FullNoteQueue* %0, metadata !3402, metadata !DIExpression(DW_OP_plus_uconst, 108, DW_OP_stack_value)), !dbg !3408
  call void @llvm.dbg.value(metadata i32 %9, metadata !3405, metadata !DIExpression()), !dbg !3408
  call void @llvm.dbg.value(metadata i32 %11, metadata !3406, metadata !DIExpression()), !dbg !3408
  %12 = sub i32 %11, %9, !dbg !3410
  call void @llvm.dbg.value(metadata i32 %12, metadata !3407, metadata !DIExpression()), !dbg !3408
  %13 = icmp sgt i32 %12, -1, !dbg !3411
  %14 = getelementptr inbounds %class.FullNoteQueue, %class.FullNoteQueue* %0, i64 0, i32 0, i32 0, i32 1, i32 0, !dbg !3412
  %15 = load i32, i32* %14, align 4, !dbg !3412, !tbaa !3413
  %16 = add nsw i32 %12, 1, !dbg !3414
  %17 = add i32 %16, %15, !dbg !3414
  %18 = select i1 %13, i32 %12, i32 %17, !dbg !3414
  call void @llvm.dbg.value(metadata %class.FullNoteQueue* %0, metadata !3415, metadata !DIExpression(DW_OP_plus_uconst, 108, DW_OP_stack_value)), !dbg !3418
  %19 = icmp slt i32 %18, %15, !dbg !3420
  br i1 %19, label %20, label %26, !dbg !3421

20:                                               ; preds = %7
  %21 = getelementptr inbounds %class.FullNoteQueue, %class.FullNoteQueue* %0, i64 0, i32 0, i32 0, i32 2, !dbg !3422
  %22 = load %class.Packet**, %class.Packet*** %21, align 8, !dbg !3422, !tbaa !3423
  %23 = icmp eq %class.Packet** %22, null, !dbg !3422
  br i1 %23, label %26, label %24, !dbg !3425

24:                                               ; preds = %20
  %25 = getelementptr inbounds %class.FullNoteQueue, %class.FullNoteQueue* %0, i64 0, i32 1, !dbg !3426
  call void @llvm.dbg.value(metadata %class.ActiveNotifier* %25, metadata !3427, metadata !DIExpression()), !dbg !3433
  tail call void @_ZN14ActiveNotifier10set_activeEbb(%class.ActiveNotifier* nonnull %25, i1 zeroext true, i1 zeroext true), !dbg !3435
  br label %26, !dbg !3426

26:                                               ; preds = %20, %24, %7, %3
  ret i32 %5, !dbg !3436
}

declare i32 @_ZN11SimpleQueue16live_reconfigureER6VectorI6StringEP12ErrorHandler(%class.SimpleQueue*, %class.Vector.7* nonnull, %class.ErrorHandler*) unnamed_addr #2

; Function Attrs: sspstrong uwtable
define dso_local void @_ZN13FullNoteQueue4pushEiP6Packet(%class.FullNoteQueue* %0, i32 %1, %class.Packet* %2) unnamed_addr #0 align 2 !dbg !3437 {
  call void @llvm.dbg.value(metadata %class.FullNoteQueue* %0, metadata !3439, metadata !DIExpression()), !dbg !3445
  call void @llvm.dbg.value(metadata i32 undef, metadata !3440, metadata !DIExpression()), !dbg !3445
  call void @llvm.dbg.value(metadata %class.Packet* %2, metadata !3441, metadata !DIExpression()), !dbg !3445
  call void @llvm.dbg.value(metadata %class.FullNoteQueue* %0, metadata !3446, metadata !DIExpression(DW_OP_plus_uconst, 108, DW_OP_stack_value)), !dbg !3449
  %4 = getelementptr inbounds %class.FullNoteQueue, %class.FullNoteQueue* %0, i64 0, i32 0, i32 0, i32 1, i32 1, !dbg !3451
  %5 = load volatile i32, i32* %4, align 4, !dbg !3451, !tbaa !3398
  call void @llvm.dbg.value(metadata i32 %5, metadata !3442, metadata !DIExpression()), !dbg !3445
  call void @llvm.dbg.value(metadata %class.FullNoteQueue* %0, metadata !3452, metadata !DIExpression(DW_OP_plus_uconst, 108, DW_OP_stack_value)), !dbg !3455
  %6 = getelementptr inbounds %class.FullNoteQueue, %class.FullNoteQueue* %0, i64 0, i32 0, i32 0, i32 1, i32 2, !dbg !3457
  %7 = load volatile i32, i32* %6, align 4, !dbg !3457, !tbaa !3401
  call void @llvm.dbg.value(metadata i32 %7, metadata !3443, metadata !DIExpression()), !dbg !3445
  call void @llvm.dbg.value(metadata %class.FullNoteQueue* %0, metadata !3458, metadata !DIExpression(DW_OP_plus_uconst, 108, DW_OP_stack_value)), !dbg !3462
  call void @llvm.dbg.value(metadata i32 %7, metadata !3461, metadata !DIExpression()), !dbg !3462
  %8 = getelementptr inbounds %class.FullNoteQueue, %class.FullNoteQueue* %0, i64 0, i32 0, i32 0, i32 1, i32 0, !dbg !3464
  %9 = load i32, i32* %8, align 4, !dbg !3464, !tbaa !3413
  %10 = icmp eq i32 %9, %7, !dbg !3465
  %11 = add i32 %7, 1, !dbg !3466
  %12 = select i1 %10, i32 0, i32 %11, !dbg !3466
  call void @llvm.dbg.value(metadata i32 %12, metadata !3444, metadata !DIExpression()), !dbg !3445
  %13 = icmp eq i32 %12, %5, !dbg !3467
  br i1 %13, label %50, label %14, !dbg !3469

14:                                               ; preds = %3
  call void @llvm.dbg.value(metadata %class.FullNoteQueue* %0, metadata !3470, metadata !DIExpression()), !dbg !3478
  call void @llvm.dbg.value(metadata i32 %5, metadata !3473, metadata !DIExpression()), !dbg !3478
  call void @llvm.dbg.value(metadata i32 %7, metadata !3474, metadata !DIExpression()), !dbg !3478
  call void @llvm.dbg.value(metadata i32 %12, metadata !3475, metadata !DIExpression()), !dbg !3478
  call void @llvm.dbg.value(metadata %class.Packet* %2, metadata !3476, metadata !DIExpression()), !dbg !3478
  %15 = getelementptr inbounds %class.FullNoteQueue, %class.FullNoteQueue* %0, i64 0, i32 0, i32 0, i32 2, !dbg !3480
  %16 = load %class.Packet**, %class.Packet*** %15, align 8, !dbg !3480, !tbaa !3423
  %17 = zext i32 %7 to i64, !dbg !3480
  %18 = getelementptr inbounds %class.Packet*, %class.Packet** %16, i64 %17, !dbg !3480
  store volatile %class.Packet* %2, %class.Packet** %18, align 8, !dbg !3481, !tbaa !3482
  call void @llvm.dbg.value(metadata %class.FullNoteQueue* %0, metadata !3483, metadata !DIExpression(DW_OP_plus_uconst, 108, DW_OP_stack_value)), !dbg !3488
  call void @llvm.dbg.value(metadata i32 %12, metadata !3486, metadata !DIExpression()), !dbg !3488
  tail call void asm sideeffect "", "~{memory},~{dirflag},~{fpsr},~{flags}"() #11, !dbg !3490, !srcloc !3328
  store volatile i32 %12, i32* %6, align 4, !dbg !3495, !tbaa !3401
  call void @llvm.dbg.value(metadata %class.FullNoteQueue* %0, metadata !3402, metadata !DIExpression(DW_OP_plus_uconst, 108, DW_OP_stack_value)), !dbg !3496
  call void @llvm.dbg.value(metadata i32 %5, metadata !3405, metadata !DIExpression()), !dbg !3496
  call void @llvm.dbg.value(metadata i32 %12, metadata !3406, metadata !DIExpression()), !dbg !3496
  %19 = sub i32 %12, %5, !dbg !3498
  call void @llvm.dbg.value(metadata i32 %19, metadata !3407, metadata !DIExpression()), !dbg !3496
  %20 = icmp sgt i32 %19, -1, !dbg !3499
  br i1 %20, label %25, label %21, !dbg !3500

21:                                               ; preds = %14
  %22 = load i32, i32* %8, align 4, !dbg !3501, !tbaa !3413
  %23 = add nsw i32 %19, 1, !dbg !3502
  %24 = add i32 %23, %22, !dbg !3503
  br label %25, !dbg !3500

25:                                               ; preds = %21, %14
  %26 = phi i32 [ %24, %21 ], [ %19, %14 ], !dbg !3500
  call void @llvm.dbg.value(metadata i32 %26, metadata !3477, metadata !DIExpression()), !dbg !3478
  %27 = getelementptr inbounds %class.FullNoteQueue, %class.FullNoteQueue* %0, i64 0, i32 0, i32 0, i32 4, !dbg !3504
  %28 = load i32, i32* %27, align 4, !dbg !3504, !tbaa !3506
  %29 = icmp sgt i32 %26, %28, !dbg !3507
  br i1 %29, label %30, label %31, !dbg !3508

30:                                               ; preds = %25
  store i32 %26, i32* %27, align 4, !dbg !3509, !tbaa !3506
  br label %31, !dbg !3510

31:                                               ; preds = %30, %25
  %32 = getelementptr inbounds %class.FullNoteQueue, %class.FullNoteQueue* %0, i64 0, i32 0, i32 2, !dbg !3511
  call void @llvm.dbg.value(metadata %class.ActiveNotifier* %32, metadata !3427, metadata !DIExpression()), !dbg !3512
  tail call void @_ZN14ActiveNotifier10set_activeEbb(%class.ActiveNotifier* nonnull %32, i1 zeroext true, i1 zeroext true), !dbg !3514
  call void @llvm.dbg.value(metadata %class.FullNoteQueue* %0, metadata !3415, metadata !DIExpression(DW_OP_plus_uconst, 108, DW_OP_stack_value)), !dbg !3515
  %33 = load i32, i32* %8, align 4, !dbg !3518, !tbaa !3413
  %34 = icmp eq i32 %26, %33, !dbg !3519
  br i1 %34, label %35, label %61, !dbg !3520

35:                                               ; preds = %31
  call void @llvm.dbg.value(metadata %class.FullNoteQueue* %0, metadata !3521, metadata !DIExpression(DW_OP_plus_uconst, 192, DW_OP_stack_value)), !dbg !3525
  call void @llvm.dbg.value(metadata %class.FullNoteQueue* %0, metadata !1980, metadata !DIExpression(DW_OP_plus_uconst, 192, DW_OP_stack_value)), !dbg !3528
  call void @llvm.dbg.value(metadata i1 false, metadata !1987, metadata !DIExpression()), !dbg !3528
  call void @llvm.dbg.value(metadata i1 true, metadata !1988, metadata !DIExpression()), !dbg !3528
  call void @llvm.dbg.value(metadata %class.FullNoteQueue* %0, metadata !3175, metadata !DIExpression(DW_OP_plus_uconst, 192, DW_OP_stack_value)), !dbg !3530
  call void @llvm.dbg.value(metadata i1 false, metadata !3182, metadata !DIExpression()), !dbg !3530
  call void @llvm.dbg.value(metadata %class.FullNoteQueue* %0, metadata !3185, metadata !DIExpression(DW_OP_plus_uconst, 192, DW_OP_plus_uconst, 8, DW_OP_stack_value)), !dbg !3532
  call void @llvm.dbg.value(metadata i1 false, metadata !3257, metadata !DIExpression()), !dbg !3532
  %36 = getelementptr inbounds %class.FullNoteQueue, %class.FullNoteQueue* %0, i64 0, i32 1, i32 0, i32 1, i32 0, i32 0, !dbg !3534
  %37 = load %class.atomic_uint32_t*, %class.atomic_uint32_t** %36, align 8, !dbg !3534, !tbaa !3263
  %38 = icmp eq %class.atomic_uint32_t* %37, @_ZN14NotifierSignal12static_valueE, !dbg !3534
  br i1 %38, label %44, label %39, !dbg !3534

39:                                               ; preds = %35
  call void @llvm.dbg.value(metadata %class.FullNoteQueue* %0, metadata !3521, metadata !DIExpression(DW_OP_plus_uconst, 192, DW_OP_stack_value)), !dbg !3525
  call void @llvm.dbg.value(metadata %class.FullNoteQueue* %0, metadata !1980, metadata !DIExpression(DW_OP_plus_uconst, 192, DW_OP_stack_value)), !dbg !3528
  call void @llvm.dbg.value(metadata %class.FullNoteQueue* %0, metadata !3175, metadata !DIExpression(DW_OP_plus_uconst, 192, DW_OP_stack_value)), !dbg !3530
  call void @llvm.dbg.value(metadata %class.FullNoteQueue* %0, metadata !3185, metadata !DIExpression(DW_OP_plus_uconst, 192, DW_OP_plus_uconst, 8, DW_OP_stack_value)), !dbg !3532
  %40 = getelementptr inbounds %class.FullNoteQueue, %class.FullNoteQueue* %0, i64 0, i32 1, i32 0, i32 1, i32 1, !dbg !3534
  %41 = load i32, i32* %40, align 8, !dbg !3534, !tbaa !3264
  %42 = tail call i32 @llvm.ctpop.i32(i32 %41), !dbg !3534, !range !3266
  %43 = icmp ult i32 %42, 2, !dbg !3534
  br i1 %43, label %45, label %44, !dbg !3534

44:                                               ; preds = %39, %35
  tail call void @__assert_fail(i8* getelementptr inbounds ([49 x i8], [49 x i8]* @.str.1, i64 0, i64 0), i8* getelementptr inbounds ([31 x i8], [31 x i8]* @.str.2, i64 0, i64 0), i32 293, i8* getelementptr inbounds ([38 x i8], [38 x i8]* @__PRETTY_FUNCTION__._ZN14NotifierSignal10set_activeEb, i64 0, i64 0)) #13, !dbg !3534
  unreachable, !dbg !3534

45:                                               ; preds = %39
  call void @llvm.dbg.value(metadata %class.atomic_uint32_t* %37, metadata !3267, metadata !DIExpression()), !dbg !3535
  call void @llvm.dbg.value(metadata %class.atomic_uint32_t* %37, metadata !3273, metadata !DIExpression()), !dbg !3537
  %46 = getelementptr inbounds %class.atomic_uint32_t, %class.atomic_uint32_t* %37, i64 0, i32 0, !dbg !3539
  %47 = load i32, i32* %46, align 4, !dbg !3539, !tbaa !3279
  call void @llvm.dbg.value(metadata i32 %47, metadata !3258, metadata !DIExpression()), !dbg !3532
  %48 = xor i32 %41, -1, !dbg !3540
  %49 = and i32 %47, %48, !dbg !3540
  call void @llvm.dbg.value(metadata %class.atomic_uint32_t* %37, metadata !3282, metadata !DIExpression()), !dbg !3541
  call void @llvm.dbg.value(metadata i32 %49, metadata !3285, metadata !DIExpression()), !dbg !3541
  store i32 %49, i32* %46, align 4, !dbg !3543, !tbaa !3279
  call void @llvm.dbg.value(metadata i1 undef, metadata !1989, metadata !DIExpression()), !dbg !3528
  br label %61, !dbg !3544

50:                                               ; preds = %3
  call void @llvm.dbg.value(metadata %class.FullNoteQueue* %0, metadata !3545, metadata !DIExpression()), !dbg !3549
  call void @llvm.dbg.value(metadata %class.Packet* %2, metadata !3548, metadata !DIExpression()), !dbg !3549
  %51 = getelementptr inbounds %class.FullNoteQueue, %class.FullNoteQueue* %0, i64 0, i32 0, i32 0, i32 3, !dbg !3551
  %52 = load volatile i32, i32* %51, align 8, !dbg !3551, !tbaa !3553
  %53 = icmp ne i32 %52, 0, !dbg !3554
  %54 = icmp eq i32 %9, 0, !dbg !3555
  %55 = or i1 %53, %54, !dbg !3556
  br i1 %55, label %57, label %56, !dbg !3556

56:                                               ; preds = %50
  tail call void (i8*, ...) @click_chatter(i8* getelementptr inbounds ([22 x i8], [22 x i8]* @.str.3, i64 0, i64 0), %class.FullNoteQueue* nonnull %0), !dbg !3557
  br label %57, !dbg !3557

57:                                               ; preds = %50, %56
  %58 = load volatile i32, i32* %51, align 8, !dbg !3558, !tbaa !3553
  %59 = add nsw i32 %58, 1, !dbg !3558
  store volatile i32 %59, i32* %51, align 8, !dbg !3558, !tbaa !3553
  %60 = bitcast %class.FullNoteQueue* %0 to %class.Element*, !dbg !3559
  tail call void @_ZNK7Element19checked_output_pushEiP6Packet(%class.Element* %60, i32 1, %class.Packet* %2), !dbg !3559
  br label %61

61:                                               ; preds = %45, %31, %57
  ret void, !dbg !3560
}

; Function Attrs: sspstrong uwtable
define dso_local %class.Packet* @_ZN13FullNoteQueue4pullEi(%class.FullNoteQueue* %0, i32 %1) unnamed_addr #0 align 2 !dbg !3561 {
  call void @llvm.dbg.value(metadata %class.FullNoteQueue* %0, metadata !3563, metadata !DIExpression()), !dbg !3568
  call void @llvm.dbg.value(metadata i32 undef, metadata !3564, metadata !DIExpression()), !dbg !3568
  call void @llvm.dbg.value(metadata %class.FullNoteQueue* %0, metadata !3446, metadata !DIExpression(DW_OP_plus_uconst, 108, DW_OP_stack_value)), !dbg !3569
  %3 = getelementptr inbounds %class.FullNoteQueue, %class.FullNoteQueue* %0, i64 0, i32 0, i32 0, i32 1, i32 1, !dbg !3571
  %4 = load volatile i32, i32* %3, align 4, !dbg !3571, !tbaa !3398
  call void @llvm.dbg.value(metadata i32 %4, metadata !3565, metadata !DIExpression()), !dbg !3568
  call void @llvm.dbg.value(metadata %class.FullNoteQueue* %0, metadata !3452, metadata !DIExpression(DW_OP_plus_uconst, 108, DW_OP_stack_value)), !dbg !3572
  %5 = getelementptr inbounds %class.FullNoteQueue, %class.FullNoteQueue* %0, i64 0, i32 0, i32 0, i32 1, i32 2, !dbg !3574
  %6 = load volatile i32, i32* %5, align 4, !dbg !3574, !tbaa !3401
  call void @llvm.dbg.value(metadata i32 %6, metadata !3566, metadata !DIExpression()), !dbg !3568
  call void @llvm.dbg.value(metadata %class.FullNoteQueue* %0, metadata !3458, metadata !DIExpression(DW_OP_plus_uconst, 108, DW_OP_stack_value)), !dbg !3575
  call void @llvm.dbg.value(metadata i32 %4, metadata !3461, metadata !DIExpression()), !dbg !3575
  call void @llvm.dbg.value(metadata i32 undef, metadata !3567, metadata !DIExpression()), !dbg !3568
  %7 = icmp eq i32 %4, %6, !dbg !3577
  br i1 %7, label %21, label %8, !dbg !3579

8:                                                ; preds = %2
  %9 = getelementptr inbounds %class.FullNoteQueue, %class.FullNoteQueue* %0, i64 0, i32 0, i32 0, i32 1, i32 0, !dbg !3580
  %10 = load i32, i32* %9, align 4, !dbg !3580, !tbaa !3413
  %11 = icmp eq i32 %10, %4, !dbg !3581
  %12 = add i32 %4, 1, !dbg !3582
  %13 = select i1 %11, i32 0, i32 %12, !dbg !3582
  call void @llvm.dbg.value(metadata i32 %13, metadata !3567, metadata !DIExpression()), !dbg !3568
  call void @llvm.dbg.value(metadata %class.FullNoteQueue* %0, metadata !3583, metadata !DIExpression()), !dbg !3589
  call void @llvm.dbg.value(metadata i32 %4, metadata !3586, metadata !DIExpression()), !dbg !3589
  call void @llvm.dbg.value(metadata i32 %13, metadata !3587, metadata !DIExpression()), !dbg !3589
  %14 = getelementptr inbounds %class.FullNoteQueue, %class.FullNoteQueue* %0, i64 0, i32 0, i32 0, i32 2, !dbg !3591
  %15 = load %class.Packet**, %class.Packet*** %14, align 8, !dbg !3591, !tbaa !3423
  %16 = zext i32 %4 to i64, !dbg !3591
  %17 = getelementptr inbounds %class.Packet*, %class.Packet** %15, i64 %16, !dbg !3591
  %18 = load volatile %class.Packet*, %class.Packet** %17, align 8, !dbg !3591, !tbaa !3482
  call void @llvm.dbg.value(metadata %class.Packet* %18, metadata !3588, metadata !DIExpression()), !dbg !3589
  call void @llvm.dbg.value(metadata %class.FullNoteQueue* %0, metadata !3592, metadata !DIExpression(DW_OP_plus_uconst, 108, DW_OP_stack_value)), !dbg !3596
  call void @llvm.dbg.value(metadata i32 %13, metadata !3595, metadata !DIExpression()), !dbg !3596
  tail call void asm sideeffect "", "~{memory},~{dirflag},~{fpsr},~{flags}"() #11, !dbg !3598, !srcloc !3328
  store volatile i32 %13, i32* %3, align 4, !dbg !3603, !tbaa !3398
  %19 = getelementptr inbounds %class.FullNoteQueue, %class.FullNoteQueue* %0, i64 0, i32 0, i32 1, !dbg !3604
  store i32 0, i32* %19, align 8, !dbg !3605, !tbaa !3606
  %20 = getelementptr inbounds %class.FullNoteQueue, %class.FullNoteQueue* %0, i64 0, i32 1, !dbg !3608
  call void @llvm.dbg.value(metadata %class.ActiveNotifier* %20, metadata !3427, metadata !DIExpression()), !dbg !3609
  tail call void @_ZN14ActiveNotifier10set_activeEbb(%class.ActiveNotifier* nonnull %20, i1 zeroext true, i1 zeroext true), !dbg !3611
  br label %42, !dbg !3612

21:                                               ; preds = %2
  call void @llvm.dbg.value(metadata %class.FullNoteQueue* %0, metadata !3613, metadata !DIExpression()), !dbg !3616
  %22 = getelementptr inbounds %class.FullNoteQueue, %class.FullNoteQueue* %0, i64 0, i32 0, i32 1, !dbg !3618
  %23 = load i32, i32* %22, align 8, !dbg !3618, !tbaa !3606
  %24 = icmp sgt i32 %23, 8, !dbg !3620
  br i1 %24, label %25, label %40, !dbg !3621

25:                                               ; preds = %21
  call void @llvm.dbg.value(metadata %class.FullNoteQueue* %0, metadata !3521, metadata !DIExpression(DW_OP_plus_uconst, 144, DW_OP_stack_value)), !dbg !3622
  call void @llvm.dbg.value(metadata %class.FullNoteQueue* %0, metadata !1980, metadata !DIExpression(DW_OP_plus_uconst, 144, DW_OP_stack_value)), !dbg !3625
  call void @llvm.dbg.value(metadata i1 false, metadata !1987, metadata !DIExpression()), !dbg !3625
  call void @llvm.dbg.value(metadata i1 true, metadata !1988, metadata !DIExpression()), !dbg !3625
  call void @llvm.dbg.value(metadata %class.FullNoteQueue* %0, metadata !3175, metadata !DIExpression(DW_OP_plus_uconst, 144, DW_OP_stack_value)), !dbg !3627
  call void @llvm.dbg.value(metadata i1 false, metadata !3182, metadata !DIExpression()), !dbg !3627
  call void @llvm.dbg.value(metadata %class.FullNoteQueue* %0, metadata !3185, metadata !DIExpression(DW_OP_plus_uconst, 144, DW_OP_plus_uconst, 8, DW_OP_stack_value)), !dbg !3629
  call void @llvm.dbg.value(metadata i1 false, metadata !3257, metadata !DIExpression()), !dbg !3629
  %26 = getelementptr inbounds %class.FullNoteQueue, %class.FullNoteQueue* %0, i64 0, i32 0, i32 2, i32 0, i32 1, i32 0, i32 0, !dbg !3631
  %27 = load %class.atomic_uint32_t*, %class.atomic_uint32_t** %26, align 8, !dbg !3631, !tbaa !3263
  %28 = icmp eq %class.atomic_uint32_t* %27, @_ZN14NotifierSignal12static_valueE, !dbg !3631
  br i1 %28, label %34, label %29, !dbg !3631

29:                                               ; preds = %25
  call void @llvm.dbg.value(metadata %class.FullNoteQueue* %0, metadata !3521, metadata !DIExpression(DW_OP_plus_uconst, 144, DW_OP_stack_value)), !dbg !3622
  call void @llvm.dbg.value(metadata %class.FullNoteQueue* %0, metadata !1980, metadata !DIExpression(DW_OP_plus_uconst, 144, DW_OP_stack_value)), !dbg !3625
  call void @llvm.dbg.value(metadata %class.FullNoteQueue* %0, metadata !3175, metadata !DIExpression(DW_OP_plus_uconst, 144, DW_OP_stack_value)), !dbg !3627
  call void @llvm.dbg.value(metadata %class.FullNoteQueue* %0, metadata !3185, metadata !DIExpression(DW_OP_plus_uconst, 144, DW_OP_plus_uconst, 8, DW_OP_stack_value)), !dbg !3629
  %30 = getelementptr inbounds %class.FullNoteQueue, %class.FullNoteQueue* %0, i64 0, i32 0, i32 2, i32 0, i32 1, i32 1, !dbg !3631
  %31 = load i32, i32* %30, align 8, !dbg !3631, !tbaa !3264
  %32 = tail call i32 @llvm.ctpop.i32(i32 %31), !dbg !3631, !range !3266
  %33 = icmp ult i32 %32, 2, !dbg !3631
  br i1 %33, label %35, label %34, !dbg !3631

34:                                               ; preds = %29, %25
  tail call void @__assert_fail(i8* getelementptr inbounds ([49 x i8], [49 x i8]* @.str.1, i64 0, i64 0), i8* getelementptr inbounds ([31 x i8], [31 x i8]* @.str.2, i64 0, i64 0), i32 293, i8* getelementptr inbounds ([38 x i8], [38 x i8]* @__PRETTY_FUNCTION__._ZN14NotifierSignal10set_activeEb, i64 0, i64 0)) #13, !dbg !3631
  unreachable, !dbg !3631

35:                                               ; preds = %29
  call void @llvm.dbg.value(metadata %class.atomic_uint32_t* %27, metadata !3267, metadata !DIExpression()), !dbg !3632
  call void @llvm.dbg.value(metadata %class.atomic_uint32_t* %27, metadata !3273, metadata !DIExpression()), !dbg !3634
  %36 = getelementptr inbounds %class.atomic_uint32_t, %class.atomic_uint32_t* %27, i64 0, i32 0, !dbg !3636
  %37 = load i32, i32* %36, align 4, !dbg !3636, !tbaa !3279
  call void @llvm.dbg.value(metadata i32 %37, metadata !3258, metadata !DIExpression()), !dbg !3629
  %38 = xor i32 %31, -1, !dbg !3637
  %39 = and i32 %37, %38, !dbg !3637
  call void @llvm.dbg.value(metadata %class.atomic_uint32_t* %27, metadata !3282, metadata !DIExpression()), !dbg !3638
  call void @llvm.dbg.value(metadata i32 %39, metadata !3285, metadata !DIExpression()), !dbg !3638
  store i32 %39, i32* %36, align 4, !dbg !3640, !tbaa !3279
  call void @llvm.dbg.value(metadata i1 undef, metadata !1989, metadata !DIExpression()), !dbg !3625
  br label %42, !dbg !3641

40:                                               ; preds = %21
  %41 = add nsw i32 %23, 1, !dbg !3642
  store i32 %41, i32* %22, align 8, !dbg !3642, !tbaa !3606
  br label %42

42:                                               ; preds = %40, %35, %8
  %43 = phi %class.Packet* [ %18, %8 ], [ null, %35 ], [ null, %40 ], !dbg !3643
  ret %class.Packet* %43, !dbg !3644
}

; Function Attrs: inlinehint nounwind sspstrong uwtable
define linkonce_odr dso_local void @_ZN13FullNoteQueueD2Ev(%class.FullNoteQueue* %0) unnamed_addr #5 comdat align 2 !dbg !3645 {
  call void @llvm.dbg.value(metadata %class.FullNoteQueue* %0, metadata !3648, metadata !DIExpression()), !dbg !3649
  %2 = getelementptr %class.FullNoteQueue, %class.FullNoteQueue* %0, i64 0, i32 0, i32 0, i32 0, i32 0, !dbg !3650
  store i32 (...)** bitcast (i8** getelementptr inbounds ({ [29 x i8*] }, { [29 x i8*] }* @_ZTV13FullNoteQueue, i64 0, inrange i32 0, i64 2) to i32 (...)**), i32 (...)*** %2, align 8, !dbg !3650, !tbaa !1912
  %3 = getelementptr inbounds %class.FullNoteQueue, %class.FullNoteQueue* %0, i64 0, i32 1, !dbg !3651
  tail call void @_ZN14ActiveNotifierD1Ev(%class.ActiveNotifier* nonnull %3) #11, !dbg !3651
  call void @llvm.dbg.value(metadata %class.FullNoteQueue* %0, metadata !1916, metadata !DIExpression()) #11, !dbg !3653
  store i32 (...)** bitcast (i8** getelementptr inbounds ({ [29 x i8*] }, { [29 x i8*] }* @_ZTV13NotifierQueue, i64 0, inrange i32 0, i64 2) to i32 (...)**), i32 (...)*** %2, align 8, !dbg !3655, !tbaa !1912
  %4 = getelementptr inbounds %class.FullNoteQueue, %class.FullNoteQueue* %0, i64 0, i32 0, i32 2, !dbg !3656
  tail call void @_ZN14ActiveNotifierD1Ev(%class.ActiveNotifier* nonnull %4) #11, !dbg !3656
  %5 = bitcast %class.FullNoteQueue* %0 to %class.Element*, !dbg !3656
  tail call void @_ZN7ElementD2Ev(%class.Element* %5) #11, !dbg !3656
  ret void, !dbg !3650
}

; Function Attrs: inlinehint nounwind sspstrong uwtable
define linkonce_odr dso_local void @_ZN13FullNoteQueueD0Ev(%class.FullNoteQueue* %0) unnamed_addr #5 comdat align 2 !dbg !3657 {
  call void @llvm.dbg.value(metadata %class.FullNoteQueue* %0, metadata !3659, metadata !DIExpression()), !dbg !3660
  call void @llvm.dbg.value(metadata %class.FullNoteQueue* %0, metadata !3648, metadata !DIExpression()) #11, !dbg !3661
  %2 = getelementptr %class.FullNoteQueue, %class.FullNoteQueue* %0, i64 0, i32 0, i32 0, i32 0, i32 0, !dbg !3663
  store i32 (...)** bitcast (i8** getelementptr inbounds ({ [29 x i8*] }, { [29 x i8*] }* @_ZTV13FullNoteQueue, i64 0, inrange i32 0, i64 2) to i32 (...)**), i32 (...)*** %2, align 8, !dbg !3663, !tbaa !1912
  %3 = getelementptr inbounds %class.FullNoteQueue, %class.FullNoteQueue* %0, i64 0, i32 1, !dbg !3664
  tail call void @_ZN14ActiveNotifierD1Ev(%class.ActiveNotifier* nonnull %3) #11, !dbg !3664
  call void @llvm.dbg.value(metadata %class.FullNoteQueue* %0, metadata !1916, metadata !DIExpression()) #11, !dbg !3665
  store i32 (...)** bitcast (i8** getelementptr inbounds ({ [29 x i8*] }, { [29 x i8*] }* @_ZTV13NotifierQueue, i64 0, inrange i32 0, i64 2) to i32 (...)**), i32 (...)*** %2, align 8, !dbg !3667, !tbaa !1912
  %4 = getelementptr inbounds %class.FullNoteQueue, %class.FullNoteQueue* %0, i64 0, i32 0, i32 2, !dbg !3668
  tail call void @_ZN14ActiveNotifierD1Ev(%class.ActiveNotifier* nonnull %4) #11, !dbg !3668
  %5 = bitcast %class.FullNoteQueue* %0 to %class.Element*, !dbg !3668
  tail call void @_ZN7ElementD2Ev(%class.Element* %5) #11, !dbg !3668
  %6 = bitcast %class.FullNoteQueue* %0 to i8*, !dbg !3669
  tail call void @_ZdlPv(i8* %6) #14, !dbg !3669
  ret void, !dbg !3669
}

declare %class.Packet* @_ZN7Element13simple_actionEP6Packet(%class.Element*, %class.Packet*) unnamed_addr #2

declare zeroext i1 @_ZN7Element8run_taskEP4Task(%class.Element*, %class.Task*) unnamed_addr #2

declare void @_ZN7Element9run_timerEP5Timer(%class.Element*, %class.Timer*) unnamed_addr #2

declare void @_ZN7Element8selectedEii(%class.Element*, i32, i32) unnamed_addr #2

declare void @_ZN7Element8selectedEi(%class.Element*, i32) unnamed_addr #2

; Function Attrs: nounwind sspstrong uwtable
define linkonce_odr dso_local i8* @_ZNK13FullNoteQueue10class_nameEv(%class.FullNoteQueue* %0) unnamed_addr #6 comdat align 2 !dbg !3670 {
  call void @llvm.dbg.value(metadata %class.FullNoteQueue* %0, metadata !3672, metadata !DIExpression()), !dbg !3674
  ret i8* getelementptr inbounds ([6 x i8], [6 x i8]* @.str.6, i64 0, i64 0), !dbg !3675
}

; Function Attrs: nounwind sspstrong uwtable
define linkonce_odr dso_local i8* @_ZNK11SimpleQueue10port_countEv(%class.SimpleQueue* %0) unnamed_addr #6 comdat align 2 !dbg !3676 {
  call void @llvm.dbg.value(metadata %class.SimpleQueue* %0, metadata !3685, metadata !DIExpression()), !dbg !3687
  ret i8* getelementptr inbounds ([0 x i8], [0 x i8]* @_ZN7Element11PORTS_1_1X2E, i64 0, i64 0), !dbg !3688
}

; Function Attrs: nounwind sspstrong uwtable
define linkonce_odr dso_local i8* @_ZNK11SimpleQueue10processingEv(%class.SimpleQueue* %0) unnamed_addr #6 comdat align 2 !dbg !3689 {
  call void @llvm.dbg.value(metadata %class.SimpleQueue* %0, metadata !3692, metadata !DIExpression()), !dbg !3693
  ret i8* getelementptr inbounds ([5 x i8], [5 x i8]* @.str.7, i64 0, i64 0), !dbg !3694
}

declare i8* @_ZNK7Element9flow_codeEv(%class.Element*) unnamed_addr #2

declare i8* @_ZNK7Element5flagsEv(%class.Element*) unnamed_addr #2

declare i8* @_ZN7Element9port_castEbiPKc(%class.Element*, i1 zeroext, i32, i8*) unnamed_addr #2

declare i32 @_ZNK7Element15configure_phaseEv(%class.Element*) unnamed_addr #2

declare void @_ZN11SimpleQueue12add_handlersEv(%class.SimpleQueue*) unnamed_addr #2

declare i32 @_ZN11SimpleQueue10initializeEP12ErrorHandler(%class.SimpleQueue*, %class.ErrorHandler*) unnamed_addr #2

declare void @_ZN11SimpleQueue10take_stateEP7ElementP12ErrorHandler(%class.SimpleQueue*, %class.Element*, %class.ErrorHandler*) unnamed_addr #2

declare %class.Element* @_ZNK7Element15hotswap_elementEv(%class.Element*) unnamed_addr #2

declare void @_ZN11SimpleQueue7cleanupEN7Element12CleanupStageE(%class.SimpleQueue*, i32) unnamed_addr #2

declare void @_ZNK7Element11declarationEv(%class.String* sret, %class.Element*) unnamed_addr #2

; Function Attrs: nounwind sspstrong uwtable
define linkonce_odr dso_local zeroext i1 @_ZNK11SimpleQueue20can_live_reconfigureEv(%class.SimpleQueue* %0) unnamed_addr #6 comdat align 2 !dbg !3695 {
  call void @llvm.dbg.value(metadata %class.SimpleQueue* %0, metadata !3700, metadata !DIExpression()), !dbg !3701
  ret i1 true, !dbg !3702
}

declare i32 @_ZN7Element5llrpcEjPv(%class.Element*, i32, i8*) unnamed_addr #2

; Function Attrs: nounwind
declare void @_ZN14ActiveNotifierD1Ev(%class.ActiveNotifier*) unnamed_addr #7

; Function Attrs: nounwind
declare void @_ZN7ElementD2Ev(%class.Element*) unnamed_addr #7

; Function Attrs: noreturn nounwind
declare void @__assert_fail(i8*, i8*, i32, i8*) local_unnamed_addr #8

declare void @_ZN4Task17complete_scheduleEP12RouterThread(%class.Task*, %class.RouterThread*) local_unnamed_addr #2

declare !dbg !1274 void @click_chatter(i8*, ...) local_unnamed_addr #2

; Function Attrs: noinline optnone sspstrong uwtable
define linkonce_odr dso_local void @_ZNK7Element19checked_output_pushEiP6Packet(%class.Element* %0, i32 %1, %class.Packet* %2) local_unnamed_addr #9 comdat align 2 !dbg !3703 {
  %4 = alloca %class.Element*, align 8
  %5 = alloca i32, align 4
  %6 = alloca %class.Packet*, align 8
  store %class.Element* %0, %class.Element** %4, align 8, !tbaa !3482
  call void @llvm.dbg.declare(metadata %class.Element** %4, metadata !3708, metadata !DIExpression()), !dbg !3711
  store i32 %1, i32* %5, align 4, !tbaa !3712
  call void @llvm.dbg.declare(metadata i32* %5, metadata !3709, metadata !DIExpression()), !dbg !3713
  store %class.Packet* %2, %class.Packet** %6, align 8, !tbaa !3482
  call void @llvm.dbg.declare(metadata %class.Packet** %6, metadata !3710, metadata !DIExpression()), !dbg !3714
  %7 = load %class.Element*, %class.Element** %4, align 8
  %8 = load i32, i32* %5, align 4, !dbg !3715, !tbaa !3712
  %9 = call i32 @_ZNK7Element8noutputsEv(%class.Element* %7), !dbg !3717
  %10 = icmp ult i32 %8, %9, !dbg !3718
  br i1 %10, label %11, label %19, !dbg !3719

11:                                               ; preds = %3
  %12 = getelementptr inbounds %class.Element, %class.Element* %7, i32 0, i32 1, !dbg !3720
  %13 = getelementptr inbounds [2 x %"class.Element::Port"*], [2 x %"class.Element::Port"*]* %12, i64 0, i64 1, !dbg !3720
  %14 = load %"class.Element::Port"*, %"class.Element::Port"** %13, align 8, !dbg !3720, !tbaa !3482
  %15 = load i32, i32* %5, align 4, !dbg !3721, !tbaa !3712
  %16 = sext i32 %15 to i64, !dbg !3720
  %17 = getelementptr inbounds %"class.Element::Port", %"class.Element::Port"* %14, i64 %16, !dbg !3720
  %18 = load %class.Packet*, %class.Packet** %6, align 8, !dbg !3722, !tbaa !3482
  call void @_ZNK7Element4Port4pushEP6Packet(%"class.Element::Port"* %17, %class.Packet* %18), !dbg !3723
  br label %21, !dbg !3720

19:                                               ; preds = %3
  %20 = load %class.Packet*, %class.Packet** %6, align 8, !dbg !3724, !tbaa !3482
  call void @_ZN6Packet4killEv(%class.Packet* %20), !dbg !3725
  br label %21

21:                                               ; preds = %19, %11
  ret void, !dbg !3726
}

; Function Attrs: inlinehint nounwind sspstrong uwtable
define linkonce_odr dso_local i32 @_ZNK7Element8noutputsEv(%class.Element* %0) local_unnamed_addr #5 comdat align 2 !dbg !3727 {
  call void @llvm.dbg.value(metadata %class.Element* %0, metadata !3732, metadata !DIExpression()), !dbg !3733
  %2 = getelementptr inbounds %class.Element, %class.Element* %0, i64 0, i32 3, i64 1, !dbg !3734
  %3 = load i32, i32* %2, align 4, !dbg !3734, !tbaa !3712
  ret i32 %3, !dbg !3735
}

; Function Attrs: noinline optnone sspstrong uwtable
define linkonce_odr dso_local void @_ZNK7Element4Port4pushEP6Packet(%"class.Element::Port"* %0, %class.Packet* %1) local_unnamed_addr #9 comdat align 2 !dbg !3736 {
  %3 = alloca %"class.Element::Port"*, align 8
  %4 = alloca %class.Packet*, align 8
  store %"class.Element::Port"* %0, %"class.Element::Port"** %3, align 8, !tbaa !3482
  call void @llvm.dbg.declare(metadata %"class.Element::Port"** %3, metadata !3769, metadata !DIExpression()), !dbg !3772
  store %class.Packet* %1, %class.Packet** %4, align 8, !tbaa !3482
  call void @llvm.dbg.declare(metadata %class.Packet** %4, metadata !3771, metadata !DIExpression()), !dbg !3773
  %5 = load %"class.Element::Port"*, %"class.Element::Port"** %3, align 8
  %6 = getelementptr inbounds %"class.Element::Port", %"class.Element::Port"* %5, i32 0, i32 0, !dbg !3774
  %7 = load %class.Element*, %class.Element** %6, align 8, !dbg !3774, !tbaa !3775
  %8 = icmp ne %class.Element* %7, null, !dbg !3774
  br i1 %8, label %9, label %12, !dbg !3774

9:                                                ; preds = %2
  %10 = load %class.Packet*, %class.Packet** %4, align 8, !dbg !3774, !tbaa !3482
  %11 = icmp ne %class.Packet* %10, null, !dbg !3774
  br label %12

12:                                               ; preds = %9, %2
  %13 = phi i1 [ false, %2 ], [ %11, %9 ], !dbg !3772
  br i1 %13, label %14, label %15, !dbg !3774

14:                                               ; preds = %12
  br label %16, !dbg !3774

15:                                               ; preds = %12
  call void @__assert_fail(i8* getelementptr inbounds ([8 x i8], [8 x i8]* @.str.4, i64 0, i64 0), i8* getelementptr inbounds ([30 x i8], [30 x i8]* @.str.5, i64 0, i64 0), i32 611, i8* getelementptr inbounds ([41 x i8], [41 x i8]* @__PRETTY_FUNCTION__._ZNK7Element4Port4pushEP6Packet, i64 0, i64 0)) #13, !dbg !3774
  unreachable, !dbg !3774

16:                                               ; preds = %14
  %17 = getelementptr inbounds %"class.Element::Port", %"class.Element::Port"* %5, i32 0, i32 0, !dbg !3777
  %18 = load %class.Element*, %class.Element** %17, align 8, !dbg !3777, !tbaa !3775
  %19 = getelementptr inbounds %"class.Element::Port", %"class.Element::Port"* %5, i32 0, i32 1, !dbg !3778
  %20 = load i32, i32* %19, align 8, !dbg !3778, !tbaa !3779
  %21 = load %class.Packet*, %class.Packet** %4, align 8, !dbg !3780, !tbaa !3482
  %22 = bitcast %class.Element* %18 to void (%class.Element*, i32, %class.Packet*)***, !dbg !3781
  %23 = load void (%class.Element*, i32, %class.Packet*)**, void (%class.Element*, i32, %class.Packet*)*** %22, align 8, !dbg !3781, !tbaa !1912
  %24 = getelementptr inbounds void (%class.Element*, i32, %class.Packet*)*, void (%class.Element*, i32, %class.Packet*)** %23, i64 2, !dbg !3781
  %25 = load void (%class.Element*, i32, %class.Packet*)*, void (%class.Element*, i32, %class.Packet*)** %24, align 8, !dbg !3781
  call void %25(%class.Element* %18, i32 %20, %class.Packet* %21), !dbg !3781
  ret void, !dbg !3782
}

declare void @_ZN6Packet4killEv(%class.Packet*) local_unnamed_addr #2

; Function Attrs: nobuiltin nounwind
declare void @_ZdlPv(i8*) local_unnamed_addr #10

; Function Attrs: nounwind readnone speculatable willreturn
declare void @llvm.dbg.value(metadata, metadata, metadata) #1

; Function Attrs: nounwind readnone speculatable willreturn
declare i32 @llvm.ctpop.i32(i32) #1

attributes #0 = { sspstrong uwtable "correctly-rounded-divide-sqrt-fp-math"="false" "disable-tail-calls"="false" "frame-pointer"="none" "less-precise-fpmad"="false" "min-legal-vector-width"="0" "no-infs-fp-math"="false" "no-jump-tables"="false" "no-nans-fp-math"="false" "no-signed-zeros-fp-math"="false" "no-trapping-math"="false" "stack-protector-buffer-size"="8" "target-cpu"="x86-64" "target-features"="+cx8,+fxsr,+mmx,+sse,+sse2,+x87" "unsafe-fp-math"="false" "use-soft-float"="false" }
attributes #1 = { nounwind readnone speculatable willreturn }
attributes #2 = { "correctly-rounded-divide-sqrt-fp-math"="false" "disable-tail-calls"="false" "frame-pointer"="none" "less-precise-fpmad"="false" "no-infs-fp-math"="false" "no-nans-fp-math"="false" "no-signed-zeros-fp-math"="false" "no-trapping-math"="false" "stack-protector-buffer-size"="8" "target-cpu"="x86-64" "target-features"="+cx8,+fxsr,+mmx,+sse,+sse2,+x87" "unsafe-fp-math"="false" "use-soft-float"="false" }
attributes #3 = { nofree nounwind readonly "correctly-rounded-divide-sqrt-fp-math"="false" "disable-tail-calls"="false" "frame-pointer"="none" "less-precise-fpmad"="false" "no-infs-fp-math"="false" "no-nans-fp-math"="false" "no-signed-zeros-fp-math"="false" "no-trapping-math"="false" "stack-protector-buffer-size"="8" "target-cpu"="x86-64" "target-features"="+cx8,+fxsr,+mmx,+sse,+sse2,+x87" "unsafe-fp-math"="false" "use-soft-float"="false" }
attributes #4 = { inlinehint sspstrong uwtable "correctly-rounded-divide-sqrt-fp-math"="false" "disable-tail-calls"="false" "frame-pointer"="none" "less-precise-fpmad"="false" "min-legal-vector-width"="0" "no-infs-fp-math"="false" "no-jump-tables"="false" "no-nans-fp-math"="false" "no-signed-zeros-fp-math"="false" "no-trapping-math"="false" "stack-protector-buffer-size"="8" "target-cpu"="x86-64" "target-features"="+cx8,+fxsr,+mmx,+sse,+sse2,+x87" "unsafe-fp-math"="false" "use-soft-float"="false" }
attributes #5 = { inlinehint nounwind sspstrong uwtable "correctly-rounded-divide-sqrt-fp-math"="false" "disable-tail-calls"="false" "frame-pointer"="none" "less-precise-fpmad"="false" "min-legal-vector-width"="0" "no-infs-fp-math"="false" "no-jump-tables"="false" "no-nans-fp-math"="false" "no-signed-zeros-fp-math"="false" "no-trapping-math"="false" "stack-protector-buffer-size"="8" "target-cpu"="x86-64" "target-features"="+cx8,+fxsr,+mmx,+sse,+sse2,+x87" "unsafe-fp-math"="false" "use-soft-float"="false" }
attributes #6 = { nounwind sspstrong uwtable "correctly-rounded-divide-sqrt-fp-math"="false" "disable-tail-calls"="false" "frame-pointer"="none" "less-precise-fpmad"="false" "min-legal-vector-width"="0" "no-infs-fp-math"="false" "no-jump-tables"="false" "no-nans-fp-math"="false" "no-signed-zeros-fp-math"="false" "no-trapping-math"="false" "stack-protector-buffer-size"="8" "target-cpu"="x86-64" "target-features"="+cx8,+fxsr,+mmx,+sse,+sse2,+x87" "unsafe-fp-math"="false" "use-soft-float"="false" }
attributes #7 = { nounwind "correctly-rounded-divide-sqrt-fp-math"="false" "disable-tail-calls"="false" "frame-pointer"="none" "less-precise-fpmad"="false" "no-infs-fp-math"="false" "no-nans-fp-math"="false" "no-signed-zeros-fp-math"="false" "no-trapping-math"="false" "stack-protector-buffer-size"="8" "target-cpu"="x86-64" "target-features"="+cx8,+fxsr,+mmx,+sse,+sse2,+x87" "unsafe-fp-math"="false" "use-soft-float"="false" }
attributes #8 = { noreturn nounwind "correctly-rounded-divide-sqrt-fp-math"="false" "disable-tail-calls"="false" "frame-pointer"="none" "less-precise-fpmad"="false" "no-infs-fp-math"="false" "no-nans-fp-math"="false" "no-signed-zeros-fp-math"="false" "no-trapping-math"="false" "stack-protector-buffer-size"="8" "target-cpu"="x86-64" "target-features"="+cx8,+fxsr,+mmx,+sse,+sse2,+x87" "unsafe-fp-math"="false" "use-soft-float"="false" }
attributes #9 = { noinline optnone sspstrong uwtable "correctly-rounded-divide-sqrt-fp-math"="false" "disable-tail-calls"="false" "frame-pointer"="none" "less-precise-fpmad"="false" "min-legal-vector-width"="0" "no-infs-fp-math"="false" "no-jump-tables"="false" "no-nans-fp-math"="false" "no-signed-zeros-fp-math"="false" "no-trapping-math"="false" "stack-protector-buffer-size"="8" "target-cpu"="x86-64" "target-features"="+cx8,+fxsr,+mmx,+sse,+sse2,+x87" "unsafe-fp-math"="false" "use-soft-float"="false" }
attributes #10 = { nobuiltin nounwind "correctly-rounded-divide-sqrt-fp-math"="false" "disable-tail-calls"="false" "frame-pointer"="none" "less-precise-fpmad"="false" "no-infs-fp-math"="false" "no-nans-fp-math"="false" "no-signed-zeros-fp-math"="false" "no-trapping-math"="false" "stack-protector-buffer-size"="8" "target-cpu"="x86-64" "target-features"="+cx8,+fxsr,+mmx,+sse,+sse2,+x87" "unsafe-fp-math"="false" "use-soft-float"="false" }
attributes #11 = { nounwind }
attributes #12 = { nounwind readonly }
attributes #13 = { noreturn nounwind }
attributes #14 = { builtin nounwind }

!llvm.dbg.cu = !{!0}
!llvm.module.flags = !{!1900, !1901, !1902, !1903, !1904}
!llvm.ident = !{!1905}

!0 = distinct !DICompileUnit(language: DW_LANG_C_plus_plus_14, file: !1, producer: "clang version 10.0.0 ", isOptimized: true, runtimeVersion: 0, emissionKind: FullDebug, enums: !2, retainedTypes: !1167, imports: !1277, splitDebugInlining: false, nameTableKind: None)
!1 = !DIFile(filename: "../elements/standard/fullnotequeue.cc", directory: "/home/john/projects/click/ir-dir")
!2 = !{!3, !857, !1162}
!3 = !DICompositeType(tag: DW_TAG_enumeration_type, name: "PacketType", scope: !5, file: !4, line: 368, baseType: !16, size: 32, elements: !1154, identifier: "_ZTSN6Packet10PacketTypeE")
!4 = !DIFile(filename: "../dummy_inc/click/packet.hh", directory: "/home/john/projects/click/ir-dir")
!5 = distinct !DICompositeType(tag: DW_TAG_class_type, name: "Packet", file: !4, line: 35, size: 1344, flags: DIFlagTypePassByReference | DIFlagNonTrivial, elements: !6, identifier: "_ZTS6Packet")
!6 = !{!7, !77, !79, !82, !83, !84, !85, !128, !136, !137, !226, !229, !232, !235, !238, !242, !246, !249, !252, !257, !258, !261, !262, !263, !264, !265, !266, !269, !272, !275, !276, !279, !280, !283, !286, !287, !288, !289, !292, !295, !298, !301, !302, !303, !306, !307, !308, !311, !312, !313, !314, !315, !316, !317, !318, !319, !320, !321, !322, !323, !324, !325, !326, !331, !334, !339, !340, !341, !344, !349, !350, !351, !354, !357, !362, !367, !372, !377, !381, !898, !902, !905, !911, !914, !917, !920, !923, !927, !930, !931, !932, !933, !1023, !1026, !1027, !1030, !1034, !1039, !1043, !1048, !1051, !1054, !1057, !1060, !1066, !1069, !1072, !1075, !1078, !1081, !1084, !1087, !1090, !1093, !1094, !1097, !1101, !1102, !1103, !1104, !1105, !1106, !1107, !1108, !1109, !1110, !1111, !1112, !1113, !1114, !1115, !1116, !1117, !1118, !1119, !1120, !1121, !1122, !1123, !1124, !1125, !1126, !1127, !1128, !1129, !1130, !1131, !1132, !1133, !1134, !1135, !1138, !1139, !1143, !1146, !1149, !1152, !1153}
!7 = !DIDerivedType(tag: DW_TAG_member, name: "_use_count", scope: !5, file: !4, line: 731, baseType: !8, size: 32)
!8 = distinct !DICompositeType(tag: DW_TAG_class_type, name: "atomic_uint32_t", file: !9, line: 52, size: 32, flags: DIFlagTypePassByValue, elements: !10, identifier: "_ZTS15atomic_uint32_t")
!9 = !DIFile(filename: "../dummy_inc/click/atomic.hh", directory: "/home/john/projects/click/ir-dir")
!10 = !{!11, !17, !22, !23, !28, !35, !36, !37, !38, !41, !44, !45, !46, !49, !50, !54, !57, !60, !65, !68, !71, !74}
!11 = !DIDerivedType(tag: DW_TAG_member, name: "_val", scope: !8, file: !9, line: 91, baseType: !12, size: 32)
!12 = !DIDerivedType(tag: DW_TAG_typedef, name: "uint32_t", file: !13, line: 26, baseType: !14)
!13 = !DIFile(filename: "/usr/include/bits/stdint-uintn.h", directory: "")
!14 = !DIDerivedType(tag: DW_TAG_typedef, name: "__uint32_t", file: !15, line: 42, baseType: !16)
!15 = !DIFile(filename: "/usr/include/bits/types.h", directory: "")
!16 = !DIBasicType(name: "unsigned int", size: 32, encoding: DW_ATE_unsigned)
!17 = !DISubprogram(name: "value", linkageName: "_ZNK15atomic_uint32_t5valueEv", scope: !8, file: !9, line: 57, type: !18, scopeLine: 57, flags: DIFlagPublic | DIFlagPrototyped, spFlags: DISPFlagOptimized)
!18 = !DISubroutineType(types: !19)
!19 = !{!12, !20}
!20 = !DIDerivedType(tag: DW_TAG_pointer_type, baseType: !21, size: 64, flags: DIFlagArtificial | DIFlagObjectPointer)
!21 = !DIDerivedType(tag: DW_TAG_const_type, baseType: !8)
!22 = !DISubprogram(name: "operator unsigned int", linkageName: "_ZNK15atomic_uint32_tcvjEv", scope: !8, file: !9, line: 58, type: !18, scopeLine: 58, flags: DIFlagPublic | DIFlagPrototyped, spFlags: DISPFlagOptimized)
!23 = !DISubprogram(name: "operator=", linkageName: "_ZN15atomic_uint32_taSEj", scope: !8, file: !9, line: 60, type: !24, scopeLine: 60, flags: DIFlagPublic | DIFlagPrototyped, spFlags: DISPFlagOptimized)
!24 = !DISubroutineType(types: !25)
!25 = !{!26, !27, !12}
!26 = !DIDerivedType(tag: DW_TAG_reference_type, baseType: !8, size: 64)
!27 = !DIDerivedType(tag: DW_TAG_pointer_type, baseType: !8, size: 64, flags: DIFlagArtificial | DIFlagObjectPointer)
!28 = !DISubprogram(name: "operator+=", linkageName: "_ZN15atomic_uint32_tpLEi", scope: !8, file: !9, line: 62, type: !29, scopeLine: 62, flags: DIFlagPublic | DIFlagPrototyped, spFlags: DISPFlagOptimized)
!29 = !DISubroutineType(types: !30)
!30 = !{!26, !27, !31}
!31 = !DIDerivedType(tag: DW_TAG_typedef, name: "int32_t", file: !32, line: 26, baseType: !33)
!32 = !DIFile(filename: "/usr/include/bits/stdint-intn.h", directory: "")
!33 = !DIDerivedType(tag: DW_TAG_typedef, name: "__int32_t", file: !15, line: 41, baseType: !34)
!34 = !DIBasicType(name: "int", size: 32, encoding: DW_ATE_signed)
!35 = !DISubprogram(name: "operator-=", linkageName: "_ZN15atomic_uint32_tmIEi", scope: !8, file: !9, line: 63, type: !29, scopeLine: 63, flags: DIFlagPublic | DIFlagPrototyped, spFlags: DISPFlagOptimized)
!36 = !DISubprogram(name: "operator|=", linkageName: "_ZN15atomic_uint32_toREj", scope: !8, file: !9, line: 64, type: !24, scopeLine: 64, flags: DIFlagPublic | DIFlagPrototyped, spFlags: DISPFlagOptimized)
!37 = !DISubprogram(name: "operator&=", linkageName: "_ZN15atomic_uint32_taNEj", scope: !8, file: !9, line: 65, type: !24, scopeLine: 65, flags: DIFlagPublic | DIFlagPrototyped, spFlags: DISPFlagOptimized)
!38 = !DISubprogram(name: "operator++", linkageName: "_ZN15atomic_uint32_tppEv", scope: !8, file: !9, line: 67, type: !39, scopeLine: 67, flags: DIFlagPublic | DIFlagPrototyped, spFlags: DISPFlagOptimized)
!39 = !DISubroutineType(types: !40)
!40 = !{null, !27}
!41 = !DISubprogram(name: "operator++", linkageName: "_ZN15atomic_uint32_tppEi", scope: !8, file: !9, line: 68, type: !42, scopeLine: 68, flags: DIFlagPublic | DIFlagPrototyped, spFlags: DISPFlagOptimized)
!42 = !DISubroutineType(types: !43)
!43 = !{null, !27, !34}
!44 = !DISubprogram(name: "operator--", linkageName: "_ZN15atomic_uint32_tmmEv", scope: !8, file: !9, line: 69, type: !39, scopeLine: 69, flags: DIFlagPublic | DIFlagPrototyped, spFlags: DISPFlagOptimized)
!45 = !DISubprogram(name: "operator--", linkageName: "_ZN15atomic_uint32_tmmEi", scope: !8, file: !9, line: 70, type: !42, scopeLine: 70, flags: DIFlagPublic | DIFlagPrototyped, spFlags: DISPFlagOptimized)
!46 = !DISubprogram(name: "swap", linkageName: "_ZN15atomic_uint32_t4swapEj", scope: !8, file: !9, line: 72, type: !47, scopeLine: 72, flags: DIFlagPublic | DIFlagPrototyped, spFlags: DISPFlagOptimized)
!47 = !DISubroutineType(types: !48)
!48 = !{!12, !27, !12}
!49 = !DISubprogram(name: "fetch_and_add", linkageName: "_ZN15atomic_uint32_t13fetch_and_addEj", scope: !8, file: !9, line: 73, type: !47, scopeLine: 73, flags: DIFlagPublic | DIFlagPrototyped, spFlags: DISPFlagOptimized)
!50 = !DISubprogram(name: "dec_and_test", linkageName: "_ZN15atomic_uint32_t12dec_and_testEv", scope: !8, file: !9, line: 74, type: !51, scopeLine: 74, flags: DIFlagPublic | DIFlagPrototyped, spFlags: DISPFlagOptimized)
!51 = !DISubroutineType(types: !52)
!52 = !{!53, !27}
!53 = !DIBasicType(name: "bool", size: 8, encoding: DW_ATE_boolean)
!54 = !DISubprogram(name: "compare_swap", linkageName: "_ZN15atomic_uint32_t12compare_swapEjj", scope: !8, file: !9, line: 75, type: !55, scopeLine: 75, flags: DIFlagPublic | DIFlagPrototyped, spFlags: DISPFlagOptimized)
!55 = !DISubroutineType(types: !56)
!56 = !{!12, !27, !12, !12}
!57 = !DISubprogram(name: "compare_and_swap", linkageName: "_ZN15atomic_uint32_t16compare_and_swapEjj", scope: !8, file: !9, line: 76, type: !58, scopeLine: 76, flags: DIFlagPublic | DIFlagPrototyped, spFlags: DISPFlagOptimized)
!58 = !DISubroutineType(types: !59)
!59 = !{!53, !27, !12, !12}
!60 = !DISubprogram(name: "swap", linkageName: "_ZN15atomic_uint32_t4swapERVjj", scope: !8, file: !9, line: 78, type: !61, scopeLine: 78, flags: DIFlagPublic | DIFlagPrototyped | DIFlagStaticMember, spFlags: DISPFlagOptimized)
!61 = !DISubroutineType(types: !62)
!62 = !{!12, !63, !12}
!63 = !DIDerivedType(tag: DW_TAG_reference_type, baseType: !64, size: 64)
!64 = !DIDerivedType(tag: DW_TAG_volatile_type, baseType: !12)
!65 = !DISubprogram(name: "inc", linkageName: "_ZN15atomic_uint32_t3incERVj", scope: !8, file: !9, line: 79, type: !66, scopeLine: 79, flags: DIFlagPublic | DIFlagPrototyped | DIFlagStaticMember, spFlags: DISPFlagOptimized)
!66 = !DISubroutineType(types: !67)
!67 = !{null, !63}
!68 = !DISubprogram(name: "dec_and_test", linkageName: "_ZN15atomic_uint32_t12dec_and_testERVj", scope: !8, file: !9, line: 80, type: !69, scopeLine: 80, flags: DIFlagPublic | DIFlagPrototyped | DIFlagStaticMember, spFlags: DISPFlagOptimized)
!69 = !DISubroutineType(types: !70)
!70 = !{!53, !63}
!71 = !DISubprogram(name: "compare_swap", linkageName: "_ZN15atomic_uint32_t12compare_swapERVjjj", scope: !8, file: !9, line: 81, type: !72, scopeLine: 81, flags: DIFlagPublic | DIFlagPrototyped | DIFlagStaticMember, spFlags: DISPFlagOptimized)
!72 = !DISubroutineType(types: !73)
!73 = !{!12, !63, !12, !12}
!74 = !DISubprogram(name: "compare_and_swap", linkageName: "_ZN15atomic_uint32_t16compare_and_swapERVjjj", scope: !8, file: !9, line: 82, type: !75, scopeLine: 82, flags: DIFlagPublic | DIFlagPrototyped | DIFlagStaticMember, spFlags: DISPFlagOptimized)
!75 = !DISubroutineType(types: !76)
!76 = !{!53, !63, !12, !12}
!77 = !DIDerivedType(tag: DW_TAG_member, name: "_data_packet", scope: !5, file: !4, line: 732, baseType: !78, size: 64, offset: 64)
!78 = !DIDerivedType(tag: DW_TAG_pointer_type, baseType: !5, size: 64)
!79 = !DIDerivedType(tag: DW_TAG_member, name: "_head", scope: !5, file: !4, line: 734, baseType: !80, size: 64, offset: 128)
!80 = !DIDerivedType(tag: DW_TAG_pointer_type, baseType: !81, size: 64)
!81 = !DIBasicType(name: "unsigned char", size: 8, encoding: DW_ATE_unsigned_char)
!82 = !DIDerivedType(tag: DW_TAG_member, name: "_data", scope: !5, file: !4, line: 735, baseType: !80, size: 64, offset: 192)
!83 = !DIDerivedType(tag: DW_TAG_member, name: "_tail", scope: !5, file: !4, line: 736, baseType: !80, size: 64, offset: 256)
!84 = !DIDerivedType(tag: DW_TAG_member, name: "_end", scope: !5, file: !4, line: 737, baseType: !80, size: 64, offset: 320)
!85 = !DIDerivedType(tag: DW_TAG_member, name: "_aa", scope: !5, file: !4, line: 741, baseType: !86, size: 832, offset: 384)
!86 = distinct !DICompositeType(tag: DW_TAG_structure_type, name: "AllAnno", scope: !5, file: !4, line: 716, size: 832, flags: DIFlagTypePassByValue, elements: !87, identifier: "_ZTSN6Packet7AllAnnoE")
!87 = !{!88, !118, !119, !120, !121, !122, !126, !127}
!88 = !DIDerivedType(tag: DW_TAG_member, name: "cb", scope: !86, file: !4, line: 717, baseType: !89, size: 384)
!89 = distinct !DICompositeType(tag: DW_TAG_union_type, name: "Anno", scope: !5, file: !4, line: 702, size: 384, flags: DIFlagTypePassByValue, elements: !90, identifier: "_ZTSN6Packet4AnnoE")
!90 = !{!91, !96, !100, !107, !111}
!91 = !DIDerivedType(tag: DW_TAG_member, name: "c", scope: !89, file: !4, line: 703, baseType: !92, size: 384)
!92 = !DICompositeType(tag: DW_TAG_array_type, baseType: !93, size: 384, elements: !94)
!93 = !DIBasicType(name: "char", size: 8, encoding: DW_ATE_signed_char)
!94 = !{!95}
!95 = !DISubrange(count: 48)
!96 = !DIDerivedType(tag: DW_TAG_member, name: "u8", scope: !89, file: !4, line: 704, baseType: !97, size: 384)
!97 = !DICompositeType(tag: DW_TAG_array_type, baseType: !98, size: 384, elements: !94)
!98 = !DIDerivedType(tag: DW_TAG_typedef, name: "uint8_t", file: !13, line: 24, baseType: !99)
!99 = !DIDerivedType(tag: DW_TAG_typedef, name: "__uint8_t", file: !15, line: 38, baseType: !81)
!100 = !DIDerivedType(tag: DW_TAG_member, name: "u16", scope: !89, file: !4, line: 705, baseType: !101, size: 384)
!101 = !DICompositeType(tag: DW_TAG_array_type, baseType: !102, size: 384, elements: !105)
!102 = !DIDerivedType(tag: DW_TAG_typedef, name: "uint16_t", file: !13, line: 25, baseType: !103)
!103 = !DIDerivedType(tag: DW_TAG_typedef, name: "__uint16_t", file: !15, line: 40, baseType: !104)
!104 = !DIBasicType(name: "unsigned short", size: 16, encoding: DW_ATE_unsigned)
!105 = !{!106}
!106 = !DISubrange(count: 24)
!107 = !DIDerivedType(tag: DW_TAG_member, name: "u32", scope: !89, file: !4, line: 706, baseType: !108, size: 384)
!108 = !DICompositeType(tag: DW_TAG_array_type, baseType: !12, size: 384, elements: !109)
!109 = !{!110}
!110 = !DISubrange(count: 12)
!111 = !DIDerivedType(tag: DW_TAG_member, name: "u64", scope: !89, file: !4, line: 708, baseType: !112, size: 384)
!112 = !DICompositeType(tag: DW_TAG_array_type, baseType: !113, size: 384, elements: !116)
!113 = !DIDerivedType(tag: DW_TAG_typedef, name: "uint64_t", file: !13, line: 27, baseType: !114)
!114 = !DIDerivedType(tag: DW_TAG_typedef, name: "__uint64_t", file: !15, line: 45, baseType: !115)
!115 = !DIBasicType(name: "long unsigned int", size: 64, encoding: DW_ATE_unsigned)
!116 = !{!117}
!117 = !DISubrange(count: 6)
!118 = !DIDerivedType(tag: DW_TAG_member, name: "mac", scope: !86, file: !4, line: 718, baseType: !80, size: 64, offset: 384)
!119 = !DIDerivedType(tag: DW_TAG_member, name: "nh", scope: !86, file: !4, line: 719, baseType: !80, size: 64, offset: 448)
!120 = !DIDerivedType(tag: DW_TAG_member, name: "h", scope: !86, file: !4, line: 720, baseType: !80, size: 64, offset: 512)
!121 = !DIDerivedType(tag: DW_TAG_member, name: "pkt_type", scope: !86, file: !4, line: 721, baseType: !3, size: 32, offset: 576)
!122 = !DIDerivedType(tag: DW_TAG_member, name: "timestamp", scope: !86, file: !4, line: 722, baseType: !123, size: 64, offset: 608)
!123 = !DICompositeType(tag: DW_TAG_array_type, baseType: !93, size: 64, elements: !124)
!124 = !{!125}
!125 = !DISubrange(count: 8)
!126 = !DIDerivedType(tag: DW_TAG_member, name: "next", scope: !86, file: !4, line: 723, baseType: !78, size: 64, offset: 704)
!127 = !DIDerivedType(tag: DW_TAG_member, name: "prev", scope: !86, file: !4, line: 724, baseType: !78, size: 64, offset: 768)
!128 = !DIDerivedType(tag: DW_TAG_member, name: "_destructor", scope: !5, file: !4, line: 746, baseType: !129, size: 64, offset: 1216)
!129 = !DIDerivedType(tag: DW_TAG_typedef, name: "buffer_destructor_type", scope: !5, file: !4, line: 65, baseType: !130)
!130 = !DIDerivedType(tag: DW_TAG_pointer_type, baseType: !131, size: 64)
!131 = !DISubroutineType(types: !132)
!132 = !{null, !80, !133, !135}
!133 = !DIDerivedType(tag: DW_TAG_typedef, name: "size_t", file: !134, line: 46, baseType: !115)
!134 = !DIFile(filename: "/usr/lib/clang/10.0.0/include/stddef.h", directory: "")
!135 = !DIDerivedType(tag: DW_TAG_pointer_type, baseType: null, size: 64)
!136 = !DIDerivedType(tag: DW_TAG_member, name: "_destructor_argument", scope: !5, file: !4, line: 747, baseType: !135, size: 64, offset: 1280)
!137 = !DISubprogram(name: "make", linkageName: "_ZN6Packet4makeEjPKvjj", scope: !5, file: !4, line: 52, type: !138, scopeLine: 52, flags: DIFlagPublic | DIFlagPrototyped | DIFlagStaticMember, spFlags: DISPFlagOptimized)
!138 = !DISubroutineType(types: !139)
!139 = !{!140, !12, !224, !12, !12}
!140 = !DIDerivedType(tag: DW_TAG_pointer_type, baseType: !141, size: 64)
!141 = distinct !DICompositeType(tag: DW_TAG_class_type, name: "WritablePacket", file: !4, line: 778, size: 1344, flags: DIFlagTypePassByReference | DIFlagNonTrivial, elements: !142, identifier: "_ZTS14WritablePacket")
!142 = !{!143, !144, !149, !150, !151, !152, !153, !158, !159, !182, !187, !188, !193, !198, !203, !204, !208, !209, !214, !215, !218, !221}
!143 = !DIDerivedType(tag: DW_TAG_inheritance, scope: !141, baseType: !5, flags: DIFlagPublic, extraData: i32 0)
!144 = !DISubprogram(name: "data", linkageName: "_ZNK14WritablePacket4dataEv", scope: !141, file: !4, line: 780, type: !145, scopeLine: 780, flags: DIFlagPublic | DIFlagPrototyped, spFlags: DISPFlagOptimized)
!145 = !DISubroutineType(types: !146)
!146 = !{!80, !147}
!147 = !DIDerivedType(tag: DW_TAG_pointer_type, baseType: !148, size: 64, flags: DIFlagArtificial | DIFlagObjectPointer)
!148 = !DIDerivedType(tag: DW_TAG_const_type, baseType: !141)
!149 = !DISubprogram(name: "end_data", linkageName: "_ZNK14WritablePacket8end_dataEv", scope: !141, file: !4, line: 781, type: !145, scopeLine: 781, flags: DIFlagPublic | DIFlagPrototyped, spFlags: DISPFlagOptimized)
!150 = !DISubprogram(name: "buffer", linkageName: "_ZNK14WritablePacket6bufferEv", scope: !141, file: !4, line: 782, type: !145, scopeLine: 782, flags: DIFlagPublic | DIFlagPrototyped, spFlags: DISPFlagOptimized)
!151 = !DISubprogram(name: "end_buffer", linkageName: "_ZNK14WritablePacket10end_bufferEv", scope: !141, file: !4, line: 783, type: !145, scopeLine: 783, flags: DIFlagPublic | DIFlagPrototyped, spFlags: DISPFlagOptimized)
!152 = !DISubprogram(name: "mac_header", linkageName: "_ZNK14WritablePacket10mac_headerEv", scope: !141, file: !4, line: 784, type: !145, scopeLine: 784, flags: DIFlagPublic | DIFlagPrototyped, spFlags: DISPFlagOptimized)
!153 = !DISubprogram(name: "ether_header", linkageName: "_ZNK14WritablePacket12ether_headerEv", scope: !141, file: !4, line: 785, type: !154, scopeLine: 785, flags: DIFlagPublic | DIFlagPrototyped, spFlags: DISPFlagOptimized)
!154 = !DISubroutineType(types: !155)
!155 = !{!156, !147}
!156 = !DIDerivedType(tag: DW_TAG_pointer_type, baseType: !157, size: 64)
!157 = !DICompositeType(tag: DW_TAG_structure_type, name: "click_ether", file: !4, line: 24, flags: DIFlagFwdDecl, identifier: "_ZTS11click_ether")
!158 = !DISubprogram(name: "network_header", linkageName: "_ZNK14WritablePacket14network_headerEv", scope: !141, file: !4, line: 786, type: !145, scopeLine: 786, flags: DIFlagPublic | DIFlagPrototyped, spFlags: DISPFlagOptimized)
!159 = !DISubprogram(name: "ip_header", linkageName: "_ZNK14WritablePacket9ip_headerEv", scope: !141, file: !4, line: 787, type: !160, scopeLine: 787, flags: DIFlagPublic | DIFlagPrototyped, spFlags: DISPFlagOptimized)
!160 = !DISubroutineType(types: !161)
!161 = !{!162, !147}
!162 = !DIDerivedType(tag: DW_TAG_pointer_type, baseType: !163, size: 64)
!163 = distinct !DICompositeType(tag: DW_TAG_structure_type, name: "click_ip", file: !164, line: 23, size: 160, flags: DIFlagTypePassByValue, elements: !165, identifier: "_ZTS8click_ip")
!164 = !DIFile(filename: "../dummy_inc/clicknet/ip.h", directory: "/home/john/projects/click/ir-dir")
!165 = !{!166, !167, !168, !169, !170, !171, !172, !173, !174, !175, !181}
!166 = !DIDerivedType(tag: DW_TAG_member, name: "ip_hl", scope: !163, file: !164, line: 28, baseType: !16, size: 4, flags: DIFlagBitField, extraData: i64 0)
!167 = !DIDerivedType(tag: DW_TAG_member, name: "ip_v", scope: !163, file: !164, line: 29, baseType: !16, size: 4, offset: 4, flags: DIFlagBitField, extraData: i64 0)
!168 = !DIDerivedType(tag: DW_TAG_member, name: "ip_tos", scope: !163, file: !164, line: 33, baseType: !98, size: 8, offset: 8)
!169 = !DIDerivedType(tag: DW_TAG_member, name: "ip_len", scope: !163, file: !164, line: 40, baseType: !102, size: 16, offset: 16)
!170 = !DIDerivedType(tag: DW_TAG_member, name: "ip_id", scope: !163, file: !164, line: 41, baseType: !102, size: 16, offset: 32)
!171 = !DIDerivedType(tag: DW_TAG_member, name: "ip_off", scope: !163, file: !164, line: 42, baseType: !102, size: 16, offset: 48)
!172 = !DIDerivedType(tag: DW_TAG_member, name: "ip_ttl", scope: !163, file: !164, line: 47, baseType: !98, size: 8, offset: 64)
!173 = !DIDerivedType(tag: DW_TAG_member, name: "ip_p", scope: !163, file: !164, line: 48, baseType: !98, size: 8, offset: 72)
!174 = !DIDerivedType(tag: DW_TAG_member, name: "ip_sum", scope: !163, file: !164, line: 49, baseType: !102, size: 16, offset: 80)
!175 = !DIDerivedType(tag: DW_TAG_member, name: "ip_src", scope: !163, file: !164, line: 50, baseType: !176, size: 32, offset: 96)
!176 = distinct !DICompositeType(tag: DW_TAG_structure_type, name: "in_addr", file: !177, line: 31, size: 32, flags: DIFlagTypePassByValue, elements: !178, identifier: "_ZTS7in_addr")
!177 = !DIFile(filename: "/usr/include/netinet/in.h", directory: "")
!178 = !{!179}
!179 = !DIDerivedType(tag: DW_TAG_member, name: "s_addr", scope: !176, file: !177, line: 33, baseType: !180, size: 32)
!180 = !DIDerivedType(tag: DW_TAG_typedef, name: "in_addr_t", file: !177, line: 30, baseType: !12)
!181 = !DIDerivedType(tag: DW_TAG_member, name: "ip_dst", scope: !163, file: !164, line: 51, baseType: !176, size: 32, offset: 128)
!182 = !DISubprogram(name: "ip6_header", linkageName: "_ZNK14WritablePacket10ip6_headerEv", scope: !141, file: !4, line: 788, type: !183, scopeLine: 788, flags: DIFlagPublic | DIFlagPrototyped, spFlags: DISPFlagOptimized)
!183 = !DISubroutineType(types: !184)
!184 = !{!185, !147}
!185 = !DIDerivedType(tag: DW_TAG_pointer_type, baseType: !186, size: 64)
!186 = !DICompositeType(tag: DW_TAG_structure_type, name: "click_ip6", file: !4, line: 27, flags: DIFlagFwdDecl, identifier: "_ZTS9click_ip6")
!187 = !DISubprogram(name: "transport_header", linkageName: "_ZNK14WritablePacket16transport_headerEv", scope: !141, file: !4, line: 789, type: !145, scopeLine: 789, flags: DIFlagPublic | DIFlagPrototyped, spFlags: DISPFlagOptimized)
!188 = !DISubprogram(name: "icmp_header", linkageName: "_ZNK14WritablePacket11icmp_headerEv", scope: !141, file: !4, line: 790, type: !189, scopeLine: 790, flags: DIFlagPublic | DIFlagPrototyped, spFlags: DISPFlagOptimized)
!189 = !DISubroutineType(types: !190)
!190 = !{!191, !147}
!191 = !DIDerivedType(tag: DW_TAG_pointer_type, baseType: !192, size: 64)
!192 = !DICompositeType(tag: DW_TAG_structure_type, name: "click_icmp", file: !4, line: 26, flags: DIFlagFwdDecl, identifier: "_ZTS10click_icmp")
!193 = !DISubprogram(name: "tcp_header", linkageName: "_ZNK14WritablePacket10tcp_headerEv", scope: !141, file: !4, line: 791, type: !194, scopeLine: 791, flags: DIFlagPublic | DIFlagPrototyped, spFlags: DISPFlagOptimized)
!194 = !DISubroutineType(types: !195)
!195 = !{!196, !147}
!196 = !DIDerivedType(tag: DW_TAG_pointer_type, baseType: !197, size: 64)
!197 = !DICompositeType(tag: DW_TAG_structure_type, name: "click_tcp", file: !4, line: 28, flags: DIFlagFwdDecl, identifier: "_ZTS9click_tcp")
!198 = !DISubprogram(name: "udp_header", linkageName: "_ZNK14WritablePacket10udp_headerEv", scope: !141, file: !4, line: 792, type: !199, scopeLine: 792, flags: DIFlagPublic | DIFlagPrototyped, spFlags: DISPFlagOptimized)
!199 = !DISubroutineType(types: !200)
!200 = !{!201, !147}
!201 = !DIDerivedType(tag: DW_TAG_pointer_type, baseType: !202, size: 64)
!202 = !DICompositeType(tag: DW_TAG_structure_type, name: "click_udp", file: !4, line: 29, flags: DIFlagFwdDecl, identifier: "_ZTS9click_udp")
!203 = !DISubprogram(name: "buffer_data", linkageName: "_ZNK14WritablePacket11buffer_dataEv", scope: !141, file: !4, line: 795, type: !145, scopeLine: 795, flags: DIFlagPublic | DIFlagPrototyped, spFlags: DISPFlagOptimized)
!204 = !DISubprogram(name: "WritablePacket", scope: !141, file: !4, line: 800, type: !205, scopeLine: 800, flags: DIFlagPrototyped, spFlags: DISPFlagOptimized)
!205 = !DISubroutineType(types: !206)
!206 = !{null, !207}
!207 = !DIDerivedType(tag: DW_TAG_pointer_type, baseType: !141, size: 64, flags: DIFlagArtificial | DIFlagObjectPointer)
!208 = !DISubprogram(name: "initialize", linkageName: "_ZN14WritablePacket10initializeEv", scope: !141, file: !4, line: 802, type: !205, scopeLine: 802, flags: DIFlagPrototyped, spFlags: DISPFlagOptimized)
!209 = !DISubprogram(name: "WritablePacket", scope: !141, file: !4, line: 804, type: !210, scopeLine: 804, flags: DIFlagPrototyped, spFlags: DISPFlagOptimized)
!210 = !DISubroutineType(types: !211)
!211 = !{null, !207, !212}
!212 = !DIDerivedType(tag: DW_TAG_reference_type, baseType: !213, size: 64)
!213 = !DIDerivedType(tag: DW_TAG_const_type, baseType: !5)
!214 = !DISubprogram(name: "~WritablePacket", scope: !141, file: !4, line: 805, type: !205, scopeLine: 805, flags: DIFlagPrototyped, spFlags: DISPFlagOptimized)
!215 = !DISubprogram(name: "pool_allocate", linkageName: "_ZN14WritablePacket13pool_allocateEb", scope: !141, file: !4, line: 808, type: !216, scopeLine: 808, flags: DIFlagPrototyped | DIFlagStaticMember, spFlags: DISPFlagOptimized)
!216 = !DISubroutineType(types: !217)
!217 = !{!140, !53}
!218 = !DISubprogram(name: "pool_allocate", linkageName: "_ZN14WritablePacket13pool_allocateEjjj", scope: !141, file: !4, line: 809, type: !219, scopeLine: 809, flags: DIFlagPrototyped | DIFlagStaticMember, spFlags: DISPFlagOptimized)
!219 = !DISubroutineType(types: !220)
!220 = !{!140, !12, !12, !12}
!221 = !DISubprogram(name: "recycle", linkageName: "_ZN14WritablePacket7recycleEPS_", scope: !141, file: !4, line: 811, type: !222, scopeLine: 811, flags: DIFlagPrototyped | DIFlagStaticMember, spFlags: DISPFlagOptimized)
!222 = !DISubroutineType(types: !223)
!223 = !{null, !140}
!224 = !DIDerivedType(tag: DW_TAG_pointer_type, baseType: !225, size: 64)
!225 = !DIDerivedType(tag: DW_TAG_const_type, baseType: null)
!226 = !DISubprogram(name: "make", linkageName: "_ZN6Packet4makeEPKvj", scope: !5, file: !4, line: 54, type: !227, scopeLine: 54, flags: DIFlagPublic | DIFlagPrototyped | DIFlagStaticMember, spFlags: DISPFlagOptimized)
!227 = !DISubroutineType(types: !228)
!228 = !{!140, !224, !12}
!229 = !DISubprogram(name: "make", linkageName: "_ZN6Packet4makeEj", scope: !5, file: !4, line: 55, type: !230, scopeLine: 55, flags: DIFlagPublic | DIFlagPrototyped | DIFlagStaticMember, spFlags: DISPFlagOptimized)
!230 = !DISubroutineType(types: !231)
!231 = !{!140, !12}
!232 = !DISubprogram(name: "make", linkageName: "_ZN6Packet4makeEPhjPFvS0_mPvES1_ii", scope: !5, file: !4, line: 66, type: !233, scopeLine: 66, flags: DIFlagPublic | DIFlagPrototyped | DIFlagStaticMember, spFlags: DISPFlagOptimized)
!233 = !DISubroutineType(types: !234)
!234 = !{!140, !80, !12, !129, !135, !34, !34}
!235 = !DISubprogram(name: "static_cleanup", linkageName: "_ZN6Packet14static_cleanupEv", scope: !5, file: !4, line: 71, type: !236, scopeLine: 71, flags: DIFlagPublic | DIFlagPrototyped | DIFlagStaticMember, spFlags: DISPFlagOptimized)
!236 = !DISubroutineType(types: !237)
!237 = !{null}
!238 = !DISubprogram(name: "kill", linkageName: "_ZN6Packet4killEv", scope: !5, file: !4, line: 73, type: !239, scopeLine: 73, flags: DIFlagPublic | DIFlagPrototyped, spFlags: DISPFlagOptimized)
!239 = !DISubroutineType(types: !240)
!240 = !{null, !241}
!241 = !DIDerivedType(tag: DW_TAG_pointer_type, baseType: !5, size: 64, flags: DIFlagArtificial | DIFlagObjectPointer)
!242 = !DISubprogram(name: "shared", linkageName: "_ZNK6Packet6sharedEv", scope: !5, file: !4, line: 75, type: !243, scopeLine: 75, flags: DIFlagPublic | DIFlagPrototyped, spFlags: DISPFlagOptimized)
!243 = !DISubroutineType(types: !244)
!244 = !{!53, !245}
!245 = !DIDerivedType(tag: DW_TAG_pointer_type, baseType: !213, size: 64, flags: DIFlagArtificial | DIFlagObjectPointer)
!246 = !DISubprogram(name: "clone", linkageName: "_ZN6Packet5cloneEv", scope: !5, file: !4, line: 76, type: !247, scopeLine: 76, flags: DIFlagPublic | DIFlagPrototyped, spFlags: DISPFlagOptimized)
!247 = !DISubroutineType(types: !248)
!248 = !{!78, !241}
!249 = !DISubprogram(name: "uniqueify", linkageName: "_ZN6Packet9uniqueifyEv", scope: !5, file: !4, line: 77, type: !250, scopeLine: 77, flags: DIFlagPublic | DIFlagPrototyped, spFlags: DISPFlagOptimized)
!250 = !DISubroutineType(types: !251)
!251 = !{!140, !241}
!252 = !DISubprogram(name: "data", linkageName: "_ZNK6Packet4dataEv", scope: !5, file: !4, line: 79, type: !253, scopeLine: 79, flags: DIFlagPublic | DIFlagPrototyped, spFlags: DISPFlagOptimized)
!253 = !DISubroutineType(types: !254)
!254 = !{!255, !245}
!255 = !DIDerivedType(tag: DW_TAG_pointer_type, baseType: !256, size: 64)
!256 = !DIDerivedType(tag: DW_TAG_const_type, baseType: !81)
!257 = !DISubprogram(name: "end_data", linkageName: "_ZNK6Packet8end_dataEv", scope: !5, file: !4, line: 80, type: !253, scopeLine: 80, flags: DIFlagPublic | DIFlagPrototyped, spFlags: DISPFlagOptimized)
!258 = !DISubprogram(name: "length", linkageName: "_ZNK6Packet6lengthEv", scope: !5, file: !4, line: 81, type: !259, scopeLine: 81, flags: DIFlagPublic | DIFlagPrototyped, spFlags: DISPFlagOptimized)
!259 = !DISubroutineType(types: !260)
!260 = !{!12, !245}
!261 = !DISubprogram(name: "headroom", linkageName: "_ZNK6Packet8headroomEv", scope: !5, file: !4, line: 82, type: !259, scopeLine: 82, flags: DIFlagPublic | DIFlagPrototyped, spFlags: DISPFlagOptimized)
!262 = !DISubprogram(name: "tailroom", linkageName: "_ZNK6Packet8tailroomEv", scope: !5, file: !4, line: 83, type: !259, scopeLine: 83, flags: DIFlagPublic | DIFlagPrototyped, spFlags: DISPFlagOptimized)
!263 = !DISubprogram(name: "buffer", linkageName: "_ZNK6Packet6bufferEv", scope: !5, file: !4, line: 84, type: !253, scopeLine: 84, flags: DIFlagPublic | DIFlagPrototyped, spFlags: DISPFlagOptimized)
!264 = !DISubprogram(name: "end_buffer", linkageName: "_ZNK6Packet10end_bufferEv", scope: !5, file: !4, line: 85, type: !253, scopeLine: 85, flags: DIFlagPublic | DIFlagPrototyped, spFlags: DISPFlagOptimized)
!265 = !DISubprogram(name: "buffer_length", linkageName: "_ZNK6Packet13buffer_lengthEv", scope: !5, file: !4, line: 86, type: !259, scopeLine: 86, flags: DIFlagPublic | DIFlagPrototyped, spFlags: DISPFlagOptimized)
!266 = !DISubprogram(name: "buffer_destructor", linkageName: "_ZNK6Packet17buffer_destructorEv", scope: !5, file: !4, line: 97, type: !267, scopeLine: 97, flags: DIFlagPublic | DIFlagPrototyped, spFlags: DISPFlagOptimized)
!267 = !DISubroutineType(types: !268)
!268 = !{!129, !245}
!269 = !DISubprogram(name: "set_buffer_destructor", linkageName: "_ZN6Packet21set_buffer_destructorEPFvPhmPvE", scope: !5, file: !4, line: 101, type: !270, scopeLine: 101, flags: DIFlagPublic | DIFlagPrototyped, spFlags: DISPFlagOptimized)
!270 = !DISubroutineType(types: !271)
!271 = !{null, !241, !129}
!272 = !DISubprogram(name: "destructor_argument", linkageName: "_ZN6Packet19destructor_argumentEv", scope: !5, file: !4, line: 105, type: !273, scopeLine: 105, flags: DIFlagPublic | DIFlagPrototyped, spFlags: DISPFlagOptimized)
!273 = !DISubroutineType(types: !274)
!274 = !{!135, !241}
!275 = !DISubprogram(name: "reset_buffer", linkageName: "_ZN6Packet12reset_bufferEv", scope: !5, file: !4, line: 109, type: !239, scopeLine: 109, flags: DIFlagPublic | DIFlagPrototyped, spFlags: DISPFlagOptimized)
!276 = !DISubprogram(name: "push", linkageName: "_ZN6Packet4pushEj", scope: !5, file: !4, line: 141, type: !277, scopeLine: 141, flags: DIFlagPublic | DIFlagPrototyped, spFlags: DISPFlagOptimized)
!277 = !DISubroutineType(types: !278)
!278 = !{!140, !241, !12}
!279 = !DISubprogram(name: "push_mac_header", linkageName: "_ZN6Packet15push_mac_headerEj", scope: !5, file: !4, line: 152, type: !277, scopeLine: 152, flags: DIFlagPublic | DIFlagPrototyped, spFlags: DISPFlagOptimized)
!280 = !DISubprogram(name: "nonunique_push", linkageName: "_ZN6Packet14nonunique_pushEj", scope: !5, file: !4, line: 171, type: !281, scopeLine: 171, flags: DIFlagPublic | DIFlagPrototyped, spFlags: DISPFlagOptimized)
!281 = !DISubroutineType(types: !282)
!282 = !{!78, !241, !12}
!283 = !DISubprogram(name: "pull", linkageName: "_ZN6Packet4pullEj", scope: !5, file: !4, line: 187, type: !284, scopeLine: 187, flags: DIFlagPublic | DIFlagPrototyped, spFlags: DISPFlagOptimized)
!284 = !DISubroutineType(types: !285)
!285 = !{null, !241, !12}
!286 = !DISubprogram(name: "put", linkageName: "_ZN6Packet3putEj", scope: !5, file: !4, line: 213, type: !277, scopeLine: 213, flags: DIFlagPublic | DIFlagPrototyped, spFlags: DISPFlagOptimized)
!287 = !DISubprogram(name: "nonunique_put", linkageName: "_ZN6Packet13nonunique_putEj", scope: !5, file: !4, line: 230, type: !281, scopeLine: 230, flags: DIFlagPublic | DIFlagPrototyped, spFlags: DISPFlagOptimized)
!288 = !DISubprogram(name: "take", linkageName: "_ZN6Packet4takeEj", scope: !5, file: !4, line: 245, type: !284, scopeLine: 245, flags: DIFlagPublic | DIFlagPrototyped, spFlags: DISPFlagOptimized)
!289 = !DISubprogram(name: "shift_data", linkageName: "_ZN6Packet10shift_dataEib", scope: !5, file: !4, line: 269, type: !290, scopeLine: 269, flags: DIFlagPublic | DIFlagPrototyped, spFlags: DISPFlagOptimized)
!290 = !DISubroutineType(types: !291)
!291 = !{!78, !241, !34, !53}
!292 = !DISubprogram(name: "shrink_data", linkageName: "_ZN6Packet11shrink_dataEPKhj", scope: !5, file: !4, line: 271, type: !293, scopeLine: 271, flags: DIFlagPublic | DIFlagPrototyped, spFlags: DISPFlagOptimized)
!293 = !DISubroutineType(types: !294)
!294 = !{null, !241, !255, !12}
!295 = !DISubprogram(name: "change_headroom_and_length", linkageName: "_ZN6Packet26change_headroom_and_lengthEjj", scope: !5, file: !4, line: 272, type: !296, scopeLine: 272, flags: DIFlagPublic | DIFlagPrototyped, spFlags: DISPFlagOptimized)
!296 = !DISubroutineType(types: !297)
!297 = !{null, !241, !12, !12}
!298 = !DISubprogram(name: "copy", linkageName: "_ZN6Packet4copyEPS_i", scope: !5, file: !4, line: 274, type: !299, scopeLine: 274, flags: DIFlagPublic | DIFlagPrototyped, spFlags: DISPFlagOptimized)
!299 = !DISubroutineType(types: !300)
!300 = !{!53, !241, !78, !34}
!301 = !DISubprogram(name: "has_mac_header", linkageName: "_ZNK6Packet14has_mac_headerEv", scope: !5, file: !4, line: 279, type: !243, scopeLine: 279, flags: DIFlagPublic | DIFlagPrototyped, spFlags: DISPFlagOptimized)
!302 = !DISubprogram(name: "mac_header", linkageName: "_ZNK6Packet10mac_headerEv", scope: !5, file: !4, line: 280, type: !253, scopeLine: 280, flags: DIFlagPublic | DIFlagPrototyped, spFlags: DISPFlagOptimized)
!303 = !DISubprogram(name: "mac_header_offset", linkageName: "_ZNK6Packet17mac_header_offsetEv", scope: !5, file: !4, line: 281, type: !304, scopeLine: 281, flags: DIFlagPublic | DIFlagPrototyped, spFlags: DISPFlagOptimized)
!304 = !DISubroutineType(types: !305)
!305 = !{!34, !245}
!306 = !DISubprogram(name: "mac_header_length", linkageName: "_ZNK6Packet17mac_header_lengthEv", scope: !5, file: !4, line: 282, type: !259, scopeLine: 282, flags: DIFlagPublic | DIFlagPrototyped, spFlags: DISPFlagOptimized)
!307 = !DISubprogram(name: "mac_length", linkageName: "_ZNK6Packet10mac_lengthEv", scope: !5, file: !4, line: 283, type: !304, scopeLine: 283, flags: DIFlagPublic | DIFlagPrototyped, spFlags: DISPFlagOptimized)
!308 = !DISubprogram(name: "set_mac_header", linkageName: "_ZN6Packet14set_mac_headerEPKh", scope: !5, file: !4, line: 284, type: !309, scopeLine: 284, flags: DIFlagPublic | DIFlagPrototyped, spFlags: DISPFlagOptimized)
!309 = !DISubroutineType(types: !310)
!310 = !{null, !241, !255}
!311 = !DISubprogram(name: "set_mac_header", linkageName: "_ZN6Packet14set_mac_headerEPKhj", scope: !5, file: !4, line: 285, type: !293, scopeLine: 285, flags: DIFlagPublic | DIFlagPrototyped, spFlags: DISPFlagOptimized)
!312 = !DISubprogram(name: "clear_mac_header", linkageName: "_ZN6Packet16clear_mac_headerEv", scope: !5, file: !4, line: 286, type: !239, scopeLine: 286, flags: DIFlagPublic | DIFlagPrototyped, spFlags: DISPFlagOptimized)
!313 = !DISubprogram(name: "has_network_header", linkageName: "_ZNK6Packet18has_network_headerEv", scope: !5, file: !4, line: 288, type: !243, scopeLine: 288, flags: DIFlagPublic | DIFlagPrototyped, spFlags: DISPFlagOptimized)
!314 = !DISubprogram(name: "network_header", linkageName: "_ZNK6Packet14network_headerEv", scope: !5, file: !4, line: 289, type: !253, scopeLine: 289, flags: DIFlagPublic | DIFlagPrototyped, spFlags: DISPFlagOptimized)
!315 = !DISubprogram(name: "network_header_offset", linkageName: "_ZNK6Packet21network_header_offsetEv", scope: !5, file: !4, line: 290, type: !304, scopeLine: 290, flags: DIFlagPublic | DIFlagPrototyped, spFlags: DISPFlagOptimized)
!316 = !DISubprogram(name: "network_header_length", linkageName: "_ZNK6Packet21network_header_lengthEv", scope: !5, file: !4, line: 291, type: !259, scopeLine: 291, flags: DIFlagPublic | DIFlagPrototyped, spFlags: DISPFlagOptimized)
!317 = !DISubprogram(name: "network_length", linkageName: "_ZNK6Packet14network_lengthEv", scope: !5, file: !4, line: 292, type: !304, scopeLine: 292, flags: DIFlagPublic | DIFlagPrototyped, spFlags: DISPFlagOptimized)
!318 = !DISubprogram(name: "set_network_header", linkageName: "_ZN6Packet18set_network_headerEPKhj", scope: !5, file: !4, line: 293, type: !293, scopeLine: 293, flags: DIFlagPublic | DIFlagPrototyped, spFlags: DISPFlagOptimized)
!319 = !DISubprogram(name: "set_network_header_length", linkageName: "_ZN6Packet25set_network_header_lengthEj", scope: !5, file: !4, line: 294, type: !284, scopeLine: 294, flags: DIFlagPublic | DIFlagPrototyped, spFlags: DISPFlagOptimized)
!320 = !DISubprogram(name: "clear_network_header", linkageName: "_ZN6Packet20clear_network_headerEv", scope: !5, file: !4, line: 295, type: !239, scopeLine: 295, flags: DIFlagPublic | DIFlagPrototyped, spFlags: DISPFlagOptimized)
!321 = !DISubprogram(name: "has_transport_header", linkageName: "_ZNK6Packet20has_transport_headerEv", scope: !5, file: !4, line: 297, type: !243, scopeLine: 297, flags: DIFlagPublic | DIFlagPrototyped, spFlags: DISPFlagOptimized)
!322 = !DISubprogram(name: "transport_header", linkageName: "_ZNK6Packet16transport_headerEv", scope: !5, file: !4, line: 298, type: !253, scopeLine: 298, flags: DIFlagPublic | DIFlagPrototyped, spFlags: DISPFlagOptimized)
!323 = !DISubprogram(name: "transport_header_offset", linkageName: "_ZNK6Packet23transport_header_offsetEv", scope: !5, file: !4, line: 299, type: !304, scopeLine: 299, flags: DIFlagPublic | DIFlagPrototyped, spFlags: DISPFlagOptimized)
!324 = !DISubprogram(name: "transport_length", linkageName: "_ZNK6Packet16transport_lengthEv", scope: !5, file: !4, line: 300, type: !304, scopeLine: 300, flags: DIFlagPublic | DIFlagPrototyped, spFlags: DISPFlagOptimized)
!325 = !DISubprogram(name: "clear_transport_header", linkageName: "_ZN6Packet22clear_transport_headerEv", scope: !5, file: !4, line: 301, type: !239, scopeLine: 301, flags: DIFlagPublic | DIFlagPrototyped, spFlags: DISPFlagOptimized)
!326 = !DISubprogram(name: "ether_header", linkageName: "_ZNK6Packet12ether_headerEv", scope: !5, file: !4, line: 304, type: !327, scopeLine: 304, flags: DIFlagPublic | DIFlagPrototyped, spFlags: DISPFlagOptimized)
!327 = !DISubroutineType(types: !328)
!328 = !{!329, !245}
!329 = !DIDerivedType(tag: DW_TAG_pointer_type, baseType: !330, size: 64)
!330 = !DIDerivedType(tag: DW_TAG_const_type, baseType: !157)
!331 = !DISubprogram(name: "set_ether_header", linkageName: "_ZN6Packet16set_ether_headerEPK11click_ether", scope: !5, file: !4, line: 305, type: !332, scopeLine: 305, flags: DIFlagPublic | DIFlagPrototyped, spFlags: DISPFlagOptimized)
!332 = !DISubroutineType(types: !333)
!333 = !{null, !241, !329}
!334 = !DISubprogram(name: "ip_header", linkageName: "_ZNK6Packet9ip_headerEv", scope: !5, file: !4, line: 307, type: !335, scopeLine: 307, flags: DIFlagPublic | DIFlagPrototyped, spFlags: DISPFlagOptimized)
!335 = !DISubroutineType(types: !336)
!336 = !{!337, !245}
!337 = !DIDerivedType(tag: DW_TAG_pointer_type, baseType: !338, size: 64)
!338 = !DIDerivedType(tag: DW_TAG_const_type, baseType: !163)
!339 = !DISubprogram(name: "ip_header_offset", linkageName: "_ZNK6Packet16ip_header_offsetEv", scope: !5, file: !4, line: 308, type: !304, scopeLine: 308, flags: DIFlagPublic | DIFlagPrototyped, spFlags: DISPFlagOptimized)
!340 = !DISubprogram(name: "ip_header_length", linkageName: "_ZNK6Packet16ip_header_lengthEv", scope: !5, file: !4, line: 309, type: !259, scopeLine: 309, flags: DIFlagPublic | DIFlagPrototyped, spFlags: DISPFlagOptimized)
!341 = !DISubprogram(name: "set_ip_header", linkageName: "_ZN6Packet13set_ip_headerEPK8click_ipj", scope: !5, file: !4, line: 310, type: !342, scopeLine: 310, flags: DIFlagPublic | DIFlagPrototyped, spFlags: DISPFlagOptimized)
!342 = !DISubroutineType(types: !343)
!343 = !{null, !241, !337, !12}
!344 = !DISubprogram(name: "ip6_header", linkageName: "_ZNK6Packet10ip6_headerEv", scope: !5, file: !4, line: 312, type: !345, scopeLine: 312, flags: DIFlagPublic | DIFlagPrototyped, spFlags: DISPFlagOptimized)
!345 = !DISubroutineType(types: !346)
!346 = !{!347, !245}
!347 = !DIDerivedType(tag: DW_TAG_pointer_type, baseType: !348, size: 64)
!348 = !DIDerivedType(tag: DW_TAG_const_type, baseType: !186)
!349 = !DISubprogram(name: "ip6_header_offset", linkageName: "_ZNK6Packet17ip6_header_offsetEv", scope: !5, file: !4, line: 313, type: !304, scopeLine: 313, flags: DIFlagPublic | DIFlagPrototyped, spFlags: DISPFlagOptimized)
!350 = !DISubprogram(name: "ip6_header_length", linkageName: "_ZNK6Packet17ip6_header_lengthEv", scope: !5, file: !4, line: 314, type: !259, scopeLine: 314, flags: DIFlagPublic | DIFlagPrototyped, spFlags: DISPFlagOptimized)
!351 = !DISubprogram(name: "set_ip6_header", linkageName: "_ZN6Packet14set_ip6_headerEPK9click_ip6", scope: !5, file: !4, line: 315, type: !352, scopeLine: 315, flags: DIFlagPublic | DIFlagPrototyped, spFlags: DISPFlagOptimized)
!352 = !DISubroutineType(types: !353)
!353 = !{null, !241, !347}
!354 = !DISubprogram(name: "set_ip6_header", linkageName: "_ZN6Packet14set_ip6_headerEPK9click_ip6j", scope: !5, file: !4, line: 316, type: !355, scopeLine: 316, flags: DIFlagPublic | DIFlagPrototyped, spFlags: DISPFlagOptimized)
!355 = !DISubroutineType(types: !356)
!356 = !{null, !241, !347, !12}
!357 = !DISubprogram(name: "icmp_header", linkageName: "_ZNK6Packet11icmp_headerEv", scope: !5, file: !4, line: 318, type: !358, scopeLine: 318, flags: DIFlagPublic | DIFlagPrototyped, spFlags: DISPFlagOptimized)
!358 = !DISubroutineType(types: !359)
!359 = !{!360, !245}
!360 = !DIDerivedType(tag: DW_TAG_pointer_type, baseType: !361, size: 64)
!361 = !DIDerivedType(tag: DW_TAG_const_type, baseType: !192)
!362 = !DISubprogram(name: "tcp_header", linkageName: "_ZNK6Packet10tcp_headerEv", scope: !5, file: !4, line: 319, type: !363, scopeLine: 319, flags: DIFlagPublic | DIFlagPrototyped, spFlags: DISPFlagOptimized)
!363 = !DISubroutineType(types: !364)
!364 = !{!365, !245}
!365 = !DIDerivedType(tag: DW_TAG_pointer_type, baseType: !366, size: 64)
!366 = !DIDerivedType(tag: DW_TAG_const_type, baseType: !197)
!367 = !DISubprogram(name: "udp_header", linkageName: "_ZNK6Packet10udp_headerEv", scope: !5, file: !4, line: 320, type: !368, scopeLine: 320, flags: DIFlagPublic | DIFlagPrototyped, spFlags: DISPFlagOptimized)
!368 = !DISubroutineType(types: !369)
!369 = !{!370, !245}
!370 = !DIDerivedType(tag: DW_TAG_pointer_type, baseType: !371, size: 64)
!371 = !DIDerivedType(tag: DW_TAG_const_type, baseType: !202)
!372 = !DISubprogram(name: "xanno", linkageName: "_ZNK6Packet5xannoEv", scope: !5, file: !4, line: 340, type: !373, scopeLine: 340, flags: DIFlagPrototyped, spFlags: DISPFlagOptimized)
!373 = !DISubroutineType(types: !374)
!374 = !{!375, !245}
!375 = !DIDerivedType(tag: DW_TAG_pointer_type, baseType: !376, size: 64)
!376 = !DIDerivedType(tag: DW_TAG_const_type, baseType: !89)
!377 = !DISubprogram(name: "xanno", linkageName: "_ZN6Packet5xannoEv", scope: !5, file: !4, line: 341, type: !378, scopeLine: 341, flags: DIFlagPrototyped, spFlags: DISPFlagOptimized)
!378 = !DISubroutineType(types: !379)
!379 = !{!380, !241}
!380 = !DIDerivedType(tag: DW_TAG_pointer_type, baseType: !89, size: 64)
!381 = !DISubprogram(name: "timestamp_anno", linkageName: "_ZNK6Packet14timestamp_annoEv", scope: !5, file: !4, line: 354, type: !382, scopeLine: 354, flags: DIFlagPublic | DIFlagPrototyped, spFlags: DISPFlagOptimized)
!382 = !DISubroutineType(types: !383)
!383 = !{!384, !245}
!384 = !DIDerivedType(tag: DW_TAG_reference_type, baseType: !385, size: 64)
!385 = !DIDerivedType(tag: DW_TAG_const_type, baseType: !386)
!386 = distinct !DICompositeType(tag: DW_TAG_class_type, name: "Timestamp", file: !387, line: 122, size: 64, flags: DIFlagTypePassByValue | DIFlagNonTrivial, elements: !388, identifier: "_ZTS9Timestamp")
!387 = !DIFile(filename: "../dummy_inc/click/timestamp.hh", directory: "/home/john/projects/click/ir-dir")
!388 = !{!389, !396, !400, !403, !406, !409, !412, !416, !428, !439, !444, !453, !462, !465, !466, !469, !470, !471, !472, !475, !478, !479, !480, !481, !484, !485, !488, !491, !495, !496, !497, !500, !501, !502, !507, !511, !514, !517, !520, !523, !524, !525, !526, !527, !530, !531, !534, !535, !536, !537, !538, !539, !540, !543, !544, !545, !546, !547, !548, !549, !550, !551, !841, !842, !845, !846, !847, !848, !849, !850, !851, !854, !863, !866, !867, !870, !873, !874, !875, !876, !877, !878, !879, !882, !886, !889, !892, !895}
!389 = !DIDerivedType(tag: DW_TAG_member, name: "_t", scope: !386, file: !387, line: 672, baseType: !390, size: 64)
!390 = distinct !DICompositeType(tag: DW_TAG_union_type, name: "rep_t", scope: !386, file: !387, line: 539, size: 64, flags: DIFlagTypePassByValue, elements: !391, identifier: "_ZTSN9Timestamp5rep_tE")
!391 = !{!392}
!392 = !DIDerivedType(tag: DW_TAG_member, name: "x", scope: !390, file: !387, line: 541, baseType: !393, size: 64)
!393 = !DIDerivedType(tag: DW_TAG_typedef, name: "int64_t", file: !32, line: 27, baseType: !394)
!394 = !DIDerivedType(tag: DW_TAG_typedef, name: "__int64_t", file: !15, line: 44, baseType: !395)
!395 = !DIBasicType(name: "long int", size: 64, encoding: DW_ATE_signed)
!396 = !DISubprogram(name: "Timestamp", scope: !386, file: !387, line: 174, type: !397, scopeLine: 174, flags: DIFlagPublic | DIFlagPrototyped, spFlags: DISPFlagOptimized)
!397 = !DISubroutineType(types: !398)
!398 = !{null, !399}
!399 = !DIDerivedType(tag: DW_TAG_pointer_type, baseType: !386, size: 64, flags: DIFlagArtificial | DIFlagObjectPointer)
!400 = !DISubprogram(name: "Timestamp", scope: !386, file: !387, line: 187, type: !401, scopeLine: 187, flags: DIFlagPublic | DIFlagExplicit | DIFlagPrototyped, spFlags: DISPFlagOptimized)
!401 = !DISubroutineType(types: !402)
!402 = !{null, !399, !395, !12}
!403 = !DISubprogram(name: "Timestamp", scope: !386, file: !387, line: 191, type: !404, scopeLine: 191, flags: DIFlagPublic | DIFlagExplicit | DIFlagPrototyped, spFlags: DISPFlagOptimized)
!404 = !DISubroutineType(types: !405)
!405 = !{null, !399, !34, !12}
!406 = !DISubprogram(name: "Timestamp", scope: !386, file: !387, line: 195, type: !407, scopeLine: 195, flags: DIFlagPublic | DIFlagExplicit | DIFlagPrototyped, spFlags: DISPFlagOptimized)
!407 = !DISubroutineType(types: !408)
!408 = !{null, !399, !115, !12}
!409 = !DISubprogram(name: "Timestamp", scope: !386, file: !387, line: 199, type: !410, scopeLine: 199, flags: DIFlagPublic | DIFlagExplicit | DIFlagPrototyped, spFlags: DISPFlagOptimized)
!410 = !DISubroutineType(types: !411)
!411 = !{null, !399, !16, !12}
!412 = !DISubprogram(name: "Timestamp", scope: !386, file: !387, line: 203, type: !413, scopeLine: 203, flags: DIFlagPublic | DIFlagExplicit | DIFlagPrototyped, spFlags: DISPFlagOptimized)
!413 = !DISubroutineType(types: !414)
!414 = !{null, !399, !415}
!415 = !DIBasicType(name: "double", size: 64, encoding: DW_ATE_float)
!416 = !DISubprogram(name: "Timestamp", scope: !386, file: !387, line: 206, type: !417, scopeLine: 206, flags: DIFlagPublic | DIFlagPrototyped, spFlags: DISPFlagOptimized)
!417 = !DISubroutineType(types: !418)
!418 = !{null, !399, !419}
!419 = !DIDerivedType(tag: DW_TAG_reference_type, baseType: !420, size: 64)
!420 = !DIDerivedType(tag: DW_TAG_const_type, baseType: !421)
!421 = distinct !DICompositeType(tag: DW_TAG_structure_type, name: "timeval", file: !422, line: 8, size: 128, flags: DIFlagTypePassByValue, elements: !423, identifier: "_ZTS7timeval")
!422 = !DIFile(filename: "/usr/include/bits/types/struct_timeval.h", directory: "")
!423 = !{!424, !426}
!424 = !DIDerivedType(tag: DW_TAG_member, name: "tv_sec", scope: !421, file: !422, line: 10, baseType: !425, size: 64)
!425 = !DIDerivedType(tag: DW_TAG_typedef, name: "__time_t", file: !15, line: 160, baseType: !395)
!426 = !DIDerivedType(tag: DW_TAG_member, name: "tv_usec", scope: !421, file: !422, line: 11, baseType: !427, size: 64, offset: 64)
!427 = !DIDerivedType(tag: DW_TAG_typedef, name: "__suseconds_t", file: !15, line: 162, baseType: !395)
!428 = !DISubprogram(name: "Timestamp", scope: !386, file: !387, line: 208, type: !429, scopeLine: 208, flags: DIFlagPublic | DIFlagPrototyped, spFlags: DISPFlagOptimized)
!429 = !DISubroutineType(types: !430)
!430 = !{null, !399, !431}
!431 = !DIDerivedType(tag: DW_TAG_reference_type, baseType: !432, size: 64)
!432 = !DIDerivedType(tag: DW_TAG_const_type, baseType: !433)
!433 = distinct !DICompositeType(tag: DW_TAG_structure_type, name: "timespec", file: !434, line: 10, size: 128, flags: DIFlagTypePassByValue, elements: !435, identifier: "_ZTS8timespec")
!434 = !DIFile(filename: "/usr/include/bits/types/struct_timespec.h", directory: "")
!435 = !{!436, !437}
!436 = !DIDerivedType(tag: DW_TAG_member, name: "tv_sec", scope: !433, file: !434, line: 12, baseType: !425, size: 64)
!437 = !DIDerivedType(tag: DW_TAG_member, name: "tv_nsec", scope: !433, file: !434, line: 16, baseType: !438, size: 64, offset: 64)
!438 = !DIDerivedType(tag: DW_TAG_typedef, name: "__syscall_slong_t", file: !15, line: 196, baseType: !395)
!439 = !DISubprogram(name: "Timestamp", scope: !386, file: !387, line: 212, type: !440, scopeLine: 212, flags: DIFlagPublic | DIFlagPrototyped, spFlags: DISPFlagOptimized)
!440 = !DISubroutineType(types: !441)
!441 = !{null, !399, !442}
!442 = !DIDerivedType(tag: DW_TAG_reference_type, baseType: !443, size: 64)
!443 = !DIDerivedType(tag: DW_TAG_const_type, baseType: !390)
!444 = !DISubprogram(name: "Timestamp", scope: !386, file: !387, line: 217, type: !445, scopeLine: 217, flags: DIFlagPublic | DIFlagPrototyped, spFlags: DISPFlagOptimized)
!445 = !DISubroutineType(types: !446)
!446 = !{null, !399, !447}
!447 = !DIDerivedType(tag: DW_TAG_reference_type, baseType: !448, size: 64)
!448 = !DIDerivedType(tag: DW_TAG_const_type, baseType: !449)
!449 = !DIDerivedType(tag: DW_TAG_typedef, name: "uninitialized_t", scope: !386, file: !387, line: 168, baseType: !450)
!450 = distinct !DICompositeType(tag: DW_TAG_structure_type, name: "uninitialized_type", file: !451, line: 317, size: 8, flags: DIFlagTypePassByValue, elements: !452, identifier: "_ZTS18uninitialized_type")
!451 = !DIFile(filename: "../dummy_inc/click/config.h", directory: "/home/john/projects/click/ir-dir")
!452 = !{}
!453 = !DISubprogram(name: "operator int (Timestamp::*)() const", linkageName: "_ZNK9TimestampcvMS_KFivEEv", scope: !386, file: !387, line: 222, type: !454, scopeLine: 222, flags: DIFlagPublic | DIFlagPrototyped, spFlags: DISPFlagOptimized)
!454 = !DISubroutineType(types: !455)
!455 = !{!456, !461}
!456 = !DIDerivedType(tag: DW_TAG_typedef, name: "unspecified_bool_type", scope: !386, file: !387, line: 221, baseType: !457)
!457 = !DIDerivedType(tag: DW_TAG_ptr_to_member_type, baseType: !458, size: 128, extraData: !386)
!458 = !DISubroutineType(types: !459)
!459 = !{!460, !461}
!460 = !DIDerivedType(tag: DW_TAG_typedef, name: "seconds_type", scope: !386, file: !387, line: 125, baseType: !31)
!461 = !DIDerivedType(tag: DW_TAG_pointer_type, baseType: !385, size: 64, flags: DIFlagArtificial | DIFlagObjectPointer)
!462 = !DISubprogram(name: "is_negative", linkageName: "_ZNK9Timestamp11is_negativeEv", scope: !386, file: !387, line: 225, type: !463, scopeLine: 225, flags: DIFlagPublic | DIFlagPrototyped, spFlags: DISPFlagOptimized)
!463 = !DISubroutineType(types: !464)
!464 = !{!53, !461}
!465 = !DISubprogram(name: "sec", linkageName: "_ZNK9Timestamp3secEv", scope: !386, file: !387, line: 233, type: !458, scopeLine: 233, flags: DIFlagPublic | DIFlagPrototyped, spFlags: DISPFlagOptimized)
!466 = !DISubprogram(name: "subsec", linkageName: "_ZNK9Timestamp6subsecEv", scope: !386, file: !387, line: 234, type: !467, scopeLine: 234, flags: DIFlagPublic | DIFlagPrototyped, spFlags: DISPFlagOptimized)
!467 = !DISubroutineType(types: !468)
!468 = !{!12, !461}
!469 = !DISubprogram(name: "msec", linkageName: "_ZNK9Timestamp4msecEv", scope: !386, file: !387, line: 235, type: !467, scopeLine: 235, flags: DIFlagPublic | DIFlagPrototyped, spFlags: DISPFlagOptimized)
!470 = !DISubprogram(name: "usec", linkageName: "_ZNK9Timestamp4usecEv", scope: !386, file: !387, line: 236, type: !467, scopeLine: 236, flags: DIFlagPublic | DIFlagPrototyped, spFlags: DISPFlagOptimized)
!471 = !DISubprogram(name: "nsec", linkageName: "_ZNK9Timestamp4nsecEv", scope: !386, file: !387, line: 237, type: !467, scopeLine: 237, flags: DIFlagPublic | DIFlagPrototyped, spFlags: DISPFlagOptimized)
!472 = !DISubprogram(name: "set_sec", linkageName: "_ZN9Timestamp7set_secEi", scope: !386, file: !387, line: 239, type: !473, scopeLine: 239, flags: DIFlagPublic | DIFlagPrototyped, spFlags: DISPFlagOptimized)
!473 = !DISubroutineType(types: !474)
!474 = !{null, !399, !460}
!475 = !DISubprogram(name: "set_subsec", linkageName: "_ZN9Timestamp10set_subsecEj", scope: !386, file: !387, line: 240, type: !476, scopeLine: 240, flags: DIFlagPublic | DIFlagPrototyped, spFlags: DISPFlagOptimized)
!476 = !DISubroutineType(types: !477)
!477 = !{null, !399, !12}
!478 = !DISubprogram(name: "msec1", linkageName: "_ZNK9Timestamp5msec1Ev", scope: !386, file: !387, line: 242, type: !458, scopeLine: 242, flags: DIFlagPublic | DIFlagPrototyped, spFlags: DISPFlagOptimized)
!479 = !DISubprogram(name: "usec1", linkageName: "_ZNK9Timestamp5usec1Ev", scope: !386, file: !387, line: 243, type: !458, scopeLine: 243, flags: DIFlagPublic | DIFlagPrototyped, spFlags: DISPFlagOptimized)
!480 = !DISubprogram(name: "nsec1", linkageName: "_ZNK9Timestamp5nsec1Ev", scope: !386, file: !387, line: 244, type: !458, scopeLine: 244, flags: DIFlagPublic | DIFlagPrototyped, spFlags: DISPFlagOptimized)
!481 = !DISubprogram(name: "timeval", linkageName: "_ZNK9Timestamp7timevalEv", scope: !386, file: !387, line: 250, type: !482, scopeLine: 250, flags: DIFlagPublic | DIFlagPrototyped, spFlags: DISPFlagOptimized)
!482 = !DISubroutineType(types: !483)
!483 = !{!421, !461}
!484 = !DISubprogram(name: "timeval_ceil", linkageName: "_ZNK9Timestamp12timeval_ceilEv", scope: !386, file: !387, line: 251, type: !482, scopeLine: 251, flags: DIFlagPublic | DIFlagPrototyped, spFlags: DISPFlagOptimized)
!485 = !DISubprogram(name: "timespec", linkageName: "_ZNK9Timestamp8timespecEv", scope: !386, file: !387, line: 257, type: !486, scopeLine: 257, flags: DIFlagPublic | DIFlagPrototyped, spFlags: DISPFlagOptimized)
!486 = !DISubroutineType(types: !487)
!487 = !{!433, !461}
!488 = !DISubprogram(name: "doubleval", linkageName: "_ZNK9Timestamp9doublevalEv", scope: !386, file: !387, line: 262, type: !489, scopeLine: 262, flags: DIFlagPublic | DIFlagPrototyped, spFlags: DISPFlagOptimized)
!489 = !DISubroutineType(types: !490)
!490 = !{!415, !461}
!491 = !DISubprogram(name: "msecval", linkageName: "_ZNK9Timestamp7msecvalEv", scope: !386, file: !387, line: 265, type: !492, scopeLine: 265, flags: DIFlagPublic | DIFlagPrototyped, spFlags: DISPFlagOptimized)
!492 = !DISubroutineType(types: !493)
!493 = !{!494, !461}
!494 = !DIDerivedType(tag: DW_TAG_typedef, name: "value_type", scope: !386, file: !387, line: 128, baseType: !393)
!495 = !DISubprogram(name: "usecval", linkageName: "_ZNK9Timestamp7usecvalEv", scope: !386, file: !387, line: 273, type: !492, scopeLine: 273, flags: DIFlagPublic | DIFlagPrototyped, spFlags: DISPFlagOptimized)
!496 = !DISubprogram(name: "nsecval", linkageName: "_ZNK9Timestamp7nsecvalEv", scope: !386, file: !387, line: 281, type: !492, scopeLine: 281, flags: DIFlagPublic | DIFlagPrototyped, spFlags: DISPFlagOptimized)
!497 = !DISubprogram(name: "msec_ceil", linkageName: "_ZNK9Timestamp9msec_ceilEv", scope: !386, file: !387, line: 290, type: !498, scopeLine: 290, flags: DIFlagPublic | DIFlagPrototyped, spFlags: DISPFlagOptimized)
!498 = !DISubroutineType(types: !499)
!499 = !{!386, !461}
!500 = !DISubprogram(name: "usec_ceil", linkageName: "_ZNK9Timestamp9usec_ceilEv", scope: !386, file: !387, line: 295, type: !498, scopeLine: 295, flags: DIFlagPublic | DIFlagPrototyped, spFlags: DISPFlagOptimized)
!501 = !DISubprogram(name: "nsec_ceil", linkageName: "_ZNK9Timestamp9nsec_ceilEv", scope: !386, file: !387, line: 304, type: !498, scopeLine: 304, flags: DIFlagPublic | DIFlagPrototyped, spFlags: DISPFlagOptimized)
!502 = !DISubprogram(name: "make_jiffies", linkageName: "_ZN9Timestamp12make_jiffiesEj", scope: !386, file: !387, line: 310, type: !503, scopeLine: 310, flags: DIFlagPublic | DIFlagPrototyped | DIFlagStaticMember, spFlags: DISPFlagOptimized)
!503 = !DISubroutineType(types: !504)
!504 = !{!386, !505}
!505 = !DIDerivedType(tag: DW_TAG_typedef, name: "click_jiffies_t", file: !506, line: 477, baseType: !16)
!506 = !DIFile(filename: "../dummy_inc/click/glue.hh", directory: "/home/john/projects/click/ir-dir")
!507 = !DISubprogram(name: "make_jiffies", linkageName: "_ZN9Timestamp12make_jiffiesEi", scope: !386, file: !387, line: 312, type: !508, scopeLine: 312, flags: DIFlagPublic | DIFlagPrototyped | DIFlagStaticMember, spFlags: DISPFlagOptimized)
!508 = !DISubroutineType(types: !509)
!509 = !{!386, !510}
!510 = !DIDerivedType(tag: DW_TAG_typedef, name: "click_jiffies_difference_t", file: !506, line: 478, baseType: !34)
!511 = !DISubprogram(name: "jiffies", linkageName: "_ZNK9Timestamp7jiffiesEv", scope: !386, file: !387, line: 314, type: !512, scopeLine: 314, flags: DIFlagPublic | DIFlagPrototyped, spFlags: DISPFlagOptimized)
!512 = !DISubroutineType(types: !513)
!513 = !{!505, !461}
!514 = !DISubprogram(name: "make_sec", linkageName: "_ZN9Timestamp8make_secEi", scope: !386, file: !387, line: 318, type: !515, scopeLine: 318, flags: DIFlagPublic | DIFlagPrototyped | DIFlagStaticMember, spFlags: DISPFlagOptimized)
!515 = !DISubroutineType(types: !516)
!516 = !{!386, !460}
!517 = !DISubprogram(name: "make_msec", linkageName: "_ZN9Timestamp9make_msecEij", scope: !386, file: !387, line: 324, type: !518, scopeLine: 324, flags: DIFlagPublic | DIFlagPrototyped | DIFlagStaticMember, spFlags: DISPFlagOptimized)
!518 = !DISubroutineType(types: !519)
!519 = !{!386, !460, !12}
!520 = !DISubprogram(name: "make_msec", linkageName: "_ZN9Timestamp9make_msecEl", scope: !386, file: !387, line: 328, type: !521, scopeLine: 328, flags: DIFlagPublic | DIFlagPrototyped | DIFlagStaticMember, spFlags: DISPFlagOptimized)
!521 = !DISubroutineType(types: !522)
!522 = !{!386, !494}
!523 = !DISubprogram(name: "make_usec", linkageName: "_ZN9Timestamp9make_usecEij", scope: !386, file: !387, line: 341, type: !518, scopeLine: 341, flags: DIFlagPublic | DIFlagPrototyped | DIFlagStaticMember, spFlags: DISPFlagOptimized)
!524 = !DISubprogram(name: "make_usec", linkageName: "_ZN9Timestamp9make_usecEl", scope: !386, file: !387, line: 345, type: !521, scopeLine: 345, flags: DIFlagPublic | DIFlagPrototyped | DIFlagStaticMember, spFlags: DISPFlagOptimized)
!525 = !DISubprogram(name: "make_nsec", linkageName: "_ZN9Timestamp9make_nsecEij", scope: !386, file: !387, line: 358, type: !518, scopeLine: 358, flags: DIFlagPublic | DIFlagPrototyped | DIFlagStaticMember, spFlags: DISPFlagOptimized)
!526 = !DISubprogram(name: "make_nsec", linkageName: "_ZN9Timestamp9make_nsecEl", scope: !386, file: !387, line: 362, type: !521, scopeLine: 362, flags: DIFlagPublic | DIFlagPrototyped | DIFlagStaticMember, spFlags: DISPFlagOptimized)
!527 = !DISubprogram(name: "epsilon", linkageName: "_ZN9Timestamp7epsilonEv", scope: !386, file: !387, line: 375, type: !528, scopeLine: 375, flags: DIFlagPublic | DIFlagPrototyped | DIFlagStaticMember, spFlags: DISPFlagOptimized)
!528 = !DISubroutineType(types: !529)
!529 = !{!386}
!530 = !DISubprogram(name: "clear", linkageName: "_ZN9Timestamp5clearEv", scope: !386, file: !387, line: 380, type: !397, scopeLine: 380, flags: DIFlagPublic | DIFlagPrototyped, spFlags: DISPFlagOptimized)
!531 = !DISubprogram(name: "assign", linkageName: "_ZN9Timestamp6assignEij", scope: !386, file: !387, line: 388, type: !532, scopeLine: 388, flags: DIFlagPublic | DIFlagPrototyped, spFlags: DISPFlagOptimized)
!532 = !DISubroutineType(types: !533)
!533 = !{null, !399, !460, !12}
!534 = !DISubprogram(name: "assign_usec", linkageName: "_ZN9Timestamp11assign_usecEij", scope: !386, file: !387, line: 397, type: !532, scopeLine: 397, flags: DIFlagPublic | DIFlagPrototyped, spFlags: DISPFlagOptimized)
!535 = !DISubprogram(name: "assign_nsec", linkageName: "_ZN9Timestamp11assign_nsecEij", scope: !386, file: !387, line: 401, type: !532, scopeLine: 401, flags: DIFlagPublic | DIFlagPrototyped, spFlags: DISPFlagOptimized)
!536 = !DISubprogram(name: "set", linkageName: "_ZN9Timestamp3setEij", scope: !386, file: !387, line: 408, type: !532, scopeLine: 408, flags: DIFlagPublic | DIFlagPrototyped, spFlags: DISPFlagOptimized)
!537 = !DISubprogram(name: "set_usec", linkageName: "_ZN9Timestamp8set_usecEij", scope: !386, file: !387, line: 411, type: !532, scopeLine: 411, flags: DIFlagPublic | DIFlagPrototyped, spFlags: DISPFlagOptimized)
!538 = !DISubprogram(name: "set_nsec", linkageName: "_ZN9Timestamp8set_nsecEij", scope: !386, file: !387, line: 414, type: !532, scopeLine: 414, flags: DIFlagPublic | DIFlagPrototyped, spFlags: DISPFlagOptimized)
!539 = !DISubprogram(name: "set_now", linkageName: "_ZN9Timestamp7set_nowEv", scope: !386, file: !387, line: 417, type: !397, scopeLine: 417, flags: DIFlagPublic | DIFlagPrototyped, spFlags: DISPFlagOptimized)
!540 = !DISubprogram(name: "set_timeval_ioctl", linkageName: "_ZN9Timestamp17set_timeval_ioctlEii", scope: !386, file: !387, line: 420, type: !541, scopeLine: 420, flags: DIFlagPublic | DIFlagPrototyped, spFlags: DISPFlagOptimized)
!541 = !DISubroutineType(types: !542)
!542 = !{!34, !399, !34, !34}
!543 = !DISubprogram(name: "now", linkageName: "_ZN9Timestamp3nowEv", scope: !386, file: !387, line: 432, type: !528, scopeLine: 432, flags: DIFlagPublic | DIFlagPrototyped | DIFlagStaticMember, spFlags: DISPFlagOptimized)
!544 = !DISubprogram(name: "assign_now", linkageName: "_ZN9Timestamp10assign_nowEv", scope: !386, file: !387, line: 438, type: !397, scopeLine: 438, flags: DIFlagPublic | DIFlagPrototyped, spFlags: DISPFlagOptimized)
!545 = !DISubprogram(name: "recent", linkageName: "_ZN9Timestamp6recentEv", scope: !386, file: !387, line: 446, type: !528, scopeLine: 446, flags: DIFlagPublic | DIFlagPrototyped | DIFlagStaticMember, spFlags: DISPFlagOptimized)
!546 = !DISubprogram(name: "assign_recent", linkageName: "_ZN9Timestamp13assign_recentEv", scope: !386, file: !387, line: 452, type: !397, scopeLine: 452, flags: DIFlagPublic | DIFlagPrototyped, spFlags: DISPFlagOptimized)
!547 = !DISubprogram(name: "now_steady", linkageName: "_ZN9Timestamp10now_steadyEv", scope: !386, file: !387, line: 466, type: !528, scopeLine: 466, flags: DIFlagPublic | DIFlagPrototyped | DIFlagStaticMember, spFlags: DISPFlagOptimized)
!548 = !DISubprogram(name: "assign_now_steady", linkageName: "_ZN9Timestamp17assign_now_steadyEv", scope: !386, file: !387, line: 472, type: !397, scopeLine: 472, flags: DIFlagPublic | DIFlagPrototyped, spFlags: DISPFlagOptimized)
!549 = !DISubprogram(name: "recent_steady", linkageName: "_ZN9Timestamp13recent_steadyEv", scope: !386, file: !387, line: 481, type: !528, scopeLine: 481, flags: DIFlagPublic | DIFlagPrototyped | DIFlagStaticMember, spFlags: DISPFlagOptimized)
!550 = !DISubprogram(name: "assign_recent_steady", linkageName: "_ZN9Timestamp20assign_recent_steadyEv", scope: !386, file: !387, line: 487, type: !397, scopeLine: 487, flags: DIFlagPublic | DIFlagPrototyped, spFlags: DISPFlagOptimized)
!551 = !DISubprogram(name: "unparse", linkageName: "_ZNK9Timestamp7unparseEv", scope: !386, file: !387, line: 496, type: !552, scopeLine: 496, flags: DIFlagPublic | DIFlagPrototyped, spFlags: DISPFlagOptimized)
!552 = !DISubroutineType(types: !553)
!553 = !{!554, !461}
!554 = distinct !DICompositeType(tag: DW_TAG_class_type, name: "String", file: !555, line: 19, size: 192, flags: DIFlagTypePassByReference | DIFlagNonTrivial, elements: !556, identifier: "_ZTS6String")
!555 = !DIFile(filename: "../dummy_inc/click/string.hh", directory: "/home/john/projects/click/ir-dir")
!556 = !{!557, !562, !576, !577, !581, !585, !587, !588, !592, !597, !601, !604, !607, !610, !613, !616, !619, !622, !625, !628, !631, !634, !637, !641, !645, !648, !649, !652, !655, !656, !659, !662, !665, !669, !673, !677, !680, !681, !686, !689, !690, !694, !695, !698, !699, !702, !703, !706, !709, !712, !715, !718, !721, !724, !727, !730, !733, !736, !739, !740, !741, !742, !745, !748, !749, !750, !751, !752, !753, !754, !758, !761, !764, !767, !768, !769, !770, !771, !772, !775, !779, !780, !781, !782, !785, !786, !787, !788, !789, !790, !793, !794, !795, !796, !799, !802, !803, !806, !809, !812, !815, !818, !821, !824, !825, !826, !827, !830, !833, !836, !837, !838}
!557 = !DIDerivedType(tag: DW_TAG_member, name: "bool_data", scope: !554, file: !555, line: 184, baseType: !558, flags: DIFlagPublic | DIFlagStaticMember)
!558 = !DICompositeType(tag: DW_TAG_array_type, baseType: !559, size: 88, elements: !560)
!559 = !DIDerivedType(tag: DW_TAG_const_type, baseType: !93)
!560 = !{!561}
!561 = !DISubrange(count: 11)
!562 = !DIDerivedType(tag: DW_TAG_member, name: "_r", scope: !554, file: !555, line: 211, baseType: !563, size: 192)
!563 = distinct !DICompositeType(tag: DW_TAG_structure_type, name: "rep_t", scope: !554, file: !555, line: 204, size: 192, flags: DIFlagTypePassByValue, elements: !564, identifier: "_ZTSN6String5rep_tE")
!564 = !{!565, !567, !568}
!565 = !DIDerivedType(tag: DW_TAG_member, name: "data", scope: !563, file: !555, line: 205, baseType: !566, size: 64)
!566 = !DIDerivedType(tag: DW_TAG_pointer_type, baseType: !559, size: 64)
!567 = !DIDerivedType(tag: DW_TAG_member, name: "length", scope: !563, file: !555, line: 206, baseType: !34, size: 32, offset: 64)
!568 = !DIDerivedType(tag: DW_TAG_member, name: "memo", scope: !563, file: !555, line: 207, baseType: !569, size: 64, offset: 128)
!569 = !DIDerivedType(tag: DW_TAG_pointer_type, baseType: !570, size: 64)
!570 = distinct !DICompositeType(tag: DW_TAG_structure_type, name: "memo_t", scope: !554, file: !555, line: 189, size: 160, flags: DIFlagTypePassByValue, elements: !571, identifier: "_ZTSN6String6memo_tE")
!571 = !{!572, !573, !574, !575}
!572 = !DIDerivedType(tag: DW_TAG_member, name: "refcount", scope: !570, file: !555, line: 190, baseType: !64, size: 32)
!573 = !DIDerivedType(tag: DW_TAG_member, name: "capacity", scope: !570, file: !555, line: 191, baseType: !12, size: 32, offset: 32)
!574 = !DIDerivedType(tag: DW_TAG_member, name: "dirty", scope: !570, file: !555, line: 192, baseType: !64, size: 32, offset: 64)
!575 = !DIDerivedType(tag: DW_TAG_member, name: "real_data", scope: !570, file: !555, line: 197, baseType: !123, size: 64, offset: 96)
!576 = !DIDerivedType(tag: DW_TAG_member, name: "null_data", scope: !554, file: !555, line: 292, baseType: !559, flags: DIFlagStaticMember)
!577 = !DIDerivedType(tag: DW_TAG_member, name: "oom_data", scope: !554, file: !555, line: 293, baseType: !578, flags: DIFlagStaticMember)
!578 = !DICompositeType(tag: DW_TAG_array_type, baseType: !559, size: 120, elements: !579)
!579 = !{!580}
!580 = !DISubrange(count: 15)
!581 = !DIDerivedType(tag: DW_TAG_member, name: "int_data", scope: !554, file: !555, line: 294, baseType: !582, flags: DIFlagStaticMember)
!582 = !DICompositeType(tag: DW_TAG_array_type, baseType: !559, size: 160, elements: !583)
!583 = !{!584}
!584 = !DISubrange(count: 20)
!585 = !DIDerivedType(tag: DW_TAG_member, name: "null_string_rep", scope: !554, file: !555, line: 295, baseType: !586, flags: DIFlagStaticMember)
!586 = !DIDerivedType(tag: DW_TAG_const_type, baseType: !563)
!587 = !DIDerivedType(tag: DW_TAG_member, name: "oom_string_rep", scope: !554, file: !555, line: 296, baseType: !586, flags: DIFlagStaticMember)
!588 = !DISubprogram(name: "String", scope: !554, file: !555, line: 39, type: !589, scopeLine: 39, flags: DIFlagPublic | DIFlagPrototyped, spFlags: DISPFlagOptimized)
!589 = !DISubroutineType(types: !590)
!590 = !{null, !591}
!591 = !DIDerivedType(tag: DW_TAG_pointer_type, baseType: !554, size: 64, flags: DIFlagArtificial | DIFlagObjectPointer)
!592 = !DISubprogram(name: "String", scope: !554, file: !555, line: 40, type: !593, scopeLine: 40, flags: DIFlagPublic | DIFlagPrototyped, spFlags: DISPFlagOptimized)
!593 = !DISubroutineType(types: !594)
!594 = !{null, !591, !595}
!595 = !DIDerivedType(tag: DW_TAG_reference_type, baseType: !596, size: 64)
!596 = !DIDerivedType(tag: DW_TAG_const_type, baseType: !554)
!597 = !DISubprogram(name: "String", scope: !554, file: !555, line: 42, type: !598, scopeLine: 42, flags: DIFlagPublic | DIFlagPrototyped, spFlags: DISPFlagOptimized)
!598 = !DISubroutineType(types: !599)
!599 = !{null, !591, !600}
!600 = !DIDerivedType(tag: DW_TAG_rvalue_reference_type, baseType: !554, size: 64)
!601 = !DISubprogram(name: "String", scope: !554, file: !555, line: 44, type: !602, scopeLine: 44, flags: DIFlagPublic | DIFlagPrototyped, spFlags: DISPFlagOptimized)
!602 = !DISubroutineType(types: !603)
!603 = !{null, !591, !566}
!604 = !DISubprogram(name: "String", scope: !554, file: !555, line: 45, type: !605, scopeLine: 45, flags: DIFlagPublic | DIFlagPrototyped, spFlags: DISPFlagOptimized)
!605 = !DISubroutineType(types: !606)
!606 = !{null, !591, !566, !34}
!607 = !DISubprogram(name: "String", scope: !554, file: !555, line: 46, type: !608, scopeLine: 46, flags: DIFlagPublic | DIFlagPrototyped, spFlags: DISPFlagOptimized)
!608 = !DISubroutineType(types: !609)
!609 = !{null, !591, !255, !34}
!610 = !DISubprogram(name: "String", scope: !554, file: !555, line: 47, type: !611, scopeLine: 47, flags: DIFlagPublic | DIFlagPrototyped, spFlags: DISPFlagOptimized)
!611 = !DISubroutineType(types: !612)
!612 = !{null, !591, !566, !566}
!613 = !DISubprogram(name: "String", scope: !554, file: !555, line: 48, type: !614, scopeLine: 48, flags: DIFlagPublic | DIFlagPrototyped, spFlags: DISPFlagOptimized)
!614 = !DISubroutineType(types: !615)
!615 = !{null, !591, !255, !255}
!616 = !DISubprogram(name: "String", scope: !554, file: !555, line: 49, type: !617, scopeLine: 49, flags: DIFlagPublic | DIFlagExplicit | DIFlagPrototyped, spFlags: DISPFlagOptimized)
!617 = !DISubroutineType(types: !618)
!618 = !{null, !591, !53}
!619 = !DISubprogram(name: "String", scope: !554, file: !555, line: 50, type: !620, scopeLine: 50, flags: DIFlagPublic | DIFlagExplicit | DIFlagPrototyped, spFlags: DISPFlagOptimized)
!620 = !DISubroutineType(types: !621)
!621 = !{null, !591, !93}
!622 = !DISubprogram(name: "String", scope: !554, file: !555, line: 51, type: !623, scopeLine: 51, flags: DIFlagPublic | DIFlagExplicit | DIFlagPrototyped, spFlags: DISPFlagOptimized)
!623 = !DISubroutineType(types: !624)
!624 = !{null, !591, !81}
!625 = !DISubprogram(name: "String", scope: !554, file: !555, line: 52, type: !626, scopeLine: 52, flags: DIFlagPublic | DIFlagExplicit | DIFlagPrototyped, spFlags: DISPFlagOptimized)
!626 = !DISubroutineType(types: !627)
!627 = !{null, !591, !34}
!628 = !DISubprogram(name: "String", scope: !554, file: !555, line: 53, type: !629, scopeLine: 53, flags: DIFlagPublic | DIFlagExplicit | DIFlagPrototyped, spFlags: DISPFlagOptimized)
!629 = !DISubroutineType(types: !630)
!630 = !{null, !591, !16}
!631 = !DISubprogram(name: "String", scope: !554, file: !555, line: 54, type: !632, scopeLine: 54, flags: DIFlagPublic | DIFlagExplicit | DIFlagPrototyped, spFlags: DISPFlagOptimized)
!632 = !DISubroutineType(types: !633)
!633 = !{null, !591, !395}
!634 = !DISubprogram(name: "String", scope: !554, file: !555, line: 55, type: !635, scopeLine: 55, flags: DIFlagPublic | DIFlagExplicit | DIFlagPrototyped, spFlags: DISPFlagOptimized)
!635 = !DISubroutineType(types: !636)
!636 = !{null, !591, !115}
!637 = !DISubprogram(name: "String", scope: !554, file: !555, line: 57, type: !638, scopeLine: 57, flags: DIFlagPublic | DIFlagExplicit | DIFlagPrototyped, spFlags: DISPFlagOptimized)
!638 = !DISubroutineType(types: !639)
!639 = !{null, !591, !640}
!640 = !DIBasicType(name: "long long int", size: 64, encoding: DW_ATE_signed)
!641 = !DISubprogram(name: "String", scope: !554, file: !555, line: 58, type: !642, scopeLine: 58, flags: DIFlagPublic | DIFlagExplicit | DIFlagPrototyped, spFlags: DISPFlagOptimized)
!642 = !DISubroutineType(types: !643)
!643 = !{null, !591, !644}
!644 = !DIBasicType(name: "long long unsigned int", size: 64, encoding: DW_ATE_unsigned)
!645 = !DISubprogram(name: "String", scope: !554, file: !555, line: 65, type: !646, scopeLine: 65, flags: DIFlagPublic | DIFlagExplicit | DIFlagPrototyped, spFlags: DISPFlagOptimized)
!646 = !DISubroutineType(types: !647)
!647 = !{null, !591, !415}
!648 = !DISubprogram(name: "~String", scope: !554, file: !555, line: 67, type: !589, scopeLine: 67, flags: DIFlagPublic | DIFlagPrototyped, spFlags: DISPFlagOptimized)
!649 = !DISubprogram(name: "make_empty", linkageName: "_ZN6String10make_emptyEv", scope: !554, file: !555, line: 69, type: !650, scopeLine: 69, flags: DIFlagPublic | DIFlagPrototyped | DIFlagStaticMember, spFlags: DISPFlagOptimized)
!650 = !DISubroutineType(types: !651)
!651 = !{!595}
!652 = !DISubprogram(name: "make_uninitialized", linkageName: "_ZN6String18make_uninitializedEi", scope: !554, file: !555, line: 70, type: !653, scopeLine: 70, flags: DIFlagPublic | DIFlagPrototyped | DIFlagStaticMember, spFlags: DISPFlagOptimized)
!653 = !DISubroutineType(types: !654)
!654 = !{!554, !34}
!655 = !DISubprogram(name: "make_garbage", linkageName: "_ZN6String12make_garbageEi", scope: !554, file: !555, line: 71, type: !653, scopeLine: 71, flags: DIFlagPublic | DIFlagPrototyped | DIFlagStaticMember, spFlags: DISPFlagOptimized)
!656 = !DISubprogram(name: "make_stable", linkageName: "_ZN6String11make_stableEPKc", scope: !554, file: !555, line: 72, type: !657, scopeLine: 72, flags: DIFlagPublic | DIFlagPrototyped | DIFlagStaticMember, spFlags: DISPFlagOptimized)
!657 = !DISubroutineType(types: !658)
!658 = !{!554, !566}
!659 = !DISubprogram(name: "make_stable", linkageName: "_ZN6String11make_stableEPKci", scope: !554, file: !555, line: 73, type: !660, scopeLine: 73, flags: DIFlagPublic | DIFlagPrototyped | DIFlagStaticMember, spFlags: DISPFlagOptimized)
!660 = !DISubroutineType(types: !661)
!661 = !{!554, !566, !34}
!662 = !DISubprogram(name: "make_stable", linkageName: "_ZN6String11make_stableEPKcS1_", scope: !554, file: !555, line: 74, type: !663, scopeLine: 74, flags: DIFlagPublic | DIFlagPrototyped | DIFlagStaticMember, spFlags: DISPFlagOptimized)
!663 = !DISubroutineType(types: !664)
!664 = !{!554, !566, !566}
!665 = !DISubprogram(name: "make_numeric", linkageName: "_ZN6String12make_numericElib", scope: !554, file: !555, line: 75, type: !666, scopeLine: 75, flags: DIFlagPublic | DIFlagPrototyped | DIFlagStaticMember, spFlags: DISPFlagOptimized)
!666 = !DISubroutineType(types: !667)
!667 = !{!554, !668, !34, !53}
!668 = !DIDerivedType(tag: DW_TAG_typedef, name: "intmax_t", scope: !554, file: !555, line: 27, baseType: !393)
!669 = !DISubprogram(name: "make_numeric", linkageName: "_ZN6String12make_numericEmib", scope: !554, file: !555, line: 76, type: !670, scopeLine: 76, flags: DIFlagPublic | DIFlagPrototyped | DIFlagStaticMember, spFlags: DISPFlagOptimized)
!670 = !DISubroutineType(types: !671)
!671 = !{!554, !672, !34, !53}
!672 = !DIDerivedType(tag: DW_TAG_typedef, name: "uintmax_t", scope: !554, file: !555, line: 28, baseType: !113)
!673 = !DISubprogram(name: "data", linkageName: "_ZNK6String4dataEv", scope: !554, file: !555, line: 78, type: !674, scopeLine: 78, flags: DIFlagPublic | DIFlagPrototyped, spFlags: DISPFlagOptimized)
!674 = !DISubroutineType(types: !675)
!675 = !{!566, !676}
!676 = !DIDerivedType(tag: DW_TAG_pointer_type, baseType: !596, size: 64, flags: DIFlagArtificial | DIFlagObjectPointer)
!677 = !DISubprogram(name: "length", linkageName: "_ZNK6String6lengthEv", scope: !554, file: !555, line: 79, type: !678, scopeLine: 79, flags: DIFlagPublic | DIFlagPrototyped, spFlags: DISPFlagOptimized)
!678 = !DISubroutineType(types: !679)
!679 = !{!34, !676}
!680 = !DISubprogram(name: "c_str", linkageName: "_ZNK6String5c_strEv", scope: !554, file: !555, line: 81, type: !674, scopeLine: 81, flags: DIFlagPublic | DIFlagPrototyped, spFlags: DISPFlagOptimized)
!681 = !DISubprogram(name: "operator int (String::*)() const", linkageName: "_ZNK6StringcvMS_KFivEEv", scope: !554, file: !555, line: 83, type: !682, scopeLine: 83, flags: DIFlagPublic | DIFlagPrototyped, spFlags: DISPFlagOptimized)
!682 = !DISubroutineType(types: !683)
!683 = !{!684, !676}
!684 = !DIDerivedType(tag: DW_TAG_typedef, name: "unspecified_bool_type", scope: !554, file: !555, line: 24, baseType: !685)
!685 = !DIDerivedType(tag: DW_TAG_ptr_to_member_type, baseType: !678, size: 128, extraData: !554)
!686 = !DISubprogram(name: "empty", linkageName: "_ZNK6String5emptyEv", scope: !554, file: !555, line: 84, type: !687, scopeLine: 84, flags: DIFlagPublic | DIFlagPrototyped, spFlags: DISPFlagOptimized)
!687 = !DISubroutineType(types: !688)
!688 = !{!53, !676}
!689 = !DISubprogram(name: "operator!", linkageName: "_ZNK6StringntEv", scope: !554, file: !555, line: 85, type: !687, scopeLine: 85, flags: DIFlagPublic | DIFlagPrototyped, spFlags: DISPFlagOptimized)
!690 = !DISubprogram(name: "begin", linkageName: "_ZNK6String5beginEv", scope: !554, file: !555, line: 87, type: !691, scopeLine: 87, flags: DIFlagPublic | DIFlagPrototyped, spFlags: DISPFlagOptimized)
!691 = !DISubroutineType(types: !692)
!692 = !{!693, !676}
!693 = !DIDerivedType(tag: DW_TAG_typedef, name: "const_iterator", scope: !554, file: !555, line: 21, baseType: !566)
!694 = !DISubprogram(name: "end", linkageName: "_ZNK6String3endEv", scope: !554, file: !555, line: 88, type: !691, scopeLine: 88, flags: DIFlagPublic | DIFlagPrototyped, spFlags: DISPFlagOptimized)
!695 = !DISubprogram(name: "operator[]", linkageName: "_ZNK6StringixEi", scope: !554, file: !555, line: 90, type: !696, scopeLine: 90, flags: DIFlagPublic | DIFlagPrototyped, spFlags: DISPFlagOptimized)
!696 = !DISubroutineType(types: !697)
!697 = !{!93, !676, !34}
!698 = !DISubprogram(name: "at", linkageName: "_ZNK6String2atEi", scope: !554, file: !555, line: 91, type: !696, scopeLine: 91, flags: DIFlagPublic | DIFlagPrototyped, spFlags: DISPFlagOptimized)
!699 = !DISubprogram(name: "front", linkageName: "_ZNK6String5frontEv", scope: !554, file: !555, line: 92, type: !700, scopeLine: 92, flags: DIFlagPublic | DIFlagPrototyped, spFlags: DISPFlagOptimized)
!700 = !DISubroutineType(types: !701)
!701 = !{!93, !676}
!702 = !DISubprogram(name: "back", linkageName: "_ZNK6String4backEv", scope: !554, file: !555, line: 93, type: !700, scopeLine: 93, flags: DIFlagPublic | DIFlagPrototyped, spFlags: DISPFlagOptimized)
!703 = !DISubprogram(name: "hashcode", linkageName: "_ZN6String8hashcodeEPKcS1_", scope: !554, file: !555, line: 95, type: !704, scopeLine: 95, flags: DIFlagPublic | DIFlagPrototyped | DIFlagStaticMember, spFlags: DISPFlagOptimized)
!704 = !DISubroutineType(types: !705)
!705 = !{!12, !566, !566}
!706 = !DISubprogram(name: "hashcode", linkageName: "_ZN6String8hashcodeEPKhS1_", scope: !554, file: !555, line: 96, type: !707, scopeLine: 96, flags: DIFlagPublic | DIFlagPrototyped | DIFlagStaticMember, spFlags: DISPFlagOptimized)
!707 = !DISubroutineType(types: !708)
!708 = !{!12, !255, !255}
!709 = !DISubprogram(name: "hashcode", linkageName: "_ZNK6String8hashcodeEv", scope: !554, file: !555, line: 98, type: !710, scopeLine: 98, flags: DIFlagPublic | DIFlagPrototyped, spFlags: DISPFlagOptimized)
!710 = !DISubroutineType(types: !711)
!711 = !{!12, !676}
!712 = !DISubprogram(name: "substring", linkageName: "_ZNK6String9substringEPKcS1_", scope: !554, file: !555, line: 100, type: !713, scopeLine: 100, flags: DIFlagPublic | DIFlagPrototyped, spFlags: DISPFlagOptimized)
!713 = !DISubroutineType(types: !714)
!714 = !{!554, !676, !566, !566}
!715 = !DISubprogram(name: "substring", linkageName: "_ZNK6String9substringEii", scope: !554, file: !555, line: 101, type: !716, scopeLine: 101, flags: DIFlagPublic | DIFlagPrototyped, spFlags: DISPFlagOptimized)
!716 = !DISubroutineType(types: !717)
!717 = !{!554, !676, !34, !34}
!718 = !DISubprogram(name: "substring", linkageName: "_ZNK6String9substringEi", scope: !554, file: !555, line: 102, type: !719, scopeLine: 102, flags: DIFlagPublic | DIFlagPrototyped, spFlags: DISPFlagOptimized)
!719 = !DISubroutineType(types: !720)
!720 = !{!554, !676, !34}
!721 = !DISubprogram(name: "trim_space", linkageName: "_ZNK6String10trim_spaceEv", scope: !554, file: !555, line: 103, type: !722, scopeLine: 103, flags: DIFlagPublic | DIFlagPrototyped, spFlags: DISPFlagOptimized)
!722 = !DISubroutineType(types: !723)
!723 = !{!554, !676}
!724 = !DISubprogram(name: "equals", linkageName: "_ZNK6String6equalsERKS_", scope: !554, file: !555, line: 105, type: !725, scopeLine: 105, flags: DIFlagPublic | DIFlagPrototyped, spFlags: DISPFlagOptimized)
!725 = !DISubroutineType(types: !726)
!726 = !{!53, !676, !595}
!727 = !DISubprogram(name: "equals", linkageName: "_ZNK6String6equalsEPKci", scope: !554, file: !555, line: 106, type: !728, scopeLine: 106, flags: DIFlagPublic | DIFlagPrototyped, spFlags: DISPFlagOptimized)
!728 = !DISubroutineType(types: !729)
!729 = !{!53, !676, !566, !34}
!730 = !DISubprogram(name: "compare", linkageName: "_ZN6String7compareERKS_S1_", scope: !554, file: !555, line: 107, type: !731, scopeLine: 107, flags: DIFlagPublic | DIFlagPrototyped | DIFlagStaticMember, spFlags: DISPFlagOptimized)
!731 = !DISubroutineType(types: !732)
!732 = !{!34, !595, !595}
!733 = !DISubprogram(name: "compare", linkageName: "_ZNK6String7compareERKS_", scope: !554, file: !555, line: 108, type: !734, scopeLine: 108, flags: DIFlagPublic | DIFlagPrototyped, spFlags: DISPFlagOptimized)
!734 = !DISubroutineType(types: !735)
!735 = !{!34, !676, !595}
!736 = !DISubprogram(name: "compare", linkageName: "_ZNK6String7compareEPKci", scope: !554, file: !555, line: 109, type: !737, scopeLine: 109, flags: DIFlagPublic | DIFlagPrototyped, spFlags: DISPFlagOptimized)
!737 = !DISubroutineType(types: !738)
!738 = !{!34, !676, !566, !34}
!739 = !DISubprogram(name: "starts_with", linkageName: "_ZNK6String11starts_withERKS_", scope: !554, file: !555, line: 110, type: !725, scopeLine: 110, flags: DIFlagPublic | DIFlagPrototyped, spFlags: DISPFlagOptimized)
!740 = !DISubprogram(name: "starts_with", linkageName: "_ZNK6String11starts_withEPKci", scope: !554, file: !555, line: 111, type: !728, scopeLine: 111, flags: DIFlagPublic | DIFlagPrototyped, spFlags: DISPFlagOptimized)
!741 = !DISubprogram(name: "glob_match", linkageName: "_ZNK6String10glob_matchERKS_", scope: !554, file: !555, line: 112, type: !725, scopeLine: 112, flags: DIFlagPublic | DIFlagPrototyped, spFlags: DISPFlagOptimized)
!742 = !DISubprogram(name: "find_left", linkageName: "_ZNK6String9find_leftEci", scope: !554, file: !555, line: 125, type: !743, scopeLine: 125, flags: DIFlagPublic | DIFlagPrototyped, spFlags: DISPFlagOptimized)
!743 = !DISubroutineType(types: !744)
!744 = !{!34, !676, !93, !34}
!745 = !DISubprogram(name: "find_left", linkageName: "_ZNK6String9find_leftERKS_i", scope: !554, file: !555, line: 126, type: !746, scopeLine: 126, flags: DIFlagPublic | DIFlagPrototyped, spFlags: DISPFlagOptimized)
!746 = !DISubroutineType(types: !747)
!747 = !{!34, !676, !595, !34}
!748 = !DISubprogram(name: "find_right", linkageName: "_ZNK6String10find_rightEci", scope: !554, file: !555, line: 127, type: !743, scopeLine: 127, flags: DIFlagPublic | DIFlagPrototyped, spFlags: DISPFlagOptimized)
!749 = !DISubprogram(name: "lower", linkageName: "_ZNK6String5lowerEv", scope: !554, file: !555, line: 129, type: !722, scopeLine: 129, flags: DIFlagPublic | DIFlagPrototyped, spFlags: DISPFlagOptimized)
!750 = !DISubprogram(name: "upper", linkageName: "_ZNK6String5upperEv", scope: !554, file: !555, line: 130, type: !722, scopeLine: 130, flags: DIFlagPublic | DIFlagPrototyped, spFlags: DISPFlagOptimized)
!751 = !DISubprogram(name: "printable", linkageName: "_ZNK6String9printableEv", scope: !554, file: !555, line: 131, type: !722, scopeLine: 131, flags: DIFlagPublic | DIFlagPrototyped, spFlags: DISPFlagOptimized)
!752 = !DISubprogram(name: "quoted_hex", linkageName: "_ZNK6String10quoted_hexEv", scope: !554, file: !555, line: 132, type: !722, scopeLine: 132, flags: DIFlagPublic | DIFlagPrototyped, spFlags: DISPFlagOptimized)
!753 = !DISubprogram(name: "encode_json", linkageName: "_ZNK6String11encode_jsonEv", scope: !554, file: !555, line: 133, type: !722, scopeLine: 133, flags: DIFlagPublic | DIFlagPrototyped, spFlags: DISPFlagOptimized)
!754 = !DISubprogram(name: "operator=", linkageName: "_ZN6StringaSERKS_", scope: !554, file: !555, line: 135, type: !755, scopeLine: 135, flags: DIFlagPublic | DIFlagPrototyped, spFlags: DISPFlagOptimized)
!755 = !DISubroutineType(types: !756)
!756 = !{!757, !591, !595}
!757 = !DIDerivedType(tag: DW_TAG_reference_type, baseType: !554, size: 64)
!758 = !DISubprogram(name: "operator=", linkageName: "_ZN6StringaSEOS_", scope: !554, file: !555, line: 137, type: !759, scopeLine: 137, flags: DIFlagPublic | DIFlagPrototyped, spFlags: DISPFlagOptimized)
!759 = !DISubroutineType(types: !760)
!760 = !{!757, !591, !600}
!761 = !DISubprogram(name: "operator=", linkageName: "_ZN6StringaSEPKc", scope: !554, file: !555, line: 139, type: !762, scopeLine: 139, flags: DIFlagPublic | DIFlagPrototyped, spFlags: DISPFlagOptimized)
!762 = !DISubroutineType(types: !763)
!763 = !{!757, !591, !566}
!764 = !DISubprogram(name: "swap", linkageName: "_ZN6String4swapERS_", scope: !554, file: !555, line: 141, type: !765, scopeLine: 141, flags: DIFlagPublic | DIFlagPrototyped, spFlags: DISPFlagOptimized)
!765 = !DISubroutineType(types: !766)
!766 = !{null, !591, !757}
!767 = !DISubprogram(name: "append", linkageName: "_ZN6String6appendERKS_", scope: !554, file: !555, line: 143, type: !593, scopeLine: 143, flags: DIFlagPublic | DIFlagPrototyped, spFlags: DISPFlagOptimized)
!768 = !DISubprogram(name: "append", linkageName: "_ZN6String6appendEPKc", scope: !554, file: !555, line: 144, type: !602, scopeLine: 144, flags: DIFlagPublic | DIFlagPrototyped, spFlags: DISPFlagOptimized)
!769 = !DISubprogram(name: "append", linkageName: "_ZN6String6appendEPKci", scope: !554, file: !555, line: 145, type: !605, scopeLine: 145, flags: DIFlagPublic | DIFlagPrototyped, spFlags: DISPFlagOptimized)
!770 = !DISubprogram(name: "append", linkageName: "_ZN6String6appendEPKcS1_", scope: !554, file: !555, line: 146, type: !611, scopeLine: 146, flags: DIFlagPublic | DIFlagPrototyped, spFlags: DISPFlagOptimized)
!771 = !DISubprogram(name: "append", linkageName: "_ZN6String6appendEc", scope: !554, file: !555, line: 147, type: !620, scopeLine: 147, flags: DIFlagPublic | DIFlagPrototyped, spFlags: DISPFlagOptimized)
!772 = !DISubprogram(name: "append_fill", linkageName: "_ZN6String11append_fillEii", scope: !554, file: !555, line: 148, type: !773, scopeLine: 148, flags: DIFlagPublic | DIFlagPrototyped, spFlags: DISPFlagOptimized)
!773 = !DISubroutineType(types: !774)
!774 = !{null, !591, !34, !34}
!775 = !DISubprogram(name: "append_uninitialized", linkageName: "_ZN6String20append_uninitializedEi", scope: !554, file: !555, line: 149, type: !776, scopeLine: 149, flags: DIFlagPublic | DIFlagPrototyped, spFlags: DISPFlagOptimized)
!776 = !DISubroutineType(types: !777)
!777 = !{!778, !591, !34}
!778 = !DIDerivedType(tag: DW_TAG_pointer_type, baseType: !93, size: 64)
!779 = !DISubprogram(name: "append_garbage", linkageName: "_ZN6String14append_garbageEi", scope: !554, file: !555, line: 150, type: !776, scopeLine: 150, flags: DIFlagPublic | DIFlagPrototyped, spFlags: DISPFlagOptimized)
!780 = !DISubprogram(name: "operator+=", linkageName: "_ZN6StringpLERKS_", scope: !554, file: !555, line: 152, type: !755, scopeLine: 152, flags: DIFlagPublic | DIFlagPrototyped, spFlags: DISPFlagOptimized)
!781 = !DISubprogram(name: "operator+=", linkageName: "_ZN6StringpLEPKc", scope: !554, file: !555, line: 153, type: !762, scopeLine: 153, flags: DIFlagPublic | DIFlagPrototyped, spFlags: DISPFlagOptimized)
!782 = !DISubprogram(name: "operator+=", linkageName: "_ZN6StringpLEc", scope: !554, file: !555, line: 154, type: !783, scopeLine: 154, flags: DIFlagPublic | DIFlagPrototyped, spFlags: DISPFlagOptimized)
!783 = !DISubroutineType(types: !784)
!784 = !{!757, !591, !93}
!785 = !DISubprogram(name: "is_shared", linkageName: "_ZNK6String9is_sharedEv", scope: !554, file: !555, line: 160, type: !687, scopeLine: 160, flags: DIFlagPublic | DIFlagPrototyped, spFlags: DISPFlagOptimized)
!786 = !DISubprogram(name: "is_stable", linkageName: "_ZNK6String9is_stableEv", scope: !554, file: !555, line: 161, type: !687, scopeLine: 161, flags: DIFlagPublic | DIFlagPrototyped, spFlags: DISPFlagOptimized)
!787 = !DISubprogram(name: "unique", linkageName: "_ZNK6String6uniqueEv", scope: !554, file: !555, line: 163, type: !722, scopeLine: 163, flags: DIFlagPublic | DIFlagPrototyped, spFlags: DISPFlagOptimized)
!788 = !DISubprogram(name: "unshared", linkageName: "_ZNK6String8unsharedEv", scope: !554, file: !555, line: 164, type: !722, scopeLine: 164, flags: DIFlagPublic | DIFlagPrototyped, spFlags: DISPFlagOptimized)
!789 = !DISubprogram(name: "compact", linkageName: "_ZNK6String7compactEv", scope: !554, file: !555, line: 165, type: !722, scopeLine: 165, flags: DIFlagPublic | DIFlagPrototyped, spFlags: DISPFlagOptimized)
!790 = !DISubprogram(name: "mutable_data", linkageName: "_ZN6String12mutable_dataEv", scope: !554, file: !555, line: 167, type: !791, scopeLine: 167, flags: DIFlagPublic | DIFlagPrototyped, spFlags: DISPFlagOptimized)
!791 = !DISubroutineType(types: !792)
!792 = !{!778, !591}
!793 = !DISubprogram(name: "mutable_c_str", linkageName: "_ZN6String13mutable_c_strEv", scope: !554, file: !555, line: 168, type: !791, scopeLine: 168, flags: DIFlagPublic | DIFlagPrototyped, spFlags: DISPFlagOptimized)
!794 = !DISubprogram(name: "make_out_of_memory", linkageName: "_ZN6String18make_out_of_memoryEv", scope: !554, file: !555, line: 170, type: !650, scopeLine: 170, flags: DIFlagPublic | DIFlagPrototyped | DIFlagStaticMember, spFlags: DISPFlagOptimized)
!795 = !DISubprogram(name: "out_of_memory", linkageName: "_ZNK6String13out_of_memoryEv", scope: !554, file: !555, line: 171, type: !687, scopeLine: 171, flags: DIFlagPublic | DIFlagPrototyped, spFlags: DISPFlagOptimized)
!796 = !DISubprogram(name: "out_of_memory_data", linkageName: "_ZN6String18out_of_memory_dataEv", scope: !554, file: !555, line: 172, type: !797, scopeLine: 172, flags: DIFlagPublic | DIFlagPrototyped | DIFlagStaticMember, spFlags: DISPFlagOptimized)
!797 = !DISubroutineType(types: !798)
!798 = !{!566}
!799 = !DISubprogram(name: "out_of_memory_length", linkageName: "_ZN6String20out_of_memory_lengthEv", scope: !554, file: !555, line: 173, type: !800, scopeLine: 173, flags: DIFlagPublic | DIFlagPrototyped | DIFlagStaticMember, spFlags: DISPFlagOptimized)
!800 = !DISubroutineType(types: !801)
!801 = !{!34}
!802 = !DISubprogram(name: "empty_data", linkageName: "_ZN6String10empty_dataEv", scope: !554, file: !555, line: 174, type: !797, scopeLine: 174, flags: DIFlagPublic | DIFlagPrototyped | DIFlagStaticMember, spFlags: DISPFlagOptimized)
!803 = !DISubprogram(name: "skip_utf8_char", linkageName: "_ZN6String14skip_utf8_charEPKcS1_", scope: !554, file: !555, line: 180, type: !804, scopeLine: 180, flags: DIFlagPublic | DIFlagPrototyped | DIFlagStaticMember, spFlags: DISPFlagOptimized)
!804 = !DISubroutineType(types: !805)
!805 = !{!566, !566, !566}
!806 = !DISubprogram(name: "skip_utf8_char", linkageName: "_ZN6String14skip_utf8_charEPKhS1_", scope: !554, file: !555, line: 181, type: !807, scopeLine: 181, flags: DIFlagPublic | DIFlagPrototyped | DIFlagStaticMember, spFlags: DISPFlagOptimized)
!807 = !DISubroutineType(types: !808)
!808 = !{!255, !255, !255}
!809 = !DISubprogram(name: "assign_memo", linkageName: "_ZNK6String11assign_memoEPKciPNS_6memo_tE", scope: !554, file: !555, line: 256, type: !810, scopeLine: 256, flags: DIFlagPrototyped, spFlags: DISPFlagOptimized)
!810 = !DISubroutineType(types: !811)
!811 = !{null, !676, !566, !34, !569}
!812 = !DISubprogram(name: "String", scope: !554, file: !555, line: 263, type: !813, scopeLine: 263, flags: DIFlagPrototyped, spFlags: DISPFlagOptimized)
!813 = !DISubroutineType(types: !814)
!814 = !{null, !591, !566, !34, !569}
!815 = !DISubprogram(name: "assign", linkageName: "_ZNK6String6assignERKS_", scope: !554, file: !555, line: 267, type: !816, scopeLine: 267, flags: DIFlagPrototyped, spFlags: DISPFlagOptimized)
!816 = !DISubroutineType(types: !817)
!817 = !{null, !676, !595}
!818 = !DISubprogram(name: "deref", linkageName: "_ZNK6String5derefEv", scope: !554, file: !555, line: 271, type: !819, scopeLine: 271, flags: DIFlagPrototyped, spFlags: DISPFlagOptimized)
!819 = !DISubroutineType(types: !820)
!820 = !{null, !676}
!821 = !DISubprogram(name: "assign", linkageName: "_ZN6String6assignEPKcib", scope: !554, file: !555, line: 280, type: !822, scopeLine: 280, flags: DIFlagPrototyped, spFlags: DISPFlagOptimized)
!822 = !DISubroutineType(types: !823)
!823 = !{null, !591, !566, !34, !53}
!824 = !DISubprogram(name: "assign_out_of_memory", linkageName: "_ZN6String20assign_out_of_memoryEv", scope: !554, file: !555, line: 281, type: !589, scopeLine: 281, flags: DIFlagPrototyped, spFlags: DISPFlagOptimized)
!825 = !DISubprogram(name: "append", linkageName: "_ZN6String6appendEPKciPNS_6memo_tE", scope: !554, file: !555, line: 282, type: !813, scopeLine: 282, flags: DIFlagPrototyped, spFlags: DISPFlagOptimized)
!826 = !DISubprogram(name: "hard_make_stable", linkageName: "_ZN6String16hard_make_stableEPKci", scope: !554, file: !555, line: 283, type: !660, scopeLine: 283, flags: DIFlagPrototyped | DIFlagStaticMember, spFlags: DISPFlagOptimized)
!827 = !DISubprogram(name: "absent_memo", linkageName: "_ZN6String11absent_memoEv", scope: !554, file: !555, line: 284, type: !828, scopeLine: 284, flags: DIFlagPrototyped | DIFlagStaticMember, spFlags: DISPFlagOptimized)
!828 = !DISubroutineType(types: !829)
!829 = !{!569}
!830 = !DISubprogram(name: "create_memo", linkageName: "_ZN6String11create_memoEPcii", scope: !554, file: !555, line: 287, type: !831, scopeLine: 287, flags: DIFlagPrototyped | DIFlagStaticMember, spFlags: DISPFlagOptimized)
!831 = !DISubroutineType(types: !832)
!832 = !{!569, !778, !34, !34}
!833 = !DISubprogram(name: "delete_memo", linkageName: "_ZN6String11delete_memoEPNS_6memo_tE", scope: !554, file: !555, line: 288, type: !834, scopeLine: 288, flags: DIFlagPrototyped | DIFlagStaticMember, spFlags: DISPFlagOptimized)
!834 = !DISubroutineType(types: !835)
!835 = !{null, !569}
!836 = !DISubprogram(name: "hard_c_str", linkageName: "_ZNK6String10hard_c_strEv", scope: !554, file: !555, line: 289, type: !674, scopeLine: 289, flags: DIFlagPrototyped, spFlags: DISPFlagOptimized)
!837 = !DISubprogram(name: "hard_equals", linkageName: "_ZNK6String11hard_equalsEPKci", scope: !554, file: !555, line: 290, type: !728, scopeLine: 290, flags: DIFlagPrototyped, spFlags: DISPFlagOptimized)
!838 = !DISubprogram(name: "make_claim", linkageName: "_ZN6String10make_claimEPcii", scope: !554, file: !555, line: 299, type: !839, scopeLine: 299, flags: DIFlagPrototyped | DIFlagStaticMember, spFlags: DISPFlagOptimized)
!839 = !DISubroutineType(types: !840)
!840 = !{!554, !778, !34, !34}
!841 = !DISubprogram(name: "unparse_interval", linkageName: "_ZNK9Timestamp16unparse_intervalEv", scope: !386, file: !387, line: 501, type: !552, scopeLine: 501, flags: DIFlagPublic | DIFlagPrototyped, spFlags: DISPFlagOptimized)
!842 = !DISubprogram(name: "msec_to_subsec", linkageName: "_ZN9Timestamp14msec_to_subsecEj", scope: !386, file: !387, line: 510, type: !843, scopeLine: 510, flags: DIFlagPublic | DIFlagPrototyped | DIFlagStaticMember, spFlags: DISPFlagOptimized)
!843 = !DISubroutineType(types: !844)
!844 = !{!12, !12}
!845 = !DISubprogram(name: "usec_to_subsec", linkageName: "_ZN9Timestamp14usec_to_subsecEj", scope: !386, file: !387, line: 514, type: !843, scopeLine: 514, flags: DIFlagPublic | DIFlagPrototyped | DIFlagStaticMember, spFlags: DISPFlagOptimized)
!846 = !DISubprogram(name: "nsec_to_subsec", linkageName: "_ZN9Timestamp14nsec_to_subsecEj", scope: !386, file: !387, line: 518, type: !843, scopeLine: 518, flags: DIFlagPublic | DIFlagPrototyped | DIFlagStaticMember, spFlags: DISPFlagOptimized)
!847 = !DISubprogram(name: "subsec_to_msec", linkageName: "_ZN9Timestamp14subsec_to_msecEj", scope: !386, file: !387, line: 522, type: !843, scopeLine: 522, flags: DIFlagPublic | DIFlagPrototyped | DIFlagStaticMember, spFlags: DISPFlagOptimized)
!848 = !DISubprogram(name: "subsec_to_usec", linkageName: "_ZN9Timestamp14subsec_to_usecEj", scope: !386, file: !387, line: 526, type: !843, scopeLine: 526, flags: DIFlagPublic | DIFlagPrototyped | DIFlagStaticMember, spFlags: DISPFlagOptimized)
!849 = !DISubprogram(name: "subsec_to_nsec", linkageName: "_ZN9Timestamp14subsec_to_nsecEj", scope: !386, file: !387, line: 530, type: !843, scopeLine: 530, flags: DIFlagPublic | DIFlagPrototyped | DIFlagStaticMember, spFlags: DISPFlagOptimized)
!850 = !DISubprogram(name: "warp_class", linkageName: "_ZN9Timestamp10warp_classEv", scope: !386, file: !387, line: 581, type: !800, scopeLine: 581, flags: DIFlagPublic | DIFlagPrototyped | DIFlagStaticMember, spFlags: DISPFlagOptimized)
!851 = !DISubprogram(name: "warp_speed", linkageName: "_ZN9Timestamp10warp_speedEv", scope: !386, file: !387, line: 588, type: !852, scopeLine: 588, flags: DIFlagPublic | DIFlagPrototyped | DIFlagStaticMember, spFlags: DISPFlagOptimized)
!852 = !DISubroutineType(types: !853)
!853 = !{!415}
!854 = !DISubprogram(name: "warp_set_class", linkageName: "_ZN9Timestamp14warp_set_classENS_15warp_class_typeEd", scope: !386, file: !387, line: 621, type: !855, scopeLine: 621, flags: DIFlagPublic | DIFlagPrototyped | DIFlagStaticMember, spFlags: DISPFlagOptimized)
!855 = !DISubroutineType(types: !856)
!856 = !{null, !857, !415}
!857 = !DICompositeType(tag: DW_TAG_enumeration_type, name: "warp_class_type", scope: !386, file: !387, line: 571, baseType: !16, size: 32, elements: !858, identifier: "_ZTSN9Timestamp15warp_class_typeE")
!858 = !{!859, !860, !861, !862}
!859 = !DIEnumerator(name: "warp_none", value: 0, isUnsigned: true)
!860 = !DIEnumerator(name: "warp_linear", value: 1, isUnsigned: true)
!861 = !DIEnumerator(name: "warp_nowait", value: 2, isUnsigned: true)
!862 = !DIEnumerator(name: "warp_simulation", value: 3, isUnsigned: true)
!863 = !DISubprogram(name: "warp_set_now", linkageName: "_ZN9Timestamp12warp_set_nowERKS_S1_", scope: !386, file: !387, line: 628, type: !864, scopeLine: 628, flags: DIFlagPublic | DIFlagPrototyped | DIFlagStaticMember, spFlags: DISPFlagOptimized)
!864 = !DISubroutineType(types: !865)
!865 = !{null, !384, !384}
!866 = !DISubprogram(name: "warp_real_delay", linkageName: "_ZNK9Timestamp15warp_real_delayEv", scope: !386, file: !387, line: 632, type: !498, scopeLine: 632, flags: DIFlagPublic | DIFlagPrototyped, spFlags: DISPFlagOptimized)
!867 = !DISubprogram(name: "warp_jumping", linkageName: "_ZN9Timestamp12warp_jumpingEv", scope: !386, file: !387, line: 635, type: !868, scopeLine: 635, flags: DIFlagPublic | DIFlagPrototyped | DIFlagStaticMember, spFlags: DISPFlagOptimized)
!868 = !DISubroutineType(types: !869)
!869 = !{!53}
!870 = !DISubprogram(name: "warp_jump_steady", linkageName: "_ZN9Timestamp16warp_jump_steadyERKS_", scope: !386, file: !387, line: 640, type: !871, scopeLine: 640, flags: DIFlagPublic | DIFlagPrototyped | DIFlagStaticMember, spFlags: DISPFlagOptimized)
!871 = !DISubroutineType(types: !872)
!872 = !{null, !384}
!873 = !DISubprogram(name: "now_unwarped", linkageName: "_ZN9Timestamp12now_unwarpedEv", scope: !386, file: !387, line: 647, type: !528, scopeLine: 647, flags: DIFlagPublic | DIFlagPrototyped | DIFlagStaticMember, spFlags: DISPFlagOptimized)
!874 = !DISubprogram(name: "assign_now_unwarped", linkageName: "_ZN9Timestamp19assign_now_unwarpedEv", scope: !386, file: !387, line: 653, type: !397, scopeLine: 653, flags: DIFlagPublic | DIFlagPrototyped, spFlags: DISPFlagOptimized)
!875 = !DISubprogram(name: "now_steady_unwarped", linkageName: "_ZN9Timestamp19now_steady_unwarpedEv", scope: !386, file: !387, line: 659, type: !528, scopeLine: 659, flags: DIFlagPublic | DIFlagPrototyped | DIFlagStaticMember, spFlags: DISPFlagOptimized)
!876 = !DISubprogram(name: "assign_now_steady_unwarped", linkageName: "_ZN9Timestamp26assign_now_steady_unwarpedEv", scope: !386, file: !387, line: 666, type: !397, scopeLine: 666, flags: DIFlagPublic | DIFlagPrototyped, spFlags: DISPFlagOptimized)
!877 = !DISubprogram(name: "add_fix", linkageName: "_ZN9Timestamp7add_fixEv", scope: !386, file: !387, line: 674, type: !397, scopeLine: 674, flags: DIFlagPrototyped, spFlags: DISPFlagOptimized)
!878 = !DISubprogram(name: "sub_fix", linkageName: "_ZN9Timestamp7sub_fixEv", scope: !386, file: !387, line: 686, type: !397, scopeLine: 686, flags: DIFlagPrototyped, spFlags: DISPFlagOptimized)
!879 = !DISubprogram(name: "value_div", linkageName: "_ZN9Timestamp9value_divElj", scope: !386, file: !387, line: 698, type: !880, scopeLine: 698, flags: DIFlagPrototyped | DIFlagStaticMember, spFlags: DISPFlagOptimized)
!880 = !DISubroutineType(types: !881)
!881 = !{!494, !494, !12}
!882 = !DISubprogram(name: "value_div_mod", linkageName: "_ZN9Timestamp13value_div_modERiS0_lj", scope: !386, file: !387, line: 702, type: !883, scopeLine: 702, flags: DIFlagPrototyped | DIFlagStaticMember, spFlags: DISPFlagOptimized)
!883 = !DISubroutineType(types: !884)
!884 = !{null, !885, !885, !494, !12}
!885 = !DIDerivedType(tag: DW_TAG_reference_type, baseType: !31, size: 64)
!886 = !DISubprogram(name: "assign_now", linkageName: "_ZN9Timestamp10assign_nowEbbb", scope: !386, file: !387, line: 709, type: !887, scopeLine: 709, flags: DIFlagPrototyped, spFlags: DISPFlagOptimized)
!887 = !DISubroutineType(types: !888)
!888 = !{null, !399, !53, !53, !53}
!889 = !DISubprogram(name: "warp_adjust", linkageName: "_ZN9Timestamp11warp_adjustEbRKS_S1_", scope: !386, file: !387, line: 712, type: !890, scopeLine: 712, flags: DIFlagPrototyped | DIFlagStaticMember, spFlags: DISPFlagOptimized)
!890 = !DISubroutineType(types: !891)
!891 = !{null, !53, !384, !384}
!892 = !DISubprogram(name: "warped", linkageName: "_ZNK9Timestamp6warpedEb", scope: !386, file: !387, line: 713, type: !893, scopeLine: 713, flags: DIFlagPrototyped, spFlags: DISPFlagOptimized)
!893 = !DISubroutineType(types: !894)
!894 = !{!386, !461, !53}
!895 = !DISubprogram(name: "warp", linkageName: "_ZN9Timestamp4warpEbb", scope: !386, file: !387, line: 714, type: !896, scopeLine: 714, flags: DIFlagPrototyped, spFlags: DISPFlagOptimized)
!896 = !DISubroutineType(types: !897)
!897 = !{null, !399, !53, !53}
!898 = !DISubprogram(name: "timestamp_anno", linkageName: "_ZN6Packet14timestamp_annoEv", scope: !5, file: !4, line: 356, type: !899, scopeLine: 356, flags: DIFlagPublic | DIFlagPrototyped, spFlags: DISPFlagOptimized)
!899 = !DISubroutineType(types: !900)
!900 = !{!901, !241}
!901 = !DIDerivedType(tag: DW_TAG_reference_type, baseType: !386, size: 64)
!902 = !DISubprogram(name: "set_timestamp_anno", linkageName: "_ZN6Packet18set_timestamp_annoERK9Timestamp", scope: !5, file: !4, line: 359, type: !903, scopeLine: 359, flags: DIFlagPublic | DIFlagPrototyped, spFlags: DISPFlagOptimized)
!903 = !DISubroutineType(types: !904)
!904 = !{null, !241, !384}
!905 = !DISubprogram(name: "device_anno", linkageName: "_ZNK6Packet11device_annoEv", scope: !5, file: !4, line: 362, type: !906, scopeLine: 362, flags: DIFlagPublic | DIFlagPrototyped, spFlags: DISPFlagOptimized)
!906 = !DISubroutineType(types: !907)
!907 = !{!908, !245}
!908 = !DIDerivedType(tag: DW_TAG_pointer_type, baseType: !909, size: 64)
!909 = !DIDerivedType(tag: DW_TAG_typedef, name: "net_device", file: !506, line: 326, baseType: !910)
!910 = !DICompositeType(tag: DW_TAG_structure_type, name: "device", file: !506, line: 326, flags: DIFlagFwdDecl, identifier: "_ZTS6device")
!911 = !DISubprogram(name: "set_device_anno", linkageName: "_ZN6Packet15set_device_annoEP6device", scope: !5, file: !4, line: 364, type: !912, scopeLine: 364, flags: DIFlagPublic | DIFlagPrototyped, spFlags: DISPFlagOptimized)
!912 = !DISubroutineType(types: !913)
!913 = !{null, !241, !908}
!914 = !DISubprogram(name: "packet_type_anno", linkageName: "_ZNK6Packet16packet_type_annoEv", scope: !5, file: !4, line: 383, type: !915, scopeLine: 383, flags: DIFlagPublic | DIFlagPrototyped, spFlags: DISPFlagOptimized)
!915 = !DISubroutineType(types: !916)
!916 = !{!3, !245}
!917 = !DISubprogram(name: "set_packet_type_anno", linkageName: "_ZN6Packet20set_packet_type_annoENS_10PacketTypeE", scope: !5, file: !4, line: 385, type: !918, scopeLine: 385, flags: DIFlagPublic | DIFlagPrototyped, spFlags: DISPFlagOptimized)
!918 = !DISubroutineType(types: !919)
!919 = !{null, !241, !3}
!920 = !DISubprogram(name: "next", linkageName: "_ZNK6Packet4nextEv", scope: !5, file: !4, line: 410, type: !921, scopeLine: 410, flags: DIFlagPublic | DIFlagPrototyped, spFlags: DISPFlagOptimized)
!921 = !DISubroutineType(types: !922)
!922 = !{!78, !245}
!923 = !DISubprogram(name: "next", linkageName: "_ZN6Packet4nextEv", scope: !5, file: !4, line: 412, type: !924, scopeLine: 412, flags: DIFlagPublic | DIFlagPrototyped, spFlags: DISPFlagOptimized)
!924 = !DISubroutineType(types: !925)
!925 = !{!926, !241}
!926 = !DIDerivedType(tag: DW_TAG_reference_type, baseType: !78, size: 64)
!927 = !DISubprogram(name: "set_next", linkageName: "_ZN6Packet8set_nextEPS_", scope: !5, file: !4, line: 414, type: !928, scopeLine: 414, flags: DIFlagPublic | DIFlagPrototyped, spFlags: DISPFlagOptimized)
!928 = !DISubroutineType(types: !929)
!929 = !{null, !241, !78}
!930 = !DISubprogram(name: "prev", linkageName: "_ZNK6Packet4prevEv", scope: !5, file: !4, line: 417, type: !921, scopeLine: 417, flags: DIFlagPublic | DIFlagPrototyped, spFlags: DISPFlagOptimized)
!931 = !DISubprogram(name: "prev", linkageName: "_ZN6Packet4prevEv", scope: !5, file: !4, line: 419, type: !924, scopeLine: 419, flags: DIFlagPublic | DIFlagPrototyped, spFlags: DISPFlagOptimized)
!932 = !DISubprogram(name: "set_prev", linkageName: "_ZN6Packet8set_prevEPS_", scope: !5, file: !4, line: 421, type: !928, scopeLine: 421, flags: DIFlagPublic | DIFlagPrototyped, spFlags: DISPFlagOptimized)
!933 = !DISubprogram(name: "dst_ip_anno", linkageName: "_ZNK6Packet11dst_ip_annoEv", scope: !5, file: !4, line: 431, type: !934, scopeLine: 431, flags: DIFlagPublic | DIFlagPrototyped, spFlags: DISPFlagOptimized)
!934 = !DISubroutineType(types: !935)
!935 = !{!936, !245}
!936 = distinct !DICompositeType(tag: DW_TAG_class_type, name: "IPAddress", file: !937, line: 15, size: 32, flags: DIFlagTypePassByValue | DIFlagNonTrivial, elements: !938, identifier: "_ZTS9IPAddress")
!937 = !DIFile(filename: "../dummy_inc/click/ipaddress.hh", directory: "/home/john/projects/click/ir-dir")
!938 = !{!939, !940, !944, !947, !950, !953, !956, !959, !962, !965, !970, !973, !976, !981, !984, !985, !986, !987, !990, !991, !994, !997, !998, !1001, !1004, !1007, !1008, !1012, !1013, !1014, !1017, !1018, !1021, !1022}
!939 = !DIDerivedType(tag: DW_TAG_member, name: "_addr", scope: !936, file: !937, line: 152, baseType: !12, size: 32)
!940 = !DISubprogram(name: "IPAddress", scope: !936, file: !937, line: 20, type: !941, scopeLine: 20, flags: DIFlagPublic | DIFlagPrototyped, spFlags: DISPFlagOptimized)
!941 = !DISubroutineType(types: !942)
!942 = !{null, !943}
!943 = !DIDerivedType(tag: DW_TAG_pointer_type, baseType: !936, size: 64, flags: DIFlagArtificial | DIFlagObjectPointer)
!944 = !DISubprogram(name: "IPAddress", scope: !936, file: !937, line: 25, type: !945, scopeLine: 25, flags: DIFlagPublic | DIFlagPrototyped, spFlags: DISPFlagOptimized)
!945 = !DISubroutineType(types: !946)
!946 = !{null, !943, !16}
!947 = !DISubprogram(name: "IPAddress", scope: !936, file: !937, line: 29, type: !948, scopeLine: 29, flags: DIFlagPublic | DIFlagExplicit | DIFlagPrototyped, spFlags: DISPFlagOptimized)
!948 = !DISubroutineType(types: !949)
!949 = !{null, !943, !34}
!950 = !DISubprogram(name: "IPAddress", scope: !936, file: !937, line: 33, type: !951, scopeLine: 33, flags: DIFlagPublic | DIFlagExplicit | DIFlagPrototyped, spFlags: DISPFlagOptimized)
!951 = !DISubroutineType(types: !952)
!952 = !{null, !943, !115}
!953 = !DISubprogram(name: "IPAddress", scope: !936, file: !937, line: 37, type: !954, scopeLine: 37, flags: DIFlagPublic | DIFlagExplicit | DIFlagPrototyped, spFlags: DISPFlagOptimized)
!954 = !DISubroutineType(types: !955)
!955 = !{null, !943, !395}
!956 = !DISubprogram(name: "IPAddress", scope: !936, file: !937, line: 42, type: !957, scopeLine: 42, flags: DIFlagPublic | DIFlagPrototyped, spFlags: DISPFlagOptimized)
!957 = !DISubroutineType(types: !958)
!958 = !{null, !943, !176}
!959 = !DISubprogram(name: "IPAddress", scope: !936, file: !937, line: 50, type: !960, scopeLine: 50, flags: DIFlagPublic | DIFlagExplicit | DIFlagPrototyped, spFlags: DISPFlagOptimized)
!960 = !DISubroutineType(types: !961)
!961 = !{null, !943, !255}
!962 = !DISubprogram(name: "IPAddress", scope: !936, file: !937, line: 63, type: !963, scopeLine: 63, flags: DIFlagPublic | DIFlagExplicit | DIFlagPrototyped, spFlags: DISPFlagOptimized)
!963 = !DISubroutineType(types: !964)
!964 = !{null, !943, !595}
!965 = !DISubprogram(name: "IPAddress", scope: !936, file: !937, line: 66, type: !966, scopeLine: 66, flags: DIFlagPublic | DIFlagPrototyped, spFlags: DISPFlagOptimized)
!966 = !DISubroutineType(types: !967)
!967 = !{null, !943, !968}
!968 = !DIDerivedType(tag: DW_TAG_reference_type, baseType: !969, size: 64)
!969 = !DIDerivedType(tag: DW_TAG_const_type, baseType: !450)
!970 = !DISubprogram(name: "make_prefix", linkageName: "_ZN9IPAddress11make_prefixEi", scope: !936, file: !937, line: 78, type: !971, scopeLine: 78, flags: DIFlagPublic | DIFlagPrototyped | DIFlagStaticMember, spFlags: DISPFlagOptimized)
!971 = !DISubroutineType(types: !972)
!972 = !{!936, !34}
!973 = !DISubprogram(name: "make_broadcast", linkageName: "_ZN9IPAddress14make_broadcastEv", scope: !936, file: !937, line: 81, type: !974, scopeLine: 81, flags: DIFlagPublic | DIFlagPrototyped | DIFlagStaticMember, spFlags: DISPFlagOptimized)
!974 = !DISubroutineType(types: !975)
!975 = !{!936}
!976 = !DISubprogram(name: "empty", linkageName: "_ZNK9IPAddress5emptyEv", scope: !936, file: !937, line: 86, type: !977, scopeLine: 86, flags: DIFlagPublic | DIFlagPrototyped, spFlags: DISPFlagOptimized)
!977 = !DISubroutineType(types: !978)
!978 = !{!53, !979}
!979 = !DIDerivedType(tag: DW_TAG_pointer_type, baseType: !980, size: 64, flags: DIFlagArtificial | DIFlagObjectPointer)
!980 = !DIDerivedType(tag: DW_TAG_const_type, baseType: !936)
!981 = !DISubprogram(name: "addr", linkageName: "_ZNK9IPAddress4addrEv", scope: !936, file: !937, line: 91, type: !982, scopeLine: 91, flags: DIFlagPublic | DIFlagPrototyped, spFlags: DISPFlagOptimized)
!982 = !DISubroutineType(types: !983)
!983 = !{!12, !979}
!984 = !DISubprogram(name: "operator unsigned int", linkageName: "_ZNK9IPAddresscvjEv", scope: !936, file: !937, line: 99, type: !982, scopeLine: 99, flags: DIFlagPublic | DIFlagPrototyped, spFlags: DISPFlagOptimized)
!985 = !DISubprogram(name: "is_multicast", linkageName: "_ZNK9IPAddress12is_multicastEv", scope: !936, file: !937, line: 106, type: !977, scopeLine: 106, flags: DIFlagPublic | DIFlagPrototyped, spFlags: DISPFlagOptimized)
!986 = !DISubprogram(name: "is_link_local", linkageName: "_ZNK9IPAddress13is_link_localEv", scope: !936, file: !937, line: 110, type: !977, scopeLine: 110, flags: DIFlagPublic | DIFlagPrototyped, spFlags: DISPFlagOptimized)
!987 = !DISubprogram(name: "in_addr", linkageName: "_ZNK9IPAddress7in_addrEv", scope: !936, file: !937, line: 114, type: !988, scopeLine: 114, flags: DIFlagPublic | DIFlagPrototyped, spFlags: DISPFlagOptimized)
!988 = !DISubroutineType(types: !989)
!989 = !{!176, !979}
!990 = !DISubprogram(name: "operator in_addr", linkageName: "_ZNK9IPAddresscv7in_addrEv", scope: !936, file: !937, line: 115, type: !988, scopeLine: 115, flags: DIFlagPublic | DIFlagPrototyped, spFlags: DISPFlagOptimized)
!991 = !DISubprogram(name: "data", linkageName: "_ZN9IPAddress4dataEv", scope: !936, file: !937, line: 117, type: !992, scopeLine: 117, flags: DIFlagPublic | DIFlagPrototyped, spFlags: DISPFlagOptimized)
!992 = !DISubroutineType(types: !993)
!993 = !{!80, !943}
!994 = !DISubprogram(name: "data", linkageName: "_ZNK9IPAddress4dataEv", scope: !936, file: !937, line: 118, type: !995, scopeLine: 118, flags: DIFlagPublic | DIFlagPrototyped, spFlags: DISPFlagOptimized)
!995 = !DISubroutineType(types: !996)
!996 = !{!255, !979}
!997 = !DISubprogram(name: "hashcode", linkageName: "_ZNK9IPAddress8hashcodeEv", scope: !936, file: !937, line: 120, type: !982, scopeLine: 120, flags: DIFlagPublic | DIFlagPrototyped, spFlags: DISPFlagOptimized)
!998 = !DISubprogram(name: "mask_to_prefix_len", linkageName: "_ZNK9IPAddress18mask_to_prefix_lenEv", scope: !936, file: !937, line: 122, type: !999, scopeLine: 122, flags: DIFlagPublic | DIFlagPrototyped, spFlags: DISPFlagOptimized)
!999 = !DISubroutineType(types: !1000)
!1000 = !{!34, !979}
!1001 = !DISubprogram(name: "matches_prefix", linkageName: "_ZNK9IPAddress14matches_prefixES_S_", scope: !936, file: !937, line: 123, type: !1002, scopeLine: 123, flags: DIFlagPublic | DIFlagPrototyped, spFlags: DISPFlagOptimized)
!1002 = !DISubroutineType(types: !1003)
!1003 = !{!53, !979, !936, !936}
!1004 = !DISubprogram(name: "mask_as_specific", linkageName: "_ZNK9IPAddress16mask_as_specificES_", scope: !936, file: !937, line: 124, type: !1005, scopeLine: 124, flags: DIFlagPublic | DIFlagPrototyped, spFlags: DISPFlagOptimized)
!1005 = !DISubroutineType(types: !1006)
!1006 = !{!53, !979, !936}
!1007 = !DISubprogram(name: "mask_more_specific", linkageName: "_ZNK9IPAddress18mask_more_specificES_", scope: !936, file: !937, line: 125, type: !1005, scopeLine: 125, flags: DIFlagPublic | DIFlagPrototyped, spFlags: DISPFlagOptimized)
!1008 = !DISubprogram(name: "operator&=", linkageName: "_ZN9IPAddressaNES_", scope: !936, file: !937, line: 137, type: !1009, scopeLine: 137, flags: DIFlagPublic | DIFlagPrototyped, spFlags: DISPFlagOptimized)
!1009 = !DISubroutineType(types: !1010)
!1010 = !{!1011, !943, !936}
!1011 = !DIDerivedType(tag: DW_TAG_reference_type, baseType: !936, size: 64)
!1012 = !DISubprogram(name: "operator|=", linkageName: "_ZN9IPAddressoRES_", scope: !936, file: !937, line: 138, type: !1009, scopeLine: 138, flags: DIFlagPublic | DIFlagPrototyped, spFlags: DISPFlagOptimized)
!1013 = !DISubprogram(name: "operator^=", linkageName: "_ZN9IPAddresseOES_", scope: !936, file: !937, line: 139, type: !1009, scopeLine: 139, flags: DIFlagPublic | DIFlagPrototyped, spFlags: DISPFlagOptimized)
!1014 = !DISubprogram(name: "unparse", linkageName: "_ZNK9IPAddress7unparseEv", scope: !936, file: !937, line: 141, type: !1015, scopeLine: 141, flags: DIFlagPublic | DIFlagPrototyped, spFlags: DISPFlagOptimized)
!1015 = !DISubroutineType(types: !1016)
!1016 = !{!554, !979}
!1017 = !DISubprogram(name: "unparse_mask", linkageName: "_ZNK9IPAddress12unparse_maskEv", scope: !936, file: !937, line: 142, type: !1015, scopeLine: 142, flags: DIFlagPublic | DIFlagPrototyped, spFlags: DISPFlagOptimized)
!1018 = !DISubprogram(name: "unparse_with_mask", linkageName: "_ZNK9IPAddress17unparse_with_maskES_", scope: !936, file: !937, line: 143, type: !1019, scopeLine: 143, flags: DIFlagPublic | DIFlagPrototyped, spFlags: DISPFlagOptimized)
!1019 = !DISubroutineType(types: !1020)
!1020 = !{!554, !979, !936}
!1021 = !DISubprogram(name: "s", linkageName: "_ZNK9IPAddress1sEv", scope: !936, file: !937, line: 145, type: !1015, scopeLine: 145, flags: DIFlagPublic | DIFlagPrototyped, spFlags: DISPFlagOptimized)
!1022 = !DISubprogram(name: "operator String", linkageName: "_ZNK9IPAddresscv6StringEv", scope: !936, file: !937, line: 146, type: !1015, scopeLine: 146, flags: DIFlagPublic | DIFlagPrototyped, spFlags: DISPFlagOptimized)
!1023 = !DISubprogram(name: "set_dst_ip_anno", linkageName: "_ZN6Packet15set_dst_ip_annoE9IPAddress", scope: !5, file: !4, line: 436, type: !1024, scopeLine: 436, flags: DIFlagPublic | DIFlagPrototyped, spFlags: DISPFlagOptimized)
!1024 = !DISubroutineType(types: !1025)
!1025 = !{null, !241, !936}
!1026 = !DISubprogram(name: "anno", linkageName: "_ZN6Packet4annoEv", scope: !5, file: !4, line: 441, type: !273, scopeLine: 441, flags: DIFlagPublic | DIFlagPrototyped, spFlags: DISPFlagOptimized)
!1027 = !DISubprogram(name: "anno", linkageName: "_ZNK6Packet4annoEv", scope: !5, file: !4, line: 444, type: !1028, scopeLine: 444, flags: DIFlagPublic | DIFlagPrototyped, spFlags: DISPFlagOptimized)
!1028 = !DISubroutineType(types: !1029)
!1029 = !{!224, !245}
!1030 = !DISubprogram(name: "anno_u8", linkageName: "_ZN6Packet7anno_u8Ev", scope: !5, file: !4, line: 447, type: !1031, scopeLine: 447, flags: DIFlagPublic | DIFlagPrototyped, spFlags: DISPFlagOptimized)
!1031 = !DISubroutineType(types: !1032)
!1032 = !{!1033, !241}
!1033 = !DIDerivedType(tag: DW_TAG_pointer_type, baseType: !98, size: 64)
!1034 = !DISubprogram(name: "anno_u8", linkageName: "_ZNK6Packet7anno_u8Ev", scope: !5, file: !4, line: 450, type: !1035, scopeLine: 450, flags: DIFlagPublic | DIFlagPrototyped, spFlags: DISPFlagOptimized)
!1035 = !DISubroutineType(types: !1036)
!1036 = !{!1037, !245}
!1037 = !DIDerivedType(tag: DW_TAG_pointer_type, baseType: !1038, size: 64)
!1038 = !DIDerivedType(tag: DW_TAG_const_type, baseType: !98)
!1039 = !DISubprogram(name: "anno_u32", linkageName: "_ZN6Packet8anno_u32Ev", scope: !5, file: !4, line: 453, type: !1040, scopeLine: 453, flags: DIFlagPublic | DIFlagPrototyped, spFlags: DISPFlagOptimized)
!1040 = !DISubroutineType(types: !1041)
!1041 = !{!1042, !241}
!1042 = !DIDerivedType(tag: DW_TAG_pointer_type, baseType: !12, size: 64)
!1043 = !DISubprogram(name: "anno_u32", linkageName: "_ZNK6Packet8anno_u32Ev", scope: !5, file: !4, line: 456, type: !1044, scopeLine: 456, flags: DIFlagPublic | DIFlagPrototyped, spFlags: DISPFlagOptimized)
!1044 = !DISubroutineType(types: !1045)
!1045 = !{!1046, !245}
!1046 = !DIDerivedType(tag: DW_TAG_pointer_type, baseType: !1047, size: 64)
!1047 = !DIDerivedType(tag: DW_TAG_const_type, baseType: !12)
!1048 = !DISubprogram(name: "anno_u8", linkageName: "_ZNK6Packet7anno_u8Ei", scope: !5, file: !4, line: 460, type: !1049, scopeLine: 460, flags: DIFlagPublic | DIFlagPrototyped, spFlags: DISPFlagOptimized)
!1049 = !DISubroutineType(types: !1050)
!1050 = !{!98, !245, !34}
!1051 = !DISubprogram(name: "set_anno_u8", linkageName: "_ZN6Packet11set_anno_u8Eih", scope: !5, file: !4, line: 469, type: !1052, scopeLine: 469, flags: DIFlagPublic | DIFlagPrototyped, spFlags: DISPFlagOptimized)
!1052 = !DISubroutineType(types: !1053)
!1053 = !{null, !241, !34, !98}
!1054 = !DISubprogram(name: "anno_u16", linkageName: "_ZNK6Packet8anno_u16Ei", scope: !5, file: !4, line: 479, type: !1055, scopeLine: 479, flags: DIFlagPublic | DIFlagPrototyped, spFlags: DISPFlagOptimized)
!1055 = !DISubroutineType(types: !1056)
!1056 = !{!102, !245, !34}
!1057 = !DISubprogram(name: "set_anno_u16", linkageName: "_ZN6Packet12set_anno_u16Eit", scope: !5, file: !4, line: 494, type: !1058, scopeLine: 494, flags: DIFlagPublic | DIFlagPrototyped, spFlags: DISPFlagOptimized)
!1058 = !DISubroutineType(types: !1059)
!1059 = !{null, !241, !34, !102}
!1060 = !DISubprogram(name: "anno_s16", linkageName: "_ZNK6Packet8anno_s16Ei", scope: !5, file: !4, line: 507, type: !1061, scopeLine: 507, flags: DIFlagPublic | DIFlagPrototyped, spFlags: DISPFlagOptimized)
!1061 = !DISubroutineType(types: !1062)
!1062 = !{!1063, !245, !34}
!1063 = !DIDerivedType(tag: DW_TAG_typedef, name: "int16_t", file: !32, line: 25, baseType: !1064)
!1064 = !DIDerivedType(tag: DW_TAG_typedef, name: "__int16_t", file: !15, line: 39, baseType: !1065)
!1065 = !DIBasicType(name: "short", size: 16, encoding: DW_ATE_signed)
!1066 = !DISubprogram(name: "set_anno_s16", linkageName: "_ZN6Packet12set_anno_s16Eis", scope: !5, file: !4, line: 522, type: !1067, scopeLine: 522, flags: DIFlagPublic | DIFlagPrototyped, spFlags: DISPFlagOptimized)
!1067 = !DISubroutineType(types: !1068)
!1068 = !{null, !241, !34, !1063}
!1069 = !DISubprogram(name: "anno_u32", linkageName: "_ZNK6Packet8anno_u32Ei", scope: !5, file: !4, line: 535, type: !1070, scopeLine: 535, flags: DIFlagPublic | DIFlagPrototyped, spFlags: DISPFlagOptimized)
!1070 = !DISubroutineType(types: !1071)
!1071 = !{!12, !245, !34}
!1072 = !DISubprogram(name: "set_anno_u32", linkageName: "_ZN6Packet12set_anno_u32Eij", scope: !5, file: !4, line: 550, type: !1073, scopeLine: 550, flags: DIFlagPublic | DIFlagPrototyped, spFlags: DISPFlagOptimized)
!1073 = !DISubroutineType(types: !1074)
!1074 = !{null, !241, !34, !12}
!1075 = !DISubprogram(name: "anno_s32", linkageName: "_ZNK6Packet8anno_s32Ei", scope: !5, file: !4, line: 556, type: !1076, scopeLine: 556, flags: DIFlagPublic | DIFlagPrototyped, spFlags: DISPFlagOptimized)
!1076 = !DISubroutineType(types: !1077)
!1077 = !{!31, !245, !34}
!1078 = !DISubprogram(name: "set_anno_s32", linkageName: "_ZN6Packet12set_anno_s32Eii", scope: !5, file: !4, line: 571, type: !1079, scopeLine: 571, flags: DIFlagPublic | DIFlagPrototyped, spFlags: DISPFlagOptimized)
!1079 = !DISubroutineType(types: !1080)
!1080 = !{null, !241, !34, !31}
!1081 = !DISubprogram(name: "anno_u64", linkageName: "_ZNK6Packet8anno_u64Ei", scope: !5, file: !4, line: 585, type: !1082, scopeLine: 585, flags: DIFlagPublic | DIFlagPrototyped, spFlags: DISPFlagOptimized)
!1082 = !DISubroutineType(types: !1083)
!1083 = !{!113, !245, !34}
!1084 = !DISubprogram(name: "set_anno_u64", linkageName: "_ZN6Packet12set_anno_u64Eim", scope: !5, file: !4, line: 600, type: !1085, scopeLine: 600, flags: DIFlagPublic | DIFlagPrototyped, spFlags: DISPFlagOptimized)
!1085 = !DISubroutineType(types: !1086)
!1086 = !{null, !241, !34, !113}
!1087 = !DISubprogram(name: "anno_ptr", linkageName: "_ZNK6Packet8anno_ptrEi", scope: !5, file: !4, line: 614, type: !1088, scopeLine: 614, flags: DIFlagPublic | DIFlagPrototyped, spFlags: DISPFlagOptimized)
!1088 = !DISubroutineType(types: !1089)
!1089 = !{!135, !245, !34}
!1090 = !DISubprogram(name: "set_anno_ptr", linkageName: "_ZN6Packet12set_anno_ptrEiPKv", scope: !5, file: !4, line: 629, type: !1091, scopeLine: 629, flags: DIFlagPublic | DIFlagPrototyped, spFlags: DISPFlagOptimized)
!1091 = !DISubroutineType(types: !1092)
!1092 = !{null, !241, !34, !224}
!1093 = !DISubprogram(name: "data_packet", linkageName: "_ZN6Packet11data_packetEv", scope: !5, file: !4, line: 638, type: !247, scopeLine: 638, flags: DIFlagPublic | DIFlagPrototyped, spFlags: DISPFlagOptimized)
!1094 = !DISubprogram(name: "clear_annotations", linkageName: "_ZN6Packet17clear_annotationsEb", scope: !5, file: !4, line: 643, type: !1095, scopeLine: 643, flags: DIFlagPublic | DIFlagPrototyped, spFlags: DISPFlagOptimized)
!1095 = !DISubroutineType(types: !1096)
!1096 = !{null, !241, !53}
!1097 = !DISubprogram(name: "copy_annotations", linkageName: "_ZN6Packet16copy_annotationsEPKS_", scope: !5, file: !4, line: 644, type: !1098, scopeLine: 644, flags: DIFlagPublic | DIFlagPrototyped, spFlags: DISPFlagOptimized)
!1098 = !DISubroutineType(types: !1099)
!1099 = !{null, !241, !1100}
!1100 = !DIDerivedType(tag: DW_TAG_pointer_type, baseType: !213, size: 64)
!1101 = !DISubprogram(name: "buffer_data", linkageName: "_ZNK6Packet11buffer_dataEv", scope: !5, file: !4, line: 661, type: !253, scopeLine: 661, flags: DIFlagPublic | DIFlagPrototyped, spFlags: DISPFlagOptimized)
!1102 = !DISubprogram(name: "addr_anno", linkageName: "_ZN6Packet9addr_annoEv", scope: !5, file: !4, line: 662, type: !273, scopeLine: 662, flags: DIFlagPublic | DIFlagPrototyped, spFlags: DISPFlagOptimized)
!1103 = !DISubprogram(name: "addr_anno", linkageName: "_ZNK6Packet9addr_annoEv", scope: !5, file: !4, line: 663, type: !1028, scopeLine: 663, flags: DIFlagPublic | DIFlagPrototyped, spFlags: DISPFlagOptimized)
!1104 = !DISubprogram(name: "user_anno", linkageName: "_ZN6Packet9user_annoEv", scope: !5, file: !4, line: 664, type: !273, scopeLine: 664, flags: DIFlagPublic | DIFlagPrototyped, spFlags: DISPFlagOptimized)
!1105 = !DISubprogram(name: "user_anno", linkageName: "_ZNK6Packet9user_annoEv", scope: !5, file: !4, line: 665, type: !1028, scopeLine: 665, flags: DIFlagPublic | DIFlagPrototyped, spFlags: DISPFlagOptimized)
!1106 = !DISubprogram(name: "user_anno_u8", linkageName: "_ZN6Packet12user_anno_u8Ev", scope: !5, file: !4, line: 666, type: !1031, scopeLine: 666, flags: DIFlagPublic | DIFlagPrototyped, spFlags: DISPFlagOptimized)
!1107 = !DISubprogram(name: "user_anno_u8", linkageName: "_ZNK6Packet12user_anno_u8Ev", scope: !5, file: !4, line: 667, type: !1035, scopeLine: 667, flags: DIFlagPublic | DIFlagPrototyped, spFlags: DISPFlagOptimized)
!1108 = !DISubprogram(name: "user_anno_u32", linkageName: "_ZN6Packet13user_anno_u32Ev", scope: !5, file: !4, line: 668, type: !1040, scopeLine: 668, flags: DIFlagPublic | DIFlagPrototyped, spFlags: DISPFlagOptimized)
!1109 = !DISubprogram(name: "user_anno_u32", linkageName: "_ZNK6Packet13user_anno_u32Ev", scope: !5, file: !4, line: 669, type: !1044, scopeLine: 669, flags: DIFlagPublic | DIFlagPrototyped, spFlags: DISPFlagOptimized)
!1110 = !DISubprogram(name: "user_anno_u8", linkageName: "_ZNK6Packet12user_anno_u8Ei", scope: !5, file: !4, line: 670, type: !1049, scopeLine: 670, flags: DIFlagPublic | DIFlagPrototyped, spFlags: DISPFlagOptimized)
!1111 = !DISubprogram(name: "set_user_anno_u8", linkageName: "_ZN6Packet16set_user_anno_u8Eih", scope: !5, file: !4, line: 671, type: !1052, scopeLine: 671, flags: DIFlagPublic | DIFlagPrototyped, spFlags: DISPFlagOptimized)
!1112 = !DISubprogram(name: "user_anno_u16", linkageName: "_ZNK6Packet13user_anno_u16Ei", scope: !5, file: !4, line: 672, type: !1055, scopeLine: 672, flags: DIFlagPublic | DIFlagPrototyped, spFlags: DISPFlagOptimized)
!1113 = !DISubprogram(name: "set_user_anno_u16", linkageName: "_ZN6Packet17set_user_anno_u16Eit", scope: !5, file: !4, line: 673, type: !1058, scopeLine: 673, flags: DIFlagPublic | DIFlagPrototyped, spFlags: DISPFlagOptimized)
!1114 = !DISubprogram(name: "user_anno_u32", linkageName: "_ZNK6Packet13user_anno_u32Ei", scope: !5, file: !4, line: 674, type: !1070, scopeLine: 674, flags: DIFlagPublic | DIFlagPrototyped, spFlags: DISPFlagOptimized)
!1115 = !DISubprogram(name: "set_user_anno_u32", linkageName: "_ZN6Packet17set_user_anno_u32Eij", scope: !5, file: !4, line: 675, type: !1073, scopeLine: 675, flags: DIFlagPublic | DIFlagPrototyped, spFlags: DISPFlagOptimized)
!1116 = !DISubprogram(name: "user_anno_s32", linkageName: "_ZNK6Packet13user_anno_s32Ei", scope: !5, file: !4, line: 676, type: !1076, scopeLine: 676, flags: DIFlagPublic | DIFlagPrototyped, spFlags: DISPFlagOptimized)
!1117 = !DISubprogram(name: "set_user_anno_s32", linkageName: "_ZN6Packet17set_user_anno_s32Eii", scope: !5, file: !4, line: 677, type: !1079, scopeLine: 677, flags: DIFlagPublic | DIFlagPrototyped, spFlags: DISPFlagOptimized)
!1118 = !DISubprogram(name: "user_anno_u64", linkageName: "_ZNK6Packet13user_anno_u64Ei", scope: !5, file: !4, line: 679, type: !1082, scopeLine: 679, flags: DIFlagPublic | DIFlagPrototyped, spFlags: DISPFlagOptimized)
!1119 = !DISubprogram(name: "set_user_anno_u64", linkageName: "_ZN6Packet17set_user_anno_u64Eim", scope: !5, file: !4, line: 680, type: !1085, scopeLine: 680, flags: DIFlagPublic | DIFlagPrototyped, spFlags: DISPFlagOptimized)
!1120 = !DISubprogram(name: "all_user_anno", linkageName: "_ZNK6Packet13all_user_annoEv", scope: !5, file: !4, line: 682, type: !1035, scopeLine: 682, flags: DIFlagPublic | DIFlagPrototyped, spFlags: DISPFlagOptimized)
!1121 = !DISubprogram(name: "all_user_anno", linkageName: "_ZN6Packet13all_user_annoEv", scope: !5, file: !4, line: 683, type: !1031, scopeLine: 683, flags: DIFlagPublic | DIFlagPrototyped, spFlags: DISPFlagOptimized)
!1122 = !DISubprogram(name: "all_user_anno_u", linkageName: "_ZNK6Packet15all_user_anno_uEv", scope: !5, file: !4, line: 684, type: !1044, scopeLine: 684, flags: DIFlagPublic | DIFlagPrototyped, spFlags: DISPFlagOptimized)
!1123 = !DISubprogram(name: "all_user_anno_u", linkageName: "_ZN6Packet15all_user_anno_uEv", scope: !5, file: !4, line: 685, type: !1040, scopeLine: 685, flags: DIFlagPublic | DIFlagPrototyped, spFlags: DISPFlagOptimized)
!1124 = !DISubprogram(name: "user_anno_c", linkageName: "_ZNK6Packet11user_anno_cEi", scope: !5, file: !4, line: 686, type: !1049, scopeLine: 686, flags: DIFlagPublic | DIFlagPrototyped, spFlags: DISPFlagOptimized)
!1125 = !DISubprogram(name: "set_user_anno_c", linkageName: "_ZN6Packet15set_user_anno_cEih", scope: !5, file: !4, line: 687, type: !1052, scopeLine: 687, flags: DIFlagPublic | DIFlagPrototyped, spFlags: DISPFlagOptimized)
!1126 = !DISubprogram(name: "user_anno_s", linkageName: "_ZNK6Packet11user_anno_sEi", scope: !5, file: !4, line: 688, type: !1061, scopeLine: 688, flags: DIFlagPublic | DIFlagPrototyped, spFlags: DISPFlagOptimized)
!1127 = !DISubprogram(name: "set_user_anno_s", linkageName: "_ZN6Packet15set_user_anno_sEis", scope: !5, file: !4, line: 689, type: !1067, scopeLine: 689, flags: DIFlagPublic | DIFlagPrototyped, spFlags: DISPFlagOptimized)
!1128 = !DISubprogram(name: "user_anno_us", linkageName: "_ZNK6Packet12user_anno_usEi", scope: !5, file: !4, line: 690, type: !1055, scopeLine: 690, flags: DIFlagPublic | DIFlagPrototyped, spFlags: DISPFlagOptimized)
!1129 = !DISubprogram(name: "set_user_anno_us", linkageName: "_ZN6Packet16set_user_anno_usEit", scope: !5, file: !4, line: 691, type: !1058, scopeLine: 691, flags: DIFlagPublic | DIFlagPrototyped, spFlags: DISPFlagOptimized)
!1130 = !DISubprogram(name: "user_anno_i", linkageName: "_ZNK6Packet11user_anno_iEi", scope: !5, file: !4, line: 692, type: !1076, scopeLine: 692, flags: DIFlagPublic | DIFlagPrototyped, spFlags: DISPFlagOptimized)
!1131 = !DISubprogram(name: "set_user_anno_i", linkageName: "_ZN6Packet15set_user_anno_iEii", scope: !5, file: !4, line: 693, type: !1079, scopeLine: 693, flags: DIFlagPublic | DIFlagPrototyped, spFlags: DISPFlagOptimized)
!1132 = !DISubprogram(name: "user_anno_u", linkageName: "_ZNK6Packet11user_anno_uEi", scope: !5, file: !4, line: 694, type: !1070, scopeLine: 694, flags: DIFlagPublic | DIFlagPrototyped, spFlags: DISPFlagOptimized)
!1133 = !DISubprogram(name: "set_user_anno_u", linkageName: "_ZN6Packet15set_user_anno_uEij", scope: !5, file: !4, line: 695, type: !1073, scopeLine: 695, flags: DIFlagPublic | DIFlagPrototyped, spFlags: DISPFlagOptimized)
!1134 = !DISubprogram(name: "Packet", scope: !5, file: !4, line: 751, type: !239, scopeLine: 751, flags: DIFlagPrototyped, spFlags: DISPFlagOptimized)
!1135 = !DISubprogram(name: "Packet", scope: !5, file: !4, line: 756, type: !1136, scopeLine: 756, flags: DIFlagPrototyped, spFlags: DISPFlagOptimized)
!1136 = !DISubroutineType(types: !1137)
!1137 = !{null, !241, !212}
!1138 = !DISubprogram(name: "~Packet", scope: !5, file: !4, line: 757, type: !239, scopeLine: 757, flags: DIFlagPrototyped, spFlags: DISPFlagOptimized)
!1139 = !DISubprogram(name: "operator=", linkageName: "_ZN6PacketaSERKS_", scope: !5, file: !4, line: 758, type: !1140, scopeLine: 758, flags: DIFlagPrototyped, spFlags: DISPFlagOptimized)
!1140 = !DISubroutineType(types: !1141)
!1141 = !{!1142, !241, !212}
!1142 = !DIDerivedType(tag: DW_TAG_reference_type, baseType: !5, size: 64)
!1143 = !DISubprogram(name: "alloc_data", linkageName: "_ZN6Packet10alloc_dataEjjj", scope: !5, file: !4, line: 761, type: !1144, scopeLine: 761, flags: DIFlagPrototyped, spFlags: DISPFlagOptimized)
!1144 = !DISubroutineType(types: !1145)
!1145 = !{!53, !241, !12, !12, !12}
!1146 = !DISubprogram(name: "shift_header_annotations", linkageName: "_ZN6Packet24shift_header_annotationsEPKhi", scope: !5, file: !4, line: 768, type: !1147, scopeLine: 768, flags: DIFlagPrototyped, spFlags: DISPFlagOptimized)
!1147 = !DISubroutineType(types: !1148)
!1148 = !{null, !241, !255, !31}
!1149 = !DISubprogram(name: "expensive_uniqueify", linkageName: "_ZN6Packet19expensive_uniqueifyEiib", scope: !5, file: !4, line: 769, type: !1150, scopeLine: 769, flags: DIFlagPrototyped, spFlags: DISPFlagOptimized)
!1150 = !DISubroutineType(types: !1151)
!1151 = !{!140, !241, !31, !31, !53}
!1152 = !DISubprogram(name: "expensive_push", linkageName: "_ZN6Packet14expensive_pushEj", scope: !5, file: !4, line: 770, type: !277, scopeLine: 770, flags: DIFlagPrototyped, spFlags: DISPFlagOptimized)
!1153 = !DISubprogram(name: "expensive_put", linkageName: "_ZN6Packet13expensive_putEj", scope: !5, file: !4, line: 771, type: !277, scopeLine: 771, flags: DIFlagPrototyped, spFlags: DISPFlagOptimized)
!1154 = !{!1155, !1156, !1157, !1158, !1159, !1160, !1161}
!1155 = !DIEnumerator(name: "HOST", value: 0, isUnsigned: true)
!1156 = !DIEnumerator(name: "BROADCAST", value: 1, isUnsigned: true)
!1157 = !DIEnumerator(name: "MULTICAST", value: 2, isUnsigned: true)
!1158 = !DIEnumerator(name: "OTHERHOST", value: 3, isUnsigned: true)
!1159 = !DIEnumerator(name: "OUTGOING", value: 4, isUnsigned: true)
!1160 = !DIEnumerator(name: "LOOPBACK", value: 5, isUnsigned: true)
!1161 = !DIEnumerator(name: "FASTROUTE", value: 6, isUnsigned: true)
!1162 = !DICompositeType(tag: DW_TAG_enumeration_type, scope: !1164, file: !1163, line: 89, baseType: !16, size: 32, elements: !1165, identifier: "_ZTSN13NotifierQueueUt_E")
!1163 = !DIFile(filename: "../elements/standard/notifierqueue.hh", directory: "/home/john/projects/click/ir-dir")
!1164 = !DICompositeType(tag: DW_TAG_class_type, name: "NotifierQueue", file: !1163, line: 71, flags: DIFlagFwdDecl, identifier: "_ZTS13NotifierQueue")
!1165 = !{!1166}
!1166 = !DIEnumerator(name: "SLEEPINESS_TRIGGER", value: 9, isUnsigned: true)
!1167 = !{!1168, !1271, !53, !1273, !1274, !16}
!1168 = !DIDerivedType(tag: DW_TAG_pointer_type, baseType: !1169, size: 64)
!1169 = distinct !DICompositeType(tag: DW_TAG_class_type, name: "FullNoteQueue", file: !1170, line: 68, size: 1920, flags: DIFlagTypePassByReference | DIFlagNonTrivial, elements: !1171, vtableHolder: !1269)
!1170 = !DIFile(filename: "../elements/standard/fullnotequeue.hh", directory: "/home/john/projects/click/ir-dir")
!1171 = !{!1172, !1173, !1176, !1180, !1185, !1188, !1196, !1197, !1200, !1203, !1260, !1263, !1266}
!1172 = !DIDerivedType(tag: DW_TAG_inheritance, scope: !1169, baseType: !1164, flags: DIFlagPublic, extraData: i32 0)
!1173 = !DIDerivedType(tag: DW_TAG_member, name: "_full_note", scope: !1169, file: !1170, line: 86, baseType: !1174, size: 384, offset: 1536, flags: DIFlagProtected)
!1174 = !DICompositeType(tag: DW_TAG_class_type, name: "ActiveNotifier", file: !1175, line: 132, flags: DIFlagFwdDecl, identifier: "_ZTS14ActiveNotifier")
!1175 = !DIFile(filename: "../dummy_inc/click/notifier.hh", directory: "/home/john/projects/click/ir-dir")
!1176 = !DISubprogram(name: "FullNoteQueue", scope: !1169, file: !1170, line: 70, type: !1177, scopeLine: 70, flags: DIFlagPublic | DIFlagPrototyped, spFlags: DISPFlagOptimized)
!1177 = !DISubroutineType(types: !1178)
!1178 = !{null, !1179}
!1179 = !DIDerivedType(tag: DW_TAG_pointer_type, baseType: !1169, size: 64, flags: DIFlagArtificial | DIFlagObjectPointer)
!1180 = !DISubprogram(name: "class_name", linkageName: "_ZNK13FullNoteQueue10class_nameEv", scope: !1169, file: !1170, line: 72, type: !1181, scopeLine: 72, containingType: !1169, virtualIndex: 9, flags: DIFlagPublic | DIFlagPrototyped, spFlags: DISPFlagVirtual | DISPFlagOptimized)
!1181 = !DISubroutineType(types: !1182)
!1182 = !{!566, !1183}
!1183 = !DIDerivedType(tag: DW_TAG_pointer_type, baseType: !1184, size: 64, flags: DIFlagArtificial | DIFlagObjectPointer)
!1184 = !DIDerivedType(tag: DW_TAG_const_type, baseType: !1169)
!1185 = !DISubprogram(name: "cast", linkageName: "_ZN13FullNoteQueue4castEPKc", scope: !1169, file: !1170, line: 73, type: !1186, scopeLine: 73, containingType: !1169, virtualIndex: 14, flags: DIFlagPublic | DIFlagPrototyped, spFlags: DISPFlagVirtual | DISPFlagOptimized)
!1186 = !DISubroutineType(types: !1187)
!1187 = !{!135, !1179, !566}
!1188 = !DISubprogram(name: "configure", linkageName: "_ZN13FullNoteQueue9configureER6VectorI6StringEP12ErrorHandler", scope: !1169, file: !1170, line: 75, type: !1189, scopeLine: 75, containingType: !1169, virtualIndex: 17, flags: DIFlagPublic | DIFlagPrototyped, spFlags: DISPFlagVirtual | DISPFlagOptimized)
!1189 = !DISubroutineType(types: !1190)
!1190 = !{!34, !1179, !1191, !1193}
!1191 = !DIDerivedType(tag: DW_TAG_reference_type, baseType: !1192, size: 64)
!1192 = !DICompositeType(tag: DW_TAG_class_type, name: "Vector<String>", file: !937, line: 13, flags: DIFlagFwdDecl, identifier: "_ZTS6VectorI6StringE")
!1193 = !DIDerivedType(tag: DW_TAG_pointer_type, baseType: !1194, size: 64)
!1194 = !DICompositeType(tag: DW_TAG_class_type, name: "ErrorHandler", file: !1195, line: 6, flags: DIFlagFwdDecl, identifier: "_ZTS12ErrorHandler")
!1195 = !DIFile(filename: "../dummy_inc/click/handler.hh", directory: "/home/john/projects/click/ir-dir")
!1196 = !DISubprogram(name: "live_reconfigure", linkageName: "_ZN13FullNoteQueue16live_reconfigureER6VectorI6StringEP12ErrorHandler", scope: !1169, file: !1170, line: 76, type: !1189, scopeLine: 76, containingType: !1169, virtualIndex: 25, flags: DIFlagPublic | DIFlagPrototyped, spFlags: DISPFlagVirtual | DISPFlagOptimized)
!1197 = !DISubprogram(name: "push", linkageName: "_ZN13FullNoteQueue4pushEiP6Packet", scope: !1169, file: !1170, line: 81, type: !1198, scopeLine: 81, containingType: !1169, virtualIndex: 2, flags: DIFlagPublic | DIFlagPrototyped, spFlags: DISPFlagVirtual | DISPFlagOptimized)
!1198 = !DISubroutineType(types: !1199)
!1199 = !{null, !1179, !34, !78}
!1200 = !DISubprogram(name: "pull", linkageName: "_ZN13FullNoteQueue4pullEi", scope: !1169, file: !1170, line: 82, type: !1201, scopeLine: 82, containingType: !1169, virtualIndex: 3, flags: DIFlagPublic | DIFlagPrototyped, spFlags: DISPFlagVirtual | DISPFlagOptimized)
!1201 = !DISubroutineType(types: !1202)
!1202 = !{!78, !1179, !34}
!1203 = !DISubprogram(name: "push_success", linkageName: "_ZN13FullNoteQueue12push_successEjjjP6Packet", scope: !1169, file: !1170, line: 88, type: !1204, scopeLine: 88, flags: DIFlagProtected | DIFlagPrototyped, spFlags: DISPFlagOptimized)
!1204 = !DISubroutineType(types: !1205)
!1205 = !{null, !1179, !1206, !1206, !1206, !78}
!1206 = !DIDerivedType(tag: DW_TAG_typedef, name: "index_type", scope: !1208, file: !1207, line: 11, baseType: !12)
!1207 = !DIFile(filename: "../dummy_inc/click/standard/storage.hh", directory: "/home/john/projects/click/ir-dir")
!1208 = distinct !DICompositeType(tag: DW_TAG_class_type, name: "Storage", file: !1207, line: 9, size: 96, flags: DIFlagTypePassByValue | DIFlagNonTrivial, elements: !1209, identifier: "_ZTS7Storage")
!1209 = !{!1210, !1212, !1213, !1215, !1216, !1220, !1225, !1226, !1229, !1232, !1233, !1236, !1237, !1240, !1241, !1244, !1245, !1246, !1247, !1248, !1251, !1257}
!1210 = !DIDerivedType(tag: DW_TAG_member, name: "invalid_index", scope: !1208, file: !1207, line: 13, baseType: !1211, flags: DIFlagPublic | DIFlagStaticMember, extraData: i32 -1)
!1211 = !DIDerivedType(tag: DW_TAG_const_type, baseType: !1206)
!1212 = !DIDerivedType(tag: DW_TAG_member, name: "_capacity", scope: !1208, file: !1207, line: 48, baseType: !1206, size: 32, flags: DIFlagProtected)
!1213 = !DIDerivedType(tag: DW_TAG_member, name: "_head", scope: !1208, file: !1207, line: 51, baseType: !1214, size: 32, offset: 32)
!1214 = !DIDerivedType(tag: DW_TAG_volatile_type, baseType: !1206)
!1215 = !DIDerivedType(tag: DW_TAG_member, name: "_tail", scope: !1208, file: !1207, line: 52, baseType: !1214, size: 32, offset: 64)
!1216 = !DISubprogram(name: "Storage", scope: !1208, file: !1207, line: 15, type: !1217, scopeLine: 15, flags: DIFlagPublic | DIFlagPrototyped, spFlags: DISPFlagOptimized)
!1217 = !DISubroutineType(types: !1218)
!1218 = !{null, !1219}
!1219 = !DIDerivedType(tag: DW_TAG_pointer_type, baseType: !1208, size: 64, flags: DIFlagArtificial | DIFlagObjectPointer)
!1220 = !DISubprogram(name: "operator bool", linkageName: "_ZNK7StoragecvbEv", scope: !1208, file: !1207, line: 17, type: !1221, scopeLine: 17, flags: DIFlagPublic | DIFlagPrototyped, spFlags: DISPFlagOptimized)
!1221 = !DISubroutineType(types: !1222)
!1222 = !{!53, !1223}
!1223 = !DIDerivedType(tag: DW_TAG_pointer_type, baseType: !1224, size: 64, flags: DIFlagArtificial | DIFlagObjectPointer)
!1224 = !DIDerivedType(tag: DW_TAG_const_type, baseType: !1208)
!1225 = !DISubprogram(name: "empty", linkageName: "_ZNK7Storage5emptyEv", scope: !1208, file: !1207, line: 18, type: !1221, scopeLine: 18, flags: DIFlagPublic | DIFlagPrototyped, spFlags: DISPFlagOptimized)
!1226 = !DISubprogram(name: "size", linkageName: "_ZNK7Storage4sizeEv", scope: !1208, file: !1207, line: 19, type: !1227, scopeLine: 19, flags: DIFlagPublic | DIFlagPrototyped, spFlags: DISPFlagOptimized)
!1227 = !DISubroutineType(types: !1228)
!1228 = !{!34, !1223}
!1229 = !DISubprogram(name: "size", linkageName: "_ZNK7Storage4sizeEjj", scope: !1208, file: !1207, line: 20, type: !1230, scopeLine: 20, flags: DIFlagPublic | DIFlagPrototyped, spFlags: DISPFlagOptimized)
!1230 = !DISubroutineType(types: !1231)
!1231 = !{!34, !1223, !1206, !1206}
!1232 = !DISubprogram(name: "capacity", linkageName: "_ZNK7Storage8capacityEv", scope: !1208, file: !1207, line: 21, type: !1227, scopeLine: 21, flags: DIFlagPublic | DIFlagPrototyped, spFlags: DISPFlagOptimized)
!1233 = !DISubprogram(name: "head", linkageName: "_ZNK7Storage4headEv", scope: !1208, file: !1207, line: 23, type: !1234, scopeLine: 23, flags: DIFlagPublic | DIFlagPrototyped, spFlags: DISPFlagOptimized)
!1234 = !DISubroutineType(types: !1235)
!1235 = !{!1206, !1223}
!1236 = !DISubprogram(name: "tail", linkageName: "_ZNK7Storage4tailEv", scope: !1208, file: !1207, line: 24, type: !1234, scopeLine: 24, flags: DIFlagPublic | DIFlagPrototyped, spFlags: DISPFlagOptimized)
!1237 = !DISubprogram(name: "next_i", linkageName: "_ZNK7Storage6next_iEj", scope: !1208, file: !1207, line: 26, type: !1238, scopeLine: 26, flags: DIFlagPublic | DIFlagPrototyped, spFlags: DISPFlagOptimized)
!1238 = !DISubroutineType(types: !1239)
!1239 = !{!1206, !1223, !1206}
!1240 = !DISubprogram(name: "prev_i", linkageName: "_ZNK7Storage6prev_iEj", scope: !1208, file: !1207, line: 29, type: !1238, scopeLine: 29, flags: DIFlagPublic | DIFlagPrototyped, spFlags: DISPFlagOptimized)
!1241 = !DISubprogram(name: "set_capacity", linkageName: "_ZN7Storage12set_capacityEj", scope: !1208, file: !1207, line: 34, type: !1242, scopeLine: 34, flags: DIFlagPublic | DIFlagPrototyped, spFlags: DISPFlagOptimized)
!1242 = !DISubroutineType(types: !1243)
!1243 = !{null, !1219, !1206}
!1244 = !DISubprogram(name: "set_head", linkageName: "_ZN7Storage8set_headEj", scope: !1208, file: !1207, line: 35, type: !1242, scopeLine: 35, flags: DIFlagPublic | DIFlagPrototyped, spFlags: DISPFlagOptimized)
!1245 = !DISubprogram(name: "set_tail", linkageName: "_ZN7Storage8set_tailEj", scope: !1208, file: !1207, line: 36, type: !1242, scopeLine: 36, flags: DIFlagPublic | DIFlagPrototyped, spFlags: DISPFlagOptimized)
!1246 = !DISubprogram(name: "set_head_release", linkageName: "_ZN7Storage16set_head_releaseEj", scope: !1208, file: !1207, line: 37, type: !1242, scopeLine: 37, flags: DIFlagPublic | DIFlagPrototyped, spFlags: DISPFlagOptimized)
!1247 = !DISubprogram(name: "set_tail_acquire", linkageName: "_ZN7Storage16set_tail_acquireEj", scope: !1208, file: !1207, line: 38, type: !1242, scopeLine: 38, flags: DIFlagPublic | DIFlagPrototyped, spFlags: DISPFlagOptimized)
!1248 = !DISubprogram(name: "reserve_tail_atomic", linkageName: "_ZN7Storage19reserve_tail_atomicEv", scope: !1208, file: !1207, line: 39, type: !1249, scopeLine: 39, flags: DIFlagPublic | DIFlagPrototyped, spFlags: DISPFlagOptimized)
!1249 = !DISubroutineType(types: !1250)
!1250 = !{!1206, !1219}
!1251 = !DISubprogram(name: "packet_memory_barrier", linkageName: "_ZN7Storage21packet_memory_barrierERVP6PacketRVj", scope: !1208, file: !1207, line: 41, type: !1252, scopeLine: 41, flags: DIFlagPublic | DIFlagPrototyped | DIFlagStaticMember, spFlags: DISPFlagOptimized)
!1252 = !DISubroutineType(types: !1253)
!1253 = !{null, !1254, !1256}
!1254 = !DIDerivedType(tag: DW_TAG_reference_type, baseType: !1255, size: 64)
!1255 = !DIDerivedType(tag: DW_TAG_volatile_type, baseType: !78)
!1256 = !DIDerivedType(tag: DW_TAG_reference_type, baseType: !1214, size: 64)
!1257 = !DISubprogram(name: "packet_memory_barrier", linkageName: "_ZN7Storage21packet_memory_barrierERVP6Packet", scope: !1208, file: !1207, line: 44, type: !1258, scopeLine: 44, flags: DIFlagPublic | DIFlagPrototyped, spFlags: DISPFlagOptimized)
!1258 = !DISubroutineType(types: !1259)
!1259 = !{null, !1219, !1254}
!1260 = !DISubprogram(name: "push_failure", linkageName: "_ZN13FullNoteQueue12push_failureEP6Packet", scope: !1169, file: !1170, line: 90, type: !1261, scopeLine: 90, flags: DIFlagProtected | DIFlagPrototyped, spFlags: DISPFlagOptimized)
!1261 = !DISubroutineType(types: !1262)
!1262 = !{null, !1179, !78}
!1263 = !DISubprogram(name: "pull_success", linkageName: "_ZN13FullNoteQueue12pull_successEjj", scope: !1169, file: !1170, line: 91, type: !1264, scopeLine: 91, flags: DIFlagProtected | DIFlagPrototyped, spFlags: DISPFlagOptimized)
!1264 = !DISubroutineType(types: !1265)
!1265 = !{!78, !1179, !1206, !1206}
!1266 = !DISubprogram(name: "pull_failure", linkageName: "_ZN13FullNoteQueue12pull_failureEv", scope: !1169, file: !1170, line: 93, type: !1267, scopeLine: 93, flags: DIFlagProtected | DIFlagPrototyped, spFlags: DISPFlagOptimized)
!1267 = !DISubroutineType(types: !1268)
!1268 = !{!78, !1179}
!1269 = !DICompositeType(tag: DW_TAG_class_type, name: "Element", file: !1270, line: 29, flags: DIFlagFwdDecl, identifier: "_ZTS7Element")
!1270 = !DIFile(filename: "../dummy_inc/click/element.hh", directory: "/home/john/projects/click/ir-dir")
!1271 = !DIDerivedType(tag: DW_TAG_pointer_type, baseType: !1272, size: 64)
!1272 = !DICompositeType(tag: DW_TAG_class_type, name: "Notifier", file: !1175, line: 73, flags: DIFlagFwdDecl, identifier: "_ZTS8Notifier")
!1273 = !DIDerivedType(tag: DW_TAG_typedef, name: "signed_index_type", scope: !1208, file: !1207, line: 12, baseType: !31)
!1274 = !DISubprogram(name: "click_chatter", scope: !506, file: !506, line: 104, type: !1275, flags: DIFlagPrototyped, spFlags: DISPFlagOptimized, retainedNodes: !452)
!1275 = !DISubroutineType(types: !1276)
!1276 = !{null, !566, null}
!1277 = !{!1278, !1334, !1338, !1344, !1348, !1354, !1356, !1361, !1363, !1368, !1372, !1376, !1385, !1389, !1393, !1397, !1401, !1405, !1409, !1413, !1417, !1421, !1429, !1433, !1437, !1439, !1441, !1445, !1449, !1455, !1459, !1463, !1465, !1473, !1477, !1484, !1486, !1490, !1494, !1498, !1502, !1506, !1511, !1516, !1517, !1518, !1519, !1521, !1522, !1523, !1524, !1525, !1526, !1527, !1529, !1530, !1531, !1532, !1533, !1534, !1535, !1540, !1541, !1542, !1543, !1544, !1545, !1546, !1547, !1548, !1549, !1550, !1551, !1552, !1553, !1554, !1555, !1556, !1557, !1558, !1559, !1560, !1561, !1562, !1563, !1564, !1570, !1572, !1574, !1578, !1580, !1582, !1584, !1586, !1588, !1590, !1592, !1597, !1601, !1603, !1605, !1610, !1612, !1614, !1616, !1618, !1620, !1622, !1625, !1627, !1629, !1633, !1637, !1639, !1641, !1643, !1645, !1647, !1649, !1651, !1653, !1655, !1657, !1661, !1665, !1667, !1669, !1671, !1673, !1675, !1677, !1679, !1681, !1683, !1685, !1687, !1689, !1691, !1693, !1695, !1699, !1703, !1707, !1709, !1711, !1713, !1715, !1717, !1719, !1721, !1723, !1725, !1729, !1733, !1737, !1739, !1741, !1743, !1747, !1751, !1755, !1757, !1759, !1761, !1763, !1765, !1767, !1769, !1771, !1773, !1775, !1777, !1779, !1783, !1787, !1791, !1793, !1795, !1797, !1799, !1803, !1807, !1809, !1811, !1813, !1815, !1817, !1819, !1823, !1827, !1829, !1831, !1833, !1835, !1839, !1843, !1847, !1849, !1851, !1853, !1855, !1857, !1859, !1863, !1867, !1871, !1873, !1877, !1881, !1883, !1885, !1887, !1889, !1891, !1893, !1895}
!1278 = !DIImportedEntity(tag: DW_TAG_imported_declaration, scope: !1279, entity: !1280, file: !1281, line: 58)
!1279 = !DINamespace(name: "std", scope: null)
!1280 = distinct !DICompositeType(tag: DW_TAG_class_type, name: "exception_ptr", scope: !1282, file: !1281, line: 80, size: 64, flags: DIFlagTypePassByReference | DIFlagNonTrivial, elements: !1283, identifier: "_ZTSNSt15__exception_ptr13exception_ptrE")
!1281 = !DIFile(filename: "/usr/bin/../lib64/gcc/x86_64-pc-linux-gnu/10.1.0/../../../../include/c++/10.1.0/bits/exception_ptr.h", directory: "")
!1282 = !DINamespace(name: "__exception_ptr", scope: !1279)
!1283 = !{!1284, !1285, !1289, !1292, !1293, !1298, !1299, !1303, !1309, !1313, !1317, !1320, !1321, !1324, !1327}
!1284 = !DIDerivedType(tag: DW_TAG_member, name: "_M_exception_object", scope: !1280, file: !1281, line: 82, baseType: !135, size: 64)
!1285 = !DISubprogram(name: "exception_ptr", scope: !1280, file: !1281, line: 84, type: !1286, scopeLine: 84, flags: DIFlagExplicit | DIFlagPrototyped, spFlags: DISPFlagOptimized)
!1286 = !DISubroutineType(types: !1287)
!1287 = !{null, !1288, !135}
!1288 = !DIDerivedType(tag: DW_TAG_pointer_type, baseType: !1280, size: 64, flags: DIFlagArtificial | DIFlagObjectPointer)
!1289 = !DISubprogram(name: "_M_addref", linkageName: "_ZNSt15__exception_ptr13exception_ptr9_M_addrefEv", scope: !1280, file: !1281, line: 86, type: !1290, scopeLine: 86, flags: DIFlagPrototyped, spFlags: DISPFlagOptimized)
!1290 = !DISubroutineType(types: !1291)
!1291 = !{null, !1288}
!1292 = !DISubprogram(name: "_M_release", linkageName: "_ZNSt15__exception_ptr13exception_ptr10_M_releaseEv", scope: !1280, file: !1281, line: 87, type: !1290, scopeLine: 87, flags: DIFlagPrototyped, spFlags: DISPFlagOptimized)
!1293 = !DISubprogram(name: "_M_get", linkageName: "_ZNKSt15__exception_ptr13exception_ptr6_M_getEv", scope: !1280, file: !1281, line: 89, type: !1294, scopeLine: 89, flags: DIFlagPrototyped, spFlags: DISPFlagOptimized)
!1294 = !DISubroutineType(types: !1295)
!1295 = !{!135, !1296}
!1296 = !DIDerivedType(tag: DW_TAG_pointer_type, baseType: !1297, size: 64, flags: DIFlagArtificial | DIFlagObjectPointer)
!1297 = !DIDerivedType(tag: DW_TAG_const_type, baseType: !1280)
!1298 = !DISubprogram(name: "exception_ptr", scope: !1280, file: !1281, line: 97, type: !1290, scopeLine: 97, flags: DIFlagPublic | DIFlagPrototyped, spFlags: DISPFlagOptimized)
!1299 = !DISubprogram(name: "exception_ptr", scope: !1280, file: !1281, line: 99, type: !1300, scopeLine: 99, flags: DIFlagPublic | DIFlagPrototyped, spFlags: DISPFlagOptimized)
!1300 = !DISubroutineType(types: !1301)
!1301 = !{null, !1288, !1302}
!1302 = !DIDerivedType(tag: DW_TAG_reference_type, baseType: !1297, size: 64)
!1303 = !DISubprogram(name: "exception_ptr", scope: !1280, file: !1281, line: 102, type: !1304, scopeLine: 102, flags: DIFlagPublic | DIFlagPrototyped, spFlags: DISPFlagOptimized)
!1304 = !DISubroutineType(types: !1305)
!1305 = !{null, !1288, !1306}
!1306 = !DIDerivedType(tag: DW_TAG_typedef, name: "nullptr_t", scope: !1279, file: !1307, line: 264, baseType: !1308)
!1307 = !DIFile(filename: "/usr/bin/../lib64/gcc/x86_64-pc-linux-gnu/10.1.0/../../../../include/c++/10.1.0/x86_64-pc-linux-gnu/bits/c++config.h", directory: "")
!1308 = !DIBasicType(tag: DW_TAG_unspecified_type, name: "decltype(nullptr)")
!1309 = !DISubprogram(name: "exception_ptr", scope: !1280, file: !1281, line: 106, type: !1310, scopeLine: 106, flags: DIFlagPublic | DIFlagPrototyped, spFlags: DISPFlagOptimized)
!1310 = !DISubroutineType(types: !1311)
!1311 = !{null, !1288, !1312}
!1312 = !DIDerivedType(tag: DW_TAG_rvalue_reference_type, baseType: !1280, size: 64)
!1313 = !DISubprogram(name: "operator=", linkageName: "_ZNSt15__exception_ptr13exception_ptraSERKS0_", scope: !1280, file: !1281, line: 119, type: !1314, scopeLine: 119, flags: DIFlagPublic | DIFlagPrototyped, spFlags: DISPFlagOptimized)
!1314 = !DISubroutineType(types: !1315)
!1315 = !{!1316, !1288, !1302}
!1316 = !DIDerivedType(tag: DW_TAG_reference_type, baseType: !1280, size: 64)
!1317 = !DISubprogram(name: "operator=", linkageName: "_ZNSt15__exception_ptr13exception_ptraSEOS0_", scope: !1280, file: !1281, line: 123, type: !1318, scopeLine: 123, flags: DIFlagPublic | DIFlagPrototyped, spFlags: DISPFlagOptimized)
!1318 = !DISubroutineType(types: !1319)
!1319 = !{!1316, !1288, !1312}
!1320 = !DISubprogram(name: "~exception_ptr", scope: !1280, file: !1281, line: 130, type: !1290, scopeLine: 130, flags: DIFlagPublic | DIFlagPrototyped, spFlags: DISPFlagOptimized)
!1321 = !DISubprogram(name: "swap", linkageName: "_ZNSt15__exception_ptr13exception_ptr4swapERS0_", scope: !1280, file: !1281, line: 133, type: !1322, scopeLine: 133, flags: DIFlagPublic | DIFlagPrototyped, spFlags: DISPFlagOptimized)
!1322 = !DISubroutineType(types: !1323)
!1323 = !{null, !1288, !1316}
!1324 = !DISubprogram(name: "operator bool", linkageName: "_ZNKSt15__exception_ptr13exception_ptrcvbEv", scope: !1280, file: !1281, line: 145, type: !1325, scopeLine: 145, flags: DIFlagPublic | DIFlagExplicit | DIFlagPrototyped, spFlags: DISPFlagOptimized)
!1325 = !DISubroutineType(types: !1326)
!1326 = !{!53, !1296}
!1327 = !DISubprogram(name: "__cxa_exception_type", linkageName: "_ZNKSt15__exception_ptr13exception_ptr20__cxa_exception_typeEv", scope: !1280, file: !1281, line: 154, type: !1328, scopeLine: 154, flags: DIFlagPublic | DIFlagPrototyped, spFlags: DISPFlagOptimized)
!1328 = !DISubroutineType(types: !1329)
!1329 = !{!1330, !1296}
!1330 = !DIDerivedType(tag: DW_TAG_pointer_type, baseType: !1331, size: 64)
!1331 = !DIDerivedType(tag: DW_TAG_const_type, baseType: !1332)
!1332 = !DICompositeType(tag: DW_TAG_class_type, name: "type_info", scope: !1279, file: !1333, line: 88, flags: DIFlagFwdDecl, identifier: "_ZTSSt9type_info")
!1333 = !DIFile(filename: "/usr/bin/../lib64/gcc/x86_64-pc-linux-gnu/10.1.0/../../../../include/c++/10.1.0/typeinfo", directory: "")
!1334 = !DIImportedEntity(tag: DW_TAG_imported_declaration, scope: !1282, entity: !1335, file: !1281, line: 74)
!1335 = !DISubprogram(name: "rethrow_exception", linkageName: "_ZSt17rethrow_exceptionNSt15__exception_ptr13exception_ptrE", scope: !1279, file: !1281, line: 70, type: !1336, flags: DIFlagPrototyped | DIFlagNoReturn, spFlags: DISPFlagOptimized)
!1336 = !DISubroutineType(types: !1337)
!1337 = !{null, !1280}
!1338 = !DIImportedEntity(tag: DW_TAG_imported_declaration, scope: !1279, entity: !1339, file: !1343, line: 52)
!1339 = !DISubprogram(name: "abs", scope: !1340, file: !1340, line: 840, type: !1341, flags: DIFlagPrototyped, spFlags: DISPFlagOptimized)
!1340 = !DIFile(filename: "/usr/include/stdlib.h", directory: "")
!1341 = !DISubroutineType(types: !1342)
!1342 = !{!34, !34}
!1343 = !DIFile(filename: "/usr/bin/../lib64/gcc/x86_64-pc-linux-gnu/10.1.0/../../../../include/c++/10.1.0/bits/std_abs.h", directory: "")
!1344 = !DIImportedEntity(tag: DW_TAG_imported_declaration, scope: !1279, entity: !1345, file: !1347, line: 127)
!1345 = !DIDerivedType(tag: DW_TAG_typedef, name: "div_t", file: !1340, line: 62, baseType: !1346)
!1346 = !DICompositeType(tag: DW_TAG_structure_type, file: !1340, line: 58, flags: DIFlagFwdDecl, identifier: "_ZTS5div_t")
!1347 = !DIFile(filename: "/usr/bin/../lib64/gcc/x86_64-pc-linux-gnu/10.1.0/../../../../include/c++/10.1.0/cstdlib", directory: "")
!1348 = !DIImportedEntity(tag: DW_TAG_imported_declaration, scope: !1279, entity: !1349, file: !1347, line: 128)
!1349 = !DIDerivedType(tag: DW_TAG_typedef, name: "ldiv_t", file: !1340, line: 70, baseType: !1350)
!1350 = distinct !DICompositeType(tag: DW_TAG_structure_type, file: !1340, line: 66, size: 128, flags: DIFlagTypePassByValue, elements: !1351, identifier: "_ZTS6ldiv_t")
!1351 = !{!1352, !1353}
!1352 = !DIDerivedType(tag: DW_TAG_member, name: "quot", scope: !1350, file: !1340, line: 68, baseType: !395, size: 64)
!1353 = !DIDerivedType(tag: DW_TAG_member, name: "rem", scope: !1350, file: !1340, line: 69, baseType: !395, size: 64, offset: 64)
!1354 = !DIImportedEntity(tag: DW_TAG_imported_declaration, scope: !1279, entity: !1355, file: !1347, line: 130)
!1355 = !DISubprogram(name: "abort", scope: !1340, file: !1340, line: 591, type: !236, flags: DIFlagPrototyped | DIFlagNoReturn, spFlags: DISPFlagOptimized)
!1356 = !DIImportedEntity(tag: DW_TAG_imported_declaration, scope: !1279, entity: !1357, file: !1347, line: 134)
!1357 = !DISubprogram(name: "atexit", scope: !1340, file: !1340, line: 595, type: !1358, flags: DIFlagPrototyped, spFlags: DISPFlagOptimized)
!1358 = !DISubroutineType(types: !1359)
!1359 = !{!34, !1360}
!1360 = !DIDerivedType(tag: DW_TAG_pointer_type, baseType: !236, size: 64)
!1361 = !DIImportedEntity(tag: DW_TAG_imported_declaration, scope: !1279, entity: !1362, file: !1347, line: 137)
!1362 = !DISubprogram(name: "at_quick_exit", scope: !1340, file: !1340, line: 600, type: !1358, flags: DIFlagPrototyped, spFlags: DISPFlagOptimized)
!1363 = !DIImportedEntity(tag: DW_TAG_imported_declaration, scope: !1279, entity: !1364, file: !1347, line: 140)
!1364 = !DISubprogram(name: "atof", scope: !1365, file: !1365, line: 25, type: !1366, flags: DIFlagPrototyped, spFlags: DISPFlagOptimized)
!1365 = !DIFile(filename: "/usr/include/bits/stdlib-float.h", directory: "")
!1366 = !DISubroutineType(types: !1367)
!1367 = !{!415, !566}
!1368 = !DIImportedEntity(tag: DW_TAG_imported_declaration, scope: !1279, entity: !1369, file: !1347, line: 141)
!1369 = !DISubprogram(name: "atoi", scope: !1340, file: !1340, line: 361, type: !1370, flags: DIFlagPrototyped, spFlags: DISPFlagOptimized)
!1370 = !DISubroutineType(types: !1371)
!1371 = !{!34, !566}
!1372 = !DIImportedEntity(tag: DW_TAG_imported_declaration, scope: !1279, entity: !1373, file: !1347, line: 142)
!1373 = !DISubprogram(name: "atol", scope: !1340, file: !1340, line: 366, type: !1374, flags: DIFlagPrototyped, spFlags: DISPFlagOptimized)
!1374 = !DISubroutineType(types: !1375)
!1375 = !{!395, !566}
!1376 = !DIImportedEntity(tag: DW_TAG_imported_declaration, scope: !1279, entity: !1377, file: !1347, line: 143)
!1377 = !DISubprogram(name: "bsearch", scope: !1378, file: !1378, line: 20, type: !1379, flags: DIFlagPrototyped, spFlags: DISPFlagOptimized)
!1378 = !DIFile(filename: "/usr/include/bits/stdlib-bsearch.h", directory: "")
!1379 = !DISubroutineType(types: !1380)
!1380 = !{!135, !224, !224, !133, !133, !1381}
!1381 = !DIDerivedType(tag: DW_TAG_typedef, name: "__compar_fn_t", file: !1340, line: 808, baseType: !1382)
!1382 = !DIDerivedType(tag: DW_TAG_pointer_type, baseType: !1383, size: 64)
!1383 = !DISubroutineType(types: !1384)
!1384 = !{!34, !224, !224}
!1385 = !DIImportedEntity(tag: DW_TAG_imported_declaration, scope: !1279, entity: !1386, file: !1347, line: 144)
!1386 = !DISubprogram(name: "calloc", scope: !1340, file: !1340, line: 542, type: !1387, flags: DIFlagPrototyped, spFlags: DISPFlagOptimized)
!1387 = !DISubroutineType(types: !1388)
!1388 = !{!135, !133, !133}
!1389 = !DIImportedEntity(tag: DW_TAG_imported_declaration, scope: !1279, entity: !1390, file: !1347, line: 145)
!1390 = !DISubprogram(name: "div", scope: !1340, file: !1340, line: 852, type: !1391, flags: DIFlagPrototyped, spFlags: DISPFlagOptimized)
!1391 = !DISubroutineType(types: !1392)
!1392 = !{!1345, !34, !34}
!1393 = !DIImportedEntity(tag: DW_TAG_imported_declaration, scope: !1279, entity: !1394, file: !1347, line: 146)
!1394 = !DISubprogram(name: "exit", scope: !1340, file: !1340, line: 617, type: !1395, flags: DIFlagPrototyped | DIFlagNoReturn, spFlags: DISPFlagOptimized)
!1395 = !DISubroutineType(types: !1396)
!1396 = !{null, !34}
!1397 = !DIImportedEntity(tag: DW_TAG_imported_declaration, scope: !1279, entity: !1398, file: !1347, line: 147)
!1398 = !DISubprogram(name: "free", scope: !1340, file: !1340, line: 565, type: !1399, flags: DIFlagPrototyped, spFlags: DISPFlagOptimized)
!1399 = !DISubroutineType(types: !1400)
!1400 = !{null, !135}
!1401 = !DIImportedEntity(tag: DW_TAG_imported_declaration, scope: !1279, entity: !1402, file: !1347, line: 148)
!1402 = !DISubprogram(name: "getenv", scope: !1340, file: !1340, line: 634, type: !1403, flags: DIFlagPrototyped, spFlags: DISPFlagOptimized)
!1403 = !DISubroutineType(types: !1404)
!1404 = !{!778, !566}
!1405 = !DIImportedEntity(tag: DW_TAG_imported_declaration, scope: !1279, entity: !1406, file: !1347, line: 149)
!1406 = !DISubprogram(name: "labs", scope: !1340, file: !1340, line: 841, type: !1407, flags: DIFlagPrototyped, spFlags: DISPFlagOptimized)
!1407 = !DISubroutineType(types: !1408)
!1408 = !{!395, !395}
!1409 = !DIImportedEntity(tag: DW_TAG_imported_declaration, scope: !1279, entity: !1410, file: !1347, line: 150)
!1410 = !DISubprogram(name: "ldiv", scope: !1340, file: !1340, line: 854, type: !1411, flags: DIFlagPrototyped, spFlags: DISPFlagOptimized)
!1411 = !DISubroutineType(types: !1412)
!1412 = !{!1349, !395, !395}
!1413 = !DIImportedEntity(tag: DW_TAG_imported_declaration, scope: !1279, entity: !1414, file: !1347, line: 151)
!1414 = !DISubprogram(name: "malloc", scope: !1340, file: !1340, line: 539, type: !1415, flags: DIFlagPrototyped, spFlags: DISPFlagOptimized)
!1415 = !DISubroutineType(types: !1416)
!1416 = !{!135, !133}
!1417 = !DIImportedEntity(tag: DW_TAG_imported_declaration, scope: !1279, entity: !1418, file: !1347, line: 153)
!1418 = !DISubprogram(name: "mblen", scope: !1340, file: !1340, line: 922, type: !1419, flags: DIFlagPrototyped, spFlags: DISPFlagOptimized)
!1419 = !DISubroutineType(types: !1420)
!1420 = !{!34, !566, !133}
!1421 = !DIImportedEntity(tag: DW_TAG_imported_declaration, scope: !1279, entity: !1422, file: !1347, line: 154)
!1422 = !DISubprogram(name: "mbstowcs", scope: !1340, file: !1340, line: 933, type: !1423, flags: DIFlagPrototyped, spFlags: DISPFlagOptimized)
!1423 = !DISubroutineType(types: !1424)
!1424 = !{!133, !1425, !1428, !133}
!1425 = !DIDerivedType(tag: DW_TAG_restrict_type, baseType: !1426)
!1426 = !DIDerivedType(tag: DW_TAG_pointer_type, baseType: !1427, size: 64)
!1427 = !DIBasicType(name: "wchar_t", size: 32, encoding: DW_ATE_signed)
!1428 = !DIDerivedType(tag: DW_TAG_restrict_type, baseType: !566)
!1429 = !DIImportedEntity(tag: DW_TAG_imported_declaration, scope: !1279, entity: !1430, file: !1347, line: 155)
!1430 = !DISubprogram(name: "mbtowc", scope: !1340, file: !1340, line: 925, type: !1431, flags: DIFlagPrototyped, spFlags: DISPFlagOptimized)
!1431 = !DISubroutineType(types: !1432)
!1432 = !{!34, !1425, !1428, !133}
!1433 = !DIImportedEntity(tag: DW_TAG_imported_declaration, scope: !1279, entity: !1434, file: !1347, line: 157)
!1434 = !DISubprogram(name: "qsort", scope: !1340, file: !1340, line: 830, type: !1435, flags: DIFlagPrototyped, spFlags: DISPFlagOptimized)
!1435 = !DISubroutineType(types: !1436)
!1436 = !{null, !135, !133, !133, !1381}
!1437 = !DIImportedEntity(tag: DW_TAG_imported_declaration, scope: !1279, entity: !1438, file: !1347, line: 160)
!1438 = !DISubprogram(name: "quick_exit", scope: !1340, file: !1340, line: 623, type: !1395, flags: DIFlagPrototyped | DIFlagNoReturn, spFlags: DISPFlagOptimized)
!1439 = !DIImportedEntity(tag: DW_TAG_imported_declaration, scope: !1279, entity: !1440, file: !1347, line: 163)
!1440 = !DISubprogram(name: "rand", scope: !1340, file: !1340, line: 453, type: !800, flags: DIFlagPrototyped, spFlags: DISPFlagOptimized)
!1441 = !DIImportedEntity(tag: DW_TAG_imported_declaration, scope: !1279, entity: !1442, file: !1347, line: 164)
!1442 = !DISubprogram(name: "realloc", scope: !1340, file: !1340, line: 550, type: !1443, flags: DIFlagPrototyped, spFlags: DISPFlagOptimized)
!1443 = !DISubroutineType(types: !1444)
!1444 = !{!135, !135, !133}
!1445 = !DIImportedEntity(tag: DW_TAG_imported_declaration, scope: !1279, entity: !1446, file: !1347, line: 165)
!1446 = !DISubprogram(name: "srand", scope: !1340, file: !1340, line: 455, type: !1447, flags: DIFlagPrototyped, spFlags: DISPFlagOptimized)
!1447 = !DISubroutineType(types: !1448)
!1448 = !{null, !16}
!1449 = !DIImportedEntity(tag: DW_TAG_imported_declaration, scope: !1279, entity: !1450, file: !1347, line: 166)
!1450 = !DISubprogram(name: "strtod", scope: !1340, file: !1340, line: 117, type: !1451, flags: DIFlagPrototyped, spFlags: DISPFlagOptimized)
!1451 = !DISubroutineType(types: !1452)
!1452 = !{!415, !1428, !1453}
!1453 = !DIDerivedType(tag: DW_TAG_restrict_type, baseType: !1454)
!1454 = !DIDerivedType(tag: DW_TAG_pointer_type, baseType: !778, size: 64)
!1455 = !DIImportedEntity(tag: DW_TAG_imported_declaration, scope: !1279, entity: !1456, file: !1347, line: 167)
!1456 = !DISubprogram(name: "strtol", scope: !1340, file: !1340, line: 176, type: !1457, flags: DIFlagPrototyped, spFlags: DISPFlagOptimized)
!1457 = !DISubroutineType(types: !1458)
!1458 = !{!395, !1428, !1453, !34}
!1459 = !DIImportedEntity(tag: DW_TAG_imported_declaration, scope: !1279, entity: !1460, file: !1347, line: 168)
!1460 = !DISubprogram(name: "strtoul", scope: !1340, file: !1340, line: 180, type: !1461, flags: DIFlagPrototyped, spFlags: DISPFlagOptimized)
!1461 = !DISubroutineType(types: !1462)
!1462 = !{!115, !1428, !1453, !34}
!1463 = !DIImportedEntity(tag: DW_TAG_imported_declaration, scope: !1279, entity: !1464, file: !1347, line: 169)
!1464 = !DISubprogram(name: "system", scope: !1340, file: !1340, line: 784, type: !1370, flags: DIFlagPrototyped, spFlags: DISPFlagOptimized)
!1465 = !DIImportedEntity(tag: DW_TAG_imported_declaration, scope: !1279, entity: !1466, file: !1347, line: 171)
!1466 = !DISubprogram(name: "wcstombs", scope: !1340, file: !1340, line: 936, type: !1467, flags: DIFlagPrototyped, spFlags: DISPFlagOptimized)
!1467 = !DISubroutineType(types: !1468)
!1468 = !{!133, !1469, !1470, !133}
!1469 = !DIDerivedType(tag: DW_TAG_restrict_type, baseType: !778)
!1470 = !DIDerivedType(tag: DW_TAG_restrict_type, baseType: !1471)
!1471 = !DIDerivedType(tag: DW_TAG_pointer_type, baseType: !1472, size: 64)
!1472 = !DIDerivedType(tag: DW_TAG_const_type, baseType: !1427)
!1473 = !DIImportedEntity(tag: DW_TAG_imported_declaration, scope: !1279, entity: !1474, file: !1347, line: 172)
!1474 = !DISubprogram(name: "wctomb", scope: !1340, file: !1340, line: 929, type: !1475, flags: DIFlagPrototyped, spFlags: DISPFlagOptimized)
!1475 = !DISubroutineType(types: !1476)
!1476 = !{!34, !778, !1427}
!1477 = !DIImportedEntity(tag: DW_TAG_imported_declaration, scope: !1478, entity: !1479, file: !1347, line: 200)
!1478 = !DINamespace(name: "__gnu_cxx", scope: null)
!1479 = !DIDerivedType(tag: DW_TAG_typedef, name: "lldiv_t", file: !1340, line: 80, baseType: !1480)
!1480 = distinct !DICompositeType(tag: DW_TAG_structure_type, file: !1340, line: 76, size: 128, flags: DIFlagTypePassByValue, elements: !1481, identifier: "_ZTS7lldiv_t")
!1481 = !{!1482, !1483}
!1482 = !DIDerivedType(tag: DW_TAG_member, name: "quot", scope: !1480, file: !1340, line: 78, baseType: !640, size: 64)
!1483 = !DIDerivedType(tag: DW_TAG_member, name: "rem", scope: !1480, file: !1340, line: 79, baseType: !640, size: 64, offset: 64)
!1484 = !DIImportedEntity(tag: DW_TAG_imported_declaration, scope: !1478, entity: !1485, file: !1347, line: 206)
!1485 = !DISubprogram(name: "_Exit", scope: !1340, file: !1340, line: 629, type: !1395, flags: DIFlagPrototyped | DIFlagNoReturn, spFlags: DISPFlagOptimized)
!1486 = !DIImportedEntity(tag: DW_TAG_imported_declaration, scope: !1478, entity: !1487, file: !1347, line: 210)
!1487 = !DISubprogram(name: "llabs", scope: !1340, file: !1340, line: 844, type: !1488, flags: DIFlagPrototyped, spFlags: DISPFlagOptimized)
!1488 = !DISubroutineType(types: !1489)
!1489 = !{!640, !640}
!1490 = !DIImportedEntity(tag: DW_TAG_imported_declaration, scope: !1478, entity: !1491, file: !1347, line: 216)
!1491 = !DISubprogram(name: "lldiv", scope: !1340, file: !1340, line: 858, type: !1492, flags: DIFlagPrototyped, spFlags: DISPFlagOptimized)
!1492 = !DISubroutineType(types: !1493)
!1493 = !{!1479, !640, !640}
!1494 = !DIImportedEntity(tag: DW_TAG_imported_declaration, scope: !1478, entity: !1495, file: !1347, line: 227)
!1495 = !DISubprogram(name: "atoll", scope: !1340, file: !1340, line: 373, type: !1496, flags: DIFlagPrototyped, spFlags: DISPFlagOptimized)
!1496 = !DISubroutineType(types: !1497)
!1497 = !{!640, !566}
!1498 = !DIImportedEntity(tag: DW_TAG_imported_declaration, scope: !1478, entity: !1499, file: !1347, line: 228)
!1499 = !DISubprogram(name: "strtoll", scope: !1340, file: !1340, line: 200, type: !1500, flags: DIFlagPrototyped, spFlags: DISPFlagOptimized)
!1500 = !DISubroutineType(types: !1501)
!1501 = !{!640, !1428, !1453, !34}
!1502 = !DIImportedEntity(tag: DW_TAG_imported_declaration, scope: !1478, entity: !1503, file: !1347, line: 229)
!1503 = !DISubprogram(name: "strtoull", scope: !1340, file: !1340, line: 205, type: !1504, flags: DIFlagPrototyped, spFlags: DISPFlagOptimized)
!1504 = !DISubroutineType(types: !1505)
!1505 = !{!644, !1428, !1453, !34}
!1506 = !DIImportedEntity(tag: DW_TAG_imported_declaration, scope: !1478, entity: !1507, file: !1347, line: 231)
!1507 = !DISubprogram(name: "strtof", scope: !1340, file: !1340, line: 123, type: !1508, flags: DIFlagPrototyped, spFlags: DISPFlagOptimized)
!1508 = !DISubroutineType(types: !1509)
!1509 = !{!1510, !1428, !1453}
!1510 = !DIBasicType(name: "float", size: 32, encoding: DW_ATE_float)
!1511 = !DIImportedEntity(tag: DW_TAG_imported_declaration, scope: !1478, entity: !1512, file: !1347, line: 232)
!1512 = !DISubprogram(name: "strtold", scope: !1340, file: !1340, line: 126, type: !1513, flags: DIFlagPrototyped, spFlags: DISPFlagOptimized)
!1513 = !DISubroutineType(types: !1514)
!1514 = !{!1515, !1428, !1453}
!1515 = !DIBasicType(name: "long double", size: 128, encoding: DW_ATE_float)
!1516 = !DIImportedEntity(tag: DW_TAG_imported_declaration, scope: !1279, entity: !1479, file: !1347, line: 240)
!1517 = !DIImportedEntity(tag: DW_TAG_imported_declaration, scope: !1279, entity: !1485, file: !1347, line: 242)
!1518 = !DIImportedEntity(tag: DW_TAG_imported_declaration, scope: !1279, entity: !1487, file: !1347, line: 244)
!1519 = !DIImportedEntity(tag: DW_TAG_imported_declaration, scope: !1279, entity: !1520, file: !1347, line: 245)
!1520 = !DISubprogram(name: "div", linkageName: "_ZN9__gnu_cxx3divExx", scope: !1478, file: !1347, line: 213, type: !1492, flags: DIFlagPrototyped, spFlags: DISPFlagOptimized)
!1521 = !DIImportedEntity(tag: DW_TAG_imported_declaration, scope: !1279, entity: !1491, file: !1347, line: 246)
!1522 = !DIImportedEntity(tag: DW_TAG_imported_declaration, scope: !1279, entity: !1495, file: !1347, line: 248)
!1523 = !DIImportedEntity(tag: DW_TAG_imported_declaration, scope: !1279, entity: !1507, file: !1347, line: 249)
!1524 = !DIImportedEntity(tag: DW_TAG_imported_declaration, scope: !1279, entity: !1499, file: !1347, line: 250)
!1525 = !DIImportedEntity(tag: DW_TAG_imported_declaration, scope: !1279, entity: !1503, file: !1347, line: 251)
!1526 = !DIImportedEntity(tag: DW_TAG_imported_declaration, scope: !1279, entity: !1512, file: !1347, line: 252)
!1527 = !DIImportedEntity(tag: DW_TAG_imported_declaration, scope: !0, entity: !1355, file: !1528, line: 38)
!1528 = !DIFile(filename: "/usr/bin/../lib64/gcc/x86_64-pc-linux-gnu/10.1.0/../../../../include/c++/10.1.0/stdlib.h", directory: "")
!1529 = !DIImportedEntity(tag: DW_TAG_imported_declaration, scope: !0, entity: !1357, file: !1528, line: 39)
!1530 = !DIImportedEntity(tag: DW_TAG_imported_declaration, scope: !0, entity: !1394, file: !1528, line: 40)
!1531 = !DIImportedEntity(tag: DW_TAG_imported_declaration, scope: !0, entity: !1362, file: !1528, line: 43)
!1532 = !DIImportedEntity(tag: DW_TAG_imported_declaration, scope: !0, entity: !1438, file: !1528, line: 46)
!1533 = !DIImportedEntity(tag: DW_TAG_imported_declaration, scope: !0, entity: !1345, file: !1528, line: 51)
!1534 = !DIImportedEntity(tag: DW_TAG_imported_declaration, scope: !0, entity: !1349, file: !1528, line: 52)
!1535 = !DIImportedEntity(tag: DW_TAG_imported_declaration, scope: !0, entity: !1536, file: !1528, line: 54)
!1536 = !DISubprogram(name: "abs", linkageName: "_ZSt3absg", scope: !1279, file: !1343, line: 103, type: !1537, flags: DIFlagPrototyped, spFlags: DISPFlagOptimized)
!1537 = !DISubroutineType(types: !1538)
!1538 = !{!1539, !1539}
!1539 = !DIBasicType(name: "__float128", size: 128, encoding: DW_ATE_float)
!1540 = !DIImportedEntity(tag: DW_TAG_imported_declaration, scope: !0, entity: !1364, file: !1528, line: 55)
!1541 = !DIImportedEntity(tag: DW_TAG_imported_declaration, scope: !0, entity: !1369, file: !1528, line: 56)
!1542 = !DIImportedEntity(tag: DW_TAG_imported_declaration, scope: !0, entity: !1373, file: !1528, line: 57)
!1543 = !DIImportedEntity(tag: DW_TAG_imported_declaration, scope: !0, entity: !1377, file: !1528, line: 58)
!1544 = !DIImportedEntity(tag: DW_TAG_imported_declaration, scope: !0, entity: !1386, file: !1528, line: 59)
!1545 = !DIImportedEntity(tag: DW_TAG_imported_declaration, scope: !0, entity: !1520, file: !1528, line: 60)
!1546 = !DIImportedEntity(tag: DW_TAG_imported_declaration, scope: !0, entity: !1398, file: !1528, line: 61)
!1547 = !DIImportedEntity(tag: DW_TAG_imported_declaration, scope: !0, entity: !1402, file: !1528, line: 62)
!1548 = !DIImportedEntity(tag: DW_TAG_imported_declaration, scope: !0, entity: !1406, file: !1528, line: 63)
!1549 = !DIImportedEntity(tag: DW_TAG_imported_declaration, scope: !0, entity: !1410, file: !1528, line: 64)
!1550 = !DIImportedEntity(tag: DW_TAG_imported_declaration, scope: !0, entity: !1414, file: !1528, line: 65)
!1551 = !DIImportedEntity(tag: DW_TAG_imported_declaration, scope: !0, entity: !1418, file: !1528, line: 67)
!1552 = !DIImportedEntity(tag: DW_TAG_imported_declaration, scope: !0, entity: !1422, file: !1528, line: 68)
!1553 = !DIImportedEntity(tag: DW_TAG_imported_declaration, scope: !0, entity: !1430, file: !1528, line: 69)
!1554 = !DIImportedEntity(tag: DW_TAG_imported_declaration, scope: !0, entity: !1434, file: !1528, line: 71)
!1555 = !DIImportedEntity(tag: DW_TAG_imported_declaration, scope: !0, entity: !1440, file: !1528, line: 72)
!1556 = !DIImportedEntity(tag: DW_TAG_imported_declaration, scope: !0, entity: !1442, file: !1528, line: 73)
!1557 = !DIImportedEntity(tag: DW_TAG_imported_declaration, scope: !0, entity: !1446, file: !1528, line: 74)
!1558 = !DIImportedEntity(tag: DW_TAG_imported_declaration, scope: !0, entity: !1450, file: !1528, line: 75)
!1559 = !DIImportedEntity(tag: DW_TAG_imported_declaration, scope: !0, entity: !1456, file: !1528, line: 76)
!1560 = !DIImportedEntity(tag: DW_TAG_imported_declaration, scope: !0, entity: !1460, file: !1528, line: 77)
!1561 = !DIImportedEntity(tag: DW_TAG_imported_declaration, scope: !0, entity: !1464, file: !1528, line: 78)
!1562 = !DIImportedEntity(tag: DW_TAG_imported_declaration, scope: !0, entity: !1466, file: !1528, line: 80)
!1563 = !DIImportedEntity(tag: DW_TAG_imported_declaration, scope: !0, entity: !1474, file: !1528, line: 81)
!1564 = !DIImportedEntity(tag: DW_TAG_imported_declaration, scope: !1279, entity: !1565, file: !1569, line: 83)
!1565 = !DISubprogram(name: "acos", scope: !1566, file: !1566, line: 53, type: !1567, flags: DIFlagPrototyped, spFlags: DISPFlagOptimized)
!1566 = !DIFile(filename: "/usr/include/bits/mathcalls.h", directory: "")
!1567 = !DISubroutineType(types: !1568)
!1568 = !{!415, !415}
!1569 = !DIFile(filename: "/usr/bin/../lib64/gcc/x86_64-pc-linux-gnu/10.1.0/../../../../include/c++/10.1.0/cmath", directory: "")
!1570 = !DIImportedEntity(tag: DW_TAG_imported_declaration, scope: !1279, entity: !1571, file: !1569, line: 102)
!1571 = !DISubprogram(name: "asin", scope: !1566, file: !1566, line: 55, type: !1567, flags: DIFlagPrototyped, spFlags: DISPFlagOptimized)
!1572 = !DIImportedEntity(tag: DW_TAG_imported_declaration, scope: !1279, entity: !1573, file: !1569, line: 121)
!1573 = !DISubprogram(name: "atan", scope: !1566, file: !1566, line: 57, type: !1567, flags: DIFlagPrototyped, spFlags: DISPFlagOptimized)
!1574 = !DIImportedEntity(tag: DW_TAG_imported_declaration, scope: !1279, entity: !1575, file: !1569, line: 140)
!1575 = !DISubprogram(name: "atan2", scope: !1566, file: !1566, line: 59, type: !1576, flags: DIFlagPrototyped, spFlags: DISPFlagOptimized)
!1576 = !DISubroutineType(types: !1577)
!1577 = !{!415, !415, !415}
!1578 = !DIImportedEntity(tag: DW_TAG_imported_declaration, scope: !1279, entity: !1579, file: !1569, line: 161)
!1579 = !DISubprogram(name: "ceil", scope: !1566, file: !1566, line: 159, type: !1567, flags: DIFlagPrototyped, spFlags: DISPFlagOptimized)
!1580 = !DIImportedEntity(tag: DW_TAG_imported_declaration, scope: !1279, entity: !1581, file: !1569, line: 180)
!1581 = !DISubprogram(name: "cos", scope: !1566, file: !1566, line: 62, type: !1567, flags: DIFlagPrototyped, spFlags: DISPFlagOptimized)
!1582 = !DIImportedEntity(tag: DW_TAG_imported_declaration, scope: !1279, entity: !1583, file: !1569, line: 199)
!1583 = !DISubprogram(name: "cosh", scope: !1566, file: !1566, line: 71, type: !1567, flags: DIFlagPrototyped, spFlags: DISPFlagOptimized)
!1584 = !DIImportedEntity(tag: DW_TAG_imported_declaration, scope: !1279, entity: !1585, file: !1569, line: 218)
!1585 = !DISubprogram(name: "exp", scope: !1566, file: !1566, line: 95, type: !1567, flags: DIFlagPrototyped, spFlags: DISPFlagOptimized)
!1586 = !DIImportedEntity(tag: DW_TAG_imported_declaration, scope: !1279, entity: !1587, file: !1569, line: 237)
!1587 = !DISubprogram(name: "fabs", scope: !1566, file: !1566, line: 162, type: !1567, flags: DIFlagPrototyped, spFlags: DISPFlagOptimized)
!1588 = !DIImportedEntity(tag: DW_TAG_imported_declaration, scope: !1279, entity: !1589, file: !1569, line: 256)
!1589 = !DISubprogram(name: "floor", scope: !1566, file: !1566, line: 165, type: !1567, flags: DIFlagPrototyped, spFlags: DISPFlagOptimized)
!1590 = !DIImportedEntity(tag: DW_TAG_imported_declaration, scope: !1279, entity: !1591, file: !1569, line: 275)
!1591 = !DISubprogram(name: "fmod", scope: !1566, file: !1566, line: 168, type: !1576, flags: DIFlagPrototyped, spFlags: DISPFlagOptimized)
!1592 = !DIImportedEntity(tag: DW_TAG_imported_declaration, scope: !1279, entity: !1593, file: !1569, line: 296)
!1593 = !DISubprogram(name: "frexp", scope: !1566, file: !1566, line: 98, type: !1594, flags: DIFlagPrototyped, spFlags: DISPFlagOptimized)
!1594 = !DISubroutineType(types: !1595)
!1595 = !{!415, !415, !1596}
!1596 = !DIDerivedType(tag: DW_TAG_pointer_type, baseType: !34, size: 64)
!1597 = !DIImportedEntity(tag: DW_TAG_imported_declaration, scope: !1279, entity: !1598, file: !1569, line: 315)
!1598 = !DISubprogram(name: "ldexp", scope: !1566, file: !1566, line: 101, type: !1599, flags: DIFlagPrototyped, spFlags: DISPFlagOptimized)
!1599 = !DISubroutineType(types: !1600)
!1600 = !{!415, !415, !34}
!1601 = !DIImportedEntity(tag: DW_TAG_imported_declaration, scope: !1279, entity: !1602, file: !1569, line: 334)
!1602 = !DISubprogram(name: "log", scope: !1566, file: !1566, line: 104, type: !1567, flags: DIFlagPrototyped, spFlags: DISPFlagOptimized)
!1603 = !DIImportedEntity(tag: DW_TAG_imported_declaration, scope: !1279, entity: !1604, file: !1569, line: 353)
!1604 = !DISubprogram(name: "log10", scope: !1566, file: !1566, line: 107, type: !1567, flags: DIFlagPrototyped, spFlags: DISPFlagOptimized)
