; ModuleID = '../elements/standard/pullswitch.cc'
source_filename = "../elements/standard/pullswitch.cc"
target datalayout = "e-m:e-p270:32:32-p271:32:32-p272:64:64-i64:64-f80:128-n8:16:32:64-S128"
target triple = "x86_64-pc-linux-gnu"

%class.atomic_uint32_t = type { i32 }
%class.PullSwitch = type { %class.SimplePullSwitch, %class.ActiveNotifier, %class.NotifierSignal* }
%class.SimplePullSwitch = type { %class.Element.base, i32 }
%class.Element.base = type <{ i32 (...)**, [2 x %"class.Element::Port"*], [4 x %"class.Element::Port"], [2 x i32], %class.Router*, i32 }>
%"class.Element::Port" = type <{ %class.Element*, i32, [4 x i8] }>
%class.Element = type <{ i32 (...)**, [2 x %"class.Element::Port"*], [4 x %"class.Element::Port"], [2 x i32], %class.Router*, i32, [4 x i8] }>
%class.Router = type opaque
%class.ActiveNotifier = type { %class.Notifier.base, %class.Task*, %"union.ActiveNotifier::task_or_signal_t"* }
%class.Notifier.base = type <{ i32 (...)**, %class.NotifierSignal, i32 }>
%class.NotifierSignal = type <{ %"union.NotifierSignal::vmvalue", i32, [4 x i8] }>
%"union.NotifierSignal::vmvalue" = type { %class.atomic_uint32_t* }
%class.Task = type { %struct.TaskLink.base, i32, i32, %"union.Task::Status", i1 (%class.Task*, i8*)*, i8*, %class.RouterThread*, %class.Element*, %"union.Task::Pending" }
%struct.TaskLink.base = type <{ %struct.TaskLink*, %struct.TaskLink*, i32 }>
%struct.TaskLink = type <{ %struct.TaskLink*, %struct.TaskLink*, i32, [4 x i8] }>
%"union.Task::Status" = type { i32 }
%class.RouterThread = type { %struct.TaskLink, i8, [7 x i8], %class.TimerSet, %class.SelectSet, [32 x i8], %class.Spinlock, %class.atomic_uint32_t, %class.atomic_uint32_t, %"union.Task::Pending", %"union.Task::Pending"*, %class.SpinlockIRQ, [31 x i8], %class.Master*, i32, i8, i32, i32, [40 x i8] }
%class.TimerSet = type <{ %class.Timestamp, i32, i32, i32, [4 x i8], %class.Vector, %class.Vector.0, %class.SimpleSpinlock, [7 x i8], %class.Timestamp, i32, [4 x i8] }>
%class.Vector = type { %class.vector_memory }
%class.vector_memory = type { %struct.char_array*, i32, i32 }
%struct.char_array = type { [16 x i8] }
%class.Vector.0 = type { %class.vector_memory.1 }
%class.vector_memory.1 = type { %struct.char_array.2*, i32, i32 }
%struct.char_array.2 = type opaque
%class.SimpleSpinlock = type { i8 }
%class.Timestamp = type { %"union.Timestamp::rep_t" }
%"union.Timestamp::rep_t" = type { i64 }
%class.SelectSet = type { [2 x i32], i8, %class.Vector.3, %class.Vector.4 }
%class.Vector.3 = type { %class.vector_memory.1 }
%class.Vector.4 = type { %class.vector_memory.5 }
%class.vector_memory.5 = type { %struct.char_array.6*, i32, i32 }
%struct.char_array.6 = type opaque
%class.Spinlock = type { i8 }
%class.SpinlockIRQ = type { i8 }
%class.Master = type opaque
%"union.Task::Pending" = type { %class.Task* }
%"union.ActiveNotifier::task_or_signal_t" = type { %class.Task* }
%class.Notifier = type <{ i32 (...)**, %class.NotifierSignal, i32, [4 x i8] }>
%"struct.NotifierSignal::vmpair" = type { %class.atomic_uint32_t*, i32 }
%class.ErrorHandler = type <{ i32 (...)**, i32, [4 x i8] }>
%struct.anon = type { i16, i8, i8 }
%class.Packet = type { %class.atomic_uint32_t, %class.Packet*, i8*, i8*, i8*, i8*, %"struct.Packet::AllAnno", void (i8*, i64, i8*)*, i8* }
%"struct.Packet::AllAnno" = type { %"union.Packet::Anno", i8*, i8*, i8*, i32, [8 x i8], %class.Packet*, %class.Packet* }
%"union.Packet::Anno" = type { [6 x i64] }
%class.Timer = type { i32, %class.Timestamp, %union.anon, i8*, %class.Element*, %class.RouterThread* }
%union.anon = type { void (%class.Timer*, i8*)* }
%class.Vector.7 = type { %class.vector_memory.8 }
%class.vector_memory.8 = type { %class.String*, i32, i32 }
%class.String = type { %"struct.String::rep_t" }
%"struct.String::rep_t" = type { i8*, i32, %"struct.String::memo_t"* }
%"struct.String::memo_t" = type { i32, i32, i32, [8 x i8] }

$_ZNK14NotifierSignal6activeEv = comdat any

$_ZN14ActiveNotifier10set_activeEbb = comdat any

$_ZNK7Element5inputEi = comdat any

$_ZN10PullSwitchD2Ev = comdat any

$_ZN10PullSwitchD0Ev = comdat any

$_ZNK10PullSwitch10class_nameEv = comdat any

$_ZNK16SimplePullSwitch10port_countEv = comdat any

$_ZNK16SimplePullSwitch10processingEv = comdat any

$_ZNK16SimplePullSwitch20can_live_reconfigureEv = comdat any

$_ZNK7Element4portEbi = comdat any

@_ZTV10PullSwitch = dso_local unnamed_addr constant { [30 x i8*] } { [30 x i8*] [i8* null, i8* bitcast ({ i8*, i8*, i8* }* @_ZTI10PullSwitch to i8*), i8* bitcast (void (%class.PullSwitch*)* @_ZN10PullSwitchD2Ev to i8*), i8* bitcast (void (%class.PullSwitch*)* @_ZN10PullSwitchD0Ev to i8*), i8* bitcast (void (%class.Element*, i32, %class.Packet*)* @_ZN7Element4pushEiP6Packet to i8*), i8* bitcast (%class.Packet* (%class.PullSwitch*, i32)* @_ZN10PullSwitch4pullEi to i8*), i8* bitcast (%class.Packet* (%class.Element*, %class.Packet*)* @_ZN7Element13simple_actionEP6Packet to i8*), i8* bitcast (i1 (%class.Element*, %class.Task*)* @_ZN7Element8run_taskEP4Task to i8*), i8* bitcast (void (%class.Element*, %class.Timer*)* @_ZN7Element9run_timerEP5Timer to i8*), i8* bitcast (void (%class.Element*, i32, i32)* @_ZN7Element8selectedEii to i8*), i8* bitcast (void (%class.Element*, i32)* @_ZN7Element8selectedEi to i8*), i8* bitcast (i8* (%class.PullSwitch*)* @_ZNK10PullSwitch10class_nameEv to i8*), i8* bitcast (i8* (%class.SimplePullSwitch*)* @_ZNK16SimplePullSwitch10port_countEv to i8*), i8* bitcast (i8* (%class.SimplePullSwitch*)* @_ZNK16SimplePullSwitch10processingEv to i8*), i8* bitcast (i8* (%class.Element*)* @_ZNK7Element9flow_codeEv to i8*), i8* bitcast (i8* (%class.Element*)* @_ZNK7Element5flagsEv to i8*), i8* bitcast (i8* (%class.PullSwitch*, i8*)* @_ZN10PullSwitch4castEPKc to i8*), i8* bitcast (i8* (%class.Element*, i1, i32, i8*)* @_ZN7Element9port_castEbiPKc to i8*), i8* bitcast (i32 (%class.Element*)* @_ZNK7Element15configure_phaseEv to i8*), i8* bitcast (i32 (%class.SimplePullSwitch*, %class.Vector.7*, %class.ErrorHandler*)* @_ZN16SimplePullSwitch9configureER6VectorI6StringEP12ErrorHandler to i8*), i8* bitcast (void (%class.SimplePullSwitch*)* @_ZN16SimplePullSwitch12add_handlersEv to i8*), i8* bitcast (i32 (%class.PullSwitch*, %class.ErrorHandler*)* @_ZN10PullSwitch10initializeEP12ErrorHandler to i8*), i8* bitcast (void (%class.Element*, %class.Element*, %class.ErrorHandler*)* @_ZN7Element10take_stateEPS_P12ErrorHandler to i8*), i8* bitcast (%class.Element* (%class.Element*)* @_ZNK7Element15hotswap_elementEv to i8*), i8* bitcast (void (%class.PullSwitch*, i32)* @_ZN10PullSwitch7cleanupEN7Element12CleanupStageE to i8*), i8* bitcast (void (%class.String*, %class.Element*)* @_ZNK7Element11declarationEv to i8*), i8* bitcast (i1 (%class.SimplePullSwitch*)* @_ZNK16SimplePullSwitch20can_live_reconfigureEv to i8*), i8* bitcast (i32 (%class.Element*, %class.Vector.7*, %class.ErrorHandler*)* @_ZN7Element16live_reconfigureER6VectorI6StringEP12ErrorHandler to i8*), i8* bitcast (i32 (%class.SimplePullSwitch*, i32, i8*)* @_ZN16SimplePullSwitch5llrpcEjPv to i8*), i8* bitcast (void (%class.PullSwitch*, i32)* @_ZN10PullSwitch9set_inputEi to i8*)] }, align 8
@.str = private unnamed_addr constant [17 x i8] c"SimplePullSwitch\00", align 1
@_ZN8Notifier14EMPTY_NOTIFIERE = external constant [0 x i8], align 1
@_ZTVN10__cxxabiv120__si_class_type_infoE = external global i8*
@_ZTS10PullSwitch = dso_local constant [13 x i8] c"10PullSwitch\00", align 1
@_ZTI16SimplePullSwitch = external constant i8*
@_ZTI10PullSwitch = dso_local constant { i8*, i8*, i8* } { i8* bitcast (i8** getelementptr inbounds (i8*, i8** @_ZTVN10__cxxabiv120__si_class_type_infoE, i64 2) to i8*), i8* getelementptr inbounds ([13 x i8], [13 x i8]* @_ZTS10PullSwitch, i32 0, i32 0), i8* bitcast (i8** @_ZTI16SimplePullSwitch to i8*) }, align 8
@_ZN14NotifierSignal12static_valueE = external global %class.atomic_uint32_t, align 4
@.str.2 = private unnamed_addr constant [49 x i8] c"_v.v1 != &static_value && !(_mask & (_mask - 1))\00", align 1
@.str.3 = private unnamed_addr constant [31 x i8] c"../dummy_inc/click/notifier.hh\00", align 1
@__PRETTY_FUNCTION__._ZN14NotifierSignal10set_activeEb = private unnamed_addr constant [38 x i8] c"bool NotifierSignal::set_active(bool)\00", align 1
@.str.4 = private unnamed_addr constant [47 x i8] c"(unsigned) port < (unsigned) _nports[isoutput]\00", align 1
@.str.5 = private unnamed_addr constant [30 x i8] c"../dummy_inc/click/element.hh\00", align 1
@__PRETTY_FUNCTION__._ZNK7Element4portEbi = private unnamed_addr constant [52 x i8] c"const Element::Port &Element::port(bool, int) const\00", align 1
@.str.6 = private unnamed_addr constant [3 x i8] c"_e\00", align 1
@__PRETTY_FUNCTION__._ZNK7Element4Port4pullEv = private unnamed_addr constant [36 x i8] c"Packet *Element::Port::pull() const\00", align 1
@.str.7 = private unnamed_addr constant [11 x i8] c"PullSwitch\00", align 1
@.str.8 = private unnamed_addr constant [4 x i8] c"-/1\00", align 1
@_ZN7Element4PULLE = external constant [0 x i8], align 1

@_ZN10PullSwitchC1Ev = dso_local unnamed_addr alias void (%class.PullSwitch*), void (%class.PullSwitch*)* @_ZN10PullSwitchC2Ev

; Function Attrs: sspstrong uwtable
define dso_local void @_ZN10PullSwitchC2Ev(%class.PullSwitch* %0) unnamed_addr #0 align 2 personality i8* bitcast (i32 (...)* @__gxx_personality_v0 to i8*) !dbg !1927 {
  call void @llvm.dbg.value(metadata %class.PullSwitch* %0, metadata !1929, metadata !DIExpression()), !dbg !1930
  %2 = getelementptr %class.PullSwitch, %class.PullSwitch* %0, i64 0, i32 0, !dbg !1931
  tail call void @_ZN16SimplePullSwitchC2Ev(%class.SimplePullSwitch* %2), !dbg !1932
  %3 = getelementptr %class.PullSwitch, %class.PullSwitch* %0, i64 0, i32 0, i32 0, i32 0, !dbg !1931
  store i32 (...)** bitcast (i8** getelementptr inbounds ({ [30 x i8*] }, { [30 x i8*] }* @_ZTV10PullSwitch, i64 0, inrange i32 0, i64 2) to i32 (...)**), i32 (...)*** %3, align 8, !dbg !1931, !tbaa !1933
  %4 = getelementptr inbounds %class.PullSwitch, %class.PullSwitch* %0, i64 0, i32 1, !dbg !1932
  invoke void @_ZN14ActiveNotifierC1EN8Notifier8SearchOpE(%class.ActiveNotifier* nonnull %4, i32 0)
          to label %5 unwind label %7, !dbg !1932

5:                                                ; preds = %1
  %6 = getelementptr inbounds %class.PullSwitch, %class.PullSwitch* %0, i64 0, i32 2, !dbg !1936
  store %class.NotifierSignal* null, %class.NotifierSignal** %6, align 8, !dbg !1936, !tbaa !1937
  ret void, !dbg !1942

7:                                                ; preds = %1
  %8 = landingpad { i8*, i32 }
          cleanup, !dbg !1942
  tail call void @_ZN16SimplePullSwitchD2Ev(%class.SimplePullSwitch* %2) #14, !dbg !1943
  resume { i8*, i32 } %8, !dbg !1943
}

; Function Attrs: nounwind readnone speculatable willreturn
declare void @llvm.dbg.declare(metadata, metadata, metadata) #1

declare void @_ZN16SimplePullSwitchC2Ev(%class.SimplePullSwitch*) unnamed_addr #2

declare void @_ZN14ActiveNotifierC1EN8Notifier8SearchOpE(%class.ActiveNotifier*, i32) unnamed_addr #2

declare i32 @__gxx_personality_v0(...)

; Function Attrs: nounwind
declare void @_ZN16SimplePullSwitchD2Ev(%class.SimplePullSwitch*) unnamed_addr #3

; Function Attrs: sspstrong uwtable
define dso_local i8* @_ZN10PullSwitch4castEPKc(%class.PullSwitch* %0, i8* %1) unnamed_addr #0 align 2 !dbg !1945 {
  call void @llvm.dbg.value(metadata %class.PullSwitch* %0, metadata !1947, metadata !DIExpression()), !dbg !1949
  call void @llvm.dbg.value(metadata i8* %1, metadata !1948, metadata !DIExpression()), !dbg !1949
  %3 = tail call i32 @strcmp(i8* nonnull dereferenceable(1) %1, i8* nonnull dereferenceable(17) getelementptr inbounds ([17 x i8], [17 x i8]* @.str, i64 0, i64 0)) #15, !dbg !1950
  %4 = icmp eq i32 %3, 0, !dbg !1952
  br i1 %4, label %5, label %7, !dbg !1953

5:                                                ; preds = %2
  %6 = bitcast %class.PullSwitch* %0 to i8*, !dbg !1954
  br label %16, !dbg !1955

7:                                                ; preds = %2
  %8 = tail call i32 @strcmp(i8* nonnull dereferenceable(1) %1, i8* nonnull dereferenceable(1) getelementptr inbounds ([0 x i8], [0 x i8]* @_ZN8Notifier14EMPTY_NOTIFIERE, i64 0, i64 0)) #15, !dbg !1956
  %9 = icmp eq i32 %8, 0, !dbg !1958
  br i1 %9, label %10, label %13, !dbg !1959

10:                                               ; preds = %7
  %11 = getelementptr inbounds %class.PullSwitch, %class.PullSwitch* %0, i64 0, i32 1, !dbg !1960
  %12 = bitcast %class.ActiveNotifier* %11 to i8*, !dbg !1961
  br label %16, !dbg !1962

13:                                               ; preds = %7
  %14 = bitcast %class.PullSwitch* %0 to %class.Element*, !dbg !1963
  %15 = tail call i8* @_ZN7Element4castEPKc(%class.Element* %14, i8* %1), !dbg !1963
  br label %16, !dbg !1964

16:                                               ; preds = %13, %10, %5
  %17 = phi i8* [ %6, %5 ], [ %12, %10 ], [ %15, %13 ], !dbg !1965
  ret i8* %17, !dbg !1966
}

; Function Attrs: nofree nounwind readonly
declare i32 @strcmp(i8* nocapture, i8* nocapture) local_unnamed_addr #4

declare i8* @_ZN7Element4castEPKc(%class.Element*, i8*) unnamed_addr #2

; Function Attrs: sspstrong uwtable
define dso_local void @_ZN10PullSwitch13wake_callbackEPvP8Notifier(i8* %0, %class.Notifier* nocapture readnone %1) #0 align 2 !dbg !1967 {
  call void @llvm.dbg.value(metadata i8* %0, metadata !1969, metadata !DIExpression()), !dbg !1972
  call void @llvm.dbg.value(metadata %class.Notifier* undef, metadata !1970, metadata !DIExpression()), !dbg !1972
  call void @llvm.dbg.value(metadata i8* %0, metadata !1971, metadata !DIExpression()), !dbg !1972
  %3 = getelementptr inbounds i8, i8* %0, i64 108, !dbg !1973
  %4 = bitcast i8* %3 to i32*, !dbg !1973
  %5 = load i32, i32* %4, align 4, !dbg !1973, !tbaa !1975
  %6 = icmp sgt i32 %5, -1, !dbg !1978
  br i1 %6, label %7, label %80, !dbg !1979

7:                                                ; preds = %2
  %8 = getelementptr inbounds i8, i8* %0, i64 112, !dbg !1980
  %9 = bitcast i8* %8 to %class.ActiveNotifier*, !dbg !1980
  call void @llvm.dbg.value(metadata i8* %8, metadata !1981, metadata !DIExpression()), !dbg !1990
  %10 = getelementptr inbounds i8, i8* %0, i64 120, !dbg !1992
  call void @llvm.dbg.value(metadata i8* %10, metadata !1993, metadata !DIExpression()), !dbg !2001
  tail call void asm sideeffect "", "~{memory},~{dirflag},~{fpsr},~{flags}"() #14, !dbg !2003, !srcloc !2009
  %11 = getelementptr inbounds i8, i8* %0, i64 128, !dbg !2010
  %12 = bitcast i8* %11 to i32*, !dbg !2010
  %13 = load i32, i32* %12, align 8, !dbg !2010, !tbaa !2011
  %14 = icmp eq i32 %13, 0, !dbg !2010
  br i1 %14, label %15, label %35, !dbg !2013, !prof !2014, !misexpect !2015

15:                                               ; preds = %7
  %16 = bitcast i8* %10 to %"struct.NotifierSignal::vmpair"**, !dbg !2016
  call void @llvm.dbg.value(metadata %"struct.NotifierSignal::vmpair"** %16, metadata !1993, metadata !DIExpression()), !dbg !2001
  %17 = load %"struct.NotifierSignal::vmpair"*, %"struct.NotifierSignal::vmpair"** %16, align 8, !dbg !2016, !tbaa !2017
  call void @llvm.dbg.value(metadata %"struct.NotifierSignal::vmpair"* %17, metadata !1996, metadata !DIExpression()), !dbg !2018
  %18 = getelementptr inbounds %"struct.NotifierSignal::vmpair", %"struct.NotifierSignal::vmpair"* %17, i64 0, i32 1, !dbg !2019
  %19 = load i32, i32* %18, align 8, !dbg !2019, !tbaa !2021
  %20 = icmp eq i32 %19, 0, !dbg !2023
  br i1 %20, label %42, label %26, !dbg !2024

21:                                               ; preds = %26
  %22 = getelementptr inbounds %"struct.NotifierSignal::vmpair", %"struct.NotifierSignal::vmpair"* %28, i64 1, !dbg !2025
  call void @llvm.dbg.value(metadata %"struct.NotifierSignal::vmpair"* %22, metadata !1996, metadata !DIExpression()), !dbg !2018
  call void @llvm.dbg.value(metadata %"struct.NotifierSignal::vmpair"* %22, metadata !1996, metadata !DIExpression()), !dbg !2018
  %23 = getelementptr inbounds %"struct.NotifierSignal::vmpair", %"struct.NotifierSignal::vmpair"* %28, i64 1, i32 1, !dbg !2019
  %24 = load i32, i32* %23, align 8, !dbg !2019, !tbaa !2021
  %25 = icmp eq i32 %24, 0, !dbg !2023
  br i1 %25, label %42, label %26, !dbg !2024, !llvm.loop !2026

26:                                               ; preds = %15, %21
  %27 = phi i32 [ %24, %21 ], [ %19, %15 ]
  %28 = phi %"struct.NotifierSignal::vmpair"* [ %22, %21 ], [ %17, %15 ]
  call void @llvm.dbg.value(metadata %"struct.NotifierSignal::vmpair"* %28, metadata !1996, metadata !DIExpression()), !dbg !2018
  %29 = getelementptr inbounds %"struct.NotifierSignal::vmpair", %"struct.NotifierSignal::vmpair"* %28, i64 0, i32 0, !dbg !2028
  %30 = load %class.atomic_uint32_t*, %class.atomic_uint32_t** %29, align 8, !dbg !2028, !tbaa !2030
  call void @llvm.dbg.value(metadata %class.atomic_uint32_t* %30, metadata !2031, metadata !DIExpression()), !dbg !2035
  call void @llvm.dbg.value(metadata %class.atomic_uint32_t* %30, metadata !2037, metadata !DIExpression()), !dbg !2040
  %31 = getelementptr inbounds %class.atomic_uint32_t, %class.atomic_uint32_t* %30, i64 0, i32 0, !dbg !2042
  %32 = load i32, i32* %31, align 4, !dbg !2042, !tbaa !2043
  %33 = and i32 %32, %27, !dbg !2045
  %34 = icmp eq i32 %33, 0, !dbg !2046
  call void @llvm.dbg.value(metadata %"struct.NotifierSignal::vmpair"* %28, metadata !1996, metadata !DIExpression(DW_OP_plus_uconst, 16, DW_OP_stack_value)), !dbg !2018
  br i1 %34, label %21, label %80, !dbg !2047

35:                                               ; preds = %7
  %36 = bitcast i8* %10 to %class.atomic_uint32_t**, !dbg !2048
  %37 = load %class.atomic_uint32_t*, %class.atomic_uint32_t** %36, align 8, !dbg !2048, !tbaa !2017
  call void @llvm.dbg.value(metadata %class.atomic_uint32_t* %37, metadata !2031, metadata !DIExpression()), !dbg !2049
  call void @llvm.dbg.value(metadata %class.atomic_uint32_t* %37, metadata !2037, metadata !DIExpression()), !dbg !2051
  %38 = getelementptr inbounds %class.atomic_uint32_t, %class.atomic_uint32_t* %37, i64 0, i32 0, !dbg !2053
  %39 = load i32, i32* %38, align 4, !dbg !2053, !tbaa !2043
  %40 = and i32 %39, %13, !dbg !2054
  %41 = icmp eq i32 %40, 0, !dbg !2055
  br i1 %41, label %42, label %80, !dbg !2056

42:                                               ; preds = %21, %35, %15
  %43 = getelementptr inbounds i8, i8* %0, i64 160, !dbg !2057
  %44 = bitcast i8* %43 to %class.NotifierSignal**, !dbg !2057
  %45 = load %class.NotifierSignal*, %class.NotifierSignal** %44, align 8, !dbg !2057, !tbaa !1937
  %46 = load i32, i32* %4, align 4, !dbg !2058, !tbaa !1975
  %47 = sext i32 %46 to i64, !dbg !2059
  %48 = getelementptr inbounds %class.NotifierSignal, %class.NotifierSignal* %45, i64 %47, !dbg !2059
  call void @llvm.dbg.value(metadata %class.NotifierSignal* %48, metadata !1993, metadata !DIExpression()), !dbg !2060
  tail call void asm sideeffect "", "~{memory},~{dirflag},~{fpsr},~{flags}"() #14, !dbg !2062, !srcloc !2009
  %49 = getelementptr inbounds %class.NotifierSignal, %class.NotifierSignal* %45, i64 %47, i32 1, !dbg !2065
  %50 = load i32, i32* %49, align 8, !dbg !2065, !tbaa !2011
  %51 = icmp eq i32 %50, 0, !dbg !2065
  br i1 %51, label %52, label %72, !dbg !2066, !prof !2014, !misexpect !2015

52:                                               ; preds = %42
  %53 = bitcast %class.NotifierSignal* %48 to %"struct.NotifierSignal::vmpair"**, !dbg !2067
  %54 = load %"struct.NotifierSignal::vmpair"*, %"struct.NotifierSignal::vmpair"** %53, align 8, !dbg !2067, !tbaa !2017
  call void @llvm.dbg.value(metadata %"struct.NotifierSignal::vmpair"* %54, metadata !1996, metadata !DIExpression()), !dbg !2068
  %55 = getelementptr inbounds %"struct.NotifierSignal::vmpair", %"struct.NotifierSignal::vmpair"* %54, i64 0, i32 1, !dbg !2069
  %56 = load i32, i32* %55, align 8, !dbg !2069, !tbaa !2021
  %57 = icmp eq i32 %56, 0, !dbg !2070
  br i1 %57, label %80, label %63, !dbg !2071

58:                                               ; preds = %63
  %59 = getelementptr inbounds %"struct.NotifierSignal::vmpair", %"struct.NotifierSignal::vmpair"* %65, i64 1, !dbg !2072
  call void @llvm.dbg.value(metadata %"struct.NotifierSignal::vmpair"* %59, metadata !1996, metadata !DIExpression()), !dbg !2068
  call void @llvm.dbg.value(metadata %"struct.NotifierSignal::vmpair"* %59, metadata !1996, metadata !DIExpression()), !dbg !2068
  %60 = getelementptr inbounds %"struct.NotifierSignal::vmpair", %"struct.NotifierSignal::vmpair"* %65, i64 1, i32 1, !dbg !2069
  %61 = load i32, i32* %60, align 8, !dbg !2069, !tbaa !2021
  %62 = icmp eq i32 %61, 0, !dbg !2070
  br i1 %62, label %80, label %63, !dbg !2071, !llvm.loop !2073

63:                                               ; preds = %52, %58
  %64 = phi i32 [ %61, %58 ], [ %56, %52 ]
  %65 = phi %"struct.NotifierSignal::vmpair"* [ %59, %58 ], [ %54, %52 ]
  call void @llvm.dbg.value(metadata %"struct.NotifierSignal::vmpair"* %65, metadata !1996, metadata !DIExpression()), !dbg !2068
  %66 = getelementptr inbounds %"struct.NotifierSignal::vmpair", %"struct.NotifierSignal::vmpair"* %65, i64 0, i32 0, !dbg !2075
  %67 = load %class.atomic_uint32_t*, %class.atomic_uint32_t** %66, align 8, !dbg !2075, !tbaa !2030
  call void @llvm.dbg.value(metadata %class.atomic_uint32_t* %67, metadata !2031, metadata !DIExpression()), !dbg !2076
  call void @llvm.dbg.value(metadata %class.atomic_uint32_t* %67, metadata !2037, metadata !DIExpression()), !dbg !2078
  %68 = getelementptr inbounds %class.atomic_uint32_t, %class.atomic_uint32_t* %67, i64 0, i32 0, !dbg !2080
  %69 = load i32, i32* %68, align 4, !dbg !2080, !tbaa !2043
  %70 = and i32 %69, %64, !dbg !2081
  %71 = icmp eq i32 %70, 0, !dbg !2082
  call void @llvm.dbg.value(metadata %"struct.NotifierSignal::vmpair"* %65, metadata !1996, metadata !DIExpression(DW_OP_plus_uconst, 16, DW_OP_stack_value)), !dbg !2068
  br i1 %71, label %58, label %79, !dbg !2083

72:                                               ; preds = %42
  %73 = getelementptr inbounds %class.NotifierSignal, %class.NotifierSignal* %48, i64 0, i32 0, i32 0, !dbg !2084
  %74 = load %class.atomic_uint32_t*, %class.atomic_uint32_t** %73, align 8, !dbg !2084, !tbaa !2017
  call void @llvm.dbg.value(metadata %class.atomic_uint32_t* %74, metadata !2031, metadata !DIExpression()), !dbg !2085
  call void @llvm.dbg.value(metadata %class.atomic_uint32_t* %74, metadata !2037, metadata !DIExpression()), !dbg !2087
  %75 = getelementptr inbounds %class.atomic_uint32_t, %class.atomic_uint32_t* %74, i64 0, i32 0, !dbg !2089
  %76 = load i32, i32* %75, align 4, !dbg !2089, !tbaa !2043
  %77 = and i32 %76, %50, !dbg !2090
  %78 = icmp eq i32 %77, 0, !dbg !2091
  br i1 %78, label %80, label %79, !dbg !2092

79:                                               ; preds = %63, %72
  call void @llvm.dbg.value(metadata %class.ActiveNotifier* %9, metadata !2093, metadata !DIExpression()), !dbg !2101
  tail call void @_ZN14ActiveNotifier10set_activeEbb(%class.ActiveNotifier* nonnull %9, i1 zeroext true, i1 zeroext true), !dbg !2103
  br label %80, !dbg !2104

80:                                               ; preds = %26, %58, %72, %35, %52, %79, %2
  ret void, !dbg !2105
}

; Function Attrs: argmemonly nounwind willreturn
declare void @llvm.lifetime.start.p0i8(i64 immarg, i8* nocapture) #5

; Function Attrs: inlinehint sspstrong uwtable
define linkonce_odr dso_local zeroext i1 @_ZNK14NotifierSignal6activeEv(%class.NotifierSignal* %0) #6 comdat align 2 !dbg !1994 {
  call void @llvm.dbg.value(metadata %class.NotifierSignal* %0, metadata !1993, metadata !DIExpression()), !dbg !2106
  tail call void asm sideeffect "", "~{memory},~{dirflag},~{fpsr},~{flags}"() #14, !dbg !2107, !srcloc !2009
  %2 = getelementptr inbounds %class.NotifierSignal, %class.NotifierSignal* %0, i64 0, i32 1, !dbg !2110
  %3 = load i32, i32* %2, align 8, !dbg !2110, !tbaa !2011
  %4 = icmp eq i32 %3, 0, !dbg !2110
  br i1 %4, label %12, label %5, !dbg !2111, !prof !2014, !misexpect !2015

5:                                                ; preds = %1
  %6 = getelementptr inbounds %class.NotifierSignal, %class.NotifierSignal* %0, i64 0, i32 0, i32 0, !dbg !2112
  %7 = load %class.atomic_uint32_t*, %class.atomic_uint32_t** %6, align 8, !dbg !2112, !tbaa !2017
  call void @llvm.dbg.value(metadata %class.atomic_uint32_t* %7, metadata !2031, metadata !DIExpression()), !dbg !2113
  call void @llvm.dbg.value(metadata %class.atomic_uint32_t* %7, metadata !2037, metadata !DIExpression()), !dbg !2115
  %8 = getelementptr inbounds %class.atomic_uint32_t, %class.atomic_uint32_t* %7, i64 0, i32 0, !dbg !2117
  %9 = load i32, i32* %8, align 4, !dbg !2117, !tbaa !2043
  %10 = and i32 %9, %3, !dbg !2118
  %11 = icmp ne i32 %10, 0, !dbg !2119
  ret i1 %11, !dbg !2120

12:                                               ; preds = %1
  %13 = bitcast %class.NotifierSignal* %0 to %"struct.NotifierSignal::vmpair"**, !dbg !2121
  %14 = load %"struct.NotifierSignal::vmpair"*, %"struct.NotifierSignal::vmpair"** %13, align 8, !dbg !2121, !tbaa !2017
  call void @llvm.dbg.value(metadata %"struct.NotifierSignal::vmpair"* %14, metadata !1996, metadata !DIExpression()), !dbg !2122
  %15 = getelementptr inbounds %"struct.NotifierSignal::vmpair", %"struct.NotifierSignal::vmpair"* %14, i64 0, i32 1, !dbg !2123
  %16 = load i32, i32* %15, align 8, !dbg !2123, !tbaa !2021
  %17 = icmp eq i32 %16, 0, !dbg !2124
  br i1 %17, label %32, label %23, !dbg !2125

18:                                               ; preds = %23
  %19 = getelementptr inbounds %"struct.NotifierSignal::vmpair", %"struct.NotifierSignal::vmpair"* %25, i64 1, !dbg !2126
  call void @llvm.dbg.value(metadata %"struct.NotifierSignal::vmpair"* %19, metadata !1996, metadata !DIExpression()), !dbg !2122
  call void @llvm.dbg.value(metadata %"struct.NotifierSignal::vmpair"* %19, metadata !1996, metadata !DIExpression()), !dbg !2122
  %20 = getelementptr inbounds %"struct.NotifierSignal::vmpair", %"struct.NotifierSignal::vmpair"* %25, i64 1, i32 1, !dbg !2123
  %21 = load i32, i32* %20, align 8, !dbg !2123, !tbaa !2021
  %22 = icmp eq i32 %21, 0, !dbg !2124
  br i1 %22, label %32, label %23, !dbg !2125, !llvm.loop !2127

23:                                               ; preds = %12, %18
  %24 = phi i32 [ %21, %18 ], [ %16, %12 ]
  %25 = phi %"struct.NotifierSignal::vmpair"* [ %19, %18 ], [ %14, %12 ]
  call void @llvm.dbg.value(metadata %"struct.NotifierSignal::vmpair"* %25, metadata !1996, metadata !DIExpression()), !dbg !2122
  %26 = getelementptr inbounds %"struct.NotifierSignal::vmpair", %"struct.NotifierSignal::vmpair"* %25, i64 0, i32 0, !dbg !2129
  %27 = load %class.atomic_uint32_t*, %class.atomic_uint32_t** %26, align 8, !dbg !2129, !tbaa !2030
  call void @llvm.dbg.value(metadata %class.atomic_uint32_t* %27, metadata !2031, metadata !DIExpression()), !dbg !2130
  call void @llvm.dbg.value(metadata %class.atomic_uint32_t* %27, metadata !2037, metadata !DIExpression()), !dbg !2132
  %28 = getelementptr inbounds %class.atomic_uint32_t, %class.atomic_uint32_t* %27, i64 0, i32 0, !dbg !2134
  %29 = load i32, i32* %28, align 4, !dbg !2134, !tbaa !2043
  %30 = and i32 %29, %24, !dbg !2135
  %31 = icmp eq i32 %30, 0, !dbg !2136
  call void @llvm.dbg.value(metadata %"struct.NotifierSignal::vmpair"* %25, metadata !1996, metadata !DIExpression(DW_OP_plus_uconst, 16, DW_OP_stack_value)), !dbg !2122
  br i1 %31, label %18, label %32, !dbg !2137

32:                                               ; preds = %23, %18, %12
  %33 = phi i1 [ false, %12 ], [ false, %18 ], [ true, %23 ]
  ret i1 %33
}

; Function Attrs: argmemonly nounwind willreturn
declare void @llvm.lifetime.end.p0i8(i64 immarg, i8* nocapture) #5

; Function Attrs: sspstrong uwtable
define dso_local i32 @_ZN10PullSwitch10initializeEP12ErrorHandler(%class.PullSwitch* %0, %class.ErrorHandler* nocapture readnone %1) unnamed_addr #0 align 2 personality i8* bitcast (i32 (...)* @__gxx_personality_v0 to i8*) !dbg !2138 {
  %3 = alloca %class.NotifierSignal, align 8
  call void @llvm.dbg.value(metadata %class.PullSwitch* %0, metadata !2140, metadata !DIExpression()), !dbg !2144
  call void @llvm.dbg.value(metadata %class.ErrorHandler* undef, metadata !2141, metadata !DIExpression()), !dbg !2144
  %4 = getelementptr inbounds %class.PullSwitch, %class.PullSwitch* %0, i64 0, i32 1, !dbg !2145
  %5 = bitcast %class.ActiveNotifier* %4 to %class.Notifier*, !dbg !2145
  %6 = bitcast %class.PullSwitch* %0 to %class.Element*, !dbg !2146
  call void @llvm.dbg.value(metadata %class.Element* %6, metadata !2147, metadata !DIExpression()), !dbg !2156
  %7 = getelementptr inbounds %class.PullSwitch, %class.PullSwitch* %0, i64 0, i32 0, i32 0, i32 4, !dbg !2158
  %8 = load %class.Router*, %class.Router** %7, align 8, !dbg !2158, !tbaa !2159
  %9 = tail call i32 @_ZN8Notifier10initializeEPKcP6Router(%class.Notifier* nonnull %5, i8* getelementptr inbounds ([0 x i8], [0 x i8]* @_ZN8Notifier14EMPTY_NOTIFIERE, i64 0, i64 0), %class.Router* %8), !dbg !2161
  %10 = getelementptr inbounds %class.PullSwitch, %class.PullSwitch* %0, i64 0, i32 0, i32 1, !dbg !2162
  %11 = load i32, i32* %10, align 4, !dbg !2162, !tbaa !1975
  %12 = icmp sgt i32 %11, -1, !dbg !2163
  call void @llvm.dbg.value(metadata %class.ActiveNotifier* %4, metadata !2164, metadata !DIExpression()), !dbg !3353
  call void @llvm.dbg.value(metadata i1 %12, metadata !2170, metadata !DIExpression()), !dbg !3353
  call void @llvm.dbg.value(metadata i1 false, metadata !2171, metadata !DIExpression()), !dbg !3353
  call void @llvm.dbg.value(metadata %class.ActiveNotifier* %4, metadata !3355, metadata !DIExpression()), !dbg !3363
  call void @llvm.dbg.value(metadata i1 %12, metadata !3362, metadata !DIExpression()), !dbg !3363
  call void @llvm.dbg.value(metadata %class.ActiveNotifier* %4, metadata !3365, metadata !DIExpression(DW_OP_plus_uconst, 8, DW_OP_stack_value)), !dbg !3370
  call void @llvm.dbg.value(metadata i1 %12, metadata !3368, metadata !DIExpression()), !dbg !3370
  %13 = getelementptr inbounds %class.PullSwitch, %class.PullSwitch* %0, i64 0, i32 1, i32 0, i32 1, i32 0, i32 0, !dbg !3372
  %14 = load %class.atomic_uint32_t*, %class.atomic_uint32_t** %13, align 8, !dbg !3372, !tbaa !2017
  %15 = icmp eq %class.atomic_uint32_t* %14, @_ZN14NotifierSignal12static_valueE, !dbg !3372
  br i1 %15, label %21, label %16, !dbg !3372

16:                                               ; preds = %2
  %17 = getelementptr inbounds %class.PullSwitch, %class.PullSwitch* %0, i64 0, i32 1, i32 0, i32 1, i32 1, !dbg !3372
  %18 = load i32, i32* %17, align 8, !dbg !3372, !tbaa !2011
  %19 = tail call i32 @llvm.ctpop.i32(i32 %18), !dbg !3372, !range !3373
  %20 = icmp ult i32 %19, 2, !dbg !3372
  br i1 %20, label %22, label %21, !dbg !3372

21:                                               ; preds = %16, %2
  tail call void @__assert_fail(i8* getelementptr inbounds ([49 x i8], [49 x i8]* @.str.2, i64 0, i64 0), i8* getelementptr inbounds ([31 x i8], [31 x i8]* @.str.3, i64 0, i64 0), i32 293, i8* getelementptr inbounds ([38 x i8], [38 x i8]* @__PRETTY_FUNCTION__._ZN14NotifierSignal10set_activeEb, i64 0, i64 0)) #16, !dbg !3372
  unreachable, !dbg !3372

22:                                               ; preds = %16
  call void @llvm.dbg.value(metadata %class.atomic_uint32_t* %14, metadata !2031, metadata !DIExpression()), !dbg !3374
  call void @llvm.dbg.value(metadata %class.atomic_uint32_t* %14, metadata !2037, metadata !DIExpression()), !dbg !3376
  %23 = getelementptr inbounds %class.atomic_uint32_t, %class.atomic_uint32_t* %14, i64 0, i32 0, !dbg !3378
  %24 = load i32, i32* %23, align 4, !dbg !3378, !tbaa !2043
  call void @llvm.dbg.value(metadata i32 %24, metadata !3369, metadata !DIExpression()), !dbg !3370
  %25 = or i32 %24, %18, !dbg !3379
  %26 = xor i32 %18, -1, !dbg !3379
  %27 = and i32 %24, %26, !dbg !3379
  %28 = select i1 %12, i32 %25, i32 %27, !dbg !3379
  call void @llvm.dbg.value(metadata %class.atomic_uint32_t* %14, metadata !3380, metadata !DIExpression()), !dbg !3384
  call void @llvm.dbg.value(metadata i32 %28, metadata !3383, metadata !DIExpression()), !dbg !3384
  store i32 %28, i32* %23, align 4, !dbg !3386, !tbaa !2043
  call void @llvm.dbg.value(metadata i1 undef, metadata !2172, metadata !DIExpression()), !dbg !3353
  call void @llvm.dbg.value(metadata %class.Element* %6, metadata !3387, metadata !DIExpression()), !dbg !3393
  %29 = getelementptr inbounds %class.PullSwitch, %class.PullSwitch* %0, i64 0, i32 0, i32 0, i32 3, i64 0, !dbg !3396
  %30 = load i32, i32* %29, align 8, !dbg !3396, !tbaa !3397
  %31 = sext i32 %30 to i64, !dbg !3398
  %32 = tail call { i64, i1 } @llvm.umul.with.overflow.i64(i64 %31, i64 16), !dbg !3399
  %33 = extractvalue { i64, i1 } %32, 1, !dbg !3399
  %34 = extractvalue { i64, i1 } %32, 0, !dbg !3399
  %35 = or i64 %34, 8, !dbg !3399
  %36 = select i1 %33, i64 -1, i64 %35, !dbg !3399
  %37 = tail call i8* @_Znam(i64 %36) #17, !dbg !3399
  %38 = bitcast i8* %37 to i64*, !dbg !3399
  store i64 %31, i64* %38, align 16, !dbg !3399
  %39 = getelementptr inbounds i8, i8* %37, i64 8, !dbg !3399
  %40 = bitcast i8* %39 to %class.NotifierSignal*, !dbg !3399
  %41 = icmp eq i32 %30, 0, !dbg !3399
  br i1 %41, label %42, label %45, !dbg !3399

42:                                               ; preds = %22
  %43 = getelementptr inbounds %class.PullSwitch, %class.PullSwitch* %0, i64 0, i32 2, !dbg !3400
  %44 = bitcast %class.NotifierSignal** %43 to i8**, !dbg !3401
  store i8* %39, i8** %44, align 8, !dbg !3401, !tbaa !1937
  call void @llvm.dbg.value(metadata i32 0, metadata !2142, metadata !DIExpression()), !dbg !3402
  call void @llvm.dbg.value(metadata %class.Element* %6, metadata !3387, metadata !DIExpression()), !dbg !3403
  br label %141, !dbg !3406

45:                                               ; preds = %22
  %46 = getelementptr inbounds %class.NotifierSignal, %class.NotifierSignal* %40, i64 %31, !dbg !3399
  %47 = shl nsw i64 %31, 4, !dbg !3399
  %48 = add nsw i64 %47, -16, !dbg !3399
  %49 = lshr exact i64 %48, 4, !dbg !3399
  %50 = add nuw nsw i64 %49, 1, !dbg !3399
  %51 = and i64 %50, 7, !dbg !3399
  %52 = icmp eq i64 %51, 0, !dbg !3399
  br i1 %52, label %61, label %53, !dbg !3399

53:                                               ; preds = %45, %53
  %54 = phi %class.NotifierSignal* [ %58, %53 ], [ %40, %45 ], !dbg !3399
  %55 = phi i64 [ %59, %53 ], [ %51, %45 ]
  call void @llvm.dbg.value(metadata %class.NotifierSignal* %54, metadata !3407, metadata !DIExpression()), !dbg !3410
  %56 = getelementptr inbounds %class.NotifierSignal, %class.NotifierSignal* %54, i64 0, i32 1, !dbg !3412
  store i32 1, i32* %56, align 8, !dbg !3412, !tbaa !2011
  %57 = getelementptr inbounds %class.NotifierSignal, %class.NotifierSignal* %54, i64 0, i32 0, i32 0, !dbg !3413
  store %class.atomic_uint32_t* @_ZN14NotifierSignal12static_valueE, %class.atomic_uint32_t** %57, align 8, !dbg !3415, !tbaa !2017
  %58 = getelementptr inbounds %class.NotifierSignal, %class.NotifierSignal* %54, i64 1, !dbg !3399
  %59 = add i64 %55, -1, !dbg !3399
  %60 = icmp eq i64 %59, 0, !dbg !3399
  br i1 %60, label %61, label %53, !dbg !3399, !llvm.loop !3416

61:                                               ; preds = %53, %45
  %62 = phi %class.NotifierSignal* [ %40, %45 ], [ %58, %53 ]
  %63 = icmp ult i64 %48, 112, !dbg !3399
  br i1 %63, label %84, label %64, !dbg !3399

64:                                               ; preds = %61, %64
  %65 = phi %class.NotifierSignal* [ %82, %64 ], [ %62, %61 ], !dbg !3399
  call void @llvm.dbg.value(metadata %class.NotifierSignal* %65, metadata !3407, metadata !DIExpression()), !dbg !3410
  %66 = getelementptr inbounds %class.NotifierSignal, %class.NotifierSignal* %65, i64 0, i32 1, !dbg !3412
  store i32 1, i32* %66, align 8, !dbg !3412, !tbaa !2011
  %67 = getelementptr inbounds %class.NotifierSignal, %class.NotifierSignal* %65, i64 0, i32 0, i32 0, !dbg !3413
  store %class.atomic_uint32_t* @_ZN14NotifierSignal12static_valueE, %class.atomic_uint32_t** %67, align 8, !dbg !3415, !tbaa !2017
  call void @llvm.dbg.value(metadata %class.NotifierSignal* %65, metadata !3407, metadata !DIExpression(DW_OP_plus_uconst, 16, DW_OP_stack_value)), !dbg !3410
  %68 = getelementptr inbounds %class.NotifierSignal, %class.NotifierSignal* %65, i64 1, i32 1, !dbg !3412
  store i32 1, i32* %68, align 8, !dbg !3412, !tbaa !2011
  %69 = getelementptr inbounds %class.NotifierSignal, %class.NotifierSignal* %65, i64 1, i32 0, i32 0, !dbg !3413
  store %class.atomic_uint32_t* @_ZN14NotifierSignal12static_valueE, %class.atomic_uint32_t** %69, align 8, !dbg !3415, !tbaa !2017
  call void @llvm.dbg.value(metadata %class.NotifierSignal* %65, metadata !3407, metadata !DIExpression(DW_OP_plus_uconst, 32, DW_OP_stack_value)), !dbg !3410
  %70 = getelementptr inbounds %class.NotifierSignal, %class.NotifierSignal* %65, i64 2, i32 1, !dbg !3412
  store i32 1, i32* %70, align 8, !dbg !3412, !tbaa !2011
  %71 = getelementptr inbounds %class.NotifierSignal, %class.NotifierSignal* %65, i64 2, i32 0, i32 0, !dbg !3413
  store %class.atomic_uint32_t* @_ZN14NotifierSignal12static_valueE, %class.atomic_uint32_t** %71, align 8, !dbg !3415, !tbaa !2017
  call void @llvm.dbg.value(metadata %class.NotifierSignal* %65, metadata !3407, metadata !DIExpression(DW_OP_plus_uconst, 48, DW_OP_stack_value)), !dbg !3410
  %72 = getelementptr inbounds %class.NotifierSignal, %class.NotifierSignal* %65, i64 3, i32 1, !dbg !3412
  store i32 1, i32* %72, align 8, !dbg !3412, !tbaa !2011
  %73 = getelementptr inbounds %class.NotifierSignal, %class.NotifierSignal* %65, i64 3, i32 0, i32 0, !dbg !3413
  store %class.atomic_uint32_t* @_ZN14NotifierSignal12static_valueE, %class.atomic_uint32_t** %73, align 8, !dbg !3415, !tbaa !2017
  call void @llvm.dbg.value(metadata %class.NotifierSignal* %65, metadata !3407, metadata !DIExpression(DW_OP_plus_uconst, 64, DW_OP_stack_value)), !dbg !3410
  %74 = getelementptr inbounds %class.NotifierSignal, %class.NotifierSignal* %65, i64 4, i32 1, !dbg !3412
  store i32 1, i32* %74, align 8, !dbg !3412, !tbaa !2011
  %75 = getelementptr inbounds %class.NotifierSignal, %class.NotifierSignal* %65, i64 4, i32 0, i32 0, !dbg !3413
  store %class.atomic_uint32_t* @_ZN14NotifierSignal12static_valueE, %class.atomic_uint32_t** %75, align 8, !dbg !3415, !tbaa !2017
  call void @llvm.dbg.value(metadata %class.NotifierSignal* %65, metadata !3407, metadata !DIExpression(DW_OP_plus_uconst, 80, DW_OP_stack_value)), !dbg !3410
  %76 = getelementptr inbounds %class.NotifierSignal, %class.NotifierSignal* %65, i64 5, i32 1, !dbg !3412
  store i32 1, i32* %76, align 8, !dbg !3412, !tbaa !2011
  %77 = getelementptr inbounds %class.NotifierSignal, %class.NotifierSignal* %65, i64 5, i32 0, i32 0, !dbg !3413
  store %class.atomic_uint32_t* @_ZN14NotifierSignal12static_valueE, %class.atomic_uint32_t** %77, align 8, !dbg !3415, !tbaa !2017
  call void @llvm.dbg.value(metadata %class.NotifierSignal* %65, metadata !3407, metadata !DIExpression(DW_OP_plus_uconst, 96, DW_OP_stack_value)), !dbg !3410
  %78 = getelementptr inbounds %class.NotifierSignal, %class.NotifierSignal* %65, i64 6, i32 1, !dbg !3412
  store i32 1, i32* %78, align 8, !dbg !3412, !tbaa !2011
  %79 = getelementptr inbounds %class.NotifierSignal, %class.NotifierSignal* %65, i64 6, i32 0, i32 0, !dbg !3413
  store %class.atomic_uint32_t* @_ZN14NotifierSignal12static_valueE, %class.atomic_uint32_t** %79, align 8, !dbg !3415, !tbaa !2017
  call void @llvm.dbg.value(metadata %class.NotifierSignal* %65, metadata !3407, metadata !DIExpression(DW_OP_plus_uconst, 112, DW_OP_stack_value)), !dbg !3410
  %80 = getelementptr inbounds %class.NotifierSignal, %class.NotifierSignal* %65, i64 7, i32 1, !dbg !3412
  store i32 1, i32* %80, align 8, !dbg !3412, !tbaa !2011
  %81 = getelementptr inbounds %class.NotifierSignal, %class.NotifierSignal* %65, i64 7, i32 0, i32 0, !dbg !3413
  store %class.atomic_uint32_t* @_ZN14NotifierSignal12static_valueE, %class.atomic_uint32_t** %81, align 8, !dbg !3415, !tbaa !2017
  %82 = getelementptr inbounds %class.NotifierSignal, %class.NotifierSignal* %65, i64 8, !dbg !3399
  %83 = icmp eq %class.NotifierSignal* %82, %46, !dbg !3399
  br i1 %83, label %84, label %64, !dbg !3399

84:                                               ; preds = %64, %61
  %85 = load i32, i32* %29, align 8, !dbg !3418, !tbaa !3397
  %86 = icmp sgt i32 %85, 0, !dbg !3400
  %87 = getelementptr inbounds %class.PullSwitch, %class.PullSwitch* %0, i64 0, i32 2, !dbg !3400
  %88 = bitcast %class.NotifierSignal** %87 to i8**, !dbg !3401
  store i8* %39, i8** %88, align 8, !dbg !3401, !tbaa !1937
  call void @llvm.dbg.value(metadata i32 0, metadata !2142, metadata !DIExpression()), !dbg !3402
  call void @llvm.dbg.value(metadata %class.Element* %6, metadata !3387, metadata !DIExpression()), !dbg !3403
  br i1 %86, label %89, label %141, !dbg !3406

89:                                               ; preds = %84
  %90 = bitcast %class.NotifierSignal* %3 to i8*, !dbg !3419
  %91 = bitcast %class.PullSwitch* %0 to i8*, !dbg !3419
  %92 = getelementptr inbounds %class.NotifierSignal, %class.NotifierSignal* %3, i64 0, i32 1, !dbg !3420
  %93 = bitcast %class.NotifierSignal* %3 to i64*, !dbg !3428
  %94 = bitcast %class.NotifierSignal* %3 to %"struct.NotifierSignal::vmpair"**, !dbg !3430
  br label %95, !dbg !3406

95:                                               ; preds = %89, %126
  %96 = phi i64 [ 0, %89 ], [ %127, %126 ]
  call void @llvm.dbg.value(metadata i64 %96, metadata !2142, metadata !DIExpression()), !dbg !3402
  call void @llvm.lifetime.start.p0i8(i64 16, i8* nonnull %90) #14, !dbg !3437
  %97 = trunc i64 %96 to i32, !dbg !3437
  call void @_ZN8Notifier21upstream_empty_signalEP7ElementiPFvPvPS_ES2_(%class.NotifierSignal* nonnull sret %3, %class.Element* nonnull %6, i32 %97, void (i8*, %class.Notifier*)* nonnull @_ZN10PullSwitch13wake_callbackEPvP8Notifier, i8* %91), !dbg !3437
  %98 = load %class.NotifierSignal*, %class.NotifierSignal** %87, align 8, !dbg !3438, !tbaa !1937
  %99 = getelementptr inbounds %class.NotifierSignal, %class.NotifierSignal* %98, i64 %96, !dbg !3438
  call void @llvm.dbg.value(metadata %class.NotifierSignal* %99, metadata !3425, metadata !DIExpression()), !dbg !3439
  call void @llvm.dbg.value(metadata %class.NotifierSignal* %3, metadata !3426, metadata !DIExpression()), !dbg !3439
  %100 = icmp eq %class.NotifierSignal* %99, %3, !dbg !3440
  br i1 %100, label %118, label %101, !dbg !3441, !prof !2014, !misexpect !2015

101:                                              ; preds = %95
  %102 = getelementptr inbounds %class.NotifierSignal, %class.NotifierSignal* %98, i64 %96, i32 1, !dbg !3442
  %103 = load i32, i32* %102, align 8, !dbg !3442, !tbaa !2011
  %104 = icmp eq i32 %103, 0, !dbg !3442
  br i1 %104, label %105, label %111, !dbg !3444, !prof !2014, !misexpect !3445

105:                                              ; preds = %101
  %106 = bitcast %class.NotifierSignal* %99 to %"struct.NotifierSignal::vmpair"**, !dbg !3446
  %107 = load %"struct.NotifierSignal::vmpair"*, %"struct.NotifierSignal::vmpair"** %106, align 8, !dbg !3446, !tbaa !2017
  %108 = icmp eq %"struct.NotifierSignal::vmpair"* %107, null, !dbg !3447
  br i1 %108, label %111, label %109, !dbg !3447

109:                                              ; preds = %105
  %110 = bitcast %"struct.NotifierSignal::vmpair"* %107 to i8*, !dbg !3447
  call void @_ZdaPv(i8* %110) #18, !dbg !3447
  br label %111, !dbg !3447

111:                                              ; preds = %109, %105, %101
  %112 = load i32, i32* %92, align 8, !dbg !3448, !tbaa !2011
  store i32 %112, i32* %102, align 8, !dbg !3449, !tbaa !2011
  %113 = icmp eq i32 %112, 0, !dbg !3450
  br i1 %113, label %117, label %114, !dbg !3451, !prof !2014, !misexpect !2015

114:                                              ; preds = %111
  %115 = load i64, i64* %93, align 8, !dbg !3452, !tbaa !2017
  %116 = bitcast %class.NotifierSignal* %99 to i64*, !dbg !3453
  store i64 %115, i64* %116, align 8, !dbg !3453, !tbaa !2017
  br label %118, !dbg !3454

117:                                              ; preds = %111
  invoke void @_ZN14NotifierSignal14hard_assign_vmERKS_(%class.NotifierSignal* nonnull %99, %class.NotifierSignal* nonnull dereferenceable(16) %3)
          to label %118 unwind label %131, !dbg !3455

118:                                              ; preds = %114, %95, %117
  call void @llvm.dbg.value(metadata %class.NotifierSignal* %3, metadata !3435, metadata !DIExpression()) #14, !dbg !3456
  %119 = load i32, i32* %92, align 8, !dbg !3457, !tbaa !2011
  %120 = icmp eq i32 %119, 0, !dbg !3457
  br i1 %120, label %121, label %126, !dbg !3458, !prof !2014, !misexpect !3445

121:                                              ; preds = %118
  %122 = load %"struct.NotifierSignal::vmpair"*, %"struct.NotifierSignal::vmpair"** %94, align 8, !dbg !3459, !tbaa !2017
  %123 = icmp eq %"struct.NotifierSignal::vmpair"* %122, null, !dbg !3460
  br i1 %123, label %126, label %124, !dbg !3460

124:                                              ; preds = %121
  %125 = bitcast %"struct.NotifierSignal::vmpair"* %122 to i8*, !dbg !3460
  call void @_ZdaPv(i8* %125) #18, !dbg !3460
  br label %126, !dbg !3460

126:                                              ; preds = %118, %121, %124
  call void @llvm.lifetime.end.p0i8(i64 16, i8* nonnull %90) #14, !dbg !3438
  %127 = add nuw nsw i64 %96, 1, !dbg !3461
  call void @llvm.dbg.value(metadata i64 %127, metadata !2142, metadata !DIExpression()), !dbg !3402
  call void @llvm.dbg.value(metadata %class.Element* %6, metadata !3387, metadata !DIExpression()), !dbg !3403
  %128 = load i32, i32* %29, align 8, !dbg !3418, !tbaa !3397
  %129 = sext i32 %128 to i64, !dbg !3462
  %130 = icmp slt i64 %127, %129, !dbg !3462
  br i1 %130, label %95, label %141, !dbg !3406, !llvm.loop !3463

131:                                              ; preds = %117
  %132 = landingpad { i8*, i32 }
          cleanup, !dbg !3465
  call void @llvm.dbg.value(metadata %class.NotifierSignal* %3, metadata !3435, metadata !DIExpression()) #14, !dbg !3466
  %133 = load i32, i32* %92, align 8, !dbg !3468, !tbaa !2011
  %134 = icmp eq i32 %133, 0, !dbg !3468
  br i1 %134, label %135, label %140, !dbg !3469, !prof !2014, !misexpect !3445

135:                                              ; preds = %131
  %136 = load %"struct.NotifierSignal::vmpair"*, %"struct.NotifierSignal::vmpair"** %94, align 8, !dbg !3470, !tbaa !2017
  %137 = icmp eq %"struct.NotifierSignal::vmpair"* %136, null, !dbg !3471
  br i1 %137, label %140, label %138, !dbg !3471

138:                                              ; preds = %135
  %139 = bitcast %"struct.NotifierSignal::vmpair"* %136 to i8*, !dbg !3471
  call void @_ZdaPv(i8* %139) #18, !dbg !3471
  br label %140, !dbg !3471

140:                                              ; preds = %131, %135, %138
  call void @llvm.lifetime.end.p0i8(i64 16, i8* nonnull %90) #14, !dbg !3438
  resume { i8*, i32 } %132, !dbg !3399

141:                                              ; preds = %126, %42, %84
  ret i32 0, !dbg !3472
}

declare i32 @_ZN8Notifier10initializeEPKcP6Router(%class.Notifier*, i8*, %class.Router*) local_unnamed_addr #2

; Function Attrs: inlinehint sspstrong uwtable
define linkonce_odr dso_local void @_ZN14ActiveNotifier10set_activeEbb(%class.ActiveNotifier* %0, i1 zeroext %1, i1 zeroext %2) local_unnamed_addr #6 comdat align 2 !dbg !2165 {
  call void @llvm.dbg.value(metadata %class.ActiveNotifier* %0, metadata !2164, metadata !DIExpression()), !dbg !3473
  call void @llvm.dbg.value(metadata i1 %1, metadata !2170, metadata !DIExpression()), !dbg !3473
  call void @llvm.dbg.value(metadata i1 %2, metadata !2171, metadata !DIExpression()), !dbg !3473
  %4 = bitcast %class.ActiveNotifier* %0 to %class.Notifier*, !dbg !3474
  call void @llvm.dbg.value(metadata %class.Notifier* %4, metadata !3355, metadata !DIExpression()), !dbg !3475
  call void @llvm.dbg.value(metadata i1 %1, metadata !3362, metadata !DIExpression()), !dbg !3475
  call void @llvm.dbg.value(metadata %class.Notifier* %4, metadata !3365, metadata !DIExpression(DW_OP_plus_uconst, 8, DW_OP_stack_value)), !dbg !3477
  call void @llvm.dbg.value(metadata i1 %1, metadata !3368, metadata !DIExpression()), !dbg !3477
  %5 = getelementptr inbounds %class.ActiveNotifier, %class.ActiveNotifier* %0, i64 0, i32 0, i32 1, i32 0, i32 0, !dbg !3479
  %6 = load %class.atomic_uint32_t*, %class.atomic_uint32_t** %5, align 8, !dbg !3479, !tbaa !2017
  %7 = icmp eq %class.atomic_uint32_t* %6, @_ZN14NotifierSignal12static_valueE, !dbg !3479
  br i1 %7, label %13, label %8, !dbg !3479

8:                                                ; preds = %3
  %9 = getelementptr inbounds %class.ActiveNotifier, %class.ActiveNotifier* %0, i64 0, i32 0, i32 1, i32 1, !dbg !3479
  %10 = load i32, i32* %9, align 8, !dbg !3479, !tbaa !2011
  %11 = tail call i32 @llvm.ctpop.i32(i32 %10), !dbg !3479, !range !3373
  %12 = icmp ult i32 %11, 2, !dbg !3479
  br i1 %12, label %14, label %13, !dbg !3479

13:                                               ; preds = %8, %3
  tail call void @__assert_fail(i8* getelementptr inbounds ([49 x i8], [49 x i8]* @.str.2, i64 0, i64 0), i8* getelementptr inbounds ([31 x i8], [31 x i8]* @.str.3, i64 0, i64 0), i32 293, i8* getelementptr inbounds ([38 x i8], [38 x i8]* @__PRETTY_FUNCTION__._ZN14NotifierSignal10set_activeEb, i64 0, i64 0)) #16, !dbg !3479
  unreachable, !dbg !3479

14:                                               ; preds = %8
  call void @llvm.dbg.value(metadata %class.atomic_uint32_t* %6, metadata !2031, metadata !DIExpression()), !dbg !3480
  call void @llvm.dbg.value(metadata %class.atomic_uint32_t* %6, metadata !2037, metadata !DIExpression()), !dbg !3482
  %15 = getelementptr inbounds %class.atomic_uint32_t, %class.atomic_uint32_t* %6, i64 0, i32 0, !dbg !3484
  %16 = load i32, i32* %15, align 4, !dbg !3484, !tbaa !2043
  call void @llvm.dbg.value(metadata i32 %16, metadata !3369, metadata !DIExpression()), !dbg !3477
  %17 = or i32 %16, %10, !dbg !3485
  %18 = xor i32 %10, -1, !dbg !3485
  %19 = and i32 %16, %18, !dbg !3485
  %20 = select i1 %1, i32 %17, i32 %19, !dbg !3485
  call void @llvm.dbg.value(metadata %class.atomic_uint32_t* %6, metadata !3380, metadata !DIExpression()), !dbg !3486
  call void @llvm.dbg.value(metadata i32 %20, metadata !3383, metadata !DIExpression()), !dbg !3486
  store i32 %20, i32* %15, align 4, !dbg !3488, !tbaa !2043
  %21 = and i32 %16, %10, !dbg !3489
  %22 = icmp ne i32 %21, 0, !dbg !3490
  call void @llvm.dbg.value(metadata i1 %22, metadata !2172, metadata !DIExpression()), !dbg !3473
  %23 = and i1 %1, %2, !dbg !3491
  %24 = xor i1 %23, true, !dbg !3491
  %25 = or i1 %22, %24, !dbg !3491
  br i1 %25, label %84, label %26, !dbg !3491

26:                                               ; preds = %14
  %27 = getelementptr inbounds %class.ActiveNotifier, %class.ActiveNotifier* %0, i64 0, i32 1, !dbg !3492
  %28 = load %class.Task*, %class.Task** %27, align 8, !dbg !3492, !tbaa !3493
  %29 = icmp eq %class.Task* %28, null, !dbg !3492
  br i1 %29, label %39, label %30, !dbg !3494

30:                                               ; preds = %26
  call void @llvm.dbg.value(metadata %class.Task* %28, metadata !3495, metadata !DIExpression()), !dbg !3498
  %31 = getelementptr inbounds %class.Task, %class.Task* %28, i64 0, i32 3, !dbg !3500
  %32 = bitcast %"union.Task::Status"* %31 to %struct.anon*, !dbg !3501
  %33 = getelementptr inbounds %struct.anon, %struct.anon* %32, i64 0, i32 1, !dbg !3501
  store i8 1, i8* %33, align 2, !dbg !3502, !tbaa !2017
  tail call void asm sideeffect "", "~{memory},~{dirflag},~{fpsr},~{flags}"() #14, !dbg !3503, !srcloc !2009
  %34 = getelementptr inbounds %class.Task, %class.Task* %28, i64 0, i32 8, !dbg !3506
  %35 = bitcast %"union.Task::Pending"* %34 to i64*, !dbg !3508
  %36 = load i64, i64* %35, align 8, !dbg !3508, !tbaa !2017
  %37 = icmp ult i64 %36, 2, !dbg !3509
  br i1 %37, label %38, label %84, !dbg !3510

38:                                               ; preds = %30
  tail call void @_ZN4Task17complete_scheduleEP12RouterThread(%class.Task* nonnull %28, %class.RouterThread* null), !dbg !3511
  br label %84, !dbg !3511

39:                                               ; preds = %26
  %40 = getelementptr inbounds %class.ActiveNotifier, %class.ActiveNotifier* %0, i64 0, i32 2, !dbg !3512
  %41 = load %"union.ActiveNotifier::task_or_signal_t"*, %"union.ActiveNotifier::task_or_signal_t"** %40, align 8, !dbg !3512, !tbaa !3513
  call void @llvm.dbg.value(metadata %"union.ActiveNotifier::task_or_signal_t"* %41, metadata !2173, metadata !DIExpression()), !dbg !3514
  %42 = icmp eq %"union.ActiveNotifier::task_or_signal_t"* %41, null, !dbg !3515
  br i1 %42, label %84, label %43, !dbg !3516

43:                                               ; preds = %39
  call void @llvm.dbg.value(metadata %"union.ActiveNotifier::task_or_signal_t"* %41, metadata !2173, metadata !DIExpression()), !dbg !3514
  %44 = bitcast %"union.ActiveNotifier::task_or_signal_t"* %41 to i64*, !dbg !3517
  %45 = load i64, i64* %44, align 8, !dbg !3517, !tbaa !2017
  %46 = icmp ugt i64 %45, 1, !dbg !3521
  br i1 %46, label %47, label %64, !dbg !3522

47:                                               ; preds = %43, %59
  %48 = phi %"union.ActiveNotifier::task_or_signal_t"* [ %60, %59 ], [ %41, %43 ]
  call void @llvm.dbg.value(metadata %"union.ActiveNotifier::task_or_signal_t"* %48, metadata !2173, metadata !DIExpression()), !dbg !3514
  %49 = getelementptr %"union.ActiveNotifier::task_or_signal_t", %"union.ActiveNotifier::task_or_signal_t"* %48, i64 0, i32 0, !dbg !3523
  %50 = load %class.Task*, %class.Task** %49, align 8, !dbg !3523, !tbaa !2017
  call void @llvm.dbg.value(metadata %class.Task* %50, metadata !3495, metadata !DIExpression()), !dbg !3524
  %51 = getelementptr inbounds %class.Task, %class.Task* %50, i64 0, i32 3, !dbg !3526
  %52 = bitcast %"union.Task::Status"* %51 to %struct.anon*, !dbg !3527
  %53 = getelementptr inbounds %struct.anon, %struct.anon* %52, i64 0, i32 1, !dbg !3527
  store i8 1, i8* %53, align 2, !dbg !3528, !tbaa !2017
  tail call void asm sideeffect "", "~{memory},~{dirflag},~{fpsr},~{flags}"() #14, !dbg !3529, !srcloc !2009
  %54 = getelementptr inbounds %class.Task, %class.Task* %50, i64 0, i32 8, !dbg !3532
  %55 = bitcast %"union.Task::Pending"* %54 to i64*, !dbg !3533
  %56 = load i64, i64* %55, align 8, !dbg !3533, !tbaa !2017
  %57 = icmp ult i64 %56, 2, !dbg !3534
  br i1 %57, label %58, label %59, !dbg !3535

58:                                               ; preds = %47
  tail call void @_ZN4Task17complete_scheduleEP12RouterThread(%class.Task* nonnull %50, %class.RouterThread* null), !dbg !3536
  br label %59, !dbg !3536

59:                                               ; preds = %47, %58
  %60 = getelementptr inbounds %"union.ActiveNotifier::task_or_signal_t", %"union.ActiveNotifier::task_or_signal_t"* %48, i64 1, !dbg !3537
  call void @llvm.dbg.value(metadata %"union.ActiveNotifier::task_or_signal_t"* %60, metadata !2173, metadata !DIExpression()), !dbg !3514
  %61 = bitcast %"union.ActiveNotifier::task_or_signal_t"* %60 to i64*, !dbg !3517
  %62 = load i64, i64* %61, align 8, !dbg !3517, !tbaa !2017
  %63 = icmp ugt i64 %62, 1, !dbg !3521
  br i1 %63, label %47, label %64, !dbg !3522, !llvm.loop !3538

64:                                               ; preds = %59, %43
  %65 = phi %"union.ActiveNotifier::task_or_signal_t"* [ %41, %43 ], [ %60, %59 ], !dbg !3514
  %66 = phi i64 [ %45, %43 ], [ %62, %59 ], !dbg !3517
  call void @llvm.dbg.value(metadata %"union.ActiveNotifier::task_or_signal_t"* %65, metadata !2173, metadata !DIExpression()), !dbg !3514
  %67 = icmp eq i64 %66, 1, !dbg !3540
  br i1 %67, label %68, label %84, !dbg !3542

68:                                               ; preds = %64
  %69 = getelementptr inbounds %"union.ActiveNotifier::task_or_signal_t", %"union.ActiveNotifier::task_or_signal_t"* %65, i64 1, !dbg !3543
  call void @llvm.dbg.value(metadata %"union.ActiveNotifier::task_or_signal_t"* %69, metadata !2173, metadata !DIExpression()), !dbg !3514
  %70 = bitcast %"union.ActiveNotifier::task_or_signal_t"* %69 to i64*, !dbg !3545
  %71 = load i64, i64* %70, align 8, !dbg !3545, !tbaa !2017
  %72 = icmp eq i64 %71, 0, !dbg !3547
  br i1 %72, label %84, label %73, !dbg !3548

73:                                               ; preds = %68, %73
  %74 = phi %"union.ActiveNotifier::task_or_signal_t"* [ %80, %73 ], [ %69, %68 ]
  call void @llvm.dbg.value(metadata %"union.ActiveNotifier::task_or_signal_t"* %74, metadata !2173, metadata !DIExpression()), !dbg !3514
  %75 = bitcast %"union.ActiveNotifier::task_or_signal_t"* %74 to void (i8*, %class.Notifier*)**, !dbg !3549
  %76 = load void (i8*, %class.Notifier*)*, void (i8*, %class.Notifier*)** %75, align 8, !dbg !3549, !tbaa !2017
  %77 = getelementptr inbounds %"union.ActiveNotifier::task_or_signal_t", %"union.ActiveNotifier::task_or_signal_t"* %74, i64 1, !dbg !3550
  %78 = bitcast %"union.ActiveNotifier::task_or_signal_t"* %77 to i8**, !dbg !3551
  %79 = load i8*, i8** %78, align 8, !dbg !3551, !tbaa !2017
  tail call void %76(i8* %79, %class.Notifier* %4), !dbg !3552
  %80 = getelementptr inbounds %"union.ActiveNotifier::task_or_signal_t", %"union.ActiveNotifier::task_or_signal_t"* %74, i64 2, !dbg !3553
  call void @llvm.dbg.value(metadata %"union.ActiveNotifier::task_or_signal_t"* %80, metadata !2173, metadata !DIExpression()), !dbg !3514
  %81 = bitcast %"union.ActiveNotifier::task_or_signal_t"* %80 to i64*, !dbg !3545
  %82 = load i64, i64* %81, align 8, !dbg !3545, !tbaa !2017
  %83 = icmp eq i64 %82, 0, !dbg !3547
  br i1 %83, label %84, label %73, !dbg !3548, !llvm.loop !3554

84:                                               ; preds = %73, %68, %38, %30, %64, %39, %14
  ret void, !dbg !3556
}

; Function Attrs: nounwind readnone speculatable willreturn
declare { i64, i1 } @llvm.umul.with.overflow.i64(i64, i64) #1

; Function Attrs: nobuiltin nofree
declare noalias nonnull i8* @_Znam(i64) local_unnamed_addr #7

; Function Attrs: nobuiltin nounwind
declare void @_ZdaPv(i8*) local_unnamed_addr #8

declare void @_ZN8Notifier21upstream_empty_signalEP7ElementiPFvPvPS_ES2_(%class.NotifierSignal* sret, %class.Element*, i32, void (i8*, %class.Notifier*)*, i8*) local_unnamed_addr #2

; Function Attrs: nounwind sspstrong uwtable
define dso_local void @_ZN10PullSwitch7cleanupEN7Element12CleanupStageE(%class.PullSwitch* nocapture %0, i32 %1) unnamed_addr #9 align 2 !dbg !3557 {
  call void @llvm.dbg.value(metadata %class.PullSwitch* %0, metadata !3559, metadata !DIExpression()), !dbg !3561
  call void @llvm.dbg.value(metadata i32 undef, metadata !3560, metadata !DIExpression()), !dbg !3561
  %3 = getelementptr inbounds %class.PullSwitch, %class.PullSwitch* %0, i64 0, i32 2, !dbg !3562
  %4 = load %class.NotifierSignal*, %class.NotifierSignal** %3, align 8, !dbg !3562, !tbaa !1937
  %5 = icmp eq %class.NotifierSignal* %4, null, !dbg !3563
  br i1 %5, label %29, label %6, !dbg !3563

6:                                                ; preds = %2
  %7 = getelementptr inbounds %class.NotifierSignal, %class.NotifierSignal* %4, i64 -1, i32 1, !dbg !3563
  %8 = bitcast i32* %7 to i8*, !dbg !3563
  %9 = bitcast i32* %7 to i64*, !dbg !3563
  %10 = load i64, i64* %9, align 8, !dbg !3563
  %11 = icmp eq i64 %10, 0, !dbg !3563
  br i1 %11, label %28, label %12, !dbg !3563

12:                                               ; preds = %6
  %13 = getelementptr inbounds %class.NotifierSignal, %class.NotifierSignal* %4, i64 %10, !dbg !3563
  br label %14, !dbg !3564

14:                                               ; preds = %12, %26
  %15 = phi %class.NotifierSignal* [ %16, %26 ], [ %13, %12 ], !dbg !3563
  %16 = getelementptr inbounds %class.NotifierSignal, %class.NotifierSignal* %15, i64 -1, !dbg !3563
  call void @llvm.dbg.value(metadata %class.NotifierSignal* %16, metadata !3435, metadata !DIExpression()) #14, !dbg !3566
  %17 = getelementptr inbounds %class.NotifierSignal, %class.NotifierSignal* %15, i64 -1, i32 1, !dbg !3567
  %18 = load i32, i32* %17, align 8, !dbg !3567, !tbaa !2011
  %19 = icmp eq i32 %18, 0, !dbg !3567
  br i1 %19, label %20, label %26, !dbg !3564, !prof !2014, !misexpect !3445

20:                                               ; preds = %14
  %21 = bitcast %class.NotifierSignal* %16 to %"struct.NotifierSignal::vmpair"**, !dbg !3568
  %22 = load %"struct.NotifierSignal::vmpair"*, %"struct.NotifierSignal::vmpair"** %21, align 8, !dbg !3568, !tbaa !2017
  %23 = icmp eq %"struct.NotifierSignal::vmpair"* %22, null, !dbg !3569
  br i1 %23, label %26, label %24, !dbg !3569

24:                                               ; preds = %20
  %25 = bitcast %"struct.NotifierSignal::vmpair"* %22 to i8*, !dbg !3569
  tail call void @_ZdaPv(i8* %25) #18, !dbg !3569
  br label %26, !dbg !3569

26:                                               ; preds = %14, %20, %24
  %27 = icmp eq %class.NotifierSignal* %16, %4, !dbg !3563
  br i1 %27, label %28, label %14, !dbg !3563

28:                                               ; preds = %26, %6
  tail call void @_ZdaPv(i8* nonnull %8) #18, !dbg !3563
  br label %29, !dbg !3563

29:                                               ; preds = %28, %2
  store %class.NotifierSignal* null, %class.NotifierSignal** %3, align 8, !dbg !3570, !tbaa !1937
  ret void, !dbg !3571
}

; Function Attrs: sspstrong uwtable
define dso_local %class.Packet* @_ZN10PullSwitch4pullEi(%class.PullSwitch* %0, i32 %1) unnamed_addr #0 align 2 !dbg !3572 {
  call void @llvm.dbg.value(metadata %class.PullSwitch* %0, metadata !3574, metadata !DIExpression()), !dbg !3579
  call void @llvm.dbg.value(metadata i32 undef, metadata !3575, metadata !DIExpression()), !dbg !3579
  %3 = getelementptr inbounds %class.PullSwitch, %class.PullSwitch* %0, i64 0, i32 0, i32 1, !dbg !3580
  %4 = load i32, i32* %3, align 4, !dbg !3580, !tbaa !1975
  %5 = icmp slt i32 %4, 0, !dbg !3581
  br i1 %5, label %6, label %21, !dbg !3582

6:                                                ; preds = %2
  call void @llvm.dbg.value(metadata %class.PullSwitch* %0, metadata !2164, metadata !DIExpression(DW_OP_plus_uconst, 112, DW_OP_stack_value)), !dbg !3583
  call void @llvm.dbg.value(metadata i1 false, metadata !2170, metadata !DIExpression()), !dbg !3583
  call void @llvm.dbg.value(metadata i1 false, metadata !2171, metadata !DIExpression()), !dbg !3583
  call void @llvm.dbg.value(metadata %class.PullSwitch* %0, metadata !3355, metadata !DIExpression(DW_OP_plus_uconst, 112, DW_OP_stack_value)), !dbg !3586
  call void @llvm.dbg.value(metadata i1 false, metadata !3362, metadata !DIExpression()), !dbg !3586
  call void @llvm.dbg.value(metadata %class.PullSwitch* %0, metadata !3365, metadata !DIExpression(DW_OP_plus_uconst, 112, DW_OP_plus_uconst, 8, DW_OP_stack_value)), !dbg !3588
  call void @llvm.dbg.value(metadata i1 false, metadata !3368, metadata !DIExpression()), !dbg !3588
  %7 = getelementptr inbounds %class.PullSwitch, %class.PullSwitch* %0, i64 0, i32 1, i32 0, i32 1, i32 0, i32 0, !dbg !3590
  %8 = load %class.atomic_uint32_t*, %class.atomic_uint32_t** %7, align 8, !dbg !3590, !tbaa !2017
  %9 = icmp eq %class.atomic_uint32_t* %8, @_ZN14NotifierSignal12static_valueE, !dbg !3590
  br i1 %9, label %15, label %10, !dbg !3590

10:                                               ; preds = %6
  call void @llvm.dbg.value(metadata %class.PullSwitch* %0, metadata !2164, metadata !DIExpression(DW_OP_plus_uconst, 112, DW_OP_stack_value)), !dbg !3583
  call void @llvm.dbg.value(metadata %class.PullSwitch* %0, metadata !3365, metadata !DIExpression(DW_OP_plus_uconst, 112, DW_OP_plus_uconst, 8, DW_OP_stack_value)), !dbg !3588
  call void @llvm.dbg.value(metadata %class.PullSwitch* %0, metadata !3355, metadata !DIExpression(DW_OP_plus_uconst, 112, DW_OP_stack_value)), !dbg !3586
  %11 = getelementptr inbounds %class.PullSwitch, %class.PullSwitch* %0, i64 0, i32 1, i32 0, i32 1, i32 1, !dbg !3590
  %12 = load i32, i32* %11, align 8, !dbg !3590, !tbaa !2011
  %13 = tail call i32 @llvm.ctpop.i32(i32 %12), !dbg !3590, !range !3373
  %14 = icmp ult i32 %13, 2, !dbg !3590
  br i1 %14, label %16, label %15, !dbg !3590

15:                                               ; preds = %10, %6
  tail call void @__assert_fail(i8* getelementptr inbounds ([49 x i8], [49 x i8]* @.str.2, i64 0, i64 0), i8* getelementptr inbounds ([31 x i8], [31 x i8]* @.str.3, i64 0, i64 0), i32 293, i8* getelementptr inbounds ([38 x i8], [38 x i8]* @__PRETTY_FUNCTION__._ZN14NotifierSignal10set_activeEb, i64 0, i64 0)) #16, !dbg !3590
  unreachable, !dbg !3590

16:                                               ; preds = %10
  call void @llvm.dbg.value(metadata %class.atomic_uint32_t* %8, metadata !2031, metadata !DIExpression()), !dbg !3591
  call void @llvm.dbg.value(metadata %class.atomic_uint32_t* %8, metadata !2037, metadata !DIExpression()), !dbg !3593
  %17 = getelementptr inbounds %class.atomic_uint32_t, %class.atomic_uint32_t* %8, i64 0, i32 0, !dbg !3595
  %18 = load i32, i32* %17, align 4, !dbg !3595, !tbaa !2043
  call void @llvm.dbg.value(metadata i32 %18, metadata !3369, metadata !DIExpression()), !dbg !3588
  %19 = xor i32 %12, -1, !dbg !3596
  %20 = and i32 %18, %19, !dbg !3596
  call void @llvm.dbg.value(metadata %class.atomic_uint32_t* %8, metadata !3380, metadata !DIExpression()), !dbg !3597
  call void @llvm.dbg.value(metadata i32 %20, metadata !3383, metadata !DIExpression()), !dbg !3597
  store i32 %20, i32* %17, align 4, !dbg !3599, !tbaa !2043
  call void @llvm.dbg.value(metadata i1 undef, metadata !2172, metadata !DIExpression()), !dbg !3583
  br label %107, !dbg !3600

21:                                               ; preds = %2
  %22 = bitcast %class.PullSwitch* %0 to %class.Element*, !dbg !3601
  %23 = tail call dereferenceable(16) %"class.Element::Port"* @_ZNK7Element5inputEi(%class.Element* %22, i32 %4), !dbg !3601
  call void @llvm.dbg.value(metadata %"class.Element::Port"* %23, metadata !3602, metadata !DIExpression()), !dbg !3638
  %24 = getelementptr inbounds %"class.Element::Port", %"class.Element::Port"* %23, i64 0, i32 0, !dbg !3640
  %25 = load %class.Element*, %class.Element** %24, align 8, !dbg !3640, !tbaa !3641
  %26 = icmp eq %class.Element* %25, null, !dbg !3640
  br i1 %26, label %27, label %28, !dbg !3640

27:                                               ; preds = %21
  tail call void @__assert_fail(i8* getelementptr inbounds ([3 x i8], [3 x i8]* @.str.6, i64 0, i64 0), i8* getelementptr inbounds ([30 x i8], [30 x i8]* @.str.5, i64 0, i64 0), i32 657, i8* getelementptr inbounds ([36 x i8], [36 x i8]* @__PRETTY_FUNCTION__._ZNK7Element4Port4pullEv, i64 0, i64 0)) #16, !dbg !3640
  unreachable, !dbg !3640

28:                                               ; preds = %21
  %29 = getelementptr inbounds %"class.Element::Port", %"class.Element::Port"* %23, i64 0, i32 1, !dbg !3643
  %30 = load i32, i32* %29, align 8, !dbg !3643, !tbaa !3644
  %31 = bitcast %class.Element* %25 to %class.Packet* (%class.Element*, i32)***, !dbg !3645
  %32 = load %class.Packet* (%class.Element*, i32)**, %class.Packet* (%class.Element*, i32)*** %31, align 8, !dbg !3645, !tbaa !1933
  %33 = getelementptr inbounds %class.Packet* (%class.Element*, i32)*, %class.Packet* (%class.Element*, i32)** %32, i64 3, !dbg !3645
  %34 = load %class.Packet* (%class.Element*, i32)*, %class.Packet* (%class.Element*, i32)** %33, align 8, !dbg !3645
  %35 = tail call %class.Packet* %34(%class.Element* nonnull %25, i32 %30), !dbg !3645
  call void @llvm.dbg.value(metadata %class.Packet* %35, metadata !3636, metadata !DIExpression()), !dbg !3638
  call void @llvm.dbg.value(metadata %class.Packet* %35, metadata !3576, metadata !DIExpression()), !dbg !3646
  %36 = icmp eq %class.Packet* %35, null, !dbg !3647
  br i1 %36, label %51, label %37, !dbg !3648

37:                                               ; preds = %28
  call void @llvm.dbg.value(metadata %class.PullSwitch* %0, metadata !2164, metadata !DIExpression(DW_OP_plus_uconst, 112, DW_OP_stack_value)), !dbg !3649
  call void @llvm.dbg.value(metadata i1 true, metadata !2170, metadata !DIExpression()), !dbg !3649
  call void @llvm.dbg.value(metadata i1 false, metadata !2171, metadata !DIExpression()), !dbg !3649
  call void @llvm.dbg.value(metadata %class.PullSwitch* %0, metadata !3355, metadata !DIExpression(DW_OP_plus_uconst, 112, DW_OP_stack_value)), !dbg !3652
  call void @llvm.dbg.value(metadata i1 true, metadata !3362, metadata !DIExpression()), !dbg !3652
  call void @llvm.dbg.value(metadata %class.PullSwitch* %0, metadata !3365, metadata !DIExpression(DW_OP_plus_uconst, 112, DW_OP_plus_uconst, 8, DW_OP_stack_value)), !dbg !3654
  call void @llvm.dbg.value(metadata i1 true, metadata !3368, metadata !DIExpression()), !dbg !3654
  %38 = getelementptr inbounds %class.PullSwitch, %class.PullSwitch* %0, i64 0, i32 1, i32 0, i32 1, i32 0, i32 0, !dbg !3656
  %39 = load %class.atomic_uint32_t*, %class.atomic_uint32_t** %38, align 8, !dbg !3656, !tbaa !2017
  %40 = icmp eq %class.atomic_uint32_t* %39, @_ZN14NotifierSignal12static_valueE, !dbg !3656
  br i1 %40, label %46, label %41, !dbg !3656

41:                                               ; preds = %37
  call void @llvm.dbg.value(metadata %class.PullSwitch* %0, metadata !2164, metadata !DIExpression(DW_OP_plus_uconst, 112, DW_OP_stack_value)), !dbg !3649
  call void @llvm.dbg.value(metadata %class.PullSwitch* %0, metadata !3365, metadata !DIExpression(DW_OP_plus_uconst, 112, DW_OP_plus_uconst, 8, DW_OP_stack_value)), !dbg !3654
  call void @llvm.dbg.value(metadata %class.PullSwitch* %0, metadata !3355, metadata !DIExpression(DW_OP_plus_uconst, 112, DW_OP_stack_value)), !dbg !3652
  %42 = getelementptr inbounds %class.PullSwitch, %class.PullSwitch* %0, i64 0, i32 1, i32 0, i32 1, i32 1, !dbg !3656
  %43 = load i32, i32* %42, align 8, !dbg !3656, !tbaa !2011
  %44 = tail call i32 @llvm.ctpop.i32(i32 %43), !dbg !3656, !range !3373
  %45 = icmp ult i32 %44, 2, !dbg !3656
  br i1 %45, label %47, label %46, !dbg !3656

46:                                               ; preds = %41, %37
  tail call void @__assert_fail(i8* getelementptr inbounds ([49 x i8], [49 x i8]* @.str.2, i64 0, i64 0), i8* getelementptr inbounds ([31 x i8], [31 x i8]* @.str.3, i64 0, i64 0), i32 293, i8* getelementptr inbounds ([38 x i8], [38 x i8]* @__PRETTY_FUNCTION__._ZN14NotifierSignal10set_activeEb, i64 0, i64 0)) #16, !dbg !3656
  unreachable, !dbg !3656

47:                                               ; preds = %41
  call void @llvm.dbg.value(metadata %class.atomic_uint32_t* %39, metadata !2031, metadata !DIExpression()), !dbg !3657
  call void @llvm.dbg.value(metadata %class.atomic_uint32_t* %39, metadata !2037, metadata !DIExpression()), !dbg !3659
  %48 = getelementptr inbounds %class.atomic_uint32_t, %class.atomic_uint32_t* %39, i64 0, i32 0, !dbg !3661
  %49 = load i32, i32* %48, align 4, !dbg !3661, !tbaa !2043
  call void @llvm.dbg.value(metadata i32 %49, metadata !3369, metadata !DIExpression()), !dbg !3654
  %50 = or i32 %49, %43, !dbg !3662
  call void @llvm.dbg.value(metadata %class.atomic_uint32_t* %39, metadata !3380, metadata !DIExpression()), !dbg !3663
  call void @llvm.dbg.value(metadata i32 %50, metadata !3383, metadata !DIExpression()), !dbg !3663
  store i32 %50, i32* %48, align 4, !dbg !3665, !tbaa !2043
  call void @llvm.dbg.value(metadata i1 undef, metadata !2172, metadata !DIExpression()), !dbg !3649
  br label %107, !dbg !3666

51:                                               ; preds = %28
  %52 = getelementptr inbounds %class.PullSwitch, %class.PullSwitch* %0, i64 0, i32 2, !dbg !3667
  %53 = load %class.NotifierSignal*, %class.NotifierSignal** %52, align 8, !dbg !3667, !tbaa !1937
  %54 = load i32, i32* %3, align 4, !dbg !3670, !tbaa !1975
  %55 = sext i32 %54 to i64, !dbg !3667
  %56 = getelementptr inbounds %class.NotifierSignal, %class.NotifierSignal* %53, i64 %55, !dbg !3667
  call void @llvm.dbg.value(metadata %class.NotifierSignal* %56, metadata !3671, metadata !DIExpression()), !dbg !3674
  call void @llvm.dbg.value(metadata %class.NotifierSignal* %56, metadata !1993, metadata !DIExpression()), !dbg !3676
  tail call void asm sideeffect "", "~{memory},~{dirflag},~{fpsr},~{flags}"() #14, !dbg !3678, !srcloc !2009
  %57 = getelementptr inbounds %class.NotifierSignal, %class.NotifierSignal* %53, i64 %55, i32 1, !dbg !3681
  %58 = load i32, i32* %57, align 8, !dbg !3681, !tbaa !2011
  %59 = icmp eq i32 %58, 0, !dbg !3681
  br i1 %59, label %60, label %80, !dbg !3682, !prof !2014, !misexpect !2015

60:                                               ; preds = %51
  %61 = bitcast %class.NotifierSignal* %56 to %"struct.NotifierSignal::vmpair"**, !dbg !3683
  %62 = load %"struct.NotifierSignal::vmpair"*, %"struct.NotifierSignal::vmpair"** %61, align 8, !dbg !3683, !tbaa !2017
  call void @llvm.dbg.value(metadata %"struct.NotifierSignal::vmpair"* %62, metadata !1996, metadata !DIExpression()), !dbg !3684
  %63 = getelementptr inbounds %"struct.NotifierSignal::vmpair", %"struct.NotifierSignal::vmpair"* %62, i64 0, i32 1, !dbg !3685
  %64 = load i32, i32* %63, align 8, !dbg !3685, !tbaa !2021
  %65 = icmp eq i32 %64, 0, !dbg !3686
  br i1 %65, label %88, label %71, !dbg !3687

66:                                               ; preds = %71
  %67 = getelementptr inbounds %"struct.NotifierSignal::vmpair", %"struct.NotifierSignal::vmpair"* %73, i64 1, !dbg !3688
  call void @llvm.dbg.value(metadata %"struct.NotifierSignal::vmpair"* %67, metadata !1996, metadata !DIExpression()), !dbg !3684
  call void @llvm.dbg.value(metadata %"struct.NotifierSignal::vmpair"* %67, metadata !1996, metadata !DIExpression()), !dbg !3684
  %68 = getelementptr inbounds %"struct.NotifierSignal::vmpair", %"struct.NotifierSignal::vmpair"* %73, i64 1, i32 1, !dbg !3685
  %69 = load i32, i32* %68, align 8, !dbg !3685, !tbaa !2021
  %70 = icmp eq i32 %69, 0, !dbg !3686
  br i1 %70, label %88, label %71, !dbg !3687, !llvm.loop !3689

71:                                               ; preds = %60, %66
  %72 = phi i32 [ %69, %66 ], [ %64, %60 ]
  %73 = phi %"struct.NotifierSignal::vmpair"* [ %67, %66 ], [ %62, %60 ]
  call void @llvm.dbg.value(metadata %"struct.NotifierSignal::vmpair"* %73, metadata !1996, metadata !DIExpression()), !dbg !3684
  %74 = getelementptr inbounds %"struct.NotifierSignal::vmpair", %"struct.NotifierSignal::vmpair"* %73, i64 0, i32 0, !dbg !3691
  %75 = load %class.atomic_uint32_t*, %class.atomic_uint32_t** %74, align 8, !dbg !3691, !tbaa !2030
  call void @llvm.dbg.value(metadata %class.atomic_uint32_t* %75, metadata !2031, metadata !DIExpression()), !dbg !3692
  call void @llvm.dbg.value(metadata %class.atomic_uint32_t* %75, metadata !2037, metadata !DIExpression()), !dbg !3694
  %76 = getelementptr inbounds %class.atomic_uint32_t, %class.atomic_uint32_t* %75, i64 0, i32 0, !dbg !3696
  %77 = load i32, i32* %76, align 4, !dbg !3696, !tbaa !2043
  %78 = and i32 %77, %72, !dbg !3697
  %79 = icmp eq i32 %78, 0, !dbg !3698
  call void @llvm.dbg.value(metadata %"struct.NotifierSignal::vmpair"* %73, metadata !1996, metadata !DIExpression(DW_OP_plus_uconst, 16, DW_OP_stack_value)), !dbg !3684
  br i1 %79, label %66, label %87, !dbg !3699

80:                                               ; preds = %51
  %81 = getelementptr inbounds %class.NotifierSignal, %class.NotifierSignal* %56, i64 0, i32 0, i32 0, !dbg !3700
  %82 = load %class.atomic_uint32_t*, %class.atomic_uint32_t** %81, align 8, !dbg !3700, !tbaa !2017
  call void @llvm.dbg.value(metadata %class.atomic_uint32_t* %82, metadata !2031, metadata !DIExpression()), !dbg !3701
  call void @llvm.dbg.value(metadata %class.atomic_uint32_t* %82, metadata !2037, metadata !DIExpression()), !dbg !3703
  %83 = getelementptr inbounds %class.atomic_uint32_t, %class.atomic_uint32_t* %82, i64 0, i32 0, !dbg !3705
  %84 = load i32, i32* %83, align 4, !dbg !3705, !tbaa !2043
  %85 = and i32 %84, %58, !dbg !3706
  %86 = icmp eq i32 %85, 0, !dbg !3707
  br i1 %86, label %88, label %87, !dbg !3708

87:                                               ; preds = %71, %80
  br label %88, !dbg !3708

88:                                               ; preds = %66, %60, %80, %87
  %89 = phi { i64, i64 } [ { i64 ptrtoint (i1 (%class.NotifierSignal*)* @_ZNK14NotifierSignal6activeEv to i64), i64 0 }, %87 ], [ zeroinitializer, %80 ], [ zeroinitializer, %60 ], [ zeroinitializer, %66 ]
  %90 = extractvalue { i64, i64 } %89, 0, !dbg !3667
  %91 = icmp eq i64 %90, 0, !dbg !3667
  br i1 %91, label %92, label %107, !dbg !3709

92:                                               ; preds = %88
  call void @llvm.dbg.value(metadata %class.PullSwitch* %0, metadata !2164, metadata !DIExpression(DW_OP_plus_uconst, 112, DW_OP_stack_value)), !dbg !3710
  call void @llvm.dbg.value(metadata i1 false, metadata !2170, metadata !DIExpression()), !dbg !3710
  call void @llvm.dbg.value(metadata i1 false, metadata !2171, metadata !DIExpression()), !dbg !3710
  call void @llvm.dbg.value(metadata %class.PullSwitch* %0, metadata !3355, metadata !DIExpression(DW_OP_plus_uconst, 112, DW_OP_stack_value)), !dbg !3712
  call void @llvm.dbg.value(metadata i1 false, metadata !3362, metadata !DIExpression()), !dbg !3712
  call void @llvm.dbg.value(metadata %class.PullSwitch* %0, metadata !3365, metadata !DIExpression(DW_OP_plus_uconst, 112, DW_OP_plus_uconst, 8, DW_OP_stack_value)), !dbg !3714
  call void @llvm.dbg.value(metadata i1 false, metadata !3368, metadata !DIExpression()), !dbg !3714
  %93 = getelementptr inbounds %class.PullSwitch, %class.PullSwitch* %0, i64 0, i32 1, i32 0, i32 1, i32 0, i32 0, !dbg !3716
  %94 = load %class.atomic_uint32_t*, %class.atomic_uint32_t** %93, align 8, !dbg !3716, !tbaa !2017
  %95 = icmp eq %class.atomic_uint32_t* %94, @_ZN14NotifierSignal12static_valueE, !dbg !3716
  br i1 %95, label %101, label %96, !dbg !3716

96:                                               ; preds = %92
  call void @llvm.dbg.value(metadata %class.PullSwitch* %0, metadata !2164, metadata !DIExpression(DW_OP_plus_uconst, 112, DW_OP_stack_value)), !dbg !3710
  call void @llvm.dbg.value(metadata %class.PullSwitch* %0, metadata !3365, metadata !DIExpression(DW_OP_plus_uconst, 112, DW_OP_plus_uconst, 8, DW_OP_stack_value)), !dbg !3714
  call void @llvm.dbg.value(metadata %class.PullSwitch* %0, metadata !3355, metadata !DIExpression(DW_OP_plus_uconst, 112, DW_OP_stack_value)), !dbg !3712
  %97 = getelementptr inbounds %class.PullSwitch, %class.PullSwitch* %0, i64 0, i32 1, i32 0, i32 1, i32 1, !dbg !3716
  %98 = load i32, i32* %97, align 8, !dbg !3716, !tbaa !2011
  %99 = tail call i32 @llvm.ctpop.i32(i32 %98), !dbg !3716, !range !3373
  %100 = icmp ult i32 %99, 2, !dbg !3716
  br i1 %100, label %102, label %101, !dbg !3716

101:                                              ; preds = %96, %92
  tail call void @__assert_fail(i8* getelementptr inbounds ([49 x i8], [49 x i8]* @.str.2, i64 0, i64 0), i8* getelementptr inbounds ([31 x i8], [31 x i8]* @.str.3, i64 0, i64 0), i32 293, i8* getelementptr inbounds ([38 x i8], [38 x i8]* @__PRETTY_FUNCTION__._ZN14NotifierSignal10set_activeEb, i64 0, i64 0)) #16, !dbg !3716
  unreachable, !dbg !3716

102:                                              ; preds = %96
  call void @llvm.dbg.value(metadata %class.atomic_uint32_t* %94, metadata !2031, metadata !DIExpression()), !dbg !3717
  call void @llvm.dbg.value(metadata %class.atomic_uint32_t* %94, metadata !2037, metadata !DIExpression()), !dbg !3719
  %103 = getelementptr inbounds %class.atomic_uint32_t, %class.atomic_uint32_t* %94, i64 0, i32 0, !dbg !3721
  %104 = load i32, i32* %103, align 4, !dbg !3721, !tbaa !2043
  call void @llvm.dbg.value(metadata i32 %104, metadata !3369, metadata !DIExpression()), !dbg !3714
  %105 = xor i32 %98, -1, !dbg !3722
  %106 = and i32 %104, %105, !dbg !3722
  call void @llvm.dbg.value(metadata %class.atomic_uint32_t* %94, metadata !3380, metadata !DIExpression()), !dbg !3723
  call void @llvm.dbg.value(metadata i32 %106, metadata !3383, metadata !DIExpression()), !dbg !3723
  store i32 %106, i32* %103, align 4, !dbg !3725, !tbaa !2043
  call void @llvm.dbg.value(metadata i1 undef, metadata !2172, metadata !DIExpression()), !dbg !3710
  br label %107, !dbg !3726

107:                                              ; preds = %47, %88, %102, %16
  %108 = phi %class.Packet* [ null, %16 ], [ %35, %47 ], [ null, %88 ], [ null, %102 ], !dbg !3727
  ret %class.Packet* %108, !dbg !3728
}

; Function Attrs: noinline optnone sspstrong uwtable
define linkonce_odr dso_local dereferenceable(16) %"class.Element::Port"* @_ZNK7Element5inputEi(%class.Element* %0, i32 %1) local_unnamed_addr #10 comdat align 2 !dbg !3729 {
  %3 = alloca %class.Element*, align 8
  %4 = alloca i32, align 4
  store %class.Element* %0, %class.Element** %3, align 8, !tbaa !3737
  call void @llvm.dbg.declare(metadata %class.Element** %3, metadata !3735, metadata !DIExpression()), !dbg !3738
  store i32 %1, i32* %4, align 4, !tbaa !3397
  call void @llvm.dbg.declare(metadata i32* %4, metadata !3736, metadata !DIExpression()), !dbg !3739
  %5 = load %class.Element*, %class.Element** %3, align 8
  %6 = load i32, i32* %4, align 4, !dbg !3740, !tbaa !3397
  %7 = call dereferenceable(16) %"class.Element::Port"* @_ZNK7Element4portEbi(%class.Element* %5, i1 zeroext false, i32 %6), !dbg !3741
  ret %"class.Element::Port"* %7, !dbg !3742
}

; Function Attrs: sspstrong uwtable
define dso_local void @_ZN10PullSwitch9set_inputEi(%class.PullSwitch* %0, i32 %1) unnamed_addr #0 align 2 !dbg !3743 {
  call void @llvm.dbg.value(metadata %class.PullSwitch* %0, metadata !3745, metadata !DIExpression()), !dbg !3747
  call void @llvm.dbg.value(metadata i32 %1, metadata !3746, metadata !DIExpression()), !dbg !3747
  %3 = icmp slt i32 %1, 0, !dbg !3748
  br i1 %3, label %9, label %4, !dbg !3749

4:                                                ; preds = %2
  call void @llvm.dbg.value(metadata %class.PullSwitch* %0, metadata !3387, metadata !DIExpression()), !dbg !3750
  %5 = getelementptr inbounds %class.PullSwitch, %class.PullSwitch* %0, i64 0, i32 0, i32 0, i32 3, i64 0, !dbg !3752
  %6 = load i32, i32* %5, align 8, !dbg !3752, !tbaa !3397
  %7 = icmp sgt i32 %6, %1, !dbg !3753
  %8 = select i1 %7, i32 %1, i32 -1, !dbg !3754
  br label %9, !dbg !3754

9:                                                ; preds = %4, %2
  %10 = phi i32 [ -1, %2 ], [ %8, %4 ], !dbg !3754
  %11 = getelementptr inbounds %class.PullSwitch, %class.PullSwitch* %0, i64 0, i32 0, i32 1, !dbg !3755
  store i32 %10, i32* %11, align 4, !dbg !3756, !tbaa !1975
  %12 = getelementptr inbounds %class.PullSwitch, %class.PullSwitch* %0, i64 0, i32 1, !dbg !3757
  call void @llvm.dbg.value(metadata %class.ActiveNotifier* %12, metadata !3759, metadata !DIExpression()), !dbg !3763
  call void @llvm.dbg.value(metadata %class.ActiveNotifier* %12, metadata !3765, metadata !DIExpression(DW_OP_plus_uconst, 8, DW_OP_stack_value)), !dbg !3768
  %13 = getelementptr inbounds %class.PullSwitch, %class.PullSwitch* %0, i64 0, i32 1, i32 0, i32 1, i32 1, !dbg !3770
  %14 = load i32, i32* %13, align 8, !dbg !3770, !tbaa !2011
  %15 = and i32 %14, 8, !dbg !3771
  %16 = icmp eq i32 %15, 0, !dbg !3772
  br i1 %16, label %21, label %17, !dbg !3773

17:                                               ; preds = %9
  call void @llvm.dbg.value(metadata %class.ActiveNotifier* %12, metadata !3759, metadata !DIExpression()), !dbg !3763
  call void @llvm.dbg.value(metadata %class.ActiveNotifier* %12, metadata !3765, metadata !DIExpression(DW_OP_plus_uconst, 8, DW_OP_stack_value)), !dbg !3768
  call void @llvm.dbg.value(metadata %class.ActiveNotifier* %12, metadata !3765, metadata !DIExpression(DW_OP_plus_uconst, 8, DW_OP_stack_value)), !dbg !3768
  %18 = getelementptr inbounds %class.PullSwitch, %class.PullSwitch* %0, i64 0, i32 1, i32 0, i32 1, i32 0, i32 0, !dbg !3774
  %19 = load %class.atomic_uint32_t*, %class.atomic_uint32_t** %18, align 8, !dbg !3774, !tbaa !2017
  %20 = icmp eq %class.atomic_uint32_t* %19, @_ZN14NotifierSignal12static_valueE, !dbg !3775
  br i1 %20, label %77, label %21, !dbg !3776

21:                                               ; preds = %17, %9
  %22 = icmp slt i32 %10, 0, !dbg !3777
  br i1 %22, label %23, label %36, !dbg !3779

23:                                               ; preds = %21
  call void @llvm.dbg.value(metadata %class.ActiveNotifier* %12, metadata !2164, metadata !DIExpression()), !dbg !3780
  call void @llvm.dbg.value(metadata i1 false, metadata !2170, metadata !DIExpression()), !dbg !3780
  call void @llvm.dbg.value(metadata i1 false, metadata !2171, metadata !DIExpression()), !dbg !3780
  call void @llvm.dbg.value(metadata %class.ActiveNotifier* %12, metadata !3355, metadata !DIExpression()), !dbg !3782
  call void @llvm.dbg.value(metadata i1 false, metadata !3362, metadata !DIExpression()), !dbg !3782
  call void @llvm.dbg.value(metadata %class.ActiveNotifier* %12, metadata !3365, metadata !DIExpression(DW_OP_plus_uconst, 8, DW_OP_stack_value)), !dbg !3784
  call void @llvm.dbg.value(metadata i1 false, metadata !3368, metadata !DIExpression()), !dbg !3784
  %24 = getelementptr inbounds %class.PullSwitch, %class.PullSwitch* %0, i64 0, i32 1, i32 0, i32 1, i32 0, i32 0, !dbg !3786
  %25 = load %class.atomic_uint32_t*, %class.atomic_uint32_t** %24, align 8, !dbg !3786, !tbaa !2017
  %26 = icmp ne %class.atomic_uint32_t* %25, @_ZN14NotifierSignal12static_valueE, !dbg !3786
  %27 = tail call i32 @llvm.ctpop.i32(i32 %14), !dbg !3786, !range !3373
  %28 = icmp ult i32 %27, 2, !dbg !3786
  %29 = and i1 %26, %28, !dbg !3786
  br i1 %29, label %31, label %30, !dbg !3786

30:                                               ; preds = %23
  tail call void @__assert_fail(i8* getelementptr inbounds ([49 x i8], [49 x i8]* @.str.2, i64 0, i64 0), i8* getelementptr inbounds ([31 x i8], [31 x i8]* @.str.3, i64 0, i64 0), i32 293, i8* getelementptr inbounds ([38 x i8], [38 x i8]* @__PRETTY_FUNCTION__._ZN14NotifierSignal10set_activeEb, i64 0, i64 0)) #16, !dbg !3786
  unreachable, !dbg !3786

31:                                               ; preds = %23
  call void @llvm.dbg.value(metadata %class.atomic_uint32_t* %25, metadata !2031, metadata !DIExpression()), !dbg !3787
  call void @llvm.dbg.value(metadata %class.atomic_uint32_t* %25, metadata !2037, metadata !DIExpression()), !dbg !3789
  %32 = getelementptr inbounds %class.atomic_uint32_t, %class.atomic_uint32_t* %25, i64 0, i32 0, !dbg !3791
  %33 = load i32, i32* %32, align 4, !dbg !3791, !tbaa !2043
  call void @llvm.dbg.value(metadata i32 %33, metadata !3369, metadata !DIExpression()), !dbg !3784
  %34 = xor i32 %14, -1, !dbg !3792
  %35 = and i32 %33, %34, !dbg !3792
  call void @llvm.dbg.value(metadata %class.atomic_uint32_t* %25, metadata !3380, metadata !DIExpression()), !dbg !3793
  call void @llvm.dbg.value(metadata i32 %35, metadata !3383, metadata !DIExpression()), !dbg !3793
  store i32 %35, i32* %32, align 4, !dbg !3795, !tbaa !2043
  call void @llvm.dbg.value(metadata i1 undef, metadata !2172, metadata !DIExpression()), !dbg !3780
  br label %77, !dbg !3796

36:                                               ; preds = %21
  %37 = getelementptr inbounds %class.PullSwitch, %class.PullSwitch* %0, i64 0, i32 2, !dbg !3797
  %38 = load %class.NotifierSignal*, %class.NotifierSignal** %37, align 8, !dbg !3797, !tbaa !1937
  %39 = zext i32 %10 to i64, !dbg !3797
  %40 = getelementptr inbounds %class.NotifierSignal, %class.NotifierSignal* %38, i64 %39, !dbg !3797
  call void @llvm.dbg.value(metadata %class.NotifierSignal* %40, metadata !3671, metadata !DIExpression()), !dbg !3799
  call void @llvm.dbg.value(metadata %class.NotifierSignal* %40, metadata !1993, metadata !DIExpression()), !dbg !3801
  tail call void asm sideeffect "", "~{memory},~{dirflag},~{fpsr},~{flags}"() #14, !dbg !3803, !srcloc !2009
  %41 = getelementptr inbounds %class.NotifierSignal, %class.NotifierSignal* %38, i64 %39, i32 1, !dbg !3806
  %42 = load i32, i32* %41, align 8, !dbg !3806, !tbaa !2011
  %43 = icmp eq i32 %42, 0, !dbg !3806
  br i1 %43, label %44, label %64, !dbg !3807, !prof !2014, !misexpect !2015

44:                                               ; preds = %36
  %45 = bitcast %class.NotifierSignal* %40 to %"struct.NotifierSignal::vmpair"**, !dbg !3808
  %46 = load %"struct.NotifierSignal::vmpair"*, %"struct.NotifierSignal::vmpair"** %45, align 8, !dbg !3808, !tbaa !2017
  call void @llvm.dbg.value(metadata %"struct.NotifierSignal::vmpair"* %46, metadata !1996, metadata !DIExpression()), !dbg !3809
  %47 = getelementptr inbounds %"struct.NotifierSignal::vmpair", %"struct.NotifierSignal::vmpair"* %46, i64 0, i32 1, !dbg !3810
  %48 = load i32, i32* %47, align 8, !dbg !3810, !tbaa !2021
  %49 = icmp eq i32 %48, 0, !dbg !3811
  br i1 %49, label %72, label %55, !dbg !3812

50:                                               ; preds = %55
  %51 = getelementptr inbounds %"struct.NotifierSignal::vmpair", %"struct.NotifierSignal::vmpair"* %57, i64 1, !dbg !3813
  call void @llvm.dbg.value(metadata %"struct.NotifierSignal::vmpair"* %51, metadata !1996, metadata !DIExpression()), !dbg !3809
  call void @llvm.dbg.value(metadata %"struct.NotifierSignal::vmpair"* %51, metadata !1996, metadata !DIExpression()), !dbg !3809
  %52 = getelementptr inbounds %"struct.NotifierSignal::vmpair", %"struct.NotifierSignal::vmpair"* %57, i64 1, i32 1, !dbg !3810
  %53 = load i32, i32* %52, align 8, !dbg !3810, !tbaa !2021
  %54 = icmp eq i32 %53, 0, !dbg !3811
  br i1 %54, label %72, label %55, !dbg !3812, !llvm.loop !3814

55:                                               ; preds = %44, %50
  %56 = phi i32 [ %53, %50 ], [ %48, %44 ]
  %57 = phi %"struct.NotifierSignal::vmpair"* [ %51, %50 ], [ %46, %44 ]
  call void @llvm.dbg.value(metadata %"struct.NotifierSignal::vmpair"* %57, metadata !1996, metadata !DIExpression()), !dbg !3809
  %58 = getelementptr inbounds %"struct.NotifierSignal::vmpair", %"struct.NotifierSignal::vmpair"* %57, i64 0, i32 0, !dbg !3816
  %59 = load %class.atomic_uint32_t*, %class.atomic_uint32_t** %58, align 8, !dbg !3816, !tbaa !2030
  call void @llvm.dbg.value(metadata %class.atomic_uint32_t* %59, metadata !2031, metadata !DIExpression()), !dbg !3817
  call void @llvm.dbg.value(metadata %class.atomic_uint32_t* %59, metadata !2037, metadata !DIExpression()), !dbg !3819
  %60 = getelementptr inbounds %class.atomic_uint32_t, %class.atomic_uint32_t* %59, i64 0, i32 0, !dbg !3821
  %61 = load i32, i32* %60, align 4, !dbg !3821, !tbaa !2043
  %62 = and i32 %61, %56, !dbg !3822
  %63 = icmp eq i32 %62, 0, !dbg !3823
  call void @llvm.dbg.value(metadata %"struct.NotifierSignal::vmpair"* %57, metadata !1996, metadata !DIExpression(DW_OP_plus_uconst, 16, DW_OP_stack_value)), !dbg !3809
  br i1 %63, label %50, label %71, !dbg !3824

64:                                               ; preds = %36
  %65 = getelementptr inbounds %class.NotifierSignal, %class.NotifierSignal* %40, i64 0, i32 0, i32 0, !dbg !3825
  %66 = load %class.atomic_uint32_t*, %class.atomic_uint32_t** %65, align 8, !dbg !3825, !tbaa !2017
  call void @llvm.dbg.value(metadata %class.atomic_uint32_t* %66, metadata !2031, metadata !DIExpression()), !dbg !3826
  call void @llvm.dbg.value(metadata %class.atomic_uint32_t* %66, metadata !2037, metadata !DIExpression()), !dbg !3828
  %67 = getelementptr inbounds %class.atomic_uint32_t, %class.atomic_uint32_t* %66, i64 0, i32 0, !dbg !3830
  %68 = load i32, i32* %67, align 4, !dbg !3830, !tbaa !2043
  %69 = and i32 %68, %42, !dbg !3831
  %70 = icmp eq i32 %69, 0, !dbg !3832
  br i1 %70, label %72, label %71, !dbg !3833

71:                                               ; preds = %55, %64
  br label %72, !dbg !3833

72:                                               ; preds = %50, %44, %64, %71
  %73 = phi { i64, i64 } [ { i64 ptrtoint (i1 (%class.NotifierSignal*)* @_ZNK14NotifierSignal6activeEv to i64), i64 0 }, %71 ], [ zeroinitializer, %64 ], [ zeroinitializer, %44 ], [ zeroinitializer, %50 ]
  %74 = extractvalue { i64, i64 } %73, 0, !dbg !3797
  %75 = icmp eq i64 %74, 0, !dbg !3797
  br i1 %75, label %77, label %76, !dbg !3834

76:                                               ; preds = %72
  tail call void @_ZN14ActiveNotifier10set_activeEbb(%class.ActiveNotifier* nonnull %12, i1 zeroext true, i1 zeroext true), !dbg !3835
  br label %77, !dbg !3836

77:                                               ; preds = %17, %72, %31, %76
  ret void, !dbg !3837
}

; Function Attrs: inlinehint nounwind sspstrong uwtable
define linkonce_odr dso_local void @_ZN10PullSwitchD2Ev(%class.PullSwitch* %0) unnamed_addr #11 comdat align 2 !dbg !3838 {
  call void @llvm.dbg.value(metadata %class.PullSwitch* %0, metadata !3841, metadata !DIExpression()), !dbg !3842
  %2 = getelementptr %class.PullSwitch, %class.PullSwitch* %0, i64 0, i32 0, i32 0, i32 0, !dbg !3843
  store i32 (...)** bitcast (i8** getelementptr inbounds ({ [30 x i8*] }, { [30 x i8*] }* @_ZTV10PullSwitch, i64 0, inrange i32 0, i64 2) to i32 (...)**), i32 (...)*** %2, align 8, !dbg !3843, !tbaa !1933
  %3 = getelementptr inbounds %class.PullSwitch, %class.PullSwitch* %0, i64 0, i32 1, !dbg !3844
  tail call void @_ZN14ActiveNotifierD1Ev(%class.ActiveNotifier* nonnull %3) #14, !dbg !3844
  %4 = getelementptr %class.PullSwitch, %class.PullSwitch* %0, i64 0, i32 0, !dbg !3844
  tail call void @_ZN16SimplePullSwitchD2Ev(%class.SimplePullSwitch* %4) #14, !dbg !3844
  ret void, !dbg !3843
}

; Function Attrs: inlinehint nounwind sspstrong uwtable
define linkonce_odr dso_local void @_ZN10PullSwitchD0Ev(%class.PullSwitch* %0) unnamed_addr #11 comdat align 2 !dbg !3846 {
  call void @llvm.dbg.value(metadata %class.PullSwitch* %0, metadata !3848, metadata !DIExpression()), !dbg !3849
  call void @llvm.dbg.value(metadata %class.PullSwitch* %0, metadata !3841, metadata !DIExpression()) #14, !dbg !3850
  %2 = getelementptr %class.PullSwitch, %class.PullSwitch* %0, i64 0, i32 0, i32 0, i32 0, !dbg !3852
  store i32 (...)** bitcast (i8** getelementptr inbounds ({ [30 x i8*] }, { [30 x i8*] }* @_ZTV10PullSwitch, i64 0, inrange i32 0, i64 2) to i32 (...)**), i32 (...)*** %2, align 8, !dbg !3852, !tbaa !1933
  %3 = getelementptr inbounds %class.PullSwitch, %class.PullSwitch* %0, i64 0, i32 1, !dbg !3853
  tail call void @_ZN14ActiveNotifierD1Ev(%class.ActiveNotifier* nonnull %3) #14, !dbg !3853
  %4 = getelementptr %class.PullSwitch, %class.PullSwitch* %0, i64 0, i32 0, !dbg !3853
  tail call void @_ZN16SimplePullSwitchD2Ev(%class.SimplePullSwitch* %4) #14, !dbg !3853
  %5 = bitcast %class.PullSwitch* %0 to i8*, !dbg !3854
  tail call void @_ZdlPv(i8* %5) #18, !dbg !3854
  ret void, !dbg !3854
}

declare void @_ZN7Element4pushEiP6Packet(%class.Element*, i32, %class.Packet*) unnamed_addr #2

declare %class.Packet* @_ZN7Element13simple_actionEP6Packet(%class.Element*, %class.Packet*) unnamed_addr #2

declare zeroext i1 @_ZN7Element8run_taskEP4Task(%class.Element*, %class.Task*) unnamed_addr #2

declare void @_ZN7Element9run_timerEP5Timer(%class.Element*, %class.Timer*) unnamed_addr #2

declare void @_ZN7Element8selectedEii(%class.Element*, i32, i32) unnamed_addr #2

declare void @_ZN7Element8selectedEi(%class.Element*, i32) unnamed_addr #2

; Function Attrs: nounwind sspstrong uwtable
define linkonce_odr dso_local i8* @_ZNK10PullSwitch10class_nameEv(%class.PullSwitch* %0) unnamed_addr #9 comdat align 2 !dbg !3855 {
  call void @llvm.dbg.value(metadata %class.PullSwitch* %0, metadata !3857, metadata !DIExpression()), !dbg !3859
  ret i8* getelementptr inbounds ([11 x i8], [11 x i8]* @.str.7, i64 0, i64 0), !dbg !3860
}

; Function Attrs: nounwind sspstrong uwtable
define linkonce_odr dso_local i8* @_ZNK16SimplePullSwitch10port_countEv(%class.SimplePullSwitch* %0) unnamed_addr #9 comdat align 2 !dbg !3861 {
  call void @llvm.dbg.value(metadata %class.SimplePullSwitch* %0, metadata !3868, metadata !DIExpression()), !dbg !3870
  ret i8* getelementptr inbounds ([4 x i8], [4 x i8]* @.str.8, i64 0, i64 0), !dbg !3871
}

; Function Attrs: nounwind sspstrong uwtable
define linkonce_odr dso_local i8* @_ZNK16SimplePullSwitch10processingEv(%class.SimplePullSwitch* %0) unnamed_addr #9 comdat align 2 !dbg !3872 {
  call void @llvm.dbg.value(metadata %class.SimplePullSwitch* %0, metadata !3875, metadata !DIExpression()), !dbg !3876
  ret i8* getelementptr inbounds ([0 x i8], [0 x i8]* @_ZN7Element4PULLE, i64 0, i64 0), !dbg !3877
}

declare i8* @_ZNK7Element9flow_codeEv(%class.Element*) unnamed_addr #2

declare i8* @_ZNK7Element5flagsEv(%class.Element*) unnamed_addr #2

declare i8* @_ZN7Element9port_castEbiPKc(%class.Element*, i1 zeroext, i32, i8*) unnamed_addr #2

declare i32 @_ZNK7Element15configure_phaseEv(%class.Element*) unnamed_addr #2

declare i32 @_ZN16SimplePullSwitch9configureER6VectorI6StringEP12ErrorHandler(%class.SimplePullSwitch*, %class.Vector.7* dereferenceable(16), %class.ErrorHandler*) unnamed_addr #2

declare void @_ZN16SimplePullSwitch12add_handlersEv(%class.SimplePullSwitch*) unnamed_addr #2

declare void @_ZN7Element10take_stateEPS_P12ErrorHandler(%class.Element*, %class.Element*, %class.ErrorHandler*) unnamed_addr #2

declare %class.Element* @_ZNK7Element15hotswap_elementEv(%class.Element*) unnamed_addr #2

declare void @_ZNK7Element11declarationEv(%class.String* sret, %class.Element*) unnamed_addr #2

; Function Attrs: nounwind sspstrong uwtable
define linkonce_odr dso_local zeroext i1 @_ZNK16SimplePullSwitch20can_live_reconfigureEv(%class.SimplePullSwitch* %0) unnamed_addr #9 comdat align 2 !dbg !3878 {
  call void @llvm.dbg.value(metadata %class.SimplePullSwitch* %0, metadata !3883, metadata !DIExpression()), !dbg !3884
  ret i1 true, !dbg !3885
}

declare i32 @_ZN7Element16live_reconfigureER6VectorI6StringEP12ErrorHandler(%class.Element*, %class.Vector.7* dereferenceable(16), %class.ErrorHandler*) unnamed_addr #2

declare i32 @_ZN16SimplePullSwitch5llrpcEjPv(%class.SimplePullSwitch*, i32, i8*) unnamed_addr #2

; Function Attrs: noreturn nounwind
declare void @__assert_fail(i8*, i8*, i32, i8*) local_unnamed_addr #12

declare void @_ZN4Task17complete_scheduleEP12RouterThread(%class.Task*, %class.RouterThread*) local_unnamed_addr #2

declare void @_ZN14NotifierSignal14hard_assign_vmERKS_(%class.NotifierSignal*, %class.NotifierSignal* dereferenceable(16)) local_unnamed_addr #2

; Function Attrs: noinline nounwind optnone sspstrong uwtable
define linkonce_odr dso_local dereferenceable(16) %"class.Element::Port"* @_ZNK7Element4portEbi(%class.Element* %0, i1 zeroext %1, i32 %2) local_unnamed_addr #13 comdat align 2 !dbg !3886 {
  %4 = alloca %class.Element*, align 8
  %5 = alloca i8, align 1
  %6 = alloca i32, align 4
  store %class.Element* %0, %class.Element** %4, align 8, !tbaa !3737
  call void @llvm.dbg.declare(metadata %class.Element** %4, metadata !3891, metadata !DIExpression()), !dbg !3894
  %7 = zext i1 %1 to i8
  store i8 %7, i8* %5, align 1, !tbaa !3895
  call void @llvm.dbg.declare(metadata i8* %5, metadata !3892, metadata !DIExpression()), !dbg !3897
  store i32 %2, i32* %6, align 4, !tbaa !3397
  call void @llvm.dbg.declare(metadata i32* %6, metadata !3893, metadata !DIExpression()), !dbg !3898
  %8 = load %class.Element*, %class.Element** %4, align 8
  %9 = load i32, i32* %6, align 4, !dbg !3899, !tbaa !3397
  %10 = getelementptr inbounds %class.Element, %class.Element* %8, i32 0, i32 3, !dbg !3899
  %11 = load i8, i8* %5, align 1, !dbg !3899, !tbaa !3895, !range !3900
  %12 = trunc i8 %11 to i1, !dbg !3899
  %13 = zext i1 %12 to i64, !dbg !3899
  %14 = getelementptr inbounds [2 x i32], [2 x i32]* %10, i64 0, i64 %13, !dbg !3899
  %15 = load i32, i32* %14, align 4, !dbg !3899, !tbaa !3397
  %16 = icmp ult i32 %9, %15, !dbg !3899
  br i1 %16, label %17, label %18, !dbg !3899

17:                                               ; preds = %3
  br label %19, !dbg !3899

18:                                               ; preds = %3
  call void @__assert_fail(i8* getelementptr inbounds ([47 x i8], [47 x i8]* @.str.4, i64 0, i64 0), i8* getelementptr inbounds ([30 x i8], [30 x i8]* @.str.5, i64 0, i64 0), i32 437, i8* getelementptr inbounds ([52 x i8], [52 x i8]* @__PRETTY_FUNCTION__._ZNK7Element4portEbi, i64 0, i64 0)) #16, !dbg !3899
  unreachable, !dbg !3899

19:                                               ; preds = %17
  %20 = getelementptr inbounds %class.Element, %class.Element* %8, i32 0, i32 1, !dbg !3901
  %21 = load i8, i8* %5, align 1, !dbg !3902, !tbaa !3895, !range !3900
  %22 = trunc i8 %21 to i1, !dbg !3902
  %23 = zext i1 %22 to i64, !dbg !3901
  %24 = getelementptr inbounds [2 x %"class.Element::Port"*], [2 x %"class.Element::Port"*]* %20, i64 0, i64 %23, !dbg !3901
  %25 = load %"class.Element::Port"*, %"class.Element::Port"** %24, align 8, !dbg !3901, !tbaa !3737
  %26 = load i32, i32* %6, align 4, !dbg !3903, !tbaa !3397
  %27 = sext i32 %26 to i64, !dbg !3901
  %28 = getelementptr inbounds %"class.Element::Port", %"class.Element::Port"* %25, i64 %27, !dbg !3901
  ret %"class.Element::Port"* %28, !dbg !3904
}

; Function Attrs: nounwind
declare void @_ZN14ActiveNotifierD1Ev(%class.ActiveNotifier*) unnamed_addr #3

; Function Attrs: nobuiltin nounwind
declare void @_ZdlPv(i8*) local_unnamed_addr #8

; Function Attrs: nounwind readnone speculatable willreturn
declare void @llvm.dbg.value(metadata, metadata, metadata) #1

; Function Attrs: nounwind readnone speculatable willreturn
declare i32 @llvm.ctpop.i32(i32) #1

attributes #0 = { sspstrong uwtable "correctly-rounded-divide-sqrt-fp-math"="false" "disable-tail-calls"="false" "frame-pointer"="none" "less-precise-fpmad"="false" "min-legal-vector-width"="0" "no-infs-fp-math"="false" "no-jump-tables"="false" "no-nans-fp-math"="false" "no-signed-zeros-fp-math"="false" "no-trapping-math"="false" "stack-protector-buffer-size"="8" "target-cpu"="x86-64" "target-features"="+cx8,+fxsr,+mmx,+sse,+sse2,+x87" "unsafe-fp-math"="false" "use-soft-float"="false" }
attributes #1 = { nounwind readnone speculatable willreturn }
attributes #2 = { "correctly-rounded-divide-sqrt-fp-math"="false" "disable-tail-calls"="false" "frame-pointer"="none" "less-precise-fpmad"="false" "no-infs-fp-math"="false" "no-nans-fp-math"="false" "no-signed-zeros-fp-math"="false" "no-trapping-math"="false" "stack-protector-buffer-size"="8" "target-cpu"="x86-64" "target-features"="+cx8,+fxsr,+mmx,+sse,+sse2,+x87" "unsafe-fp-math"="false" "use-soft-float"="false" }
attributes #3 = { nounwind "correctly-rounded-divide-sqrt-fp-math"="false" "disable-tail-calls"="false" "frame-pointer"="none" "less-precise-fpmad"="false" "no-infs-fp-math"="false" "no-nans-fp-math"="false" "no-signed-zeros-fp-math"="false" "no-trapping-math"="false" "stack-protector-buffer-size"="8" "target-cpu"="x86-64" "target-features"="+cx8,+fxsr,+mmx,+sse,+sse2,+x87" "unsafe-fp-math"="false" "use-soft-float"="false" }
attributes #4 = { nofree nounwind readonly "correctly-rounded-divide-sqrt-fp-math"="false" "disable-tail-calls"="false" "frame-pointer"="none" "less-precise-fpmad"="false" "no-infs-fp-math"="false" "no-nans-fp-math"="false" "no-signed-zeros-fp-math"="false" "no-trapping-math"="false" "stack-protector-buffer-size"="8" "target-cpu"="x86-64" "target-features"="+cx8,+fxsr,+mmx,+sse,+sse2,+x87" "unsafe-fp-math"="false" "use-soft-float"="false" }
attributes #5 = { argmemonly nounwind willreturn }
attributes #6 = { inlinehint sspstrong uwtable "correctly-rounded-divide-sqrt-fp-math"="false" "disable-tail-calls"="false" "frame-pointer"="none" "less-precise-fpmad"="false" "min-legal-vector-width"="0" "no-infs-fp-math"="false" "no-jump-tables"="false" "no-nans-fp-math"="false" "no-signed-zeros-fp-math"="false" "no-trapping-math"="false" "stack-protector-buffer-size"="8" "target-cpu"="x86-64" "target-features"="+cx8,+fxsr,+mmx,+sse,+sse2,+x87" "unsafe-fp-math"="false" "use-soft-float"="false" }
attributes #7 = { nobuiltin nofree "correctly-rounded-divide-sqrt-fp-math"="false" "disable-tail-calls"="false" "frame-pointer"="none" "less-precise-fpmad"="false" "no-infs-fp-math"="false" "no-nans-fp-math"="false" "no-signed-zeros-fp-math"="false" "no-trapping-math"="false" "stack-protector-buffer-size"="8" "target-cpu"="x86-64" "target-features"="+cx8,+fxsr,+mmx,+sse,+sse2,+x87" "unsafe-fp-math"="false" "use-soft-float"="false" }
attributes #8 = { nobuiltin nounwind "correctly-rounded-divide-sqrt-fp-math"="false" "disable-tail-calls"="false" "frame-pointer"="none" "less-precise-fpmad"="false" "no-infs-fp-math"="false" "no-nans-fp-math"="false" "no-signed-zeros-fp-math"="false" "no-trapping-math"="false" "stack-protector-buffer-size"="8" "target-cpu"="x86-64" "target-features"="+cx8,+fxsr,+mmx,+sse,+sse2,+x87" "unsafe-fp-math"="false" "use-soft-float"="false" }
attributes #9 = { nounwind sspstrong uwtable "correctly-rounded-divide-sqrt-fp-math"="false" "disable-tail-calls"="false" "frame-pointer"="none" "less-precise-fpmad"="false" "min-legal-vector-width"="0" "no-infs-fp-math"="false" "no-jump-tables"="false" "no-nans-fp-math"="false" "no-signed-zeros-fp-math"="false" "no-trapping-math"="false" "stack-protector-buffer-size"="8" "target-cpu"="x86-64" "target-features"="+cx8,+fxsr,+mmx,+sse,+sse2,+x87" "unsafe-fp-math"="false" "use-soft-float"="false" }
attributes #10 = { noinline optnone sspstrong uwtable "correctly-rounded-divide-sqrt-fp-math"="false" "disable-tail-calls"="false" "frame-pointer"="none" "less-precise-fpmad"="false" "min-legal-vector-width"="0" "no-infs-fp-math"="false" "no-jump-tables"="false" "no-nans-fp-math"="false" "no-signed-zeros-fp-math"="false" "no-trapping-math"="false" "stack-protector-buffer-size"="8" "target-cpu"="x86-64" "target-features"="+cx8,+fxsr,+mmx,+sse,+sse2,+x87" "unsafe-fp-math"="false" "use-soft-float"="false" }
attributes #11 = { inlinehint nounwind sspstrong uwtable "correctly-rounded-divide-sqrt-fp-math"="false" "disable-tail-calls"="false" "frame-pointer"="none" "less-precise-fpmad"="false" "min-legal-vector-width"="0" "no-infs-fp-math"="false" "no-jump-tables"="false" "no-nans-fp-math"="false" "no-signed-zeros-fp-math"="false" "no-trapping-math"="false" "stack-protector-buffer-size"="8" "target-cpu"="x86-64" "target-features"="+cx8,+fxsr,+mmx,+sse,+sse2,+x87" "unsafe-fp-math"="false" "use-soft-float"="false" }
attributes #12 = { noreturn nounwind "correctly-rounded-divide-sqrt-fp-math"="false" "disable-tail-calls"="false" "frame-pointer"="none" "less-precise-fpmad"="false" "no-infs-fp-math"="false" "no-nans-fp-math"="false" "no-signed-zeros-fp-math"="false" "no-trapping-math"="false" "stack-protector-buffer-size"="8" "target-cpu"="x86-64" "target-features"="+cx8,+fxsr,+mmx,+sse,+sse2,+x87" "unsafe-fp-math"="false" "use-soft-float"="false" }
attributes #13 = { noinline nounwind optnone sspstrong uwtable "correctly-rounded-divide-sqrt-fp-math"="false" "disable-tail-calls"="false" "frame-pointer"="none" "less-precise-fpmad"="false" "min-legal-vector-width"="0" "no-infs-fp-math"="false" "no-jump-tables"="false" "no-nans-fp-math"="false" "no-signed-zeros-fp-math"="false" "no-trapping-math"="false" "stack-protector-buffer-size"="8" "target-cpu"="x86-64" "target-features"="+cx8,+fxsr,+mmx,+sse,+sse2,+x87" "unsafe-fp-math"="false" "use-soft-float"="false" }
attributes #14 = { nounwind }
attributes #15 = { nounwind readonly }
attributes #16 = { noreturn nounwind }
attributes #17 = { builtin }
attributes #18 = { builtin nounwind }

!llvm.dbg.cu = !{!0}
!llvm.module.flags = !{!1921, !1922, !1923, !1924, !1925}
!llvm.ident = !{!1926}

!0 = distinct !DICompileUnit(language: DW_LANG_C_plus_plus_14, file: !1, producer: "clang version 10.0.0 ", isOptimized: true, runtimeVersion: 0, emissionKind: FullDebug, enums: !2, retainedTypes: !1253, imports: !1298, splitDebugInlining: false, nameTableKind: None)
!1 = !DIFile(filename: "../elements/standard/pullswitch.cc", directory: "/home/john/projects/click/ir-dir")
!2 = !{!3, !16, !869, !1174}
!3 = !DICompositeType(tag: DW_TAG_enumeration_type, name: "CleanupStage", scope: !5, file: !4, line: 97, baseType: !6, size: 32, elements: !7, identifier: "_ZTSN7Element12CleanupStageE")
!4 = !DIFile(filename: "../dummy_inc/click/element.hh", directory: "/home/john/projects/click/ir-dir")
!5 = !DICompositeType(tag: DW_TAG_class_type, name: "Element", file: !4, line: 29, flags: DIFlagFwdDecl, identifier: "_ZTS7Element")
!6 = !DIBasicType(name: "unsigned int", size: 32, encoding: DW_ATE_unsigned)
!7 = !{!8, !9, !10, !11, !12, !13, !14, !15}
!8 = !DIEnumerator(name: "CLEANUP_NO_ROUTER", value: 0, isUnsigned: true)
!9 = !DIEnumerator(name: "CLEANUP_BEFORE_CONFIGURE", value: 0, isUnsigned: true)
!10 = !DIEnumerator(name: "CLEANUP_CONFIGURE_FAILED", value: 1, isUnsigned: true)
!11 = !DIEnumerator(name: "CLEANUP_CONFIGURED", value: 2, isUnsigned: true)
!12 = !DIEnumerator(name: "CLEANUP_INITIALIZE_FAILED", value: 3, isUnsigned: true)
!13 = !DIEnumerator(name: "CLEANUP_INITIALIZED", value: 4, isUnsigned: true)
!14 = !DIEnumerator(name: "CLEANUP_ROUTER_INITIALIZED", value: 5, isUnsigned: true)
!15 = !DIEnumerator(name: "CLEANUP_MANUAL", value: 6, isUnsigned: true)
!16 = !DICompositeType(tag: DW_TAG_enumeration_type, name: "PacketType", scope: !18, file: !17, line: 368, baseType: !6, size: 32, elements: !1166, identifier: "_ZTSN6Packet10PacketTypeE")
!17 = !DIFile(filename: "../dummy_inc/click/packet.hh", directory: "/home/john/projects/click/ir-dir")
!18 = distinct !DICompositeType(tag: DW_TAG_class_type, name: "Packet", file: !17, line: 35, size: 1344, flags: DIFlagTypePassByReference | DIFlagNonTrivial, elements: !19, identifier: "_ZTS6Packet")
!19 = !{!20, !89, !91, !94, !95, !96, !97, !140, !148, !149, !238, !241, !244, !247, !250, !254, !258, !261, !264, !269, !270, !273, !274, !275, !276, !277, !278, !281, !284, !287, !288, !291, !292, !295, !298, !299, !300, !301, !304, !307, !310, !313, !314, !315, !318, !319, !320, !323, !324, !325, !326, !327, !328, !329, !330, !331, !332, !333, !334, !335, !336, !337, !338, !343, !346, !351, !352, !353, !356, !361, !362, !363, !366, !369, !374, !379, !384, !389, !393, !910, !914, !917, !923, !926, !929, !932, !935, !939, !942, !943, !944, !945, !1035, !1038, !1039, !1042, !1046, !1051, !1055, !1060, !1063, !1066, !1069, !1072, !1078, !1081, !1084, !1087, !1090, !1093, !1096, !1099, !1102, !1105, !1106, !1109, !1113, !1114, !1115, !1116, !1117, !1118, !1119, !1120, !1121, !1122, !1123, !1124, !1125, !1126, !1127, !1128, !1129, !1130, !1131, !1132, !1133, !1134, !1135, !1136, !1137, !1138, !1139, !1140, !1141, !1142, !1143, !1144, !1145, !1146, !1147, !1150, !1151, !1155, !1158, !1161, !1164, !1165}
!20 = !DIDerivedType(tag: DW_TAG_member, name: "_use_count", scope: !18, file: !17, line: 731, baseType: !21, size: 32)
!21 = distinct !DICompositeType(tag: DW_TAG_class_type, name: "atomic_uint32_t", file: !22, line: 52, size: 32, flags: DIFlagTypePassByValue, elements: !23, identifier: "_ZTS15atomic_uint32_t")
!22 = !DIFile(filename: "../dummy_inc/click/atomic.hh", directory: "/home/john/projects/click/ir-dir")
!23 = !{!24, !29, !34, !35, !40, !47, !48, !49, !50, !53, !56, !57, !58, !61, !62, !66, !69, !72, !77, !80, !83, !86}
!24 = !DIDerivedType(tag: DW_TAG_member, name: "_val", scope: !21, file: !22, line: 91, baseType: !25, size: 32)
!25 = !DIDerivedType(tag: DW_TAG_typedef, name: "uint32_t", file: !26, line: 26, baseType: !27)
!26 = !DIFile(filename: "/usr/include/bits/stdint-uintn.h", directory: "")
!27 = !DIDerivedType(tag: DW_TAG_typedef, name: "__uint32_t", file: !28, line: 42, baseType: !6)
!28 = !DIFile(filename: "/usr/include/bits/types.h", directory: "")
!29 = !DISubprogram(name: "value", linkageName: "_ZNK15atomic_uint32_t5valueEv", scope: !21, file: !22, line: 57, type: !30, scopeLine: 57, flags: DIFlagPublic | DIFlagPrototyped, spFlags: DISPFlagOptimized)
!30 = !DISubroutineType(types: !31)
!31 = !{!25, !32}
!32 = !DIDerivedType(tag: DW_TAG_pointer_type, baseType: !33, size: 64, flags: DIFlagArtificial | DIFlagObjectPointer)
!33 = !DIDerivedType(tag: DW_TAG_const_type, baseType: !21)
!34 = !DISubprogram(name: "operator unsigned int", linkageName: "_ZNK15atomic_uint32_tcvjEv", scope: !21, file: !22, line: 58, type: !30, scopeLine: 58, flags: DIFlagPublic | DIFlagPrototyped, spFlags: DISPFlagOptimized)
!35 = !DISubprogram(name: "operator=", linkageName: "_ZN15atomic_uint32_taSEj", scope: !21, file: !22, line: 60, type: !36, scopeLine: 60, flags: DIFlagPublic | DIFlagPrototyped, spFlags: DISPFlagOptimized)
!36 = !DISubroutineType(types: !37)
!37 = !{!38, !39, !25}
!38 = !DIDerivedType(tag: DW_TAG_reference_type, baseType: !21, size: 64)
!39 = !DIDerivedType(tag: DW_TAG_pointer_type, baseType: !21, size: 64, flags: DIFlagArtificial | DIFlagObjectPointer)
!40 = !DISubprogram(name: "operator+=", linkageName: "_ZN15atomic_uint32_tpLEi", scope: !21, file: !22, line: 62, type: !41, scopeLine: 62, flags: DIFlagPublic | DIFlagPrototyped, spFlags: DISPFlagOptimized)
!41 = !DISubroutineType(types: !42)
!42 = !{!38, !39, !43}
!43 = !DIDerivedType(tag: DW_TAG_typedef, name: "int32_t", file: !44, line: 26, baseType: !45)
!44 = !DIFile(filename: "/usr/include/bits/stdint-intn.h", directory: "")
!45 = !DIDerivedType(tag: DW_TAG_typedef, name: "__int32_t", file: !28, line: 41, baseType: !46)
!46 = !DIBasicType(name: "int", size: 32, encoding: DW_ATE_signed)
!47 = !DISubprogram(name: "operator-=", linkageName: "_ZN15atomic_uint32_tmIEi", scope: !21, file: !22, line: 63, type: !41, scopeLine: 63, flags: DIFlagPublic | DIFlagPrototyped, spFlags: DISPFlagOptimized)
!48 = !DISubprogram(name: "operator|=", linkageName: "_ZN15atomic_uint32_toREj", scope: !21, file: !22, line: 64, type: !36, scopeLine: 64, flags: DIFlagPublic | DIFlagPrototyped, spFlags: DISPFlagOptimized)
!49 = !DISubprogram(name: "operator&=", linkageName: "_ZN15atomic_uint32_taNEj", scope: !21, file: !22, line: 65, type: !36, scopeLine: 65, flags: DIFlagPublic | DIFlagPrototyped, spFlags: DISPFlagOptimized)
!50 = !DISubprogram(name: "operator++", linkageName: "_ZN15atomic_uint32_tppEv", scope: !21, file: !22, line: 67, type: !51, scopeLine: 67, flags: DIFlagPublic | DIFlagPrototyped, spFlags: DISPFlagOptimized)
!51 = !DISubroutineType(types: !52)
!52 = !{null, !39}
!53 = !DISubprogram(name: "operator++", linkageName: "_ZN15atomic_uint32_tppEi", scope: !21, file: !22, line: 68, type: !54, scopeLine: 68, flags: DIFlagPublic | DIFlagPrototyped, spFlags: DISPFlagOptimized)
!54 = !DISubroutineType(types: !55)
!55 = !{null, !39, !46}
!56 = !DISubprogram(name: "operator--", linkageName: "_ZN15atomic_uint32_tmmEv", scope: !21, file: !22, line: 69, type: !51, scopeLine: 69, flags: DIFlagPublic | DIFlagPrototyped, spFlags: DISPFlagOptimized)
!57 = !DISubprogram(name: "operator--", linkageName: "_ZN15atomic_uint32_tmmEi", scope: !21, file: !22, line: 70, type: !54, scopeLine: 70, flags: DIFlagPublic | DIFlagPrototyped, spFlags: DISPFlagOptimized)
!58 = !DISubprogram(name: "swap", linkageName: "_ZN15atomic_uint32_t4swapEj", scope: !21, file: !22, line: 72, type: !59, scopeLine: 72, flags: DIFlagPublic | DIFlagPrototyped, spFlags: DISPFlagOptimized)
!59 = !DISubroutineType(types: !60)
!60 = !{!25, !39, !25}
!61 = !DISubprogram(name: "fetch_and_add", linkageName: "_ZN15atomic_uint32_t13fetch_and_addEj", scope: !21, file: !22, line: 73, type: !59, scopeLine: 73, flags: DIFlagPublic | DIFlagPrototyped, spFlags: DISPFlagOptimized)
!62 = !DISubprogram(name: "dec_and_test", linkageName: "_ZN15atomic_uint32_t12dec_and_testEv", scope: !21, file: !22, line: 74, type: !63, scopeLine: 74, flags: DIFlagPublic | DIFlagPrototyped, spFlags: DISPFlagOptimized)
!63 = !DISubroutineType(types: !64)
!64 = !{!65, !39}
!65 = !DIBasicType(name: "bool", size: 8, encoding: DW_ATE_boolean)
!66 = !DISubprogram(name: "compare_swap", linkageName: "_ZN15atomic_uint32_t12compare_swapEjj", scope: !21, file: !22, line: 75, type: !67, scopeLine: 75, flags: DIFlagPublic | DIFlagPrototyped, spFlags: DISPFlagOptimized)
!67 = !DISubroutineType(types: !68)
!68 = !{!25, !39, !25, !25}
!69 = !DISubprogram(name: "compare_and_swap", linkageName: "_ZN15atomic_uint32_t16compare_and_swapEjj", scope: !21, file: !22, line: 76, type: !70, scopeLine: 76, flags: DIFlagPublic | DIFlagPrototyped, spFlags: DISPFlagOptimized)
!70 = !DISubroutineType(types: !71)
!71 = !{!65, !39, !25, !25}
!72 = !DISubprogram(name: "swap", linkageName: "_ZN15atomic_uint32_t4swapERVjj", scope: !21, file: !22, line: 78, type: !73, scopeLine: 78, flags: DIFlagPublic | DIFlagPrototyped | DIFlagStaticMember, spFlags: DISPFlagOptimized)
!73 = !DISubroutineType(types: !74)
!74 = !{!25, !75, !25}
!75 = !DIDerivedType(tag: DW_TAG_reference_type, baseType: !76, size: 64)
!76 = !DIDerivedType(tag: DW_TAG_volatile_type, baseType: !25)
!77 = !DISubprogram(name: "inc", linkageName: "_ZN15atomic_uint32_t3incERVj", scope: !21, file: !22, line: 79, type: !78, scopeLine: 79, flags: DIFlagPublic | DIFlagPrototyped | DIFlagStaticMember, spFlags: DISPFlagOptimized)
!78 = !DISubroutineType(types: !79)
!79 = !{null, !75}
!80 = !DISubprogram(name: "dec_and_test", linkageName: "_ZN15atomic_uint32_t12dec_and_testERVj", scope: !21, file: !22, line: 80, type: !81, scopeLine: 80, flags: DIFlagPublic | DIFlagPrototyped | DIFlagStaticMember, spFlags: DISPFlagOptimized)
!81 = !DISubroutineType(types: !82)
!82 = !{!65, !75}
!83 = !DISubprogram(name: "compare_swap", linkageName: "_ZN15atomic_uint32_t12compare_swapERVjjj", scope: !21, file: !22, line: 81, type: !84, scopeLine: 81, flags: DIFlagPublic | DIFlagPrototyped | DIFlagStaticMember, spFlags: DISPFlagOptimized)
!84 = !DISubroutineType(types: !85)
!85 = !{!25, !75, !25, !25}
!86 = !DISubprogram(name: "compare_and_swap", linkageName: "_ZN15atomic_uint32_t16compare_and_swapERVjjj", scope: !21, file: !22, line: 82, type: !87, scopeLine: 82, flags: DIFlagPublic | DIFlagPrototyped | DIFlagStaticMember, spFlags: DISPFlagOptimized)
!87 = !DISubroutineType(types: !88)
!88 = !{!65, !75, !25, !25}
!89 = !DIDerivedType(tag: DW_TAG_member, name: "_data_packet", scope: !18, file: !17, line: 732, baseType: !90, size: 64, offset: 64)
!90 = !DIDerivedType(tag: DW_TAG_pointer_type, baseType: !18, size: 64)
!91 = !DIDerivedType(tag: DW_TAG_member, name: "_head", scope: !18, file: !17, line: 734, baseType: !92, size: 64, offset: 128)
!92 = !DIDerivedType(tag: DW_TAG_pointer_type, baseType: !93, size: 64)
!93 = !DIBasicType(name: "unsigned char", size: 8, encoding: DW_ATE_unsigned_char)
!94 = !DIDerivedType(tag: DW_TAG_member, name: "_data", scope: !18, file: !17, line: 735, baseType: !92, size: 64, offset: 192)
!95 = !DIDerivedType(tag: DW_TAG_member, name: "_tail", scope: !18, file: !17, line: 736, baseType: !92, size: 64, offset: 256)
!96 = !DIDerivedType(tag: DW_TAG_member, name: "_end", scope: !18, file: !17, line: 737, baseType: !92, size: 64, offset: 320)
!97 = !DIDerivedType(tag: DW_TAG_member, name: "_aa", scope: !18, file: !17, line: 741, baseType: !98, size: 832, offset: 384)
!98 = distinct !DICompositeType(tag: DW_TAG_structure_type, name: "AllAnno", scope: !18, file: !17, line: 716, size: 832, flags: DIFlagTypePassByValue, elements: !99, identifier: "_ZTSN6Packet7AllAnnoE")
!99 = !{!100, !130, !131, !132, !133, !134, !138, !139}
!100 = !DIDerivedType(tag: DW_TAG_member, name: "cb", scope: !98, file: !17, line: 717, baseType: !101, size: 384)
!101 = distinct !DICompositeType(tag: DW_TAG_union_type, name: "Anno", scope: !18, file: !17, line: 702, size: 384, flags: DIFlagTypePassByValue, elements: !102, identifier: "_ZTSN6Packet4AnnoE")
!102 = !{!103, !108, !112, !119, !123}
!103 = !DIDerivedType(tag: DW_TAG_member, name: "c", scope: !101, file: !17, line: 703, baseType: !104, size: 384)
!104 = !DICompositeType(tag: DW_TAG_array_type, baseType: !105, size: 384, elements: !106)
!105 = !DIBasicType(name: "char", size: 8, encoding: DW_ATE_signed_char)
!106 = !{!107}
!107 = !DISubrange(count: 48)
!108 = !DIDerivedType(tag: DW_TAG_member, name: "u8", scope: !101, file: !17, line: 704, baseType: !109, size: 384)
!109 = !DICompositeType(tag: DW_TAG_array_type, baseType: !110, size: 384, elements: !106)
!110 = !DIDerivedType(tag: DW_TAG_typedef, name: "uint8_t", file: !26, line: 24, baseType: !111)
!111 = !DIDerivedType(tag: DW_TAG_typedef, name: "__uint8_t", file: !28, line: 38, baseType: !93)
!112 = !DIDerivedType(tag: DW_TAG_member, name: "u16", scope: !101, file: !17, line: 705, baseType: !113, size: 384)
!113 = !DICompositeType(tag: DW_TAG_array_type, baseType: !114, size: 384, elements: !117)
!114 = !DIDerivedType(tag: DW_TAG_typedef, name: "uint16_t", file: !26, line: 25, baseType: !115)
!115 = !DIDerivedType(tag: DW_TAG_typedef, name: "__uint16_t", file: !28, line: 40, baseType: !116)
!116 = !DIBasicType(name: "unsigned short", size: 16, encoding: DW_ATE_unsigned)
!117 = !{!118}
!118 = !DISubrange(count: 24)
!119 = !DIDerivedType(tag: DW_TAG_member, name: "u32", scope: !101, file: !17, line: 706, baseType: !120, size: 384)
!120 = !DICompositeType(tag: DW_TAG_array_type, baseType: !25, size: 384, elements: !121)
!121 = !{!122}
!122 = !DISubrange(count: 12)
!123 = !DIDerivedType(tag: DW_TAG_member, name: "u64", scope: !101, file: !17, line: 708, baseType: !124, size: 384)
!124 = !DICompositeType(tag: DW_TAG_array_type, baseType: !125, size: 384, elements: !128)
!125 = !DIDerivedType(tag: DW_TAG_typedef, name: "uint64_t", file: !26, line: 27, baseType: !126)
!126 = !DIDerivedType(tag: DW_TAG_typedef, name: "__uint64_t", file: !28, line: 45, baseType: !127)
!127 = !DIBasicType(name: "long unsigned int", size: 64, encoding: DW_ATE_unsigned)
!128 = !{!129}
!129 = !DISubrange(count: 6)
!130 = !DIDerivedType(tag: DW_TAG_member, name: "mac", scope: !98, file: !17, line: 718, baseType: !92, size: 64, offset: 384)
!131 = !DIDerivedType(tag: DW_TAG_member, name: "nh", scope: !98, file: !17, line: 719, baseType: !92, size: 64, offset: 448)
!132 = !DIDerivedType(tag: DW_TAG_member, name: "h", scope: !98, file: !17, line: 720, baseType: !92, size: 64, offset: 512)
!133 = !DIDerivedType(tag: DW_TAG_member, name: "pkt_type", scope: !98, file: !17, line: 721, baseType: !16, size: 32, offset: 576)
!134 = !DIDerivedType(tag: DW_TAG_member, name: "timestamp", scope: !98, file: !17, line: 722, baseType: !135, size: 64, offset: 608)
!135 = !DICompositeType(tag: DW_TAG_array_type, baseType: !105, size: 64, elements: !136)
!136 = !{!137}
!137 = !DISubrange(count: 8)
!138 = !DIDerivedType(tag: DW_TAG_member, name: "next", scope: !98, file: !17, line: 723, baseType: !90, size: 64, offset: 704)
!139 = !DIDerivedType(tag: DW_TAG_member, name: "prev", scope: !98, file: !17, line: 724, baseType: !90, size: 64, offset: 768)
!140 = !DIDerivedType(tag: DW_TAG_member, name: "_destructor", scope: !18, file: !17, line: 746, baseType: !141, size: 64, offset: 1216)
!141 = !DIDerivedType(tag: DW_TAG_typedef, name: "buffer_destructor_type", scope: !18, file: !17, line: 65, baseType: !142)
!142 = !DIDerivedType(tag: DW_TAG_pointer_type, baseType: !143, size: 64)
!143 = !DISubroutineType(types: !144)
!144 = !{null, !92, !145, !147}
!145 = !DIDerivedType(tag: DW_TAG_typedef, name: "size_t", file: !146, line: 46, baseType: !127)
!146 = !DIFile(filename: "/usr/lib/clang/10.0.0/include/stddef.h", directory: "")
!147 = !DIDerivedType(tag: DW_TAG_pointer_type, baseType: null, size: 64)
!148 = !DIDerivedType(tag: DW_TAG_member, name: "_destructor_argument", scope: !18, file: !17, line: 747, baseType: !147, size: 64, offset: 1280)
!149 = !DISubprogram(name: "make", linkageName: "_ZN6Packet4makeEjPKvjj", scope: !18, file: !17, line: 52, type: !150, scopeLine: 52, flags: DIFlagPublic | DIFlagPrototyped | DIFlagStaticMember, spFlags: DISPFlagOptimized)
!150 = !DISubroutineType(types: !151)
!151 = !{!152, !25, !236, !25, !25}
!152 = !DIDerivedType(tag: DW_TAG_pointer_type, baseType: !153, size: 64)
!153 = distinct !DICompositeType(tag: DW_TAG_class_type, name: "WritablePacket", file: !17, line: 778, size: 1344, flags: DIFlagTypePassByReference | DIFlagNonTrivial, elements: !154, identifier: "_ZTS14WritablePacket")
!154 = !{!155, !156, !161, !162, !163, !164, !165, !170, !171, !194, !199, !200, !205, !210, !215, !216, !220, !221, !226, !227, !230, !233}
!155 = !DIDerivedType(tag: DW_TAG_inheritance, scope: !153, baseType: !18, flags: DIFlagPublic, extraData: i32 0)
!156 = !DISubprogram(name: "data", linkageName: "_ZNK14WritablePacket4dataEv", scope: !153, file: !17, line: 780, type: !157, scopeLine: 780, flags: DIFlagPublic | DIFlagPrototyped, spFlags: DISPFlagOptimized)
!157 = !DISubroutineType(types: !158)
!158 = !{!92, !159}
!159 = !DIDerivedType(tag: DW_TAG_pointer_type, baseType: !160, size: 64, flags: DIFlagArtificial | DIFlagObjectPointer)
!160 = !DIDerivedType(tag: DW_TAG_const_type, baseType: !153)
!161 = !DISubprogram(name: "end_data", linkageName: "_ZNK14WritablePacket8end_dataEv", scope: !153, file: !17, line: 781, type: !157, scopeLine: 781, flags: DIFlagPublic | DIFlagPrototyped, spFlags: DISPFlagOptimized)
!162 = !DISubprogram(name: "buffer", linkageName: "_ZNK14WritablePacket6bufferEv", scope: !153, file: !17, line: 782, type: !157, scopeLine: 782, flags: DIFlagPublic | DIFlagPrototyped, spFlags: DISPFlagOptimized)
!163 = !DISubprogram(name: "end_buffer", linkageName: "_ZNK14WritablePacket10end_bufferEv", scope: !153, file: !17, line: 783, type: !157, scopeLine: 783, flags: DIFlagPublic | DIFlagPrototyped, spFlags: DISPFlagOptimized)
!164 = !DISubprogram(name: "mac_header", linkageName: "_ZNK14WritablePacket10mac_headerEv", scope: !153, file: !17, line: 784, type: !157, scopeLine: 784, flags: DIFlagPublic | DIFlagPrototyped, spFlags: DISPFlagOptimized)
!165 = !DISubprogram(name: "ether_header", linkageName: "_ZNK14WritablePacket12ether_headerEv", scope: !153, file: !17, line: 785, type: !166, scopeLine: 785, flags: DIFlagPublic | DIFlagPrototyped, spFlags: DISPFlagOptimized)
!166 = !DISubroutineType(types: !167)
!167 = !{!168, !159}
!168 = !DIDerivedType(tag: DW_TAG_pointer_type, baseType: !169, size: 64)
!169 = !DICompositeType(tag: DW_TAG_structure_type, name: "click_ether", file: !17, line: 24, flags: DIFlagFwdDecl, identifier: "_ZTS11click_ether")
!170 = !DISubprogram(name: "network_header", linkageName: "_ZNK14WritablePacket14network_headerEv", scope: !153, file: !17, line: 786, type: !157, scopeLine: 786, flags: DIFlagPublic | DIFlagPrototyped, spFlags: DISPFlagOptimized)
!171 = !DISubprogram(name: "ip_header", linkageName: "_ZNK14WritablePacket9ip_headerEv", scope: !153, file: !17, line: 787, type: !172, scopeLine: 787, flags: DIFlagPublic | DIFlagPrototyped, spFlags: DISPFlagOptimized)
!172 = !DISubroutineType(types: !173)
!173 = !{!174, !159}
!174 = !DIDerivedType(tag: DW_TAG_pointer_type, baseType: !175, size: 64)
!175 = distinct !DICompositeType(tag: DW_TAG_structure_type, name: "click_ip", file: !176, line: 23, size: 160, flags: DIFlagTypePassByValue, elements: !177, identifier: "_ZTS8click_ip")
!176 = !DIFile(filename: "../dummy_inc/clicknet/ip.h", directory: "/home/john/projects/click/ir-dir")
!177 = !{!178, !179, !180, !181, !182, !183, !184, !185, !186, !187, !193}
!178 = !DIDerivedType(tag: DW_TAG_member, name: "ip_hl", scope: !175, file: !176, line: 28, baseType: !6, size: 4, flags: DIFlagBitField, extraData: i64 0)
!179 = !DIDerivedType(tag: DW_TAG_member, name: "ip_v", scope: !175, file: !176, line: 29, baseType: !6, size: 4, offset: 4, flags: DIFlagBitField, extraData: i64 0)
!180 = !DIDerivedType(tag: DW_TAG_member, name: "ip_tos", scope: !175, file: !176, line: 33, baseType: !110, size: 8, offset: 8)
!181 = !DIDerivedType(tag: DW_TAG_member, name: "ip_len", scope: !175, file: !176, line: 40, baseType: !114, size: 16, offset: 16)
!182 = !DIDerivedType(tag: DW_TAG_member, name: "ip_id", scope: !175, file: !176, line: 41, baseType: !114, size: 16, offset: 32)
!183 = !DIDerivedType(tag: DW_TAG_member, name: "ip_off", scope: !175, file: !176, line: 42, baseType: !114, size: 16, offset: 48)
!184 = !DIDerivedType(tag: DW_TAG_member, name: "ip_ttl", scope: !175, file: !176, line: 47, baseType: !110, size: 8, offset: 64)
!185 = !DIDerivedType(tag: DW_TAG_member, name: "ip_p", scope: !175, file: !176, line: 48, baseType: !110, size: 8, offset: 72)
!186 = !DIDerivedType(tag: DW_TAG_member, name: "ip_sum", scope: !175, file: !176, line: 49, baseType: !114, size: 16, offset: 80)
!187 = !DIDerivedType(tag: DW_TAG_member, name: "ip_src", scope: !175, file: !176, line: 50, baseType: !188, size: 32, offset: 96)
!188 = distinct !DICompositeType(tag: DW_TAG_structure_type, name: "in_addr", file: !189, line: 31, size: 32, flags: DIFlagTypePassByValue, elements: !190, identifier: "_ZTS7in_addr")
!189 = !DIFile(filename: "/usr/include/netinet/in.h", directory: "")
!190 = !{!191}
!191 = !DIDerivedType(tag: DW_TAG_member, name: "s_addr", scope: !188, file: !189, line: 33, baseType: !192, size: 32)
!192 = !DIDerivedType(tag: DW_TAG_typedef, name: "in_addr_t", file: !189, line: 30, baseType: !25)
!193 = !DIDerivedType(tag: DW_TAG_member, name: "ip_dst", scope: !175, file: !176, line: 51, baseType: !188, size: 32, offset: 128)
!194 = !DISubprogram(name: "ip6_header", linkageName: "_ZNK14WritablePacket10ip6_headerEv", scope: !153, file: !17, line: 788, type: !195, scopeLine: 788, flags: DIFlagPublic | DIFlagPrototyped, spFlags: DISPFlagOptimized)
!195 = !DISubroutineType(types: !196)
!196 = !{!197, !159}
!197 = !DIDerivedType(tag: DW_TAG_pointer_type, baseType: !198, size: 64)
!198 = !DICompositeType(tag: DW_TAG_structure_type, name: "click_ip6", file: !17, line: 27, flags: DIFlagFwdDecl, identifier: "_ZTS9click_ip6")
!199 = !DISubprogram(name: "transport_header", linkageName: "_ZNK14WritablePacket16transport_headerEv", scope: !153, file: !17, line: 789, type: !157, scopeLine: 789, flags: DIFlagPublic | DIFlagPrototyped, spFlags: DISPFlagOptimized)
!200 = !DISubprogram(name: "icmp_header", linkageName: "_ZNK14WritablePacket11icmp_headerEv", scope: !153, file: !17, line: 790, type: !201, scopeLine: 790, flags: DIFlagPublic | DIFlagPrototyped, spFlags: DISPFlagOptimized)
!201 = !DISubroutineType(types: !202)
!202 = !{!203, !159}
!203 = !DIDerivedType(tag: DW_TAG_pointer_type, baseType: !204, size: 64)
!204 = !DICompositeType(tag: DW_TAG_structure_type, name: "click_icmp", file: !17, line: 26, flags: DIFlagFwdDecl, identifier: "_ZTS10click_icmp")
!205 = !DISubprogram(name: "tcp_header", linkageName: "_ZNK14WritablePacket10tcp_headerEv", scope: !153, file: !17, line: 791, type: !206, scopeLine: 791, flags: DIFlagPublic | DIFlagPrototyped, spFlags: DISPFlagOptimized)
!206 = !DISubroutineType(types: !207)
!207 = !{!208, !159}
!208 = !DIDerivedType(tag: DW_TAG_pointer_type, baseType: !209, size: 64)
!209 = !DICompositeType(tag: DW_TAG_structure_type, name: "click_tcp", file: !17, line: 28, flags: DIFlagFwdDecl, identifier: "_ZTS9click_tcp")
!210 = !DISubprogram(name: "udp_header", linkageName: "_ZNK14WritablePacket10udp_headerEv", scope: !153, file: !17, line: 792, type: !211, scopeLine: 792, flags: DIFlagPublic | DIFlagPrototyped, spFlags: DISPFlagOptimized)
!211 = !DISubroutineType(types: !212)
!212 = !{!213, !159}
!213 = !DIDerivedType(tag: DW_TAG_pointer_type, baseType: !214, size: 64)
!214 = !DICompositeType(tag: DW_TAG_structure_type, name: "click_udp", file: !17, line: 29, flags: DIFlagFwdDecl, identifier: "_ZTS9click_udp")
!215 = !DISubprogram(name: "buffer_data", linkageName: "_ZNK14WritablePacket11buffer_dataEv", scope: !153, file: !17, line: 795, type: !157, scopeLine: 795, flags: DIFlagPublic | DIFlagPrototyped, spFlags: DISPFlagOptimized)
!216 = !DISubprogram(name: "WritablePacket", scope: !153, file: !17, line: 800, type: !217, scopeLine: 800, flags: DIFlagPrototyped, spFlags: DISPFlagOptimized)
!217 = !DISubroutineType(types: !218)
!218 = !{null, !219}
!219 = !DIDerivedType(tag: DW_TAG_pointer_type, baseType: !153, size: 64, flags: DIFlagArtificial | DIFlagObjectPointer)
!220 = !DISubprogram(name: "initialize", linkageName: "_ZN14WritablePacket10initializeEv", scope: !153, file: !17, line: 802, type: !217, scopeLine: 802, flags: DIFlagPrototyped, spFlags: DISPFlagOptimized)
!221 = !DISubprogram(name: "WritablePacket", scope: !153, file: !17, line: 804, type: !222, scopeLine: 804, flags: DIFlagPrototyped, spFlags: DISPFlagOptimized)
!222 = !DISubroutineType(types: !223)
!223 = !{null, !219, !224}
!224 = !DIDerivedType(tag: DW_TAG_reference_type, baseType: !225, size: 64)
!225 = !DIDerivedType(tag: DW_TAG_const_type, baseType: !18)
!226 = !DISubprogram(name: "~WritablePacket", scope: !153, file: !17, line: 805, type: !217, scopeLine: 805, flags: DIFlagPrototyped, spFlags: DISPFlagOptimized)
!227 = !DISubprogram(name: "pool_allocate", linkageName: "_ZN14WritablePacket13pool_allocateEb", scope: !153, file: !17, line: 808, type: !228, scopeLine: 808, flags: DIFlagPrototyped | DIFlagStaticMember, spFlags: DISPFlagOptimized)
!228 = !DISubroutineType(types: !229)
!229 = !{!152, !65}
!230 = !DISubprogram(name: "pool_allocate", linkageName: "_ZN14WritablePacket13pool_allocateEjjj", scope: !153, file: !17, line: 809, type: !231, scopeLine: 809, flags: DIFlagPrototyped | DIFlagStaticMember, spFlags: DISPFlagOptimized)
!231 = !DISubroutineType(types: !232)
!232 = !{!152, !25, !25, !25}
!233 = !DISubprogram(name: "recycle", linkageName: "_ZN14WritablePacket7recycleEPS_", scope: !153, file: !17, line: 811, type: !234, scopeLine: 811, flags: DIFlagPrototyped | DIFlagStaticMember, spFlags: DISPFlagOptimized)
!234 = !DISubroutineType(types: !235)
!235 = !{null, !152}
!236 = !DIDerivedType(tag: DW_TAG_pointer_type, baseType: !237, size: 64)
!237 = !DIDerivedType(tag: DW_TAG_const_type, baseType: null)
!238 = !DISubprogram(name: "make", linkageName: "_ZN6Packet4makeEPKvj", scope: !18, file: !17, line: 54, type: !239, scopeLine: 54, flags: DIFlagPublic | DIFlagPrototyped | DIFlagStaticMember, spFlags: DISPFlagOptimized)
!239 = !DISubroutineType(types: !240)
!240 = !{!152, !236, !25}
!241 = !DISubprogram(name: "make", linkageName: "_ZN6Packet4makeEj", scope: !18, file: !17, line: 55, type: !242, scopeLine: 55, flags: DIFlagPublic | DIFlagPrototyped | DIFlagStaticMember, spFlags: DISPFlagOptimized)
!242 = !DISubroutineType(types: !243)
!243 = !{!152, !25}
!244 = !DISubprogram(name: "make", linkageName: "_ZN6Packet4makeEPhjPFvS0_mPvES1_ii", scope: !18, file: !17, line: 66, type: !245, scopeLine: 66, flags: DIFlagPublic | DIFlagPrototyped | DIFlagStaticMember, spFlags: DISPFlagOptimized)
!245 = !DISubroutineType(types: !246)
!246 = !{!152, !92, !25, !141, !147, !46, !46}
!247 = !DISubprogram(name: "static_cleanup", linkageName: "_ZN6Packet14static_cleanupEv", scope: !18, file: !17, line: 71, type: !248, scopeLine: 71, flags: DIFlagPublic | DIFlagPrototyped | DIFlagStaticMember, spFlags: DISPFlagOptimized)
!248 = !DISubroutineType(types: !249)
!249 = !{null}
!250 = !DISubprogram(name: "kill", linkageName: "_ZN6Packet4killEv", scope: !18, file: !17, line: 73, type: !251, scopeLine: 73, flags: DIFlagPublic | DIFlagPrototyped, spFlags: DISPFlagOptimized)
!251 = !DISubroutineType(types: !252)
!252 = !{null, !253}
!253 = !DIDerivedType(tag: DW_TAG_pointer_type, baseType: !18, size: 64, flags: DIFlagArtificial | DIFlagObjectPointer)
!254 = !DISubprogram(name: "shared", linkageName: "_ZNK6Packet6sharedEv", scope: !18, file: !17, line: 75, type: !255, scopeLine: 75, flags: DIFlagPublic | DIFlagPrototyped, spFlags: DISPFlagOptimized)
!255 = !DISubroutineType(types: !256)
!256 = !{!65, !257}
!257 = !DIDerivedType(tag: DW_TAG_pointer_type, baseType: !225, size: 64, flags: DIFlagArtificial | DIFlagObjectPointer)
!258 = !DISubprogram(name: "clone", linkageName: "_ZN6Packet5cloneEv", scope: !18, file: !17, line: 76, type: !259, scopeLine: 76, flags: DIFlagPublic | DIFlagPrototyped, spFlags: DISPFlagOptimized)
!259 = !DISubroutineType(types: !260)
!260 = !{!90, !253}
!261 = !DISubprogram(name: "uniqueify", linkageName: "_ZN6Packet9uniqueifyEv", scope: !18, file: !17, line: 77, type: !262, scopeLine: 77, flags: DIFlagPublic | DIFlagPrototyped, spFlags: DISPFlagOptimized)
!262 = !DISubroutineType(types: !263)
!263 = !{!152, !253}
!264 = !DISubprogram(name: "data", linkageName: "_ZNK6Packet4dataEv", scope: !18, file: !17, line: 79, type: !265, scopeLine: 79, flags: DIFlagPublic | DIFlagPrototyped, spFlags: DISPFlagOptimized)
!265 = !DISubroutineType(types: !266)
!266 = !{!267, !257}
!267 = !DIDerivedType(tag: DW_TAG_pointer_type, baseType: !268, size: 64)
!268 = !DIDerivedType(tag: DW_TAG_const_type, baseType: !93)
!269 = !DISubprogram(name: "end_data", linkageName: "_ZNK6Packet8end_dataEv", scope: !18, file: !17, line: 80, type: !265, scopeLine: 80, flags: DIFlagPublic | DIFlagPrototyped, spFlags: DISPFlagOptimized)
!270 = !DISubprogram(name: "length", linkageName: "_ZNK6Packet6lengthEv", scope: !18, file: !17, line: 81, type: !271, scopeLine: 81, flags: DIFlagPublic | DIFlagPrototyped, spFlags: DISPFlagOptimized)
!271 = !DISubroutineType(types: !272)
!272 = !{!25, !257}
!273 = !DISubprogram(name: "headroom", linkageName: "_ZNK6Packet8headroomEv", scope: !18, file: !17, line: 82, type: !271, scopeLine: 82, flags: DIFlagPublic | DIFlagPrototyped, spFlags: DISPFlagOptimized)
!274 = !DISubprogram(name: "tailroom", linkageName: "_ZNK6Packet8tailroomEv", scope: !18, file: !17, line: 83, type: !271, scopeLine: 83, flags: DIFlagPublic | DIFlagPrototyped, spFlags: DISPFlagOptimized)
!275 = !DISubprogram(name: "buffer", linkageName: "_ZNK6Packet6bufferEv", scope: !18, file: !17, line: 84, type: !265, scopeLine: 84, flags: DIFlagPublic | DIFlagPrototyped, spFlags: DISPFlagOptimized)
!276 = !DISubprogram(name: "end_buffer", linkageName: "_ZNK6Packet10end_bufferEv", scope: !18, file: !17, line: 85, type: !265, scopeLine: 85, flags: DIFlagPublic | DIFlagPrototyped, spFlags: DISPFlagOptimized)
!277 = !DISubprogram(name: "buffer_length", linkageName: "_ZNK6Packet13buffer_lengthEv", scope: !18, file: !17, line: 86, type: !271, scopeLine: 86, flags: DIFlagPublic | DIFlagPrototyped, spFlags: DISPFlagOptimized)
!278 = !DISubprogram(name: "buffer_destructor", linkageName: "_ZNK6Packet17buffer_destructorEv", scope: !18, file: !17, line: 97, type: !279, scopeLine: 97, flags: DIFlagPublic | DIFlagPrototyped, spFlags: DISPFlagOptimized)
!279 = !DISubroutineType(types: !280)
!280 = !{!141, !257}
!281 = !DISubprogram(name: "set_buffer_destructor", linkageName: "_ZN6Packet21set_buffer_destructorEPFvPhmPvE", scope: !18, file: !17, line: 101, type: !282, scopeLine: 101, flags: DIFlagPublic | DIFlagPrototyped, spFlags: DISPFlagOptimized)
!282 = !DISubroutineType(types: !283)
!283 = !{null, !253, !141}
!284 = !DISubprogram(name: "destructor_argument", linkageName: "_ZN6Packet19destructor_argumentEv", scope: !18, file: !17, line: 105, type: !285, scopeLine: 105, flags: DIFlagPublic | DIFlagPrototyped, spFlags: DISPFlagOptimized)
!285 = !DISubroutineType(types: !286)
!286 = !{!147, !253}
!287 = !DISubprogram(name: "reset_buffer", linkageName: "_ZN6Packet12reset_bufferEv", scope: !18, file: !17, line: 109, type: !251, scopeLine: 109, flags: DIFlagPublic | DIFlagPrototyped, spFlags: DISPFlagOptimized)
!288 = !DISubprogram(name: "push", linkageName: "_ZN6Packet4pushEj", scope: !18, file: !17, line: 141, type: !289, scopeLine: 141, flags: DIFlagPublic | DIFlagPrototyped, spFlags: DISPFlagOptimized)
!289 = !DISubroutineType(types: !290)
!290 = !{!152, !253, !25}
!291 = !DISubprogram(name: "push_mac_header", linkageName: "_ZN6Packet15push_mac_headerEj", scope: !18, file: !17, line: 152, type: !289, scopeLine: 152, flags: DIFlagPublic | DIFlagPrototyped, spFlags: DISPFlagOptimized)
!292 = !DISubprogram(name: "nonunique_push", linkageName: "_ZN6Packet14nonunique_pushEj", scope: !18, file: !17, line: 171, type: !293, scopeLine: 171, flags: DIFlagPublic | DIFlagPrototyped, spFlags: DISPFlagOptimized)
!293 = !DISubroutineType(types: !294)
!294 = !{!90, !253, !25}
!295 = !DISubprogram(name: "pull", linkageName: "_ZN6Packet4pullEj", scope: !18, file: !17, line: 187, type: !296, scopeLine: 187, flags: DIFlagPublic | DIFlagPrototyped, spFlags: DISPFlagOptimized)
!296 = !DISubroutineType(types: !297)
!297 = !{null, !253, !25}
!298 = !DISubprogram(name: "put", linkageName: "_ZN6Packet3putEj", scope: !18, file: !17, line: 213, type: !289, scopeLine: 213, flags: DIFlagPublic | DIFlagPrototyped, spFlags: DISPFlagOptimized)
!299 = !DISubprogram(name: "nonunique_put", linkageName: "_ZN6Packet13nonunique_putEj", scope: !18, file: !17, line: 230, type: !293, scopeLine: 230, flags: DIFlagPublic | DIFlagPrototyped, spFlags: DISPFlagOptimized)
!300 = !DISubprogram(name: "take", linkageName: "_ZN6Packet4takeEj", scope: !18, file: !17, line: 245, type: !296, scopeLine: 245, flags: DIFlagPublic | DIFlagPrototyped, spFlags: DISPFlagOptimized)
!301 = !DISubprogram(name: "shift_data", linkageName: "_ZN6Packet10shift_dataEib", scope: !18, file: !17, line: 269, type: !302, scopeLine: 269, flags: DIFlagPublic | DIFlagPrototyped, spFlags: DISPFlagOptimized)
!302 = !DISubroutineType(types: !303)
!303 = !{!90, !253, !46, !65}
!304 = !DISubprogram(name: "shrink_data", linkageName: "_ZN6Packet11shrink_dataEPKhj", scope: !18, file: !17, line: 271, type: !305, scopeLine: 271, flags: DIFlagPublic | DIFlagPrototyped, spFlags: DISPFlagOptimized)
!305 = !DISubroutineType(types: !306)
!306 = !{null, !253, !267, !25}
!307 = !DISubprogram(name: "change_headroom_and_length", linkageName: "_ZN6Packet26change_headroom_and_lengthEjj", scope: !18, file: !17, line: 272, type: !308, scopeLine: 272, flags: DIFlagPublic | DIFlagPrototyped, spFlags: DISPFlagOptimized)
!308 = !DISubroutineType(types: !309)
!309 = !{null, !253, !25, !25}
!310 = !DISubprogram(name: "copy", linkageName: "_ZN6Packet4copyEPS_i", scope: !18, file: !17, line: 274, type: !311, scopeLine: 274, flags: DIFlagPublic | DIFlagPrototyped, spFlags: DISPFlagOptimized)
!311 = !DISubroutineType(types: !312)
!312 = !{!65, !253, !90, !46}
!313 = !DISubprogram(name: "has_mac_header", linkageName: "_ZNK6Packet14has_mac_headerEv", scope: !18, file: !17, line: 279, type: !255, scopeLine: 279, flags: DIFlagPublic | DIFlagPrototyped, spFlags: DISPFlagOptimized)
!314 = !DISubprogram(name: "mac_header", linkageName: "_ZNK6Packet10mac_headerEv", scope: !18, file: !17, line: 280, type: !265, scopeLine: 280, flags: DIFlagPublic | DIFlagPrototyped, spFlags: DISPFlagOptimized)
!315 = !DISubprogram(name: "mac_header_offset", linkageName: "_ZNK6Packet17mac_header_offsetEv", scope: !18, file: !17, line: 281, type: !316, scopeLine: 281, flags: DIFlagPublic | DIFlagPrototyped, spFlags: DISPFlagOptimized)
!316 = !DISubroutineType(types: !317)
!317 = !{!46, !257}
!318 = !DISubprogram(name: "mac_header_length", linkageName: "_ZNK6Packet17mac_header_lengthEv", scope: !18, file: !17, line: 282, type: !271, scopeLine: 282, flags: DIFlagPublic | DIFlagPrototyped, spFlags: DISPFlagOptimized)
!319 = !DISubprogram(name: "mac_length", linkageName: "_ZNK6Packet10mac_lengthEv", scope: !18, file: !17, line: 283, type: !316, scopeLine: 283, flags: DIFlagPublic | DIFlagPrototyped, spFlags: DISPFlagOptimized)
!320 = !DISubprogram(name: "set_mac_header", linkageName: "_ZN6Packet14set_mac_headerEPKh", scope: !18, file: !17, line: 284, type: !321, scopeLine: 284, flags: DIFlagPublic | DIFlagPrototyped, spFlags: DISPFlagOptimized)
!321 = !DISubroutineType(types: !322)
!322 = !{null, !253, !267}
!323 = !DISubprogram(name: "set_mac_header", linkageName: "_ZN6Packet14set_mac_headerEPKhj", scope: !18, file: !17, line: 285, type: !305, scopeLine: 285, flags: DIFlagPublic | DIFlagPrototyped, spFlags: DISPFlagOptimized)
!324 = !DISubprogram(name: "clear_mac_header", linkageName: "_ZN6Packet16clear_mac_headerEv", scope: !18, file: !17, line: 286, type: !251, scopeLine: 286, flags: DIFlagPublic | DIFlagPrototyped, spFlags: DISPFlagOptimized)
!325 = !DISubprogram(name: "has_network_header", linkageName: "_ZNK6Packet18has_network_headerEv", scope: !18, file: !17, line: 288, type: !255, scopeLine: 288, flags: DIFlagPublic | DIFlagPrototyped, spFlags: DISPFlagOptimized)
!326 = !DISubprogram(name: "network_header", linkageName: "_ZNK6Packet14network_headerEv", scope: !18, file: !17, line: 289, type: !265, scopeLine: 289, flags: DIFlagPublic | DIFlagPrototyped, spFlags: DISPFlagOptimized)
!327 = !DISubprogram(name: "network_header_offset", linkageName: "_ZNK6Packet21network_header_offsetEv", scope: !18, file: !17, line: 290, type: !316, scopeLine: 290, flags: DIFlagPublic | DIFlagPrototyped, spFlags: DISPFlagOptimized)
!328 = !DISubprogram(name: "network_header_length", linkageName: "_ZNK6Packet21network_header_lengthEv", scope: !18, file: !17, line: 291, type: !271, scopeLine: 291, flags: DIFlagPublic | DIFlagPrototyped, spFlags: DISPFlagOptimized)
!329 = !DISubprogram(name: "network_length", linkageName: "_ZNK6Packet14network_lengthEv", scope: !18, file: !17, line: 292, type: !316, scopeLine: 292, flags: DIFlagPublic | DIFlagPrototyped, spFlags: DISPFlagOptimized)
!330 = !DISubprogram(name: "set_network_header", linkageName: "_ZN6Packet18set_network_headerEPKhj", scope: !18, file: !17, line: 293, type: !305, scopeLine: 293, flags: DIFlagPublic | DIFlagPrototyped, spFlags: DISPFlagOptimized)
!331 = !DISubprogram(name: "set_network_header_length", linkageName: "_ZN6Packet25set_network_header_lengthEj", scope: !18, file: !17, line: 294, type: !296, scopeLine: 294, flags: DIFlagPublic | DIFlagPrototyped, spFlags: DISPFlagOptimized)
!332 = !DISubprogram(name: "clear_network_header", linkageName: "_ZN6Packet20clear_network_headerEv", scope: !18, file: !17, line: 295, type: !251, scopeLine: 295, flags: DIFlagPublic | DIFlagPrototyped, spFlags: DISPFlagOptimized)
!333 = !DISubprogram(name: "has_transport_header", linkageName: "_ZNK6Packet20has_transport_headerEv", scope: !18, file: !17, line: 297, type: !255, scopeLine: 297, flags: DIFlagPublic | DIFlagPrototyped, spFlags: DISPFlagOptimized)
!334 = !DISubprogram(name: "transport_header", linkageName: "_ZNK6Packet16transport_headerEv", scope: !18, file: !17, line: 298, type: !265, scopeLine: 298, flags: DIFlagPublic | DIFlagPrototyped, spFlags: DISPFlagOptimized)
!335 = !DISubprogram(name: "transport_header_offset", linkageName: "_ZNK6Packet23transport_header_offsetEv", scope: !18, file: !17, line: 299, type: !316, scopeLine: 299, flags: DIFlagPublic | DIFlagPrototyped, spFlags: DISPFlagOptimized)
!336 = !DISubprogram(name: "transport_length", linkageName: "_ZNK6Packet16transport_lengthEv", scope: !18, file: !17, line: 300, type: !316, scopeLine: 300, flags: DIFlagPublic | DIFlagPrototyped, spFlags: DISPFlagOptimized)
!337 = !DISubprogram(name: "clear_transport_header", linkageName: "_ZN6Packet22clear_transport_headerEv", scope: !18, file: !17, line: 301, type: !251, scopeLine: 301, flags: DIFlagPublic | DIFlagPrototyped, spFlags: DISPFlagOptimized)
!338 = !DISubprogram(name: "ether_header", linkageName: "_ZNK6Packet12ether_headerEv", scope: !18, file: !17, line: 304, type: !339, scopeLine: 304, flags: DIFlagPublic | DIFlagPrototyped, spFlags: DISPFlagOptimized)
!339 = !DISubroutineType(types: !340)
!340 = !{!341, !257}
!341 = !DIDerivedType(tag: DW_TAG_pointer_type, baseType: !342, size: 64)
!342 = !DIDerivedType(tag: DW_TAG_const_type, baseType: !169)
!343 = !DISubprogram(name: "set_ether_header", linkageName: "_ZN6Packet16set_ether_headerEPK11click_ether", scope: !18, file: !17, line: 305, type: !344, scopeLine: 305, flags: DIFlagPublic | DIFlagPrototyped, spFlags: DISPFlagOptimized)
!344 = !DISubroutineType(types: !345)
!345 = !{null, !253, !341}
!346 = !DISubprogram(name: "ip_header", linkageName: "_ZNK6Packet9ip_headerEv", scope: !18, file: !17, line: 307, type: !347, scopeLine: 307, flags: DIFlagPublic | DIFlagPrototyped, spFlags: DISPFlagOptimized)
!347 = !DISubroutineType(types: !348)
!348 = !{!349, !257}
!349 = !DIDerivedType(tag: DW_TAG_pointer_type, baseType: !350, size: 64)
!350 = !DIDerivedType(tag: DW_TAG_const_type, baseType: !175)
!351 = !DISubprogram(name: "ip_header_offset", linkageName: "_ZNK6Packet16ip_header_offsetEv", scope: !18, file: !17, line: 308, type: !316, scopeLine: 308, flags: DIFlagPublic | DIFlagPrototyped, spFlags: DISPFlagOptimized)
!352 = !DISubprogram(name: "ip_header_length", linkageName: "_ZNK6Packet16ip_header_lengthEv", scope: !18, file: !17, line: 309, type: !271, scopeLine: 309, flags: DIFlagPublic | DIFlagPrototyped, spFlags: DISPFlagOptimized)
!353 = !DISubprogram(name: "set_ip_header", linkageName: "_ZN6Packet13set_ip_headerEPK8click_ipj", scope: !18, file: !17, line: 310, type: !354, scopeLine: 310, flags: DIFlagPublic | DIFlagPrototyped, spFlags: DISPFlagOptimized)
!354 = !DISubroutineType(types: !355)
!355 = !{null, !253, !349, !25}
!356 = !DISubprogram(name: "ip6_header", linkageName: "_ZNK6Packet10ip6_headerEv", scope: !18, file: !17, line: 312, type: !357, scopeLine: 312, flags: DIFlagPublic | DIFlagPrototyped, spFlags: DISPFlagOptimized)
!357 = !DISubroutineType(types: !358)
!358 = !{!359, !257}
!359 = !DIDerivedType(tag: DW_TAG_pointer_type, baseType: !360, size: 64)
!360 = !DIDerivedType(tag: DW_TAG_const_type, baseType: !198)
!361 = !DISubprogram(name: "ip6_header_offset", linkageName: "_ZNK6Packet17ip6_header_offsetEv", scope: !18, file: !17, line: 313, type: !316, scopeLine: 313, flags: DIFlagPublic | DIFlagPrototyped, spFlags: DISPFlagOptimized)
!362 = !DISubprogram(name: "ip6_header_length", linkageName: "_ZNK6Packet17ip6_header_lengthEv", scope: !18, file: !17, line: 314, type: !271, scopeLine: 314, flags: DIFlagPublic | DIFlagPrototyped, spFlags: DISPFlagOptimized)
!363 = !DISubprogram(name: "set_ip6_header", linkageName: "_ZN6Packet14set_ip6_headerEPK9click_ip6", scope: !18, file: !17, line: 315, type: !364, scopeLine: 315, flags: DIFlagPublic | DIFlagPrototyped, spFlags: DISPFlagOptimized)
!364 = !DISubroutineType(types: !365)
!365 = !{null, !253, !359}
!366 = !DISubprogram(name: "set_ip6_header", linkageName: "_ZN6Packet14set_ip6_headerEPK9click_ip6j", scope: !18, file: !17, line: 316, type: !367, scopeLine: 316, flags: DIFlagPublic | DIFlagPrototyped, spFlags: DISPFlagOptimized)
!367 = !DISubroutineType(types: !368)
!368 = !{null, !253, !359, !25}
!369 = !DISubprogram(name: "icmp_header", linkageName: "_ZNK6Packet11icmp_headerEv", scope: !18, file: !17, line: 318, type: !370, scopeLine: 318, flags: DIFlagPublic | DIFlagPrototyped, spFlags: DISPFlagOptimized)
!370 = !DISubroutineType(types: !371)
!371 = !{!372, !257}
!372 = !DIDerivedType(tag: DW_TAG_pointer_type, baseType: !373, size: 64)
!373 = !DIDerivedType(tag: DW_TAG_const_type, baseType: !204)
!374 = !DISubprogram(name: "tcp_header", linkageName: "_ZNK6Packet10tcp_headerEv", scope: !18, file: !17, line: 319, type: !375, scopeLine: 319, flags: DIFlagPublic | DIFlagPrototyped, spFlags: DISPFlagOptimized)
!375 = !DISubroutineType(types: !376)
!376 = !{!377, !257}
!377 = !DIDerivedType(tag: DW_TAG_pointer_type, baseType: !378, size: 64)
!378 = !DIDerivedType(tag: DW_TAG_const_type, baseType: !209)
!379 = !DISubprogram(name: "udp_header", linkageName: "_ZNK6Packet10udp_headerEv", scope: !18, file: !17, line: 320, type: !380, scopeLine: 320, flags: DIFlagPublic | DIFlagPrototyped, spFlags: DISPFlagOptimized)
!380 = !DISubroutineType(types: !381)
!381 = !{!382, !257}
!382 = !DIDerivedType(tag: DW_TAG_pointer_type, baseType: !383, size: 64)
!383 = !DIDerivedType(tag: DW_TAG_const_type, baseType: !214)
!384 = !DISubprogram(name: "xanno", linkageName: "_ZNK6Packet5xannoEv", scope: !18, file: !17, line: 340, type: !385, scopeLine: 340, flags: DIFlagPrototyped, spFlags: DISPFlagOptimized)
!385 = !DISubroutineType(types: !386)
!386 = !{!387, !257}
!387 = !DIDerivedType(tag: DW_TAG_pointer_type, baseType: !388, size: 64)
!388 = !DIDerivedType(tag: DW_TAG_const_type, baseType: !101)
!389 = !DISubprogram(name: "xanno", linkageName: "_ZN6Packet5xannoEv", scope: !18, file: !17, line: 341, type: !390, scopeLine: 341, flags: DIFlagPrototyped, spFlags: DISPFlagOptimized)
!390 = !DISubroutineType(types: !391)
!391 = !{!392, !253}
!392 = !DIDerivedType(tag: DW_TAG_pointer_type, baseType: !101, size: 64)
!393 = !DISubprogram(name: "timestamp_anno", linkageName: "_ZNK6Packet14timestamp_annoEv", scope: !18, file: !17, line: 354, type: !394, scopeLine: 354, flags: DIFlagPublic | DIFlagPrototyped, spFlags: DISPFlagOptimized)
!394 = !DISubroutineType(types: !395)
!395 = !{!396, !257}
!396 = !DIDerivedType(tag: DW_TAG_reference_type, baseType: !397, size: 64)
!397 = !DIDerivedType(tag: DW_TAG_const_type, baseType: !398)
!398 = distinct !DICompositeType(tag: DW_TAG_class_type, name: "Timestamp", file: !399, line: 122, size: 64, flags: DIFlagTypePassByValue | DIFlagNonTrivial, elements: !400, identifier: "_ZTS9Timestamp")
!399 = !DIFile(filename: "../dummy_inc/click/timestamp.hh", directory: "/home/john/projects/click/ir-dir")
!400 = !{!401, !408, !412, !415, !418, !421, !424, !428, !440, !451, !456, !465, !474, !477, !478, !481, !482, !483, !484, !487, !490, !491, !492, !493, !496, !497, !500, !503, !507, !508, !509, !512, !513, !514, !519, !523, !526, !529, !532, !535, !536, !537, !538, !539, !542, !543, !546, !547, !548, !549, !550, !551, !552, !555, !556, !557, !558, !559, !560, !561, !562, !563, !853, !854, !857, !858, !859, !860, !861, !862, !863, !866, !875, !878, !879, !882, !885, !886, !887, !888, !889, !890, !891, !894, !898, !901, !904, !907}
!401 = !DIDerivedType(tag: DW_TAG_member, name: "_t", scope: !398, file: !399, line: 672, baseType: !402, size: 64)
!402 = distinct !DICompositeType(tag: DW_TAG_union_type, name: "rep_t", scope: !398, file: !399, line: 539, size: 64, flags: DIFlagTypePassByValue, elements: !403, identifier: "_ZTSN9Timestamp5rep_tE")
!403 = !{!404}
!404 = !DIDerivedType(tag: DW_TAG_member, name: "x", scope: !402, file: !399, line: 541, baseType: !405, size: 64)
!405 = !DIDerivedType(tag: DW_TAG_typedef, name: "int64_t", file: !44, line: 27, baseType: !406)
!406 = !DIDerivedType(tag: DW_TAG_typedef, name: "__int64_t", file: !28, line: 44, baseType: !407)
!407 = !DIBasicType(name: "long int", size: 64, encoding: DW_ATE_signed)
!408 = !DISubprogram(name: "Timestamp", scope: !398, file: !399, line: 174, type: !409, scopeLine: 174, flags: DIFlagPublic | DIFlagPrototyped, spFlags: DISPFlagOptimized)
!409 = !DISubroutineType(types: !410)
!410 = !{null, !411}
!411 = !DIDerivedType(tag: DW_TAG_pointer_type, baseType: !398, size: 64, flags: DIFlagArtificial | DIFlagObjectPointer)
!412 = !DISubprogram(name: "Timestamp", scope: !398, file: !399, line: 187, type: !413, scopeLine: 187, flags: DIFlagPublic | DIFlagExplicit | DIFlagPrototyped, spFlags: DISPFlagOptimized)
!413 = !DISubroutineType(types: !414)
!414 = !{null, !411, !407, !25}
!415 = !DISubprogram(name: "Timestamp", scope: !398, file: !399, line: 191, type: !416, scopeLine: 191, flags: DIFlagPublic | DIFlagExplicit | DIFlagPrototyped, spFlags: DISPFlagOptimized)
!416 = !DISubroutineType(types: !417)
!417 = !{null, !411, !46, !25}
!418 = !DISubprogram(name: "Timestamp", scope: !398, file: !399, line: 195, type: !419, scopeLine: 195, flags: DIFlagPublic | DIFlagExplicit | DIFlagPrototyped, spFlags: DISPFlagOptimized)
!419 = !DISubroutineType(types: !420)
!420 = !{null, !411, !127, !25}
!421 = !DISubprogram(name: "Timestamp", scope: !398, file: !399, line: 199, type: !422, scopeLine: 199, flags: DIFlagPublic | DIFlagExplicit | DIFlagPrototyped, spFlags: DISPFlagOptimized)
!422 = !DISubroutineType(types: !423)
!423 = !{null, !411, !6, !25}
!424 = !DISubprogram(name: "Timestamp", scope: !398, file: !399, line: 203, type: !425, scopeLine: 203, flags: DIFlagPublic | DIFlagExplicit | DIFlagPrototyped, spFlags: DISPFlagOptimized)
!425 = !DISubroutineType(types: !426)
!426 = !{null, !411, !427}
!427 = !DIBasicType(name: "double", size: 64, encoding: DW_ATE_float)
!428 = !DISubprogram(name: "Timestamp", scope: !398, file: !399, line: 206, type: !429, scopeLine: 206, flags: DIFlagPublic | DIFlagPrototyped, spFlags: DISPFlagOptimized)
!429 = !DISubroutineType(types: !430)
!430 = !{null, !411, !431}
!431 = !DIDerivedType(tag: DW_TAG_reference_type, baseType: !432, size: 64)
!432 = !DIDerivedType(tag: DW_TAG_const_type, baseType: !433)
!433 = distinct !DICompositeType(tag: DW_TAG_structure_type, name: "timeval", file: !434, line: 8, size: 128, flags: DIFlagTypePassByValue, elements: !435, identifier: "_ZTS7timeval")
!434 = !DIFile(filename: "/usr/include/bits/types/struct_timeval.h", directory: "")
!435 = !{!436, !438}
!436 = !DIDerivedType(tag: DW_TAG_member, name: "tv_sec", scope: !433, file: !434, line: 10, baseType: !437, size: 64)
!437 = !DIDerivedType(tag: DW_TAG_typedef, name: "__time_t", file: !28, line: 160, baseType: !407)
!438 = !DIDerivedType(tag: DW_TAG_member, name: "tv_usec", scope: !433, file: !434, line: 11, baseType: !439, size: 64, offset: 64)
!439 = !DIDerivedType(tag: DW_TAG_typedef, name: "__suseconds_t", file: !28, line: 162, baseType: !407)
!440 = !DISubprogram(name: "Timestamp", scope: !398, file: !399, line: 208, type: !441, scopeLine: 208, flags: DIFlagPublic | DIFlagPrototyped, spFlags: DISPFlagOptimized)
!441 = !DISubroutineType(types: !442)
!442 = !{null, !411, !443}
!443 = !DIDerivedType(tag: DW_TAG_reference_type, baseType: !444, size: 64)
!444 = !DIDerivedType(tag: DW_TAG_const_type, baseType: !445)
!445 = distinct !DICompositeType(tag: DW_TAG_structure_type, name: "timespec", file: !446, line: 10, size: 128, flags: DIFlagTypePassByValue, elements: !447, identifier: "_ZTS8timespec")
!446 = !DIFile(filename: "/usr/include/bits/types/struct_timespec.h", directory: "")
!447 = !{!448, !449}
!448 = !DIDerivedType(tag: DW_TAG_member, name: "tv_sec", scope: !445, file: !446, line: 12, baseType: !437, size: 64)
!449 = !DIDerivedType(tag: DW_TAG_member, name: "tv_nsec", scope: !445, file: !446, line: 16, baseType: !450, size: 64, offset: 64)
!450 = !DIDerivedType(tag: DW_TAG_typedef, name: "__syscall_slong_t", file: !28, line: 196, baseType: !407)
!451 = !DISubprogram(name: "Timestamp", scope: !398, file: !399, line: 212, type: !452, scopeLine: 212, flags: DIFlagPublic | DIFlagPrototyped, spFlags: DISPFlagOptimized)
!452 = !DISubroutineType(types: !453)
!453 = !{null, !411, !454}
!454 = !DIDerivedType(tag: DW_TAG_reference_type, baseType: !455, size: 64)
!455 = !DIDerivedType(tag: DW_TAG_const_type, baseType: !402)
!456 = !DISubprogram(name: "Timestamp", scope: !398, file: !399, line: 217, type: !457, scopeLine: 217, flags: DIFlagPublic | DIFlagPrototyped, spFlags: DISPFlagOptimized)
!457 = !DISubroutineType(types: !458)
!458 = !{null, !411, !459}
!459 = !DIDerivedType(tag: DW_TAG_reference_type, baseType: !460, size: 64)
!460 = !DIDerivedType(tag: DW_TAG_const_type, baseType: !461)
!461 = !DIDerivedType(tag: DW_TAG_typedef, name: "uninitialized_t", scope: !398, file: !399, line: 168, baseType: !462)
!462 = distinct !DICompositeType(tag: DW_TAG_structure_type, name: "uninitialized_type", file: !463, line: 317, size: 8, flags: DIFlagTypePassByValue, elements: !464, identifier: "_ZTS18uninitialized_type")
!463 = !DIFile(filename: "../dummy_inc/click/config.h", directory: "/home/john/projects/click/ir-dir")
!464 = !{}
!465 = !DISubprogram(name: "operator int (Timestamp::*)() const", linkageName: "_ZNK9TimestampcvMS_KFivEEv", scope: !398, file: !399, line: 222, type: !466, scopeLine: 222, flags: DIFlagPublic | DIFlagPrototyped, spFlags: DISPFlagOptimized)
!466 = !DISubroutineType(types: !467)
!467 = !{!468, !473}
!468 = !DIDerivedType(tag: DW_TAG_typedef, name: "unspecified_bool_type", scope: !398, file: !399, line: 221, baseType: !469)
!469 = !DIDerivedType(tag: DW_TAG_ptr_to_member_type, baseType: !470, size: 128, extraData: !398)
!470 = !DISubroutineType(types: !471)
!471 = !{!472, !473}
!472 = !DIDerivedType(tag: DW_TAG_typedef, name: "seconds_type", scope: !398, file: !399, line: 125, baseType: !43)
!473 = !DIDerivedType(tag: DW_TAG_pointer_type, baseType: !397, size: 64, flags: DIFlagArtificial | DIFlagObjectPointer)
!474 = !DISubprogram(name: "is_negative", linkageName: "_ZNK9Timestamp11is_negativeEv", scope: !398, file: !399, line: 225, type: !475, scopeLine: 225, flags: DIFlagPublic | DIFlagPrototyped, spFlags: DISPFlagOptimized)
!475 = !DISubroutineType(types: !476)
!476 = !{!65, !473}
!477 = !DISubprogram(name: "sec", linkageName: "_ZNK9Timestamp3secEv", scope: !398, file: !399, line: 233, type: !470, scopeLine: 233, flags: DIFlagPublic | DIFlagPrototyped, spFlags: DISPFlagOptimized)
!478 = !DISubprogram(name: "subsec", linkageName: "_ZNK9Timestamp6subsecEv", scope: !398, file: !399, line: 234, type: !479, scopeLine: 234, flags: DIFlagPublic | DIFlagPrototyped, spFlags: DISPFlagOptimized)
!479 = !DISubroutineType(types: !480)
!480 = !{!25, !473}
!481 = !DISubprogram(name: "msec", linkageName: "_ZNK9Timestamp4msecEv", scope: !398, file: !399, line: 235, type: !479, scopeLine: 235, flags: DIFlagPublic | DIFlagPrototyped, spFlags: DISPFlagOptimized)
!482 = !DISubprogram(name: "usec", linkageName: "_ZNK9Timestamp4usecEv", scope: !398, file: !399, line: 236, type: !479, scopeLine: 236, flags: DIFlagPublic | DIFlagPrototyped, spFlags: DISPFlagOptimized)
!483 = !DISubprogram(name: "nsec", linkageName: "_ZNK9Timestamp4nsecEv", scope: !398, file: !399, line: 237, type: !479, scopeLine: 237, flags: DIFlagPublic | DIFlagPrototyped, spFlags: DISPFlagOptimized)
!484 = !DISubprogram(name: "set_sec", linkageName: "_ZN9Timestamp7set_secEi", scope: !398, file: !399, line: 239, type: !485, scopeLine: 239, flags: DIFlagPublic | DIFlagPrototyped, spFlags: DISPFlagOptimized)
!485 = !DISubroutineType(types: !486)
!486 = !{null, !411, !472}
!487 = !DISubprogram(name: "set_subsec", linkageName: "_ZN9Timestamp10set_subsecEj", scope: !398, file: !399, line: 240, type: !488, scopeLine: 240, flags: DIFlagPublic | DIFlagPrototyped, spFlags: DISPFlagOptimized)
!488 = !DISubroutineType(types: !489)
!489 = !{null, !411, !25}
!490 = !DISubprogram(name: "msec1", linkageName: "_ZNK9Timestamp5msec1Ev", scope: !398, file: !399, line: 242, type: !470, scopeLine: 242, flags: DIFlagPublic | DIFlagPrototyped, spFlags: DISPFlagOptimized)
!491 = !DISubprogram(name: "usec1", linkageName: "_ZNK9Timestamp5usec1Ev", scope: !398, file: !399, line: 243, type: !470, scopeLine: 243, flags: DIFlagPublic | DIFlagPrototyped, spFlags: DISPFlagOptimized)
!492 = !DISubprogram(name: "nsec1", linkageName: "_ZNK9Timestamp5nsec1Ev", scope: !398, file: !399, line: 244, type: !470, scopeLine: 244, flags: DIFlagPublic | DIFlagPrototyped, spFlags: DISPFlagOptimized)
!493 = !DISubprogram(name: "timeval", linkageName: "_ZNK9Timestamp7timevalEv", scope: !398, file: !399, line: 250, type: !494, scopeLine: 250, flags: DIFlagPublic | DIFlagPrototyped, spFlags: DISPFlagOptimized)
!494 = !DISubroutineType(types: !495)
!495 = !{!433, !473}
!496 = !DISubprogram(name: "timeval_ceil", linkageName: "_ZNK9Timestamp12timeval_ceilEv", scope: !398, file: !399, line: 251, type: !494, scopeLine: 251, flags: DIFlagPublic | DIFlagPrototyped, spFlags: DISPFlagOptimized)
!497 = !DISubprogram(name: "timespec", linkageName: "_ZNK9Timestamp8timespecEv", scope: !398, file: !399, line: 257, type: !498, scopeLine: 257, flags: DIFlagPublic | DIFlagPrototyped, spFlags: DISPFlagOptimized)
!498 = !DISubroutineType(types: !499)
!499 = !{!445, !473}
!500 = !DISubprogram(name: "doubleval", linkageName: "_ZNK9Timestamp9doublevalEv", scope: !398, file: !399, line: 262, type: !501, scopeLine: 262, flags: DIFlagPublic | DIFlagPrototyped, spFlags: DISPFlagOptimized)
!501 = !DISubroutineType(types: !502)
!502 = !{!427, !473}
!503 = !DISubprogram(name: "msecval", linkageName: "_ZNK9Timestamp7msecvalEv", scope: !398, file: !399, line: 265, type: !504, scopeLine: 265, flags: DIFlagPublic | DIFlagPrototyped, spFlags: DISPFlagOptimized)
!504 = !DISubroutineType(types: !505)
!505 = !{!506, !473}
!506 = !DIDerivedType(tag: DW_TAG_typedef, name: "value_type", scope: !398, file: !399, line: 128, baseType: !405)
!507 = !DISubprogram(name: "usecval", linkageName: "_ZNK9Timestamp7usecvalEv", scope: !398, file: !399, line: 273, type: !504, scopeLine: 273, flags: DIFlagPublic | DIFlagPrototyped, spFlags: DISPFlagOptimized)
!508 = !DISubprogram(name: "nsecval", linkageName: "_ZNK9Timestamp7nsecvalEv", scope: !398, file: !399, line: 281, type: !504, scopeLine: 281, flags: DIFlagPublic | DIFlagPrototyped, spFlags: DISPFlagOptimized)
!509 = !DISubprogram(name: "msec_ceil", linkageName: "_ZNK9Timestamp9msec_ceilEv", scope: !398, file: !399, line: 290, type: !510, scopeLine: 290, flags: DIFlagPublic | DIFlagPrototyped, spFlags: DISPFlagOptimized)
!510 = !DISubroutineType(types: !511)
!511 = !{!398, !473}
!512 = !DISubprogram(name: "usec_ceil", linkageName: "_ZNK9Timestamp9usec_ceilEv", scope: !398, file: !399, line: 295, type: !510, scopeLine: 295, flags: DIFlagPublic | DIFlagPrototyped, spFlags: DISPFlagOptimized)
!513 = !DISubprogram(name: "nsec_ceil", linkageName: "_ZNK9Timestamp9nsec_ceilEv", scope: !398, file: !399, line: 304, type: !510, scopeLine: 304, flags: DIFlagPublic | DIFlagPrototyped, spFlags: DISPFlagOptimized)
!514 = !DISubprogram(name: "make_jiffies", linkageName: "_ZN9Timestamp12make_jiffiesEj", scope: !398, file: !399, line: 310, type: !515, scopeLine: 310, flags: DIFlagPublic | DIFlagPrototyped | DIFlagStaticMember, spFlags: DISPFlagOptimized)
!515 = !DISubroutineType(types: !516)
!516 = !{!398, !517}
!517 = !DIDerivedType(tag: DW_TAG_typedef, name: "click_jiffies_t", file: !518, line: 477, baseType: !6)
!518 = !DIFile(filename: "../dummy_inc/click/glue.hh", directory: "/home/john/projects/click/ir-dir")
!519 = !DISubprogram(name: "make_jiffies", linkageName: "_ZN9Timestamp12make_jiffiesEi", scope: !398, file: !399, line: 312, type: !520, scopeLine: 312, flags: DIFlagPublic | DIFlagPrototyped | DIFlagStaticMember, spFlags: DISPFlagOptimized)
!520 = !DISubroutineType(types: !521)
!521 = !{!398, !522}
!522 = !DIDerivedType(tag: DW_TAG_typedef, name: "click_jiffies_difference_t", file: !518, line: 478, baseType: !46)
!523 = !DISubprogram(name: "jiffies", linkageName: "_ZNK9Timestamp7jiffiesEv", scope: !398, file: !399, line: 314, type: !524, scopeLine: 314, flags: DIFlagPublic | DIFlagPrototyped, spFlags: DISPFlagOptimized)
!524 = !DISubroutineType(types: !525)
!525 = !{!517, !473}
!526 = !DISubprogram(name: "make_sec", linkageName: "_ZN9Timestamp8make_secEi", scope: !398, file: !399, line: 318, type: !527, scopeLine: 318, flags: DIFlagPublic | DIFlagPrototyped | DIFlagStaticMember, spFlags: DISPFlagOptimized)
!527 = !DISubroutineType(types: !528)
!528 = !{!398, !472}
!529 = !DISubprogram(name: "make_msec", linkageName: "_ZN9Timestamp9make_msecEij", scope: !398, file: !399, line: 324, type: !530, scopeLine: 324, flags: DIFlagPublic | DIFlagPrototyped | DIFlagStaticMember, spFlags: DISPFlagOptimized)
!530 = !DISubroutineType(types: !531)
!531 = !{!398, !472, !25}
!532 = !DISubprogram(name: "make_msec", linkageName: "_ZN9Timestamp9make_msecEl", scope: !398, file: !399, line: 328, type: !533, scopeLine: 328, flags: DIFlagPublic | DIFlagPrototyped | DIFlagStaticMember, spFlags: DISPFlagOptimized)
!533 = !DISubroutineType(types: !534)
!534 = !{!398, !506}
!535 = !DISubprogram(name: "make_usec", linkageName: "_ZN9Timestamp9make_usecEij", scope: !398, file: !399, line: 341, type: !530, scopeLine: 341, flags: DIFlagPublic | DIFlagPrototyped | DIFlagStaticMember, spFlags: DISPFlagOptimized)
!536 = !DISubprogram(name: "make_usec", linkageName: "_ZN9Timestamp9make_usecEl", scope: !398, file: !399, line: 345, type: !533, scopeLine: 345, flags: DIFlagPublic | DIFlagPrototyped | DIFlagStaticMember, spFlags: DISPFlagOptimized)
!537 = !DISubprogram(name: "make_nsec", linkageName: "_ZN9Timestamp9make_nsecEij", scope: !398, file: !399, line: 358, type: !530, scopeLine: 358, flags: DIFlagPublic | DIFlagPrototyped | DIFlagStaticMember, spFlags: DISPFlagOptimized)
!538 = !DISubprogram(name: "make_nsec", linkageName: "_ZN9Timestamp9make_nsecEl", scope: !398, file: !399, line: 362, type: !533, scopeLine: 362, flags: DIFlagPublic | DIFlagPrototyped | DIFlagStaticMember, spFlags: DISPFlagOptimized)
!539 = !DISubprogram(name: "epsilon", linkageName: "_ZN9Timestamp7epsilonEv", scope: !398, file: !399, line: 375, type: !540, scopeLine: 375, flags: DIFlagPublic | DIFlagPrototyped | DIFlagStaticMember, spFlags: DISPFlagOptimized)
!540 = !DISubroutineType(types: !541)
!541 = !{!398}
!542 = !DISubprogram(name: "clear", linkageName: "_ZN9Timestamp5clearEv", scope: !398, file: !399, line: 380, type: !409, scopeLine: 380, flags: DIFlagPublic | DIFlagPrototyped, spFlags: DISPFlagOptimized)
!543 = !DISubprogram(name: "assign", linkageName: "_ZN9Timestamp6assignEij", scope: !398, file: !399, line: 388, type: !544, scopeLine: 388, flags: DIFlagPublic | DIFlagPrototyped, spFlags: DISPFlagOptimized)
!544 = !DISubroutineType(types: !545)
!545 = !{null, !411, !472, !25}
!546 = !DISubprogram(name: "assign_usec", linkageName: "_ZN9Timestamp11assign_usecEij", scope: !398, file: !399, line: 397, type: !544, scopeLine: 397, flags: DIFlagPublic | DIFlagPrototyped, spFlags: DISPFlagOptimized)
!547 = !DISubprogram(name: "assign_nsec", linkageName: "_ZN9Timestamp11assign_nsecEij", scope: !398, file: !399, line: 401, type: !544, scopeLine: 401, flags: DIFlagPublic | DIFlagPrototyped, spFlags: DISPFlagOptimized)
!548 = !DISubprogram(name: "set", linkageName: "_ZN9Timestamp3setEij", scope: !398, file: !399, line: 408, type: !544, scopeLine: 408, flags: DIFlagPublic | DIFlagPrototyped, spFlags: DISPFlagOptimized)
!549 = !DISubprogram(name: "set_usec", linkageName: "_ZN9Timestamp8set_usecEij", scope: !398, file: !399, line: 411, type: !544, scopeLine: 411, flags: DIFlagPublic | DIFlagPrototyped, spFlags: DISPFlagOptimized)
!550 = !DISubprogram(name: "set_nsec", linkageName: "_ZN9Timestamp8set_nsecEij", scope: !398, file: !399, line: 414, type: !544, scopeLine: 414, flags: DIFlagPublic | DIFlagPrototyped, spFlags: DISPFlagOptimized)
!551 = !DISubprogram(name: "set_now", linkageName: "_ZN9Timestamp7set_nowEv", scope: !398, file: !399, line: 417, type: !409, scopeLine: 417, flags: DIFlagPublic | DIFlagPrototyped, spFlags: DISPFlagOptimized)
!552 = !DISubprogram(name: "set_timeval_ioctl", linkageName: "_ZN9Timestamp17set_timeval_ioctlEii", scope: !398, file: !399, line: 420, type: !553, scopeLine: 420, flags: DIFlagPublic | DIFlagPrototyped, spFlags: DISPFlagOptimized)
!553 = !DISubroutineType(types: !554)
!554 = !{!46, !411, !46, !46}
!555 = !DISubprogram(name: "now", linkageName: "_ZN9Timestamp3nowEv", scope: !398, file: !399, line: 432, type: !540, scopeLine: 432, flags: DIFlagPublic | DIFlagPrototyped | DIFlagStaticMember, spFlags: DISPFlagOptimized)
!556 = !DISubprogram(name: "assign_now", linkageName: "_ZN9Timestamp10assign_nowEv", scope: !398, file: !399, line: 438, type: !409, scopeLine: 438, flags: DIFlagPublic | DIFlagPrototyped, spFlags: DISPFlagOptimized)
!557 = !DISubprogram(name: "recent", linkageName: "_ZN9Timestamp6recentEv", scope: !398, file: !399, line: 446, type: !540, scopeLine: 446, flags: DIFlagPublic | DIFlagPrototyped | DIFlagStaticMember, spFlags: DISPFlagOptimized)
!558 = !DISubprogram(name: "assign_recent", linkageName: "_ZN9Timestamp13assign_recentEv", scope: !398, file: !399, line: 452, type: !409, scopeLine: 452, flags: DIFlagPublic | DIFlagPrototyped, spFlags: DISPFlagOptimized)
!559 = !DISubprogram(name: "now_steady", linkageName: "_ZN9Timestamp10now_steadyEv", scope: !398, file: !399, line: 466, type: !540, scopeLine: 466, flags: DIFlagPublic | DIFlagPrototyped | DIFlagStaticMember, spFlags: DISPFlagOptimized)
!560 = !DISubprogram(name: "assign_now_steady", linkageName: "_ZN9Timestamp17assign_now_steadyEv", scope: !398, file: !399, line: 472, type: !409, scopeLine: 472, flags: DIFlagPublic | DIFlagPrototyped, spFlags: DISPFlagOptimized)
!561 = !DISubprogram(name: "recent_steady", linkageName: "_ZN9Timestamp13recent_steadyEv", scope: !398, file: !399, line: 481, type: !540, scopeLine: 481, flags: DIFlagPublic | DIFlagPrototyped | DIFlagStaticMember, spFlags: DISPFlagOptimized)
!562 = !DISubprogram(name: "assign_recent_steady", linkageName: "_ZN9Timestamp20assign_recent_steadyEv", scope: !398, file: !399, line: 487, type: !409, scopeLine: 487, flags: DIFlagPublic | DIFlagPrototyped, spFlags: DISPFlagOptimized)
!563 = !DISubprogram(name: "unparse", linkageName: "_ZNK9Timestamp7unparseEv", scope: !398, file: !399, line: 496, type: !564, scopeLine: 496, flags: DIFlagPublic | DIFlagPrototyped, spFlags: DISPFlagOptimized)
!564 = !DISubroutineType(types: !565)
!565 = !{!566, !473}
!566 = distinct !DICompositeType(tag: DW_TAG_class_type, name: "String", file: !567, line: 19, size: 192, flags: DIFlagTypePassByReference | DIFlagNonTrivial, elements: !568, identifier: "_ZTS6String")
!567 = !DIFile(filename: "../dummy_inc/click/string.hh", directory: "/home/john/projects/click/ir-dir")
!568 = !{!569, !574, !588, !589, !593, !597, !599, !600, !604, !609, !613, !616, !619, !622, !625, !628, !631, !634, !637, !640, !643, !646, !649, !653, !657, !660, !661, !664, !667, !668, !671, !674, !677, !681, !685, !689, !692, !693, !698, !701, !702, !706, !707, !710, !711, !714, !715, !718, !721, !724, !727, !730, !733, !736, !739, !742, !745, !748, !751, !752, !753, !754, !757, !760, !761, !762, !763, !764, !765, !766, !770, !773, !776, !779, !780, !781, !782, !783, !784, !787, !791, !792, !793, !794, !797, !798, !799, !800, !801, !802, !805, !806, !807, !808, !811, !814, !815, !818, !821, !824, !827, !830, !833, !836, !837, !838, !839, !842, !845, !848, !849, !850}
!569 = !DIDerivedType(tag: DW_TAG_member, name: "bool_data", scope: !566, file: !567, line: 184, baseType: !570, flags: DIFlagPublic | DIFlagStaticMember)
!570 = !DICompositeType(tag: DW_TAG_array_type, baseType: !571, size: 88, elements: !572)
!571 = !DIDerivedType(tag: DW_TAG_const_type, baseType: !105)
!572 = !{!573}
!573 = !DISubrange(count: 11)
!574 = !DIDerivedType(tag: DW_TAG_member, name: "_r", scope: !566, file: !567, line: 211, baseType: !575, size: 192)
!575 = distinct !DICompositeType(tag: DW_TAG_structure_type, name: "rep_t", scope: !566, file: !567, line: 204, size: 192, flags: DIFlagTypePassByValue, elements: !576, identifier: "_ZTSN6String5rep_tE")
!576 = !{!577, !579, !580}
!577 = !DIDerivedType(tag: DW_TAG_member, name: "data", scope: !575, file: !567, line: 205, baseType: !578, size: 64)
!578 = !DIDerivedType(tag: DW_TAG_pointer_type, baseType: !571, size: 64)
!579 = !DIDerivedType(tag: DW_TAG_member, name: "length", scope: !575, file: !567, line: 206, baseType: !46, size: 32, offset: 64)
!580 = !DIDerivedType(tag: DW_TAG_member, name: "memo", scope: !575, file: !567, line: 207, baseType: !581, size: 64, offset: 128)
!581 = !DIDerivedType(tag: DW_TAG_pointer_type, baseType: !582, size: 64)
!582 = distinct !DICompositeType(tag: DW_TAG_structure_type, name: "memo_t", scope: !566, file: !567, line: 189, size: 160, flags: DIFlagTypePassByValue, elements: !583, identifier: "_ZTSN6String6memo_tE")
!583 = !{!584, !585, !586, !587}
!584 = !DIDerivedType(tag: DW_TAG_member, name: "refcount", scope: !582, file: !567, line: 190, baseType: !76, size: 32)
!585 = !DIDerivedType(tag: DW_TAG_member, name: "capacity", scope: !582, file: !567, line: 191, baseType: !25, size: 32, offset: 32)
!586 = !DIDerivedType(tag: DW_TAG_member, name: "dirty", scope: !582, file: !567, line: 192, baseType: !76, size: 32, offset: 64)
!587 = !DIDerivedType(tag: DW_TAG_member, name: "real_data", scope: !582, file: !567, line: 197, baseType: !135, size: 64, offset: 96)
!588 = !DIDerivedType(tag: DW_TAG_member, name: "null_data", scope: !566, file: !567, line: 292, baseType: !571, flags: DIFlagStaticMember)
!589 = !DIDerivedType(tag: DW_TAG_member, name: "oom_data", scope: !566, file: !567, line: 293, baseType: !590, flags: DIFlagStaticMember)
!590 = !DICompositeType(tag: DW_TAG_array_type, baseType: !571, size: 120, elements: !591)
!591 = !{!592}
!592 = !DISubrange(count: 15)
!593 = !DIDerivedType(tag: DW_TAG_member, name: "int_data", scope: !566, file: !567, line: 294, baseType: !594, flags: DIFlagStaticMember)
!594 = !DICompositeType(tag: DW_TAG_array_type, baseType: !571, size: 160, elements: !595)
!595 = !{!596}
!596 = !DISubrange(count: 20)
!597 = !DIDerivedType(tag: DW_TAG_member, name: "null_string_rep", scope: !566, file: !567, line: 295, baseType: !598, flags: DIFlagStaticMember)
!598 = !DIDerivedType(tag: DW_TAG_const_type, baseType: !575)
!599 = !DIDerivedType(tag: DW_TAG_member, name: "oom_string_rep", scope: !566, file: !567, line: 296, baseType: !598, flags: DIFlagStaticMember)
!600 = !DISubprogram(name: "String", scope: !566, file: !567, line: 39, type: !601, scopeLine: 39, flags: DIFlagPublic | DIFlagPrototyped, spFlags: DISPFlagOptimized)
!601 = !DISubroutineType(types: !602)
!602 = !{null, !603}
!603 = !DIDerivedType(tag: DW_TAG_pointer_type, baseType: !566, size: 64, flags: DIFlagArtificial | DIFlagObjectPointer)
!604 = !DISubprogram(name: "String", scope: !566, file: !567, line: 40, type: !605, scopeLine: 40, flags: DIFlagPublic | DIFlagPrototyped, spFlags: DISPFlagOptimized)
!605 = !DISubroutineType(types: !606)
!606 = !{null, !603, !607}
!607 = !DIDerivedType(tag: DW_TAG_reference_type, baseType: !608, size: 64)
!608 = !DIDerivedType(tag: DW_TAG_const_type, baseType: !566)
!609 = !DISubprogram(name: "String", scope: !566, file: !567, line: 42, type: !610, scopeLine: 42, flags: DIFlagPublic | DIFlagPrototyped, spFlags: DISPFlagOptimized)
!610 = !DISubroutineType(types: !611)
!611 = !{null, !603, !612}
!612 = !DIDerivedType(tag: DW_TAG_rvalue_reference_type, baseType: !566, size: 64)
!613 = !DISubprogram(name: "String", scope: !566, file: !567, line: 44, type: !614, scopeLine: 44, flags: DIFlagPublic | DIFlagPrototyped, spFlags: DISPFlagOptimized)
!614 = !DISubroutineType(types: !615)
!615 = !{null, !603, !578}
!616 = !DISubprogram(name: "String", scope: !566, file: !567, line: 45, type: !617, scopeLine: 45, flags: DIFlagPublic | DIFlagPrototyped, spFlags: DISPFlagOptimized)
!617 = !DISubroutineType(types: !618)
!618 = !{null, !603, !578, !46}
!619 = !DISubprogram(name: "String", scope: !566, file: !567, line: 46, type: !620, scopeLine: 46, flags: DIFlagPublic | DIFlagPrototyped, spFlags: DISPFlagOptimized)
!620 = !DISubroutineType(types: !621)
!621 = !{null, !603, !267, !46}
!622 = !DISubprogram(name: "String", scope: !566, file: !567, line: 47, type: !623, scopeLine: 47, flags: DIFlagPublic | DIFlagPrototyped, spFlags: DISPFlagOptimized)
!623 = !DISubroutineType(types: !624)
!624 = !{null, !603, !578, !578}
!625 = !DISubprogram(name: "String", scope: !566, file: !567, line: 48, type: !626, scopeLine: 48, flags: DIFlagPublic | DIFlagPrototyped, spFlags: DISPFlagOptimized)
!626 = !DISubroutineType(types: !627)
!627 = !{null, !603, !267, !267}
!628 = !DISubprogram(name: "String", scope: !566, file: !567, line: 49, type: !629, scopeLine: 49, flags: DIFlagPublic | DIFlagExplicit | DIFlagPrototyped, spFlags: DISPFlagOptimized)
!629 = !DISubroutineType(types: !630)
!630 = !{null, !603, !65}
!631 = !DISubprogram(name: "String", scope: !566, file: !567, line: 50, type: !632, scopeLine: 50, flags: DIFlagPublic | DIFlagExplicit | DIFlagPrototyped, spFlags: DISPFlagOptimized)
!632 = !DISubroutineType(types: !633)
!633 = !{null, !603, !105}
!634 = !DISubprogram(name: "String", scope: !566, file: !567, line: 51, type: !635, scopeLine: 51, flags: DIFlagPublic | DIFlagExplicit | DIFlagPrototyped, spFlags: DISPFlagOptimized)
!635 = !DISubroutineType(types: !636)
!636 = !{null, !603, !93}
!637 = !DISubprogram(name: "String", scope: !566, file: !567, line: 52, type: !638, scopeLine: 52, flags: DIFlagPublic | DIFlagExplicit | DIFlagPrototyped, spFlags: DISPFlagOptimized)
!638 = !DISubroutineType(types: !639)
!639 = !{null, !603, !46}
!640 = !DISubprogram(name: "String", scope: !566, file: !567, line: 53, type: !641, scopeLine: 53, flags: DIFlagPublic | DIFlagExplicit | DIFlagPrototyped, spFlags: DISPFlagOptimized)
!641 = !DISubroutineType(types: !642)
!642 = !{null, !603, !6}
!643 = !DISubprogram(name: "String", scope: !566, file: !567, line: 54, type: !644, scopeLine: 54, flags: DIFlagPublic | DIFlagExplicit | DIFlagPrototyped, spFlags: DISPFlagOptimized)
!644 = !DISubroutineType(types: !645)
!645 = !{null, !603, !407}
!646 = !DISubprogram(name: "String", scope: !566, file: !567, line: 55, type: !647, scopeLine: 55, flags: DIFlagPublic | DIFlagExplicit | DIFlagPrototyped, spFlags: DISPFlagOptimized)
!647 = !DISubroutineType(types: !648)
!648 = !{null, !603, !127}
!649 = !DISubprogram(name: "String", scope: !566, file: !567, line: 57, type: !650, scopeLine: 57, flags: DIFlagPublic | DIFlagExplicit | DIFlagPrototyped, spFlags: DISPFlagOptimized)
!650 = !DISubroutineType(types: !651)
!651 = !{null, !603, !652}
!652 = !DIBasicType(name: "long long int", size: 64, encoding: DW_ATE_signed)
!653 = !DISubprogram(name: "String", scope: !566, file: !567, line: 58, type: !654, scopeLine: 58, flags: DIFlagPublic | DIFlagExplicit | DIFlagPrototyped, spFlags: DISPFlagOptimized)
!654 = !DISubroutineType(types: !655)
!655 = !{null, !603, !656}
!656 = !DIBasicType(name: "long long unsigned int", size: 64, encoding: DW_ATE_unsigned)
!657 = !DISubprogram(name: "String", scope: !566, file: !567, line: 65, type: !658, scopeLine: 65, flags: DIFlagPublic | DIFlagExplicit | DIFlagPrototyped, spFlags: DISPFlagOptimized)
!658 = !DISubroutineType(types: !659)
!659 = !{null, !603, !427}
!660 = !DISubprogram(name: "~String", scope: !566, file: !567, line: 67, type: !601, scopeLine: 67, flags: DIFlagPublic | DIFlagPrototyped, spFlags: DISPFlagOptimized)
!661 = !DISubprogram(name: "make_empty", linkageName: "_ZN6String10make_emptyEv", scope: !566, file: !567, line: 69, type: !662, scopeLine: 69, flags: DIFlagPublic | DIFlagPrototyped | DIFlagStaticMember, spFlags: DISPFlagOptimized)
!662 = !DISubroutineType(types: !663)
!663 = !{!607}
!664 = !DISubprogram(name: "make_uninitialized", linkageName: "_ZN6String18make_uninitializedEi", scope: !566, file: !567, line: 70, type: !665, scopeLine: 70, flags: DIFlagPublic | DIFlagPrototyped | DIFlagStaticMember, spFlags: DISPFlagOptimized)
!665 = !DISubroutineType(types: !666)
!666 = !{!566, !46}
!667 = !DISubprogram(name: "make_garbage", linkageName: "_ZN6String12make_garbageEi", scope: !566, file: !567, line: 71, type: !665, scopeLine: 71, flags: DIFlagPublic | DIFlagPrototyped | DIFlagStaticMember, spFlags: DISPFlagOptimized)
!668 = !DISubprogram(name: "make_stable", linkageName: "_ZN6String11make_stableEPKc", scope: !566, file: !567, line: 72, type: !669, scopeLine: 72, flags: DIFlagPublic | DIFlagPrototyped | DIFlagStaticMember, spFlags: DISPFlagOptimized)
!669 = !DISubroutineType(types: !670)
!670 = !{!566, !578}
!671 = !DISubprogram(name: "make_stable", linkageName: "_ZN6String11make_stableEPKci", scope: !566, file: !567, line: 73, type: !672, scopeLine: 73, flags: DIFlagPublic | DIFlagPrototyped | DIFlagStaticMember, spFlags: DISPFlagOptimized)
!672 = !DISubroutineType(types: !673)
!673 = !{!566, !578, !46}
!674 = !DISubprogram(name: "make_stable", linkageName: "_ZN6String11make_stableEPKcS1_", scope: !566, file: !567, line: 74, type: !675, scopeLine: 74, flags: DIFlagPublic | DIFlagPrototyped | DIFlagStaticMember, spFlags: DISPFlagOptimized)
!675 = !DISubroutineType(types: !676)
!676 = !{!566, !578, !578}
!677 = !DISubprogram(name: "make_numeric", linkageName: "_ZN6String12make_numericElib", scope: !566, file: !567, line: 75, type: !678, scopeLine: 75, flags: DIFlagPublic | DIFlagPrototyped | DIFlagStaticMember, spFlags: DISPFlagOptimized)
!678 = !DISubroutineType(types: !679)
!679 = !{!566, !680, !46, !65}
!680 = !DIDerivedType(tag: DW_TAG_typedef, name: "intmax_t", scope: !566, file: !567, line: 27, baseType: !405)
!681 = !DISubprogram(name: "make_numeric", linkageName: "_ZN6String12make_numericEmib", scope: !566, file: !567, line: 76, type: !682, scopeLine: 76, flags: DIFlagPublic | DIFlagPrototyped | DIFlagStaticMember, spFlags: DISPFlagOptimized)
!682 = !DISubroutineType(types: !683)
!683 = !{!566, !684, !46, !65}
!684 = !DIDerivedType(tag: DW_TAG_typedef, name: "uintmax_t", scope: !566, file: !567, line: 28, baseType: !125)
!685 = !DISubprogram(name: "data", linkageName: "_ZNK6String4dataEv", scope: !566, file: !567, line: 78, type: !686, scopeLine: 78, flags: DIFlagPublic | DIFlagPrototyped, spFlags: DISPFlagOptimized)
!686 = !DISubroutineType(types: !687)
!687 = !{!578, !688}
!688 = !DIDerivedType(tag: DW_TAG_pointer_type, baseType: !608, size: 64, flags: DIFlagArtificial | DIFlagObjectPointer)
!689 = !DISubprogram(name: "length", linkageName: "_ZNK6String6lengthEv", scope: !566, file: !567, line: 79, type: !690, scopeLine: 79, flags: DIFlagPublic | DIFlagPrototyped, spFlags: DISPFlagOptimized)
!690 = !DISubroutineType(types: !691)
!691 = !{!46, !688}
!692 = !DISubprogram(name: "c_str", linkageName: "_ZNK6String5c_strEv", scope: !566, file: !567, line: 81, type: !686, scopeLine: 81, flags: DIFlagPublic | DIFlagPrototyped, spFlags: DISPFlagOptimized)
!693 = !DISubprogram(name: "operator int (String::*)() const", linkageName: "_ZNK6StringcvMS_KFivEEv", scope: !566, file: !567, line: 83, type: !694, scopeLine: 83, flags: DIFlagPublic | DIFlagPrototyped, spFlags: DISPFlagOptimized)
!694 = !DISubroutineType(types: !695)
!695 = !{!696, !688}
!696 = !DIDerivedType(tag: DW_TAG_typedef, name: "unspecified_bool_type", scope: !566, file: !567, line: 24, baseType: !697)
!697 = !DIDerivedType(tag: DW_TAG_ptr_to_member_type, baseType: !690, size: 128, extraData: !566)
!698 = !DISubprogram(name: "empty", linkageName: "_ZNK6String5emptyEv", scope: !566, file: !567, line: 84, type: !699, scopeLine: 84, flags: DIFlagPublic | DIFlagPrototyped, spFlags: DISPFlagOptimized)
!699 = !DISubroutineType(types: !700)
!700 = !{!65, !688}
!701 = !DISubprogram(name: "operator!", linkageName: "_ZNK6StringntEv", scope: !566, file: !567, line: 85, type: !699, scopeLine: 85, flags: DIFlagPublic | DIFlagPrototyped, spFlags: DISPFlagOptimized)
!702 = !DISubprogram(name: "begin", linkageName: "_ZNK6String5beginEv", scope: !566, file: !567, line: 87, type: !703, scopeLine: 87, flags: DIFlagPublic | DIFlagPrototyped, spFlags: DISPFlagOptimized)
!703 = !DISubroutineType(types: !704)
!704 = !{!705, !688}
!705 = !DIDerivedType(tag: DW_TAG_typedef, name: "const_iterator", scope: !566, file: !567, line: 21, baseType: !578)
!706 = !DISubprogram(name: "end", linkageName: "_ZNK6String3endEv", scope: !566, file: !567, line: 88, type: !703, scopeLine: 88, flags: DIFlagPublic | DIFlagPrototyped, spFlags: DISPFlagOptimized)
!707 = !DISubprogram(name: "operator[]", linkageName: "_ZNK6StringixEi", scope: !566, file: !567, line: 90, type: !708, scopeLine: 90, flags: DIFlagPublic | DIFlagPrototyped, spFlags: DISPFlagOptimized)
!708 = !DISubroutineType(types: !709)
!709 = !{!105, !688, !46}
!710 = !DISubprogram(name: "at", linkageName: "_ZNK6String2atEi", scope: !566, file: !567, line: 91, type: !708, scopeLine: 91, flags: DIFlagPublic | DIFlagPrototyped, spFlags: DISPFlagOptimized)
!711 = !DISubprogram(name: "front", linkageName: "_ZNK6String5frontEv", scope: !566, file: !567, line: 92, type: !712, scopeLine: 92, flags: DIFlagPublic | DIFlagPrototyped, spFlags: DISPFlagOptimized)
!712 = !DISubroutineType(types: !713)
!713 = !{!105, !688}
!714 = !DISubprogram(name: "back", linkageName: "_ZNK6String4backEv", scope: !566, file: !567, line: 93, type: !712, scopeLine: 93, flags: DIFlagPublic | DIFlagPrototyped, spFlags: DISPFlagOptimized)
!715 = !DISubprogram(name: "hashcode", linkageName: "_ZN6String8hashcodeEPKcS1_", scope: !566, file: !567, line: 95, type: !716, scopeLine: 95, flags: DIFlagPublic | DIFlagPrototyped | DIFlagStaticMember, spFlags: DISPFlagOptimized)
!716 = !DISubroutineType(types: !717)
!717 = !{!25, !578, !578}
!718 = !DISubprogram(name: "hashcode", linkageName: "_ZN6String8hashcodeEPKhS1_", scope: !566, file: !567, line: 96, type: !719, scopeLine: 96, flags: DIFlagPublic | DIFlagPrototyped | DIFlagStaticMember, spFlags: DISPFlagOptimized)
!719 = !DISubroutineType(types: !720)
!720 = !{!25, !267, !267}
!721 = !DISubprogram(name: "hashcode", linkageName: "_ZNK6String8hashcodeEv", scope: !566, file: !567, line: 98, type: !722, scopeLine: 98, flags: DIFlagPublic | DIFlagPrototyped, spFlags: DISPFlagOptimized)
!722 = !DISubroutineType(types: !723)
!723 = !{!25, !688}
!724 = !DISubprogram(name: "substring", linkageName: "_ZNK6String9substringEPKcS1_", scope: !566, file: !567, line: 100, type: !725, scopeLine: 100, flags: DIFlagPublic | DIFlagPrototyped, spFlags: DISPFlagOptimized)
!725 = !DISubroutineType(types: !726)
!726 = !{!566, !688, !578, !578}
!727 = !DISubprogram(name: "substring", linkageName: "_ZNK6String9substringEii", scope: !566, file: !567, line: 101, type: !728, scopeLine: 101, flags: DIFlagPublic | DIFlagPrototyped, spFlags: DISPFlagOptimized)
!728 = !DISubroutineType(types: !729)
!729 = !{!566, !688, !46, !46}
!730 = !DISubprogram(name: "substring", linkageName: "_ZNK6String9substringEi", scope: !566, file: !567, line: 102, type: !731, scopeLine: 102, flags: DIFlagPublic | DIFlagPrototyped, spFlags: DISPFlagOptimized)
!731 = !DISubroutineType(types: !732)
!732 = !{!566, !688, !46}
!733 = !DISubprogram(name: "trim_space", linkageName: "_ZNK6String10trim_spaceEv", scope: !566, file: !567, line: 103, type: !734, scopeLine: 103, flags: DIFlagPublic | DIFlagPrototyped, spFlags: DISPFlagOptimized)
!734 = !DISubroutineType(types: !735)
!735 = !{!566, !688}
!736 = !DISubprogram(name: "equals", linkageName: "_ZNK6String6equalsERKS_", scope: !566, file: !567, line: 105, type: !737, scopeLine: 105, flags: DIFlagPublic | DIFlagPrototyped, spFlags: DISPFlagOptimized)
!737 = !DISubroutineType(types: !738)
!738 = !{!65, !688, !607}
!739 = !DISubprogram(name: "equals", linkageName: "_ZNK6String6equalsEPKci", scope: !566, file: !567, line: 106, type: !740, scopeLine: 106, flags: DIFlagPublic | DIFlagPrototyped, spFlags: DISPFlagOptimized)
!740 = !DISubroutineType(types: !741)
!741 = !{!65, !688, !578, !46}
!742 = !DISubprogram(name: "compare", linkageName: "_ZN6String7compareERKS_S1_", scope: !566, file: !567, line: 107, type: !743, scopeLine: 107, flags: DIFlagPublic | DIFlagPrototyped | DIFlagStaticMember, spFlags: DISPFlagOptimized)
!743 = !DISubroutineType(types: !744)
!744 = !{!46, !607, !607}
!745 = !DISubprogram(name: "compare", linkageName: "_ZNK6String7compareERKS_", scope: !566, file: !567, line: 108, type: !746, scopeLine: 108, flags: DIFlagPublic | DIFlagPrototyped, spFlags: DISPFlagOptimized)
!746 = !DISubroutineType(types: !747)
!747 = !{!46, !688, !607}
!748 = !DISubprogram(name: "compare", linkageName: "_ZNK6String7compareEPKci", scope: !566, file: !567, line: 109, type: !749, scopeLine: 109, flags: DIFlagPublic | DIFlagPrototyped, spFlags: DISPFlagOptimized)
!749 = !DISubroutineType(types: !750)
!750 = !{!46, !688, !578, !46}
!751 = !DISubprogram(name: "starts_with", linkageName: "_ZNK6String11starts_withERKS_", scope: !566, file: !567, line: 110, type: !737, scopeLine: 110, flags: DIFlagPublic | DIFlagPrototyped, spFlags: DISPFlagOptimized)
!752 = !DISubprogram(name: "starts_with", linkageName: "_ZNK6String11starts_withEPKci", scope: !566, file: !567, line: 111, type: !740, scopeLine: 111, flags: DIFlagPublic | DIFlagPrototyped, spFlags: DISPFlagOptimized)
!753 = !DISubprogram(name: "glob_match", linkageName: "_ZNK6String10glob_matchERKS_", scope: !566, file: !567, line: 112, type: !737, scopeLine: 112, flags: DIFlagPublic | DIFlagPrototyped, spFlags: DISPFlagOptimized)
!754 = !DISubprogram(name: "find_left", linkageName: "_ZNK6String9find_leftEci", scope: !566, file: !567, line: 125, type: !755, scopeLine: 125, flags: DIFlagPublic | DIFlagPrototyped, spFlags: DISPFlagOptimized)
!755 = !DISubroutineType(types: !756)
!756 = !{!46, !688, !105, !46}
!757 = !DISubprogram(name: "find_left", linkageName: "_ZNK6String9find_leftERKS_i", scope: !566, file: !567, line: 126, type: !758, scopeLine: 126, flags: DIFlagPublic | DIFlagPrototyped, spFlags: DISPFlagOptimized)
!758 = !DISubroutineType(types: !759)
!759 = !{!46, !688, !607, !46}
!760 = !DISubprogram(name: "find_right", linkageName: "_ZNK6String10find_rightEci", scope: !566, file: !567, line: 127, type: !755, scopeLine: 127, flags: DIFlagPublic | DIFlagPrototyped, spFlags: DISPFlagOptimized)
!761 = !DISubprogram(name: "lower", linkageName: "_ZNK6String5lowerEv", scope: !566, file: !567, line: 129, type: !734, scopeLine: 129, flags: DIFlagPublic | DIFlagPrototyped, spFlags: DISPFlagOptimized)
!762 = !DISubprogram(name: "upper", linkageName: "_ZNK6String5upperEv", scope: !566, file: !567, line: 130, type: !734, scopeLine: 130, flags: DIFlagPublic | DIFlagPrototyped, spFlags: DISPFlagOptimized)
!763 = !DISubprogram(name: "printable", linkageName: "_ZNK6String9printableEv", scope: !566, file: !567, line: 131, type: !734, scopeLine: 131, flags: DIFlagPublic | DIFlagPrototyped, spFlags: DISPFlagOptimized)
!764 = !DISubprogram(name: "quoted_hex", linkageName: "_ZNK6String10quoted_hexEv", scope: !566, file: !567, line: 132, type: !734, scopeLine: 132, flags: DIFlagPublic | DIFlagPrototyped, spFlags: DISPFlagOptimized)
!765 = !DISubprogram(name: "encode_json", linkageName: "_ZNK6String11encode_jsonEv", scope: !566, file: !567, line: 133, type: !734, scopeLine: 133, flags: DIFlagPublic | DIFlagPrototyped, spFlags: DISPFlagOptimized)
!766 = !DISubprogram(name: "operator=", linkageName: "_ZN6StringaSERKS_", scope: !566, file: !567, line: 135, type: !767, scopeLine: 135, flags: DIFlagPublic | DIFlagPrototyped, spFlags: DISPFlagOptimized)
!767 = !DISubroutineType(types: !768)
!768 = !{!769, !603, !607}
!769 = !DIDerivedType(tag: DW_TAG_reference_type, baseType: !566, size: 64)
!770 = !DISubprogram(name: "operator=", linkageName: "_ZN6StringaSEOS_", scope: !566, file: !567, line: 137, type: !771, scopeLine: 137, flags: DIFlagPublic | DIFlagPrototyped, spFlags: DISPFlagOptimized)
!771 = !DISubroutineType(types: !772)
!772 = !{!769, !603, !612}
!773 = !DISubprogram(name: "operator=", linkageName: "_ZN6StringaSEPKc", scope: !566, file: !567, line: 139, type: !774, scopeLine: 139, flags: DIFlagPublic | DIFlagPrototyped, spFlags: DISPFlagOptimized)
!774 = !DISubroutineType(types: !775)
!775 = !{!769, !603, !578}
!776 = !DISubprogram(name: "swap", linkageName: "_ZN6String4swapERS_", scope: !566, file: !567, line: 141, type: !777, scopeLine: 141, flags: DIFlagPublic | DIFlagPrototyped, spFlags: DISPFlagOptimized)
!777 = !DISubroutineType(types: !778)
!778 = !{null, !603, !769}
!779 = !DISubprogram(name: "append", linkageName: "_ZN6String6appendERKS_", scope: !566, file: !567, line: 143, type: !605, scopeLine: 143, flags: DIFlagPublic | DIFlagPrototyped, spFlags: DISPFlagOptimized)
!780 = !DISubprogram(name: "append", linkageName: "_ZN6String6appendEPKc", scope: !566, file: !567, line: 144, type: !614, scopeLine: 144, flags: DIFlagPublic | DIFlagPrototyped, spFlags: DISPFlagOptimized)
!781 = !DISubprogram(name: "append", linkageName: "_ZN6String6appendEPKci", scope: !566, file: !567, line: 145, type: !617, scopeLine: 145, flags: DIFlagPublic | DIFlagPrototyped, spFlags: DISPFlagOptimized)
!782 = !DISubprogram(name: "append", linkageName: "_ZN6String6appendEPKcS1_", scope: !566, file: !567, line: 146, type: !623, scopeLine: 146, flags: DIFlagPublic | DIFlagPrototyped, spFlags: DISPFlagOptimized)
!783 = !DISubprogram(name: "append", linkageName: "_ZN6String6appendEc", scope: !566, file: !567, line: 147, type: !632, scopeLine: 147, flags: DIFlagPublic | DIFlagPrototyped, spFlags: DISPFlagOptimized)
!784 = !DISubprogram(name: "append_fill", linkageName: "_ZN6String11append_fillEii", scope: !566, file: !567, line: 148, type: !785, scopeLine: 148, flags: DIFlagPublic | DIFlagPrototyped, spFlags: DISPFlagOptimized)
!785 = !DISubroutineType(types: !786)
!786 = !{null, !603, !46, !46}
!787 = !DISubprogram(name: "append_uninitialized", linkageName: "_ZN6String20append_uninitializedEi", scope: !566, file: !567, line: 149, type: !788, scopeLine: 149, flags: DIFlagPublic | DIFlagPrototyped, spFlags: DISPFlagOptimized)
!788 = !DISubroutineType(types: !789)
!789 = !{!790, !603, !46}
!790 = !DIDerivedType(tag: DW_TAG_pointer_type, baseType: !105, size: 64)
!791 = !DISubprogram(name: "append_garbage", linkageName: "_ZN6String14append_garbageEi", scope: !566, file: !567, line: 150, type: !788, scopeLine: 150, flags: DIFlagPublic | DIFlagPrototyped, spFlags: DISPFlagOptimized)
!792 = !DISubprogram(name: "operator+=", linkageName: "_ZN6StringpLERKS_", scope: !566, file: !567, line: 152, type: !767, scopeLine: 152, flags: DIFlagPublic | DIFlagPrototyped, spFlags: DISPFlagOptimized)
!793 = !DISubprogram(name: "operator+=", linkageName: "_ZN6StringpLEPKc", scope: !566, file: !567, line: 153, type: !774, scopeLine: 153, flags: DIFlagPublic | DIFlagPrototyped, spFlags: DISPFlagOptimized)
!794 = !DISubprogram(name: "operator+=", linkageName: "_ZN6StringpLEc", scope: !566, file: !567, line: 154, type: !795, scopeLine: 154, flags: DIFlagPublic | DIFlagPrototyped, spFlags: DISPFlagOptimized)
!795 = !DISubroutineType(types: !796)
!796 = !{!769, !603, !105}
!797 = !DISubprogram(name: "is_shared", linkageName: "_ZNK6String9is_sharedEv", scope: !566, file: !567, line: 160, type: !699, scopeLine: 160, flags: DIFlagPublic | DIFlagPrototyped, spFlags: DISPFlagOptimized)
!798 = !DISubprogram(name: "is_stable", linkageName: "_ZNK6String9is_stableEv", scope: !566, file: !567, line: 161, type: !699, scopeLine: 161, flags: DIFlagPublic | DIFlagPrototyped, spFlags: DISPFlagOptimized)
!799 = !DISubprogram(name: "unique", linkageName: "_ZNK6String6uniqueEv", scope: !566, file: !567, line: 163, type: !734, scopeLine: 163, flags: DIFlagPublic | DIFlagPrototyped, spFlags: DISPFlagOptimized)
!800 = !DISubprogram(name: "unshared", linkageName: "_ZNK6String8unsharedEv", scope: !566, file: !567, line: 164, type: !734, scopeLine: 164, flags: DIFlagPublic | DIFlagPrototyped, spFlags: DISPFlagOptimized)
!801 = !DISubprogram(name: "compact", linkageName: "_ZNK6String7compactEv", scope: !566, file: !567, line: 165, type: !734, scopeLine: 165, flags: DIFlagPublic | DIFlagPrototyped, spFlags: DISPFlagOptimized)
!802 = !DISubprogram(name: "mutable_data", linkageName: "_ZN6String12mutable_dataEv", scope: !566, file: !567, line: 167, type: !803, scopeLine: 167, flags: DIFlagPublic | DIFlagPrototyped, spFlags: DISPFlagOptimized)
!803 = !DISubroutineType(types: !804)
!804 = !{!790, !603}
!805 = !DISubprogram(name: "mutable_c_str", linkageName: "_ZN6String13mutable_c_strEv", scope: !566, file: !567, line: 168, type: !803, scopeLine: 168, flags: DIFlagPublic | DIFlagPrototyped, spFlags: DISPFlagOptimized)
!806 = !DISubprogram(name: "make_out_of_memory", linkageName: "_ZN6String18make_out_of_memoryEv", scope: !566, file: !567, line: 170, type: !662, scopeLine: 170, flags: DIFlagPublic | DIFlagPrototyped | DIFlagStaticMember, spFlags: DISPFlagOptimized)
!807 = !DISubprogram(name: "out_of_memory", linkageName: "_ZNK6String13out_of_memoryEv", scope: !566, file: !567, line: 171, type: !699, scopeLine: 171, flags: DIFlagPublic | DIFlagPrototyped, spFlags: DISPFlagOptimized)
!808 = !DISubprogram(name: "out_of_memory_data", linkageName: "_ZN6String18out_of_memory_dataEv", scope: !566, file: !567, line: 172, type: !809, scopeLine: 172, flags: DIFlagPublic | DIFlagPrototyped | DIFlagStaticMember, spFlags: DISPFlagOptimized)
!809 = !DISubroutineType(types: !810)
!810 = !{!578}
!811 = !DISubprogram(name: "out_of_memory_length", linkageName: "_ZN6String20out_of_memory_lengthEv", scope: !566, file: !567, line: 173, type: !812, scopeLine: 173, flags: DIFlagPublic | DIFlagPrototyped | DIFlagStaticMember, spFlags: DISPFlagOptimized)
!812 = !DISubroutineType(types: !813)
!813 = !{!46}
!814 = !DISubprogram(name: "empty_data", linkageName: "_ZN6String10empty_dataEv", scope: !566, file: !567, line: 174, type: !809, scopeLine: 174, flags: DIFlagPublic | DIFlagPrototyped | DIFlagStaticMember, spFlags: DISPFlagOptimized)
!815 = !DISubprogram(name: "skip_utf8_char", linkageName: "_ZN6String14skip_utf8_charEPKcS1_", scope: !566, file: !567, line: 180, type: !816, scopeLine: 180, flags: DIFlagPublic | DIFlagPrototyped | DIFlagStaticMember, spFlags: DISPFlagOptimized)
!816 = !DISubroutineType(types: !817)
!817 = !{!578, !578, !578}
!818 = !DISubprogram(name: "skip_utf8_char", linkageName: "_ZN6String14skip_utf8_charEPKhS1_", scope: !566, file: !567, line: 181, type: !819, scopeLine: 181, flags: DIFlagPublic | DIFlagPrototyped | DIFlagStaticMember, spFlags: DISPFlagOptimized)
!819 = !DISubroutineType(types: !820)
!820 = !{!267, !267, !267}
!821 = !DISubprogram(name: "assign_memo", linkageName: "_ZNK6String11assign_memoEPKciPNS_6memo_tE", scope: !566, file: !567, line: 256, type: !822, scopeLine: 256, flags: DIFlagPrototyped, spFlags: DISPFlagOptimized)
!822 = !DISubroutineType(types: !823)
!823 = !{null, !688, !578, !46, !581}
!824 = !DISubprogram(name: "String", scope: !566, file: !567, line: 263, type: !825, scopeLine: 263, flags: DIFlagPrototyped, spFlags: DISPFlagOptimized)
!825 = !DISubroutineType(types: !826)
!826 = !{null, !603, !578, !46, !581}
!827 = !DISubprogram(name: "assign", linkageName: "_ZNK6String6assignERKS_", scope: !566, file: !567, line: 267, type: !828, scopeLine: 267, flags: DIFlagPrototyped, spFlags: DISPFlagOptimized)
!828 = !DISubroutineType(types: !829)
!829 = !{null, !688, !607}
!830 = !DISubprogram(name: "deref", linkageName: "_ZNK6String5derefEv", scope: !566, file: !567, line: 271, type: !831, scopeLine: 271, flags: DIFlagPrototyped, spFlags: DISPFlagOptimized)
!831 = !DISubroutineType(types: !832)
!832 = !{null, !688}
!833 = !DISubprogram(name: "assign", linkageName: "_ZN6String6assignEPKcib", scope: !566, file: !567, line: 280, type: !834, scopeLine: 280, flags: DIFlagPrototyped, spFlags: DISPFlagOptimized)
!834 = !DISubroutineType(types: !835)
!835 = !{null, !603, !578, !46, !65}
!836 = !DISubprogram(name: "assign_out_of_memory", linkageName: "_ZN6String20assign_out_of_memoryEv", scope: !566, file: !567, line: 281, type: !601, scopeLine: 281, flags: DIFlagPrototyped, spFlags: DISPFlagOptimized)
!837 = !DISubprogram(name: "append", linkageName: "_ZN6String6appendEPKciPNS_6memo_tE", scope: !566, file: !567, line: 282, type: !825, scopeLine: 282, flags: DIFlagPrototyped, spFlags: DISPFlagOptimized)
!838 = !DISubprogram(name: "hard_make_stable", linkageName: "_ZN6String16hard_make_stableEPKci", scope: !566, file: !567, line: 283, type: !672, scopeLine: 283, flags: DIFlagPrototyped | DIFlagStaticMember, spFlags: DISPFlagOptimized)
!839 = !DISubprogram(name: "absent_memo", linkageName: "_ZN6String11absent_memoEv", scope: !566, file: !567, line: 284, type: !840, scopeLine: 284, flags: DIFlagPrototyped | DIFlagStaticMember, spFlags: DISPFlagOptimized)
!840 = !DISubroutineType(types: !841)
!841 = !{!581}
!842 = !DISubprogram(name: "create_memo", linkageName: "_ZN6String11create_memoEPcii", scope: !566, file: !567, line: 287, type: !843, scopeLine: 287, flags: DIFlagPrototyped | DIFlagStaticMember, spFlags: DISPFlagOptimized)
!843 = !DISubroutineType(types: !844)
!844 = !{!581, !790, !46, !46}
!845 = !DISubprogram(name: "delete_memo", linkageName: "_ZN6String11delete_memoEPNS_6memo_tE", scope: !566, file: !567, line: 288, type: !846, scopeLine: 288, flags: DIFlagPrototyped | DIFlagStaticMember, spFlags: DISPFlagOptimized)
!846 = !DISubroutineType(types: !847)
!847 = !{null, !581}
!848 = !DISubprogram(name: "hard_c_str", linkageName: "_ZNK6String10hard_c_strEv", scope: !566, file: !567, line: 289, type: !686, scopeLine: 289, flags: DIFlagPrototyped, spFlags: DISPFlagOptimized)
!849 = !DISubprogram(name: "hard_equals", linkageName: "_ZNK6String11hard_equalsEPKci", scope: !566, file: !567, line: 290, type: !740, scopeLine: 290, flags: DIFlagPrototyped, spFlags: DISPFlagOptimized)
!850 = !DISubprogram(name: "make_claim", linkageName: "_ZN6String10make_claimEPcii", scope: !566, file: !567, line: 299, type: !851, scopeLine: 299, flags: DIFlagPrototyped | DIFlagStaticMember, spFlags: DISPFlagOptimized)
!851 = !DISubroutineType(types: !852)
!852 = !{!566, !790, !46, !46}
!853 = !DISubprogram(name: "unparse_interval", linkageName: "_ZNK9Timestamp16unparse_intervalEv", scope: !398, file: !399, line: 501, type: !564, scopeLine: 501, flags: DIFlagPublic | DIFlagPrototyped, spFlags: DISPFlagOptimized)
!854 = !DISubprogram(name: "msec_to_subsec", linkageName: "_ZN9Timestamp14msec_to_subsecEj", scope: !398, file: !399, line: 510, type: !855, scopeLine: 510, flags: DIFlagPublic | DIFlagPrototyped | DIFlagStaticMember, spFlags: DISPFlagOptimized)
!855 = !DISubroutineType(types: !856)
!856 = !{!25, !25}
!857 = !DISubprogram(name: "usec_to_subsec", linkageName: "_ZN9Timestamp14usec_to_subsecEj", scope: !398, file: !399, line: 514, type: !855, scopeLine: 514, flags: DIFlagPublic | DIFlagPrototyped | DIFlagStaticMember, spFlags: DISPFlagOptimized)
!858 = !DISubprogram(name: "nsec_to_subsec", linkageName: "_ZN9Timestamp14nsec_to_subsecEj", scope: !398, file: !399, line: 518, type: !855, scopeLine: 518, flags: DIFlagPublic | DIFlagPrototyped | DIFlagStaticMember, spFlags: DISPFlagOptimized)
!859 = !DISubprogram(name: "subsec_to_msec", linkageName: "_ZN9Timestamp14subsec_to_msecEj", scope: !398, file: !399, line: 522, type: !855, scopeLine: 522, flags: DIFlagPublic | DIFlagPrototyped | DIFlagStaticMember, spFlags: DISPFlagOptimized)
!860 = !DISubprogram(name: "subsec_to_usec", linkageName: "_ZN9Timestamp14subsec_to_usecEj", scope: !398, file: !399, line: 526, type: !855, scopeLine: 526, flags: DIFlagPublic | DIFlagPrototyped | DIFlagStaticMember, spFlags: DISPFlagOptimized)
!861 = !DISubprogram(name: "subsec_to_nsec", linkageName: "_ZN9Timestamp14subsec_to_nsecEj", scope: !398, file: !399, line: 530, type: !855, scopeLine: 530, flags: DIFlagPublic | DIFlagPrototyped | DIFlagStaticMember, spFlags: DISPFlagOptimized)
!862 = !DISubprogram(name: "warp_class", linkageName: "_ZN9Timestamp10warp_classEv", scope: !398, file: !399, line: 581, type: !812, scopeLine: 581, flags: DIFlagPublic | DIFlagPrototyped | DIFlagStaticMember, spFlags: DISPFlagOptimized)
!863 = !DISubprogram(name: "warp_speed", linkageName: "_ZN9Timestamp10warp_speedEv", scope: !398, file: !399, line: 588, type: !864, scopeLine: 588, flags: DIFlagPublic | DIFlagPrototyped | DIFlagStaticMember, spFlags: DISPFlagOptimized)
!864 = !DISubroutineType(types: !865)
!865 = !{!427}
!866 = !DISubprogram(name: "warp_set_class", linkageName: "_ZN9Timestamp14warp_set_classENS_15warp_class_typeEd", scope: !398, file: !399, line: 621, type: !867, scopeLine: 621, flags: DIFlagPublic | DIFlagPrototyped | DIFlagStaticMember, spFlags: DISPFlagOptimized)
!867 = !DISubroutineType(types: !868)
!868 = !{null, !869, !427}
!869 = !DICompositeType(tag: DW_TAG_enumeration_type, name: "warp_class_type", scope: !398, file: !399, line: 571, baseType: !6, size: 32, elements: !870, identifier: "_ZTSN9Timestamp15warp_class_typeE")
!870 = !{!871, !872, !873, !874}
!871 = !DIEnumerator(name: "warp_none", value: 0, isUnsigned: true)
!872 = !DIEnumerator(name: "warp_linear", value: 1, isUnsigned: true)
!873 = !DIEnumerator(name: "warp_nowait", value: 2, isUnsigned: true)
!874 = !DIEnumerator(name: "warp_simulation", value: 3, isUnsigned: true)
!875 = !DISubprogram(name: "warp_set_now", linkageName: "_ZN9Timestamp12warp_set_nowERKS_S1_", scope: !398, file: !399, line: 628, type: !876, scopeLine: 628, flags: DIFlagPublic | DIFlagPrototyped | DIFlagStaticMember, spFlags: DISPFlagOptimized)
!876 = !DISubroutineType(types: !877)
!877 = !{null, !396, !396}
!878 = !DISubprogram(name: "warp_real_delay", linkageName: "_ZNK9Timestamp15warp_real_delayEv", scope: !398, file: !399, line: 632, type: !510, scopeLine: 632, flags: DIFlagPublic | DIFlagPrototyped, spFlags: DISPFlagOptimized)
!879 = !DISubprogram(name: "warp_jumping", linkageName: "_ZN9Timestamp12warp_jumpingEv", scope: !398, file: !399, line: 635, type: !880, scopeLine: 635, flags: DIFlagPublic | DIFlagPrototyped | DIFlagStaticMember, spFlags: DISPFlagOptimized)
!880 = !DISubroutineType(types: !881)
!881 = !{!65}
!882 = !DISubprogram(name: "warp_jump_steady", linkageName: "_ZN9Timestamp16warp_jump_steadyERKS_", scope: !398, file: !399, line: 640, type: !883, scopeLine: 640, flags: DIFlagPublic | DIFlagPrototyped | DIFlagStaticMember, spFlags: DISPFlagOptimized)
!883 = !DISubroutineType(types: !884)
!884 = !{null, !396}
!885 = !DISubprogram(name: "now_unwarped", linkageName: "_ZN9Timestamp12now_unwarpedEv", scope: !398, file: !399, line: 647, type: !540, scopeLine: 647, flags: DIFlagPublic | DIFlagPrototyped | DIFlagStaticMember, spFlags: DISPFlagOptimized)
!886 = !DISubprogram(name: "assign_now_unwarped", linkageName: "_ZN9Timestamp19assign_now_unwarpedEv", scope: !398, file: !399, line: 653, type: !409, scopeLine: 653, flags: DIFlagPublic | DIFlagPrototyped, spFlags: DISPFlagOptimized)
!887 = !DISubprogram(name: "now_steady_unwarped", linkageName: "_ZN9Timestamp19now_steady_unwarpedEv", scope: !398, file: !399, line: 659, type: !540, scopeLine: 659, flags: DIFlagPublic | DIFlagPrototyped | DIFlagStaticMember, spFlags: DISPFlagOptimized)
!888 = !DISubprogram(name: "assign_now_steady_unwarped", linkageName: "_ZN9Timestamp26assign_now_steady_unwarpedEv", scope: !398, file: !399, line: 666, type: !409, scopeLine: 666, flags: DIFlagPublic | DIFlagPrototyped, spFlags: DISPFlagOptimized)
!889 = !DISubprogram(name: "add_fix", linkageName: "_ZN9Timestamp7add_fixEv", scope: !398, file: !399, line: 674, type: !409, scopeLine: 674, flags: DIFlagPrototyped, spFlags: DISPFlagOptimized)
!890 = !DISubprogram(name: "sub_fix", linkageName: "_ZN9Timestamp7sub_fixEv", scope: !398, file: !399, line: 686, type: !409, scopeLine: 686, flags: DIFlagPrototyped, spFlags: DISPFlagOptimized)
!891 = !DISubprogram(name: "value_div", linkageName: "_ZN9Timestamp9value_divElj", scope: !398, file: !399, line: 698, type: !892, scopeLine: 698, flags: DIFlagPrototyped | DIFlagStaticMember, spFlags: DISPFlagOptimized)
!892 = !DISubroutineType(types: !893)
!893 = !{!506, !506, !25}
!894 = !DISubprogram(name: "value_div_mod", linkageName: "_ZN9Timestamp13value_div_modERiS0_lj", scope: !398, file: !399, line: 702, type: !895, scopeLine: 702, flags: DIFlagPrototyped | DIFlagStaticMember, spFlags: DISPFlagOptimized)
!895 = !DISubroutineType(types: !896)
!896 = !{null, !897, !897, !506, !25}
!897 = !DIDerivedType(tag: DW_TAG_reference_type, baseType: !43, size: 64)
!898 = !DISubprogram(name: "assign_now", linkageName: "_ZN9Timestamp10assign_nowEbbb", scope: !398, file: !399, line: 709, type: !899, scopeLine: 709, flags: DIFlagPrototyped, spFlags: DISPFlagOptimized)
!899 = !DISubroutineType(types: !900)
!900 = !{null, !411, !65, !65, !65}
!901 = !DISubprogram(name: "warp_adjust", linkageName: "_ZN9Timestamp11warp_adjustEbRKS_S1_", scope: !398, file: !399, line: 712, type: !902, scopeLine: 712, flags: DIFlagPrototyped | DIFlagStaticMember, spFlags: DISPFlagOptimized)
!902 = !DISubroutineType(types: !903)
!903 = !{null, !65, !396, !396}
!904 = !DISubprogram(name: "warped", linkageName: "_ZNK9Timestamp6warpedEb", scope: !398, file: !399, line: 713, type: !905, scopeLine: 713, flags: DIFlagPrototyped, spFlags: DISPFlagOptimized)
!905 = !DISubroutineType(types: !906)
!906 = !{!398, !473, !65}
!907 = !DISubprogram(name: "warp", linkageName: "_ZN9Timestamp4warpEbb", scope: !398, file: !399, line: 714, type: !908, scopeLine: 714, flags: DIFlagPrototyped, spFlags: DISPFlagOptimized)
!908 = !DISubroutineType(types: !909)
!909 = !{null, !411, !65, !65}
!910 = !DISubprogram(name: "timestamp_anno", linkageName: "_ZN6Packet14timestamp_annoEv", scope: !18, file: !17, line: 356, type: !911, scopeLine: 356, flags: DIFlagPublic | DIFlagPrototyped, spFlags: DISPFlagOptimized)
!911 = !DISubroutineType(types: !912)
!912 = !{!913, !253}
!913 = !DIDerivedType(tag: DW_TAG_reference_type, baseType: !398, size: 64)
!914 = !DISubprogram(name: "set_timestamp_anno", linkageName: "_ZN6Packet18set_timestamp_annoERK9Timestamp", scope: !18, file: !17, line: 359, type: !915, scopeLine: 359, flags: DIFlagPublic | DIFlagPrototyped, spFlags: DISPFlagOptimized)
!915 = !DISubroutineType(types: !916)
!916 = !{null, !253, !396}
!917 = !DISubprogram(name: "device_anno", linkageName: "_ZNK6Packet11device_annoEv", scope: !18, file: !17, line: 362, type: !918, scopeLine: 362, flags: DIFlagPublic | DIFlagPrototyped, spFlags: DISPFlagOptimized)
!918 = !DISubroutineType(types: !919)
!919 = !{!920, !257}
!920 = !DIDerivedType(tag: DW_TAG_pointer_type, baseType: !921, size: 64)
!921 = !DIDerivedType(tag: DW_TAG_typedef, name: "net_device", file: !518, line: 326, baseType: !922)
!922 = !DICompositeType(tag: DW_TAG_structure_type, name: "device", file: !518, line: 326, flags: DIFlagFwdDecl, identifier: "_ZTS6device")
!923 = !DISubprogram(name: "set_device_anno", linkageName: "_ZN6Packet15set_device_annoEP6device", scope: !18, file: !17, line: 364, type: !924, scopeLine: 364, flags: DIFlagPublic | DIFlagPrototyped, spFlags: DISPFlagOptimized)
!924 = !DISubroutineType(types: !925)
!925 = !{null, !253, !920}
!926 = !DISubprogram(name: "packet_type_anno", linkageName: "_ZNK6Packet16packet_type_annoEv", scope: !18, file: !17, line: 383, type: !927, scopeLine: 383, flags: DIFlagPublic | DIFlagPrototyped, spFlags: DISPFlagOptimized)
!927 = !DISubroutineType(types: !928)
!928 = !{!16, !257}
!929 = !DISubprogram(name: "set_packet_type_anno", linkageName: "_ZN6Packet20set_packet_type_annoENS_10PacketTypeE", scope: !18, file: !17, line: 385, type: !930, scopeLine: 385, flags: DIFlagPublic | DIFlagPrototyped, spFlags: DISPFlagOptimized)
!930 = !DISubroutineType(types: !931)
!931 = !{null, !253, !16}
!932 = !DISubprogram(name: "next", linkageName: "_ZNK6Packet4nextEv", scope: !18, file: !17, line: 410, type: !933, scopeLine: 410, flags: DIFlagPublic | DIFlagPrototyped, spFlags: DISPFlagOptimized)
!933 = !DISubroutineType(types: !934)
!934 = !{!90, !257}
!935 = !DISubprogram(name: "next", linkageName: "_ZN6Packet4nextEv", scope: !18, file: !17, line: 412, type: !936, scopeLine: 412, flags: DIFlagPublic | DIFlagPrototyped, spFlags: DISPFlagOptimized)
!936 = !DISubroutineType(types: !937)
!937 = !{!938, !253}
!938 = !DIDerivedType(tag: DW_TAG_reference_type, baseType: !90, size: 64)
!939 = !DISubprogram(name: "set_next", linkageName: "_ZN6Packet8set_nextEPS_", scope: !18, file: !17, line: 414, type: !940, scopeLine: 414, flags: DIFlagPublic | DIFlagPrototyped, spFlags: DISPFlagOptimized)
!940 = !DISubroutineType(types: !941)
!941 = !{null, !253, !90}
!942 = !DISubprogram(name: "prev", linkageName: "_ZNK6Packet4prevEv", scope: !18, file: !17, line: 417, type: !933, scopeLine: 417, flags: DIFlagPublic | DIFlagPrototyped, spFlags: DISPFlagOptimized)
!943 = !DISubprogram(name: "prev", linkageName: "_ZN6Packet4prevEv", scope: !18, file: !17, line: 419, type: !936, scopeLine: 419, flags: DIFlagPublic | DIFlagPrototyped, spFlags: DISPFlagOptimized)
!944 = !DISubprogram(name: "set_prev", linkageName: "_ZN6Packet8set_prevEPS_", scope: !18, file: !17, line: 421, type: !940, scopeLine: 421, flags: DIFlagPublic | DIFlagPrototyped, spFlags: DISPFlagOptimized)
!945 = !DISubprogram(name: "dst_ip_anno", linkageName: "_ZNK6Packet11dst_ip_annoEv", scope: !18, file: !17, line: 431, type: !946, scopeLine: 431, flags: DIFlagPublic | DIFlagPrototyped, spFlags: DISPFlagOptimized)
!946 = !DISubroutineType(types: !947)
!947 = !{!948, !257}
!948 = distinct !DICompositeType(tag: DW_TAG_class_type, name: "IPAddress", file: !949, line: 15, size: 32, flags: DIFlagTypePassByValue | DIFlagNonTrivial, elements: !950, identifier: "_ZTS9IPAddress")
!949 = !DIFile(filename: "../dummy_inc/click/ipaddress.hh", directory: "/home/john/projects/click/ir-dir")
!950 = !{!951, !952, !956, !959, !962, !965, !968, !971, !974, !977, !982, !985, !988, !993, !996, !997, !998, !999, !1002, !1003, !1006, !1009, !1010, !1013, !1016, !1019, !1020, !1024, !1025, !1026, !1029, !1030, !1033, !1034}
!951 = !DIDerivedType(tag: DW_TAG_member, name: "_addr", scope: !948, file: !949, line: 152, baseType: !25, size: 32)
!952 = !DISubprogram(name: "IPAddress", scope: !948, file: !949, line: 20, type: !953, scopeLine: 20, flags: DIFlagPublic | DIFlagPrototyped, spFlags: DISPFlagOptimized)
!953 = !DISubroutineType(types: !954)
!954 = !{null, !955}
!955 = !DIDerivedType(tag: DW_TAG_pointer_type, baseType: !948, size: 64, flags: DIFlagArtificial | DIFlagObjectPointer)
!956 = !DISubprogram(name: "IPAddress", scope: !948, file: !949, line: 25, type: !957, scopeLine: 25, flags: DIFlagPublic | DIFlagPrototyped, spFlags: DISPFlagOptimized)
!957 = !DISubroutineType(types: !958)
!958 = !{null, !955, !6}
!959 = !DISubprogram(name: "IPAddress", scope: !948, file: !949, line: 29, type: !960, scopeLine: 29, flags: DIFlagPublic | DIFlagExplicit | DIFlagPrototyped, spFlags: DISPFlagOptimized)
!960 = !DISubroutineType(types: !961)
!961 = !{null, !955, !46}
!962 = !DISubprogram(name: "IPAddress", scope: !948, file: !949, line: 33, type: !963, scopeLine: 33, flags: DIFlagPublic | DIFlagExplicit | DIFlagPrototyped, spFlags: DISPFlagOptimized)
!963 = !DISubroutineType(types: !964)
!964 = !{null, !955, !127}
!965 = !DISubprogram(name: "IPAddress", scope: !948, file: !949, line: 37, type: !966, scopeLine: 37, flags: DIFlagPublic | DIFlagExplicit | DIFlagPrototyped, spFlags: DISPFlagOptimized)
!966 = !DISubroutineType(types: !967)
!967 = !{null, !955, !407}
!968 = !DISubprogram(name: "IPAddress", scope: !948, file: !949, line: 42, type: !969, scopeLine: 42, flags: DIFlagPublic | DIFlagPrototyped, spFlags: DISPFlagOptimized)
!969 = !DISubroutineType(types: !970)
!970 = !{null, !955, !188}
!971 = !DISubprogram(name: "IPAddress", scope: !948, file: !949, line: 50, type: !972, scopeLine: 50, flags: DIFlagPublic | DIFlagExplicit | DIFlagPrototyped, spFlags: DISPFlagOptimized)
!972 = !DISubroutineType(types: !973)
!973 = !{null, !955, !267}
!974 = !DISubprogram(name: "IPAddress", scope: !948, file: !949, line: 63, type: !975, scopeLine: 63, flags: DIFlagPublic | DIFlagExplicit | DIFlagPrototyped, spFlags: DISPFlagOptimized)
!975 = !DISubroutineType(types: !976)
!976 = !{null, !955, !607}
!977 = !DISubprogram(name: "IPAddress", scope: !948, file: !949, line: 66, type: !978, scopeLine: 66, flags: DIFlagPublic | DIFlagPrototyped, spFlags: DISPFlagOptimized)
!978 = !DISubroutineType(types: !979)
!979 = !{null, !955, !980}
!980 = !DIDerivedType(tag: DW_TAG_reference_type, baseType: !981, size: 64)
!981 = !DIDerivedType(tag: DW_TAG_const_type, baseType: !462)
!982 = !DISubprogram(name: "make_prefix", linkageName: "_ZN9IPAddress11make_prefixEi", scope: !948, file: !949, line: 78, type: !983, scopeLine: 78, flags: DIFlagPublic | DIFlagPrototyped | DIFlagStaticMember, spFlags: DISPFlagOptimized)
!983 = !DISubroutineType(types: !984)
!984 = !{!948, !46}
!985 = !DISubprogram(name: "make_broadcast", linkageName: "_ZN9IPAddress14make_broadcastEv", scope: !948, file: !949, line: 81, type: !986, scopeLine: 81, flags: DIFlagPublic | DIFlagPrototyped | DIFlagStaticMember, spFlags: DISPFlagOptimized)
!986 = !DISubroutineType(types: !987)
!987 = !{!948}
!988 = !DISubprogram(name: "empty", linkageName: "_ZNK9IPAddress5emptyEv", scope: !948, file: !949, line: 86, type: !989, scopeLine: 86, flags: DIFlagPublic | DIFlagPrototyped, spFlags: DISPFlagOptimized)
!989 = !DISubroutineType(types: !990)
!990 = !{!65, !991}
!991 = !DIDerivedType(tag: DW_TAG_pointer_type, baseType: !992, size: 64, flags: DIFlagArtificial | DIFlagObjectPointer)
!992 = !DIDerivedType(tag: DW_TAG_const_type, baseType: !948)
!993 = !DISubprogram(name: "addr", linkageName: "_ZNK9IPAddress4addrEv", scope: !948, file: !949, line: 91, type: !994, scopeLine: 91, flags: DIFlagPublic | DIFlagPrototyped, spFlags: DISPFlagOptimized)
!994 = !DISubroutineType(types: !995)
!995 = !{!25, !991}
!996 = !DISubprogram(name: "operator unsigned int", linkageName: "_ZNK9IPAddresscvjEv", scope: !948, file: !949, line: 99, type: !994, scopeLine: 99, flags: DIFlagPublic | DIFlagPrototyped, spFlags: DISPFlagOptimized)
!997 = !DISubprogram(name: "is_multicast", linkageName: "_ZNK9IPAddress12is_multicastEv", scope: !948, file: !949, line: 106, type: !989, scopeLine: 106, flags: DIFlagPublic | DIFlagPrototyped, spFlags: DISPFlagOptimized)
!998 = !DISubprogram(name: "is_link_local", linkageName: "_ZNK9IPAddress13is_link_localEv", scope: !948, file: !949, line: 110, type: !989, scopeLine: 110, flags: DIFlagPublic | DIFlagPrototyped, spFlags: DISPFlagOptimized)
!999 = !DISubprogram(name: "in_addr", linkageName: "_ZNK9IPAddress7in_addrEv", scope: !948, file: !949, line: 114, type: !1000, scopeLine: 114, flags: DIFlagPublic | DIFlagPrototyped, spFlags: DISPFlagOptimized)
!1000 = !DISubroutineType(types: !1001)
!1001 = !{!188, !991}
!1002 = !DISubprogram(name: "operator in_addr", linkageName: "_ZNK9IPAddresscv7in_addrEv", scope: !948, file: !949, line: 115, type: !1000, scopeLine: 115, flags: DIFlagPublic | DIFlagPrototyped, spFlags: DISPFlagOptimized)
!1003 = !DISubprogram(name: "data", linkageName: "_ZN9IPAddress4dataEv", scope: !948, file: !949, line: 117, type: !1004, scopeLine: 117, flags: DIFlagPublic | DIFlagPrototyped, spFlags: DISPFlagOptimized)
!1004 = !DISubroutineType(types: !1005)
!1005 = !{!92, !955}
!1006 = !DISubprogram(name: "data", linkageName: "_ZNK9IPAddress4dataEv", scope: !948, file: !949, line: 118, type: !1007, scopeLine: 118, flags: DIFlagPublic | DIFlagPrototyped, spFlags: DISPFlagOptimized)
!1007 = !DISubroutineType(types: !1008)
!1008 = !{!267, !991}
!1009 = !DISubprogram(name: "hashcode", linkageName: "_ZNK9IPAddress8hashcodeEv", scope: !948, file: !949, line: 120, type: !994, scopeLine: 120, flags: DIFlagPublic | DIFlagPrototyped, spFlags: DISPFlagOptimized)
!1010 = !DISubprogram(name: "mask_to_prefix_len", linkageName: "_ZNK9IPAddress18mask_to_prefix_lenEv", scope: !948, file: !949, line: 122, type: !1011, scopeLine: 122, flags: DIFlagPublic | DIFlagPrototyped, spFlags: DISPFlagOptimized)
!1011 = !DISubroutineType(types: !1012)
!1012 = !{!46, !991}
!1013 = !DISubprogram(name: "matches_prefix", linkageName: "_ZNK9IPAddress14matches_prefixES_S_", scope: !948, file: !949, line: 123, type: !1014, scopeLine: 123, flags: DIFlagPublic | DIFlagPrototyped, spFlags: DISPFlagOptimized)
!1014 = !DISubroutineType(types: !1015)
!1015 = !{!65, !991, !948, !948}
!1016 = !DISubprogram(name: "mask_as_specific", linkageName: "_ZNK9IPAddress16mask_as_specificES_", scope: !948, file: !949, line: 124, type: !1017, scopeLine: 124, flags: DIFlagPublic | DIFlagPrototyped, spFlags: DISPFlagOptimized)
!1017 = !DISubroutineType(types: !1018)
!1018 = !{!65, !991, !948}
!1019 = !DISubprogram(name: "mask_more_specific", linkageName: "_ZNK9IPAddress18mask_more_specificES_", scope: !948, file: !949, line: 125, type: !1017, scopeLine: 125, flags: DIFlagPublic | DIFlagPrototyped, spFlags: DISPFlagOptimized)
!1020 = !DISubprogram(name: "operator&=", linkageName: "_ZN9IPAddressaNES_", scope: !948, file: !949, line: 137, type: !1021, scopeLine: 137, flags: DIFlagPublic | DIFlagPrototyped, spFlags: DISPFlagOptimized)
!1021 = !DISubroutineType(types: !1022)
!1022 = !{!1023, !955, !948}
!1023 = !DIDerivedType(tag: DW_TAG_reference_type, baseType: !948, size: 64)
!1024 = !DISubprogram(name: "operator|=", linkageName: "_ZN9IPAddressoRES_", scope: !948, file: !949, line: 138, type: !1021, scopeLine: 138, flags: DIFlagPublic | DIFlagPrototyped, spFlags: DISPFlagOptimized)
!1025 = !DISubprogram(name: "operator^=", linkageName: "_ZN9IPAddresseOES_", scope: !948, file: !949, line: 139, type: !1021, scopeLine: 139, flags: DIFlagPublic | DIFlagPrototyped, spFlags: DISPFlagOptimized)
!1026 = !DISubprogram(name: "unparse", linkageName: "_ZNK9IPAddress7unparseEv", scope: !948, file: !949, line: 141, type: !1027, scopeLine: 141, flags: DIFlagPublic | DIFlagPrototyped, spFlags: DISPFlagOptimized)
!1027 = !DISubroutineType(types: !1028)
!1028 = !{!566, !991}
!1029 = !DISubprogram(name: "unparse_mask", linkageName: "_ZNK9IPAddress12unparse_maskEv", scope: !948, file: !949, line: 142, type: !1027, scopeLine: 142, flags: DIFlagPublic | DIFlagPrototyped, spFlags: DISPFlagOptimized)
!1030 = !DISubprogram(name: "unparse_with_mask", linkageName: "_ZNK9IPAddress17unparse_with_maskES_", scope: !948, file: !949, line: 143, type: !1031, scopeLine: 143, flags: DIFlagPublic | DIFlagPrototyped, spFlags: DISPFlagOptimized)
!1031 = !DISubroutineType(types: !1032)
!1032 = !{!566, !991, !948}
!1033 = !DISubprogram(name: "s", linkageName: "_ZNK9IPAddress1sEv", scope: !948, file: !949, line: 145, type: !1027, scopeLine: 145, flags: DIFlagPublic | DIFlagPrototyped, spFlags: DISPFlagOptimized)
!1034 = !DISubprogram(name: "operator String", linkageName: "_ZNK9IPAddresscv6StringEv", scope: !948, file: !949, line: 146, type: !1027, scopeLine: 146, flags: DIFlagPublic | DIFlagPrototyped, spFlags: DISPFlagOptimized)
!1035 = !DISubprogram(name: "set_dst_ip_anno", linkageName: "_ZN6Packet15set_dst_ip_annoE9IPAddress", scope: !18, file: !17, line: 436, type: !1036, scopeLine: 436, flags: DIFlagPublic | DIFlagPrototyped, spFlags: DISPFlagOptimized)
!1036 = !DISubroutineType(types: !1037)
!1037 = !{null, !253, !948}
!1038 = !DISubprogram(name: "anno", linkageName: "_ZN6Packet4annoEv", scope: !18, file: !17, line: 441, type: !285, scopeLine: 441, flags: DIFlagPublic | DIFlagPrototyped, spFlags: DISPFlagOptimized)
!1039 = !DISubprogram(name: "anno", linkageName: "_ZNK6Packet4annoEv", scope: !18, file: !17, line: 444, type: !1040, scopeLine: 444, flags: DIFlagPublic | DIFlagPrototyped, spFlags: DISPFlagOptimized)
!1040 = !DISubroutineType(types: !1041)
!1041 = !{!236, !257}
!1042 = !DISubprogram(name: "anno_u8", linkageName: "_ZN6Packet7anno_u8Ev", scope: !18, file: !17, line: 447, type: !1043, scopeLine: 447, flags: DIFlagPublic | DIFlagPrototyped, spFlags: DISPFlagOptimized)
!1043 = !DISubroutineType(types: !1044)
!1044 = !{!1045, !253}
!1045 = !DIDerivedType(tag: DW_TAG_pointer_type, baseType: !110, size: 64)
!1046 = !DISubprogram(name: "anno_u8", linkageName: "_ZNK6Packet7anno_u8Ev", scope: !18, file: !17, line: 450, type: !1047, scopeLine: 450, flags: DIFlagPublic | DIFlagPrototyped, spFlags: DISPFlagOptimized)
!1047 = !DISubroutineType(types: !1048)
!1048 = !{!1049, !257}
!1049 = !DIDerivedType(tag: DW_TAG_pointer_type, baseType: !1050, size: 64)
!1050 = !DIDerivedType(tag: DW_TAG_const_type, baseType: !110)
!1051 = !DISubprogram(name: "anno_u32", linkageName: "_ZN6Packet8anno_u32Ev", scope: !18, file: !17, line: 453, type: !1052, scopeLine: 453, flags: DIFlagPublic | DIFlagPrototyped, spFlags: DISPFlagOptimized)
!1052 = !DISubroutineType(types: !1053)
!1053 = !{!1054, !253}
!1054 = !DIDerivedType(tag: DW_TAG_pointer_type, baseType: !25, size: 64)
!1055 = !DISubprogram(name: "anno_u32", linkageName: "_ZNK6Packet8anno_u32Ev", scope: !18, file: !17, line: 456, type: !1056, scopeLine: 456, flags: DIFlagPublic | DIFlagPrototyped, spFlags: DISPFlagOptimized)
!1056 = !DISubroutineType(types: !1057)
!1057 = !{!1058, !257}
!1058 = !DIDerivedType(tag: DW_TAG_pointer_type, baseType: !1059, size: 64)
!1059 = !DIDerivedType(tag: DW_TAG_const_type, baseType: !25)
!1060 = !DISubprogram(name: "anno_u8", linkageName: "_ZNK6Packet7anno_u8Ei", scope: !18, file: !17, line: 460, type: !1061, scopeLine: 460, flags: DIFlagPublic | DIFlagPrototyped, spFlags: DISPFlagOptimized)
!1061 = !DISubroutineType(types: !1062)
!1062 = !{!110, !257, !46}
!1063 = !DISubprogram(name: "set_anno_u8", linkageName: "_ZN6Packet11set_anno_u8Eih", scope: !18, file: !17, line: 469, type: !1064, scopeLine: 469, flags: DIFlagPublic | DIFlagPrototyped, spFlags: DISPFlagOptimized)
!1064 = !DISubroutineType(types: !1065)
!1065 = !{null, !253, !46, !110}
!1066 = !DISubprogram(name: "anno_u16", linkageName: "_ZNK6Packet8anno_u16Ei", scope: !18, file: !17, line: 479, type: !1067, scopeLine: 479, flags: DIFlagPublic | DIFlagPrototyped, spFlags: DISPFlagOptimized)
!1067 = !DISubroutineType(types: !1068)
!1068 = !{!114, !257, !46}
!1069 = !DISubprogram(name: "set_anno_u16", linkageName: "_ZN6Packet12set_anno_u16Eit", scope: !18, file: !17, line: 494, type: !1070, scopeLine: 494, flags: DIFlagPublic | DIFlagPrototyped, spFlags: DISPFlagOptimized)
!1070 = !DISubroutineType(types: !1071)
!1071 = !{null, !253, !46, !114}
!1072 = !DISubprogram(name: "anno_s16", linkageName: "_ZNK6Packet8anno_s16Ei", scope: !18, file: !17, line: 507, type: !1073, scopeLine: 507, flags: DIFlagPublic | DIFlagPrototyped, spFlags: DISPFlagOptimized)
!1073 = !DISubroutineType(types: !1074)
!1074 = !{!1075, !257, !46}
!1075 = !DIDerivedType(tag: DW_TAG_typedef, name: "int16_t", file: !44, line: 25, baseType: !1076)
!1076 = !DIDerivedType(tag: DW_TAG_typedef, name: "__int16_t", file: !28, line: 39, baseType: !1077)
!1077 = !DIBasicType(name: "short", size: 16, encoding: DW_ATE_signed)
!1078 = !DISubprogram(name: "set_anno_s16", linkageName: "_ZN6Packet12set_anno_s16Eis", scope: !18, file: !17, line: 522, type: !1079, scopeLine: 522, flags: DIFlagPublic | DIFlagPrototyped, spFlags: DISPFlagOptimized)
!1079 = !DISubroutineType(types: !1080)
!1080 = !{null, !253, !46, !1075}
!1081 = !DISubprogram(name: "anno_u32", linkageName: "_ZNK6Packet8anno_u32Ei", scope: !18, file: !17, line: 535, type: !1082, scopeLine: 535, flags: DIFlagPublic | DIFlagPrototyped, spFlags: DISPFlagOptimized)
!1082 = !DISubroutineType(types: !1083)
!1083 = !{!25, !257, !46}
!1084 = !DISubprogram(name: "set_anno_u32", linkageName: "_ZN6Packet12set_anno_u32Eij", scope: !18, file: !17, line: 550, type: !1085, scopeLine: 550, flags: DIFlagPublic | DIFlagPrototyped, spFlags: DISPFlagOptimized)
!1085 = !DISubroutineType(types: !1086)
!1086 = !{null, !253, !46, !25}
!1087 = !DISubprogram(name: "anno_s32", linkageName: "_ZNK6Packet8anno_s32Ei", scope: !18, file: !17, line: 556, type: !1088, scopeLine: 556, flags: DIFlagPublic | DIFlagPrototyped, spFlags: DISPFlagOptimized)
!1088 = !DISubroutineType(types: !1089)
!1089 = !{!43, !257, !46}
!1090 = !DISubprogram(name: "set_anno_s32", linkageName: "_ZN6Packet12set_anno_s32Eii", scope: !18, file: !17, line: 571, type: !1091, scopeLine: 571, flags: DIFlagPublic | DIFlagPrototyped, spFlags: DISPFlagOptimized)
!1091 = !DISubroutineType(types: !1092)
!1092 = !{null, !253, !46, !43}
!1093 = !DISubprogram(name: "anno_u64", linkageName: "_ZNK6Packet8anno_u64Ei", scope: !18, file: !17, line: 585, type: !1094, scopeLine: 585, flags: DIFlagPublic | DIFlagPrototyped, spFlags: DISPFlagOptimized)
!1094 = !DISubroutineType(types: !1095)
!1095 = !{!125, !257, !46}
!1096 = !DISubprogram(name: "set_anno_u64", linkageName: "_ZN6Packet12set_anno_u64Eim", scope: !18, file: !17, line: 600, type: !1097, scopeLine: 600, flags: DIFlagPublic | DIFlagPrototyped, spFlags: DISPFlagOptimized)
!1097 = !DISubroutineType(types: !1098)
!1098 = !{null, !253, !46, !125}
!1099 = !DISubprogram(name: "anno_ptr", linkageName: "_ZNK6Packet8anno_ptrEi", scope: !18, file: !17, line: 614, type: !1100, scopeLine: 614, flags: DIFlagPublic | DIFlagPrototyped, spFlags: DISPFlagOptimized)
!1100 = !DISubroutineType(types: !1101)
!1101 = !{!147, !257, !46}
!1102 = !DISubprogram(name: "set_anno_ptr", linkageName: "_ZN6Packet12set_anno_ptrEiPKv", scope: !18, file: !17, line: 629, type: !1103, scopeLine: 629, flags: DIFlagPublic | DIFlagPrototyped, spFlags: DISPFlagOptimized)
!1103 = !DISubroutineType(types: !1104)
!1104 = !{null, !253, !46, !236}
!1105 = !DISubprogram(name: "data_packet", linkageName: "_ZN6Packet11data_packetEv", scope: !18, file: !17, line: 638, type: !259, scopeLine: 638, flags: DIFlagPublic | DIFlagPrototyped, spFlags: DISPFlagOptimized)
!1106 = !DISubprogram(name: "clear_annotations", linkageName: "_ZN6Packet17clear_annotationsEb", scope: !18, file: !17, line: 643, type: !1107, scopeLine: 643, flags: DIFlagPublic | DIFlagPrototyped, spFlags: DISPFlagOptimized)
!1107 = !DISubroutineType(types: !1108)
!1108 = !{null, !253, !65}
!1109 = !DISubprogram(name: "copy_annotations", linkageName: "_ZN6Packet16copy_annotationsEPKS_", scope: !18, file: !17, line: 644, type: !1110, scopeLine: 644, flags: DIFlagPublic | DIFlagPrototyped, spFlags: DISPFlagOptimized)
!1110 = !DISubroutineType(types: !1111)
!1111 = !{null, !253, !1112}
!1112 = !DIDerivedType(tag: DW_TAG_pointer_type, baseType: !225, size: 64)
!1113 = !DISubprogram(name: "buffer_data", linkageName: "_ZNK6Packet11buffer_dataEv", scope: !18, file: !17, line: 661, type: !265, scopeLine: 661, flags: DIFlagPublic | DIFlagPrototyped, spFlags: DISPFlagOptimized)
!1114 = !DISubprogram(name: "addr_anno", linkageName: "_ZN6Packet9addr_annoEv", scope: !18, file: !17, line: 662, type: !285, scopeLine: 662, flags: DIFlagPublic | DIFlagPrototyped, spFlags: DISPFlagOptimized)
!1115 = !DISubprogram(name: "addr_anno", linkageName: "_ZNK6Packet9addr_annoEv", scope: !18, file: !17, line: 663, type: !1040, scopeLine: 663, flags: DIFlagPublic | DIFlagPrototyped, spFlags: DISPFlagOptimized)
!1116 = !DISubprogram(name: "user_anno", linkageName: "_ZN6Packet9user_annoEv", scope: !18, file: !17, line: 664, type: !285, scopeLine: 664, flags: DIFlagPublic | DIFlagPrototyped, spFlags: DISPFlagOptimized)
!1117 = !DISubprogram(name: "user_anno", linkageName: "_ZNK6Packet9user_annoEv", scope: !18, file: !17, line: 665, type: !1040, scopeLine: 665, flags: DIFlagPublic | DIFlagPrototyped, spFlags: DISPFlagOptimized)
!1118 = !DISubprogram(name: "user_anno_u8", linkageName: "_ZN6Packet12user_anno_u8Ev", scope: !18, file: !17, line: 666, type: !1043, scopeLine: 666, flags: DIFlagPublic | DIFlagPrototyped, spFlags: DISPFlagOptimized)
!1119 = !DISubprogram(name: "user_anno_u8", linkageName: "_ZNK6Packet12user_anno_u8Ev", scope: !18, file: !17, line: 667, type: !1047, scopeLine: 667, flags: DIFlagPublic | DIFlagPrototyped, spFlags: DISPFlagOptimized)
!1120 = !DISubprogram(name: "user_anno_u32", linkageName: "_ZN6Packet13user_anno_u32Ev", scope: !18, file: !17, line: 668, type: !1052, scopeLine: 668, flags: DIFlagPublic | DIFlagPrototyped, spFlags: DISPFlagOptimized)
!1121 = !DISubprogram(name: "user_anno_u32", linkageName: "_ZNK6Packet13user_anno_u32Ev", scope: !18, file: !17, line: 669, type: !1056, scopeLine: 669, flags: DIFlagPublic | DIFlagPrototyped, spFlags: DISPFlagOptimized)
!1122 = !DISubprogram(name: "user_anno_u8", linkageName: "_ZNK6Packet12user_anno_u8Ei", scope: !18, file: !17, line: 670, type: !1061, scopeLine: 670, flags: DIFlagPublic | DIFlagPrototyped, spFlags: DISPFlagOptimized)
!1123 = !DISubprogram(name: "set_user_anno_u8", linkageName: "_ZN6Packet16set_user_anno_u8Eih", scope: !18, file: !17, line: 671, type: !1064, scopeLine: 671, flags: DIFlagPublic | DIFlagPrototyped, spFlags: DISPFlagOptimized)
!1124 = !DISubprogram(name: "user_anno_u16", linkageName: "_ZNK6Packet13user_anno_u16Ei", scope: !18, file: !17, line: 672, type: !1067, scopeLine: 672, flags: DIFlagPublic | DIFlagPrototyped, spFlags: DISPFlagOptimized)
!1125 = !DISubprogram(name: "set_user_anno_u16", linkageName: "_ZN6Packet17set_user_anno_u16Eit", scope: !18, file: !17, line: 673, type: !1070, scopeLine: 673, flags: DIFlagPublic | DIFlagPrototyped, spFlags: DISPFlagOptimized)
!1126 = !DISubprogram(name: "user_anno_u32", linkageName: "_ZNK6Packet13user_anno_u32Ei", scope: !18, file: !17, line: 674, type: !1082, scopeLine: 674, flags: DIFlagPublic | DIFlagPrototyped, spFlags: DISPFlagOptimized)
!1127 = !DISubprogram(name: "set_user_anno_u32", linkageName: "_ZN6Packet17set_user_anno_u32Eij", scope: !18, file: !17, line: 675, type: !1085, scopeLine: 675, flags: DIFlagPublic | DIFlagPrototyped, spFlags: DISPFlagOptimized)
!1128 = !DISubprogram(name: "user_anno_s32", linkageName: "_ZNK6Packet13user_anno_s32Ei", scope: !18, file: !17, line: 676, type: !1088, scopeLine: 676, flags: DIFlagPublic | DIFlagPrototyped, spFlags: DISPFlagOptimized)
!1129 = !DISubprogram(name: "set_user_anno_s32", linkageName: "_ZN6Packet17set_user_anno_s32Eii", scope: !18, file: !17, line: 677, type: !1091, scopeLine: 677, flags: DIFlagPublic | DIFlagPrototyped, spFlags: DISPFlagOptimized)
!1130 = !DISubprogram(name: "user_anno_u64", linkageName: "_ZNK6Packet13user_anno_u64Ei", scope: !18, file: !17, line: 679, type: !1094, scopeLine: 679, flags: DIFlagPublic | DIFlagPrototyped, spFlags: DISPFlagOptimized)
!1131 = !DISubprogram(name: "set_user_anno_u64", linkageName: "_ZN6Packet17set_user_anno_u64Eim", scope: !18, file: !17, line: 680, type: !1097, scopeLine: 680, flags: DIFlagPublic | DIFlagPrototyped, spFlags: DISPFlagOptimized)
!1132 = !DISubprogram(name: "all_user_anno", linkageName: "_ZNK6Packet13all_user_annoEv", scope: !18, file: !17, line: 682, type: !1047, scopeLine: 682, flags: DIFlagPublic | DIFlagPrototyped, spFlags: DISPFlagOptimized)
!1133 = !DISubprogram(name: "all_user_anno", linkageName: "_ZN6Packet13all_user_annoEv", scope: !18, file: !17, line: 683, type: !1043, scopeLine: 683, flags: DIFlagPublic | DIFlagPrototyped, spFlags: DISPFlagOptimized)
!1134 = !DISubprogram(name: "all_user_anno_u", linkageName: "_ZNK6Packet15all_user_anno_uEv", scope: !18, file: !17, line: 684, type: !1056, scopeLine: 684, flags: DIFlagPublic | DIFlagPrototyped, spFlags: DISPFlagOptimized)
!1135 = !DISubprogram(name: "all_user_anno_u", linkageName: "_ZN6Packet15all_user_anno_uEv", scope: !18, file: !17, line: 685, type: !1052, scopeLine: 685, flags: DIFlagPublic | DIFlagPrototyped, spFlags: DISPFlagOptimized)
!1136 = !DISubprogram(name: "user_anno_c", linkageName: "_ZNK6Packet11user_anno_cEi", scope: !18, file: !17, line: 686, type: !1061, scopeLine: 686, flags: DIFlagPublic | DIFlagPrototyped, spFlags: DISPFlagOptimized)
!1137 = !DISubprogram(name: "set_user_anno_c", linkageName: "_ZN6Packet15set_user_anno_cEih", scope: !18, file: !17, line: 687, type: !1064, scopeLine: 687, flags: DIFlagPublic | DIFlagPrototyped, spFlags: DISPFlagOptimized)
!1138 = !DISubprogram(name: "user_anno_s", linkageName: "_ZNK6Packet11user_anno_sEi", scope: !18, file: !17, line: 688, type: !1073, scopeLine: 688, flags: DIFlagPublic | DIFlagPrototyped, spFlags: DISPFlagOptimized)
!1139 = !DISubprogram(name: "set_user_anno_s", linkageName: "_ZN6Packet15set_user_anno_sEis", scope: !18, file: !17, line: 689, type: !1079, scopeLine: 689, flags: DIFlagPublic | DIFlagPrototyped, spFlags: DISPFlagOptimized)
!1140 = !DISubprogram(name: "user_anno_us", linkageName: "_ZNK6Packet12user_anno_usEi", scope: !18, file: !17, line: 690, type: !1067, scopeLine: 690, flags: DIFlagPublic | DIFlagPrototyped, spFlags: DISPFlagOptimized)
!1141 = !DISubprogram(name: "set_user_anno_us", linkageName: "_ZN6Packet16set_user_anno_usEit", scope: !18, file: !17, line: 691, type: !1070, scopeLine: 691, flags: DIFlagPublic | DIFlagPrototyped, spFlags: DISPFlagOptimized)
!1142 = !DISubprogram(name: "user_anno_i", linkageName: "_ZNK6Packet11user_anno_iEi", scope: !18, file: !17, line: 692, type: !1088, scopeLine: 692, flags: DIFlagPublic | DIFlagPrototyped, spFlags: DISPFlagOptimized)
!1143 = !DISubprogram(name: "set_user_anno_i", linkageName: "_ZN6Packet15set_user_anno_iEii", scope: !18, file: !17, line: 693, type: !1091, scopeLine: 693, flags: DIFlagPublic | DIFlagPrototyped, spFlags: DISPFlagOptimized)
!1144 = !DISubprogram(name: "user_anno_u", linkageName: "_ZNK6Packet11user_anno_uEi", scope: !18, file: !17, line: 694, type: !1082, scopeLine: 694, flags: DIFlagPublic | DIFlagPrototyped, spFlags: DISPFlagOptimized)
!1145 = !DISubprogram(name: "set_user_anno_u", linkageName: "_ZN6Packet15set_user_anno_uEij", scope: !18, file: !17, line: 695, type: !1085, scopeLine: 695, flags: DIFlagPublic | DIFlagPrototyped, spFlags: DISPFlagOptimized)
!1146 = !DISubprogram(name: "Packet", scope: !18, file: !17, line: 751, type: !251, scopeLine: 751, flags: DIFlagPrototyped, spFlags: DISPFlagOptimized)
!1147 = !DISubprogram(name: "Packet", scope: !18, file: !17, line: 756, type: !1148, scopeLine: 756, flags: DIFlagPrototyped, spFlags: DISPFlagOptimized)
!1148 = !DISubroutineType(types: !1149)
!1149 = !{null, !253, !224}
!1150 = !DISubprogram(name: "~Packet", scope: !18, file: !17, line: 757, type: !251, scopeLine: 757, flags: DIFlagPrototyped, spFlags: DISPFlagOptimized)
!1151 = !DISubprogram(name: "operator=", linkageName: "_ZN6PacketaSERKS_", scope: !18, file: !17, line: 758, type: !1152, scopeLine: 758, flags: DIFlagPrototyped, spFlags: DISPFlagOptimized)
!1152 = !DISubroutineType(types: !1153)
!1153 = !{!1154, !253, !224}
!1154 = !DIDerivedType(tag: DW_TAG_reference_type, baseType: !18, size: 64)
!1155 = !DISubprogram(name: "alloc_data", linkageName: "_ZN6Packet10alloc_dataEjjj", scope: !18, file: !17, line: 761, type: !1156, scopeLine: 761, flags: DIFlagPrototyped, spFlags: DISPFlagOptimized)
!1156 = !DISubroutineType(types: !1157)
!1157 = !{!65, !253, !25, !25, !25}
!1158 = !DISubprogram(name: "shift_header_annotations", linkageName: "_ZN6Packet24shift_header_annotationsEPKhi", scope: !18, file: !17, line: 768, type: !1159, scopeLine: 768, flags: DIFlagPrototyped, spFlags: DISPFlagOptimized)
!1159 = !DISubroutineType(types: !1160)
!1160 = !{null, !253, !267, !43}
!1161 = !DISubprogram(name: "expensive_uniqueify", linkageName: "_ZN6Packet19expensive_uniqueifyEiib", scope: !18, file: !17, line: 769, type: !1162, scopeLine: 769, flags: DIFlagPrototyped, spFlags: DISPFlagOptimized)
!1162 = !DISubroutineType(types: !1163)
!1163 = !{!152, !253, !43, !43, !65}
!1164 = !DISubprogram(name: "expensive_push", linkageName: "_ZN6Packet14expensive_pushEj", scope: !18, file: !17, line: 770, type: !289, scopeLine: 770, flags: DIFlagPrototyped, spFlags: DISPFlagOptimized)
!1165 = !DISubprogram(name: "expensive_put", linkageName: "_ZN6Packet13expensive_putEj", scope: !18, file: !17, line: 771, type: !289, scopeLine: 771, flags: DIFlagPrototyped, spFlags: DISPFlagOptimized)
!1166 = !{!1167, !1168, !1169, !1170, !1171, !1172, !1173}
!1167 = !DIEnumerator(name: "HOST", value: 0, isUnsigned: true)
!1168 = !DIEnumerator(name: "BROADCAST", value: 1, isUnsigned: true)
!1169 = !DIEnumerator(name: "MULTICAST", value: 2, isUnsigned: true)
!1170 = !DIEnumerator(name: "OTHERHOST", value: 3, isUnsigned: true)
!1171 = !DIEnumerator(name: "OUTGOING", value: 4, isUnsigned: true)
!1172 = !DIEnumerator(name: "LOOPBACK", value: 5, isUnsigned: true)
!1173 = !DIEnumerator(name: "FASTROUTE", value: 6, isUnsigned: true)
!1174 = !DICompositeType(tag: DW_TAG_enumeration_type, scope: !1176, file: !1175, line: 62, baseType: !6, size: 32, elements: !1248, identifier: "_ZTSN14NotifierSignalUt_E")
!1175 = !DIFile(filename: "../dummy_inc/click/notifier.hh", directory: "/home/john/projects/click/ir-dir")
!1176 = distinct !DICompositeType(tag: DW_TAG_class_type, name: "NotifierSignal", file: !1175, line: 12, size: 128, flags: DIFlagTypePassByReference | DIFlagNonTrivial, elements: !1177, identifier: "_ZTS14NotifierSignal")
!1177 = !{!1178, !1189, !1190, !1191, !1195, !1198, !1203, !1204, !1207, !1208, !1209, !1210, !1214, !1219, !1222, !1223, !1224, !1225, !1226, !1230, !1231, !1234, !1240, !1241, !1242, !1243}
!1178 = !DIDerivedType(tag: DW_TAG_member, name: "_v", scope: !1176, file: !1175, line: 59, baseType: !1179, size: 64)
!1179 = distinct !DICompositeType(tag: DW_TAG_union_type, name: "vmvalue", scope: !1176, file: !1175, line: 54, size: 64, flags: DIFlagTypePassByValue, elements: !1180, identifier: "_ZTSN14NotifierSignal7vmvalueE")
!1180 = !{!1181, !1183}
!1181 = !DIDerivedType(tag: DW_TAG_member, name: "v1", scope: !1179, file: !1175, line: 55, baseType: !1182, size: 64)
!1182 = !DIDerivedType(tag: DW_TAG_pointer_type, baseType: !21, size: 64)
!1183 = !DIDerivedType(tag: DW_TAG_member, name: "vm", scope: !1179, file: !1175, line: 56, baseType: !1184, size: 64)
!1184 = !DIDerivedType(tag: DW_TAG_pointer_type, baseType: !1185, size: 64)
!1185 = distinct !DICompositeType(tag: DW_TAG_structure_type, name: "vmpair", scope: !1176, file: !1175, line: 50, size: 128, flags: DIFlagTypePassByValue, elements: !1186, identifier: "_ZTSN14NotifierSignal6vmpairE")
!1186 = !{!1187, !1188}
!1187 = !DIDerivedType(tag: DW_TAG_member, name: "value", scope: !1185, file: !1175, line: 51, baseType: !1182, size: 64)
!1188 = !DIDerivedType(tag: DW_TAG_member, name: "mask", scope: !1185, file: !1175, line: 52, baseType: !25, size: 32, offset: 64)
!1189 = !DIDerivedType(tag: DW_TAG_member, name: "_mask", scope: !1176, file: !1175, line: 60, baseType: !25, size: 32, offset: 64)
!1190 = !DIDerivedType(tag: DW_TAG_member, name: "static_value", scope: !1176, file: !1175, line: 66, baseType: !21, flags: DIFlagStaticMember)
!1191 = !DISubprogram(name: "NotifierSignal", scope: !1176, file: !1175, line: 16, type: !1192, scopeLine: 16, flags: DIFlagPublic | DIFlagPrototyped, spFlags: DISPFlagOptimized)
!1192 = !DISubroutineType(types: !1193)
!1193 = !{null, !1194}
!1194 = !DIDerivedType(tag: DW_TAG_pointer_type, baseType: !1176, size: 64, flags: DIFlagArtificial | DIFlagObjectPointer)
!1195 = !DISubprogram(name: "NotifierSignal", scope: !1176, file: !1175, line: 17, type: !1196, scopeLine: 17, flags: DIFlagPublic | DIFlagPrototyped, spFlags: DISPFlagOptimized)
!1196 = !DISubroutineType(types: !1197)
!1197 = !{null, !1194, !1182, !25}
!1198 = !DISubprogram(name: "NotifierSignal", scope: !1176, file: !1175, line: 18, type: !1199, scopeLine: 18, flags: DIFlagPublic | DIFlagPrototyped, spFlags: DISPFlagOptimized)
!1199 = !DISubroutineType(types: !1200)
!1200 = !{null, !1194, !1201}
!1201 = !DIDerivedType(tag: DW_TAG_reference_type, baseType: !1202, size: 64)
!1202 = !DIDerivedType(tag: DW_TAG_const_type, baseType: !1176)
!1203 = !DISubprogram(name: "~NotifierSignal", scope: !1176, file: !1175, line: 19, type: !1192, scopeLine: 19, flags: DIFlagPublic | DIFlagPrototyped, spFlags: DISPFlagOptimized)
!1204 = !DISubprogram(name: "idle_signal", linkageName: "_ZN14NotifierSignal11idle_signalEv", scope: !1176, file: !1175, line: 21, type: !1205, scopeLine: 21, flags: DIFlagPublic | DIFlagPrototyped | DIFlagStaticMember, spFlags: DISPFlagOptimized)
!1205 = !DISubroutineType(types: !1206)
!1206 = !{!1176}
!1207 = !DISubprogram(name: "busy_signal", linkageName: "_ZN14NotifierSignal11busy_signalEv", scope: !1176, file: !1175, line: 22, type: !1205, scopeLine: 22, flags: DIFlagPublic | DIFlagPrototyped | DIFlagStaticMember, spFlags: DISPFlagOptimized)
!1208 = !DISubprogram(name: "overderived_signal", linkageName: "_ZN14NotifierSignal18overderived_signalEv", scope: !1176, file: !1175, line: 23, type: !1205, scopeLine: 23, flags: DIFlagPublic | DIFlagPrototyped | DIFlagStaticMember, spFlags: DISPFlagOptimized)
!1209 = !DISubprogram(name: "uninitialized_signal", linkageName: "_ZN14NotifierSignal20uninitialized_signalEv", scope: !1176, file: !1175, line: 24, type: !1205, scopeLine: 24, flags: DIFlagPublic | DIFlagPrototyped | DIFlagStaticMember, spFlags: DISPFlagOptimized)
!1210 = !DISubprogram(name: "active", linkageName: "_ZNK14NotifierSignal6activeEv", scope: !1176, file: !1175, line: 26, type: !1211, scopeLine: 26, flags: DIFlagPublic | DIFlagPrototyped, spFlags: DISPFlagOptimized)
!1211 = !DISubroutineType(types: !1212)
!1212 = !{!65, !1213}
!1213 = !DIDerivedType(tag: DW_TAG_pointer_type, baseType: !1202, size: 64, flags: DIFlagArtificial | DIFlagObjectPointer)
!1214 = !DISubprogram(name: "operator bool (NotifierSignal::*)() const", linkageName: "_ZNK14NotifierSignalcvMS_KFbvEEv", scope: !1176, file: !1175, line: 27, type: !1215, scopeLine: 27, flags: DIFlagPublic | DIFlagPrototyped, spFlags: DISPFlagOptimized)
!1215 = !DISubroutineType(types: !1216)
!1216 = !{!1217, !1213}
!1217 = !DIDerivedType(tag: DW_TAG_typedef, name: "unspecified_bool_type", scope: !1176, file: !1175, line: 14, baseType: !1218)
!1218 = !DIDerivedType(tag: DW_TAG_ptr_to_member_type, baseType: !1211, size: 128, extraData: !1176)
!1219 = !DISubprogram(name: "set_active", linkageName: "_ZN14NotifierSignal10set_activeEb", scope: !1176, file: !1175, line: 29, type: !1220, scopeLine: 29, flags: DIFlagPublic | DIFlagPrototyped, spFlags: DISPFlagOptimized)
!1220 = !DISubroutineType(types: !1221)
!1221 = !{!65, !1194, !65}
!1222 = !DISubprogram(name: "idle", linkageName: "_ZNK14NotifierSignal4idleEv", scope: !1176, file: !1175, line: 31, type: !1211, scopeLine: 31, flags: DIFlagPublic | DIFlagPrototyped, spFlags: DISPFlagOptimized)
!1223 = !DISubprogram(name: "busy", linkageName: "_ZNK14NotifierSignal4busyEv", scope: !1176, file: !1175, line: 32, type: !1211, scopeLine: 32, flags: DIFlagPublic | DIFlagPrototyped, spFlags: DISPFlagOptimized)
!1224 = !DISubprogram(name: "overderived", linkageName: "_ZNK14NotifierSignal11overderivedEv", scope: !1176, file: !1175, line: 33, type: !1211, scopeLine: 33, flags: DIFlagPublic | DIFlagPrototyped, spFlags: DISPFlagOptimized)
!1225 = !DISubprogram(name: "initialized", linkageName: "_ZNK14NotifierSignal11initializedEv", scope: !1176, file: !1175, line: 34, type: !1211, scopeLine: 34, flags: DIFlagPublic | DIFlagPrototyped, spFlags: DISPFlagOptimized)
!1226 = !DISubprogram(name: "operator=", linkageName: "_ZN14NotifierSignalaSERKS_", scope: !1176, file: !1175, line: 39, type: !1227, scopeLine: 39, flags: DIFlagPublic | DIFlagPrototyped, spFlags: DISPFlagOptimized)
!1227 = !DISubroutineType(types: !1228)
!1228 = !{!1229, !1194, !1201}
!1229 = !DIDerivedType(tag: DW_TAG_reference_type, baseType: !1176, size: 64)
!1230 = !DISubprogram(name: "operator+=", linkageName: "_ZN14NotifierSignalpLERKS_", scope: !1176, file: !1175, line: 40, type: !1227, scopeLine: 40, flags: DIFlagPublic | DIFlagPrototyped, spFlags: DISPFlagOptimized)
!1231 = !DISubprogram(name: "swap", linkageName: "_ZN14NotifierSignal4swapERS_", scope: !1176, file: !1175, line: 43, type: !1232, scopeLine: 43, flags: DIFlagPublic | DIFlagPrototyped, spFlags: DISPFlagOptimized)
!1232 = !DISubroutineType(types: !1233)
