; ModuleID = '../elements/standard/randomerror.cc'
source_filename = "../elements/standard/randomerror.cc"
target datalayout = "e-m:e-p270:32:32-p271:32:32-p272:64:64-i64:64-f80:128-n8:16:32:64-S128"
target triple = "x86_64-pc-linux-gnu"

%class.RandomBitErrors = type <{ %class.Element.base, [9 x i32], i32, i32, i8, [7 x i8] }>
%class.Element.base = type <{ i32 (...)**, [2 x %"class.Element::Port"*], [4 x %"class.Element::Port"], [2 x i32], %class.Router*, i32 }>
%"class.Element::Port" = type <{ %class.Element*, i32, [4 x i8] }>
%class.Element = type <{ i32 (...)**, [2 x %"class.Element::Port"*], [4 x %"class.Element::Port"], [2 x i32], %class.Router*, i32, [4 x i8] }>
%class.Router = type opaque
%class.Vector = type { %class.vector_memory }
%class.vector_memory = type { %class.String*, i32, i32 }
%class.String = type { %"struct.String::rep_t" }
%"struct.String::rep_t" = type { i8*, i32, %"struct.String::memo_t"* }
%"struct.String::memo_t" = type { i32, i32, i32, [8 x i8] }
%class.ErrorHandler = type <{ i32 (...)**, i32, [4 x i8] }>
%class.Args = type { %class.ArgContext.base, i8, i8, i8, %class.Vector*, %class.Vector.0, %"struct.Args::Slot"*, [48 x i8] }
%class.ArgContext.base = type <{ %class.Element*, %class.ErrorHandler*, i8*, i8 }>
%class.Vector.0 = type { %class.vector_memory.1 }
%class.vector_memory.1 = type { %struct.char_array*, i32, i32 }
%struct.char_array = type opaque
%"struct.Args::Slot" = type { i32 (...)**, %"struct.Args::Slot"* }
%class.Packet = type { %class.atomic_uint32_t, %class.Packet*, i8*, i8*, i8*, i8*, %"struct.Packet::AllAnno", void (i8*, i64, i8*)*, i8* }
%class.atomic_uint32_t = type { i32 }
%"struct.Packet::AllAnno" = type { %"union.Packet::Anno", i8*, i8*, i8*, i32, [8 x i8], %class.Packet*, %class.Packet* }
%"union.Packet::Anno" = type { [6 x i64] }
%class.WritablePacket = type { %class.Packet }
%class.Task = type opaque
%class.Timer = type opaque
%class.FixedPointArg = type { i32, i32, i32 }
%class.ArgContext = type <{ %class.Element*, %class.ErrorHandler*, i8*, i8, [7 x i8] }>
%"struct.Args::SlotT" = type { %"struct.Args::Slot", %class.String*, %class.String }

$_ZN15RandomBitErrorsD0Ev = comdat any

$_ZNK15RandomBitErrors10class_nameEv = comdat any

$_ZNK15RandomBitErrors10port_countEv = comdat any

$_ZNK15RandomBitErrors20can_live_reconfigureEv = comdat any

$_ZNK6String6lengthEv = comdat any

$__clang_call_terminate = comdat any

$_Z14args_base_readI13FixedPointArgjEvP4ArgsPKciT_RT0_ = comdat any

$_ZN4Args9base_readI13FixedPointArgjEEvPKciT_RT0_ = comdat any

$_Z14args_base_readI6StringEvP4ArgsPKciRT_ = comdat any

$_ZN4Args9base_readI6StringEEvPKciRT_ = comdat any

$_ZN4Args5SlotTI6StringED2Ev = comdat any

$_ZN4Args5SlotTI6StringED0Ev = comdat any

$_ZN4Args5SlotTI6StringE5storeEv = comdat any

$_Z14args_base_readIbEvP4ArgsPKciRT_ = comdat any

$_ZN4Args9base_readIbEEvPKciRT_ = comdat any

$_ZTVN4Args5SlotTI6StringEE = comdat any

$_ZTSN4Args5SlotTI6StringEE = comdat any

$_ZTSN4Args4SlotE = comdat any

$_ZTIN4Args4SlotE = comdat any

$_ZTIN4Args5SlotTI6StringEE = comdat any

@_ZTV15RandomBitErrors = dso_local unnamed_addr constant { [29 x i8*] } { [29 x i8*] [i8* null, i8* bitcast ({ i8*, i8*, i8* }* @_ZTI15RandomBitErrors to i8*), i8* bitcast (void (%class.Element*)* @_ZN7ElementD2Ev to i8*), i8* bitcast (void (%class.RandomBitErrors*)* @_ZN15RandomBitErrorsD0Ev to i8*), i8* bitcast (void (%class.Element*, i32, %class.Packet*)* @_ZN7Element4pushEiP6Packet to i8*), i8* bitcast (%class.Packet* (%class.Element*, i32)* @_ZN7Element4pullEi to i8*), i8* bitcast (%class.Packet* (%class.RandomBitErrors*, %class.Packet*)* @_ZN15RandomBitErrors13simple_actionEP6Packet to i8*), i8* bitcast (i1 (%class.Element*, %class.Task*)* @_ZN7Element8run_taskEP4Task to i8*), i8* bitcast (void (%class.Element*, %class.Timer*)* @_ZN7Element9run_timerEP5Timer to i8*), i8* bitcast (void (%class.Element*, i32, i32)* @_ZN7Element8selectedEii to i8*), i8* bitcast (void (%class.Element*, i32)* @_ZN7Element8selectedEi to i8*), i8* bitcast (i8* (%class.RandomBitErrors*)* @_ZNK15RandomBitErrors10class_nameEv to i8*), i8* bitcast (i8* (%class.RandomBitErrors*)* @_ZNK15RandomBitErrors10port_countEv to i8*), i8* bitcast (i8* (%class.Element*)* @_ZNK7Element10processingEv to i8*), i8* bitcast (i8* (%class.Element*)* @_ZNK7Element9flow_codeEv to i8*), i8* bitcast (i8* (%class.Element*)* @_ZNK7Element5flagsEv to i8*), i8* bitcast (i8* (%class.Element*, i8*)* @_ZN7Element4castEPKc to i8*), i8* bitcast (i8* (%class.Element*, i1, i32, i8*)* @_ZN7Element9port_castEbiPKc to i8*), i8* bitcast (i32 (%class.Element*)* @_ZNK7Element15configure_phaseEv to i8*), i8* bitcast (i32 (%class.RandomBitErrors*, %class.Vector*, %class.ErrorHandler*)* @_ZN15RandomBitErrors9configureER6VectorI6StringEP12ErrorHandler to i8*), i8* bitcast (void (%class.RandomBitErrors*)* @_ZN15RandomBitErrors12add_handlersEv to i8*), i8* bitcast (i32 (%class.Element*, %class.ErrorHandler*)* @_ZN7Element10initializeEP12ErrorHandler to i8*), i8* bitcast (void (%class.Element*, %class.Element*, %class.ErrorHandler*)* @_ZN7Element10take_stateEPS_P12ErrorHandler to i8*), i8* bitcast (%class.Element* (%class.Element*)* @_ZNK7Element15hotswap_elementEv to i8*), i8* bitcast (void (%class.Element*, i32)* @_ZN7Element7cleanupENS_12CleanupStageE to i8*), i8* bitcast (void (%class.String*, %class.Element*)* @_ZNK7Element11declarationEv to i8*), i8* bitcast (i1 (%class.RandomBitErrors*)* @_ZNK15RandomBitErrors20can_live_reconfigureEv to i8*), i8* bitcast (i32 (%class.Element*, %class.Vector*, %class.ErrorHandler*)* @_ZN7Element16live_reconfigureER6VectorI6StringEP12ErrorHandler to i8*), i8* bitcast (i32 (%class.Element*, i32, i8*)* @_ZN7Element5llrpcEjPv to i8*)] }, align 8
@.str = private unnamed_addr constant [24 x i8] c"bit_error <= 0x10000000\00", align 1
@.str.1 = private unnamed_addr constant [36 x i8] c"../elements/standard/randomerror.cc\00", align 1
@__PRETTY_FUNCTION__._ZN15RandomBitErrors13set_bit_errorEj = private unnamed_addr constant [50 x i8] c"void RandomBitErrors::set_bit_error(unsigned int)\00", align 1
@_ZL18bit_flip_array_idx = internal unnamed_addr constant [10 x i32] [i32 0, i32 1, i32 9, i32 37, i32 93, i32 163, i32 219, i32 247, i32 255, i32 256], align 16, !dbg !0
@.str.2 = private unnamed_addr constant [5 x i8] c"flip\00", align 1
@.str.3 = private unnamed_addr constant [2 x i8] c"P\00", align 1
@.str.4 = private unnamed_addr constant [5 x i8] c"KIND\00", align 1
@.str.5 = private unnamed_addr constant [7 x i8] c"ACTIVE\00", align 1
@.str.7 = private unnamed_addr constant [4 x i8] c"set\00", align 1
@.str.8 = private unnamed_addr constant [6 x i8] c"clear\00", align 1
@.str.9 = private unnamed_addr constant [60 x i8] c"bad action %<%s%> (must be %<set%>, %<clear%>, or %<flip%>)\00", align 1
@.str.10 = private unnamed_addr constant [41 x i8] c"drop probability must be between 0 and 1\00", align 1
@.str.11 = private unnamed_addr constant [40 x i8] c"zero bit error probability (underflow?)\00", align 1
@_ZL14bit_flip_array = internal unnamed_addr constant [256 x i8] c"\00\01\02\04\08\10 @\80\03\06\0C\180`\C0\81\05\0A\14(P\A0A\82\09\12$H\90!B\84\11\22D\88\07\0E\1C8p\E0\C1\83\0B\16,X\B0a\C2\85\13&L\981b\C4\89\0D\1A4h\D0\A1C\86\192d\C8\91#F\8C\15*T\A8Q\A2E\8A%J\94)R\A4I\92\0F\1E<x\F0\E1\C3\87\17.\\\B8q\E2\C5\8B'N\9C9r\E4\C9\93\1B5l\D8\B1S\C6\8D+V\ACY\B2e\CA\953f\CC\99\1D:t\E8\D1\A3G\8E-Z\B4i\D2\A5K\965j\D4\A9S\A6M\9AU\AA\F8\F1\E3\C7\8F\1F>|\F4\E9\D3\A7O\9E=z\EC\D9\B3g\CE\9D;v\F2\E5\CB\97/^\BCy\E6\CD\9B7n\DC\B9s\E9\D5\ABW\9E]\BAu\DA\B5k\D6\AD[\B6m\FC\F9\F3\E7\CF\9F?~\FA\F5\EB\D7\AF_\BE}\F6\ED\DB\B7o\DE\BD{\EE\DD\BBw\FE\FD\FB\F7\EF\DF\BF\7F\FF", align 16, !dbg !1912
@.str.12 = private unnamed_addr constant [12 x i8] c"p_bit_error\00", align 1
@.str.13 = private unnamed_addr constant [4 x i8] c"0 P\00", align 1
@.str.14 = private unnamed_addr constant [11 x i8] c"error_kind\00", align 1
@.str.15 = private unnamed_addr constant [7 x i8] c"1 KIND\00", align 1
@.str.16 = private unnamed_addr constant [7 x i8] c"active\00", align 1
@_ZTVN10__cxxabiv120__si_class_type_infoE = external global i8*
@_ZTS15RandomBitErrors = dso_local constant [18 x i8] c"15RandomBitErrors\00", align 1
@_ZTI7Element = external constant i8*
@_ZTI15RandomBitErrors = dso_local constant { i8*, i8*, i8* } { i8* bitcast (i8** getelementptr inbounds (i8*, i8** @_ZTVN10__cxxabiv120__si_class_type_infoE, i64 2) to i8*), i8* getelementptr inbounds ([18 x i8], [18 x i8]* @_ZTS15RandomBitErrors, i32 0, i32 0), i8* bitcast (i8** @_ZTI7Element to i8*) }, align 8
@.str.17 = private unnamed_addr constant [18 x i8] c"_r.memo->refcount\00", align 1
@.str.18 = private unnamed_addr constant [29 x i8] c"../dummy_inc/click/string.hh\00", align 1
@__PRETTY_FUNCTION__._ZNK6String5derefEv = private unnamed_addr constant [27 x i8] c"void String::deref() const\00", align 1
@.str.19 = private unnamed_addr constant [3 x i8] c"??\00", align 1
@.str.20 = private unnamed_addr constant [16 x i8] c"RandomBitErrors\00", align 1
@_ZN7Element9PORTS_1_1E = external constant [0 x i8], align 1
@_ZTVN4Args5SlotTI6StringEE = linkonce_odr dso_local unnamed_addr constant { [5 x i8*] } { [5 x i8*] [i8* null, i8* bitcast ({ i8*, i8*, i8* }* @_ZTIN4Args5SlotTI6StringEE to i8*), i8* bitcast (void (%"struct.Args::SlotT"*)* @_ZN4Args5SlotTI6StringED2Ev to i8*), i8* bitcast (void (%"struct.Args::SlotT"*)* @_ZN4Args5SlotTI6StringED0Ev to i8*), i8* bitcast (void (%"struct.Args::SlotT"*)* @_ZN4Args5SlotTI6StringE5storeEv to i8*)] }, comdat, align 8
@_ZTSN4Args5SlotTI6StringEE = linkonce_odr dso_local constant [23 x i8] c"N4Args5SlotTI6StringEE\00", comdat, align 1
@_ZTVN10__cxxabiv117__class_type_infoE = external global i8*
@_ZTSN4Args4SlotE = linkonce_odr dso_local constant [13 x i8] c"N4Args4SlotE\00", comdat, align 1
@_ZTIN4Args4SlotE = linkonce_odr dso_local constant { i8*, i8* } { i8* bitcast (i8** getelementptr inbounds (i8*, i8** @_ZTVN10__cxxabiv117__class_type_infoE, i64 2) to i8*), i8* getelementptr inbounds ([13 x i8], [13 x i8]* @_ZTSN4Args4SlotE, i32 0, i32 0) }, comdat, align 8
@_ZTIN4Args5SlotTI6StringEE = linkonce_odr dso_local constant { i8*, i8*, i8* } { i8* bitcast (i8** getelementptr inbounds (i8*, i8** @_ZTVN10__cxxabiv120__si_class_type_infoE, i64 2) to i8*), i8* getelementptr inbounds ([23 x i8], [23 x i8]* @_ZTSN4Args5SlotTI6StringEE, i32 0, i32 0), i8* bitcast ({ i8*, i8* }* @_ZTIN4Args4SlotE to i8*) }, comdat, align 8
@_ZN6String9null_dataE = external constant i8, align 1

@_ZN15RandomBitErrorsC1Ev = dso_local unnamed_addr alias void (%class.RandomBitErrors*), void (%class.RandomBitErrors*)* @_ZN15RandomBitErrorsC2Ev

; Function Attrs: sspstrong uwtable
define dso_local void @_ZN15RandomBitErrorsC2Ev(%class.RandomBitErrors* %0) unnamed_addr #0 align 2 !dbg !2545 {
  call void @llvm.dbg.value(metadata %class.RandomBitErrors* %0, metadata !2547, metadata !DIExpression()), !dbg !2548
  %2 = bitcast %class.RandomBitErrors* %0 to %class.Element*, !dbg !2549
  tail call void @_ZN7ElementC2Ev(%class.Element* %2), !dbg !2550
  %3 = getelementptr %class.RandomBitErrors, %class.RandomBitErrors* %0, i64 0, i32 0, i32 0, !dbg !2549
  store i32 (...)** bitcast (i8** getelementptr inbounds ({ [29 x i8*] }, { [29 x i8*] }* @_ZTV15RandomBitErrors, i64 0, inrange i32 0, i64 2) to i32 (...)**), i32 (...)*** %3, align 8, !dbg !2549, !tbaa !2551
  ret void, !dbg !2554
}

; Function Attrs: nounwind readnone speculatable willreturn
declare void @llvm.dbg.declare(metadata, metadata, metadata) #1

declare void @_ZN7ElementC2Ev(%class.Element*) unnamed_addr #2

; Function Attrs: nounwind sspstrong uwtable
define dso_local void @_ZN15RandomBitErrors13set_bit_errorEj(%class.RandomBitErrors* nocapture %0, i32 %1) local_unnamed_addr #3 align 2 !dbg !2555 {
  call void @llvm.dbg.value(metadata %class.RandomBitErrors* %0, metadata !2557, metadata !DIExpression()), !dbg !2570
  call void @llvm.dbg.value(metadata i32 %1, metadata !2558, metadata !DIExpression()), !dbg !2570
  %3 = icmp ult i32 %1, 268435457, !dbg !2571
  br i1 %3, label %5, label %4, !dbg !2571

4:                                                ; preds = %2
  tail call void @__assert_fail(i8* getelementptr inbounds ([24 x i8], [24 x i8]* @.str, i64 0, i64 0), i8* getelementptr inbounds ([36 x i8], [36 x i8]* @.str.1, i64 0, i64 0), i32 83, i8* getelementptr inbounds ([50 x i8], [50 x i8]* @__PRETTY_FUNCTION__._ZN15RandomBitErrors13set_bit_errorEj, i64 0, i64 0)) #13, !dbg !2571
  unreachable, !dbg !2571

5:                                                ; preds = %2
  %6 = getelementptr inbounds %class.RandomBitErrors, %class.RandomBitErrors* %0, i64 0, i32 2, !dbg !2572
  store i32 %1, i32* %6, align 8, !dbg !2573, !tbaa !2574
  %7 = sub nuw nsw i32 268435456, %1, !dbg !2579
  call void @llvm.dbg.value(metadata i32 %7, metadata !2559, metadata !DIExpression()), !dbg !2570
  call void @llvm.dbg.value(metadata i64 0, metadata !2560, metadata !DIExpression()), !dbg !2570
  call void @llvm.dbg.value(metadata i32 0, metadata !2561, metadata !DIExpression()), !dbg !2580
  %8 = zext i32 %1 to i64, !dbg !2581
  %9 = zext i32 %7 to i64, !dbg !2583
  call void @llvm.dbg.value(metadata i64 0, metadata !2561, metadata !DIExpression()), !dbg !2580
  call void @llvm.dbg.value(metadata i32 0, metadata !2566, metadata !DIExpression()), !dbg !2585
  call void @llvm.dbg.value(metadata i32 0, metadata !2568, metadata !DIExpression()), !dbg !2586
  call void @llvm.dbg.value(metadata i64 34359738368, metadata !2563, metadata !DIExpression()), !dbg !2587
  %10 = shl nuw nsw i64 %9, 7, !dbg !2588
  %11 = and i64 %10, 68719476608, !dbg !2588
  call void @llvm.dbg.value(metadata i64 %11, metadata !2563, metadata !DIExpression()), !dbg !2587
  call void @llvm.dbg.value(metadata i32 1, metadata !2568, metadata !DIExpression()), !dbg !2586
  %12 = mul i64 %11, %9, !dbg !2589
  %13 = lshr i64 %12, 28, !dbg !2588
  call void @llvm.dbg.value(metadata i64 %13, metadata !2563, metadata !DIExpression()), !dbg !2587
  call void @llvm.dbg.value(metadata i32 2, metadata !2568, metadata !DIExpression()), !dbg !2586
  %14 = mul i64 %13, %9, !dbg !2589
  %15 = lshr i64 %14, 28, !dbg !2588
  call void @llvm.dbg.value(metadata i64 %15, metadata !2563, metadata !DIExpression()), !dbg !2587
  call void @llvm.dbg.value(metadata i32 3, metadata !2568, metadata !DIExpression()), !dbg !2586
  %16 = mul i64 %15, %9, !dbg !2589
  %17 = lshr i64 %16, 28, !dbg !2588
  call void @llvm.dbg.value(metadata i64 %17, metadata !2563, metadata !DIExpression()), !dbg !2587
  call void @llvm.dbg.value(metadata i32 4, metadata !2568, metadata !DIExpression()), !dbg !2586
  %18 = mul i64 %17, %9, !dbg !2589
  %19 = lshr i64 %18, 28, !dbg !2588
  call void @llvm.dbg.value(metadata i64 %19, metadata !2563, metadata !DIExpression()), !dbg !2587
  call void @llvm.dbg.value(metadata i32 5, metadata !2568, metadata !DIExpression()), !dbg !2586
  %20 = mul i64 %19, %9, !dbg !2589
  %21 = lshr i64 %20, 28, !dbg !2588
  call void @llvm.dbg.value(metadata i64 %21, metadata !2563, metadata !DIExpression()), !dbg !2587
  call void @llvm.dbg.value(metadata i32 6, metadata !2568, metadata !DIExpression()), !dbg !2586
  %22 = mul i64 %21, %9, !dbg !2589
  %23 = lshr i64 %22, 28, !dbg !2588
  call void @llvm.dbg.value(metadata i64 %23, metadata !2563, metadata !DIExpression()), !dbg !2587
  call void @llvm.dbg.value(metadata i32 7, metadata !2568, metadata !DIExpression()), !dbg !2586
  %24 = mul i64 %23, %9, !dbg !2589
  call void @llvm.dbg.value(metadata i64 %24, metadata !2563, metadata !DIExpression(DW_OP_constu, 28, DW_OP_shr, DW_OP_stack_value)), !dbg !2587
  call void @llvm.dbg.value(metadata i32 8, metadata !2568, metadata !DIExpression()), !dbg !2586
  call void @llvm.dbg.value(metadata i64 %24, metadata !2560, metadata !DIExpression(DW_OP_constu, 28, DW_OP_shr, DW_OP_stack_value)), !dbg !2570
  %25 = lshr i64 %24, 35, !dbg !2590
  %26 = trunc i64 %25 to i32, !dbg !2591
  %27 = getelementptr inbounds %class.RandomBitErrors, %class.RandomBitErrors* %0, i64 0, i32 1, i64 0, !dbg !2592
  %28 = lshr i64 %24, 34, !dbg !2593
  %29 = trunc i64 %28 to i32, !dbg !2593
  %30 = and i32 %29, 1, !dbg !2593
  %31 = add nuw nsw i32 %30, %26, !dbg !2593
  store i32 %31, i32* %27, align 4, !dbg !2587, !tbaa !2594
  call void @llvm.dbg.value(metadata i64 1, metadata !2561, metadata !DIExpression()), !dbg !2580
  call void @llvm.dbg.value(metadata i32 1, metadata !2566, metadata !DIExpression()), !dbg !2585
  call void @llvm.dbg.value(metadata i64 %8, metadata !2563, metadata !DIExpression(DW_OP_constu, 7, DW_OP_shl, DW_OP_constu, 68719476608, DW_OP_and, DW_OP_stack_value)), !dbg !2587
  call void @llvm.dbg.value(metadata i64 1, metadata !2568, metadata !DIExpression()), !dbg !2586
  %32 = shl nuw nsw i64 %8, 7, !dbg !2595
  call void @llvm.dbg.value(metadata i64 %32, metadata !2563, metadata !DIExpression(DW_OP_constu, 68719476608, DW_OP_and, DW_OP_stack_value)), !dbg !2587
  %33 = and i64 %32, 68719476608, !dbg !2595
  call void @llvm.dbg.value(metadata i64 %33, metadata !2563, metadata !DIExpression()), !dbg !2587
  %34 = lshr i64 %24, 28, !dbg !2588
  call void @llvm.dbg.value(metadata i64 %34, metadata !2560, metadata !DIExpression()), !dbg !2570
  call void @llvm.dbg.value(metadata i32 1, metadata !2568, metadata !DIExpression()), !dbg !2586
  %35 = mul i64 %33, %9, !dbg !2589
  %36 = lshr i64 %35, 28, !dbg !2588
  call void @llvm.dbg.value(metadata i64 %36, metadata !2563, metadata !DIExpression()), !dbg !2587
  call void @llvm.dbg.value(metadata i32 2, metadata !2568, metadata !DIExpression()), !dbg !2586
  %37 = mul i64 %36, %9, !dbg !2589
  %38 = lshr i64 %37, 28, !dbg !2588
  call void @llvm.dbg.value(metadata i64 %38, metadata !2563, metadata !DIExpression()), !dbg !2587
  call void @llvm.dbg.value(metadata i32 3, metadata !2568, metadata !DIExpression()), !dbg !2586
  %39 = mul i64 %38, %9, !dbg !2589
  %40 = lshr i64 %39, 28, !dbg !2588
  call void @llvm.dbg.value(metadata i64 %40, metadata !2563, metadata !DIExpression()), !dbg !2587
  call void @llvm.dbg.value(metadata i32 4, metadata !2568, metadata !DIExpression()), !dbg !2586
  %41 = mul i64 %40, %9, !dbg !2589
  %42 = lshr i64 %41, 28, !dbg !2588
  call void @llvm.dbg.value(metadata i64 %42, metadata !2563, metadata !DIExpression()), !dbg !2587
  call void @llvm.dbg.value(metadata i32 5, metadata !2568, metadata !DIExpression()), !dbg !2586
  %43 = mul i64 %42, %9, !dbg !2589
  %44 = lshr i64 %43, 28, !dbg !2588
  call void @llvm.dbg.value(metadata i64 %44, metadata !2563, metadata !DIExpression()), !dbg !2587
  call void @llvm.dbg.value(metadata i32 6, metadata !2568, metadata !DIExpression()), !dbg !2586
  %45 = mul i64 %44, %9, !dbg !2589
  %46 = lshr i64 %45, 28, !dbg !2588
  call void @llvm.dbg.value(metadata i64 %46, metadata !2563, metadata !DIExpression()), !dbg !2587
  call void @llvm.dbg.value(metadata i32 7, metadata !2568, metadata !DIExpression()), !dbg !2586
  %47 = mul i64 %46, %9, !dbg !2589
  %48 = lshr i64 %47, 28, !dbg !2588
  call void @llvm.dbg.value(metadata i64 %48, metadata !2563, metadata !DIExpression()), !dbg !2587
  call void @llvm.dbg.value(metadata i32 8, metadata !2568, metadata !DIExpression()), !dbg !2586
  %49 = shl nuw nsw i64 %48, 3, !dbg !2596
  call void @llvm.dbg.value(metadata i64 %49, metadata !2563, metadata !DIExpression()), !dbg !2587
  %50 = add nuw nsw i64 %49, %34, !dbg !2597
  call void @llvm.dbg.value(metadata i64 %50, metadata !2560, metadata !DIExpression()), !dbg !2570
  %51 = lshr i64 %50, 7, !dbg !2590
  %52 = trunc i64 %51 to i32, !dbg !2591
  %53 = and i32 %52, 536870911, !dbg !2591
  %54 = getelementptr inbounds %class.RandomBitErrors, %class.RandomBitErrors* %0, i64 0, i32 1, i64 1, !dbg !2592
  %55 = lshr i64 %50, 6, !dbg !2593
  %56 = trunc i64 %55 to i32, !dbg !2593
  %57 = and i32 %56, 1, !dbg !2593
  %58 = add nuw nsw i32 %53, %57, !dbg !2593
  store i32 %58, i32* %54, align 4, !dbg !2587, !tbaa !2594
  call void @llvm.dbg.value(metadata i64 2, metadata !2561, metadata !DIExpression()), !dbg !2580
  call void @llvm.dbg.value(metadata i64 undef, metadata !2563, metadata !DIExpression(DW_OP_constu, 28, DW_OP_shr, DW_OP_stack_value)), !dbg !2587
  call void @llvm.dbg.value(metadata i32 2, metadata !2566, metadata !DIExpression()), !dbg !2585
  %59 = shl nuw nsw i64 %8, 7, !dbg !2595
  call void @llvm.dbg.value(metadata i64 %59, metadata !2563, metadata !DIExpression(DW_OP_constu, 68719476608, DW_OP_and, DW_OP_stack_value)), !dbg !2587
  %60 = and i64 %59, 68719476608, !dbg !2595
  call void @llvm.dbg.value(metadata i64 %60, metadata !2563, metadata !DIExpression()), !dbg !2587
  %61 = mul i64 %60, %8, !dbg !2598
  call void @llvm.dbg.value(metadata i64 %61, metadata !2563, metadata !DIExpression(DW_OP_constu, 28, DW_OP_shr, DW_OP_stack_value)), !dbg !2587
  %62 = lshr i64 %61, 28, !dbg !2595
  call void @llvm.dbg.value(metadata i32 2, metadata !2568, metadata !DIExpression()), !dbg !2586
  call void @llvm.dbg.value(metadata i64 %62, metadata !2563, metadata !DIExpression()), !dbg !2587
  %63 = mul i64 %62, %9, !dbg !2589
  %64 = lshr i64 %63, 28, !dbg !2588
  call void @llvm.dbg.value(metadata i64 %64, metadata !2563, metadata !DIExpression()), !dbg !2587
  call void @llvm.dbg.value(metadata i32 3, metadata !2568, metadata !DIExpression()), !dbg !2586
  %65 = mul i64 %64, %9, !dbg !2589
  %66 = lshr i64 %65, 28, !dbg !2588
  call void @llvm.dbg.value(metadata i64 %66, metadata !2563, metadata !DIExpression()), !dbg !2587
  call void @llvm.dbg.value(metadata i32 4, metadata !2568, metadata !DIExpression()), !dbg !2586
  %67 = mul i64 %66, %9, !dbg !2589
  %68 = lshr i64 %67, 28, !dbg !2588
  call void @llvm.dbg.value(metadata i64 %68, metadata !2563, metadata !DIExpression()), !dbg !2587
  call void @llvm.dbg.value(metadata i32 5, metadata !2568, metadata !DIExpression()), !dbg !2586
  %69 = mul i64 %68, %9, !dbg !2589
  %70 = lshr i64 %69, 28, !dbg !2588
  call void @llvm.dbg.value(metadata i64 %70, metadata !2563, metadata !DIExpression()), !dbg !2587
  call void @llvm.dbg.value(metadata i32 6, metadata !2568, metadata !DIExpression()), !dbg !2586
  %71 = mul i64 %70, %9, !dbg !2589
  %72 = lshr i64 %71, 28, !dbg !2588
  call void @llvm.dbg.value(metadata i64 %72, metadata !2563, metadata !DIExpression()), !dbg !2587
  call void @llvm.dbg.value(metadata i32 7, metadata !2568, metadata !DIExpression()), !dbg !2586
  %73 = mul i64 %72, %9, !dbg !2589
  %74 = lshr i64 %73, 28, !dbg !2588
  call void @llvm.dbg.value(metadata i64 %74, metadata !2563, metadata !DIExpression()), !dbg !2587
  call void @llvm.dbg.value(metadata i32 8, metadata !2568, metadata !DIExpression()), !dbg !2586
  %75 = mul nuw nsw i64 %74, 28, !dbg !2596
  call void @llvm.dbg.value(metadata i64 %75, metadata !2563, metadata !DIExpression()), !dbg !2587
  %76 = add nuw nsw i64 %75, %50, !dbg !2597
  call void @llvm.dbg.value(metadata i64 %76, metadata !2560, metadata !DIExpression()), !dbg !2570
  %77 = lshr i64 %76, 7, !dbg !2590
  %78 = trunc i64 %77 to i32, !dbg !2591
  %79 = and i32 %78, 536870911, !dbg !2591
  %80 = getelementptr inbounds %class.RandomBitErrors, %class.RandomBitErrors* %0, i64 0, i32 1, i64 2, !dbg !2592
  %81 = lshr i64 %76, 6, !dbg !2593
  %82 = trunc i64 %81 to i32, !dbg !2593
  %83 = and i32 %82, 1, !dbg !2593
  %84 = add nuw nsw i32 %79, %83, !dbg !2593
  store i32 %84, i32* %80, align 4, !dbg !2587, !tbaa !2594
  call void @llvm.dbg.value(metadata i64 3, metadata !2561, metadata !DIExpression()), !dbg !2580
  call void @llvm.dbg.value(metadata i64 undef, metadata !2563, metadata !DIExpression(DW_OP_constu, 28, DW_OP_shr, DW_OP_stack_value)), !dbg !2587
  call void @llvm.dbg.value(metadata i32 3, metadata !2566, metadata !DIExpression()), !dbg !2585
  %85 = shl nuw nsw i64 %8, 7, !dbg !2595
  call void @llvm.dbg.value(metadata i64 %85, metadata !2563, metadata !DIExpression(DW_OP_constu, 68719476608, DW_OP_and, DW_OP_stack_value)), !dbg !2587
  %86 = and i64 %85, 68719476608, !dbg !2595
  call void @llvm.dbg.value(metadata i64 %86, metadata !2563, metadata !DIExpression()), !dbg !2587
  %87 = mul i64 %86, %8, !dbg !2598
  call void @llvm.dbg.value(metadata i64 %87, metadata !2563, metadata !DIExpression(DW_OP_constu, 28, DW_OP_shr, DW_OP_stack_value)), !dbg !2587
  %88 = lshr i64 %87, 28, !dbg !2595
  call void @llvm.dbg.value(metadata i64 %88, metadata !2563, metadata !DIExpression()), !dbg !2587
  %89 = mul i64 %88, %8, !dbg !2598
  call void @llvm.dbg.value(metadata i64 %89, metadata !2563, metadata !DIExpression(DW_OP_constu, 28, DW_OP_shr, DW_OP_stack_value)), !dbg !2587
  %90 = lshr i64 %89, 28, !dbg !2595
  call void @llvm.dbg.value(metadata i32 3, metadata !2568, metadata !DIExpression()), !dbg !2586
  call void @llvm.dbg.value(metadata i64 %90, metadata !2563, metadata !DIExpression()), !dbg !2587
  %91 = mul i64 %90, %9, !dbg !2589
  %92 = lshr i64 %91, 28, !dbg !2588
  call void @llvm.dbg.value(metadata i64 %92, metadata !2563, metadata !DIExpression()), !dbg !2587
  call void @llvm.dbg.value(metadata i32 4, metadata !2568, metadata !DIExpression()), !dbg !2586
  %93 = mul i64 %92, %9, !dbg !2589
  %94 = lshr i64 %93, 28, !dbg !2588
  call void @llvm.dbg.value(metadata i64 %94, metadata !2563, metadata !DIExpression()), !dbg !2587
  call void @llvm.dbg.value(metadata i32 5, metadata !2568, metadata !DIExpression()), !dbg !2586
  %95 = mul i64 %94, %9, !dbg !2589
  %96 = lshr i64 %95, 28, !dbg !2588
  call void @llvm.dbg.value(metadata i64 %96, metadata !2563, metadata !DIExpression()), !dbg !2587
  call void @llvm.dbg.value(metadata i32 6, metadata !2568, metadata !DIExpression()), !dbg !2586
  %97 = mul i64 %96, %9, !dbg !2589
  %98 = lshr i64 %97, 28, !dbg !2588
  call void @llvm.dbg.value(metadata i64 %98, metadata !2563, metadata !DIExpression()), !dbg !2587
  call void @llvm.dbg.value(metadata i32 7, metadata !2568, metadata !DIExpression()), !dbg !2586
  %99 = mul i64 %98, %9, !dbg !2589
  %100 = lshr i64 %99, 28, !dbg !2588
  call void @llvm.dbg.value(metadata i64 %100, metadata !2563, metadata !DIExpression()), !dbg !2587
  call void @llvm.dbg.value(metadata i32 8, metadata !2568, metadata !DIExpression()), !dbg !2586
  %101 = mul nuw nsw i64 %100, 56, !dbg !2596
  call void @llvm.dbg.value(metadata i64 %101, metadata !2563, metadata !DIExpression()), !dbg !2587
  %102 = add nuw nsw i64 %101, %76, !dbg !2597
  call void @llvm.dbg.value(metadata i64 %102, metadata !2560, metadata !DIExpression()), !dbg !2570
  %103 = lshr i64 %102, 7, !dbg !2590
  %104 = trunc i64 %103 to i32, !dbg !2591
  %105 = and i32 %104, 536870911, !dbg !2591
  %106 = getelementptr inbounds %class.RandomBitErrors, %class.RandomBitErrors* %0, i64 0, i32 1, i64 3, !dbg !2592
  %107 = lshr i64 %102, 6, !dbg !2593
  %108 = trunc i64 %107 to i32, !dbg !2593
  %109 = and i32 %108, 1, !dbg !2593
  %110 = add nuw nsw i32 %105, %109, !dbg !2593
  store i32 %110, i32* %106, align 4, !dbg !2587, !tbaa !2594
  call void @llvm.dbg.value(metadata i64 4, metadata !2561, metadata !DIExpression()), !dbg !2580
  call void @llvm.dbg.value(metadata i64 undef, metadata !2563, metadata !DIExpression(DW_OP_constu, 28, DW_OP_shr, DW_OP_stack_value)), !dbg !2587
  call void @llvm.dbg.value(metadata i32 4, metadata !2566, metadata !DIExpression()), !dbg !2585
  %111 = shl nuw nsw i64 %8, 7, !dbg !2595
  call void @llvm.dbg.value(metadata i64 %111, metadata !2563, metadata !DIExpression(DW_OP_constu, 68719476608, DW_OP_and, DW_OP_stack_value)), !dbg !2587
  %112 = and i64 %111, 68719476608, !dbg !2595
  call void @llvm.dbg.value(metadata i64 %112, metadata !2563, metadata !DIExpression()), !dbg !2587
  %113 = mul i64 %112, %8, !dbg !2598
  call void @llvm.dbg.value(metadata i64 %113, metadata !2563, metadata !DIExpression(DW_OP_constu, 28, DW_OP_shr, DW_OP_stack_value)), !dbg !2587
  %114 = lshr i64 %113, 28, !dbg !2595
  call void @llvm.dbg.value(metadata i64 %114, metadata !2563, metadata !DIExpression()), !dbg !2587
  %115 = mul i64 %114, %8, !dbg !2598
  call void @llvm.dbg.value(metadata i64 %115, metadata !2563, metadata !DIExpression(DW_OP_constu, 28, DW_OP_shr, DW_OP_stack_value)), !dbg !2587
  %116 = lshr i64 %115, 28, !dbg !2595
  call void @llvm.dbg.value(metadata i64 %116, metadata !2563, metadata !DIExpression()), !dbg !2587
  %117 = mul i64 %116, %8, !dbg !2598
  call void @llvm.dbg.value(metadata i64 %117, metadata !2563, metadata !DIExpression(DW_OP_constu, 28, DW_OP_shr, DW_OP_stack_value)), !dbg !2587
  %118 = lshr i64 %117, 28, !dbg !2595
  call void @llvm.dbg.value(metadata i32 4, metadata !2568, metadata !DIExpression()), !dbg !2586
  call void @llvm.dbg.value(metadata i64 %118, metadata !2563, metadata !DIExpression()), !dbg !2587
  %119 = mul i64 %118, %9, !dbg !2589
  %120 = lshr i64 %119, 28, !dbg !2588
  call void @llvm.dbg.value(metadata i64 %120, metadata !2563, metadata !DIExpression()), !dbg !2587
  call void @llvm.dbg.value(metadata i32 5, metadata !2568, metadata !DIExpression()), !dbg !2586
  %121 = mul i64 %120, %9, !dbg !2589
  %122 = lshr i64 %121, 28, !dbg !2588
  call void @llvm.dbg.value(metadata i64 %122, metadata !2563, metadata !DIExpression()), !dbg !2587
  call void @llvm.dbg.value(metadata i32 6, metadata !2568, metadata !DIExpression()), !dbg !2586
  %123 = mul i64 %122, %9, !dbg !2589
  %124 = lshr i64 %123, 28, !dbg !2588
  call void @llvm.dbg.value(metadata i64 %124, metadata !2563, metadata !DIExpression()), !dbg !2587
  call void @llvm.dbg.value(metadata i32 7, metadata !2568, metadata !DIExpression()), !dbg !2586
  %125 = mul i64 %124, %9, !dbg !2589
  %126 = lshr i64 %125, 28, !dbg !2588
  call void @llvm.dbg.value(metadata i64 %126, metadata !2563, metadata !DIExpression()), !dbg !2587
  call void @llvm.dbg.value(metadata i32 8, metadata !2568, metadata !DIExpression()), !dbg !2586
  %127 = mul nuw nsw i64 %126, 70, !dbg !2599
  call void @llvm.dbg.value(metadata i64 %127, metadata !2563, metadata !DIExpression()), !dbg !2587
  %128 = add nuw nsw i64 %127, %102, !dbg !2597
  call void @llvm.dbg.value(metadata i64 %128, metadata !2560, metadata !DIExpression()), !dbg !2570
  %129 = lshr i64 %128, 7, !dbg !2590
  %130 = trunc i64 %129 to i32, !dbg !2591
  %131 = and i32 %130, 536870911, !dbg !2591
  %132 = getelementptr inbounds %class.RandomBitErrors, %class.RandomBitErrors* %0, i64 0, i32 1, i64 4, !dbg !2592
  %133 = lshr i64 %128, 6, !dbg !2593
  %134 = trunc i64 %133 to i32, !dbg !2593
  %135 = and i32 %134, 1, !dbg !2593
  %136 = add nuw nsw i32 %131, %135, !dbg !2593
  store i32 %136, i32* %132, align 4, !dbg !2587, !tbaa !2594
  call void @llvm.dbg.value(metadata i64 5, metadata !2561, metadata !DIExpression()), !dbg !2580
  call void @llvm.dbg.value(metadata i64 undef, metadata !2563, metadata !DIExpression(DW_OP_constu, 28, DW_OP_shr, DW_OP_stack_value)), !dbg !2587
  call void @llvm.dbg.value(metadata i32 5, metadata !2566, metadata !DIExpression()), !dbg !2585
  %137 = shl nuw nsw i64 %8, 7, !dbg !2595
  call void @llvm.dbg.value(metadata i64 %137, metadata !2563, metadata !DIExpression(DW_OP_constu, 68719476608, DW_OP_and, DW_OP_stack_value)), !dbg !2587
  %138 = and i64 %137, 68719476608, !dbg !2595
  call void @llvm.dbg.value(metadata i64 %138, metadata !2563, metadata !DIExpression()), !dbg !2587
  %139 = mul i64 %138, %8, !dbg !2598
  call void @llvm.dbg.value(metadata i64 %139, metadata !2563, metadata !DIExpression(DW_OP_constu, 28, DW_OP_shr, DW_OP_stack_value)), !dbg !2587
  %140 = lshr i64 %139, 28, !dbg !2595
  call void @llvm.dbg.value(metadata i64 %140, metadata !2563, metadata !DIExpression()), !dbg !2587
  %141 = mul i64 %140, %8, !dbg !2598
  call void @llvm.dbg.value(metadata i64 %141, metadata !2563, metadata !DIExpression(DW_OP_constu, 28, DW_OP_shr, DW_OP_stack_value)), !dbg !2587
  %142 = lshr i64 %141, 28, !dbg !2595
  call void @llvm.dbg.value(metadata i64 %142, metadata !2563, metadata !DIExpression()), !dbg !2587
  %143 = mul i64 %142, %8, !dbg !2598
  call void @llvm.dbg.value(metadata i64 %143, metadata !2563, metadata !DIExpression(DW_OP_constu, 28, DW_OP_shr, DW_OP_stack_value)), !dbg !2587
  %144 = lshr i64 %143, 28, !dbg !2595
  call void @llvm.dbg.value(metadata i64 %144, metadata !2563, metadata !DIExpression()), !dbg !2587
  %145 = mul i64 %144, %8, !dbg !2598
  call void @llvm.dbg.value(metadata i64 %145, metadata !2563, metadata !DIExpression(DW_OP_constu, 28, DW_OP_shr, DW_OP_stack_value)), !dbg !2587
  %146 = lshr i64 %145, 28, !dbg !2595
  call void @llvm.dbg.value(metadata i32 5, metadata !2568, metadata !DIExpression()), !dbg !2586
  call void @llvm.dbg.value(metadata i64 %146, metadata !2563, metadata !DIExpression()), !dbg !2587
  %147 = mul i64 %146, %9, !dbg !2589
  %148 = lshr i64 %147, 28, !dbg !2588
  call void @llvm.dbg.value(metadata i64 %148, metadata !2563, metadata !DIExpression()), !dbg !2587
  call void @llvm.dbg.value(metadata i32 6, metadata !2568, metadata !DIExpression()), !dbg !2586
  %149 = mul i64 %148, %9, !dbg !2589
  %150 = lshr i64 %149, 28, !dbg !2588
  call void @llvm.dbg.value(metadata i64 %150, metadata !2563, metadata !DIExpression()), !dbg !2587
  call void @llvm.dbg.value(metadata i32 7, metadata !2568, metadata !DIExpression()), !dbg !2586
  %151 = mul i64 %150, %9, !dbg !2589
  %152 = lshr i64 %151, 28, !dbg !2588
  call void @llvm.dbg.value(metadata i64 %152, metadata !2563, metadata !DIExpression()), !dbg !2587
  call void @llvm.dbg.value(metadata i32 8, metadata !2568, metadata !DIExpression()), !dbg !2586
  %153 = mul nuw nsw i64 %152, 56, !dbg !2599
  call void @llvm.dbg.value(metadata i64 %153, metadata !2563, metadata !DIExpression()), !dbg !2587
  %154 = add nuw nsw i64 %153, %128, !dbg !2597
  call void @llvm.dbg.value(metadata i64 %154, metadata !2560, metadata !DIExpression()), !dbg !2570
  %155 = lshr i64 %154, 7, !dbg !2590
  %156 = trunc i64 %155 to i32, !dbg !2591
  %157 = and i32 %156, 536870911, !dbg !2591
  %158 = getelementptr inbounds %class.RandomBitErrors, %class.RandomBitErrors* %0, i64 0, i32 1, i64 5, !dbg !2592
  %159 = lshr i64 %154, 6, !dbg !2593
  %160 = trunc i64 %159 to i32, !dbg !2593
  %161 = and i32 %160, 1, !dbg !2593
  %162 = add nuw nsw i32 %157, %161, !dbg !2593
  store i32 %162, i32* %158, align 4, !dbg !2587, !tbaa !2594
  call void @llvm.dbg.value(metadata i64 6, metadata !2561, metadata !DIExpression()), !dbg !2580
  call void @llvm.dbg.value(metadata i64 undef, metadata !2563, metadata !DIExpression(DW_OP_constu, 28, DW_OP_shr, DW_OP_stack_value)), !dbg !2587
  call void @llvm.dbg.value(metadata i32 6, metadata !2566, metadata !DIExpression()), !dbg !2585
  %163 = shl nuw nsw i64 %8, 7, !dbg !2595
  call void @llvm.dbg.value(metadata i64 %163, metadata !2563, metadata !DIExpression(DW_OP_constu, 68719476608, DW_OP_and, DW_OP_stack_value)), !dbg !2587
  %164 = and i64 %163, 68719476608, !dbg !2595
  call void @llvm.dbg.value(metadata i64 %164, metadata !2563, metadata !DIExpression()), !dbg !2587
  %165 = mul i64 %164, %8, !dbg !2598
  call void @llvm.dbg.value(metadata i64 %165, metadata !2563, metadata !DIExpression(DW_OP_constu, 28, DW_OP_shr, DW_OP_stack_value)), !dbg !2587
  %166 = lshr i64 %165, 28, !dbg !2595
  call void @llvm.dbg.value(metadata i64 %166, metadata !2563, metadata !DIExpression()), !dbg !2587
  %167 = mul i64 %166, %8, !dbg !2598
  call void @llvm.dbg.value(metadata i64 %167, metadata !2563, metadata !DIExpression(DW_OP_constu, 28, DW_OP_shr, DW_OP_stack_value)), !dbg !2587
  %168 = lshr i64 %167, 28, !dbg !2595
  call void @llvm.dbg.value(metadata i64 %168, metadata !2563, metadata !DIExpression()), !dbg !2587
  %169 = mul i64 %168, %8, !dbg !2598
  call void @llvm.dbg.value(metadata i64 %169, metadata !2563, metadata !DIExpression(DW_OP_constu, 28, DW_OP_shr, DW_OP_stack_value)), !dbg !2587
  %170 = lshr i64 %169, 28, !dbg !2595
  call void @llvm.dbg.value(metadata i64 %170, metadata !2563, metadata !DIExpression()), !dbg !2587
  %171 = mul i64 %170, %8, !dbg !2598
  call void @llvm.dbg.value(metadata i64 %171, metadata !2563, metadata !DIExpression(DW_OP_constu, 28, DW_OP_shr, DW_OP_stack_value)), !dbg !2587
  %172 = lshr i64 %171, 28, !dbg !2595
  call void @llvm.dbg.value(metadata i64 %172, metadata !2563, metadata !DIExpression()), !dbg !2587
  %173 = mul i64 %172, %8, !dbg !2598
  call void @llvm.dbg.value(metadata i64 %173, metadata !2563, metadata !DIExpression(DW_OP_constu, 28, DW_OP_shr, DW_OP_stack_value)), !dbg !2587
  %174 = lshr i64 %173, 28, !dbg !2595
  call void @llvm.dbg.value(metadata i32 6, metadata !2568, metadata !DIExpression()), !dbg !2586
  call void @llvm.dbg.value(metadata i64 %174, metadata !2563, metadata !DIExpression()), !dbg !2587
  %175 = mul i64 %174, %9, !dbg !2589
  %176 = lshr i64 %175, 28, !dbg !2588
  call void @llvm.dbg.value(metadata i64 %176, metadata !2563, metadata !DIExpression()), !dbg !2587
  call void @llvm.dbg.value(metadata i32 7, metadata !2568, metadata !DIExpression()), !dbg !2586
  %177 = mul i64 %176, %9, !dbg !2589
  %178 = lshr i64 %177, 28, !dbg !2588
  call void @llvm.dbg.value(metadata i64 %178, metadata !2563, metadata !DIExpression()), !dbg !2587
  call void @llvm.dbg.value(metadata i32 8, metadata !2568, metadata !DIExpression()), !dbg !2586
  %179 = mul nuw nsw i64 %178, 28, !dbg !2599
  call void @llvm.dbg.value(metadata i64 %179, metadata !2563, metadata !DIExpression()), !dbg !2587
  %180 = add i64 %179, %154, !dbg !2597
  call void @llvm.dbg.value(metadata i64 %180, metadata !2560, metadata !DIExpression()), !dbg !2570
  %181 = lshr i64 %180, 7, !dbg !2590
  %182 = trunc i64 %181 to i32, !dbg !2591
  %183 = and i32 %182, 536870911, !dbg !2591
  %184 = getelementptr inbounds %class.RandomBitErrors, %class.RandomBitErrors* %0, i64 0, i32 1, i64 6, !dbg !2592
  %185 = lshr i64 %180, 6, !dbg !2593
  %186 = trunc i64 %185 to i32, !dbg !2593
  %187 = and i32 %186, 1, !dbg !2593
  %188 = add nuw nsw i32 %183, %187, !dbg !2593
  store i32 %188, i32* %184, align 4, !dbg !2587, !tbaa !2594
  call void @llvm.dbg.value(metadata i64 7, metadata !2561, metadata !DIExpression()), !dbg !2580
  call void @llvm.dbg.value(metadata i32 0, metadata !2566, metadata !DIExpression()), !dbg !2585
  call void @llvm.dbg.value(metadata i64 34359738368, metadata !2563, metadata !DIExpression()), !dbg !2587
  %189 = shl nuw nsw i64 %8, 7, !dbg !2595
  %190 = and i64 %189, 68719476608, !dbg !2595
  call void @llvm.dbg.value(metadata i64 %190, metadata !2563, metadata !DIExpression()), !dbg !2587
  call void @llvm.dbg.value(metadata i32 1, metadata !2566, metadata !DIExpression()), !dbg !2585
  %191 = mul i64 %190, %8, !dbg !2598
  %192 = lshr i64 %191, 28, !dbg !2595
  call void @llvm.dbg.value(metadata i64 %192, metadata !2563, metadata !DIExpression()), !dbg !2587
  call void @llvm.dbg.value(metadata i32 2, metadata !2566, metadata !DIExpression()), !dbg !2585
  %193 = mul i64 %192, %8, !dbg !2598
  %194 = lshr i64 %193, 28, !dbg !2595
  call void @llvm.dbg.value(metadata i64 %194, metadata !2563, metadata !DIExpression()), !dbg !2587
  call void @llvm.dbg.value(metadata i32 3, metadata !2566, metadata !DIExpression()), !dbg !2585
  %195 = mul i64 %194, %8, !dbg !2598
  %196 = lshr i64 %195, 28, !dbg !2595
  call void @llvm.dbg.value(metadata i64 %196, metadata !2563, metadata !DIExpression()), !dbg !2587
  call void @llvm.dbg.value(metadata i32 4, metadata !2566, metadata !DIExpression()), !dbg !2585
  %197 = mul i64 %196, %8, !dbg !2598
  %198 = lshr i64 %197, 28, !dbg !2595
  call void @llvm.dbg.value(metadata i64 %198, metadata !2563, metadata !DIExpression()), !dbg !2587
  call void @llvm.dbg.value(metadata i32 5, metadata !2566, metadata !DIExpression()), !dbg !2585
  %199 = mul i64 %198, %8, !dbg !2598
  %200 = lshr i64 %199, 28, !dbg !2595
  call void @llvm.dbg.value(metadata i64 %200, metadata !2563, metadata !DIExpression()), !dbg !2587
  call void @llvm.dbg.value(metadata i32 6, metadata !2566, metadata !DIExpression()), !dbg !2585
  %201 = mul i64 %200, %8, !dbg !2598
  %202 = lshr i64 %201, 28, !dbg !2595
  call void @llvm.dbg.value(metadata i64 %202, metadata !2563, metadata !DIExpression()), !dbg !2587
  call void @llvm.dbg.value(metadata i32 7, metadata !2566, metadata !DIExpression()), !dbg !2585
  call void @llvm.dbg.value(metadata i32 7, metadata !2568, metadata !DIExpression()), !dbg !2586
  %203 = mul i64 %202, %9, !dbg !2589
  %204 = lshr i64 %203, 28, !dbg !2588
  call void @llvm.dbg.value(metadata i64 %204, metadata !2563, metadata !DIExpression()), !dbg !2587
  call void @llvm.dbg.value(metadata i32 8, metadata !2568, metadata !DIExpression()), !dbg !2586
  %205 = shl nuw nsw i64 %204, 3, !dbg !2599
  call void @llvm.dbg.value(metadata i64 %205, metadata !2563, metadata !DIExpression()), !dbg !2587
  %206 = add i64 %205, %180, !dbg !2597
  call void @llvm.dbg.value(metadata i64 %206, metadata !2560, metadata !DIExpression()), !dbg !2570
  %207 = lshr i64 %206, 7, !dbg !2590
  %208 = trunc i64 %207 to i32, !dbg !2591
  %209 = and i32 %208, 536870911, !dbg !2591
  %210 = getelementptr inbounds %class.RandomBitErrors, %class.RandomBitErrors* %0, i64 0, i32 1, i64 7, !dbg !2592
  %211 = lshr i64 %206, 6, !dbg !2593
  %212 = trunc i64 %211 to i32, !dbg !2593
  %213 = and i32 %212, 1, !dbg !2593
  %214 = add nuw nsw i32 %209, %213, !dbg !2593
  store i32 %214, i32* %210, align 4, !dbg !2587, !tbaa !2594
  call void @llvm.dbg.value(metadata i64 8, metadata !2561, metadata !DIExpression()), !dbg !2580
  %215 = getelementptr inbounds %class.RandomBitErrors, %class.RandomBitErrors* %0, i64 0, i32 1, i64 8, !dbg !2600
  store i32 268435456, i32* %215, align 4, !dbg !2601, !tbaa !2594
  ret void, !dbg !2602
}

; Function Attrs: noreturn nounwind
declare void @__assert_fail(i8*, i8*, i32, i8*) local_unnamed_addr #4

; Function Attrs: argmemonly nounwind willreturn
declare void @llvm.lifetime.start.p0i8(i64 immarg, i8* nocapture) #5

; Function Attrs: argmemonly nounwind willreturn
declare void @llvm.lifetime.end.p0i8(i64 immarg, i8* nocapture) #5

; Function Attrs: sspstrong uwtable
define dso_local i32 @_ZN15RandomBitErrors9configureER6VectorI6StringEP12ErrorHandler(%class.RandomBitErrors* %0, %class.Vector* dereferenceable(16) %1, %class.ErrorHandler* %2) unnamed_addr #0 align 2 personality i8* bitcast (i32 (...)* @__gxx_personality_v0 to i8*) !dbg !2603 {
  %4 = alloca i32, align 4
  %5 = alloca %class.String, align 8
  %6 = alloca i8, align 1
  %7 = alloca %class.Args, align 8
  call void @llvm.dbg.value(metadata %class.RandomBitErrors* %0, metadata !2605, metadata !DIExpression()), !dbg !2612
  call void @llvm.dbg.value(metadata %class.Vector* %1, metadata !2606, metadata !DIExpression()), !dbg !2612
  call void @llvm.dbg.value(metadata %class.ErrorHandler* %2, metadata !2607, metadata !DIExpression()), !dbg !2612
  %8 = bitcast i32* %4 to i8*, !dbg !2613
  call void @llvm.lifetime.start.p0i8(i64 4, i8* nonnull %8) #14, !dbg !2613
  %9 = bitcast %class.String* %5 to i8*, !dbg !2614
  call void @llvm.lifetime.start.p0i8(i64 24, i8* nonnull %9) #14, !dbg !2614
  call void @llvm.dbg.declare(metadata %class.String* %5, metadata !2609, metadata !DIExpression()), !dbg !2615
  call void @llvm.dbg.value(metadata %class.String* %5, metadata !2616, metadata !DIExpression()), !dbg !2620
  call void @llvm.dbg.value(metadata i8* getelementptr inbounds ([5 x i8], [5 x i8]* @.str.2, i64 0, i64 0), metadata !2619, metadata !DIExpression()), !dbg !2620
  call void @llvm.dbg.value(metadata %class.String* %5, metadata !2622, metadata !DIExpression()), !dbg !2628
  call void @llvm.dbg.value(metadata i8* getelementptr inbounds ([5 x i8], [5 x i8]* @.str.2, i64 0, i64 0), metadata !2625, metadata !DIExpression()), !dbg !2628
  call void @llvm.dbg.value(metadata i32 4, metadata !2626, metadata !DIExpression()), !dbg !2628
  call void @llvm.dbg.value(metadata %"struct.String::memo_t"* null, metadata !2627, metadata !DIExpression()), !dbg !2628
  %10 = getelementptr inbounds %class.String, %class.String* %5, i64 0, i32 0, i32 0, !dbg !2632
  store i8* getelementptr inbounds ([5 x i8], [5 x i8]* @.str.2, i64 0, i64 0), i8** %10, align 8, !dbg !2633, !tbaa !2634
  %11 = getelementptr inbounds %class.String, %class.String* %5, i64 0, i32 0, i32 1, !dbg !2638
  store i32 4, i32* %11, align 8, !dbg !2639, !tbaa !2640
  %12 = getelementptr inbounds %class.String, %class.String* %5, i64 0, i32 0, i32 2, !dbg !2641
  store %"struct.String::memo_t"* null, %"struct.String::memo_t"** %12, align 8, !dbg !2643, !tbaa !2644
  call void @llvm.lifetime.start.p0i8(i64 1, i8* nonnull %6) #14, !dbg !2645
  call void @llvm.dbg.value(metadata i8 1, metadata !2610, metadata !DIExpression()), !dbg !2612
  store i8 1, i8* %6, align 1, !dbg !2646, !tbaa !2647
  %13 = bitcast %class.Args* %7 to i8*, !dbg !2648
  call void @llvm.lifetime.start.p0i8(i64 112, i8* nonnull %13) #14, !dbg !2648
  %14 = bitcast %class.RandomBitErrors* %0 to %class.Element*, !dbg !2650
  invoke void @_ZN4ArgsC1ERK6VectorI6StringEPK7ElementP12ErrorHandler(%class.Args* nonnull %7, %class.Vector* nonnull dereferenceable(16) %1, %class.Element* %14, %class.ErrorHandler* %2)
          to label %15 unwind label %22, !dbg !2648

15:                                               ; preds = %3
  call void @llvm.dbg.value(metadata i64 28, metadata !2651, metadata !DIExpression(DW_OP_LLVM_fragment, 0, 64)), !dbg !2660
  call void @llvm.dbg.value(metadata i32 undef, metadata !2651, metadata !DIExpression(DW_OP_LLVM_fragment, 64, 32)), !dbg !2660
  call void @llvm.dbg.value(metadata %class.Args* %7, metadata !2657, metadata !DIExpression()), !dbg !2660
  call void @llvm.dbg.value(metadata i8* getelementptr inbounds ([2 x i8], [2 x i8]* @.str.3, i64 0, i64 0), metadata !2658, metadata !DIExpression()), !dbg !2660
  call void @llvm.dbg.value(metadata i32* %4, metadata !2659, metadata !DIExpression()), !dbg !2660
  call void @llvm.dbg.value(metadata i64 28, metadata !2662, metadata !DIExpression(DW_OP_LLVM_fragment, 0, 64)), !dbg !2672
  call void @llvm.dbg.value(metadata i32 undef, metadata !2662, metadata !DIExpression(DW_OP_LLVM_fragment, 64, 32)), !dbg !2672
  call void @llvm.dbg.value(metadata %class.Args* %7, metadata !2668, metadata !DIExpression()), !dbg !2672
  call void @llvm.dbg.value(metadata i8* getelementptr inbounds ([2 x i8], [2 x i8]* @.str.3, i64 0, i64 0), metadata !2669, metadata !DIExpression()), !dbg !2672
  call void @llvm.dbg.value(metadata i32 3, metadata !2670, metadata !DIExpression()), !dbg !2672
  call void @llvm.dbg.value(metadata i32* %4, metadata !2671, metadata !DIExpression()), !dbg !2672
  invoke void @_Z14args_base_readI13FixedPointArgjEvP4ArgsPKciT_RT0_(%class.Args* nonnull %7, i8* getelementptr inbounds ([2 x i8], [2 x i8]* @.str.3, i64 0, i64 0), i32 3, i64 28, i32 undef, i32* nonnull dereferenceable(4) %4)
          to label %16 unwind label %26, !dbg !2674

16:                                               ; preds = %15
  call void @llvm.dbg.value(metadata %class.Args* %7, metadata !2675, metadata !DIExpression()), !dbg !2683
  call void @llvm.dbg.value(metadata i8* getelementptr inbounds ([5 x i8], [5 x i8]* @.str.4, i64 0, i64 0), metadata !2681, metadata !DIExpression()), !dbg !2683
  call void @llvm.dbg.value(metadata %class.String* %5, metadata !2682, metadata !DIExpression()), !dbg !2683
  call void @llvm.dbg.value(metadata %class.Args* %7, metadata !2685, metadata !DIExpression()), !dbg !2694
  call void @llvm.dbg.value(metadata i8* getelementptr inbounds ([5 x i8], [5 x i8]* @.str.4, i64 0, i64 0), metadata !2691, metadata !DIExpression()), !dbg !2694
  call void @llvm.dbg.value(metadata i32 2, metadata !2692, metadata !DIExpression()), !dbg !2694
  call void @llvm.dbg.value(metadata %class.String* %5, metadata !2693, metadata !DIExpression()), !dbg !2694
  invoke void @_Z14args_base_readI6StringEvP4ArgsPKciRT_(%class.Args* nonnull %7, i8* getelementptr inbounds ([5 x i8], [5 x i8]* @.str.4, i64 0, i64 0), i32 2, %class.String* nonnull dereferenceable(24) %5)
          to label %17 unwind label %26, !dbg !2696

17:                                               ; preds = %16
  call void @llvm.dbg.value(metadata %class.Args* %7, metadata !2697, metadata !DIExpression()), !dbg !2705
  call void @llvm.dbg.value(metadata i8* getelementptr inbounds ([7 x i8], [7 x i8]* @.str.5, i64 0, i64 0), metadata !2703, metadata !DIExpression()), !dbg !2705
  call void @llvm.dbg.value(metadata i8* %6, metadata !2704, metadata !DIExpression()), !dbg !2705
  call void @llvm.dbg.value(metadata %class.Args* %7, metadata !2707, metadata !DIExpression()), !dbg !2716
  call void @llvm.dbg.value(metadata i8* getelementptr inbounds ([7 x i8], [7 x i8]* @.str.5, i64 0, i64 0), metadata !2713, metadata !DIExpression()), !dbg !2716
  call void @llvm.dbg.value(metadata i32 2, metadata !2714, metadata !DIExpression()), !dbg !2716
  call void @llvm.dbg.value(metadata i8* %6, metadata !2715, metadata !DIExpression()), !dbg !2716
  invoke void @_Z14args_base_readIbEvP4ArgsPKciRT_(%class.Args* nonnull %7, i8* getelementptr inbounds ([7 x i8], [7 x i8]* @.str.5, i64 0, i64 0), i32 2, i8* nonnull dereferenceable(1) %6)
          to label %18 unwind label %26, !dbg !2718

18:                                               ; preds = %17
  %19 = invoke i32 @_ZN4Args8completeEv(%class.Args* nonnull %7)
          to label %20 unwind label %26, !dbg !2719

20:                                               ; preds = %18
  %21 = icmp slt i32 %19, 0, !dbg !2720
  call void @_ZN4ArgsD1Ev(%class.Args* nonnull %7) #14, !dbg !2648
  call void @llvm.lifetime.end.p0i8(i64 112, i8* nonnull %13) #14, !dbg !2648
  br i1 %21, label %72, label %33, !dbg !2721

22:                                               ; preds = %3
  %23 = landingpad { i8*, i32 }
          cleanup, !dbg !2722
  %24 = extractvalue { i8*, i32 } %23, 0, !dbg !2722
  %25 = extractvalue { i8*, i32 } %23, 1, !dbg !2722
  br label %30, !dbg !2722

26:                                               ; preds = %17, %16, %15, %18
  %27 = landingpad { i8*, i32 }
          cleanup, !dbg !2722
  %28 = extractvalue { i8*, i32 } %27, 0, !dbg !2722
  %29 = extractvalue { i8*, i32 } %27, 1, !dbg !2722
  call void @_ZN4ArgsD1Ev(%class.Args* nonnull %7) #14, !dbg !2648
  br label %30, !dbg !2648

30:                                               ; preds = %26, %22
  %31 = phi i32 [ %29, %26 ], [ %25, %22 ], !dbg !2722
  %32 = phi i8* [ %28, %26 ], [ %24, %22 ], !dbg !2722
  call void @llvm.lifetime.end.p0i8(i64 112, i8* nonnull %13) #14, !dbg !2648
  br label %91, !dbg !2648

33:                                               ; preds = %20
  call void @llvm.dbg.value(metadata %class.String* %5, metadata !2723, metadata !DIExpression()), !dbg !2729
  call void @llvm.dbg.value(metadata i8* getelementptr inbounds ([5 x i8], [5 x i8]* @.str.2, i64 0, i64 0), metadata !2728, metadata !DIExpression()), !dbg !2729
  call void @llvm.dbg.value(metadata %class.String* %5, metadata !2732, metadata !DIExpression()), !dbg !2737
  call void @llvm.dbg.value(metadata i8* getelementptr inbounds ([5 x i8], [5 x i8]* @.str.2, i64 0, i64 0), metadata !2735, metadata !DIExpression()), !dbg !2737
  call void @llvm.dbg.value(metadata i32 4, metadata !2736, metadata !DIExpression()), !dbg !2737
  call void @llvm.dbg.value(metadata %class.String* %5, metadata !2740, metadata !DIExpression()), !dbg !2743
  %34 = load i32, i32* %11, align 8, !dbg !2746, !tbaa !2640
  switch i32 %34, label %51 [
    i32 4, label %35
    i32 0, label %55
    i32 3, label %43
    i32 5, label %47
  ], !dbg !2747

35:                                               ; preds = %33
  call void @llvm.dbg.value(metadata %class.String* %5, metadata !2748, metadata !DIExpression()), !dbg !2751
  %36 = load i8*, i8** %10, align 8, !dbg !2753, !tbaa !2634
  %37 = call i32 @bcmp(i8* nonnull dereferenceable(4) %36, i8* nonnull dereferenceable(4) getelementptr inbounds ([5 x i8], [5 x i8]* @.str.2, i64 0, i64 0), i64 4), !dbg !2754
  %38 = icmp eq i32 %37, 0, !dbg !2755
  br i1 %38, label %55, label %51, !dbg !2756

39:                                               ; preds = %63, %59, %53, %51
  %40 = landingpad { i8*, i32 }
          cleanup, !dbg !2757
  %41 = extractvalue { i8*, i32 } %40, 0, !dbg !2757
  %42 = extractvalue { i8*, i32 } %40, 1, !dbg !2757
  br label %91, !dbg !2758

43:                                               ; preds = %33
  call void @llvm.dbg.value(metadata %class.String* %5, metadata !2748, metadata !DIExpression()), !dbg !2759
  %44 = load i8*, i8** %10, align 8, !dbg !2764, !tbaa !2634
  %45 = call i32 @bcmp(i8* nonnull dereferenceable(3) %44, i8* nonnull dereferenceable(3) getelementptr inbounds ([4 x i8], [4 x i8]* @.str.7, i64 0, i64 0), i64 3), !dbg !2765
  %46 = icmp eq i32 %45, 0, !dbg !2766
  br i1 %46, label %55, label %51, !dbg !2767

47:                                               ; preds = %33
  call void @llvm.dbg.value(metadata %class.String* %5, metadata !2748, metadata !DIExpression()), !dbg !2768
  %48 = load i8*, i8** %10, align 8, !dbg !2773, !tbaa !2634
  %49 = call i32 @bcmp(i8* nonnull dereferenceable(5) %48, i8* nonnull dereferenceable(5) getelementptr inbounds ([6 x i8], [6 x i8]* @.str.8, i64 0, i64 0), i64 5), !dbg !2774
  %50 = icmp eq i32 %49, 0, !dbg !2775
  br i1 %50, label %55, label %51, !dbg !2776

51:                                               ; preds = %33, %35, %43, %47
  %52 = invoke i8* @_ZNK6String5c_strEv(%class.String* nonnull %5)
          to label %53 unwind label %39, !dbg !2777

53:                                               ; preds = %51
  %54 = invoke i32 (%class.ErrorHandler*, i8*, ...) @_ZN12ErrorHandler5errorEPKcz(%class.ErrorHandler* %2, i8* getelementptr inbounds ([60 x i8], [60 x i8]* @.str.9, i64 0, i64 0), i8* %52)
          to label %72 unwind label %39, !dbg !2778

55:                                               ; preds = %33, %47, %43, %35
  %56 = phi i32 [ 2, %35 ], [ 1, %43 ], [ 0, %47 ], [ 2, %33 ], !dbg !2779
  call void @llvm.dbg.value(metadata i32 %56, metadata !2611, metadata !DIExpression()), !dbg !2612
  %57 = load i32, i32* %4, align 4, !dbg !2780, !tbaa !2594
  call void @llvm.dbg.value(metadata i32 %57, metadata !2608, metadata !DIExpression()), !dbg !2612
  %58 = icmp ugt i32 %57, 268435456, !dbg !2782
  br i1 %58, label %59, label %61, !dbg !2783

59:                                               ; preds = %55
  %60 = invoke i32 (%class.ErrorHandler*, i8*, ...) @_ZN12ErrorHandler5errorEPKcz(%class.ErrorHandler* %2, i8* getelementptr inbounds ([41 x i8], [41 x i8]* @.str.10, i64 0, i64 0))
          to label %72 unwind label %39, !dbg !2784

61:                                               ; preds = %55
  %62 = icmp eq i32 %57, 0, !dbg !2785
  br i1 %62, label %63, label %67, !dbg !2787

63:                                               ; preds = %61
  %64 = invoke i32 (%class.ErrorHandler*, i8*, ...) @_ZN12ErrorHandler7warningEPKcz(%class.ErrorHandler* %2, i8* getelementptr inbounds ([40 x i8], [40 x i8]* @.str.11, i64 0, i64 0))
          to label %65 unwind label %39, !dbg !2788

65:                                               ; preds = %63
  %66 = load i32, i32* %4, align 4, !dbg !2789, !tbaa !2594
  br label %67, !dbg !2788

67:                                               ; preds = %65, %61
  %68 = phi i32 [ %66, %65 ], [ %57, %61 ], !dbg !2789
  call void @llvm.dbg.value(metadata i32 %68, metadata !2608, metadata !DIExpression()), !dbg !2612
  call void @_ZN15RandomBitErrors13set_bit_errorEj(%class.RandomBitErrors* %0, i32 %68), !dbg !2790
  %69 = getelementptr inbounds %class.RandomBitErrors, %class.RandomBitErrors* %0, i64 0, i32 3, !dbg !2791
  store i32 %56, i32* %69, align 4, !dbg !2792, !tbaa !2793
  %70 = load i8, i8* %6, align 1, !dbg !2794, !tbaa !2647, !range !2795
  call void @llvm.dbg.value(metadata i8 %70, metadata !2610, metadata !DIExpression()), !dbg !2612
  %71 = getelementptr inbounds %class.RandomBitErrors, %class.RandomBitErrors* %0, i64 0, i32 4, !dbg !2796
  store i8 %70, i8* %71, align 8, !dbg !2797, !tbaa !2798
  br label %72, !dbg !2799

72:                                               ; preds = %67, %53, %59, %20
  %73 = phi i32 [ -1, %20 ], [ 0, %67 ], [ %54, %53 ], [ %60, %59 ], !dbg !2612
  call void @llvm.lifetime.end.p0i8(i64 1, i8* nonnull %6) #14, !dbg !2758
  call void @llvm.dbg.value(metadata %class.String* %5, metadata !2800, metadata !DIExpression()) #14, !dbg !2803
  call void @llvm.dbg.value(metadata %class.String* %5, metadata !2805, metadata !DIExpression()) #14, !dbg !2808
  %74 = load %"struct.String::memo_t"*, %"struct.String::memo_t"** %12, align 8, !dbg !2811, !tbaa !2644
  %75 = icmp eq %"struct.String::memo_t"* %74, null, !dbg !2813
  br i1 %75, label %90, label %76, !dbg !2814

76:                                               ; preds = %72
  %77 = getelementptr inbounds %"struct.String::memo_t", %"struct.String::memo_t"* %74, i64 0, i32 0, !dbg !2815
  %78 = load volatile i32, i32* %77, align 4, !dbg !2815, !tbaa !2817
  %79 = icmp eq i32 %78, 0, !dbg !2815
  br i1 %79, label %80, label %81, !dbg !2815

80:                                               ; preds = %76
  call void @__assert_fail(i8* getelementptr inbounds ([18 x i8], [18 x i8]* @.str.17, i64 0, i64 0), i8* getelementptr inbounds ([29 x i8], [29 x i8]* @.str.18, i64 0, i64 0), i32 273, i8* getelementptr inbounds ([27 x i8], [27 x i8]* @__PRETTY_FUNCTION__._ZNK6String5derefEv, i64 0, i64 0)) #13, !dbg !2815
  unreachable, !dbg !2815

81:                                               ; preds = %76
  call void @llvm.dbg.value(metadata i32* %77, metadata !2819, metadata !DIExpression()) #14, !dbg !2822
  %82 = load volatile i32, i32* %77, align 4, !dbg !2825, !tbaa !2594
  %83 = add i32 %82, -1, !dbg !2825
  store volatile i32 %83, i32* %77, align 4, !dbg !2825, !tbaa !2594
  %84 = icmp eq i32 %83, 0, !dbg !2826
  br i1 %84, label %85, label %86, !dbg !2827

85:                                               ; preds = %81
  invoke void @_ZN6String11delete_memoEPNS_6memo_tE(%"struct.String::memo_t"* nonnull %74)
          to label %86 unwind label %87, !dbg !2828

86:                                               ; preds = %85, %81
  store %"struct.String::memo_t"* null, %"struct.String::memo_t"** %12, align 8, !dbg !2829, !tbaa !2644
  br label %90, !dbg !2830

87:                                               ; preds = %85
  %88 = landingpad { i8*, i32 }
          catch i8* null, !dbg !2831
  %89 = extractvalue { i8*, i32 } %88, 0, !dbg !2831
  call void @__clang_call_terminate(i8* %89) #13, !dbg !2831
  unreachable, !dbg !2831

90:                                               ; preds = %72, %86
  call void @llvm.lifetime.end.p0i8(i64 24, i8* nonnull %9) #14, !dbg !2758
  call void @llvm.lifetime.end.p0i8(i64 4, i8* nonnull %8) #14, !dbg !2758
  ret i32 %73, !dbg !2758

91:                                               ; preds = %39, %30
  %92 = phi i32 [ %42, %39 ], [ %31, %30 ], !dbg !2612
  %93 = phi i8* [ %41, %39 ], [ %32, %30 ], !dbg !2612
  call void @llvm.lifetime.end.p0i8(i64 1, i8* nonnull %6) #14, !dbg !2758
  call void @llvm.dbg.value(metadata %class.String* %5, metadata !2800, metadata !DIExpression()) #14, !dbg !2832
  call void @llvm.dbg.value(metadata %class.String* %5, metadata !2805, metadata !DIExpression()) #14, !dbg !2834
  %94 = load %"struct.String::memo_t"*, %"struct.String::memo_t"** %12, align 8, !dbg !2836, !tbaa !2644
  %95 = icmp eq %"struct.String::memo_t"* %94, null, !dbg !2837
  br i1 %95, label %110, label %96, !dbg !2838

96:                                               ; preds = %91
  %97 = getelementptr inbounds %"struct.String::memo_t", %"struct.String::memo_t"* %94, i64 0, i32 0, !dbg !2839
  %98 = load volatile i32, i32* %97, align 4, !dbg !2839, !tbaa !2817
  %99 = icmp eq i32 %98, 0, !dbg !2839
  br i1 %99, label %100, label %101, !dbg !2839

100:                                              ; preds = %96
  call void @__assert_fail(i8* getelementptr inbounds ([18 x i8], [18 x i8]* @.str.17, i64 0, i64 0), i8* getelementptr inbounds ([29 x i8], [29 x i8]* @.str.18, i64 0, i64 0), i32 273, i8* getelementptr inbounds ([27 x i8], [27 x i8]* @__PRETTY_FUNCTION__._ZNK6String5derefEv, i64 0, i64 0)) #13, !dbg !2839
  unreachable, !dbg !2839

101:                                              ; preds = %96
  call void @llvm.dbg.value(metadata i32* %97, metadata !2819, metadata !DIExpression()) #14, !dbg !2840
  %102 = load volatile i32, i32* %97, align 4, !dbg !2842, !tbaa !2594
  %103 = add i32 %102, -1, !dbg !2842
  store volatile i32 %103, i32* %97, align 4, !dbg !2842, !tbaa !2594
  %104 = icmp eq i32 %103, 0, !dbg !2843
  br i1 %104, label %105, label %106, !dbg !2844

105:                                              ; preds = %101
  invoke void @_ZN6String11delete_memoEPNS_6memo_tE(%"struct.String::memo_t"* nonnull %94)
          to label %106 unwind label %107, !dbg !2845

106:                                              ; preds = %105, %101
  store %"struct.String::memo_t"* null, %"struct.String::memo_t"** %12, align 8, !dbg !2846, !tbaa !2644
  br label %110, !dbg !2847

107:                                              ; preds = %105
  %108 = landingpad { i8*, i32 }
          catch i8* null, !dbg !2848
  %109 = extractvalue { i8*, i32 } %108, 0, !dbg !2848
  call void @__clang_call_terminate(i8* %109) #13, !dbg !2848
  unreachable, !dbg !2848

110:                                              ; preds = %91, %106
  call void @llvm.lifetime.end.p0i8(i64 24, i8* nonnull %9) #14, !dbg !2758
  call void @llvm.lifetime.end.p0i8(i64 4, i8* nonnull %8) #14, !dbg !2758
  %111 = insertvalue { i8*, i32 } undef, i8* %93, 0, !dbg !2758
  %112 = insertvalue { i8*, i32 } %111, i32 %92, 1, !dbg !2758
  resume { i8*, i32 } %112, !dbg !2758
}

declare void @_ZN4ArgsC1ERK6VectorI6StringEPK7ElementP12ErrorHandler(%class.Args*, %class.Vector* dereferenceable(16), %class.Element*, %class.ErrorHandler*) unnamed_addr #2

declare i32 @__gxx_personality_v0(...)

; Function Attrs: argmemonly nounwind willreturn
declare void @llvm.memcpy.p0i8.p0i8.i64(i8* noalias nocapture writeonly, i8* noalias nocapture readonly, i64, i1 immarg) #5

declare i32 @_ZN4Args8completeEv(%class.Args*) local_unnamed_addr #2

; Function Attrs: nounwind
declare void @_ZN4ArgsD1Ev(%class.Args*) unnamed_addr #6

declare i32 @_ZN12ErrorHandler5errorEPKcz(%class.ErrorHandler*, i8*, ...) local_unnamed_addr #2

declare i8* @_ZNK6String5c_strEv(%class.String*) local_unnamed_addr #2

declare i32 @_ZN12ErrorHandler7warningEPKcz(%class.ErrorHandler*, i8*, ...) local_unnamed_addr #2

; Function Attrs: sspstrong uwtable
define dso_local %class.Packet* @_ZN15RandomBitErrors13simple_actionEP6Packet(%class.RandomBitErrors* nocapture readonly %0, %class.Packet* %1) unnamed_addr #0 align 2 !dbg !2849 {
  call void @llvm.dbg.value(metadata %class.RandomBitErrors* %0, metadata !2851, metadata !DIExpression()), !dbg !2867
  call void @llvm.dbg.value(metadata %class.Packet* %1, metadata !2852, metadata !DIExpression()), !dbg !2867
  %3 = getelementptr inbounds %class.RandomBitErrors, %class.RandomBitErrors* %0, i64 0, i32 4, !dbg !2868
  %4 = load i8, i8* %3, align 8, !dbg !2868, !tbaa !2798, !range !2795
  %5 = icmp eq i8 %4, 0, !dbg !2868
  br i1 %5, label %137, label %6, !dbg !2870

6:                                                ; preds = %2
  %7 = getelementptr inbounds %class.RandomBitErrors, %class.RandomBitErrors* %0, i64 0, i32 1, i64 0, !dbg !2871
  %8 = load i32, i32* %7, align 4, !dbg !2871, !tbaa !2594
  %9 = icmp sgt i32 %8, 268435455, !dbg !2872
  br i1 %9, label %137, label %10, !dbg !2873

10:                                               ; preds = %6
  %11 = tail call %class.WritablePacket* @_ZN6Packet9uniqueifyEv(%class.Packet* %1), !dbg !2874
  call void @llvm.dbg.value(metadata %class.WritablePacket* %11, metadata !2853, metadata !DIExpression()), !dbg !2867
  %12 = tail call i8* @_ZNK14WritablePacket4dataEv(%class.WritablePacket* %11), !dbg !2875
  call void @llvm.dbg.value(metadata i8* %12, metadata !2854, metadata !DIExpression()), !dbg !2867
  %13 = getelementptr %class.WritablePacket, %class.WritablePacket* %11, i64 0, i32 0, !dbg !2876
  %14 = tail call i32 @_ZNK6Packet6lengthEv(%class.Packet* %13), !dbg !2876
  call void @llvm.dbg.value(metadata i32 %14, metadata !2855, metadata !DIExpression()), !dbg !2867
  call void @llvm.dbg.value(metadata i32* %7, metadata !2856, metadata !DIExpression()), !dbg !2867
  call void @llvm.dbg.value(metadata i32 undef, metadata !2857, metadata !DIExpression()), !dbg !2867
  call void @llvm.dbg.value(metadata i32 0, metadata !2858, metadata !DIExpression()), !dbg !2877
  %15 = icmp eq i32 %14, 0, !dbg !2878
  br i1 %15, label %137, label %16, !dbg !2879

16:                                               ; preds = %10
  %17 = getelementptr inbounds %class.RandomBitErrors, %class.RandomBitErrors* %0, i64 0, i32 3, !dbg !2880
  %18 = load i32, i32* %17, align 4, !dbg !2880, !tbaa !2793
  call void @llvm.dbg.value(metadata i32 %18, metadata !2857, metadata !DIExpression()), !dbg !2867
  switch i32 %18, label %23 [
    i32 0, label %21
    i32 1, label %19
  ], !dbg !2879

19:                                               ; preds = %16
  %20 = zext i32 %14 to i64, !dbg !2878
  br label %63, !dbg !2879

21:                                               ; preds = %16
  %22 = zext i32 %14 to i64, !dbg !2878
  br label %25, !dbg !2879

23:                                               ; preds = %16
  %24 = zext i32 %14 to i64, !dbg !2878
  br label %100, !dbg !2879

25:                                               ; preds = %60, %21
  %26 = phi i64 [ 0, %21 ], [ %61, %60 ]
  call void @llvm.dbg.value(metadata i64 %26, metadata !2858, metadata !DIExpression()), !dbg !2877
  %27 = tail call i64 @random() #14, !dbg !2881
  %28 = trunc i64 %27 to i32, !dbg !2881
  %29 = lshr i32 %28, 3, !dbg !2886
  %30 = and i32 %29, 268435455, !dbg !2887
  call void @llvm.dbg.value(metadata i32 %30, metadata !2860, metadata !DIExpression()), !dbg !2888
  %31 = load i32, i32* %7, align 4, !dbg !2889, !tbaa !2594
  %32 = icmp sgt i32 %30, %31, !dbg !2891
  br i1 %32, label %33, label %60, !dbg !2892

33:                                               ; preds = %25, %33
  %34 = phi i64 [ %38, %33 ], [ 1, %25 ], !dbg !2888
  call void @llvm.dbg.value(metadata i64 %34, metadata !2863, metadata !DIExpression()), !dbg !2888
  %35 = getelementptr inbounds %class.RandomBitErrors, %class.RandomBitErrors* %0, i64 0, i32 1, i64 %34, !dbg !2893
  %36 = load i32, i32* %35, align 4, !dbg !2893, !tbaa !2594
  %37 = icmp sgt i32 %30, %36, !dbg !2894
  %38 = add nuw i64 %34, 1, !dbg !2895
  call void @llvm.dbg.value(metadata i64 %38, metadata !2863, metadata !DIExpression()), !dbg !2888
  br i1 %37, label %33, label %39, !dbg !2896, !llvm.loop !2897

39:                                               ; preds = %33
  call void @llvm.dbg.value(metadata i64 %34, metadata !2863, metadata !DIExpression()), !dbg !2888
  call void @llvm.dbg.value(metadata i64 %34, metadata !2863, metadata !DIExpression()), !dbg !2888
  call void @llvm.dbg.value(metadata i64 %34, metadata !2863, metadata !DIExpression()), !dbg !2888
  call void @llvm.dbg.value(metadata i64 %34, metadata !2863, metadata !DIExpression()), !dbg !2888
  call void @llvm.dbg.value(metadata i64 %34, metadata !2863, metadata !DIExpression(DW_OP_LLVM_convert, 64, DW_ATE_unsigned, DW_OP_LLVM_convert, 32, DW_ATE_unsigned, DW_OP_stack_value)), !dbg !2888
  %40 = and i64 %34, 4294967295, !dbg !2893
  call void @llvm.dbg.value(metadata i64 %34, metadata !2863, metadata !DIExpression(DW_OP_LLVM_convert, 64, DW_ATE_unsigned, DW_OP_LLVM_convert, 32, DW_ATE_unsigned, DW_OP_stack_value)), !dbg !2888
  %41 = getelementptr inbounds [10 x i32], [10 x i32]* @_ZL18bit_flip_array_idx, i64 0, i64 %40, !dbg !2898
  %42 = load i32, i32* %41, align 4, !dbg !2898, !tbaa !2594
  call void @llvm.dbg.value(metadata i32 %42, metadata !2864, metadata !DIExpression()), !dbg !2888
  %43 = add i64 %34, 1, !dbg !2899
  %44 = and i64 %43, 4294967295, !dbg !2900
  %45 = getelementptr inbounds [10 x i32], [10 x i32]* @_ZL18bit_flip_array_idx, i64 0, i64 %44, !dbg !2900
  %46 = load i32, i32* %45, align 4, !dbg !2900, !tbaa !2594
  %47 = sub nsw i32 %46, %42, !dbg !2901
  call void @llvm.dbg.value(metadata i32 %47, metadata !2865, metadata !DIExpression()), !dbg !2888
  %48 = tail call i64 @random() #14, !dbg !2902
  %49 = trunc i64 %48 to i32, !dbg !2902
  %50 = lshr i32 %49, 5, !dbg !2904
  %51 = urem i32 %50, %47, !dbg !2905
  %52 = add i32 %51, %42, !dbg !2906
  %53 = zext i32 %52 to i64, !dbg !2907
  %54 = getelementptr inbounds [256 x i8], [256 x i8]* @_ZL14bit_flip_array, i64 0, i64 %53, !dbg !2907
  %55 = load i8, i8* %54, align 1, !dbg !2907, !tbaa !2908
  call void @llvm.dbg.value(metadata i8 %55, metadata !2866, metadata !DIExpression()), !dbg !2888
  %56 = xor i8 %55, -1, !dbg !2909
  %57 = getelementptr inbounds i8, i8* %12, i64 %26, !dbg !2911
  %58 = load i8, i8* %57, align 1, !dbg !2912, !tbaa !2908
  %59 = and i8 %58, %56, !dbg !2912
  store i8 %59, i8* %57, align 1, !dbg !2912, !tbaa !2908
  br label %60, !dbg !2911

60:                                               ; preds = %39, %25
  %61 = add nuw nsw i64 %26, 1, !dbg !2913
  call void @llvm.dbg.value(metadata i64 %61, metadata !2858, metadata !DIExpression()), !dbg !2877
  %62 = icmp eq i64 %61, %22, !dbg !2878
  br i1 %62, label %137, label %25, !dbg !2879, !llvm.loop !2914

63:                                               ; preds = %97, %19
  %64 = phi i64 [ 0, %19 ], [ %98, %97 ]
  call void @llvm.dbg.value(metadata i64 %64, metadata !2858, metadata !DIExpression()), !dbg !2877
  %65 = tail call i64 @random() #14, !dbg !2881
  %66 = trunc i64 %65 to i32, !dbg !2881
  %67 = lshr i32 %66, 3, !dbg !2886
  %68 = and i32 %67, 268435455, !dbg !2887
  call void @llvm.dbg.value(metadata i32 %68, metadata !2860, metadata !DIExpression()), !dbg !2888
  %69 = load i32, i32* %7, align 4, !dbg !2889, !tbaa !2594
  %70 = icmp sgt i32 %68, %69, !dbg !2891
  br i1 %70, label %71, label %97, !dbg !2892

71:                                               ; preds = %63, %71
  %72 = phi i64 [ %76, %71 ], [ 1, %63 ], !dbg !2888
  call void @llvm.dbg.value(metadata i64 %72, metadata !2863, metadata !DIExpression()), !dbg !2888
  %73 = getelementptr inbounds %class.RandomBitErrors, %class.RandomBitErrors* %0, i64 0, i32 1, i64 %72, !dbg !2893
  %74 = load i32, i32* %73, align 4, !dbg !2893, !tbaa !2594
  %75 = icmp sgt i32 %68, %74, !dbg !2894
  %76 = add nuw i64 %72, 1, !dbg !2895
  call void @llvm.dbg.value(metadata i64 %76, metadata !2863, metadata !DIExpression()), !dbg !2888
  br i1 %75, label %71, label %77, !dbg !2896, !llvm.loop !2897

77:                                               ; preds = %71
  call void @llvm.dbg.value(metadata i64 %72, metadata !2863, metadata !DIExpression()), !dbg !2888
  call void @llvm.dbg.value(metadata i64 %72, metadata !2863, metadata !DIExpression()), !dbg !2888
  call void @llvm.dbg.value(metadata i64 %72, metadata !2863, metadata !DIExpression()), !dbg !2888
  call void @llvm.dbg.value(metadata i64 %72, metadata !2863, metadata !DIExpression()), !dbg !2888
  call void @llvm.dbg.value(metadata i64 %72, metadata !2863, metadata !DIExpression(DW_OP_LLVM_convert, 64, DW_ATE_unsigned, DW_OP_LLVM_convert, 32, DW_ATE_unsigned, DW_OP_stack_value)), !dbg !2888
  %78 = and i64 %72, 4294967295, !dbg !2893
  call void @llvm.dbg.value(metadata i64 %72, metadata !2863, metadata !DIExpression(DW_OP_LLVM_convert, 64, DW_ATE_unsigned, DW_OP_LLVM_convert, 32, DW_ATE_unsigned, DW_OP_stack_value)), !dbg !2888
  %79 = getelementptr inbounds [10 x i32], [10 x i32]* @_ZL18bit_flip_array_idx, i64 0, i64 %78, !dbg !2898
  %80 = load i32, i32* %79, align 4, !dbg !2898, !tbaa !2594
  call void @llvm.dbg.value(metadata i32 %80, metadata !2864, metadata !DIExpression()), !dbg !2888
  %81 = add i64 %72, 1, !dbg !2899
  %82 = and i64 %81, 4294967295, !dbg !2900
  %83 = getelementptr inbounds [10 x i32], [10 x i32]* @_ZL18bit_flip_array_idx, i64 0, i64 %82, !dbg !2900
  %84 = load i32, i32* %83, align 4, !dbg !2900, !tbaa !2594
  %85 = sub nsw i32 %84, %80, !dbg !2901
  call void @llvm.dbg.value(metadata i32 %85, metadata !2865, metadata !DIExpression()), !dbg !2888
  %86 = tail call i64 @random() #14, !dbg !2902
  %87 = trunc i64 %86 to i32, !dbg !2902
  %88 = lshr i32 %87, 5, !dbg !2904
  %89 = urem i32 %88, %85, !dbg !2905
  %90 = add i32 %89, %80, !dbg !2906
  %91 = zext i32 %90 to i64, !dbg !2907
  %92 = getelementptr inbounds [256 x i8], [256 x i8]* @_ZL14bit_flip_array, i64 0, i64 %91, !dbg !2907
  %93 = load i8, i8* %92, align 1, !dbg !2907, !tbaa !2908
  call void @llvm.dbg.value(metadata i8 %93, metadata !2866, metadata !DIExpression()), !dbg !2888
  %94 = getelementptr inbounds i8, i8* %12, i64 %64, !dbg !2916
  %95 = load i8, i8* %94, align 1, !dbg !2916, !tbaa !2908
  %96 = or i8 %95, %93, !dbg !2918
  store i8 %96, i8* %94, align 1, !dbg !2918, !tbaa !2908
  br label %97, !dbg !2919

97:                                               ; preds = %77, %63
  %98 = add nuw nsw i64 %64, 1, !dbg !2913
  call void @llvm.dbg.value(metadata i64 %98, metadata !2858, metadata !DIExpression()), !dbg !2877
  %99 = icmp eq i64 %98, %20, !dbg !2878
  br i1 %99, label %137, label %63, !dbg !2879, !llvm.loop !2914

100:                                              ; preds = %134, %23
  %101 = phi i64 [ 0, %23 ], [ %135, %134 ]
  call void @llvm.dbg.value(metadata i64 %101, metadata !2858, metadata !DIExpression()), !dbg !2877
  %102 = tail call i64 @random() #14, !dbg !2881
  %103 = trunc i64 %102 to i32, !dbg !2881
  %104 = lshr i32 %103, 3, !dbg !2886
  %105 = and i32 %104, 268435455, !dbg !2887
  call void @llvm.dbg.value(metadata i32 %105, metadata !2860, metadata !DIExpression()), !dbg !2888
  %106 = load i32, i32* %7, align 4, !dbg !2889, !tbaa !2594
  %107 = icmp sgt i32 %105, %106, !dbg !2891
  br i1 %107, label %108, label %134, !dbg !2892

108:                                              ; preds = %100, %108
  %109 = phi i64 [ %113, %108 ], [ 1, %100 ], !dbg !2888
  call void @llvm.dbg.value(metadata i64 %109, metadata !2863, metadata !DIExpression()), !dbg !2888
  %110 = getelementptr inbounds %class.RandomBitErrors, %class.RandomBitErrors* %0, i64 0, i32 1, i64 %109, !dbg !2893
  %111 = load i32, i32* %110, align 4, !dbg !2893, !tbaa !2594
  %112 = icmp sgt i32 %105, %111, !dbg !2894
  %113 = add nuw i64 %109, 1, !dbg !2895
  call void @llvm.dbg.value(metadata i64 %113, metadata !2863, metadata !DIExpression()), !dbg !2888
  br i1 %112, label %108, label %114, !dbg !2896, !llvm.loop !2897

114:                                              ; preds = %108
  call void @llvm.dbg.value(metadata i64 %109, metadata !2863, metadata !DIExpression()), !dbg !2888
  call void @llvm.dbg.value(metadata i64 %109, metadata !2863, metadata !DIExpression()), !dbg !2888
  call void @llvm.dbg.value(metadata i64 %109, metadata !2863, metadata !DIExpression()), !dbg !2888
  call void @llvm.dbg.value(metadata i64 %109, metadata !2863, metadata !DIExpression()), !dbg !2888
  call void @llvm.dbg.value(metadata i64 %109, metadata !2863, metadata !DIExpression(DW_OP_LLVM_convert, 64, DW_ATE_unsigned, DW_OP_LLVM_convert, 32, DW_ATE_unsigned, DW_OP_stack_value)), !dbg !2888
  %115 = and i64 %109, 4294967295, !dbg !2893
  call void @llvm.dbg.value(metadata i64 %109, metadata !2863, metadata !DIExpression(DW_OP_LLVM_convert, 64, DW_ATE_unsigned, DW_OP_LLVM_convert, 32, DW_ATE_unsigned, DW_OP_stack_value)), !dbg !2888
  %116 = getelementptr inbounds [10 x i32], [10 x i32]* @_ZL18bit_flip_array_idx, i64 0, i64 %115, !dbg !2898
  %117 = load i32, i32* %116, align 4, !dbg !2898, !tbaa !2594
  call void @llvm.dbg.value(metadata i32 %117, metadata !2864, metadata !DIExpression()), !dbg !2888
  %118 = add i64 %109, 1, !dbg !2899
  %119 = and i64 %118, 4294967295, !dbg !2900
  %120 = getelementptr inbounds [10 x i32], [10 x i32]* @_ZL18bit_flip_array_idx, i64 0, i64 %119, !dbg !2900
  %121 = load i32, i32* %120, align 4, !dbg !2900, !tbaa !2594
  %122 = sub nsw i32 %121, %117, !dbg !2901
  call void @llvm.dbg.value(metadata i32 %122, metadata !2865, metadata !DIExpression()), !dbg !2888
  %123 = tail call i64 @random() #14, !dbg !2902
  %124 = trunc i64 %123 to i32, !dbg !2902
  %125 = lshr i32 %124, 5, !dbg !2904
  %126 = urem i32 %125, %122, !dbg !2905
  %127 = add i32 %126, %117, !dbg !2906
  %128 = zext i32 %127 to i64, !dbg !2907
  %129 = getelementptr inbounds [256 x i8], [256 x i8]* @_ZL14bit_flip_array, i64 0, i64 %128, !dbg !2907
  %130 = load i8, i8* %129, align 1, !dbg !2907, !tbaa !2908
  call void @llvm.dbg.value(metadata i8 %130, metadata !2866, metadata !DIExpression()), !dbg !2888
  %131 = getelementptr inbounds i8, i8* %12, i64 %101, !dbg !2916
  %132 = load i8, i8* %131, align 1, !dbg !2916, !tbaa !2908
  %133 = xor i8 %132, %130, !dbg !2920
  store i8 %133, i8* %131, align 1, !dbg !2920, !tbaa !2908
  br label %134

134:                                              ; preds = %114, %100
  %135 = add nuw nsw i64 %101, 1, !dbg !2913
  call void @llvm.dbg.value(metadata i64 %135, metadata !2858, metadata !DIExpression()), !dbg !2877
  %136 = icmp eq i64 %135, %24, !dbg !2878
  br i1 %136, label %137, label %100, !dbg !2879, !llvm.loop !2914

137:                                              ; preds = %97, %60, %134, %10, %6, %2
  %138 = phi %class.Packet* [ %1, %2 ], [ %1, %6 ], [ %13, %10 ], [ %13, %134 ], [ %13, %60 ], [ %13, %97 ], !dbg !2867
  ret %class.Packet* %138, !dbg !2921
}

declare %class.WritablePacket* @_ZN6Packet9uniqueifyEv(%class.Packet*) local_unnamed_addr #2

declare i8* @_ZNK14WritablePacket4dataEv(%class.WritablePacket*) local_unnamed_addr #2

declare i32 @_ZNK6Packet6lengthEv(%class.Packet*) local_unnamed_addr #2

; Function Attrs: sspstrong uwtable
define dso_local void @_ZN15RandomBitErrors12add_handlersEv(%class.RandomBitErrors* %0) unnamed_addr #0 align 2 personality i8* bitcast (i32 (...)* @__gxx_personality_v0 to i8*) !dbg !2922 {
  %2 = alloca %class.String, align 8
  %3 = alloca %class.String, align 8
  call void @llvm.dbg.value(metadata %class.RandomBitErrors* %0, metadata !2924, metadata !DIExpression()), !dbg !2925
  %4 = bitcast %class.RandomBitErrors* %0 to %class.Element*, !dbg !2926
  tail call void @_ZN7Element16add_read_handlerEPKcPF6StringPS_PvEij(%class.Element* %4, i8* getelementptr inbounds ([12 x i8], [12 x i8]* @.str.12, i64 0, i64 0), void (%class.String*, %class.Element*, i8*)* nonnull @_ZL22random_bit_errors_readP7ElementPv, i32 0, i32 0), !dbg !2926
  %5 = bitcast %class.String* %2 to i8*, !dbg !2927
  call void @llvm.lifetime.start.p0i8(i64 24, i8* nonnull %5) #14, !dbg !2927
  call void @llvm.dbg.value(metadata %class.String* %2, metadata !2616, metadata !DIExpression()), !dbg !2928
  call void @llvm.dbg.value(metadata i8* getelementptr inbounds ([12 x i8], [12 x i8]* @.str.12, i64 0, i64 0), metadata !2619, metadata !DIExpression()), !dbg !2928
  call void @llvm.dbg.value(metadata %class.String* %2, metadata !2622, metadata !DIExpression()), !dbg !2930
  call void @llvm.dbg.value(metadata i8* getelementptr inbounds ([12 x i8], [12 x i8]* @.str.12, i64 0, i64 0), metadata !2625, metadata !DIExpression()), !dbg !2930
  call void @llvm.dbg.value(metadata i32 11, metadata !2626, metadata !DIExpression()), !dbg !2930
  call void @llvm.dbg.value(metadata %"struct.String::memo_t"* null, metadata !2627, metadata !DIExpression()), !dbg !2930
  %6 = getelementptr inbounds %class.String, %class.String* %2, i64 0, i32 0, i32 0, !dbg !2932
  store i8* getelementptr inbounds ([12 x i8], [12 x i8]* @.str.12, i64 0, i64 0), i8** %6, align 8, !dbg !2933, !tbaa !2634
  %7 = getelementptr inbounds %class.String, %class.String* %2, i64 0, i32 0, i32 1, !dbg !2934
  store i32 11, i32* %7, align 8, !dbg !2935, !tbaa !2640
  %8 = getelementptr inbounds %class.String, %class.String* %2, i64 0, i32 0, i32 2, !dbg !2936
  store %"struct.String::memo_t"* null, %"struct.String::memo_t"** %8, align 8, !dbg !2937, !tbaa !2644
  invoke void @_ZN7Element17add_write_handlerERK6StringPFiS2_PS_PvP12ErrorHandlerEPKvj(%class.Element* %4, %class.String* nonnull dereferenceable(24) %2, i32 (%class.String*, %class.Element*, i8*, %class.ErrorHandler*)* nonnull @_ZN7Element27reconfigure_keyword_handlerERK6StringPS_PvP12ErrorHandler, i8* getelementptr inbounds ([4 x i8], [4 x i8]* @.str.13, i64 0, i64 0), i32 0)
          to label %9 unwind label %50, !dbg !2938

9:                                                ; preds = %1
  call void @llvm.dbg.value(metadata %class.String* %2, metadata !2800, metadata !DIExpression()) #14, !dbg !2939
  call void @llvm.dbg.value(metadata %class.String* %2, metadata !2805, metadata !DIExpression()) #14, !dbg !2941
  %10 = load %"struct.String::memo_t"*, %"struct.String::memo_t"** %8, align 8, !dbg !2943, !tbaa !2644
  %11 = icmp eq %"struct.String::memo_t"* %10, null, !dbg !2944
  br i1 %11, label %26, label %12, !dbg !2945

12:                                               ; preds = %9
  %13 = getelementptr inbounds %"struct.String::memo_t", %"struct.String::memo_t"* %10, i64 0, i32 0, !dbg !2946
  %14 = load volatile i32, i32* %13, align 4, !dbg !2946, !tbaa !2817
  %15 = icmp eq i32 %14, 0, !dbg !2946
  br i1 %15, label %16, label %17, !dbg !2946

16:                                               ; preds = %12
  call void @__assert_fail(i8* getelementptr inbounds ([18 x i8], [18 x i8]* @.str.17, i64 0, i64 0), i8* getelementptr inbounds ([29 x i8], [29 x i8]* @.str.18, i64 0, i64 0), i32 273, i8* getelementptr inbounds ([27 x i8], [27 x i8]* @__PRETTY_FUNCTION__._ZNK6String5derefEv, i64 0, i64 0)) #13, !dbg !2946
  unreachable, !dbg !2946

17:                                               ; preds = %12
  call void @llvm.dbg.value(metadata i32* %13, metadata !2819, metadata !DIExpression()) #14, !dbg !2947
  %18 = load volatile i32, i32* %13, align 4, !dbg !2949, !tbaa !2594
  %19 = add i32 %18, -1, !dbg !2949
  store volatile i32 %19, i32* %13, align 4, !dbg !2949, !tbaa !2594
  %20 = icmp eq i32 %19, 0, !dbg !2950
  br i1 %20, label %21, label %22, !dbg !2951

21:                                               ; preds = %17
  invoke void @_ZN6String11delete_memoEPNS_6memo_tE(%"struct.String::memo_t"* nonnull %10)
          to label %22 unwind label %23, !dbg !2952

22:                                               ; preds = %21, %17
  store %"struct.String::memo_t"* null, %"struct.String::memo_t"** %8, align 8, !dbg !2953, !tbaa !2644
  br label %26, !dbg !2954

23:                                               ; preds = %21
  %24 = landingpad { i8*, i32 }
          catch i8* null, !dbg !2955
  %25 = extractvalue { i8*, i32 } %24, 0, !dbg !2955
  call void @__clang_call_terminate(i8* %25) #13, !dbg !2955
  unreachable, !dbg !2955

26:                                               ; preds = %9, %22
  call void @llvm.lifetime.end.p0i8(i64 24, i8* nonnull %5) #14, !dbg !2938
  call void @_ZN7Element16add_read_handlerEPKcPF6StringPS_PvEij(%class.Element* %4, i8* getelementptr inbounds ([11 x i8], [11 x i8]* @.str.14, i64 0, i64 0), void (%class.String*, %class.Element*, i8*)* nonnull @_ZL22random_bit_errors_readP7ElementPv, i32 1, i32 0), !dbg !2956
  %27 = bitcast %class.String* %3 to i8*, !dbg !2957
  call void @llvm.lifetime.start.p0i8(i64 24, i8* nonnull %27) #14, !dbg !2957
  call void @llvm.dbg.value(metadata %class.String* %3, metadata !2616, metadata !DIExpression()), !dbg !2958
  call void @llvm.dbg.value(metadata i8* getelementptr inbounds ([11 x i8], [11 x i8]* @.str.14, i64 0, i64 0), metadata !2619, metadata !DIExpression()), !dbg !2958
  call void @llvm.dbg.value(metadata %class.String* %3, metadata !2622, metadata !DIExpression()), !dbg !2960
  call void @llvm.dbg.value(metadata i8* getelementptr inbounds ([11 x i8], [11 x i8]* @.str.14, i64 0, i64 0), metadata !2625, metadata !DIExpression()), !dbg !2960
  call void @llvm.dbg.value(metadata i32 10, metadata !2626, metadata !DIExpression()), !dbg !2960
  call void @llvm.dbg.value(metadata %"struct.String::memo_t"* null, metadata !2627, metadata !DIExpression()), !dbg !2960
  %28 = getelementptr inbounds %class.String, %class.String* %3, i64 0, i32 0, i32 0, !dbg !2962
  store i8* getelementptr inbounds ([11 x i8], [11 x i8]* @.str.14, i64 0, i64 0), i8** %28, align 8, !dbg !2963, !tbaa !2634
  %29 = getelementptr inbounds %class.String, %class.String* %3, i64 0, i32 0, i32 1, !dbg !2964
  store i32 10, i32* %29, align 8, !dbg !2965, !tbaa !2640
  %30 = getelementptr inbounds %class.String, %class.String* %3, i64 0, i32 0, i32 2, !dbg !2966
  store %"struct.String::memo_t"* null, %"struct.String::memo_t"** %30, align 8, !dbg !2967, !tbaa !2644
  invoke void @_ZN7Element17add_write_handlerERK6StringPFiS2_PS_PvP12ErrorHandlerEPKvj(%class.Element* %4, %class.String* nonnull dereferenceable(24) %3, i32 (%class.String*, %class.Element*, i8*, %class.ErrorHandler*)* nonnull @_ZN7Element27reconfigure_keyword_handlerERK6StringPS_PvP12ErrorHandler, i8* getelementptr inbounds ([7 x i8], [7 x i8]* @.str.15, i64 0, i64 0), i32 0)
          to label %31 unwind label %71, !dbg !2968

31:                                               ; preds = %26
  call void @llvm.dbg.value(metadata %class.String* %3, metadata !2800, metadata !DIExpression()) #14, !dbg !2969
  call void @llvm.dbg.value(metadata %class.String* %3, metadata !2805, metadata !DIExpression()) #14, !dbg !2971
  %32 = load %"struct.String::memo_t"*, %"struct.String::memo_t"** %30, align 8, !dbg !2973, !tbaa !2644
  %33 = icmp eq %"struct.String::memo_t"* %32, null, !dbg !2974
  br i1 %33, label %48, label %34, !dbg !2975

34:                                               ; preds = %31
  %35 = getelementptr inbounds %"struct.String::memo_t", %"struct.String::memo_t"* %32, i64 0, i32 0, !dbg !2976
  %36 = load volatile i32, i32* %35, align 4, !dbg !2976, !tbaa !2817
  %37 = icmp eq i32 %36, 0, !dbg !2976
  br i1 %37, label %38, label %39, !dbg !2976

38:                                               ; preds = %34
  call void @__assert_fail(i8* getelementptr inbounds ([18 x i8], [18 x i8]* @.str.17, i64 0, i64 0), i8* getelementptr inbounds ([29 x i8], [29 x i8]* @.str.18, i64 0, i64 0), i32 273, i8* getelementptr inbounds ([27 x i8], [27 x i8]* @__PRETTY_FUNCTION__._ZNK6String5derefEv, i64 0, i64 0)) #13, !dbg !2976
  unreachable, !dbg !2976

39:                                               ; preds = %34
  call void @llvm.dbg.value(metadata i32* %35, metadata !2819, metadata !DIExpression()) #14, !dbg !2977
  %40 = load volatile i32, i32* %35, align 4, !dbg !2979, !tbaa !2594
  %41 = add i32 %40, -1, !dbg !2979
  store volatile i32 %41, i32* %35, align 4, !dbg !2979, !tbaa !2594
  %42 = icmp eq i32 %41, 0, !dbg !2980
  br i1 %42, label %43, label %44, !dbg !2981

43:                                               ; preds = %39
  invoke void @_ZN6String11delete_memoEPNS_6memo_tE(%"struct.String::memo_t"* nonnull %32)
          to label %44 unwind label %45, !dbg !2982

44:                                               ; preds = %43, %39
  store %"struct.String::memo_t"* null, %"struct.String::memo_t"** %30, align 8, !dbg !2983, !tbaa !2644
  br label %48, !dbg !2984

45:                                               ; preds = %43
  %46 = landingpad { i8*, i32 }
          catch i8* null, !dbg !2985
  %47 = extractvalue { i8*, i32 } %46, 0, !dbg !2985
  call void @__clang_call_terminate(i8* %47) #13, !dbg !2985
  unreachable, !dbg !2985

48:                                               ; preds = %31, %44
  call void @llvm.lifetime.end.p0i8(i64 24, i8* nonnull %27) #14, !dbg !2968
  %49 = getelementptr inbounds %class.RandomBitErrors, %class.RandomBitErrors* %0, i64 0, i32 4, !dbg !2986
  call void @_ZN7Element17add_data_handlersEPKciPb(%class.Element* %4, i8* getelementptr inbounds ([7 x i8], [7 x i8]* @.str.16, i64 0, i64 0), i32 3, i8* nonnull %49), !dbg !2987
  ret void, !dbg !2988

50:                                               ; preds = %1
  %51 = landingpad { i8*, i32 }
          cleanup, !dbg !2988
  %52 = extractvalue { i8*, i32 } %51, 0, !dbg !2988
  %53 = extractvalue { i8*, i32 } %51, 1, !dbg !2988
  call void @llvm.dbg.value(metadata %class.String* %2, metadata !2800, metadata !DIExpression()) #14, !dbg !2989
  call void @llvm.dbg.value(metadata %class.String* %2, metadata !2805, metadata !DIExpression()) #14, !dbg !2991
  %54 = load %"struct.String::memo_t"*, %"struct.String::memo_t"** %8, align 8, !dbg !2993, !tbaa !2644
  %55 = icmp eq %"struct.String::memo_t"* %54, null, !dbg !2994
  br i1 %55, label %70, label %56, !dbg !2995

56:                                               ; preds = %50
  %57 = getelementptr inbounds %"struct.String::memo_t", %"struct.String::memo_t"* %54, i64 0, i32 0, !dbg !2996
  %58 = load volatile i32, i32* %57, align 4, !dbg !2996, !tbaa !2817
  %59 = icmp eq i32 %58, 0, !dbg !2996
  br i1 %59, label %60, label %61, !dbg !2996

60:                                               ; preds = %56
  call void @__assert_fail(i8* getelementptr inbounds ([18 x i8], [18 x i8]* @.str.17, i64 0, i64 0), i8* getelementptr inbounds ([29 x i8], [29 x i8]* @.str.18, i64 0, i64 0), i32 273, i8* getelementptr inbounds ([27 x i8], [27 x i8]* @__PRETTY_FUNCTION__._ZNK6String5derefEv, i64 0, i64 0)) #13, !dbg !2996
  unreachable, !dbg !2996

61:                                               ; preds = %56
  call void @llvm.dbg.value(metadata i32* %57, metadata !2819, metadata !DIExpression()) #14, !dbg !2997
  %62 = load volatile i32, i32* %57, align 4, !dbg !2999, !tbaa !2594
  %63 = add i32 %62, -1, !dbg !2999
  store volatile i32 %63, i32* %57, align 4, !dbg !2999, !tbaa !2594
  %64 = icmp eq i32 %63, 0, !dbg !3000
  br i1 %64, label %65, label %66, !dbg !3001

65:                                               ; preds = %61
  invoke void @_ZN6String11delete_memoEPNS_6memo_tE(%"struct.String::memo_t"* nonnull %54)
          to label %66 unwind label %67, !dbg !3002

66:                                               ; preds = %65, %61
  store %"struct.String::memo_t"* null, %"struct.String::memo_t"** %8, align 8, !dbg !3003, !tbaa !2644
  br label %70, !dbg !3004

67:                                               ; preds = %65
  %68 = landingpad { i8*, i32 }
          catch i8* null, !dbg !3005
  %69 = extractvalue { i8*, i32 } %68, 0, !dbg !3005
  call void @__clang_call_terminate(i8* %69) #13, !dbg !3005
  unreachable, !dbg !3005

70:                                               ; preds = %50, %66
  call void @llvm.lifetime.end.p0i8(i64 24, i8* nonnull %5) #14, !dbg !2938
  br label %92, !dbg !2938

71:                                               ; preds = %26
  %72 = landingpad { i8*, i32 }
          cleanup, !dbg !2988
  %73 = extractvalue { i8*, i32 } %72, 0, !dbg !2988
  %74 = extractvalue { i8*, i32 } %72, 1, !dbg !2988
  call void @llvm.dbg.value(metadata %class.String* %3, metadata !2800, metadata !DIExpression()) #14, !dbg !3006
  call void @llvm.dbg.value(metadata %class.String* %3, metadata !2805, metadata !DIExpression()) #14, !dbg !3008
  %75 = load %"struct.String::memo_t"*, %"struct.String::memo_t"** %30, align 8, !dbg !3010, !tbaa !2644
  %76 = icmp eq %"struct.String::memo_t"* %75, null, !dbg !3011
  br i1 %76, label %91, label %77, !dbg !3012

77:                                               ; preds = %71
  %78 = getelementptr inbounds %"struct.String::memo_t", %"struct.String::memo_t"* %75, i64 0, i32 0, !dbg !3013
  %79 = load volatile i32, i32* %78, align 4, !dbg !3013, !tbaa !2817
  %80 = icmp eq i32 %79, 0, !dbg !3013
  br i1 %80, label %81, label %82, !dbg !3013

81:                                               ; preds = %77
  call void @__assert_fail(i8* getelementptr inbounds ([18 x i8], [18 x i8]* @.str.17, i64 0, i64 0), i8* getelementptr inbounds ([29 x i8], [29 x i8]* @.str.18, i64 0, i64 0), i32 273, i8* getelementptr inbounds ([27 x i8], [27 x i8]* @__PRETTY_FUNCTION__._ZNK6String5derefEv, i64 0, i64 0)) #13, !dbg !3013
  unreachable, !dbg !3013

82:                                               ; preds = %77
  call void @llvm.dbg.value(metadata i32* %78, metadata !2819, metadata !DIExpression()) #14, !dbg !3014
  %83 = load volatile i32, i32* %78, align 4, !dbg !3016, !tbaa !2594
  %84 = add i32 %83, -1, !dbg !3016
  store volatile i32 %84, i32* %78, align 4, !dbg !3016, !tbaa !2594
  %85 = icmp eq i32 %84, 0, !dbg !3017
  br i1 %85, label %86, label %87, !dbg !3018

86:                                               ; preds = %82
  invoke void @_ZN6String11delete_memoEPNS_6memo_tE(%"struct.String::memo_t"* nonnull %75)
          to label %87 unwind label %88, !dbg !3019

87:                                               ; preds = %86, %82
  store %"struct.String::memo_t"* null, %"struct.String::memo_t"** %30, align 8, !dbg !3020, !tbaa !2644
  br label %91, !dbg !3021

88:                                               ; preds = %86
  %89 = landingpad { i8*, i32 }
          catch i8* null, !dbg !3022
  %90 = extractvalue { i8*, i32 } %89, 0, !dbg !3022
  call void @__clang_call_terminate(i8* %90) #13, !dbg !3022
  unreachable, !dbg !3022

91:                                               ; preds = %71, %87
  call void @llvm.lifetime.end.p0i8(i64 24, i8* nonnull %27) #14, !dbg !2968
  br label %92, !dbg !2968

92:                                               ; preds = %91, %70
  %93 = phi i8* [ %73, %91 ], [ %52, %70 ], !dbg !2988
  %94 = phi i32 [ %74, %91 ], [ %53, %70 ], !dbg !2988
  %95 = insertvalue { i8*, i32 } undef, i8* %93, 0, !dbg !2938
  %96 = insertvalue { i8*, i32 } %95, i32 %94, 1, !dbg !2938
  resume { i8*, i32 } %96, !dbg !2938
}

declare void @_ZN7Element16add_read_handlerEPKcPF6StringPS_PvEij(%class.Element*, i8*, void (%class.String*, %class.Element*, i8*)*, i32, i32) local_unnamed_addr #2

; Function Attrs: sspstrong uwtable
define internal void @_ZL22random_bit_errors_readP7ElementPv(%class.String* noalias sret %0, %class.Element* nocapture readonly %1, i8* %2) #0 !dbg !3023 {
  call void @llvm.dbg.value(metadata %class.Element* %1, metadata !3025, metadata !DIExpression()), !dbg !3029
  call void @llvm.dbg.value(metadata i8* %2, metadata !3026, metadata !DIExpression()), !dbg !3029
  %4 = ptrtoint i8* %2 to i64, !dbg !3030
  %5 = trunc i64 %4 to i32, !dbg !3030
  call void @llvm.dbg.value(metadata i32 %5, metadata !3027, metadata !DIExpression()), !dbg !3029
  call void @llvm.dbg.value(metadata %class.Element* %1, metadata !3028, metadata !DIExpression()), !dbg !3029
  %6 = icmp eq i32 %5, 0, !dbg !3031
  br i1 %6, label %7, label %10, !dbg !3033

7:                                                ; preds = %3
  call void @llvm.dbg.value(metadata %class.Element* %1, metadata !3028, metadata !DIExpression()), !dbg !3029
  call void @llvm.dbg.value(metadata %class.Element* %1, metadata !3034, metadata !DIExpression()), !dbg !3038
  %8 = getelementptr inbounds %class.Element, %class.Element* %1, i64 1, i32 2, i64 0, i32 1, !dbg !3040
  %9 = load i32, i32* %8, align 8, !dbg !3040, !tbaa !2574
  tail call void @_Z16cp_unparse_real2ji(%class.String* sret %0, i32 %9, i32 28), !dbg !3041
  br label %30, !dbg !3042

10:                                               ; preds = %3
  call void @llvm.dbg.value(metadata %class.Element* %1, metadata !3043, metadata !DIExpression()), !dbg !3046
  %11 = getelementptr inbounds %class.Element, %class.Element* %1, i64 1, i32 2, i64 0, i32 2, !dbg !3049
  %12 = bitcast [4 x i8]* %11 to i32*, !dbg !3049
  %13 = load i32, i32* %12, align 4, !dbg !3049, !tbaa !2793
  switch i32 %13, label %26 [
    i32 0, label %14
    i32 1, label %18
    i32 2, label %22
  ], !dbg !3050

14:                                               ; preds = %10
  call void @llvm.dbg.value(metadata %class.String* %0, metadata !2616, metadata !DIExpression()), !dbg !3051
  call void @llvm.dbg.value(metadata i8* getelementptr inbounds ([6 x i8], [6 x i8]* @.str.8, i64 0, i64 0), metadata !2619, metadata !DIExpression()), !dbg !3051
  call void @llvm.dbg.value(metadata %class.String* %0, metadata !2622, metadata !DIExpression()), !dbg !3054
  call void @llvm.dbg.value(metadata i8* getelementptr inbounds ([6 x i8], [6 x i8]* @.str.8, i64 0, i64 0), metadata !2625, metadata !DIExpression()), !dbg !3054
  call void @llvm.dbg.value(metadata i32 5, metadata !2626, metadata !DIExpression()), !dbg !3054
  call void @llvm.dbg.value(metadata %"struct.String::memo_t"* null, metadata !2627, metadata !DIExpression()), !dbg !3054
  %15 = getelementptr inbounds %class.String, %class.String* %0, i64 0, i32 0, i32 0, !dbg !3056
  store i8* getelementptr inbounds ([6 x i8], [6 x i8]* @.str.8, i64 0, i64 0), i8** %15, align 8, !dbg !3057, !tbaa !2634
  %16 = getelementptr inbounds %class.String, %class.String* %0, i64 0, i32 0, i32 1, !dbg !3058
  store i32 5, i32* %16, align 8, !dbg !3059, !tbaa !2640
  %17 = getelementptr inbounds %class.String, %class.String* %0, i64 0, i32 0, i32 2, !dbg !3060
  store %"struct.String::memo_t"* null, %"struct.String::memo_t"** %17, align 8, !dbg !3061, !tbaa !2644
  br label %30, !dbg !3062

18:                                               ; preds = %10
  call void @llvm.dbg.value(metadata %class.String* %0, metadata !2616, metadata !DIExpression()), !dbg !3063
  call void @llvm.dbg.value(metadata i8* getelementptr inbounds ([4 x i8], [4 x i8]* @.str.7, i64 0, i64 0), metadata !2619, metadata !DIExpression()), !dbg !3063
  call void @llvm.dbg.value(metadata %class.String* %0, metadata !2622, metadata !DIExpression()), !dbg !3065
  call void @llvm.dbg.value(metadata i8* getelementptr inbounds ([4 x i8], [4 x i8]* @.str.7, i64 0, i64 0), metadata !2625, metadata !DIExpression()), !dbg !3065
  call void @llvm.dbg.value(metadata i32 3, metadata !2626, metadata !DIExpression()), !dbg !3065
  call void @llvm.dbg.value(metadata %"struct.String::memo_t"* null, metadata !2627, metadata !DIExpression()), !dbg !3065
  %19 = getelementptr inbounds %class.String, %class.String* %0, i64 0, i32 0, i32 0, !dbg !3067
  store i8* getelementptr inbounds ([4 x i8], [4 x i8]* @.str.7, i64 0, i64 0), i8** %19, align 8, !dbg !3068, !tbaa !2634
  %20 = getelementptr inbounds %class.String, %class.String* %0, i64 0, i32 0, i32 1, !dbg !3069
  store i32 3, i32* %20, align 8, !dbg !3070, !tbaa !2640
  %21 = getelementptr inbounds %class.String, %class.String* %0, i64 0, i32 0, i32 2, !dbg !3071
  store %"struct.String::memo_t"* null, %"struct.String::memo_t"** %21, align 8, !dbg !3072, !tbaa !2644
  br label %30, !dbg !3073

22:                                               ; preds = %10
  call void @llvm.dbg.value(metadata %class.String* %0, metadata !2616, metadata !DIExpression()), !dbg !3074
  call void @llvm.dbg.value(metadata i8* getelementptr inbounds ([5 x i8], [5 x i8]* @.str.2, i64 0, i64 0), metadata !2619, metadata !DIExpression()), !dbg !3074
  call void @llvm.dbg.value(metadata %class.String* %0, metadata !2622, metadata !DIExpression()), !dbg !3076
  call void @llvm.dbg.value(metadata i8* getelementptr inbounds ([5 x i8], [5 x i8]* @.str.2, i64 0, i64 0), metadata !2625, metadata !DIExpression()), !dbg !3076
  call void @llvm.dbg.value(metadata i32 4, metadata !2626, metadata !DIExpression()), !dbg !3076
  call void @llvm.dbg.value(metadata %"struct.String::memo_t"* null, metadata !2627, metadata !DIExpression()), !dbg !3076
  %23 = getelementptr inbounds %class.String, %class.String* %0, i64 0, i32 0, i32 0, !dbg !3078
  store i8* getelementptr inbounds ([5 x i8], [5 x i8]* @.str.2, i64 0, i64 0), i8** %23, align 8, !dbg !3079, !tbaa !2634
  %24 = getelementptr inbounds %class.String, %class.String* %0, i64 0, i32 0, i32 1, !dbg !3080
  store i32 4, i32* %24, align 8, !dbg !3081, !tbaa !2640
  %25 = getelementptr inbounds %class.String, %class.String* %0, i64 0, i32 0, i32 2, !dbg !3082
  store %"struct.String::memo_t"* null, %"struct.String::memo_t"** %25, align 8, !dbg !3083, !tbaa !2644
  br label %30, !dbg !3084

26:                                               ; preds = %10
  call void @llvm.dbg.value(metadata %class.String* %0, metadata !2616, metadata !DIExpression()), !dbg !3085
  call void @llvm.dbg.value(metadata i8* getelementptr inbounds ([3 x i8], [3 x i8]* @.str.19, i64 0, i64 0), metadata !2619, metadata !DIExpression()), !dbg !3085
  call void @llvm.dbg.value(metadata %class.String* %0, metadata !2622, metadata !DIExpression()), !dbg !3087
  call void @llvm.dbg.value(metadata i8* getelementptr inbounds ([3 x i8], [3 x i8]* @.str.19, i64 0, i64 0), metadata !2625, metadata !DIExpression()), !dbg !3087
  call void @llvm.dbg.value(metadata i32 2, metadata !2626, metadata !DIExpression()), !dbg !3087
  call void @llvm.dbg.value(metadata %"struct.String::memo_t"* null, metadata !2627, metadata !DIExpression()), !dbg !3087
  %27 = getelementptr inbounds %class.String, %class.String* %0, i64 0, i32 0, i32 0, !dbg !3089
  store i8* getelementptr inbounds ([3 x i8], [3 x i8]* @.str.19, i64 0, i64 0), i8** %27, align 8, !dbg !3090, !tbaa !2634
  %28 = getelementptr inbounds %class.String, %class.String* %0, i64 0, i32 0, i32 1, !dbg !3091
  store i32 2, i32* %28, align 8, !dbg !3092, !tbaa !2640
  %29 = getelementptr inbounds %class.String, %class.String* %0, i64 0, i32 0, i32 2, !dbg !3093
  store %"struct.String::memo_t"* null, %"struct.String::memo_t"** %29, align 8, !dbg !3094, !tbaa !2644
  br label %30, !dbg !3095

30:                                               ; preds = %26, %22, %18, %14, %7
  ret void, !dbg !3096
}

declare void @_ZN7Element17add_write_handlerERK6StringPFiS2_PS_PvP12ErrorHandlerEPKvj(%class.Element*, %class.String* dereferenceable(24), i32 (%class.String*, %class.Element*, i8*, %class.ErrorHandler*)*, i8*, i32) local_unnamed_addr #2

declare i32 @_ZN7Element27reconfigure_keyword_handlerERK6StringPS_PvP12ErrorHandler(%class.String* dereferenceable(24), %class.Element*, i8*, %class.ErrorHandler*) #2

declare void @_ZN7Element17add_data_handlersEPKciPb(%class.Element*, i8*, i32, i8*) local_unnamed_addr #2

; Function Attrs: nounwind
declare void @_ZN7ElementD2Ev(%class.Element*) unnamed_addr #6

; Function Attrs: inlinehint nounwind sspstrong uwtable
define linkonce_odr dso_local void @_ZN15RandomBitErrorsD0Ev(%class.RandomBitErrors* %0) unnamed_addr #7 comdat align 2 !dbg !3097 {
  call void @llvm.dbg.value(metadata %class.RandomBitErrors* %0, metadata !3100, metadata !DIExpression()), !dbg !3101
  %2 = bitcast %class.RandomBitErrors* %0 to %class.Element*, !dbg !3102
  tail call void @_ZN7ElementD2Ev(%class.Element* %2) #14, !dbg !3102
  %3 = bitcast %class.RandomBitErrors* %0 to i8*, !dbg !3102
  tail call void @_ZdlPv(i8* %3) #15, !dbg !3102
  ret void, !dbg !3102
}

declare void @_ZN7Element4pushEiP6Packet(%class.Element*, i32, %class.Packet*) unnamed_addr #2

declare %class.Packet* @_ZN7Element4pullEi(%class.Element*, i32) unnamed_addr #2

declare zeroext i1 @_ZN7Element8run_taskEP4Task(%class.Element*, %class.Task*) unnamed_addr #2

declare void @_ZN7Element9run_timerEP5Timer(%class.Element*, %class.Timer*) unnamed_addr #2

declare void @_ZN7Element8selectedEii(%class.Element*, i32, i32) unnamed_addr #2

declare void @_ZN7Element8selectedEi(%class.Element*, i32) unnamed_addr #2

; Function Attrs: nounwind sspstrong uwtable
define linkonce_odr dso_local i8* @_ZNK15RandomBitErrors10class_nameEv(%class.RandomBitErrors* %0) unnamed_addr #3 comdat align 2 !dbg !3103 {
  call void @llvm.dbg.value(metadata %class.RandomBitErrors* %0, metadata !3105, metadata !DIExpression()), !dbg !3106
  ret i8* getelementptr inbounds ([16 x i8], [16 x i8]* @.str.20, i64 0, i64 0), !dbg !3107
}

; Function Attrs: nounwind sspstrong uwtable
define linkonce_odr dso_local i8* @_ZNK15RandomBitErrors10port_countEv(%class.RandomBitErrors* %0) unnamed_addr #3 comdat align 2 !dbg !3108 {
  call void @llvm.dbg.value(metadata %class.RandomBitErrors* %0, metadata !3110, metadata !DIExpression()), !dbg !3111
  ret i8* getelementptr inbounds ([0 x i8], [0 x i8]* @_ZN7Element9PORTS_1_1E, i64 0, i64 0), !dbg !3112
}

declare i8* @_ZNK7Element10processingEv(%class.Element*) unnamed_addr #2

declare i8* @_ZNK7Element9flow_codeEv(%class.Element*) unnamed_addr #2

declare i8* @_ZNK7Element5flagsEv(%class.Element*) unnamed_addr #2

declare i8* @_ZN7Element4castEPKc(%class.Element*, i8*) unnamed_addr #2

declare i8* @_ZN7Element9port_castEbiPKc(%class.Element*, i1 zeroext, i32, i8*) unnamed_addr #2

declare i32 @_ZNK7Element15configure_phaseEv(%class.Element*) unnamed_addr #2

declare i32 @_ZN7Element10initializeEP12ErrorHandler(%class.Element*, %class.ErrorHandler*) unnamed_addr #2

declare void @_ZN7Element10take_stateEPS_P12ErrorHandler(%class.Element*, %class.Element*, %class.ErrorHandler*) unnamed_addr #2

declare %class.Element* @_ZNK7Element15hotswap_elementEv(%class.Element*) unnamed_addr #2

declare void @_ZN7Element7cleanupENS_12CleanupStageE(%class.Element*, i32) unnamed_addr #2

declare void @_ZNK7Element11declarationEv(%class.String* sret, %class.Element*) unnamed_addr #2

; Function Attrs: nounwind sspstrong uwtable
define linkonce_odr dso_local zeroext i1 @_ZNK15RandomBitErrors20can_live_reconfigureEv(%class.RandomBitErrors* %0) unnamed_addr #3 comdat align 2 !dbg !3113 {
  call void @llvm.dbg.value(metadata %class.RandomBitErrors* %0, metadata !3115, metadata !DIExpression()), !dbg !3116
  ret i1 true, !dbg !3117
}

declare i32 @_ZN7Element16live_reconfigureER6VectorI6StringEP12ErrorHandler(%class.Element*, %class.Vector* dereferenceable(16), %class.ErrorHandler*) unnamed_addr #2

declare i32 @_ZN7Element5llrpcEjPv(%class.Element*, i32, i8*) unnamed_addr #2

; Function Attrs: inlinehint nounwind sspstrong uwtable
define linkonce_odr dso_local i32 @_ZNK6String6lengthEv(%class.String* %0) #7 comdat align 2 !dbg !2741 {
  call void @llvm.dbg.value(metadata %class.String* %0, metadata !2740, metadata !DIExpression()), !dbg !3118
  %2 = getelementptr inbounds %class.String, %class.String* %0, i64 0, i32 0, i32 1, !dbg !3119
  %3 = load i32, i32* %2, align 8, !dbg !3119, !tbaa !2640
  ret i32 %3, !dbg !3120
}

; Function Attrs: noinline noreturn nounwind
define linkonce_odr hidden void @__clang_call_terminate(i8* %0) local_unnamed_addr #8 comdat {
  %2 = tail call i8* @__cxa_begin_catch(i8* %0) #14
  tail call void @_ZSt9terminatev() #13
  unreachable
}

declare i8* @__cxa_begin_catch(i8*) local_unnamed_addr

declare void @_ZSt9terminatev() local_unnamed_addr

declare void @_ZN6String11delete_memoEPNS_6memo_tE(%"struct.String::memo_t"*) local_unnamed_addr #2

; Function Attrs: nounwind
declare !dbg !1340 i64 @random() local_unnamed_addr #6

declare !dbg !1583 void @_Z16cp_unparse_real2ji(%class.String* sret, i32, i32) local_unnamed_addr #2

; Function Attrs: nobuiltin nounwind
declare void @_ZdlPv(i8*) local_unnamed_addr #9

; Function Attrs: noinline optnone sspstrong uwtable
define linkonce_odr dso_local void @_Z14args_base_readI13FixedPointArgjEvP4ArgsPKciT_RT0_(%class.Args* %0, i8* %1, i32 %2, i64 %3, i32 %4, i32* dereferenceable(4) %5) local_unnamed_addr #10 comdat !dbg !3121 {
  %7 = alloca %class.FixedPointArg, align 4
  %8 = alloca { i64, i32 }, align 4
  %9 = alloca %class.Args*, align 8
  %10 = alloca i8*, align 8
  %11 = alloca i32, align 4
  %12 = alloca i32*, align 8
  %13 = alloca %class.FixedPointArg, align 4
  %14 = alloca { i64, i32 }, align 4
  %15 = getelementptr inbounds { i64, i32 }, { i64, i32 }* %8, i32 0, i32 0
  store i64 %3, i64* %15, align 4
  %16 = getelementptr inbounds { i64, i32 }, { i64, i32 }* %8, i32 0, i32 1
  store i32 %4, i32* %16, align 4
  %17 = bitcast %class.FixedPointArg* %7 to i8*
  %18 = bitcast { i64, i32 }* %8 to i8*
  call void @llvm.memcpy.p0i8.p0i8.i64(i8* align 4 %17, i8* align 4 %18, i64 12, i1 false)
  store %class.Args* %0, %class.Args** %9, align 8, !tbaa !3128
  call void @llvm.dbg.declare(metadata %class.Args** %9, metadata !3123, metadata !DIExpression()), !dbg !3129
  store i8* %1, i8** %10, align 8, !tbaa !3128
  call void @llvm.dbg.declare(metadata i8** %10, metadata !3124, metadata !DIExpression()), !dbg !3130
  store i32 %2, i32* %11, align 4, !tbaa !2594
  call void @llvm.dbg.declare(metadata i32* %11, metadata !3125, metadata !DIExpression()), !dbg !3131
  call void @llvm.dbg.declare(metadata %class.FixedPointArg* %7, metadata !3126, metadata !DIExpression()), !dbg !3132
  store i32* %5, i32** %12, align 8, !tbaa !3128
  call void @llvm.dbg.declare(metadata i32** %12, metadata !3127, metadata !DIExpression()), !dbg !3133
  %19 = load %class.Args*, %class.Args** %9, align 8, !dbg !3134, !tbaa !3128
  %20 = load i8*, i8** %10, align 8, !dbg !3135, !tbaa !3128
  %21 = load i32, i32* %11, align 4, !dbg !3136, !tbaa !2594
  %22 = bitcast %class.FixedPointArg* %13 to i8*, !dbg !3137
  %23 = bitcast %class.FixedPointArg* %7 to i8*, !dbg !3137
  call void @llvm.memcpy.p0i8.p0i8.i64(i8* align 4 %22, i8* align 4 %23, i64 12, i1 false), !dbg !3137
  %24 = load i32*, i32** %12, align 8, !dbg !3138, !tbaa !3128
  %25 = bitcast { i64, i32 }* %14 to i8*, !dbg !3139
  %26 = bitcast %class.FixedPointArg* %13 to i8*, !dbg !3139
  call void @llvm.memcpy.p0i8.p0i8.i64(i8* align 4 %25, i8* align 4 %26, i64 12, i1 false), !dbg !3139
  %27 = getelementptr inbounds { i64, i32 }, { i64, i32 }* %14, i32 0, i32 0, !dbg !3139
  %28 = load i64, i64* %27, align 4, !dbg !3139
  %29 = getelementptr inbounds { i64, i32 }, { i64, i32 }* %14, i32 0, i32 1, !dbg !3139
  %30 = load i32, i32* %29, align 4, !dbg !3139
  call void @_ZN4Args9base_readI13FixedPointArgjEEvPKciT_RT0_(%class.Args* %19, i8* %20, i32 %21, i64 %28, i32 %30, i32* dereferenceable(4) %24), !dbg !3139
  ret void, !dbg !3140
}

; Function Attrs: sspstrong uwtable
define linkonce_odr dso_local void @_ZN4Args9base_readI13FixedPointArgjEEvPKciT_RT0_(%class.Args* %0, i8* %1, i32 %2, i64 %3, i32 %4, i32* dereferenceable(4) %5) local_unnamed_addr #0 comdat align 2 personality i8* bitcast (i32 (...)* @__gxx_personality_v0 to i8*) !dbg !3141 {
  %7 = alloca %class.FixedPointArg, align 8
  call void @llvm.dbg.declare(metadata %class.FixedPointArg* %7, metadata !3156, metadata !DIExpression()), !dbg !3170
  %8 = alloca %"struct.Args::Slot"*, align 8
  %9 = alloca %class.String, align 8
  call void @llvm.dbg.value(metadata i64 %3, metadata !3149, metadata !DIExpression(DW_OP_LLVM_fragment, 0, 64)), !dbg !3172
  call void @llvm.dbg.value(metadata i32 %4, metadata !3149, metadata !DIExpression(DW_OP_LLVM_fragment, 64, 32)), !dbg !3172
  call void @llvm.dbg.value(metadata %class.Args* %0, metadata !3146, metadata !DIExpression()), !dbg !3172
  call void @llvm.dbg.value(metadata i8* %1, metadata !3147, metadata !DIExpression()), !dbg !3172
  call void @llvm.dbg.value(metadata i32 %2, metadata !3148, metadata !DIExpression()), !dbg !3172
  call void @llvm.dbg.value(metadata i32* %5, metadata !3150, metadata !DIExpression()), !dbg !3172
  %10 = bitcast %"struct.Args::Slot"** %8 to i8*, !dbg !3173
  call void @llvm.lifetime.start.p0i8(i64 8, i8* nonnull %10) #14, !dbg !3173
  %11 = bitcast %class.String* %9 to i8*, !dbg !3174
  call void @llvm.lifetime.start.p0i8(i64 24, i8* nonnull %11) #14, !dbg !3174
  call void @llvm.dbg.declare(metadata %class.String* %9, metadata !3152, metadata !DIExpression()), !dbg !3175
  call void @llvm.dbg.value(metadata %"struct.Args::Slot"** %8, metadata !3151, metadata !DIExpression(DW_OP_deref)), !dbg !3172
  call void @_ZN4Args4findEPKciRPNS_4SlotE(%class.String* nonnull sret %9, %class.Args* %0, i8* %1, i32 %2, %"struct.Args::Slot"** nonnull dereferenceable(8) %8), !dbg !3176
  call void @llvm.dbg.value(metadata %class.String* %9, metadata !3177, metadata !DIExpression()), !dbg !3180
  %12 = getelementptr inbounds %class.String, %class.String* %9, i64 0, i32 0, i32 1, !dbg !3182
  %13 = load i32, i32* %12, align 8, !dbg !3182, !tbaa !2640
  %14 = icmp eq i32 %13, 0, !dbg !3183
  %15 = select i1 %14, { i64, i64 } zeroinitializer, { i64, i64 } { i64 ptrtoint (i32 (%class.String*)* @_ZNK6String6lengthEv to i64), i64 0 }, !dbg !3184
  %16 = extractvalue { i64, i64 } %15, 0, !dbg !3175
  %17 = icmp eq i64 %16, 0, !dbg !3175
  br i1 %17, label %54, label %18, !dbg !3174

18:                                               ; preds = %6
  call void @llvm.dbg.value(metadata i32* %5, metadata !3185, metadata !DIExpression()), !dbg !3192
  call void @llvm.dbg.value(metadata %class.Args* %0, metadata !3191, metadata !DIExpression()), !dbg !3192
  call void @llvm.dbg.value(metadata %class.Args* %0, metadata !3194, metadata !DIExpression()), !dbg !3202
  call void @llvm.dbg.value(metadata i32* %5, metadata !3201, metadata !DIExpression()), !dbg !3202
  %19 = bitcast i32* %5 to i8*, !dbg !3204
  %20 = invoke i8* @_ZN4Args11simple_slotEPvm(%class.Args* nonnull %0, i8* nonnull %19, i64 4)
          to label %21 unwind label %34, !dbg !3206

21:                                               ; preds = %18
  call void @llvm.dbg.value(metadata i8* %20, metadata !3154, metadata !DIExpression()), !dbg !3207
  %22 = icmp eq i8* %20, null, !dbg !3208
  br i1 %22, label %31, label %23, !dbg !3209

23:                                               ; preds = %21
  %24 = bitcast i8* %20 to i32*, !dbg !3210
  call void @llvm.dbg.value(metadata i32* %24, metadata !3154, metadata !DIExpression()), !dbg !3207
  %25 = bitcast %class.FixedPointArg* %7 to i8*
  call void @llvm.lifetime.start.p0i8(i64 12, i8* nonnull %25)
  %26 = bitcast %class.FixedPointArg* %7 to i64*
  store i64 %3, i64* %26, align 8
  %27 = getelementptr inbounds %class.FixedPointArg, %class.FixedPointArg* %7, i64 0, i32 2
  store i32 %4, i32* %27, align 8
  call void @llvm.dbg.value(metadata %class.String* %9, metadata !3167, metadata !DIExpression()), !dbg !3211
  call void @llvm.dbg.value(metadata i32* %24, metadata !3168, metadata !DIExpression()), !dbg !3211
  call void @llvm.dbg.value(metadata %class.Args* %0, metadata !3169, metadata !DIExpression()), !dbg !3211
  %28 = bitcast %class.Args* %0 to %class.ArgContext*, !dbg !3212
  %29 = invoke zeroext i1 @_ZN13FixedPointArg5parseERK6StringRjRK10ArgContext(%class.FixedPointArg* nonnull %7, %class.String* nonnull dereferenceable(24) %9, i32* nonnull dereferenceable(4) %24, %class.ArgContext* nonnull dereferenceable(32) %28)
          to label %30 unwind label %34, !dbg !3213

30:                                               ; preds = %23
  call void @llvm.lifetime.end.p0i8(i64 12, i8* nonnull %25), !dbg !3214
  br label %31, !dbg !3214

31:                                               ; preds = %30, %21
  %32 = phi i1 [ false, %21 ], [ %29, %30 ], !dbg !3207
  %33 = load %"struct.Args::Slot"*, %"struct.Args::Slot"** %8, align 8, !dbg !3215, !tbaa !3128
  call void @llvm.dbg.value(metadata %"struct.Args::Slot"* %33, metadata !3151, metadata !DIExpression()), !dbg !3172
  invoke void @_ZN4Args9postparseEbPNS_4SlotE(%class.Args* nonnull %0, i1 zeroext %32, %"struct.Args::Slot"* %33)
          to label %54 unwind label %34, !dbg !3216

34:                                               ; preds = %23, %18, %31
  %35 = landingpad { i8*, i32 }
          cleanup, !dbg !3217
  call void @llvm.dbg.value(metadata %class.String* %9, metadata !2800, metadata !DIExpression()) #14, !dbg !3218
  call void @llvm.dbg.value(metadata %class.String* %9, metadata !2805, metadata !DIExpression()) #14, !dbg !3220
  %36 = getelementptr inbounds %class.String, %class.String* %9, i64 0, i32 0, i32 2, !dbg !3222
  %37 = load %"struct.String::memo_t"*, %"struct.String::memo_t"** %36, align 8, !dbg !3222, !tbaa !2644
  %38 = icmp eq %"struct.String::memo_t"* %37, null, !dbg !3223
  br i1 %38, label %53, label %39, !dbg !3224

39:                                               ; preds = %34
  %40 = getelementptr inbounds %"struct.String::memo_t", %"struct.String::memo_t"* %37, i64 0, i32 0, !dbg !3225
  %41 = load volatile i32, i32* %40, align 4, !dbg !3225, !tbaa !2817
  %42 = icmp eq i32 %41, 0, !dbg !3225
  br i1 %42, label %43, label %44, !dbg !3225

43:                                               ; preds = %39
  call void @__assert_fail(i8* getelementptr inbounds ([18 x i8], [18 x i8]* @.str.17, i64 0, i64 0), i8* getelementptr inbounds ([29 x i8], [29 x i8]* @.str.18, i64 0, i64 0), i32 273, i8* getelementptr inbounds ([27 x i8], [27 x i8]* @__PRETTY_FUNCTION__._ZNK6String5derefEv, i64 0, i64 0)) #13, !dbg !3225
  unreachable, !dbg !3225

44:                                               ; preds = %39
  call void @llvm.dbg.value(metadata i32* %40, metadata !2819, metadata !DIExpression()) #14, !dbg !3226
  %45 = load volatile i32, i32* %40, align 4, !dbg !3228, !tbaa !2594
  %46 = add i32 %45, -1, !dbg !3228
  store volatile i32 %46, i32* %40, align 4, !dbg !3228, !tbaa !2594
  %47 = icmp eq i32 %46, 0, !dbg !3229
  br i1 %47, label %48, label %49, !dbg !3230

48:                                               ; preds = %44
  invoke void @_ZN6String11delete_memoEPNS_6memo_tE(%"struct.String::memo_t"* nonnull %37)
          to label %49 unwind label %50, !dbg !3231

49:                                               ; preds = %48, %44
  store %"struct.String::memo_t"* null, %"struct.String::memo_t"** %36, align 8, !dbg !3232, !tbaa !2644
  br label %53, !dbg !3233

50:                                               ; preds = %48
  %51 = landingpad { i8*, i32 }
          catch i8* null, !dbg !3234
  %52 = extractvalue { i8*, i32 } %51, 0, !dbg !3234
  call void @__clang_call_terminate(i8* %52) #13, !dbg !3234
  unreachable, !dbg !3234

53:                                               ; preds = %34, %49
  call void @llvm.lifetime.end.p0i8(i64 24, i8* nonnull %11) #14, !dbg !3174
  call void @llvm.lifetime.end.p0i8(i64 8, i8* nonnull %10) #14, !dbg !3235
  resume { i8*, i32 } %35, !dbg !3235

54:                                               ; preds = %31, %6
  call void @llvm.dbg.value(metadata %class.String* %9, metadata !2800, metadata !DIExpression()) #14, !dbg !3236
  call void @llvm.dbg.value(metadata %class.String* %9, metadata !2805, metadata !DIExpression()) #14, !dbg !3238
  %55 = getelementptr inbounds %class.String, %class.String* %9, i64 0, i32 0, i32 2, !dbg !3240
  %56 = load %"struct.String::memo_t"*, %"struct.String::memo_t"** %55, align 8, !dbg !3240, !tbaa !2644
  %57 = icmp eq %"struct.String::memo_t"* %56, null, !dbg !3241
  br i1 %57, label %72, label %58, !dbg !3242

58:                                               ; preds = %54
  %59 = getelementptr inbounds %"struct.String::memo_t", %"struct.String::memo_t"* %56, i64 0, i32 0, !dbg !3243
  %60 = load volatile i32, i32* %59, align 4, !dbg !3243, !tbaa !2817
  %61 = icmp eq i32 %60, 0, !dbg !3243
  br i1 %61, label %62, label %63, !dbg !3243

62:                                               ; preds = %58
  call void @__assert_fail(i8* getelementptr inbounds ([18 x i8], [18 x i8]* @.str.17, i64 0, i64 0), i8* getelementptr inbounds ([29 x i8], [29 x i8]* @.str.18, i64 0, i64 0), i32 273, i8* getelementptr inbounds ([27 x i8], [27 x i8]* @__PRETTY_FUNCTION__._ZNK6String5derefEv, i64 0, i64 0)) #13, !dbg !3243
  unreachable, !dbg !3243

63:                                               ; preds = %58
  call void @llvm.dbg.value(metadata i32* %59, metadata !2819, metadata !DIExpression()) #14, !dbg !3244
  %64 = load volatile i32, i32* %59, align 4, !dbg !3246, !tbaa !2594
  %65 = add i32 %64, -1, !dbg !3246
  store volatile i32 %65, i32* %59, align 4, !dbg !3246, !tbaa !2594
  %66 = icmp eq i32 %65, 0, !dbg !3247
  br i1 %66, label %67, label %68, !dbg !3248

67:                                               ; preds = %63
  invoke void @_ZN6String11delete_memoEPNS_6memo_tE(%"struct.String::memo_t"* nonnull %56)
          to label %68 unwind label %69, !dbg !3249

68:                                               ; preds = %67, %63
  store %"struct.String::memo_t"* null, %"struct.String::memo_t"** %55, align 8, !dbg !3250, !tbaa !2644
  br label %72, !dbg !3251

69:                                               ; preds = %67
  %70 = landingpad { i8*, i32 }
          catch i8* null, !dbg !3252
  %71 = extractvalue { i8*, i32 } %70, 0, !dbg !3252
  call void @__clang_call_terminate(i8* %71) #13, !dbg !3252
  unreachable, !dbg !3252

72:                                               ; preds = %54, %68
  call void @llvm.lifetime.end.p0i8(i64 24, i8* nonnull %11) #14, !dbg !3174
  call void @llvm.lifetime.end.p0i8(i64 8, i8* nonnull %10) #14, !dbg !3235
  ret void, !dbg !3235
}

declare void @_ZN4Args4findEPKciRPNS_4SlotE(%class.String* sret, %class.Args*, i8*, i32, %"struct.Args::Slot"** dereferenceable(8)) local_unnamed_addr #2

declare void @_ZN4Args9postparseEbPNS_4SlotE(%class.Args*, i1 zeroext, %"struct.Args::Slot"*) local_unnamed_addr #2

declare i8* @_ZN4Args11simple_slotEPvm(%class.Args*, i8*, i64) local_unnamed_addr #2

declare zeroext i1 @_ZN13FixedPointArg5parseERK6StringRjRK10ArgContext(%class.FixedPointArg*, %class.String* dereferenceable(24), i32* dereferenceable(4), %class.ArgContext* dereferenceable(32)) local_unnamed_addr #2

; Function Attrs: noinline optnone sspstrong uwtable
define linkonce_odr dso_local void @_Z14args_base_readI6StringEvP4ArgsPKciRT_(%class.Args* %0, i8* %1, i32 %2, %class.String* dereferenceable(24) %3) local_unnamed_addr #10 comdat !dbg !3253 {
  %5 = alloca %class.Args*, align 8
  %6 = alloca i8*, align 8
  %7 = alloca i32, align 4
  %8 = alloca %class.String*, align 8
  store %class.Args* %0, %class.Args** %5, align 8, !tbaa !3128
  call void @llvm.dbg.declare(metadata %class.Args** %5, metadata !3255, metadata !DIExpression()), !dbg !3259
  store i8* %1, i8** %6, align 8, !tbaa !3128
  call void @llvm.dbg.declare(metadata i8** %6, metadata !3256, metadata !DIExpression()), !dbg !3260
  store i32 %2, i32* %7, align 4, !tbaa !2594
  call void @llvm.dbg.declare(metadata i32* %7, metadata !3257, metadata !DIExpression()), !dbg !3261
  store %class.String* %3, %class.String** %8, align 8, !tbaa !3128
  call void @llvm.dbg.declare(metadata %class.String** %8, metadata !3258, metadata !DIExpression()), !dbg !3262
  %9 = load %class.Args*, %class.Args** %5, align 8, !dbg !3263, !tbaa !3128
  %10 = load i8*, i8** %6, align 8, !dbg !3264, !tbaa !3128
  %11 = load i32, i32* %7, align 4, !dbg !3265, !tbaa !2594
  %12 = load %class.String*, %class.String** %8, align 8, !dbg !3266, !tbaa !3128
  call void @_ZN4Args9base_readI6StringEEvPKciRT_(%class.Args* %9, i8* %10, i32 %11, %class.String* dereferenceable(24) %12), !dbg !3267
  ret void, !dbg !3268
}

; Function Attrs: sspstrong uwtable
define linkonce_odr dso_local void @_ZN4Args9base_readI6StringEEvPKciRT_(%class.Args* %0, i8* %1, i32 %2, %class.String* dereferenceable(24) %3) local_unnamed_addr #0 comdat align 2 personality i8* bitcast (i32 (...)* @__gxx_personality_v0 to i8*) !dbg !3269 {
  %5 = alloca %"struct.Args::Slot"*, align 8
  %6 = alloca %class.String, align 8
  call void @llvm.dbg.value(metadata %class.Args* %0, metadata !3274, metadata !DIExpression()), !dbg !3283
  call void @llvm.dbg.value(metadata i8* %1, metadata !3275, metadata !DIExpression()), !dbg !3283
  call void @llvm.dbg.value(metadata i32 %2, metadata !3276, metadata !DIExpression()), !dbg !3283
  call void @llvm.dbg.value(metadata %class.String* %3, metadata !3277, metadata !DIExpression()), !dbg !3283
  %7 = bitcast %"struct.Args::Slot"** %5 to i8*, !dbg !3284
  call void @llvm.lifetime.start.p0i8(i64 8, i8* nonnull %7) #14, !dbg !3284
  %8 = bitcast %class.String* %6 to i8*, !dbg !3285
  call void @llvm.lifetime.start.p0i8(i64 24, i8* nonnull %8) #14, !dbg !3285
  call void @llvm.dbg.declare(metadata %class.String* %6, metadata !3279, metadata !DIExpression()), !dbg !3286
  call void @llvm.dbg.value(metadata %"struct.Args::Slot"** %5, metadata !3278, metadata !DIExpression(DW_OP_deref)), !dbg !3283
  call void @_ZN4Args4findEPKciRPNS_4SlotE(%class.String* nonnull sret %6, %class.Args* %0, i8* %1, i32 %2, %"struct.Args::Slot"** nonnull dereferenceable(8) %5), !dbg !3287
  call void @llvm.dbg.value(metadata %class.String* %6, metadata !3177, metadata !DIExpression()), !dbg !3288
  %9 = getelementptr inbounds %class.String, %class.String* %6, i64 0, i32 0, i32 1, !dbg !3290
  %10 = load i32, i32* %9, align 8, !dbg !3290, !tbaa !2640
  %11 = icmp eq i32 %10, 0, !dbg !3291
  %12 = select i1 %11, { i64, i64 } zeroinitializer, { i64, i64 } { i64 ptrtoint (i32 (%class.String*)* @_ZNK6String6lengthEv to i64), i64 0 }, !dbg !3292
  %13 = extractvalue { i64, i64 } %12, 0, !dbg !3286
  %14 = icmp eq i64 %13, 0, !dbg !3286
  br i1 %14, label %57, label %15, !dbg !3285

15:                                               ; preds = %4
  call void @llvm.dbg.value(metadata %class.String* %3, metadata !3293, metadata !DIExpression()), !dbg !3312
  call void @llvm.dbg.value(metadata %class.Args* %0, metadata !3311, metadata !DIExpression()), !dbg !3312
  call void @llvm.dbg.value(metadata %class.Args* %0, metadata !3314, metadata !DIExpression()), !dbg !3321
  call void @llvm.dbg.value(metadata %class.String* %3, metadata !3320, metadata !DIExpression()), !dbg !3321
  call void @llvm.dbg.value(metadata %class.Args* %0, metadata !3323, metadata !DIExpression()), !dbg !3343
  call void @llvm.dbg.value(metadata %class.String* %3, metadata !3327, metadata !DIExpression()), !dbg !3343
  %16 = invoke dereferenceable(48) i8* @_Znwm(i64 48) #16
          to label %17 unwind label %37, !dbg !3346

17:                                               ; preds = %15
  call void @llvm.dbg.value(metadata i8* %16, metadata !3347, metadata !DIExpression()), !dbg !3351
  call void @llvm.dbg.value(metadata %class.String* %3, metadata !3350, metadata !DIExpression()), !dbg !3351
  %18 = bitcast i8* %16 to i32 (...)***, !dbg !3353
  store i32 (...)** bitcast (i8** getelementptr inbounds ({ [5 x i8*] }, { [5 x i8*] }* @_ZTVN4Args5SlotTI6StringEE, i64 0, inrange i32 0, i64 2) to i32 (...)**), i32 (...)*** %18, align 8, !dbg !3353, !tbaa !2551
  %19 = getelementptr inbounds i8, i8* %16, i64 16, !dbg !3354
  %20 = bitcast i8* %19 to %class.String**, !dbg !3354
  store %class.String* %3, %class.String** %20, align 8, !dbg !3354, !tbaa !3355
  call void @llvm.dbg.value(metadata i8* %16, metadata !3357, metadata !DIExpression(DW_OP_plus_uconst, 24, DW_OP_stack_value)), !dbg !3360
  call void @llvm.dbg.value(metadata i8* %16, metadata !2622, metadata !DIExpression(DW_OP_plus_uconst, 24, DW_OP_stack_value)), !dbg !3362
  call void @llvm.dbg.value(metadata i8* @_ZN6String9null_dataE, metadata !2625, metadata !DIExpression()), !dbg !3362
  call void @llvm.dbg.value(metadata i32 0, metadata !2626, metadata !DIExpression()), !dbg !3362
  call void @llvm.dbg.value(metadata %"struct.String::memo_t"* null, metadata !2627, metadata !DIExpression()), !dbg !3362
  %21 = getelementptr inbounds i8, i8* %16, i64 24, !dbg !3365
  %22 = bitcast i8* %21 to i8**, !dbg !3365
  store i8* @_ZN6String9null_dataE, i8** %22, align 8, !dbg !3366, !tbaa !2634
  %23 = getelementptr inbounds i8, i8* %16, i64 32, !dbg !3367
  %24 = bitcast i8* %23 to i32*, !dbg !3367
  store i32 0, i32* %24, align 8, !dbg !3368, !tbaa !2640
  %25 = getelementptr inbounds i8, i8* %16, i64 40, !dbg !3369
  %26 = bitcast i8* %25 to %"struct.String::memo_t"**, !dbg !3369
  store %"struct.String::memo_t"* null, %"struct.String::memo_t"** %26, align 8, !dbg !3370, !tbaa !2644
  call void @llvm.dbg.value(metadata i8* %16, metadata !3328, metadata !DIExpression()), !dbg !3371
  %27 = getelementptr inbounds %class.Args, %class.Args* %0, i64 0, i32 6, !dbg !3372
  %28 = bitcast %"struct.Args::Slot"** %27 to i64*, !dbg !3372
  %29 = load i64, i64* %28, align 8, !dbg !3372, !tbaa !3374
  %30 = getelementptr inbounds i8, i8* %16, i64 8, !dbg !3378
  %31 = bitcast i8* %30 to i64*, !dbg !3379
  store i64 %29, i64* %31, align 8, !dbg !3379, !tbaa !3380
  %32 = bitcast %"struct.Args::Slot"** %27 to i8**, !dbg !3382
  store i8* %16, i8** %32, align 8, !dbg !3382, !tbaa !3374
  %33 = bitcast i8* %21 to %class.String*, !dbg !3383
  call void @llvm.dbg.value(metadata %class.String* %33, metadata !3281, metadata !DIExpression()), !dbg !3384
  call void @llvm.dbg.value(metadata %class.String* %6, metadata !3385, metadata !DIExpression()), !dbg !3394
  call void @llvm.dbg.value(metadata %class.String* %33, metadata !3392, metadata !DIExpression()), !dbg !3394
  call void @llvm.dbg.value(metadata %class.Args* %0, metadata !3393, metadata !DIExpression()), !dbg !3394
  call void @llvm.dbg.value(metadata %class.String* %6, metadata !3396, metadata !DIExpression()), !dbg !3401
  call void @llvm.dbg.value(metadata %class.String* %33, metadata !3399, metadata !DIExpression()), !dbg !3401
  call void @llvm.dbg.value(metadata %class.Args* %0, metadata !3400, metadata !DIExpression()), !dbg !3401
  %34 = invoke zeroext i1 @_Z9cp_stringRK6StringPS_S2_(%class.String* nonnull dereferenceable(24) %6, %class.String* nonnull %33, %class.String* null)
          to label %35 unwind label %37, !dbg !3403

35:                                               ; preds = %17
  %36 = load %"struct.Args::Slot"*, %"struct.Args::Slot"** %5, align 8, !dbg !3404, !tbaa !3128
  call void @llvm.dbg.value(metadata %"struct.Args::Slot"* %36, metadata !3278, metadata !DIExpression()), !dbg !3283
  invoke void @_ZN4Args9postparseEbPNS_4SlotE(%class.Args* nonnull %0, i1 zeroext %34, %"struct.Args::Slot"* %36)
          to label %57 unwind label %37, !dbg !3405

37:                                               ; preds = %17, %15, %35
  %38 = landingpad { i8*, i32 }
          cleanup, !dbg !3406
  call void @llvm.dbg.value(metadata %class.String* %6, metadata !2800, metadata !DIExpression()) #14, !dbg !3407
  call void @llvm.dbg.value(metadata %class.String* %6, metadata !2805, metadata !DIExpression()) #14, !dbg !3409
  %39 = getelementptr inbounds %class.String, %class.String* %6, i64 0, i32 0, i32 2, !dbg !3411
  %40 = load %"struct.String::memo_t"*, %"struct.String::memo_t"** %39, align 8, !dbg !3411, !tbaa !2644
  %41 = icmp eq %"struct.String::memo_t"* %40, null, !dbg !3412
  br i1 %41, label %56, label %42, !dbg !3413

42:                                               ; preds = %37
  %43 = getelementptr inbounds %"struct.String::memo_t", %"struct.String::memo_t"* %40, i64 0, i32 0, !dbg !3414
  %44 = load volatile i32, i32* %43, align 4, !dbg !3414, !tbaa !2817
  %45 = icmp eq i32 %44, 0, !dbg !3414
  br i1 %45, label %46, label %47, !dbg !3414

46:                                               ; preds = %42
  call void @__assert_fail(i8* getelementptr inbounds ([18 x i8], [18 x i8]* @.str.17, i64 0, i64 0), i8* getelementptr inbounds ([29 x i8], [29 x i8]* @.str.18, i64 0, i64 0), i32 273, i8* getelementptr inbounds ([27 x i8], [27 x i8]* @__PRETTY_FUNCTION__._ZNK6String5derefEv, i64 0, i64 0)) #13, !dbg !3414
  unreachable, !dbg !3414

47:                                               ; preds = %42
  call void @llvm.dbg.value(metadata i32* %43, metadata !2819, metadata !DIExpression()) #14, !dbg !3415
  %48 = load volatile i32, i32* %43, align 4, !dbg !3417, !tbaa !2594
  %49 = add i32 %48, -1, !dbg !3417
  store volatile i32 %49, i32* %43, align 4, !dbg !3417, !tbaa !2594
  %50 = icmp eq i32 %49, 0, !dbg !3418
  br i1 %50, label %51, label %52, !dbg !3419

51:                                               ; preds = %47
  invoke void @_ZN6String11delete_memoEPNS_6memo_tE(%"struct.String::memo_t"* nonnull %40)
          to label %52 unwind label %53, !dbg !3420

52:                                               ; preds = %51, %47
  store %"struct.String::memo_t"* null, %"struct.String::memo_t"** %39, align 8, !dbg !3421, !tbaa !2644
  br label %56, !dbg !3422

53:                                               ; preds = %51
  %54 = landingpad { i8*, i32 }
          catch i8* null, !dbg !3423
  %55 = extractvalue { i8*, i32 } %54, 0, !dbg !3423
  call void @__clang_call_terminate(i8* %55) #13, !dbg !3423
  unreachable, !dbg !3423

56:                                               ; preds = %37, %52
  call void @llvm.lifetime.end.p0i8(i64 24, i8* nonnull %8) #14, !dbg !3285
  call void @llvm.lifetime.end.p0i8(i64 8, i8* nonnull %7) #14, !dbg !3424
  resume { i8*, i32 } %38, !dbg !3424

57:                                               ; preds = %35, %4
  call void @llvm.dbg.value(metadata %class.String* %6, metadata !2800, metadata !DIExpression()) #14, !dbg !3425
  call void @llvm.dbg.value(metadata %class.String* %6, metadata !2805, metadata !DIExpression()) #14, !dbg !3427
  %58 = getelementptr inbounds %class.String, %class.String* %6, i64 0, i32 0, i32 2, !dbg !3429
  %59 = load %"struct.String::memo_t"*, %"struct.String::memo_t"** %58, align 8, !dbg !3429, !tbaa !2644
  %60 = icmp eq %"struct.String::memo_t"* %59, null, !dbg !3430
  br i1 %60, label %75, label %61, !dbg !3431

61:                                               ; preds = %57
  %62 = getelementptr inbounds %"struct.String::memo_t", %"struct.String::memo_t"* %59, i64 0, i32 0, !dbg !3432
  %63 = load volatile i32, i32* %62, align 4, !dbg !3432, !tbaa !2817
  %64 = icmp eq i32 %63, 0, !dbg !3432
  br i1 %64, label %65, label %66, !dbg !3432

65:                                               ; preds = %61
  call void @__assert_fail(i8* getelementptr inbounds ([18 x i8], [18 x i8]* @.str.17, i64 0, i64 0), i8* getelementptr inbounds ([29 x i8], [29 x i8]* @.str.18, i64 0, i64 0), i32 273, i8* getelementptr inbounds ([27 x i8], [27 x i8]* @__PRETTY_FUNCTION__._ZNK6String5derefEv, i64 0, i64 0)) #13, !dbg !3432
  unreachable, !dbg !3432

66:                                               ; preds = %61
  call void @llvm.dbg.value(metadata i32* %62, metadata !2819, metadata !DIExpression()) #14, !dbg !3433
  %67 = load volatile i32, i32* %62, align 4, !dbg !3435, !tbaa !2594
  %68 = add i32 %67, -1, !dbg !3435
  store volatile i32 %68, i32* %62, align 4, !dbg !3435, !tbaa !2594
  %69 = icmp eq i32 %68, 0, !dbg !3436
  br i1 %69, label %70, label %71, !dbg !3437

70:                                               ; preds = %66
  invoke void @_ZN6String11delete_memoEPNS_6memo_tE(%"struct.String::memo_t"* nonnull %59)
          to label %71 unwind label %72, !dbg !3438

71:                                               ; preds = %70, %66
  store %"struct.String::memo_t"* null, %"struct.String::memo_t"** %58, align 8, !dbg !3439, !tbaa !2644
  br label %75, !dbg !3440

72:                                               ; preds = %70
  %73 = landingpad { i8*, i32 }
          catch i8* null, !dbg !3441
  %74 = extractvalue { i8*, i32 } %73, 0, !dbg !3441
  call void @__clang_call_terminate(i8* %74) #13, !dbg !3441
  unreachable, !dbg !3441

75:                                               ; preds = %57, %71
  call void @llvm.lifetime.end.p0i8(i64 24, i8* nonnull %8) #14, !dbg !3285
  call void @llvm.lifetime.end.p0i8(i64 8, i8* nonnull %7) #14, !dbg !3424
  ret void, !dbg !3424
}

; Function Attrs: nobuiltin nofree
declare noalias nonnull i8* @_Znwm(i64) local_unnamed_addr #11

; Function Attrs: inlinehint nounwind sspstrong uwtable
define linkonce_odr dso_local void @_ZN4Args5SlotTI6StringED2Ev(%"struct.Args::SlotT"* %0) unnamed_addr #7 comdat align 2 personality i32 (...)* @__gxx_personality_v0 !dbg !3442 {
  call void @llvm.dbg.value(metadata %"struct.Args::SlotT"* %0, metadata !3445, metadata !DIExpression()), !dbg !3446
  %2 = getelementptr %"struct.Args::SlotT", %"struct.Args::SlotT"* %0, i64 0, i32 0, i32 0, !dbg !3447
  store i32 (...)** bitcast (i8** getelementptr inbounds ({ [5 x i8*] }, { [5 x i8*] }* @_ZTVN4Args5SlotTI6StringEE, i64 0, inrange i32 0, i64 2) to i32 (...)**), i32 (...)*** %2, align 8, !dbg !3447, !tbaa !2551
  call void @llvm.dbg.value(metadata %"struct.Args::SlotT"* %0, metadata !2800, metadata !DIExpression(DW_OP_plus_uconst, 24, DW_OP_stack_value)) #14, !dbg !3448
  call void @llvm.dbg.value(metadata %"struct.Args::SlotT"* %0, metadata !2805, metadata !DIExpression(DW_OP_plus_uconst, 24, DW_OP_stack_value)) #14, !dbg !3451
  %3 = getelementptr inbounds %"struct.Args::SlotT", %"struct.Args::SlotT"* %0, i64 0, i32 2, i32 0, i32 2, !dbg !3453
  %4 = load %"struct.String::memo_t"*, %"struct.String::memo_t"** %3, align 8, !dbg !3453, !tbaa !2644
  %5 = icmp eq %"struct.String::memo_t"* %4, null, !dbg !3454
  br i1 %5, label %20, label %6, !dbg !3455

6:                                                ; preds = %1
  %7 = getelementptr inbounds %"struct.String::memo_t", %"struct.String::memo_t"* %4, i64 0, i32 0, !dbg !3456
  %8 = load volatile i32, i32* %7, align 4, !dbg !3456, !tbaa !2817
  %9 = icmp eq i32 %8, 0, !dbg !3456
  br i1 %9, label %10, label %11, !dbg !3456

10:                                               ; preds = %6
  tail call void @__assert_fail(i8* getelementptr inbounds ([18 x i8], [18 x i8]* @.str.17, i64 0, i64 0), i8* getelementptr inbounds ([29 x i8], [29 x i8]* @.str.18, i64 0, i64 0), i32 273, i8* getelementptr inbounds ([27 x i8], [27 x i8]* @__PRETTY_FUNCTION__._ZNK6String5derefEv, i64 0, i64 0)) #13, !dbg !3456
  unreachable, !dbg !3456

11:                                               ; preds = %6
  call void @llvm.dbg.value(metadata i32* %7, metadata !2819, metadata !DIExpression()) #14, !dbg !3457
  %12 = load volatile i32, i32* %7, align 4, !dbg !3459, !tbaa !2594
  %13 = add i32 %12, -1, !dbg !3459
  store volatile i32 %13, i32* %7, align 4, !dbg !3459, !tbaa !2594
  %14 = icmp eq i32 %13, 0, !dbg !3460
  br i1 %14, label %15, label %16, !dbg !3461

15:                                               ; preds = %11
  invoke void @_ZN6String11delete_memoEPNS_6memo_tE(%"struct.String::memo_t"* nonnull %4)
          to label %16 unwind label %17, !dbg !3462

16:                                               ; preds = %15, %11
  store %"struct.String::memo_t"* null, %"struct.String::memo_t"** %3, align 8, !dbg !3463, !tbaa !2644
  br label %20, !dbg !3464

17:                                               ; preds = %15
  %18 = landingpad { i8*, i32 }
          catch i8* null, !dbg !3465
  %19 = extractvalue { i8*, i32 } %18, 0, !dbg !3465
  tail call void @__clang_call_terminate(i8* %19) #13, !dbg !3465
  unreachable, !dbg !3465

20:                                               ; preds = %1, %16
  ret void, !dbg !3447
}

; Function Attrs: inlinehint nounwind sspstrong uwtable
define linkonce_odr dso_local void @_ZN4Args5SlotTI6StringED0Ev(%"struct.Args::SlotT"* %0) unnamed_addr #7 comdat align 2 personality i32 (...)* @__gxx_personality_v0 !dbg !3466 {
  call void @llvm.dbg.value(metadata %"struct.Args::SlotT"* %0, metadata !3468, metadata !DIExpression()), !dbg !3469
  call void @llvm.dbg.value(metadata %"struct.Args::SlotT"* %0, metadata !3445, metadata !DIExpression()) #14, !dbg !3470
  %2 = getelementptr %"struct.Args::SlotT", %"struct.Args::SlotT"* %0, i64 0, i32 0, i32 0, !dbg !3472
  store i32 (...)** bitcast (i8** getelementptr inbounds ({ [5 x i8*] }, { [5 x i8*] }* @_ZTVN4Args5SlotTI6StringEE, i64 0, inrange i32 0, i64 2) to i32 (...)**), i32 (...)*** %2, align 8, !dbg !3472, !tbaa !2551
  call void @llvm.dbg.value(metadata %"struct.Args::SlotT"* %0, metadata !2800, metadata !DIExpression(DW_OP_plus_uconst, 24, DW_OP_stack_value)) #14, !dbg !3473
  call void @llvm.dbg.value(metadata %"struct.Args::SlotT"* %0, metadata !2805, metadata !DIExpression(DW_OP_plus_uconst, 24, DW_OP_stack_value)) #14, !dbg !3475
  %3 = getelementptr inbounds %"struct.Args::SlotT", %"struct.Args::SlotT"* %0, i64 0, i32 2, i32 0, i32 2, !dbg !3477
  %4 = load %"struct.String::memo_t"*, %"struct.String::memo_t"** %3, align 8, !dbg !3477, !tbaa !2644
  %5 = icmp eq %"struct.String::memo_t"* %4, null, !dbg !3478
  br i1 %5, label %19, label %6, !dbg !3479

6:                                                ; preds = %1
  %7 = getelementptr inbounds %"struct.String::memo_t", %"struct.String::memo_t"* %4, i64 0, i32 0, !dbg !3480
  %8 = load volatile i32, i32* %7, align 4, !dbg !3480, !tbaa !2817
  %9 = icmp eq i32 %8, 0, !dbg !3480
  br i1 %9, label %10, label %11, !dbg !3480

10:                                               ; preds = %6
  tail call void @__assert_fail(i8* getelementptr inbounds ([18 x i8], [18 x i8]* @.str.17, i64 0, i64 0), i8* getelementptr inbounds ([29 x i8], [29 x i8]* @.str.18, i64 0, i64 0), i32 273, i8* getelementptr inbounds ([27 x i8], [27 x i8]* @__PRETTY_FUNCTION__._ZNK6String5derefEv, i64 0, i64 0)) #13, !dbg !3480
  unreachable, !dbg !3480

11:                                               ; preds = %6
  call void @llvm.dbg.value(metadata i32* %7, metadata !2819, metadata !DIExpression()) #14, !dbg !3481
  %12 = load volatile i32, i32* %7, align 4, !dbg !3483, !tbaa !2594
  %13 = add i32 %12, -1, !dbg !3483
  store volatile i32 %13, i32* %7, align 4, !dbg !3483, !tbaa !2594
  %14 = icmp eq i32 %13, 0, !dbg !3484
  br i1 %14, label %15, label %19, !dbg !3485

15:                                               ; preds = %11
  invoke void @_ZN6String11delete_memoEPNS_6memo_tE(%"struct.String::memo_t"* nonnull %4)
          to label %19 unwind label %16, !dbg !3486

16:                                               ; preds = %15
  %17 = landingpad { i8*, i32 }
          catch i8* null, !dbg !3487
  %18 = extractvalue { i8*, i32 } %17, 0, !dbg !3487
  tail call void @__clang_call_terminate(i8* %18) #13, !dbg !3487
  unreachable, !dbg !3487

19:                                               ; preds = %11, %15, %1
  %20 = bitcast %"struct.Args::SlotT"* %0 to i8*, !dbg !3488
  tail call void @_ZdlPv(i8* %20) #15, !dbg !3488
  ret void, !dbg !3488
}

; Function Attrs: sspstrong uwtable
define linkonce_odr dso_local void @_ZN4Args5SlotTI6StringE5storeEv(%"struct.Args::SlotT"* %0) unnamed_addr #0 comdat align 2 !dbg !3489 {
  call void @llvm.dbg.value(metadata %"struct.Args::SlotT"* %0, metadata !3491, metadata !DIExpression()), !dbg !3492
  %2 = getelementptr inbounds %"struct.Args::SlotT", %"struct.Args::SlotT"* %0, i64 0, i32 1, !dbg !3493
  %3 = load %class.String*, %class.String** %2, align 8, !dbg !3493, !tbaa !3355
  %4 = getelementptr inbounds %"struct.Args::SlotT", %"struct.Args::SlotT"* %0, i64 0, i32 2, !dbg !3494
  call void @llvm.dbg.value(metadata %class.String* %3, metadata !3495, metadata !DIExpression()), !dbg !3504
  call void @llvm.dbg.value(metadata %class.String* %4, metadata !3501, metadata !DIExpression()), !dbg !3504
  call void @llvm.dbg.value(metadata %class.String* %3, metadata !3506, metadata !DIExpression()), !dbg !3510
  call void @llvm.dbg.value(metadata %class.String* %4, metadata !3509, metadata !DIExpression()), !dbg !3510
  %5 = icmp eq %class.String* %4, %3, !dbg !3512
  br i1 %5, label %35, label %6, !dbg !3514, !prof !3515, !misexpect !3516

6:                                                ; preds = %1
  call void @llvm.dbg.value(metadata %class.String* %3, metadata !2805, metadata !DIExpression()), !dbg !3517
  %7 = getelementptr inbounds %class.String, %class.String* %3, i64 0, i32 0, i32 2, !dbg !3520
  %8 = load %"struct.String::memo_t"*, %"struct.String::memo_t"** %7, align 8, !dbg !3520, !tbaa !2644
  %9 = icmp eq %"struct.String::memo_t"* %8, null, !dbg !3521
  br i1 %9, label %21, label %10, !dbg !3522

10:                                               ; preds = %6
  %11 = getelementptr inbounds %"struct.String::memo_t", %"struct.String::memo_t"* %8, i64 0, i32 0, !dbg !3523
  %12 = load volatile i32, i32* %11, align 4, !dbg !3523, !tbaa !2817
  %13 = icmp eq i32 %12, 0, !dbg !3523
  br i1 %13, label %14, label %15, !dbg !3523

14:                                               ; preds = %10
  tail call void @__assert_fail(i8* getelementptr inbounds ([18 x i8], [18 x i8]* @.str.17, i64 0, i64 0), i8* getelementptr inbounds ([29 x i8], [29 x i8]* @.str.18, i64 0, i64 0), i32 273, i8* getelementptr inbounds ([27 x i8], [27 x i8]* @__PRETTY_FUNCTION__._ZNK6String5derefEv, i64 0, i64 0)) #13, !dbg !3523
  unreachable, !dbg !3523

15:                                               ; preds = %10
  call void @llvm.dbg.value(metadata i32* %11, metadata !2819, metadata !DIExpression()), !dbg !3524
  %16 = load volatile i32, i32* %11, align 4, !dbg !3526, !tbaa !2594
  %17 = add i32 %16, -1, !dbg !3526
  store volatile i32 %17, i32* %11, align 4, !dbg !3526, !tbaa !2594
  %18 = icmp eq i32 %17, 0, !dbg !3527
  br i1 %18, label %19, label %20, !dbg !3528

19:                                               ; preds = %15
  tail call void @_ZN6String11delete_memoEPNS_6memo_tE(%"struct.String::memo_t"* nonnull %8), !dbg !3529
  br label %20, !dbg !3529

20:                                               ; preds = %19, %15
  store %"struct.String::memo_t"* null, %"struct.String::memo_t"** %7, align 8, !dbg !3530, !tbaa !2644
  br label %21, !dbg !3531

21:                                               ; preds = %20, %6
  call void @llvm.dbg.value(metadata %class.String* %3, metadata !3532, metadata !DIExpression()), !dbg !3536
  call void @llvm.dbg.value(metadata %class.String* %4, metadata !3535, metadata !DIExpression()), !dbg !3536
  %22 = bitcast %class.String* %4 to i64*, !dbg !3538
  %23 = load i64, i64* %22, align 8, !dbg !3538, !tbaa !2634
  %24 = getelementptr inbounds %"struct.Args::SlotT", %"struct.Args::SlotT"* %0, i64 0, i32 2, i32 0, i32 1, !dbg !3539
  %25 = load i32, i32* %24, align 8, !dbg !3539, !tbaa !2640
  %26 = getelementptr inbounds %"struct.Args::SlotT", %"struct.Args::SlotT"* %0, i64 0, i32 2, i32 0, i32 2, !dbg !3540
  %27 = load %"struct.String::memo_t"*, %"struct.String::memo_t"** %26, align 8, !dbg !3540, !tbaa !2644
  call void @llvm.dbg.value(metadata %class.String* %3, metadata !2622, metadata !DIExpression()), !dbg !3541
  call void @llvm.dbg.value(metadata i8* undef, metadata !2625, metadata !DIExpression()), !dbg !3541
  call void @llvm.dbg.value(metadata i32 %25, metadata !2626, metadata !DIExpression()), !dbg !3541
  call void @llvm.dbg.value(metadata %"struct.String::memo_t"* %27, metadata !2627, metadata !DIExpression()), !dbg !3541
  %28 = bitcast %class.String* %3 to i64*, !dbg !3543
  store i64 %23, i64* %28, align 8, !dbg !3543, !tbaa !2634
  %29 = getelementptr inbounds %class.String, %class.String* %3, i64 0, i32 0, i32 1, !dbg !3544
  store i32 %25, i32* %29, align 8, !dbg !3545, !tbaa !2640
  store %"struct.String::memo_t"* %27, %"struct.String::memo_t"** %7, align 8, !dbg !3546, !tbaa !2644
  %30 = icmp eq %"struct.String::memo_t"* %27, null, !dbg !3547
  br i1 %30, label %35, label %31, !dbg !3548

31:                                               ; preds = %21
  %32 = getelementptr inbounds %"struct.String::memo_t", %"struct.String::memo_t"* %27, i64 0, i32 0, !dbg !3549
  call void @llvm.dbg.value(metadata i32* %32, metadata !3550, metadata !DIExpression()), !dbg !3553
  %33 = load volatile i32, i32* %32, align 4, !dbg !3555, !tbaa !2594
  %34 = add i32 %33, 1, !dbg !3555
  store volatile i32 %34, i32* %32, align 4, !dbg !3555, !tbaa !2594
  br label %35, !dbg !3556

35:                                               ; preds = %1, %21, %31
  ret void, !dbg !3557
}

declare !dbg !1902 zeroext i1 @_Z9cp_stringRK6StringPS_S2_(%class.String* dereferenceable(24), %class.String*, %class.String*) local_unnamed_addr #2

; Function Attrs: noinline optnone sspstrong uwtable
define linkonce_odr dso_local void @_Z14args_base_readIbEvP4ArgsPKciRT_(%class.Args* %0, i8* %1, i32 %2, i8* dereferenceable(1) %3) local_unnamed_addr #10 comdat !dbg !3558 {
  %5 = alloca %class.Args*, align 8
  %6 = alloca i8*, align 8
  %7 = alloca i32, align 4
  %8 = alloca i8*, align 8
  store %class.Args* %0, %class.Args** %5, align 8, !tbaa !3128
  call void @llvm.dbg.declare(metadata %class.Args** %5, metadata !3560, metadata !DIExpression()), !dbg !3564
  store i8* %1, i8** %6, align 8, !tbaa !3128
  call void @llvm.dbg.declare(metadata i8** %6, metadata !3561, metadata !DIExpression()), !dbg !3565
  store i32 %2, i32* %7, align 4, !tbaa !2594
  call void @llvm.dbg.declare(metadata i32* %7, metadata !3562, metadata !DIExpression()), !dbg !3566
  store i8* %3, i8** %8, align 8, !tbaa !3128
  call void @llvm.dbg.declare(metadata i8** %8, metadata !3563, metadata !DIExpression()), !dbg !3567
  %9 = load %class.Args*, %class.Args** %5, align 8, !dbg !3568, !tbaa !3128
  %10 = load i8*, i8** %6, align 8, !dbg !3569, !tbaa !3128
  %11 = load i32, i32* %7, align 4, !dbg !3570, !tbaa !2594
  %12 = load i8*, i8** %8, align 8, !dbg !3571, !tbaa !3128
  call void @_ZN4Args9base_readIbEEvPKciRT_(%class.Args* %9, i8* %10, i32 %11, i8* dereferenceable(1) %12), !dbg !3572
  ret void, !dbg !3573
}

; Function Attrs: sspstrong uwtable
define linkonce_odr dso_local void @_ZN4Args9base_readIbEEvPKciRT_(%class.Args* %0, i8* %1, i32 %2, i8* dereferenceable(1) %3) local_unnamed_addr #0 comdat align 2 personality i8* bitcast (i32 (...)* @__gxx_personality_v0 to i8*) !dbg !3574 {
  %5 = alloca %"struct.Args::Slot"*, align 8
  %6 = alloca %class.String, align 8
  call void @llvm.dbg.value(metadata %class.Args* %0, metadata !3579, metadata !DIExpression()), !dbg !3588
  call void @llvm.dbg.value(metadata i8* %1, metadata !3580, metadata !DIExpression()), !dbg !3588
  call void @llvm.dbg.value(metadata i32 %2, metadata !3581, metadata !DIExpression()), !dbg !3588
  call void @llvm.dbg.value(metadata i8* %3, metadata !3582, metadata !DIExpression()), !dbg !3588
  %7 = bitcast %"struct.Args::Slot"** %5 to i8*, !dbg !3589
  call void @llvm.lifetime.start.p0i8(i64 8, i8* nonnull %7) #14, !dbg !3589
  %8 = bitcast %class.String* %6 to i8*, !dbg !3590
  call void @llvm.lifetime.start.p0i8(i64 24, i8* nonnull %8) #14, !dbg !3590
  call void @llvm.dbg.declare(metadata %class.String* %6, metadata !3584, metadata !DIExpression()), !dbg !3591
  call void @llvm.dbg.value(metadata %"struct.Args::Slot"** %5, metadata !3583, metadata !DIExpression(DW_OP_deref)), !dbg !3588
  call void @_ZN4Args4findEPKciRPNS_4SlotE(%class.String* nonnull sret %6, %class.Args* %0, i8* %1, i32 %2, %"struct.Args::Slot"** nonnull dereferenceable(8) %5), !dbg !3592
  call void @llvm.dbg.value(metadata %class.String* %6, metadata !3177, metadata !DIExpression()), !dbg !3593
  %9 = getelementptr inbounds %class.String, %class.String* %6, i64 0, i32 0, i32 1, !dbg !3595
  %10 = load i32, i32* %9, align 8, !dbg !3595, !tbaa !2640
  %11 = icmp eq i32 %10, 0, !dbg !3596
  %12 = select i1 %11, { i64, i64 } zeroinitializer, { i64, i64 } { i64 ptrtoint (i32 (%class.String*)* @_ZNK6String6lengthEv to i64), i64 0 }, !dbg !3597
  %13 = extractvalue { i64, i64 } %12, 0, !dbg !3591
  %14 = icmp eq i64 %13, 0, !dbg !3591
  br i1 %14, label %45, label %15, !dbg !3590

15:                                               ; preds = %4
  call void @llvm.dbg.value(metadata i8* %3, metadata !3598, metadata !DIExpression()), !dbg !3620
  call void @llvm.dbg.value(metadata %class.Args* %0, metadata !3619, metadata !DIExpression()), !dbg !3620
  call void @llvm.dbg.value(metadata %class.Args* %0, metadata !3622, metadata !DIExpression()), !dbg !3629
  call void @llvm.dbg.value(metadata i8* %3, metadata !3628, metadata !DIExpression()), !dbg !3629
  %16 = invoke i8* @_ZN4Args11simple_slotEPvm(%class.Args* nonnull %0, i8* nonnull %3, i64 1)
          to label %17 unwind label %25, !dbg !3631

17:                                               ; preds = %15
  call void @llvm.dbg.value(metadata i8* %16, metadata !3586, metadata !DIExpression()), !dbg !3633
  %18 = icmp eq i8* %16, null, !dbg !3634
  br i1 %18, label %22, label %19, !dbg !3635

19:                                               ; preds = %17
  call void @llvm.dbg.value(metadata %class.String* %6, metadata !3636, metadata !DIExpression()), !dbg !3645
  call void @llvm.dbg.value(metadata i8* %16, metadata !3643, metadata !DIExpression()), !dbg !3645
  call void @llvm.dbg.value(metadata %class.Args* %0, metadata !3644, metadata !DIExpression()), !dbg !3645
  %20 = bitcast %class.Args* %0 to %class.ArgContext*, !dbg !3647
  %21 = invoke zeroext i1 @_ZN7BoolArg5parseERK6StringRbRK10ArgContext(%class.String* nonnull dereferenceable(24) %6, i8* nonnull dereferenceable(1) %16, %class.ArgContext* nonnull dereferenceable(32) %20)
          to label %22 unwind label %25, !dbg !3648

22:                                               ; preds = %19, %17
  %23 = phi i1 [ false, %17 ], [ %21, %19 ], !dbg !3633
  %24 = load %"struct.Args::Slot"*, %"struct.Args::Slot"** %5, align 8, !dbg !3649, !tbaa !3128
  call void @llvm.dbg.value(metadata %"struct.Args::Slot"* %24, metadata !3583, metadata !DIExpression()), !dbg !3588
  invoke void @_ZN4Args9postparseEbPNS_4SlotE(%class.Args* nonnull %0, i1 zeroext %23, %"struct.Args::Slot"* %24)
          to label %45 unwind label %25, !dbg !3650

25:                                               ; preds = %19, %15, %22
  %26 = landingpad { i8*, i32 }
          cleanup, !dbg !3651
  call void @llvm.dbg.value(metadata %class.String* %6, metadata !2800, metadata !DIExpression()) #14, !dbg !3652
  call void @llvm.dbg.value(metadata %class.String* %6, metadata !2805, metadata !DIExpression()) #14, !dbg !3654
  %27 = getelementptr inbounds %class.String, %class.String* %6, i64 0, i32 0, i32 2, !dbg !3656
  %28 = load %"struct.String::memo_t"*, %"struct.String::memo_t"** %27, align 8, !dbg !3656, !tbaa !2644
  %29 = icmp eq %"struct.String::memo_t"* %28, null, !dbg !3657
  br i1 %29, label %44, label %30, !dbg !3658

30:                                               ; preds = %25
  %31 = getelementptr inbounds %"struct.String::memo_t", %"struct.String::memo_t"* %28, i64 0, i32 0, !dbg !3659
  %32 = load volatile i32, i32* %31, align 4, !dbg !3659, !tbaa !2817
  %33 = icmp eq i32 %32, 0, !dbg !3659
  br i1 %33, label %34, label %35, !dbg !3659

34:                                               ; preds = %30
  call void @__assert_fail(i8* getelementptr inbounds ([18 x i8], [18 x i8]* @.str.17, i64 0, i64 0), i8* getelementptr inbounds ([29 x i8], [29 x i8]* @.str.18, i64 0, i64 0), i32 273, i8* getelementptr inbounds ([27 x i8], [27 x i8]* @__PRETTY_FUNCTION__._ZNK6String5derefEv, i64 0, i64 0)) #13, !dbg !3659
  unreachable, !dbg !3659

35:                                               ; preds = %30
  call void @llvm.dbg.value(metadata i32* %31, metadata !2819, metadata !DIExpression()) #14, !dbg !3660
  %36 = load volatile i32, i32* %31, align 4, !dbg !3662, !tbaa !2594
  %37 = add i32 %36, -1, !dbg !3662
  store volatile i32 %37, i32* %31, align 4, !dbg !3662, !tbaa !2594
  %38 = icmp eq i32 %37, 0, !dbg !3663
  br i1 %38, label %39, label %40, !dbg !3664

39:                                               ; preds = %35
  invoke void @_ZN6String11delete_memoEPNS_6memo_tE(%"struct.String::memo_t"* nonnull %28)
          to label %40 unwind label %41, !dbg !3665

40:                                               ; preds = %39, %35
  store %"struct.String::memo_t"* null, %"struct.String::memo_t"** %27, align 8, !dbg !3666, !tbaa !2644
  br label %44, !dbg !3667

41:                                               ; preds = %39
  %42 = landingpad { i8*, i32 }
          catch i8* null, !dbg !3668
  %43 = extractvalue { i8*, i32 } %42, 0, !dbg !3668
  call void @__clang_call_terminate(i8* %43) #13, !dbg !3668
  unreachable, !dbg !3668

44:                                               ; preds = %25, %40
  call void @llvm.lifetime.end.p0i8(i64 24, i8* nonnull %8) #14, !dbg !3590
  call void @llvm.lifetime.end.p0i8(i64 8, i8* nonnull %7) #14, !dbg !3669
  resume { i8*, i32 } %26, !dbg !3669

45:                                               ; preds = %22, %4
  call void @llvm.dbg.value(metadata %class.String* %6, metadata !2800, metadata !DIExpression()) #14, !dbg !3670
  call void @llvm.dbg.value(metadata %class.String* %6, metadata !2805, metadata !DIExpression()) #14, !dbg !3672
  %46 = getelementptr inbounds %class.String, %class.String* %6, i64 0, i32 0, i32 2, !dbg !3674
  %47 = load %"struct.String::memo_t"*, %"struct.String::memo_t"** %46, align 8, !dbg !3674, !tbaa !2644
  %48 = icmp eq %"struct.String::memo_t"* %47, null, !dbg !3675
  br i1 %48, label %63, label %49, !dbg !3676

49:                                               ; preds = %45
  %50 = getelementptr inbounds %"struct.String::memo_t", %"struct.String::memo_t"* %47, i64 0, i32 0, !dbg !3677
  %51 = load volatile i32, i32* %50, align 4, !dbg !3677, !tbaa !2817
  %52 = icmp eq i32 %51, 0, !dbg !3677
  br i1 %52, label %53, label %54, !dbg !3677

53:                                               ; preds = %49
  call void @__assert_fail(i8* getelementptr inbounds ([18 x i8], [18 x i8]* @.str.17, i64 0, i64 0), i8* getelementptr inbounds ([29 x i8], [29 x i8]* @.str.18, i64 0, i64 0), i32 273, i8* getelementptr inbounds ([27 x i8], [27 x i8]* @__PRETTY_FUNCTION__._ZNK6String5derefEv, i64 0, i64 0)) #13, !dbg !3677
  unreachable, !dbg !3677

54:                                               ; preds = %49
  call void @llvm.dbg.value(metadata i32* %50, metadata !2819, metadata !DIExpression()) #14, !dbg !3678
  %55 = load volatile i32, i32* %50, align 4, !dbg !3680, !tbaa !2594
  %56 = add i32 %55, -1, !dbg !3680
  store volatile i32 %56, i32* %50, align 4, !dbg !3680, !tbaa !2594
  %57 = icmp eq i32 %56, 0, !dbg !3681
  br i1 %57, label %58, label %59, !dbg !3682

58:                                               ; preds = %54
  invoke void @_ZN6String11delete_memoEPNS_6memo_tE(%"struct.String::memo_t"* nonnull %47)
          to label %59 unwind label %60, !dbg !3683

59:                                               ; preds = %58, %54
  store %"struct.String::memo_t"* null, %"struct.String::memo_t"** %46, align 8, !dbg !3684, !tbaa !2644
  br label %63, !dbg !3685

60:                                               ; preds = %58
  %61 = landingpad { i8*, i32 }
          catch i8* null, !dbg !3686
  %62 = extractvalue { i8*, i32 } %61, 0, !dbg !3686
  call void @__clang_call_terminate(i8* %62) #13, !dbg !3686
  unreachable, !dbg !3686

63:                                               ; preds = %45, %59
  call void @llvm.lifetime.end.p0i8(i64 24, i8* nonnull %8) #14, !dbg !3590
  call void @llvm.lifetime.end.p0i8(i64 8, i8* nonnull %7) #14, !dbg !3669
  ret void, !dbg !3669
}

declare zeroext i1 @_ZN7BoolArg5parseERK6StringRbRK10ArgContext(%class.String* dereferenceable(24), i8* dereferenceable(1), %class.ArgContext* dereferenceable(32)) local_unnamed_addr #2

; Function Attrs: nounwind readnone speculatable willreturn
declare void @llvm.dbg.value(metadata, metadata, metadata) #1

; Function Attrs: nofree nounwind readonly
declare i32 @bcmp(i8* nocapture, i8* nocapture, i64) local_unnamed_addr #12

attributes #0 = { sspstrong uwtable "correctly-rounded-divide-sqrt-fp-math"="false" "disable-tail-calls"="false" "frame-pointer"="none" "less-precise-fpmad"="false" "min-legal-vector-width"="0" "no-infs-fp-math"="false" "no-jump-tables"="false" "no-nans-fp-math"="false" "no-signed-zeros-fp-math"="false" "no-trapping-math"="false" "stack-protector-buffer-size"="8" "target-cpu"="x86-64" "target-features"="+cx8,+fxsr,+mmx,+sse,+sse2,+x87" "unsafe-fp-math"="false" "use-soft-float"="false" }
attributes #1 = { nounwind readnone speculatable willreturn }
attributes #2 = { "correctly-rounded-divide-sqrt-fp-math"="false" "disable-tail-calls"="false" "frame-pointer"="none" "less-precise-fpmad"="false" "no-infs-fp-math"="false" "no-nans-fp-math"="false" "no-signed-zeros-fp-math"="false" "no-trapping-math"="false" "stack-protector-buffer-size"="8" "target-cpu"="x86-64" "target-features"="+cx8,+fxsr,+mmx,+sse,+sse2,+x87" "unsafe-fp-math"="false" "use-soft-float"="false" }
attributes #3 = { nounwind sspstrong uwtable "correctly-rounded-divide-sqrt-fp-math"="false" "disable-tail-calls"="false" "frame-pointer"="none" "less-precise-fpmad"="false" "min-legal-vector-width"="0" "no-infs-fp-math"="false" "no-jump-tables"="false" "no-nans-fp-math"="false" "no-signed-zeros-fp-math"="false" "no-trapping-math"="false" "stack-protector-buffer-size"="8" "target-cpu"="x86-64" "target-features"="+cx8,+fxsr,+mmx,+sse,+sse2,+x87" "unsafe-fp-math"="false" "use-soft-float"="false" }
attributes #4 = { noreturn nounwind "correctly-rounded-divide-sqrt-fp-math"="false" "disable-tail-calls"="false" "frame-pointer"="none" "less-precise-fpmad"="false" "no-infs-fp-math"="false" "no-nans-fp-math"="false" "no-signed-zeros-fp-math"="false" "no-trapping-math"="false" "stack-protector-buffer-size"="8" "target-cpu"="x86-64" "target-features"="+cx8,+fxsr,+mmx,+sse,+sse2,+x87" "unsafe-fp-math"="false" "use-soft-float"="false" }
attributes #5 = { argmemonly nounwind willreturn }
attributes #6 = { nounwind "correctly-rounded-divide-sqrt-fp-math"="false" "disable-tail-calls"="false" "frame-pointer"="none" "less-precise-fpmad"="false" "no-infs-fp-math"="false" "no-nans-fp-math"="false" "no-signed-zeros-fp-math"="false" "no-trapping-math"="false" "stack-protector-buffer-size"="8" "target-cpu"="x86-64" "target-features"="+cx8,+fxsr,+mmx,+sse,+sse2,+x87" "unsafe-fp-math"="false" "use-soft-float"="false" }
attributes #7 = { inlinehint nounwind sspstrong uwtable "correctly-rounded-divide-sqrt-fp-math"="false" "disable-tail-calls"="false" "frame-pointer"="none" "less-precise-fpmad"="false" "min-legal-vector-width"="0" "no-infs-fp-math"="false" "no-jump-tables"="false" "no-nans-fp-math"="false" "no-signed-zeros-fp-math"="false" "no-trapping-math"="false" "stack-protector-buffer-size"="8" "target-cpu"="x86-64" "target-features"="+cx8,+fxsr,+mmx,+sse,+sse2,+x87" "unsafe-fp-math"="false" "use-soft-float"="false" }
attributes #8 = { noinline noreturn nounwind }
attributes #9 = { nobuiltin nounwind "correctly-rounded-divide-sqrt-fp-math"="false" "disable-tail-calls"="false" "frame-pointer"="none" "less-precise-fpmad"="false" "no-infs-fp-math"="false" "no-nans-fp-math"="false" "no-signed-zeros-fp-math"="false" "no-trapping-math"="false" "stack-protector-buffer-size"="8" "target-cpu"="x86-64" "target-features"="+cx8,+fxsr,+mmx,+sse,+sse2,+x87" "unsafe-fp-math"="false" "use-soft-float"="false" }
attributes #10 = { noinline optnone sspstrong uwtable "correctly-rounded-divide-sqrt-fp-math"="false" "disable-tail-calls"="false" "frame-pointer"="none" "less-precise-fpmad"="false" "min-legal-vector-width"="0" "no-infs-fp-math"="false" "no-jump-tables"="false" "no-nans-fp-math"="false" "no-signed-zeros-fp-math"="false" "no-trapping-math"="false" "stack-protector-buffer-size"="8" "target-cpu"="x86-64" "target-features"="+cx8,+fxsr,+mmx,+sse,+sse2,+x87" "unsafe-fp-math"="false" "use-soft-float"="false" }
attributes #11 = { nobuiltin nofree "correctly-rounded-divide-sqrt-fp-math"="false" "disable-tail-calls"="false" "frame-pointer"="none" "less-precise-fpmad"="false" "no-infs-fp-math"="false" "no-nans-fp-math"="false" "no-signed-zeros-fp-math"="false" "no-trapping-math"="false" "stack-protector-buffer-size"="8" "target-cpu"="x86-64" "target-features"="+cx8,+fxsr,+mmx,+sse,+sse2,+x87" "unsafe-fp-math"="false" "use-soft-float"="false" }
attributes #12 = { nofree nounwind readonly }
attributes #13 = { noreturn nounwind }
attributes #14 = { nounwind }
attributes #15 = { builtin nounwind }
attributes #16 = { builtin }

!llvm.dbg.cu = !{!2}
!llvm.module.flags = !{!2539, !2540, !2541, !2542, !2543}
!llvm.ident = !{!2544}

!0 = !DIGlobalVariableExpression(var: !1, expr: !DIExpression())
!1 = distinct !DIGlobalVariable(name: "bit_flip_array_idx", linkageName: "_ZL18bit_flip_array_idx", scope: !2, file: !3, line: 25, type: !2536, isLocal: true, isDefinition: true)
!2 = distinct !DICompileUnit(language: DW_LANG_C_plus_plus_14, file: !3, producer: "clang version 10.0.0 ", isOptimized: true, runtimeVersion: 0, emissionKind: FullDebug, enums: !4, retainedTypes: !1275, globals: !1911, imports: !1917, splitDebugInlining: false, nameTableKind: None)
!3 = !DIFile(filename: "../elements/standard/randomerror.cc", directory: "/home/john/projects/click/ir-dir")
!4 = !{!5, !859, !1164}
!5 = !DICompositeType(tag: DW_TAG_enumeration_type, name: "PacketType", scope: !7, file: !6, line: 368, baseType: !18, size: 32, elements: !1156, identifier: "_ZTSN6Packet10PacketTypeE")
!6 = !DIFile(filename: "../dummy_inc/click/packet.hh", directory: "/home/john/projects/click/ir-dir")
!7 = distinct !DICompositeType(tag: DW_TAG_class_type, name: "Packet", file: !6, line: 35, size: 1344, flags: DIFlagTypePassByReference | DIFlagNonTrivial, elements: !8, identifier: "_ZTS6Packet")
!8 = !{!9, !79, !81, !84, !85, !86, !87, !130, !138, !139, !228, !231, !234, !237, !240, !244, !248, !251, !254, !259, !260, !263, !264, !265, !266, !267, !268, !271, !274, !277, !278, !281, !282, !285, !288, !289, !290, !291, !294, !297, !300, !303, !304, !305, !308, !309, !310, !313, !314, !315, !316, !317, !318, !319, !320, !321, !322, !323, !324, !325, !326, !327, !328, !333, !336, !341, !342, !343, !346, !351, !352, !353, !356, !359, !364, !369, !374, !379, !383, !900, !904, !907, !913, !916, !919, !922, !925, !929, !932, !933, !934, !935, !1025, !1028, !1029, !1032, !1036, !1041, !1045, !1050, !1053, !1056, !1059, !1062, !1068, !1071, !1074, !1077, !1080, !1083, !1086, !1089, !1092, !1095, !1096, !1099, !1103, !1104, !1105, !1106, !1107, !1108, !1109, !1110, !1111, !1112, !1113, !1114, !1115, !1116, !1117, !1118, !1119, !1120, !1121, !1122, !1123, !1124, !1125, !1126, !1127, !1128, !1129, !1130, !1131, !1132, !1133, !1134, !1135, !1136, !1137, !1140, !1141, !1145, !1148, !1151, !1154, !1155}
!9 = !DIDerivedType(tag: DW_TAG_member, name: "_use_count", scope: !7, file: !6, line: 731, baseType: !10, size: 32)
!10 = distinct !DICompositeType(tag: DW_TAG_class_type, name: "atomic_uint32_t", file: !11, line: 52, size: 32, flags: DIFlagTypePassByValue, elements: !12, identifier: "_ZTS15atomic_uint32_t")
!11 = !DIFile(filename: "../dummy_inc/click/atomic.hh", directory: "/home/john/projects/click/ir-dir")
!12 = !{!13, !19, !24, !25, !30, !37, !38, !39, !40, !43, !46, !47, !48, !51, !52, !56, !59, !62, !67, !70, !73, !76}
!13 = !DIDerivedType(tag: DW_TAG_member, name: "_val", scope: !10, file: !11, line: 91, baseType: !14, size: 32)
!14 = !DIDerivedType(tag: DW_TAG_typedef, name: "uint32_t", file: !15, line: 26, baseType: !16)
!15 = !DIFile(filename: "/usr/include/bits/stdint-uintn.h", directory: "")
!16 = !DIDerivedType(tag: DW_TAG_typedef, name: "__uint32_t", file: !17, line: 42, baseType: !18)
!17 = !DIFile(filename: "/usr/include/bits/types.h", directory: "")
!18 = !DIBasicType(name: "unsigned int", size: 32, encoding: DW_ATE_unsigned)
!19 = !DISubprogram(name: "value", linkageName: "_ZNK15atomic_uint32_t5valueEv", scope: !10, file: !11, line: 57, type: !20, scopeLine: 57, flags: DIFlagPublic | DIFlagPrototyped, spFlags: DISPFlagOptimized)
!20 = !DISubroutineType(types: !21)
!21 = !{!14, !22}
!22 = !DIDerivedType(tag: DW_TAG_pointer_type, baseType: !23, size: 64, flags: DIFlagArtificial | DIFlagObjectPointer)
!23 = !DIDerivedType(tag: DW_TAG_const_type, baseType: !10)
!24 = !DISubprogram(name: "operator unsigned int", linkageName: "_ZNK15atomic_uint32_tcvjEv", scope: !10, file: !11, line: 58, type: !20, scopeLine: 58, flags: DIFlagPublic | DIFlagPrototyped, spFlags: DISPFlagOptimized)
!25 = !DISubprogram(name: "operator=", linkageName: "_ZN15atomic_uint32_taSEj", scope: !10, file: !11, line: 60, type: !26, scopeLine: 60, flags: DIFlagPublic | DIFlagPrototyped, spFlags: DISPFlagOptimized)
!26 = !DISubroutineType(types: !27)
!27 = !{!28, !29, !14}
!28 = !DIDerivedType(tag: DW_TAG_reference_type, baseType: !10, size: 64)
!29 = !DIDerivedType(tag: DW_TAG_pointer_type, baseType: !10, size: 64, flags: DIFlagArtificial | DIFlagObjectPointer)
!30 = !DISubprogram(name: "operator+=", linkageName: "_ZN15atomic_uint32_tpLEi", scope: !10, file: !11, line: 62, type: !31, scopeLine: 62, flags: DIFlagPublic | DIFlagPrototyped, spFlags: DISPFlagOptimized)
!31 = !DISubroutineType(types: !32)
!32 = !{!28, !29, !33}
!33 = !DIDerivedType(tag: DW_TAG_typedef, name: "int32_t", file: !34, line: 26, baseType: !35)
!34 = !DIFile(filename: "/usr/include/bits/stdint-intn.h", directory: "")
!35 = !DIDerivedType(tag: DW_TAG_typedef, name: "__int32_t", file: !17, line: 41, baseType: !36)
!36 = !DIBasicType(name: "int", size: 32, encoding: DW_ATE_signed)
!37 = !DISubprogram(name: "operator-=", linkageName: "_ZN15atomic_uint32_tmIEi", scope: !10, file: !11, line: 63, type: !31, scopeLine: 63, flags: DIFlagPublic | DIFlagPrototyped, spFlags: DISPFlagOptimized)
!38 = !DISubprogram(name: "operator|=", linkageName: "_ZN15atomic_uint32_toREj", scope: !10, file: !11, line: 64, type: !26, scopeLine: 64, flags: DIFlagPublic | DIFlagPrototyped, spFlags: DISPFlagOptimized)
!39 = !DISubprogram(name: "operator&=", linkageName: "_ZN15atomic_uint32_taNEj", scope: !10, file: !11, line: 65, type: !26, scopeLine: 65, flags: DIFlagPublic | DIFlagPrototyped, spFlags: DISPFlagOptimized)
!40 = !DISubprogram(name: "operator++", linkageName: "_ZN15atomic_uint32_tppEv", scope: !10, file: !11, line: 67, type: !41, scopeLine: 67, flags: DIFlagPublic | DIFlagPrototyped, spFlags: DISPFlagOptimized)
!41 = !DISubroutineType(types: !42)
!42 = !{null, !29}
!43 = !DISubprogram(name: "operator++", linkageName: "_ZN15atomic_uint32_tppEi", scope: !10, file: !11, line: 68, type: !44, scopeLine: 68, flags: DIFlagPublic | DIFlagPrototyped, spFlags: DISPFlagOptimized)
!44 = !DISubroutineType(types: !45)
!45 = !{null, !29, !36}
!46 = !DISubprogram(name: "operator--", linkageName: "_ZN15atomic_uint32_tmmEv", scope: !10, file: !11, line: 69, type: !41, scopeLine: 69, flags: DIFlagPublic | DIFlagPrototyped, spFlags: DISPFlagOptimized)
!47 = !DISubprogram(name: "operator--", linkageName: "_ZN15atomic_uint32_tmmEi", scope: !10, file: !11, line: 70, type: !44, scopeLine: 70, flags: DIFlagPublic | DIFlagPrototyped, spFlags: DISPFlagOptimized)
!48 = !DISubprogram(name: "swap", linkageName: "_ZN15atomic_uint32_t4swapEj", scope: !10, file: !11, line: 72, type: !49, scopeLine: 72, flags: DIFlagPublic | DIFlagPrototyped, spFlags: DISPFlagOptimized)
!49 = !DISubroutineType(types: !50)
!50 = !{!14, !29, !14}
!51 = !DISubprogram(name: "fetch_and_add", linkageName: "_ZN15atomic_uint32_t13fetch_and_addEj", scope: !10, file: !11, line: 73, type: !49, scopeLine: 73, flags: DIFlagPublic | DIFlagPrototyped, spFlags: DISPFlagOptimized)
!52 = !DISubprogram(name: "dec_and_test", linkageName: "_ZN15atomic_uint32_t12dec_and_testEv", scope: !10, file: !11, line: 74, type: !53, scopeLine: 74, flags: DIFlagPublic | DIFlagPrototyped, spFlags: DISPFlagOptimized)
!53 = !DISubroutineType(types: !54)
!54 = !{!55, !29}
!55 = !DIBasicType(name: "bool", size: 8, encoding: DW_ATE_boolean)
!56 = !DISubprogram(name: "compare_swap", linkageName: "_ZN15atomic_uint32_t12compare_swapEjj", scope: !10, file: !11, line: 75, type: !57, scopeLine: 75, flags: DIFlagPublic | DIFlagPrototyped, spFlags: DISPFlagOptimized)
!57 = !DISubroutineType(types: !58)
!58 = !{!14, !29, !14, !14}
!59 = !DISubprogram(name: "compare_and_swap", linkageName: "_ZN15atomic_uint32_t16compare_and_swapEjj", scope: !10, file: !11, line: 76, type: !60, scopeLine: 76, flags: DIFlagPublic | DIFlagPrototyped, spFlags: DISPFlagOptimized)
!60 = !DISubroutineType(types: !61)
!61 = !{!55, !29, !14, !14}
!62 = !DISubprogram(name: "swap", linkageName: "_ZN15atomic_uint32_t4swapERVjj", scope: !10, file: !11, line: 78, type: !63, scopeLine: 78, flags: DIFlagPublic | DIFlagPrototyped | DIFlagStaticMember, spFlags: DISPFlagOptimized)
!63 = !DISubroutineType(types: !64)
!64 = !{!14, !65, !14}
!65 = !DIDerivedType(tag: DW_TAG_reference_type, baseType: !66, size: 64)
!66 = !DIDerivedType(tag: DW_TAG_volatile_type, baseType: !14)
!67 = !DISubprogram(name: "inc", linkageName: "_ZN15atomic_uint32_t3incERVj", scope: !10, file: !11, line: 79, type: !68, scopeLine: 79, flags: DIFlagPublic | DIFlagPrototyped | DIFlagStaticMember, spFlags: DISPFlagOptimized)
!68 = !DISubroutineType(types: !69)
!69 = !{null, !65}
!70 = !DISubprogram(name: "dec_and_test", linkageName: "_ZN15atomic_uint32_t12dec_and_testERVj", scope: !10, file: !11, line: 80, type: !71, scopeLine: 80, flags: DIFlagPublic | DIFlagPrototyped | DIFlagStaticMember, spFlags: DISPFlagOptimized)
!71 = !DISubroutineType(types: !72)
!72 = !{!55, !65}
!73 = !DISubprogram(name: "compare_swap", linkageName: "_ZN15atomic_uint32_t12compare_swapERVjjj", scope: !10, file: !11, line: 81, type: !74, scopeLine: 81, flags: DIFlagPublic | DIFlagPrototyped | DIFlagStaticMember, spFlags: DISPFlagOptimized)
!74 = !DISubroutineType(types: !75)
!75 = !{!14, !65, !14, !14}
!76 = !DISubprogram(name: "compare_and_swap", linkageName: "_ZN15atomic_uint32_t16compare_and_swapERVjjj", scope: !10, file: !11, line: 82, type: !77, scopeLine: 82, flags: DIFlagPublic | DIFlagPrototyped | DIFlagStaticMember, spFlags: DISPFlagOptimized)
!77 = !DISubroutineType(types: !78)
!78 = !{!55, !65, !14, !14}
!79 = !DIDerivedType(tag: DW_TAG_member, name: "_data_packet", scope: !7, file: !6, line: 732, baseType: !80, size: 64, offset: 64)
!80 = !DIDerivedType(tag: DW_TAG_pointer_type, baseType: !7, size: 64)
!81 = !DIDerivedType(tag: DW_TAG_member, name: "_head", scope: !7, file: !6, line: 734, baseType: !82, size: 64, offset: 128)
!82 = !DIDerivedType(tag: DW_TAG_pointer_type, baseType: !83, size: 64)
!83 = !DIBasicType(name: "unsigned char", size: 8, encoding: DW_ATE_unsigned_char)
!84 = !DIDerivedType(tag: DW_TAG_member, name: "_data", scope: !7, file: !6, line: 735, baseType: !82, size: 64, offset: 192)
!85 = !DIDerivedType(tag: DW_TAG_member, name: "_tail", scope: !7, file: !6, line: 736, baseType: !82, size: 64, offset: 256)
!86 = !DIDerivedType(tag: DW_TAG_member, name: "_end", scope: !7, file: !6, line: 737, baseType: !82, size: 64, offset: 320)
!87 = !DIDerivedType(tag: DW_TAG_member, name: "_aa", scope: !7, file: !6, line: 741, baseType: !88, size: 832, offset: 384)
!88 = distinct !DICompositeType(tag: DW_TAG_structure_type, name: "AllAnno", scope: !7, file: !6, line: 716, size: 832, flags: DIFlagTypePassByValue, elements: !89, identifier: "_ZTSN6Packet7AllAnnoE")
!89 = !{!90, !120, !121, !122, !123, !124, !128, !129}
!90 = !DIDerivedType(tag: DW_TAG_member, name: "cb", scope: !88, file: !6, line: 717, baseType: !91, size: 384)
!91 = distinct !DICompositeType(tag: DW_TAG_union_type, name: "Anno", scope: !7, file: !6, line: 702, size: 384, flags: DIFlagTypePassByValue, elements: !92, identifier: "_ZTSN6Packet4AnnoE")
!92 = !{!93, !98, !102, !109, !113}
!93 = !DIDerivedType(tag: DW_TAG_member, name: "c", scope: !91, file: !6, line: 703, baseType: !94, size: 384)
!94 = !DICompositeType(tag: DW_TAG_array_type, baseType: !95, size: 384, elements: !96)
!95 = !DIBasicType(name: "char", size: 8, encoding: DW_ATE_signed_char)
!96 = !{!97}
!97 = !DISubrange(count: 48)
!98 = !DIDerivedType(tag: DW_TAG_member, name: "u8", scope: !91, file: !6, line: 704, baseType: !99, size: 384)
!99 = !DICompositeType(tag: DW_TAG_array_type, baseType: !100, size: 384, elements: !96)
!100 = !DIDerivedType(tag: DW_TAG_typedef, name: "uint8_t", file: !15, line: 24, baseType: !101)
!101 = !DIDerivedType(tag: DW_TAG_typedef, name: "__uint8_t", file: !17, line: 38, baseType: !83)
!102 = !DIDerivedType(tag: DW_TAG_member, name: "u16", scope: !91, file: !6, line: 705, baseType: !103, size: 384)
!103 = !DICompositeType(tag: DW_TAG_array_type, baseType: !104, size: 384, elements: !107)
!104 = !DIDerivedType(tag: DW_TAG_typedef, name: "uint16_t", file: !15, line: 25, baseType: !105)
!105 = !DIDerivedType(tag: DW_TAG_typedef, name: "__uint16_t", file: !17, line: 40, baseType: !106)
!106 = !DIBasicType(name: "unsigned short", size: 16, encoding: DW_ATE_unsigned)
!107 = !{!108}
!108 = !DISubrange(count: 24)
!109 = !DIDerivedType(tag: DW_TAG_member, name: "u32", scope: !91, file: !6, line: 706, baseType: !110, size: 384)
!110 = !DICompositeType(tag: DW_TAG_array_type, baseType: !14, size: 384, elements: !111)
!111 = !{!112}
!112 = !DISubrange(count: 12)
!113 = !DIDerivedType(tag: DW_TAG_member, name: "u64", scope: !91, file: !6, line: 708, baseType: !114, size: 384)
!114 = !DICompositeType(tag: DW_TAG_array_type, baseType: !115, size: 384, elements: !118)
!115 = !DIDerivedType(tag: DW_TAG_typedef, name: "uint64_t", file: !15, line: 27, baseType: !116)
!116 = !DIDerivedType(tag: DW_TAG_typedef, name: "__uint64_t", file: !17, line: 45, baseType: !117)
!117 = !DIBasicType(name: "long unsigned int", size: 64, encoding: DW_ATE_unsigned)
!118 = !{!119}
!119 = !DISubrange(count: 6)
!120 = !DIDerivedType(tag: DW_TAG_member, name: "mac", scope: !88, file: !6, line: 718, baseType: !82, size: 64, offset: 384)
!121 = !DIDerivedType(tag: DW_TAG_member, name: "nh", scope: !88, file: !6, line: 719, baseType: !82, size: 64, offset: 448)
!122 = !DIDerivedType(tag: DW_TAG_member, name: "h", scope: !88, file: !6, line: 720, baseType: !82, size: 64, offset: 512)
!123 = !DIDerivedType(tag: DW_TAG_member, name: "pkt_type", scope: !88, file: !6, line: 721, baseType: !5, size: 32, offset: 576)
!124 = !DIDerivedType(tag: DW_TAG_member, name: "timestamp", scope: !88, file: !6, line: 722, baseType: !125, size: 64, offset: 608)
!125 = !DICompositeType(tag: DW_TAG_array_type, baseType: !95, size: 64, elements: !126)
!126 = !{!127}
!127 = !DISubrange(count: 8)
!128 = !DIDerivedType(tag: DW_TAG_member, name: "next", scope: !88, file: !6, line: 723, baseType: !80, size: 64, offset: 704)
!129 = !DIDerivedType(tag: DW_TAG_member, name: "prev", scope: !88, file: !6, line: 724, baseType: !80, size: 64, offset: 768)
!130 = !DIDerivedType(tag: DW_TAG_member, name: "_destructor", scope: !7, file: !6, line: 746, baseType: !131, size: 64, offset: 1216)
!131 = !DIDerivedType(tag: DW_TAG_typedef, name: "buffer_destructor_type", scope: !7, file: !6, line: 65, baseType: !132)
!132 = !DIDerivedType(tag: DW_TAG_pointer_type, baseType: !133, size: 64)
!133 = !DISubroutineType(types: !134)
!134 = !{null, !82, !135, !137}
!135 = !DIDerivedType(tag: DW_TAG_typedef, name: "size_t", file: !136, line: 46, baseType: !117)
!136 = !DIFile(filename: "/usr/lib/clang/10.0.0/include/stddef.h", directory: "")
!137 = !DIDerivedType(tag: DW_TAG_pointer_type, baseType: null, size: 64)
!138 = !DIDerivedType(tag: DW_TAG_member, name: "_destructor_argument", scope: !7, file: !6, line: 747, baseType: !137, size: 64, offset: 1280)
!139 = !DISubprogram(name: "make", linkageName: "_ZN6Packet4makeEjPKvjj", scope: !7, file: !6, line: 52, type: !140, scopeLine: 52, flags: DIFlagPublic | DIFlagPrototyped | DIFlagStaticMember, spFlags: DISPFlagOptimized)
!140 = !DISubroutineType(types: !141)
!141 = !{!142, !14, !226, !14, !14}
!142 = !DIDerivedType(tag: DW_TAG_pointer_type, baseType: !143, size: 64)
!143 = distinct !DICompositeType(tag: DW_TAG_class_type, name: "WritablePacket", file: !6, line: 778, size: 1344, flags: DIFlagTypePassByReference | DIFlagNonTrivial, elements: !144, identifier: "_ZTS14WritablePacket")
!144 = !{!145, !146, !151, !152, !153, !154, !155, !160, !161, !184, !189, !190, !195, !200, !205, !206, !210, !211, !216, !217, !220, !223}
!145 = !DIDerivedType(tag: DW_TAG_inheritance, scope: !143, baseType: !7, flags: DIFlagPublic, extraData: i32 0)
!146 = !DISubprogram(name: "data", linkageName: "_ZNK14WritablePacket4dataEv", scope: !143, file: !6, line: 780, type: !147, scopeLine: 780, flags: DIFlagPublic | DIFlagPrototyped, spFlags: DISPFlagOptimized)
!147 = !DISubroutineType(types: !148)
!148 = !{!82, !149}
!149 = !DIDerivedType(tag: DW_TAG_pointer_type, baseType: !150, size: 64, flags: DIFlagArtificial | DIFlagObjectPointer)
!150 = !DIDerivedType(tag: DW_TAG_const_type, baseType: !143)
!151 = !DISubprogram(name: "end_data", linkageName: "_ZNK14WritablePacket8end_dataEv", scope: !143, file: !6, line: 781, type: !147, scopeLine: 781, flags: DIFlagPublic | DIFlagPrototyped, spFlags: DISPFlagOptimized)
!152 = !DISubprogram(name: "buffer", linkageName: "_ZNK14WritablePacket6bufferEv", scope: !143, file: !6, line: 782, type: !147, scopeLine: 782, flags: DIFlagPublic | DIFlagPrototyped, spFlags: DISPFlagOptimized)
!153 = !DISubprogram(name: "end_buffer", linkageName: "_ZNK14WritablePacket10end_bufferEv", scope: !143, file: !6, line: 783, type: !147, scopeLine: 783, flags: DIFlagPublic | DIFlagPrototyped, spFlags: DISPFlagOptimized)
!154 = !DISubprogram(name: "mac_header", linkageName: "_ZNK14WritablePacket10mac_headerEv", scope: !143, file: !6, line: 784, type: !147, scopeLine: 784, flags: DIFlagPublic | DIFlagPrototyped, spFlags: DISPFlagOptimized)
!155 = !DISubprogram(name: "ether_header", linkageName: "_ZNK14WritablePacket12ether_headerEv", scope: !143, file: !6, line: 785, type: !156, scopeLine: 785, flags: DIFlagPublic | DIFlagPrototyped, spFlags: DISPFlagOptimized)
!156 = !DISubroutineType(types: !157)
!157 = !{!158, !149}
!158 = !DIDerivedType(tag: DW_TAG_pointer_type, baseType: !159, size: 64)
!159 = !DICompositeType(tag: DW_TAG_structure_type, name: "click_ether", file: !6, line: 24, flags: DIFlagFwdDecl, identifier: "_ZTS11click_ether")
!160 = !DISubprogram(name: "network_header", linkageName: "_ZNK14WritablePacket14network_headerEv", scope: !143, file: !6, line: 786, type: !147, scopeLine: 786, flags: DIFlagPublic | DIFlagPrototyped, spFlags: DISPFlagOptimized)
!161 = !DISubprogram(name: "ip_header", linkageName: "_ZNK14WritablePacket9ip_headerEv", scope: !143, file: !6, line: 787, type: !162, scopeLine: 787, flags: DIFlagPublic | DIFlagPrototyped, spFlags: DISPFlagOptimized)
!162 = !DISubroutineType(types: !163)
!163 = !{!164, !149}
!164 = !DIDerivedType(tag: DW_TAG_pointer_type, baseType: !165, size: 64)
!165 = distinct !DICompositeType(tag: DW_TAG_structure_type, name: "click_ip", file: !166, line: 23, size: 160, flags: DIFlagTypePassByValue, elements: !167, identifier: "_ZTS8click_ip")
!166 = !DIFile(filename: "../dummy_inc/clicknet/ip.h", directory: "/home/john/projects/click/ir-dir")
!167 = !{!168, !169, !170, !171, !172, !173, !174, !175, !176, !177, !183}
!168 = !DIDerivedType(tag: DW_TAG_member, name: "ip_hl", scope: !165, file: !166, line: 28, baseType: !18, size: 4, flags: DIFlagBitField, extraData: i64 0)
!169 = !DIDerivedType(tag: DW_TAG_member, name: "ip_v", scope: !165, file: !166, line: 29, baseType: !18, size: 4, offset: 4, flags: DIFlagBitField, extraData: i64 0)
!170 = !DIDerivedType(tag: DW_TAG_member, name: "ip_tos", scope: !165, file: !166, line: 33, baseType: !100, size: 8, offset: 8)
!171 = !DIDerivedType(tag: DW_TAG_member, name: "ip_len", scope: !165, file: !166, line: 40, baseType: !104, size: 16, offset: 16)
!172 = !DIDerivedType(tag: DW_TAG_member, name: "ip_id", scope: !165, file: !166, line: 41, baseType: !104, size: 16, offset: 32)
!173 = !DIDerivedType(tag: DW_TAG_member, name: "ip_off", scope: !165, file: !166, line: 42, baseType: !104, size: 16, offset: 48)
!174 = !DIDerivedType(tag: DW_TAG_member, name: "ip_ttl", scope: !165, file: !166, line: 47, baseType: !100, size: 8, offset: 64)
!175 = !DIDerivedType(tag: DW_TAG_member, name: "ip_p", scope: !165, file: !166, line: 48, baseType: !100, size: 8, offset: 72)
!176 = !DIDerivedType(tag: DW_TAG_member, name: "ip_sum", scope: !165, file: !166, line: 49, baseType: !104, size: 16, offset: 80)
!177 = !DIDerivedType(tag: DW_TAG_member, name: "ip_src", scope: !165, file: !166, line: 50, baseType: !178, size: 32, offset: 96)
!178 = distinct !DICompositeType(tag: DW_TAG_structure_type, name: "in_addr", file: !179, line: 31, size: 32, flags: DIFlagTypePassByValue, elements: !180, identifier: "_ZTS7in_addr")
!179 = !DIFile(filename: "/usr/include/netinet/in.h", directory: "")
!180 = !{!181}
!181 = !DIDerivedType(tag: DW_TAG_member, name: "s_addr", scope: !178, file: !179, line: 33, baseType: !182, size: 32)
!182 = !DIDerivedType(tag: DW_TAG_typedef, name: "in_addr_t", file: !179, line: 30, baseType: !14)
!183 = !DIDerivedType(tag: DW_TAG_member, name: "ip_dst", scope: !165, file: !166, line: 51, baseType: !178, size: 32, offset: 128)
!184 = !DISubprogram(name: "ip6_header", linkageName: "_ZNK14WritablePacket10ip6_headerEv", scope: !143, file: !6, line: 788, type: !185, scopeLine: 788, flags: DIFlagPublic | DIFlagPrototyped, spFlags: DISPFlagOptimized)
!185 = !DISubroutineType(types: !186)
!186 = !{!187, !149}
!187 = !DIDerivedType(tag: DW_TAG_pointer_type, baseType: !188, size: 64)
!188 = !DICompositeType(tag: DW_TAG_structure_type, name: "click_ip6", file: !6, line: 27, flags: DIFlagFwdDecl, identifier: "_ZTS9click_ip6")
!189 = !DISubprogram(name: "transport_header", linkageName: "_ZNK14WritablePacket16transport_headerEv", scope: !143, file: !6, line: 789, type: !147, scopeLine: 789, flags: DIFlagPublic | DIFlagPrototyped, spFlags: DISPFlagOptimized)
!190 = !DISubprogram(name: "icmp_header", linkageName: "_ZNK14WritablePacket11icmp_headerEv", scope: !143, file: !6, line: 790, type: !191, scopeLine: 790, flags: DIFlagPublic | DIFlagPrototyped, spFlags: DISPFlagOptimized)
!191 = !DISubroutineType(types: !192)
!192 = !{!193, !149}
!193 = !DIDerivedType(tag: DW_TAG_pointer_type, baseType: !194, size: 64)
!194 = !DICompositeType(tag: DW_TAG_structure_type, name: "click_icmp", file: !6, line: 26, flags: DIFlagFwdDecl, identifier: "_ZTS10click_icmp")
!195 = !DISubprogram(name: "tcp_header", linkageName: "_ZNK14WritablePacket10tcp_headerEv", scope: !143, file: !6, line: 791, type: !196, scopeLine: 791, flags: DIFlagPublic | DIFlagPrototyped, spFlags: DISPFlagOptimized)
!196 = !DISubroutineType(types: !197)
!197 = !{!198, !149}
!198 = !DIDerivedType(tag: DW_TAG_pointer_type, baseType: !199, size: 64)
!199 = !DICompositeType(tag: DW_TAG_structure_type, name: "click_tcp", file: !6, line: 28, flags: DIFlagFwdDecl, identifier: "_ZTS9click_tcp")
!200 = !DISubprogram(name: "udp_header", linkageName: "_ZNK14WritablePacket10udp_headerEv", scope: !143, file: !6, line: 792, type: !201, scopeLine: 792, flags: DIFlagPublic | DIFlagPrototyped, spFlags: DISPFlagOptimized)
!201 = !DISubroutineType(types: !202)
!202 = !{!203, !149}
!203 = !DIDerivedType(tag: DW_TAG_pointer_type, baseType: !204, size: 64)
!204 = !DICompositeType(tag: DW_TAG_structure_type, name: "click_udp", file: !6, line: 29, flags: DIFlagFwdDecl, identifier: "_ZTS9click_udp")
!205 = !DISubprogram(name: "buffer_data", linkageName: "_ZNK14WritablePacket11buffer_dataEv", scope: !143, file: !6, line: 795, type: !147, scopeLine: 795, flags: DIFlagPublic | DIFlagPrototyped, spFlags: DISPFlagOptimized)
!206 = !DISubprogram(name: "WritablePacket", scope: !143, file: !6, line: 800, type: !207, scopeLine: 800, flags: DIFlagPrototyped, spFlags: DISPFlagOptimized)
!207 = !DISubroutineType(types: !208)
!208 = !{null, !209}
!209 = !DIDerivedType(tag: DW_TAG_pointer_type, baseType: !143, size: 64, flags: DIFlagArtificial | DIFlagObjectPointer)
!210 = !DISubprogram(name: "initialize", linkageName: "_ZN14WritablePacket10initializeEv", scope: !143, file: !6, line: 802, type: !207, scopeLine: 802, flags: DIFlagPrototyped, spFlags: DISPFlagOptimized)
!211 = !DISubprogram(name: "WritablePacket", scope: !143, file: !6, line: 804, type: !212, scopeLine: 804, flags: DIFlagPrototyped, spFlags: DISPFlagOptimized)
!212 = !DISubroutineType(types: !213)
!213 = !{null, !209, !214}
!214 = !DIDerivedType(tag: DW_TAG_reference_type, baseType: !215, size: 64)
!215 = !DIDerivedType(tag: DW_TAG_const_type, baseType: !7)
!216 = !DISubprogram(name: "~WritablePacket", scope: !143, file: !6, line: 805, type: !207, scopeLine: 805, flags: DIFlagPrototyped, spFlags: DISPFlagOptimized)
!217 = !DISubprogram(name: "pool_allocate", linkageName: "_ZN14WritablePacket13pool_allocateEb", scope: !143, file: !6, line: 808, type: !218, scopeLine: 808, flags: DIFlagPrototyped | DIFlagStaticMember, spFlags: DISPFlagOptimized)
!218 = !DISubroutineType(types: !219)
!219 = !{!142, !55}
!220 = !DISubprogram(name: "pool_allocate", linkageName: "_ZN14WritablePacket13pool_allocateEjjj", scope: !143, file: !6, line: 809, type: !221, scopeLine: 809, flags: DIFlagPrototyped | DIFlagStaticMember, spFlags: DISPFlagOptimized)
!221 = !DISubroutineType(types: !222)
!222 = !{!142, !14, !14, !14}
!223 = !DISubprogram(name: "recycle", linkageName: "_ZN14WritablePacket7recycleEPS_", scope: !143, file: !6, line: 811, type: !224, scopeLine: 811, flags: DIFlagPrototyped | DIFlagStaticMember, spFlags: DISPFlagOptimized)
!224 = !DISubroutineType(types: !225)
!225 = !{null, !142}
!226 = !DIDerivedType(tag: DW_TAG_pointer_type, baseType: !227, size: 64)
!227 = !DIDerivedType(tag: DW_TAG_const_type, baseType: null)
!228 = !DISubprogram(name: "make", linkageName: "_ZN6Packet4makeEPKvj", scope: !7, file: !6, line: 54, type: !229, scopeLine: 54, flags: DIFlagPublic | DIFlagPrototyped | DIFlagStaticMember, spFlags: DISPFlagOptimized)
!229 = !DISubroutineType(types: !230)
!230 = !{!142, !226, !14}
!231 = !DISubprogram(name: "make", linkageName: "_ZN6Packet4makeEj", scope: !7, file: !6, line: 55, type: !232, scopeLine: 55, flags: DIFlagPublic | DIFlagPrototyped | DIFlagStaticMember, spFlags: DISPFlagOptimized)
!232 = !DISubroutineType(types: !233)
!233 = !{!142, !14}
!234 = !DISubprogram(name: "make", linkageName: "_ZN6Packet4makeEPhjPFvS0_mPvES1_ii", scope: !7, file: !6, line: 66, type: !235, scopeLine: 66, flags: DIFlagPublic | DIFlagPrototyped | DIFlagStaticMember, spFlags: DISPFlagOptimized)
!235 = !DISubroutineType(types: !236)
!236 = !{!142, !82, !14, !131, !137, !36, !36}
!237 = !DISubprogram(name: "static_cleanup", linkageName: "_ZN6Packet14static_cleanupEv", scope: !7, file: !6, line: 71, type: !238, scopeLine: 71, flags: DIFlagPublic | DIFlagPrototyped | DIFlagStaticMember, spFlags: DISPFlagOptimized)
!238 = !DISubroutineType(types: !239)
!239 = !{null}
!240 = !DISubprogram(name: "kill", linkageName: "_ZN6Packet4killEv", scope: !7, file: !6, line: 73, type: !241, scopeLine: 73, flags: DIFlagPublic | DIFlagPrototyped, spFlags: DISPFlagOptimized)
!241 = !DISubroutineType(types: !242)
!242 = !{null, !243}
!243 = !DIDerivedType(tag: DW_TAG_pointer_type, baseType: !7, size: 64, flags: DIFlagArtificial | DIFlagObjectPointer)
!244 = !DISubprogram(name: "shared", linkageName: "_ZNK6Packet6sharedEv", scope: !7, file: !6, line: 75, type: !245, scopeLine: 75, flags: DIFlagPublic | DIFlagPrototyped, spFlags: DISPFlagOptimized)
!245 = !DISubroutineType(types: !246)
!246 = !{!55, !247}
!247 = !DIDerivedType(tag: DW_TAG_pointer_type, baseType: !215, size: 64, flags: DIFlagArtificial | DIFlagObjectPointer)
!248 = !DISubprogram(name: "clone", linkageName: "_ZN6Packet5cloneEv", scope: !7, file: !6, line: 76, type: !249, scopeLine: 76, flags: DIFlagPublic | DIFlagPrototyped, spFlags: DISPFlagOptimized)
!249 = !DISubroutineType(types: !250)
!250 = !{!80, !243}
!251 = !DISubprogram(name: "uniqueify", linkageName: "_ZN6Packet9uniqueifyEv", scope: !7, file: !6, line: 77, type: !252, scopeLine: 77, flags: DIFlagPublic | DIFlagPrototyped, spFlags: DISPFlagOptimized)
!252 = !DISubroutineType(types: !253)
!253 = !{!142, !243}
!254 = !DISubprogram(name: "data", linkageName: "_ZNK6Packet4dataEv", scope: !7, file: !6, line: 79, type: !255, scopeLine: 79, flags: DIFlagPublic | DIFlagPrototyped, spFlags: DISPFlagOptimized)
!255 = !DISubroutineType(types: !256)
!256 = !{!257, !247}
!257 = !DIDerivedType(tag: DW_TAG_pointer_type, baseType: !258, size: 64)
!258 = !DIDerivedType(tag: DW_TAG_const_type, baseType: !83)
!259 = !DISubprogram(name: "end_data", linkageName: "_ZNK6Packet8end_dataEv", scope: !7, file: !6, line: 80, type: !255, scopeLine: 80, flags: DIFlagPublic | DIFlagPrototyped, spFlags: DISPFlagOptimized)
!260 = !DISubprogram(name: "length", linkageName: "_ZNK6Packet6lengthEv", scope: !7, file: !6, line: 81, type: !261, scopeLine: 81, flags: DIFlagPublic | DIFlagPrototyped, spFlags: DISPFlagOptimized)
!261 = !DISubroutineType(types: !262)
!262 = !{!14, !247}
!263 = !DISubprogram(name: "headroom", linkageName: "_ZNK6Packet8headroomEv", scope: !7, file: !6, line: 82, type: !261, scopeLine: 82, flags: DIFlagPublic | DIFlagPrototyped, spFlags: DISPFlagOptimized)
!264 = !DISubprogram(name: "tailroom", linkageName: "_ZNK6Packet8tailroomEv", scope: !7, file: !6, line: 83, type: !261, scopeLine: 83, flags: DIFlagPublic | DIFlagPrototyped, spFlags: DISPFlagOptimized)
!265 = !DISubprogram(name: "buffer", linkageName: "_ZNK6Packet6bufferEv", scope: !7, file: !6, line: 84, type: !255, scopeLine: 84, flags: DIFlagPublic | DIFlagPrototyped, spFlags: DISPFlagOptimized)
!266 = !DISubprogram(name: "end_buffer", linkageName: "_ZNK6Packet10end_bufferEv", scope: !7, file: !6, line: 85, type: !255, scopeLine: 85, flags: DIFlagPublic | DIFlagPrototyped, spFlags: DISPFlagOptimized)
!267 = !DISubprogram(name: "buffer_length", linkageName: "_ZNK6Packet13buffer_lengthEv", scope: !7, file: !6, line: 86, type: !261, scopeLine: 86, flags: DIFlagPublic | DIFlagPrototyped, spFlags: DISPFlagOptimized)
!268 = !DISubprogram(name: "buffer_destructor", linkageName: "_ZNK6Packet17buffer_destructorEv", scope: !7, file: !6, line: 97, type: !269, scopeLine: 97, flags: DIFlagPublic | DIFlagPrototyped, spFlags: DISPFlagOptimized)
!269 = !DISubroutineType(types: !270)
!270 = !{!131, !247}
!271 = !DISubprogram(name: "set_buffer_destructor", linkageName: "_ZN6Packet21set_buffer_destructorEPFvPhmPvE", scope: !7, file: !6, line: 101, type: !272, scopeLine: 101, flags: DIFlagPublic | DIFlagPrototyped, spFlags: DISPFlagOptimized)
!272 = !DISubroutineType(types: !273)
!273 = !{null, !243, !131}
!274 = !DISubprogram(name: "destructor_argument", linkageName: "_ZN6Packet19destructor_argumentEv", scope: !7, file: !6, line: 105, type: !275, scopeLine: 105, flags: DIFlagPublic | DIFlagPrototyped, spFlags: DISPFlagOptimized)
!275 = !DISubroutineType(types: !276)
!276 = !{!137, !243}
!277 = !DISubprogram(name: "reset_buffer", linkageName: "_ZN6Packet12reset_bufferEv", scope: !7, file: !6, line: 109, type: !241, scopeLine: 109, flags: DIFlagPublic | DIFlagPrototyped, spFlags: DISPFlagOptimized)
!278 = !DISubprogram(name: "push", linkageName: "_ZN6Packet4pushEj", scope: !7, file: !6, line: 141, type: !279, scopeLine: 141, flags: DIFlagPublic | DIFlagPrototyped, spFlags: DISPFlagOptimized)
!279 = !DISubroutineType(types: !280)
!280 = !{!142, !243, !14}
!281 = !DISubprogram(name: "push_mac_header", linkageName: "_ZN6Packet15push_mac_headerEj", scope: !7, file: !6, line: 152, type: !279, scopeLine: 152, flags: DIFlagPublic | DIFlagPrototyped, spFlags: DISPFlagOptimized)
!282 = !DISubprogram(name: "nonunique_push", linkageName: "_ZN6Packet14nonunique_pushEj", scope: !7, file: !6, line: 171, type: !283, scopeLine: 171, flags: DIFlagPublic | DIFlagPrototyped, spFlags: DISPFlagOptimized)
!283 = !DISubroutineType(types: !284)
!284 = !{!80, !243, !14}
!285 = !DISubprogram(name: "pull", linkageName: "_ZN6Packet4pullEj", scope: !7, file: !6, line: 187, type: !286, scopeLine: 187, flags: DIFlagPublic | DIFlagPrototyped, spFlags: DISPFlagOptimized)
!286 = !DISubroutineType(types: !287)
!287 = !{null, !243, !14}
!288 = !DISubprogram(name: "put", linkageName: "_ZN6Packet3putEj", scope: !7, file: !6, line: 213, type: !279, scopeLine: 213, flags: DIFlagPublic | DIFlagPrototyped, spFlags: DISPFlagOptimized)
!289 = !DISubprogram(name: "nonunique_put", linkageName: "_ZN6Packet13nonunique_putEj", scope: !7, file: !6, line: 230, type: !283, scopeLine: 230, flags: DIFlagPublic | DIFlagPrototyped, spFlags: DISPFlagOptimized)
!290 = !DISubprogram(name: "take", linkageName: "_ZN6Packet4takeEj", scope: !7, file: !6, line: 245, type: !286, scopeLine: 245, flags: DIFlagPublic | DIFlagPrototyped, spFlags: DISPFlagOptimized)
!291 = !DISubprogram(name: "shift_data", linkageName: "_ZN6Packet10shift_dataEib", scope: !7, file: !6, line: 269, type: !292, scopeLine: 269, flags: DIFlagPublic | DIFlagPrototyped, spFlags: DISPFlagOptimized)
!292 = !DISubroutineType(types: !293)
!293 = !{!80, !243, !36, !55}
!294 = !DISubprogram(name: "shrink_data", linkageName: "_ZN6Packet11shrink_dataEPKhj", scope: !7, file: !6, line: 271, type: !295, scopeLine: 271, flags: DIFlagPublic | DIFlagPrototyped, spFlags: DISPFlagOptimized)
!295 = !DISubroutineType(types: !296)
!296 = !{null, !243, !257, !14}
!297 = !DISubprogram(name: "change_headroom_and_length", linkageName: "_ZN6Packet26change_headroom_and_lengthEjj", scope: !7, file: !6, line: 272, type: !298, scopeLine: 272, flags: DIFlagPublic | DIFlagPrototyped, spFlags: DISPFlagOptimized)
!298 = !DISubroutineType(types: !299)
!299 = !{null, !243, !14, !14}
!300 = !DISubprogram(name: "copy", linkageName: "_ZN6Packet4copyEPS_i", scope: !7, file: !6, line: 274, type: !301, scopeLine: 274, flags: DIFlagPublic | DIFlagPrototyped, spFlags: DISPFlagOptimized)
!301 = !DISubroutineType(types: !302)
!302 = !{!55, !243, !80, !36}
!303 = !DISubprogram(name: "has_mac_header", linkageName: "_ZNK6Packet14has_mac_headerEv", scope: !7, file: !6, line: 279, type: !245, scopeLine: 279, flags: DIFlagPublic | DIFlagPrototyped, spFlags: DISPFlagOptimized)
!304 = !DISubprogram(name: "mac_header", linkageName: "_ZNK6Packet10mac_headerEv", scope: !7, file: !6, line: 280, type: !255, scopeLine: 280, flags: DIFlagPublic | DIFlagPrototyped, spFlags: DISPFlagOptimized)
!305 = !DISubprogram(name: "mac_header_offset", linkageName: "_ZNK6Packet17mac_header_offsetEv", scope: !7, file: !6, line: 281, type: !306, scopeLine: 281, flags: DIFlagPublic | DIFlagPrototyped, spFlags: DISPFlagOptimized)
!306 = !DISubroutineType(types: !307)
!307 = !{!36, !247}
!308 = !DISubprogram(name: "mac_header_length", linkageName: "_ZNK6Packet17mac_header_lengthEv", scope: !7, file: !6, line: 282, type: !261, scopeLine: 282, flags: DIFlagPublic | DIFlagPrototyped, spFlags: DISPFlagOptimized)
!309 = !DISubprogram(name: "mac_length", linkageName: "_ZNK6Packet10mac_lengthEv", scope: !7, file: !6, line: 283, type: !306, scopeLine: 283, flags: DIFlagPublic | DIFlagPrototyped, spFlags: DISPFlagOptimized)
!310 = !DISubprogram(name: "set_mac_header", linkageName: "_ZN6Packet14set_mac_headerEPKh", scope: !7, file: !6, line: 284, type: !311, scopeLine: 284, flags: DIFlagPublic | DIFlagPrototyped, spFlags: DISPFlagOptimized)
!311 = !DISubroutineType(types: !312)
!312 = !{null, !243, !257}
!313 = !DISubprogram(name: "set_mac_header", linkageName: "_ZN6Packet14set_mac_headerEPKhj", scope: !7, file: !6, line: 285, type: !295, scopeLine: 285, flags: DIFlagPublic | DIFlagPrototyped, spFlags: DISPFlagOptimized)
!314 = !DISubprogram(name: "clear_mac_header", linkageName: "_ZN6Packet16clear_mac_headerEv", scope: !7, file: !6, line: 286, type: !241, scopeLine: 286, flags: DIFlagPublic | DIFlagPrototyped, spFlags: DISPFlagOptimized)
!315 = !DISubprogram(name: "has_network_header", linkageName: "_ZNK6Packet18has_network_headerEv", scope: !7, file: !6, line: 288, type: !245, scopeLine: 288, flags: DIFlagPublic | DIFlagPrototyped, spFlags: DISPFlagOptimized)
!316 = !DISubprogram(name: "network_header", linkageName: "_ZNK6Packet14network_headerEv", scope: !7, file: !6, line: 289, type: !255, scopeLine: 289, flags: DIFlagPublic | DIFlagPrototyped, spFlags: DISPFlagOptimized)
!317 = !DISubprogram(name: "network_header_offset", linkageName: "_ZNK6Packet21network_header_offsetEv", scope: !7, file: !6, line: 290, type: !306, scopeLine: 290, flags: DIFlagPublic | DIFlagPrototyped, spFlags: DISPFlagOptimized)
!318 = !DISubprogram(name: "network_header_length", linkageName: "_ZNK6Packet21network_header_lengthEv", scope: !7, file: !6, line: 291, type: !261, scopeLine: 291, flags: DIFlagPublic | DIFlagPrototyped, spFlags: DISPFlagOptimized)
!319 = !DISubprogram(name: "network_length", linkageName: "_ZNK6Packet14network_lengthEv", scope: !7, file: !6, line: 292, type: !306, scopeLine: 292, flags: DIFlagPublic | DIFlagPrototyped, spFlags: DISPFlagOptimized)
!320 = !DISubprogram(name: "set_network_header", linkageName: "_ZN6Packet18set_network_headerEPKhj", scope: !7, file: !6, line: 293, type: !295, scopeLine: 293, flags: DIFlagPublic | DIFlagPrototyped, spFlags: DISPFlagOptimized)
!321 = !DISubprogram(name: "set_network_header_length", linkageName: "_ZN6Packet25set_network_header_lengthEj", scope: !7, file: !6, line: 294, type: !286, scopeLine: 294, flags: DIFlagPublic | DIFlagPrototyped, spFlags: DISPFlagOptimized)
!322 = !DISubprogram(name: "clear_network_header", linkageName: "_ZN6Packet20clear_network_headerEv", scope: !7, file: !6, line: 295, type: !241, scopeLine: 295, flags: DIFlagPublic | DIFlagPrototyped, spFlags: DISPFlagOptimized)
!323 = !DISubprogram(name: "has_transport_header", linkageName: "_ZNK6Packet20has_transport_headerEv", scope: !7, file: !6, line: 297, type: !245, scopeLine: 297, flags: DIFlagPublic | DIFlagPrototyped, spFlags: DISPFlagOptimized)
!324 = !DISubprogram(name: "transport_header", linkageName: "_ZNK6Packet16transport_headerEv", scope: !7, file: !6, line: 298, type: !255, scopeLine: 298, flags: DIFlagPublic | DIFlagPrototyped, spFlags: DISPFlagOptimized)
!325 = !DISubprogram(name: "transport_header_offset", linkageName: "_ZNK6Packet23transport_header_offsetEv", scope: !7, file: !6, line: 299, type: !306, scopeLine: 299, flags: DIFlagPublic | DIFlagPrototyped, spFlags: DISPFlagOptimized)
!326 = !DISubprogram(name: "transport_length", linkageName: "_ZNK6Packet16transport_lengthEv", scope: !7, file: !6, line: 300, type: !306, scopeLine: 300, flags: DIFlagPublic | DIFlagPrototyped, spFlags: DISPFlagOptimized)
!327 = !DISubprogram(name: "clear_transport_header", linkageName: "_ZN6Packet22clear_transport_headerEv", scope: !7, file: !6, line: 301, type: !241, scopeLine: 301, flags: DIFlagPublic | DIFlagPrototyped, spFlags: DISPFlagOptimized)
!328 = !DISubprogram(name: "ether_header", linkageName: "_ZNK6Packet12ether_headerEv", scope: !7, file: !6, line: 304, type: !329, scopeLine: 304, flags: DIFlagPublic | DIFlagPrototyped, spFlags: DISPFlagOptimized)
!329 = !DISubroutineType(types: !330)
!330 = !{!331, !247}
!331 = !DIDerivedType(tag: DW_TAG_pointer_type, baseType: !332, size: 64)
!332 = !DIDerivedType(tag: DW_TAG_const_type, baseType: !159)
!333 = !DISubprogram(name: "set_ether_header", linkageName: "_ZN6Packet16set_ether_headerEPK11click_ether", scope: !7, file: !6, line: 305, type: !334, scopeLine: 305, flags: DIFlagPublic | DIFlagPrototyped, spFlags: DISPFlagOptimized)
!334 = !DISubroutineType(types: !335)
!335 = !{null, !243, !331}
!336 = !DISubprogram(name: "ip_header", linkageName: "_ZNK6Packet9ip_headerEv", scope: !7, file: !6, line: 307, type: !337, scopeLine: 307, flags: DIFlagPublic | DIFlagPrototyped, spFlags: DISPFlagOptimized)
!337 = !DISubroutineType(types: !338)
!338 = !{!339, !247}
!339 = !DIDerivedType(tag: DW_TAG_pointer_type, baseType: !340, size: 64)
!340 = !DIDerivedType(tag: DW_TAG_const_type, baseType: !165)
!341 = !DISubprogram(name: "ip_header_offset", linkageName: "_ZNK6Packet16ip_header_offsetEv", scope: !7, file: !6, line: 308, type: !306, scopeLine: 308, flags: DIFlagPublic | DIFlagPrototyped, spFlags: DISPFlagOptimized)
!342 = !DISubprogram(name: "ip_header_length", linkageName: "_ZNK6Packet16ip_header_lengthEv", scope: !7, file: !6, line: 309, type: !261, scopeLine: 309, flags: DIFlagPublic | DIFlagPrototyped, spFlags: DISPFlagOptimized)
!343 = !DISubprogram(name: "set_ip_header", linkageName: "_ZN6Packet13set_ip_headerEPK8click_ipj", scope: !7, file: !6, line: 310, type: !344, scopeLine: 310, flags: DIFlagPublic | DIFlagPrototyped, spFlags: DISPFlagOptimized)
!344 = !DISubroutineType(types: !345)
!345 = !{null, !243, !339, !14}
!346 = !DISubprogram(name: "ip6_header", linkageName: "_ZNK6Packet10ip6_headerEv", scope: !7, file: !6, line: 312, type: !347, scopeLine: 312, flags: DIFlagPublic | DIFlagPrototyped, spFlags: DISPFlagOptimized)
!347 = !DISubroutineType(types: !348)
!348 = !{!349, !247}
!349 = !DIDerivedType(tag: DW_TAG_pointer_type, baseType: !350, size: 64)
!350 = !DIDerivedType(tag: DW_TAG_const_type, baseType: !188)
!351 = !DISubprogram(name: "ip6_header_offset", linkageName: "_ZNK6Packet17ip6_header_offsetEv", scope: !7, file: !6, line: 313, type: !306, scopeLine: 313, flags: DIFlagPublic | DIFlagPrototyped, spFlags: DISPFlagOptimized)
!352 = !DISubprogram(name: "ip6_header_length", linkageName: "_ZNK6Packet17ip6_header_lengthEv", scope: !7, file: !6, line: 314, type: !261, scopeLine: 314, flags: DIFlagPublic | DIFlagPrototyped, spFlags: DISPFlagOptimized)
!353 = !DISubprogram(name: "set_ip6_header", linkageName: "_ZN6Packet14set_ip6_headerEPK9click_ip6", scope: !7, file: !6, line: 315, type: !354, scopeLine: 315, flags: DIFlagPublic | DIFlagPrototyped, spFlags: DISPFlagOptimized)
!354 = !DISubroutineType(types: !355)
!355 = !{null, !243, !349}
!356 = !DISubprogram(name: "set_ip6_header", linkageName: "_ZN6Packet14set_ip6_headerEPK9click_ip6j", scope: !7, file: !6, line: 316, type: !357, scopeLine: 316, flags: DIFlagPublic | DIFlagPrototyped, spFlags: DISPFlagOptimized)
!357 = !DISubroutineType(types: !358)
!358 = !{null, !243, !349, !14}
!359 = !DISubprogram(name: "icmp_header", linkageName: "_ZNK6Packet11icmp_headerEv", scope: !7, file: !6, line: 318, type: !360, scopeLine: 318, flags: DIFlagPublic | DIFlagPrototyped, spFlags: DISPFlagOptimized)
!360 = !DISubroutineType(types: !361)
!361 = !{!362, !247}
!362 = !DIDerivedType(tag: DW_TAG_pointer_type, baseType: !363, size: 64)
!363 = !DIDerivedType(tag: DW_TAG_const_type, baseType: !194)
!364 = !DISubprogram(name: "tcp_header", linkageName: "_ZNK6Packet10tcp_headerEv", scope: !7, file: !6, line: 319, type: !365, scopeLine: 319, flags: DIFlagPublic | DIFlagPrototyped, spFlags: DISPFlagOptimized)
!365 = !DISubroutineType(types: !366)
!366 = !{!367, !247}
!367 = !DIDerivedType(tag: DW_TAG_pointer_type, baseType: !368, size: 64)
!368 = !DIDerivedType(tag: DW_TAG_const_type, baseType: !199)
!369 = !DISubprogram(name: "udp_header", linkageName: "_ZNK6Packet10udp_headerEv", scope: !7, file: !6, line: 320, type: !370, scopeLine: 320, flags: DIFlagPublic | DIFlagPrototyped, spFlags: DISPFlagOptimized)
!370 = !DISubroutineType(types: !371)
!371 = !{!372, !247}
!372 = !DIDerivedType(tag: DW_TAG_pointer_type, baseType: !373, size: 64)
!373 = !DIDerivedType(tag: DW_TAG_const_type, baseType: !204)
!374 = !DISubprogram(name: "xanno", linkageName: "_ZNK6Packet5xannoEv", scope: !7, file: !6, line: 340, type: !375, scopeLine: 340, flags: DIFlagPrototyped, spFlags: DISPFlagOptimized)
!375 = !DISubroutineType(types: !376)
!376 = !{!377, !247}
!377 = !DIDerivedType(tag: DW_TAG_pointer_type, baseType: !378, size: 64)
!378 = !DIDerivedType(tag: DW_TAG_const_type, baseType: !91)
!379 = !DISubprogram(name: "xanno", linkageName: "_ZN6Packet5xannoEv", scope: !7, file: !6, line: 341, type: !380, scopeLine: 341, flags: DIFlagPrototyped, spFlags: DISPFlagOptimized)
!380 = !DISubroutineType(types: !381)
!381 = !{!382, !243}
!382 = !DIDerivedType(tag: DW_TAG_pointer_type, baseType: !91, size: 64)
!383 = !DISubprogram(name: "timestamp_anno", linkageName: "_ZNK6Packet14timestamp_annoEv", scope: !7, file: !6, line: 354, type: !384, scopeLine: 354, flags: DIFlagPublic | DIFlagPrototyped, spFlags: DISPFlagOptimized)
!384 = !DISubroutineType(types: !385)
!385 = !{!386, !247}
!386 = !DIDerivedType(tag: DW_TAG_reference_type, baseType: !387, size: 64)
!387 = !DIDerivedType(tag: DW_TAG_const_type, baseType: !388)
!388 = distinct !DICompositeType(tag: DW_TAG_class_type, name: "Timestamp", file: !389, line: 122, size: 64, flags: DIFlagTypePassByValue | DIFlagNonTrivial, elements: !390, identifier: "_ZTS9Timestamp")
!389 = !DIFile(filename: "../dummy_inc/click/timestamp.hh", directory: "/home/john/projects/click/ir-dir")
!390 = !{!391, !398, !402, !405, !408, !411, !414, !418, !430, !441, !446, !455, !464, !467, !468, !471, !472, !473, !474, !477, !480, !481, !482, !483, !486, !487, !490, !493, !497, !498, !499, !502, !503, !504, !509, !513, !516, !519, !522, !525, !526, !527, !528, !529, !532, !533, !536, !537, !538, !539, !540, !541, !542, !545, !546, !547, !548, !549, !550, !551, !552, !553, !843, !844, !847, !848, !849, !850, !851, !852, !853, !856, !865, !868, !869, !872, !875, !876, !877, !878, !879, !880, !881, !884, !888, !891, !894, !897}
!391 = !DIDerivedType(tag: DW_TAG_member, name: "_t", scope: !388, file: !389, line: 672, baseType: !392, size: 64)
!392 = distinct !DICompositeType(tag: DW_TAG_union_type, name: "rep_t", scope: !388, file: !389, line: 539, size: 64, flags: DIFlagTypePassByValue, elements: !393, identifier: "_ZTSN9Timestamp5rep_tE")
!393 = !{!394}
!394 = !DIDerivedType(tag: DW_TAG_member, name: "x", scope: !392, file: !389, line: 541, baseType: !395, size: 64)
!395 = !DIDerivedType(tag: DW_TAG_typedef, name: "int64_t", file: !34, line: 27, baseType: !396)
!396 = !DIDerivedType(tag: DW_TAG_typedef, name: "__int64_t", file: !17, line: 44, baseType: !397)
!397 = !DIBasicType(name: "long int", size: 64, encoding: DW_ATE_signed)
!398 = !DISubprogram(name: "Timestamp", scope: !388, file: !389, line: 174, type: !399, scopeLine: 174, flags: DIFlagPublic | DIFlagPrototyped, spFlags: DISPFlagOptimized)
!399 = !DISubroutineType(types: !400)
!400 = !{null, !401}
!401 = !DIDerivedType(tag: DW_TAG_pointer_type, baseType: !388, size: 64, flags: DIFlagArtificial | DIFlagObjectPointer)
!402 = !DISubprogram(name: "Timestamp", scope: !388, file: !389, line: 187, type: !403, scopeLine: 187, flags: DIFlagPublic | DIFlagExplicit | DIFlagPrototyped, spFlags: DISPFlagOptimized)
!403 = !DISubroutineType(types: !404)
!404 = !{null, !401, !397, !14}
!405 = !DISubprogram(name: "Timestamp", scope: !388, file: !389, line: 191, type: !406, scopeLine: 191, flags: DIFlagPublic | DIFlagExplicit | DIFlagPrototyped, spFlags: DISPFlagOptimized)
!406 = !DISubroutineType(types: !407)
!407 = !{null, !401, !36, !14}
!408 = !DISubprogram(name: "Timestamp", scope: !388, file: !389, line: 195, type: !409, scopeLine: 195, flags: DIFlagPublic | DIFlagExplicit | DIFlagPrototyped, spFlags: DISPFlagOptimized)
!409 = !DISubroutineType(types: !410)
!410 = !{null, !401, !117, !14}
!411 = !DISubprogram(name: "Timestamp", scope: !388, file: !389, line: 199, type: !412, scopeLine: 199, flags: DIFlagPublic | DIFlagExplicit | DIFlagPrototyped, spFlags: DISPFlagOptimized)
!412 = !DISubroutineType(types: !413)
!413 = !{null, !401, !18, !14}
!414 = !DISubprogram(name: "Timestamp", scope: !388, file: !389, line: 203, type: !415, scopeLine: 203, flags: DIFlagPublic | DIFlagExplicit | DIFlagPrototyped, spFlags: DISPFlagOptimized)
!415 = !DISubroutineType(types: !416)
!416 = !{null, !401, !417}
!417 = !DIBasicType(name: "double", size: 64, encoding: DW_ATE_float)
!418 = !DISubprogram(name: "Timestamp", scope: !388, file: !389, line: 206, type: !419, scopeLine: 206, flags: DIFlagPublic | DIFlagPrototyped, spFlags: DISPFlagOptimized)
!419 = !DISubroutineType(types: !420)
!420 = !{null, !401, !421}
!421 = !DIDerivedType(tag: DW_TAG_reference_type, baseType: !422, size: 64)
!422 = !DIDerivedType(tag: DW_TAG_const_type, baseType: !423)
!423 = distinct !DICompositeType(tag: DW_TAG_structure_type, name: "timeval", file: !424, line: 8, size: 128, flags: DIFlagTypePassByValue, elements: !425, identifier: "_ZTS7timeval")
!424 = !DIFile(filename: "/usr/include/bits/types/struct_timeval.h", directory: "")
!425 = !{!426, !428}
!426 = !DIDerivedType(tag: DW_TAG_member, name: "tv_sec", scope: !423, file: !424, line: 10, baseType: !427, size: 64)
!427 = !DIDerivedType(tag: DW_TAG_typedef, name: "__time_t", file: !17, line: 160, baseType: !397)
!428 = !DIDerivedType(tag: DW_TAG_member, name: "tv_usec", scope: !423, file: !424, line: 11, baseType: !429, size: 64, offset: 64)
!429 = !DIDerivedType(tag: DW_TAG_typedef, name: "__suseconds_t", file: !17, line: 162, baseType: !397)
!430 = !DISubprogram(name: "Timestamp", scope: !388, file: !389, line: 208, type: !431, scopeLine: 208, flags: DIFlagPublic | DIFlagPrototyped, spFlags: DISPFlagOptimized)
!431 = !DISubroutineType(types: !432)
!432 = !{null, !401, !433}
!433 = !DIDerivedType(tag: DW_TAG_reference_type, baseType: !434, size: 64)
!434 = !DIDerivedType(tag: DW_TAG_const_type, baseType: !435)
!435 = distinct !DICompositeType(tag: DW_TAG_structure_type, name: "timespec", file: !436, line: 10, size: 128, flags: DIFlagTypePassByValue, elements: !437, identifier: "_ZTS8timespec")
!436 = !DIFile(filename: "/usr/include/bits/types/struct_timespec.h", directory: "")
!437 = !{!438, !439}
!438 = !DIDerivedType(tag: DW_TAG_member, name: "tv_sec", scope: !435, file: !436, line: 12, baseType: !427, size: 64)
!439 = !DIDerivedType(tag: DW_TAG_member, name: "tv_nsec", scope: !435, file: !436, line: 16, baseType: !440, size: 64, offset: 64)
!440 = !DIDerivedType(tag: DW_TAG_typedef, name: "__syscall_slong_t", file: !17, line: 196, baseType: !397)
!441 = !DISubprogram(name: "Timestamp", scope: !388, file: !389, line: 212, type: !442, scopeLine: 212, flags: DIFlagPublic | DIFlagPrototyped, spFlags: DISPFlagOptimized)
!442 = !DISubroutineType(types: !443)
!443 = !{null, !401, !444}
!444 = !DIDerivedType(tag: DW_TAG_reference_type, baseType: !445, size: 64)
!445 = !DIDerivedType(tag: DW_TAG_const_type, baseType: !392)
!446 = !DISubprogram(name: "Timestamp", scope: !388, file: !389, line: 217, type: !447, scopeLine: 217, flags: DIFlagPublic | DIFlagPrototyped, spFlags: DISPFlagOptimized)
!447 = !DISubroutineType(types: !448)
!448 = !{null, !401, !449}
!449 = !DIDerivedType(tag: DW_TAG_reference_type, baseType: !450, size: 64)
!450 = !DIDerivedType(tag: DW_TAG_const_type, baseType: !451)
!451 = !DIDerivedType(tag: DW_TAG_typedef, name: "uninitialized_t", scope: !388, file: !389, line: 168, baseType: !452)
!452 = distinct !DICompositeType(tag: DW_TAG_structure_type, name: "uninitialized_type", file: !453, line: 317, size: 8, flags: DIFlagTypePassByValue, elements: !454, identifier: "_ZTS18uninitialized_type")
!453 = !DIFile(filename: "../dummy_inc/click/config.h", directory: "/home/john/projects/click/ir-dir")
!454 = !{}
!455 = !DISubprogram(name: "operator int (Timestamp::*)() const", linkageName: "_ZNK9TimestampcvMS_KFivEEv", scope: !388, file: !389, line: 222, type: !456, scopeLine: 222, flags: DIFlagPublic | DIFlagPrototyped, spFlags: DISPFlagOptimized)
!456 = !DISubroutineType(types: !457)
!457 = !{!458, !463}
!458 = !DIDerivedType(tag: DW_TAG_typedef, name: "unspecified_bool_type", scope: !388, file: !389, line: 221, baseType: !459)
!459 = !DIDerivedType(tag: DW_TAG_ptr_to_member_type, baseType: !460, size: 128, extraData: !388)
!460 = !DISubroutineType(types: !461)
!461 = !{!462, !463}
!462 = !DIDerivedType(tag: DW_TAG_typedef, name: "seconds_type", scope: !388, file: !389, line: 125, baseType: !33)
!463 = !DIDerivedType(tag: DW_TAG_pointer_type, baseType: !387, size: 64, flags: DIFlagArtificial | DIFlagObjectPointer)
!464 = !DISubprogram(name: "is_negative", linkageName: "_ZNK9Timestamp11is_negativeEv", scope: !388, file: !389, line: 225, type: !465, scopeLine: 225, flags: DIFlagPublic | DIFlagPrototyped, spFlags: DISPFlagOptimized)
!465 = !DISubroutineType(types: !466)
!466 = !{!55, !463}
!467 = !DISubprogram(name: "sec", linkageName: "_ZNK9Timestamp3secEv", scope: !388, file: !389, line: 233, type: !460, scopeLine: 233, flags: DIFlagPublic | DIFlagPrototyped, spFlags: DISPFlagOptimized)
!468 = !DISubprogram(name: "subsec", linkageName: "_ZNK9Timestamp6subsecEv", scope: !388, file: !389, line: 234, type: !469, scopeLine: 234, flags: DIFlagPublic | DIFlagPrototyped, spFlags: DISPFlagOptimized)
!469 = !DISubroutineType(types: !470)
!470 = !{!14, !463}
!471 = !DISubprogram(name: "msec", linkageName: "_ZNK9Timestamp4msecEv", scope: !388, file: !389, line: 235, type: !469, scopeLine: 235, flags: DIFlagPublic | DIFlagPrototyped, spFlags: DISPFlagOptimized)
!472 = !DISubprogram(name: "usec", linkageName: "_ZNK9Timestamp4usecEv", scope: !388, file: !389, line: 236, type: !469, scopeLine: 236, flags: DIFlagPublic | DIFlagPrototyped, spFlags: DISPFlagOptimized)
!473 = !DISubprogram(name: "nsec", linkageName: "_ZNK9Timestamp4nsecEv", scope: !388, file: !389, line: 237, type: !469, scopeLine: 237, flags: DIFlagPublic | DIFlagPrototyped, spFlags: DISPFlagOptimized)
!474 = !DISubprogram(name: "set_sec", linkageName: "_ZN9Timestamp7set_secEi", scope: !388, file: !389, line: 239, type: !475, scopeLine: 239, flags: DIFlagPublic | DIFlagPrototyped, spFlags: DISPFlagOptimized)
!475 = !DISubroutineType(types: !476)
!476 = !{null, !401, !462}
!477 = !DISubprogram(name: "set_subsec", linkageName: "_ZN9Timestamp10set_subsecEj", scope: !388, file: !389, line: 240, type: !478, scopeLine: 240, flags: DIFlagPublic | DIFlagPrototyped, spFlags: DISPFlagOptimized)
!478 = !DISubroutineType(types: !479)
!479 = !{null, !401, !14}
!480 = !DISubprogram(name: "msec1", linkageName: "_ZNK9Timestamp5msec1Ev", scope: !388, file: !389, line: 242, type: !460, scopeLine: 242, flags: DIFlagPublic | DIFlagPrototyped, spFlags: DISPFlagOptimized)
!481 = !DISubprogram(name: "usec1", linkageName: "_ZNK9Timestamp5usec1Ev", scope: !388, file: !389, line: 243, type: !460, scopeLine: 243, flags: DIFlagPublic | DIFlagPrototyped, spFlags: DISPFlagOptimized)
!482 = !DISubprogram(name: "nsec1", linkageName: "_ZNK9Timestamp5nsec1Ev", scope: !388, file: !389, line: 244, type: !460, scopeLine: 244, flags: DIFlagPublic | DIFlagPrototyped, spFlags: DISPFlagOptimized)
!483 = !DISubprogram(name: "timeval", linkageName: "_ZNK9Timestamp7timevalEv", scope: !388, file: !389, line: 250, type: !484, scopeLine: 250, flags: DIFlagPublic | DIFlagPrototyped, spFlags: DISPFlagOptimized)
!484 = !DISubroutineType(types: !485)
!485 = !{!423, !463}
!486 = !DISubprogram(name: "timeval_ceil", linkageName: "_ZNK9Timestamp12timeval_ceilEv", scope: !388, file: !389, line: 251, type: !484, scopeLine: 251, flags: DIFlagPublic | DIFlagPrototyped, spFlags: DISPFlagOptimized)
!487 = !DISubprogram(name: "timespec", linkageName: "_ZNK9Timestamp8timespecEv", scope: !388, file: !389, line: 257, type: !488, scopeLine: 257, flags: DIFlagPublic | DIFlagPrototyped, spFlags: DISPFlagOptimized)
!488 = !DISubroutineType(types: !489)
!489 = !{!435, !463}
!490 = !DISubprogram(name: "doubleval", linkageName: "_ZNK9Timestamp9doublevalEv", scope: !388, file: !389, line: 262, type: !491, scopeLine: 262, flags: DIFlagPublic | DIFlagPrototyped, spFlags: DISPFlagOptimized)
!491 = !DISubroutineType(types: !492)
!492 = !{!417, !463}
!493 = !DISubprogram(name: "msecval", linkageName: "_ZNK9Timestamp7msecvalEv", scope: !388, file: !389, line: 265, type: !494, scopeLine: 265, flags: DIFlagPublic | DIFlagPrototyped, spFlags: DISPFlagOptimized)
!494 = !DISubroutineType(types: !495)
!495 = !{!496, !463}
!496 = !DIDerivedType(tag: DW_TAG_typedef, name: "value_type", scope: !388, file: !389, line: 128, baseType: !395)
!497 = !DISubprogram(name: "usecval", linkageName: "_ZNK9Timestamp7usecvalEv", scope: !388, file: !389, line: 273, type: !494, scopeLine: 273, flags: DIFlagPublic | DIFlagPrototyped, spFlags: DISPFlagOptimized)
!498 = !DISubprogram(name: "nsecval", linkageName: "_ZNK9Timestamp7nsecvalEv", scope: !388, file: !389, line: 281, type: !494, scopeLine: 281, flags: DIFlagPublic | DIFlagPrototyped, spFlags: DISPFlagOptimized)
!499 = !DISubprogram(name: "msec_ceil", linkageName: "_ZNK9Timestamp9msec_ceilEv", scope: !388, file: !389, line: 290, type: !500, scopeLine: 290, flags: DIFlagPublic | DIFlagPrototyped, spFlags: DISPFlagOptimized)
!500 = !DISubroutineType(types: !501)
!501 = !{!388, !463}
!502 = !DISubprogram(name: "usec_ceil", linkageName: "_ZNK9Timestamp9usec_ceilEv", scope: !388, file: !389, line: 295, type: !500, scopeLine: 295, flags: DIFlagPublic | DIFlagPrototyped, spFlags: DISPFlagOptimized)
!503 = !DISubprogram(name: "nsec_ceil", linkageName: "_ZNK9Timestamp9nsec_ceilEv", scope: !388, file: !389, line: 304, type: !500, scopeLine: 304, flags: DIFlagPublic | DIFlagPrototyped, spFlags: DISPFlagOptimized)
!504 = !DISubprogram(name: "make_jiffies", linkageName: "_ZN9Timestamp12make_jiffiesEj", scope: !388, file: !389, line: 310, type: !505, scopeLine: 310, flags: DIFlagPublic | DIFlagPrototyped | DIFlagStaticMember, spFlags: DISPFlagOptimized)
!505 = !DISubroutineType(types: !506)
!506 = !{!388, !507}
!507 = !DIDerivedType(tag: DW_TAG_typedef, name: "click_jiffies_t", file: !508, line: 477, baseType: !18)
!508 = !DIFile(filename: "../dummy_inc/click/glue.hh", directory: "/home/john/projects/click/ir-dir")
!509 = !DISubprogram(name: "make_jiffies", linkageName: "_ZN9Timestamp12make_jiffiesEi", scope: !388, file: !389, line: 312, type: !510, scopeLine: 312, flags: DIFlagPublic | DIFlagPrototyped | DIFlagStaticMember, spFlags: DISPFlagOptimized)
!510 = !DISubroutineType(types: !511)
!511 = !{!388, !512}
!512 = !DIDerivedType(tag: DW_TAG_typedef, name: "click_jiffies_difference_t", file: !508, line: 478, baseType: !36)
!513 = !DISubprogram(name: "jiffies", linkageName: "_ZNK9Timestamp7jiffiesEv", scope: !388, file: !389, line: 314, type: !514, scopeLine: 314, flags: DIFlagPublic | DIFlagPrototyped, spFlags: DISPFlagOptimized)
!514 = !DISubroutineType(types: !515)
!515 = !{!507, !463}
!516 = !DISubprogram(name: "make_sec", linkageName: "_ZN9Timestamp8make_secEi", scope: !388, file: !389, line: 318, type: !517, scopeLine: 318, flags: DIFlagPublic | DIFlagPrototyped | DIFlagStaticMember, spFlags: DISPFlagOptimized)
!517 = !DISubroutineType(types: !518)
!518 = !{!388, !462}
!519 = !DISubprogram(name: "make_msec", linkageName: "_ZN9Timestamp9make_msecEij", scope: !388, file: !389, line: 324, type: !520, scopeLine: 324, flags: DIFlagPublic | DIFlagPrototyped | DIFlagStaticMember, spFlags: DISPFlagOptimized)
!520 = !DISubroutineType(types: !521)
!521 = !{!388, !462, !14}
!522 = !DISubprogram(name: "make_msec", linkageName: "_ZN9Timestamp9make_msecEl", scope: !388, file: !389, line: 328, type: !523, scopeLine: 328, flags: DIFlagPublic | DIFlagPrototyped | DIFlagStaticMember, spFlags: DISPFlagOptimized)
!523 = !DISubroutineType(types: !524)
!524 = !{!388, !496}
!525 = !DISubprogram(name: "make_usec", linkageName: "_ZN9Timestamp9make_usecEij", scope: !388, file: !389, line: 341, type: !520, scopeLine: 341, flags: DIFlagPublic | DIFlagPrototyped | DIFlagStaticMember, spFlags: DISPFlagOptimized)
!526 = !DISubprogram(name: "make_usec", linkageName: "_ZN9Timestamp9make_usecEl", scope: !388, file: !389, line: 345, type: !523, scopeLine: 345, flags: DIFlagPublic | DIFlagPrototyped | DIFlagStaticMember, spFlags: DISPFlagOptimized)
!527 = !DISubprogram(name: "make_nsec", linkageName: "_ZN9Timestamp9make_nsecEij", scope: !388, file: !389, line: 358, type: !520, scopeLine: 358, flags: DIFlagPublic | DIFlagPrototyped | DIFlagStaticMember, spFlags: DISPFlagOptimized)
!528 = !DISubprogram(name: "make_nsec", linkageName: "_ZN9Timestamp9make_nsecEl", scope: !388, file: !389, line: 362, type: !523, scopeLine: 362, flags: DIFlagPublic | DIFlagPrototyped | DIFlagStaticMember, spFlags: DISPFlagOptimized)
!529 = !DISubprogram(name: "epsilon", linkageName: "_ZN9Timestamp7epsilonEv", scope: !388, file: !389, line: 375, type: !530, scopeLine: 375, flags: DIFlagPublic | DIFlagPrototyped | DIFlagStaticMember, spFlags: DISPFlagOptimized)
!530 = !DISubroutineType(types: !531)
!531 = !{!388}
!532 = !DISubprogram(name: "clear", linkageName: "_ZN9Timestamp5clearEv", scope: !388, file: !389, line: 380, type: !399, scopeLine: 380, flags: DIFlagPublic | DIFlagPrototyped, spFlags: DISPFlagOptimized)
!533 = !DISubprogram(name: "assign", linkageName: "_ZN9Timestamp6assignEij", scope: !388, file: !389, line: 388, type: !534, scopeLine: 388, flags: DIFlagPublic | DIFlagPrototyped, spFlags: DISPFlagOptimized)
!534 = !DISubroutineType(types: !535)
!535 = !{null, !401, !462, !14}
!536 = !DISubprogram(name: "assign_usec", linkageName: "_ZN9Timestamp11assign_usecEij", scope: !388, file: !389, line: 397, type: !534, scopeLine: 397, flags: DIFlagPublic | DIFlagPrototyped, spFlags: DISPFlagOptimized)
!537 = !DISubprogram(name: "assign_nsec", linkageName: "_ZN9Timestamp11assign_nsecEij", scope: !388, file: !389, line: 401, type: !534, scopeLine: 401, flags: DIFlagPublic | DIFlagPrototyped, spFlags: DISPFlagOptimized)
!538 = !DISubprogram(name: "set", linkageName: "_ZN9Timestamp3setEij", scope: !388, file: !389, line: 408, type: !534, scopeLine: 408, flags: DIFlagPublic | DIFlagPrototyped, spFlags: DISPFlagOptimized)
!539 = !DISubprogram(name: "set_usec", linkageName: "_ZN9Timestamp8set_usecEij", scope: !388, file: !389, line: 411, type: !534, scopeLine: 411, flags: DIFlagPublic | DIFlagPrototyped, spFlags: DISPFlagOptimized)
!540 = !DISubprogram(name: "set_nsec", linkageName: "_ZN9Timestamp8set_nsecEij", scope: !388, file: !389, line: 414, type: !534, scopeLine: 414, flags: DIFlagPublic | DIFlagPrototyped, spFlags: DISPFlagOptimized)
!541 = !DISubprogram(name: "set_now", linkageName: "_ZN9Timestamp7set_nowEv", scope: !388, file: !389, line: 417, type: !399, scopeLine: 417, flags: DIFlagPublic | DIFlagPrototyped, spFlags: DISPFlagOptimized)
!542 = !DISubprogram(name: "set_timeval_ioctl", linkageName: "_ZN9Timestamp17set_timeval_ioctlEii", scope: !388, file: !389, line: 420, type: !543, scopeLine: 420, flags: DIFlagPublic | DIFlagPrototyped, spFlags: DISPFlagOptimized)
!543 = !DISubroutineType(types: !544)
!544 = !{!36, !401, !36, !36}
!545 = !DISubprogram(name: "now", linkageName: "_ZN9Timestamp3nowEv", scope: !388, file: !389, line: 432, type: !530, scopeLine: 432, flags: DIFlagPublic | DIFlagPrototyped | DIFlagStaticMember, spFlags: DISPFlagOptimized)
!546 = !DISubprogram(name: "assign_now", linkageName: "_ZN9Timestamp10assign_nowEv", scope: !388, file: !389, line: 438, type: !399, scopeLine: 438, flags: DIFlagPublic | DIFlagPrototyped, spFlags: DISPFlagOptimized)
!547 = !DISubprogram(name: "recent", linkageName: "_ZN9Timestamp6recentEv", scope: !388, file: !389, line: 446, type: !530, scopeLine: 446, flags: DIFlagPublic | DIFlagPrototyped | DIFlagStaticMember, spFlags: DISPFlagOptimized)
!548 = !DISubprogram(name: "assign_recent", linkageName: "_ZN9Timestamp13assign_recentEv", scope: !388, file: !389, line: 452, type: !399, scopeLine: 452, flags: DIFlagPublic | DIFlagPrototyped, spFlags: DISPFlagOptimized)
!549 = !DISubprogram(name: "now_steady", linkageName: "_ZN9Timestamp10now_steadyEv", scope: !388, file: !389, line: 466, type: !530, scopeLine: 466, flags: DIFlagPublic | DIFlagPrototyped | DIFlagStaticMember, spFlags: DISPFlagOptimized)
!550 = !DISubprogram(name: "assign_now_steady", linkageName: "_ZN9Timestamp17assign_now_steadyEv", scope: !388, file: !389, line: 472, type: !399, scopeLine: 472, flags: DIFlagPublic | DIFlagPrototyped, spFlags: DISPFlagOptimized)
!551 = !DISubprogram(name: "recent_steady", linkageName: "_ZN9Timestamp13recent_steadyEv", scope: !388, file: !389, line: 481, type: !530, scopeLine: 481, flags: DIFlagPublic | DIFlagPrototyped | DIFlagStaticMember, spFlags: DISPFlagOptimized)
!552 = !DISubprogram(name: "assign_recent_steady", linkageName: "_ZN9Timestamp20assign_recent_steadyEv", scope: !388, file: !389, line: 487, type: !399, scopeLine: 487, flags: DIFlagPublic | DIFlagPrototyped, spFlags: DISPFlagOptimized)
!553 = !DISubprogram(name: "unparse", linkageName: "_ZNK9Timestamp7unparseEv", scope: !388, file: !389, line: 496, type: !554, scopeLine: 496, flags: DIFlagPublic | DIFlagPrototyped, spFlags: DISPFlagOptimized)
!554 = !DISubroutineType(types: !555)
!555 = !{!556, !463}
!556 = distinct !DICompositeType(tag: DW_TAG_class_type, name: "String", file: !557, line: 19, size: 192, flags: DIFlagTypePassByReference | DIFlagNonTrivial, elements: !558, identifier: "_ZTS6String")
!557 = !DIFile(filename: "../dummy_inc/click/string.hh", directory: "/home/john/projects/click/ir-dir")
!558 = !{!559, !564, !578, !579, !583, !587, !589, !590, !594, !599, !603, !606, !609, !612, !615, !618, !621, !624, !627, !630, !633, !636, !639, !643, !647, !650, !651, !654, !657, !658, !661, !664, !667, !671, !675, !679, !682, !683, !688, !691, !692, !696, !697, !700, !701, !704, !705, !708, !711, !714, !717, !720, !723, !726, !729, !732, !735, !738, !741, !742, !743, !744, !747, !750, !751, !752, !753, !754, !755, !756, !760, !763, !766, !769, !770, !771, !772, !773, !774, !777, !781, !782, !783, !784, !787, !788, !789, !790, !791, !792, !795, !796, !797, !798, !801, !804, !805, !808, !811, !814, !817, !820, !823, !826, !827, !828, !829, !832, !835, !838, !839, !840}
!559 = !DIDerivedType(tag: DW_TAG_member, name: "bool_data", scope: !556, file: !557, line: 184, baseType: !560, flags: DIFlagPublic | DIFlagStaticMember)
!560 = !DICompositeType(tag: DW_TAG_array_type, baseType: !561, size: 88, elements: !562)
!561 = !DIDerivedType(tag: DW_TAG_const_type, baseType: !95)
!562 = !{!563}
!563 = !DISubrange(count: 11)
!564 = !DIDerivedType(tag: DW_TAG_member, name: "_r", scope: !556, file: !557, line: 211, baseType: !565, size: 192)
!565 = distinct !DICompositeType(tag: DW_TAG_structure_type, name: "rep_t", scope: !556, file: !557, line: 204, size: 192, flags: DIFlagTypePassByValue, elements: !566, identifier: "_ZTSN6String5rep_tE")
!566 = !{!567, !569, !570}
!567 = !DIDerivedType(tag: DW_TAG_member, name: "data", scope: !565, file: !557, line: 205, baseType: !568, size: 64)
!568 = !DIDerivedType(tag: DW_TAG_pointer_type, baseType: !561, size: 64)
!569 = !DIDerivedType(tag: DW_TAG_member, name: "length", scope: !565, file: !557, line: 206, baseType: !36, size: 32, offset: 64)
!570 = !DIDerivedType(tag: DW_TAG_member, name: "memo", scope: !565, file: !557, line: 207, baseType: !571, size: 64, offset: 128)
!571 = !DIDerivedType(tag: DW_TAG_pointer_type, baseType: !572, size: 64)
!572 = distinct !DICompositeType(tag: DW_TAG_structure_type, name: "memo_t", scope: !556, file: !557, line: 189, size: 160, flags: DIFlagTypePassByValue, elements: !573, identifier: "_ZTSN6String6memo_tE")
!573 = !{!574, !575, !576, !577}
!574 = !DIDerivedType(tag: DW_TAG_member, name: "refcount", scope: !572, file: !557, line: 190, baseType: !66, size: 32)
!575 = !DIDerivedType(tag: DW_TAG_member, name: "capacity", scope: !572, file: !557, line: 191, baseType: !14, size: 32, offset: 32)
!576 = !DIDerivedType(tag: DW_TAG_member, name: "dirty", scope: !572, file: !557, line: 192, baseType: !66, size: 32, offset: 64)
!577 = !DIDerivedType(tag: DW_TAG_member, name: "real_data", scope: !572, file: !557, line: 197, baseType: !125, size: 64, offset: 96)
!578 = !DIDerivedType(tag: DW_TAG_member, name: "null_data", scope: !556, file: !557, line: 292, baseType: !561, flags: DIFlagStaticMember)
!579 = !DIDerivedType(tag: DW_TAG_member, name: "oom_data", scope: !556, file: !557, line: 293, baseType: !580, flags: DIFlagStaticMember)
!580 = !DICompositeType(tag: DW_TAG_array_type, baseType: !561, size: 120, elements: !581)
!581 = !{!582}
!582 = !DISubrange(count: 15)
!583 = !DIDerivedType(tag: DW_TAG_member, name: "int_data", scope: !556, file: !557, line: 294, baseType: !584, flags: DIFlagStaticMember)
!584 = !DICompositeType(tag: DW_TAG_array_type, baseType: !561, size: 160, elements: !585)
!585 = !{!586}
!586 = !DISubrange(count: 20)
!587 = !DIDerivedType(tag: DW_TAG_member, name: "null_string_rep", scope: !556, file: !557, line: 295, baseType: !588, flags: DIFlagStaticMember)
!588 = !DIDerivedType(tag: DW_TAG_const_type, baseType: !565)
!589 = !DIDerivedType(tag: DW_TAG_member, name: "oom_string_rep", scope: !556, file: !557, line: 296, baseType: !588, flags: DIFlagStaticMember)
!590 = !DISubprogram(name: "String", scope: !556, file: !557, line: 39, type: !591, scopeLine: 39, flags: DIFlagPublic | DIFlagPrototyped, spFlags: DISPFlagOptimized)
!591 = !DISubroutineType(types: !592)
!592 = !{null, !593}
!593 = !DIDerivedType(tag: DW_TAG_pointer_type, baseType: !556, size: 64, flags: DIFlagArtificial | DIFlagObjectPointer)
!594 = !DISubprogram(name: "String", scope: !556, file: !557, line: 40, type: !595, scopeLine: 40, flags: DIFlagPublic | DIFlagPrototyped, spFlags: DISPFlagOptimized)
!595 = !DISubroutineType(types: !596)
!596 = !{null, !593, !597}
!597 = !DIDerivedType(tag: DW_TAG_reference_type, baseType: !598, size: 64)
!598 = !DIDerivedType(tag: DW_TAG_const_type, baseType: !556)
!599 = !DISubprogram(name: "String", scope: !556, file: !557, line: 42, type: !600, scopeLine: 42, flags: DIFlagPublic | DIFlagPrototyped, spFlags: DISPFlagOptimized)
!600 = !DISubroutineType(types: !601)
!601 = !{null, !593, !602}
!602 = !DIDerivedType(tag: DW_TAG_rvalue_reference_type, baseType: !556, size: 64)
!603 = !DISubprogram(name: "String", scope: !556, file: !557, line: 44, type: !604, scopeLine: 44, flags: DIFlagPublic | DIFlagPrototyped, spFlags: DISPFlagOptimized)
!604 = !DISubroutineType(types: !605)
!605 = !{null, !593, !568}
!606 = !DISubprogram(name: "String", scope: !556, file: !557, line: 45, type: !607, scopeLine: 45, flags: DIFlagPublic | DIFlagPrototyped, spFlags: DISPFlagOptimized)
!607 = !DISubroutineType(types: !608)
!608 = !{null, !593, !568, !36}
!609 = !DISubprogram(name: "String", scope: !556, file: !557, line: 46, type: !610, scopeLine: 46, flags: DIFlagPublic | DIFlagPrototyped, spFlags: DISPFlagOptimized)
!610 = !DISubroutineType(types: !611)
!611 = !{null, !593, !257, !36}
!612 = !DISubprogram(name: "String", scope: !556, file: !557, line: 47, type: !613, scopeLine: 47, flags: DIFlagPublic | DIFlagPrototyped, spFlags: DISPFlagOptimized)
!613 = !DISubroutineType(types: !614)
!614 = !{null, !593, !568, !568}
!615 = !DISubprogram(name: "String", scope: !556, file: !557, line: 48, type: !616, scopeLine: 48, flags: DIFlagPublic | DIFlagPrototyped, spFlags: DISPFlagOptimized)
!616 = !DISubroutineType(types: !617)
!617 = !{null, !593, !257, !257}
!618 = !DISubprogram(name: "String", scope: !556, file: !557, line: 49, type: !619, scopeLine: 49, flags: DIFlagPublic | DIFlagExplicit | DIFlagPrototyped, spFlags: DISPFlagOptimized)
!619 = !DISubroutineType(types: !620)
!620 = !{null, !593, !55}
!621 = !DISubprogram(name: "String", scope: !556, file: !557, line: 50, type: !622, scopeLine: 50, flags: DIFlagPublic | DIFlagExplicit | DIFlagPrototyped, spFlags: DISPFlagOptimized)
!622 = !DISubroutineType(types: !623)
!623 = !{null, !593, !95}
!624 = !DISubprogram(name: "String", scope: !556, file: !557, line: 51, type: !625, scopeLine: 51, flags: DIFlagPublic | DIFlagExplicit | DIFlagPrototyped, spFlags: DISPFlagOptimized)
!625 = !DISubroutineType(types: !626)
!626 = !{null, !593, !83}
!627 = !DISubprogram(name: "String", scope: !556, file: !557, line: 52, type: !628, scopeLine: 52, flags: DIFlagPublic | DIFlagExplicit | DIFlagPrototyped, spFlags: DISPFlagOptimized)
!628 = !DISubroutineType(types: !629)
!629 = !{null, !593, !36}
!630 = !DISubprogram(name: "String", scope: !556, file: !557, line: 53, type: !631, scopeLine: 53, flags: DIFlagPublic | DIFlagExplicit | DIFlagPrototyped, spFlags: DISPFlagOptimized)
!631 = !DISubroutineType(types: !632)
!632 = !{null, !593, !18}
!633 = !DISubprogram(name: "String", scope: !556, file: !557, line: 54, type: !634, scopeLine: 54, flags: DIFlagPublic | DIFlagExplicit | DIFlagPrototyped, spFlags: DISPFlagOptimized)
!634 = !DISubroutineType(types: !635)
!635 = !{null, !593, !397}
!636 = !DISubprogram(name: "String", scope: !556, file: !557, line: 55, type: !637, scopeLine: 55, flags: DIFlagPublic | DIFlagExplicit | DIFlagPrototyped, spFlags: DISPFlagOptimized)
!637 = !DISubroutineType(types: !638)
!638 = !{null, !593, !117}
!639 = !DISubprogram(name: "String", scope: !556, file: !557, line: 57, type: !640, scopeLine: 57, flags: DIFlagPublic | DIFlagExplicit | DIFlagPrototyped, spFlags: DISPFlagOptimized)
!640 = !DISubroutineType(types: !641)
!641 = !{null, !593, !642}
!642 = !DIBasicType(name: "long long int", size: 64, encoding: DW_ATE_signed)
!643 = !DISubprogram(name: "String", scope: !556, file: !557, line: 58, type: !644, scopeLine: 58, flags: DIFlagPublic | DIFlagExplicit | DIFlagPrototyped, spFlags: DISPFlagOptimized)
!644 = !DISubroutineType(types: !645)
!645 = !{null, !593, !646}
!646 = !DIBasicType(name: "long long unsigned int", size: 64, encoding: DW_ATE_unsigned)
!647 = !DISubprogram(name: "String", scope: !556, file: !557, line: 65, type: !648, scopeLine: 65, flags: DIFlagPublic | DIFlagExplicit | DIFlagPrototyped, spFlags: DISPFlagOptimized)
!648 = !DISubroutineType(types: !649)
!649 = !{null, !593, !417}
!650 = !DISubprogram(name: "~String", scope: !556, file: !557, line: 67, type: !591, scopeLine: 67, flags: DIFlagPublic | DIFlagPrototyped, spFlags: DISPFlagOptimized)
!651 = !DISubprogram(name: "make_empty", linkageName: "_ZN6String10make_emptyEv", scope: !556, file: !557, line: 69, type: !652, scopeLine: 69, flags: DIFlagPublic | DIFlagPrototyped | DIFlagStaticMember, spFlags: DISPFlagOptimized)
!652 = !DISubroutineType(types: !653)
!653 = !{!597}
!654 = !DISubprogram(name: "make_uninitialized", linkageName: "_ZN6String18make_uninitializedEi", scope: !556, file: !557, line: 70, type: !655, scopeLine: 70, flags: DIFlagPublic | DIFlagPrototyped | DIFlagStaticMember, spFlags: DISPFlagOptimized)
!655 = !DISubroutineType(types: !656)
!656 = !{!556, !36}
!657 = !DISubprogram(name: "make_garbage", linkageName: "_ZN6String12make_garbageEi", scope: !556, file: !557, line: 71, type: !655, scopeLine: 71, flags: DIFlagPublic | DIFlagPrototyped | DIFlagStaticMember, spFlags: DISPFlagOptimized)
!658 = !DISubprogram(name: "make_stable", linkageName: "_ZN6String11make_stableEPKc", scope: !556, file: !557, line: 72, type: !659, scopeLine: 72, flags: DIFlagPublic | DIFlagPrototyped | DIFlagStaticMember, spFlags: DISPFlagOptimized)
!659 = !DISubroutineType(types: !660)
!660 = !{!556, !568}
!661 = !DISubprogram(name: "make_stable", linkageName: "_ZN6String11make_stableEPKci", scope: !556, file: !557, line: 73, type: !662, scopeLine: 73, flags: DIFlagPublic | DIFlagPrototyped | DIFlagStaticMember, spFlags: DISPFlagOptimized)
!662 = !DISubroutineType(types: !663)
!663 = !{!556, !568, !36}
!664 = !DISubprogram(name: "make_stable", linkageName: "_ZN6String11make_stableEPKcS1_", scope: !556, file: !557, line: 74, type: !665, scopeLine: 74, flags: DIFlagPublic | DIFlagPrototyped | DIFlagStaticMember, spFlags: DISPFlagOptimized)
!665 = !DISubroutineType(types: !666)
!666 = !{!556, !568, !568}
!667 = !DISubprogram(name: "make_numeric", linkageName: "_ZN6String12make_numericElib", scope: !556, file: !557, line: 75, type: !668, scopeLine: 75, flags: DIFlagPublic | DIFlagPrototyped | DIFlagStaticMember, spFlags: DISPFlagOptimized)
!668 = !DISubroutineType(types: !669)
!669 = !{!556, !670, !36, !55}
!670 = !DIDerivedType(tag: DW_TAG_typedef, name: "intmax_t", scope: !556, file: !557, line: 27, baseType: !395)
!671 = !DISubprogram(name: "make_numeric", linkageName: "_ZN6String12make_numericEmib", scope: !556, file: !557, line: 76, type: !672, scopeLine: 76, flags: DIFlagPublic | DIFlagPrototyped | DIFlagStaticMember, spFlags: DISPFlagOptimized)
!672 = !DISubroutineType(types: !673)
!673 = !{!556, !674, !36, !55}
!674 = !DIDerivedType(tag: DW_TAG_typedef, name: "uintmax_t", scope: !556, file: !557, line: 28, baseType: !115)
!675 = !DISubprogram(name: "data", linkageName: "_ZNK6String4dataEv", scope: !556, file: !557, line: 78, type: !676, scopeLine: 78, flags: DIFlagPublic | DIFlagPrototyped, spFlags: DISPFlagOptimized)
!676 = !DISubroutineType(types: !677)
!677 = !{!568, !678}
!678 = !DIDerivedType(tag: DW_TAG_pointer_type, baseType: !598, size: 64, flags: DIFlagArtificial | DIFlagObjectPointer)
!679 = !DISubprogram(name: "length", linkageName: "_ZNK6String6lengthEv", scope: !556, file: !557, line: 79, type: !680, scopeLine: 79, flags: DIFlagPublic | DIFlagPrototyped, spFlags: DISPFlagOptimized)
!680 = !DISubroutineType(types: !681)
!681 = !{!36, !678}
!682 = !DISubprogram(name: "c_str", linkageName: "_ZNK6String5c_strEv", scope: !556, file: !557, line: 81, type: !676, scopeLine: 81, flags: DIFlagPublic | DIFlagPrototyped, spFlags: DISPFlagOptimized)
!683 = !DISubprogram(name: "operator int (String::*)() const", linkageName: "_ZNK6StringcvMS_KFivEEv", scope: !556, file: !557, line: 83, type: !684, scopeLine: 83, flags: DIFlagPublic | DIFlagPrototyped, spFlags: DISPFlagOptimized)
!684 = !DISubroutineType(types: !685)
!685 = !{!686, !678}
!686 = !DIDerivedType(tag: DW_TAG_typedef, name: "unspecified_bool_type", scope: !556, file: !557, line: 24, baseType: !687)
!687 = !DIDerivedType(tag: DW_TAG_ptr_to_member_type, baseType: !680, size: 128, extraData: !556)
!688 = !DISubprogram(name: "empty", linkageName: "_ZNK6String5emptyEv", scope: !556, file: !557, line: 84, type: !689, scopeLine: 84, flags: DIFlagPublic | DIFlagPrototyped, spFlags: DISPFlagOptimized)
!689 = !DISubroutineType(types: !690)
!690 = !{!55, !678}
!691 = !DISubprogram(name: "operator!", linkageName: "_ZNK6StringntEv", scope: !556, file: !557, line: 85, type: !689, scopeLine: 85, flags: DIFlagPublic | DIFlagPrototyped, spFlags: DISPFlagOptimized)
!692 = !DISubprogram(name: "begin", linkageName: "_ZNK6String5beginEv", scope: !556, file: !557, line: 87, type: !693, scopeLine: 87, flags: DIFlagPublic | DIFlagPrototyped, spFlags: DISPFlagOptimized)
!693 = !DISubroutineType(types: !694)
!694 = !{!695, !678}
!695 = !DIDerivedType(tag: DW_TAG_typedef, name: "const_iterator", scope: !556, file: !557, line: 21, baseType: !568)
!696 = !DISubprogram(name: "end", linkageName: "_ZNK6String3endEv", scope: !556, file: !557, line: 88, type: !693, scopeLine: 88, flags: DIFlagPublic | DIFlagPrototyped, spFlags: DISPFlagOptimized)
!697 = !DISubprogram(name: "operator[]", linkageName: "_ZNK6StringixEi", scope: !556, file: !557, line: 90, type: !698, scopeLine: 90, flags: DIFlagPublic | DIFlagPrototyped, spFlags: DISPFlagOptimized)
!698 = !DISubroutineType(types: !699)
!699 = !{!95, !678, !36}
!700 = !DISubprogram(name: "at", linkageName: "_ZNK6String2atEi", scope: !556, file: !557, line: 91, type: !698, scopeLine: 91, flags: DIFlagPublic | DIFlagPrototyped, spFlags: DISPFlagOptimized)
!701 = !DISubprogram(name: "front", linkageName: "_ZNK6String5frontEv", scope: !556, file: !557, line: 92, type: !702, scopeLine: 92, flags: DIFlagPublic | DIFlagPrototyped, spFlags: DISPFlagOptimized)
!702 = !DISubroutineType(types: !703)
!703 = !{!95, !678}
!704 = !DISubprogram(name: "back", linkageName: "_ZNK6String4backEv", scope: !556, file: !557, line: 93, type: !702, scopeLine: 93, flags: DIFlagPublic | DIFlagPrototyped, spFlags: DISPFlagOptimized)
!705 = !DISubprogram(name: "hashcode", linkageName: "_ZN6String8hashcodeEPKcS1_", scope: !556, file: !557, line: 95, type: !706, scopeLine: 95, flags: DIFlagPublic | DIFlagPrototyped | DIFlagStaticMember, spFlags: DISPFlagOptimized)
!706 = !DISubroutineType(types: !707)
!707 = !{!14, !568, !568}
!708 = !DISubprogram(name: "hashcode", linkageName: "_ZN6String8hashcodeEPKhS1_", scope: !556, file: !557, line: 96, type: !709, scopeLine: 96, flags: DIFlagPublic | DIFlagPrototyped | DIFlagStaticMember, spFlags: DISPFlagOptimized)
!709 = !DISubroutineType(types: !710)
!710 = !{!14, !257, !257}
!711 = !DISubprogram(name: "hashcode", linkageName: "_ZNK6String8hashcodeEv", scope: !556, file: !557, line: 98, type: !712, scopeLine: 98, flags: DIFlagPublic | DIFlagPrototyped, spFlags: DISPFlagOptimized)
!712 = !DISubroutineType(types: !713)
!713 = !{!14, !678}
!714 = !DISubprogram(name: "substring", linkageName: "_ZNK6String9substringEPKcS1_", scope: !556, file: !557, line: 100, type: !715, scopeLine: 100, flags: DIFlagPublic | DIFlagPrototyped, spFlags: DISPFlagOptimized)
!715 = !DISubroutineType(types: !716)
!716 = !{!556, !678, !568, !568}
!717 = !DISubprogram(name: "substring", linkageName: "_ZNK6String9substringEii", scope: !556, file: !557, line: 101, type: !718, scopeLine: 101, flags: DIFlagPublic | DIFlagPrototyped, spFlags: DISPFlagOptimized)
!718 = !DISubroutineType(types: !719)
!719 = !{!556, !678, !36, !36}
!720 = !DISubprogram(name: "substring", linkageName: "_ZNK6String9substringEi", scope: !556, file: !557, line: 102, type: !721, scopeLine: 102, flags: DIFlagPublic | DIFlagPrototyped, spFlags: DISPFlagOptimized)
!721 = !DISubroutineType(types: !722)
!722 = !{!556, !678, !36}
!723 = !DISubprogram(name: "trim_space", linkageName: "_ZNK6String10trim_spaceEv", scope: !556, file: !557, line: 103, type: !724, scopeLine: 103, flags: DIFlagPublic | DIFlagPrototyped, spFlags: DISPFlagOptimized)
!724 = !DISubroutineType(types: !725)
!725 = !{!556, !678}
!726 = !DISubprogram(name: "equals", linkageName: "_ZNK6String6equalsERKS_", scope: !556, file: !557, line: 105, type: !727, scopeLine: 105, flags: DIFlagPublic | DIFlagPrototyped, spFlags: DISPFlagOptimized)
!727 = !DISubroutineType(types: !728)
!728 = !{!55, !678, !597}
!729 = !DISubprogram(name: "equals", linkageName: "_ZNK6String6equalsEPKci", scope: !556, file: !557, line: 106, type: !730, scopeLine: 106, flags: DIFlagPublic | DIFlagPrototyped, spFlags: DISPFlagOptimized)
!730 = !DISubroutineType(types: !731)
!731 = !{!55, !678, !568, !36}
!732 = !DISubprogram(name: "compare", linkageName: "_ZN6String7compareERKS_S1_", scope: !556, file: !557, line: 107, type: !733, scopeLine: 107, flags: DIFlagPublic | DIFlagPrototyped | DIFlagStaticMember, spFlags: DISPFlagOptimized)
!733 = !DISubroutineType(types: !734)
!734 = !{!36, !597, !597}
!735 = !DISubprogram(name: "compare", linkageName: "_ZNK6String7compareERKS_", scope: !556, file: !557, line: 108, type: !736, scopeLine: 108, flags: DIFlagPublic | DIFlagPrototyped, spFlags: DISPFlagOptimized)
!736 = !DISubroutineType(types: !737)
!737 = !{!36, !678, !597}
!738 = !DISubprogram(name: "compare", linkageName: "_ZNK6String7compareEPKci", scope: !556, file: !557, line: 109, type: !739, scopeLine: 109, flags: DIFlagPublic | DIFlagPrototyped, spFlags: DISPFlagOptimized)
!739 = !DISubroutineType(types: !740)
!740 = !{!36, !678, !568, !36}
!741 = !DISubprogram(name: "starts_with", linkageName: "_ZNK6String11starts_withERKS_", scope: !556, file: !557, line: 110, type: !727, scopeLine: 110, flags: DIFlagPublic | DIFlagPrototyped, spFlags: DISPFlagOptimized)
!742 = !DISubprogram(name: "starts_with", linkageName: "_ZNK6String11starts_withEPKci", scope: !556, file: !557, line: 111, type: !730, scopeLine: 111, flags: DIFlagPublic | DIFlagPrototyped, spFlags: DISPFlagOptimized)
!743 = !DISubprogram(name: "glob_match", linkageName: "_ZNK6String10glob_matchERKS_", scope: !556, file: !557, line: 112, type: !727, scopeLine: 112, flags: DIFlagPublic | DIFlagPrototyped, spFlags: DISPFlagOptimized)
!744 = !DISubprogram(name: "find_left", linkageName: "_ZNK6String9find_leftEci", scope: !556, file: !557, line: 125, type: !745, scopeLine: 125, flags: DIFlagPublic | DIFlagPrototyped, spFlags: DISPFlagOptimized)
!745 = !DISubroutineType(types: !746)
!746 = !{!36, !678, !95, !36}
!747 = !DISubprogram(name: "find_left", linkageName: "_ZNK6String9find_leftERKS_i", scope: !556, file: !557, line: 126, type: !748, scopeLine: 126, flags: DIFlagPublic | DIFlagPrototyped, spFlags: DISPFlagOptimized)
!748 = !DISubroutineType(types: !749)
!749 = !{!36, !678, !597, !36}
!750 = !DISubprogram(name: "find_right", linkageName: "_ZNK6String10find_rightEci", scope: !556, file: !557, line: 127, type: !745, scopeLine: 127, flags: DIFlagPublic | DIFlagPrototyped, spFlags: DISPFlagOptimized)
!751 = !DISubprogram(name: "lower", linkageName: "_ZNK6String5lowerEv", scope: !556, file: !557, line: 129, type: !724, scopeLine: 129, flags: DIFlagPublic | DIFlagPrototyped, spFlags: DISPFlagOptimized)
!752 = !DISubprogram(name: "upper", linkageName: "_ZNK6String5upperEv", scope: !556, file: !557, line: 130, type: !724, scopeLine: 130, flags: DIFlagPublic | DIFlagPrototyped, spFlags: DISPFlagOptimized)
!753 = !DISubprogram(name: "printable", linkageName: "_ZNK6String9printableEv", scope: !556, file: !557, line: 131, type: !724, scopeLine: 131, flags: DIFlagPublic | DIFlagPrototyped, spFlags: DISPFlagOptimized)
!754 = !DISubprogram(name: "quoted_hex", linkageName: "_ZNK6String10quoted_hexEv", scope: !556, file: !557, line: 132, type: !724, scopeLine: 132, flags: DIFlagPublic | DIFlagPrototyped, spFlags: DISPFlagOptimized)
!755 = !DISubprogram(name: "encode_json", linkageName: "_ZNK6String11encode_jsonEv", scope: !556, file: !557, line: 133, type: !724, scopeLine: 133, flags: DIFlagPublic | DIFlagPrototyped, spFlags: DISPFlagOptimized)
!756 = !DISubprogram(name: "operator=", linkageName: "_ZN6StringaSERKS_", scope: !556, file: !557, line: 135, type: !757, scopeLine: 135, flags: DIFlagPublic | DIFlagPrototyped, spFlags: DISPFlagOptimized)
!757 = !DISubroutineType(types: !758)
!758 = !{!759, !593, !597}
!759 = !DIDerivedType(tag: DW_TAG_reference_type, baseType: !556, size: 64)
!760 = !DISubprogram(name: "operator=", linkageName: "_ZN6StringaSEOS_", scope: !556, file: !557, line: 137, type: !761, scopeLine: 137, flags: DIFlagPublic | DIFlagPrototyped, spFlags: DISPFlagOptimized)
!761 = !DISubroutineType(types: !762)
!762 = !{!759, !593, !602}
!763 = !DISubprogram(name: "operator=", linkageName: "_ZN6StringaSEPKc", scope: !556, file: !557, line: 139, type: !764, scopeLine: 139, flags: DIFlagPublic | DIFlagPrototyped, spFlags: DISPFlagOptimized)
!764 = !DISubroutineType(types: !765)
!765 = !{!759, !593, !568}
!766 = !DISubprogram(name: "swap", linkageName: "_ZN6String4swapERS_", scope: !556, file: !557, line: 141, type: !767, scopeLine: 141, flags: DIFlagPublic | DIFlagPrototyped, spFlags: DISPFlagOptimized)
!767 = !DISubroutineType(types: !768)
!768 = !{null, !593, !759}
!769 = !DISubprogram(name: "append", linkageName: "_ZN6String6appendERKS_", scope: !556, file: !557, line: 143, type: !595, scopeLine: 143, flags: DIFlagPublic | DIFlagPrototyped, spFlags: DISPFlagOptimized)
!770 = !DISubprogram(name: "append", linkageName: "_ZN6String6appendEPKc", scope: !556, file: !557, line: 144, type: !604, scopeLine: 144, flags: DIFlagPublic | DIFlagPrototyped, spFlags: DISPFlagOptimized)
!771 = !DISubprogram(name: "append", linkageName: "_ZN6String6appendEPKci", scope: !556, file: !557, line: 145, type: !607, scopeLine: 145, flags: DIFlagPublic | DIFlagPrototyped, spFlags: DISPFlagOptimized)
