; ModuleID = '../elements/standard/randomsample.cc'
source_filename = "../elements/standard/randomsample.cc"
target datalayout = "e-m:e-p270:32:32-p271:32:32-p272:64:64-i64:64-f80:128-n8:16:32:64-S128"
target triple = "x86_64-pc-linux-gnu"

%class.ArgContext = type <{ %class.Element*, %class.ErrorHandler*, i8*, i8, [7 x i8] }>
%class.Element = type <{ i32 (...)**, [2 x %"class.Element::Port"*], [4 x %"class.Element::Port"], [2 x i32], %class.Router*, i32, [4 x i8] }>
%"class.Element::Port" = type <{ %class.Element*, i32, [4 x i8] }>
%class.Router = type opaque
%class.ErrorHandler = type <{ i32 (...)**, i32, [4 x i8] }>
%class.RandomSample = type { %class.Element.base, i32, i8, %class.atomic_uint32_t }
%class.Element.base = type <{ i32 (...)**, [2 x %"class.Element::Port"*], [4 x %"class.Element::Port"], [2 x i32], %class.Router*, i32 }>
%class.atomic_uint32_t = type { i32 }
%class.Vector = type { %class.vector_memory }
%class.vector_memory = type { %class.String*, i32, i32 }
%class.String = type { %"struct.String::rep_t" }
%"struct.String::rep_t" = type { i8*, i32, %"struct.String::memo_t"* }
%"struct.String::memo_t" = type { i32, i32, i32, [8 x i8] }
%class.Args = type { %class.ArgContext.base, i8, i8, i8, %class.Vector*, %class.Vector.0, %"struct.Args::Slot"*, [48 x i8] }
%class.ArgContext.base = type <{ %class.Element*, %class.ErrorHandler*, i8*, i8 }>
%class.Vector.0 = type { %class.vector_memory.1 }
%class.vector_memory.1 = type { %struct.char_array*, i32, i32 }
%struct.char_array = type opaque
%"struct.Args::Slot" = type { i32 (...)**, %"struct.Args::Slot"* }
%class.Packet = type { %class.atomic_uint32_t, %class.Packet*, i8*, i8*, i8*, i8*, %"struct.Packet::AllAnno", void (i8*, i64, i8*)*, i8* }
%"struct.Packet::AllAnno" = type { %"union.Packet::Anno", i8*, i8*, i8*, i32, [8 x i8], %class.Packet*, %class.Packet* }
%"union.Packet::Anno" = type { [6 x i64] }
%class.StringAccum = type { %"struct.StringAccum::rep_t" }
%"struct.StringAccum::rep_t" = type { i8*, i32, i32 }
%class.FixedPointArg = type { i32, i32, i32 }
%class.Task = type opaque
%class.Timer = type opaque

$_ZNK7Element6outputEi = comdat any

$_ZNK7Element4Port4pushEP6Packet = comdat any

$_ZNK7Element19checked_output_pushEiP6Packet = comdat any

$_ZNK7Element5inputEi = comdat any

$_ZN12RandomSampleD0Ev = comdat any

$_ZNK12RandomSample10class_nameEv = comdat any

$_ZNK12RandomSample10port_countEv = comdat any

$_ZNK12RandomSample10processingEv = comdat any

$_ZNK12RandomSample20can_live_reconfigureEv = comdat any

$_ZNK7Element4portEbi = comdat any

$_ZNK7Element8noutputsEv = comdat any

$_ZNK6String6lengthEv = comdat any

$__clang_call_terminate = comdat any

$_Z14args_base_readI13FixedPointArgjEvP4ArgsPKciT_RT0_ = comdat any

$_ZN4Args9base_readI13FixedPointArgjEEvPKciT_RT0_ = comdat any

$_Z14args_base_readIbEvP4ArgsPKciRT_ = comdat any

$_ZN4Args9base_readIbEEvPKciRT_ = comdat any

@_ZTV12RandomSample = dso_local unnamed_addr constant { [29 x i8*] } { [29 x i8*] [i8* null, i8* bitcast ({ i8*, i8*, i8* }* @_ZTI12RandomSample to i8*), i8* bitcast (void (%class.Element*)* @_ZN7ElementD2Ev to i8*), i8* bitcast (void (%class.RandomSample*)* @_ZN12RandomSampleD0Ev to i8*), i8* bitcast (void (%class.RandomSample*, i32, %class.Packet*)* @_ZN12RandomSample4pushEiP6Packet to i8*), i8* bitcast (%class.Packet* (%class.RandomSample*, i32)* @_ZN12RandomSample4pullEi to i8*), i8* bitcast (%class.Packet* (%class.Element*, %class.Packet*)* @_ZN7Element13simple_actionEP6Packet to i8*), i8* bitcast (i1 (%class.Element*, %class.Task*)* @_ZN7Element8run_taskEP4Task to i8*), i8* bitcast (void (%class.Element*, %class.Timer*)* @_ZN7Element9run_timerEP5Timer to i8*), i8* bitcast (void (%class.Element*, i32, i32)* @_ZN7Element8selectedEii to i8*), i8* bitcast (void (%class.Element*, i32)* @_ZN7Element8selectedEi to i8*), i8* bitcast (i8* (%class.RandomSample*)* @_ZNK12RandomSample10class_nameEv to i8*), i8* bitcast (i8* (%class.RandomSample*)* @_ZNK12RandomSample10port_countEv to i8*), i8* bitcast (i8* (%class.RandomSample*)* @_ZNK12RandomSample10processingEv to i8*), i8* bitcast (i8* (%class.Element*)* @_ZNK7Element9flow_codeEv to i8*), i8* bitcast (i8* (%class.Element*)* @_ZNK7Element5flagsEv to i8*), i8* bitcast (i8* (%class.Element*, i8*)* @_ZN7Element4castEPKc to i8*), i8* bitcast (i8* (%class.Element*, i1, i32, i8*)* @_ZN7Element9port_castEbiPKc to i8*), i8* bitcast (i32 (%class.Element*)* @_ZNK7Element15configure_phaseEv to i8*), i8* bitcast (i32 (%class.RandomSample*, %class.Vector*, %class.ErrorHandler*)* @_ZN12RandomSample9configureER6VectorI6StringEP12ErrorHandler to i8*), i8* bitcast (void (%class.RandomSample*)* @_ZN12RandomSample12add_handlersEv to i8*), i8* bitcast (i32 (%class.RandomSample*, %class.ErrorHandler*)* @_ZN12RandomSample10initializeEP12ErrorHandler to i8*), i8* bitcast (void (%class.Element*, %class.Element*, %class.ErrorHandler*)* @_ZN7Element10take_stateEPS_P12ErrorHandler to i8*), i8* bitcast (%class.Element* (%class.Element*)* @_ZNK7Element15hotswap_elementEv to i8*), i8* bitcast (void (%class.Element*, i32)* @_ZN7Element7cleanupENS_12CleanupStageE to i8*), i8* bitcast (void (%class.String*, %class.Element*)* @_ZNK7Element11declarationEv to i8*), i8* bitcast (i1 (%class.RandomSample*)* @_ZNK12RandomSample20can_live_reconfigureEv to i8*), i8* bitcast (i32 (%class.Element*, %class.Vector*, %class.ErrorHandler*)* @_ZN7Element16live_reconfigureER6VectorI6StringEP12ErrorHandler to i8*), i8* bitcast (i32 (%class.Element*, i32, i8*)* @_ZN7Element5llrpcEjPv to i8*)] }, align 8
@.str = private unnamed_addr constant [2 x i8] c"P\00", align 1
@.str.1 = private unnamed_addr constant [7 x i8] c"SAMPLE\00", align 1
@.str.2 = private unnamed_addr constant [5 x i8] c"DROP\00", align 1
@.str.3 = private unnamed_addr constant [7 x i8] c"ACTIVE\00", align 1
@.str.4 = private unnamed_addr constant [36 x i8] c"give at most one of SAMPLE and DROP\00", align 1
@.str.5 = private unnamed_addr constant [45 x i8] c"sampling probability must be between 0 and 1\00", align 1
@.str.6 = private unnamed_addr constant [8 x i8] c"SAMPLE \00", align 1
@.str.7 = private unnamed_addr constant [10 x i8] c", ACTIVE \00", align 1
@.str.8 = private unnamed_addr constant [8 x i8] c"<error>\00", align 1
@blank_args = external global %class.ArgContext, align 8
@.str.9 = private unnamed_addr constant [43 x i8] c"Must be given a number between 0.0 and 1.0\00", align 1
@.str.10 = private unnamed_addr constant [14 x i8] c"sampling_prob\00", align 1
@.str.11 = private unnamed_addr constant [7 x i8] c"active\00", align 1
@.str.12 = private unnamed_addr constant [6 x i8] c"drops\00", align 1
@.str.13 = private unnamed_addr constant [10 x i8] c"drop_prob\00", align 1
@.str.14 = private unnamed_addr constant [7 x i8] c"config\00", align 1
@_ZTVN10__cxxabiv120__si_class_type_infoE = external global i8*
@_ZTS12RandomSample = dso_local constant [15 x i8] c"12RandomSample\00", align 1
@_ZTI7Element = external constant i8*
@_ZTI12RandomSample = dso_local constant { i8*, i8*, i8* } { i8* bitcast (i8** getelementptr inbounds (i8*, i8** @_ZTVN10__cxxabiv120__si_class_type_infoE, i64 2) to i8*), i8* getelementptr inbounds ([15 x i8], [15 x i8]* @_ZTS12RandomSample, i32 0, i32 0), i8* bitcast (i8** @_ZTI7Element to i8*) }, align 8
@.str.15 = private unnamed_addr constant [47 x i8] c"(unsigned) port < (unsigned) _nports[isoutput]\00", align 1
@.str.16 = private unnamed_addr constant [30 x i8] c"../dummy_inc/click/element.hh\00", align 1
@__PRETTY_FUNCTION__._ZNK7Element4portEbi = private unnamed_addr constant [52 x i8] c"const Element::Port &Element::port(bool, int) const\00", align 1
@.str.17 = private unnamed_addr constant [8 x i8] c"_e && p\00", align 1
@__PRETTY_FUNCTION__._ZNK7Element4Port4pushEP6Packet = private unnamed_addr constant [41 x i8] c"void Element::Port::push(Packet *) const\00", align 1
@.str.18 = private unnamed_addr constant [3 x i8] c"_e\00", align 1
@__PRETTY_FUNCTION__._ZNK7Element4Port4pullEv = private unnamed_addr constant [36 x i8] c"Packet *Element::Port::pull() const\00", align 1
@_ZN6String9null_dataE = external constant i8, align 1
@_ZN6String9bool_dataE = external constant [11 x i8], align 1
@.str.19 = private unnamed_addr constant [9 x i8] c"len >= 0\00", align 1
@.str.20 = private unnamed_addr constant [31 x i8] c"../dummy_inc/click/straccum.hh\00", align 1
@__PRETTY_FUNCTION__._ZN11StringAccum6appendEPKci = private unnamed_addr constant [44 x i8] c"void StringAccum::append(const char *, int)\00", align 1
@.str.21 = private unnamed_addr constant [18 x i8] c"_r.memo->refcount\00", align 1
@.str.22 = private unnamed_addr constant [29 x i8] c"../dummy_inc/click/string.hh\00", align 1
@__PRETTY_FUNCTION__._ZNK6String5derefEv = private unnamed_addr constant [27 x i8] c"void String::deref() const\00", align 1
@.str.23 = private unnamed_addr constant [13 x i8] c"RandomSample\00", align 1
@_ZN7Element11PORTS_1_1X2E = external constant [0 x i8], align 1
@_ZN7Element15PROCESSING_A_AHE = external constant [0 x i8], align 1

@_ZN12RandomSampleC1Ev = dso_local unnamed_addr alias void (%class.RandomSample*), void (%class.RandomSample*)* @_ZN12RandomSampleC2Ev

; Function Attrs: sspstrong uwtable
define dso_local void @_ZN12RandomSampleC2Ev(%class.RandomSample* %0) unnamed_addr #0 align 2 !dbg !2683 {
  call void @llvm.dbg.value(metadata %class.RandomSample* %0, metadata !2685, metadata !DIExpression()), !dbg !2686
  %2 = bitcast %class.RandomSample* %0 to %class.Element*, !dbg !2687
  tail call void @_ZN7ElementC2Ev(%class.Element* %2), !dbg !2688
  %3 = getelementptr %class.RandomSample, %class.RandomSample* %0, i64 0, i32 0, i32 0, !dbg !2687
  store i32 (...)** bitcast (i8** getelementptr inbounds ({ [29 x i8*] }, { [29 x i8*] }* @_ZTV12RandomSample, i64 0, inrange i32 0, i64 2) to i32 (...)**), i32 (...)*** %3, align 8, !dbg !2687, !tbaa !2689
  ret void, !dbg !2692
}

; Function Attrs: nounwind readnone speculatable willreturn
declare void @llvm.dbg.declare(metadata, metadata, metadata) #1

declare void @_ZN7ElementC2Ev(%class.Element*) unnamed_addr #2

; Function Attrs: sspstrong uwtable
define dso_local i32 @_ZN12RandomSample9configureER6VectorI6StringEP12ErrorHandler(%class.RandomSample* %0, %class.Vector* dereferenceable(16) %1, %class.ErrorHandler* %2) unnamed_addr #0 align 2 personality i8* bitcast (i32 (...)* @__gxx_personality_v0 to i8*) !dbg !2693 {
  %4 = alloca i32, align 4
  %5 = alloca i32, align 4
  %6 = alloca i8, align 1
  %7 = alloca %class.Args, align 8
  call void @llvm.dbg.value(metadata %class.RandomSample* %0, metadata !2695, metadata !DIExpression()), !dbg !2703
  call void @llvm.dbg.value(metadata %class.Vector* %1, metadata !2696, metadata !DIExpression()), !dbg !2703
  call void @llvm.dbg.value(metadata %class.ErrorHandler* %2, metadata !2697, metadata !DIExpression()), !dbg !2703
  %8 = bitcast i32* %4 to i8*, !dbg !2704
  call void @llvm.lifetime.start.p0i8(i64 4, i8* nonnull %8) #13, !dbg !2704
  call void @llvm.dbg.value(metadata i32 -1, metadata !2698, metadata !DIExpression()), !dbg !2703
  store i32 -1, i32* %4, align 4, !dbg !2705, !tbaa !2706
  %9 = bitcast i32* %5 to i8*, !dbg !2709
  call void @llvm.lifetime.start.p0i8(i64 4, i8* nonnull %9) #13, !dbg !2709
  call void @llvm.dbg.value(metadata i32 -1, metadata !2699, metadata !DIExpression()), !dbg !2703
  store i32 -1, i32* %5, align 4, !dbg !2710, !tbaa !2706
  call void @llvm.lifetime.start.p0i8(i64 1, i8* nonnull %6) #13, !dbg !2711
  call void @llvm.dbg.value(metadata i8 1, metadata !2700, metadata !DIExpression()), !dbg !2703
  store i8 1, i8* %6, align 1, !dbg !2712, !tbaa !2713
  call void @llvm.dbg.value(metadata i8 0, metadata !2701, metadata !DIExpression()), !dbg !2703
  call void @llvm.dbg.value(metadata i8 0, metadata !2702, metadata !DIExpression()), !dbg !2703
  %10 = bitcast %class.Args* %7 to i8*, !dbg !2715
  call void @llvm.lifetime.start.p0i8(i64 112, i8* nonnull %10) #13, !dbg !2715
  %11 = bitcast %class.RandomSample* %0 to %class.Element*, !dbg !2717
  call void @_ZN4ArgsC1ERK6VectorI6StringEPK7ElementP12ErrorHandler(%class.Args* nonnull %7, %class.Vector* nonnull dereferenceable(16) %1, %class.Element* %11, %class.ErrorHandler* %2), !dbg !2715
  call void @llvm.dbg.value(metadata i64 28, metadata !2718, metadata !DIExpression(DW_OP_LLVM_fragment, 0, 64)), !dbg !2727
  call void @llvm.dbg.value(metadata i32 undef, metadata !2718, metadata !DIExpression(DW_OP_LLVM_fragment, 64, 32)), !dbg !2727
  call void @llvm.dbg.value(metadata %class.Args* %7, metadata !2724, metadata !DIExpression()), !dbg !2727
  call void @llvm.dbg.value(metadata i8* getelementptr inbounds ([2 x i8], [2 x i8]* @.str, i64 0, i64 0), metadata !2725, metadata !DIExpression()), !dbg !2727
  call void @llvm.dbg.value(metadata i32* %4, metadata !2726, metadata !DIExpression()), !dbg !2727
  call void @llvm.dbg.value(metadata i64 28, metadata !2729, metadata !DIExpression(DW_OP_LLVM_fragment, 0, 64)), !dbg !2739
  call void @llvm.dbg.value(metadata i32 undef, metadata !2729, metadata !DIExpression(DW_OP_LLVM_fragment, 64, 32)), !dbg !2739
  call void @llvm.dbg.value(metadata %class.Args* %7, metadata !2735, metadata !DIExpression()), !dbg !2739
  call void @llvm.dbg.value(metadata i8* getelementptr inbounds ([2 x i8], [2 x i8]* @.str, i64 0, i64 0), metadata !2736, metadata !DIExpression()), !dbg !2739
  call void @llvm.dbg.value(metadata i32 2, metadata !2737, metadata !DIExpression()), !dbg !2739
  call void @llvm.dbg.value(metadata i32* %4, metadata !2738, metadata !DIExpression()), !dbg !2739
  invoke void @_Z14args_base_readI13FixedPointArgjEvP4ArgsPKciT_RT0_(%class.Args* nonnull %7, i8* getelementptr inbounds ([2 x i8], [2 x i8]* @.str, i64 0, i64 0), i32 2, i64 28, i32 undef, i32* nonnull dereferenceable(4) %4)
          to label %12 unwind label %22, !dbg !2741

12:                                               ; preds = %3
  call void @llvm.dbg.value(metadata i64 28, metadata !2742, metadata !DIExpression(DW_OP_LLVM_fragment, 0, 64)), !dbg !2749
  call void @llvm.dbg.value(metadata i32 undef, metadata !2742, metadata !DIExpression(DW_OP_LLVM_fragment, 64, 32)), !dbg !2749
  call void @llvm.dbg.value(metadata %class.Args* %7, metadata !2746, metadata !DIExpression()), !dbg !2749
  call void @llvm.dbg.value(metadata i8* getelementptr inbounds ([7 x i8], [7 x i8]* @.str.1, i64 0, i64 0), metadata !2747, metadata !DIExpression()), !dbg !2749
  call void @llvm.dbg.value(metadata i32* %4, metadata !2748, metadata !DIExpression()), !dbg !2749
  call void @llvm.dbg.value(metadata i64 28, metadata !2729, metadata !DIExpression(DW_OP_LLVM_fragment, 0, 64)), !dbg !2751
  call void @llvm.dbg.value(metadata i32 undef, metadata !2729, metadata !DIExpression(DW_OP_LLVM_fragment, 64, 32)), !dbg !2751
  call void @llvm.dbg.value(metadata %class.Args* %7, metadata !2735, metadata !DIExpression()), !dbg !2751
  call void @llvm.dbg.value(metadata i8* getelementptr inbounds ([7 x i8], [7 x i8]* @.str.1, i64 0, i64 0), metadata !2736, metadata !DIExpression()), !dbg !2751
  call void @llvm.dbg.value(metadata i32 0, metadata !2737, metadata !DIExpression()), !dbg !2751
  call void @llvm.dbg.value(metadata i32* %4, metadata !2738, metadata !DIExpression()), !dbg !2751
  invoke void @_Z14args_base_readI13FixedPointArgjEvP4ArgsPKciT_RT0_(%class.Args* nonnull %7, i8* getelementptr inbounds ([7 x i8], [7 x i8]* @.str.1, i64 0, i64 0), i32 0, i64 28, i32 undef, i32* nonnull dereferenceable(4) %4)
          to label %13 unwind label %22, !dbg !2753

13:                                               ; preds = %12
  call void @llvm.dbg.value(metadata %class.Args* %7, metadata !2754, metadata !DIExpression()), !dbg !2758
  %14 = getelementptr inbounds %class.Args, %class.Args* %7, i64 0, i32 0, i32 3, !dbg !2760
  %15 = load i8, i8* %14, align 8, !dbg !2760, !tbaa !2761, !range !2764
  call void @llvm.dbg.value(metadata i64 28, metadata !2742, metadata !DIExpression(DW_OP_LLVM_fragment, 0, 64)), !dbg !2765
  call void @llvm.dbg.value(metadata i32 undef, metadata !2742, metadata !DIExpression(DW_OP_LLVM_fragment, 64, 32)), !dbg !2765
  call void @llvm.dbg.value(metadata %class.Args* %7, metadata !2746, metadata !DIExpression()), !dbg !2765
  call void @llvm.dbg.value(metadata i8* getelementptr inbounds ([5 x i8], [5 x i8]* @.str.2, i64 0, i64 0), metadata !2747, metadata !DIExpression()), !dbg !2765
  call void @llvm.dbg.value(metadata i32* %5, metadata !2748, metadata !DIExpression()), !dbg !2765
  call void @llvm.dbg.value(metadata i64 28, metadata !2729, metadata !DIExpression(DW_OP_LLVM_fragment, 0, 64)), !dbg !2767
  call void @llvm.dbg.value(metadata i32 undef, metadata !2729, metadata !DIExpression(DW_OP_LLVM_fragment, 64, 32)), !dbg !2767
  call void @llvm.dbg.value(metadata %class.Args* %7, metadata !2735, metadata !DIExpression()), !dbg !2767
  call void @llvm.dbg.value(metadata i8* getelementptr inbounds ([5 x i8], [5 x i8]* @.str.2, i64 0, i64 0), metadata !2736, metadata !DIExpression()), !dbg !2767
  call void @llvm.dbg.value(metadata i32 0, metadata !2737, metadata !DIExpression()), !dbg !2767
  call void @llvm.dbg.value(metadata i32* %5, metadata !2738, metadata !DIExpression()), !dbg !2767
  invoke void @_Z14args_base_readI13FixedPointArgjEvP4ArgsPKciT_RT0_(%class.Args* nonnull %7, i8* getelementptr inbounds ([5 x i8], [5 x i8]* @.str.2, i64 0, i64 0), i32 0, i64 28, i32 undef, i32* nonnull dereferenceable(4) %5)
          to label %16 unwind label %22, !dbg !2769

16:                                               ; preds = %13
  call void @llvm.dbg.value(metadata %class.Args* %7, metadata !2754, metadata !DIExpression()), !dbg !2770
  %17 = load i8, i8* %14, align 8, !dbg !2772, !tbaa !2761, !range !2764
  call void @llvm.dbg.value(metadata %class.Args* %7, metadata !2773, metadata !DIExpression()), !dbg !2781
  call void @llvm.dbg.value(metadata i8* getelementptr inbounds ([7 x i8], [7 x i8]* @.str.3, i64 0, i64 0), metadata !2779, metadata !DIExpression()), !dbg !2781
  call void @llvm.dbg.value(metadata i8* %6, metadata !2780, metadata !DIExpression()), !dbg !2781
  call void @llvm.dbg.value(metadata %class.Args* %7, metadata !2783, metadata !DIExpression()), !dbg !2792
  call void @llvm.dbg.value(metadata i8* getelementptr inbounds ([7 x i8], [7 x i8]* @.str.3, i64 0, i64 0), metadata !2789, metadata !DIExpression()), !dbg !2792
  call void @llvm.dbg.value(metadata i32 0, metadata !2790, metadata !DIExpression()), !dbg !2792
  call void @llvm.dbg.value(metadata i8* %6, metadata !2791, metadata !DIExpression()), !dbg !2792
  invoke void @_Z14args_base_readIbEvP4ArgsPKciRT_(%class.Args* nonnull %7, i8* getelementptr inbounds ([7 x i8], [7 x i8]* @.str.3, i64 0, i64 0), i32 0, i8* nonnull dereferenceable(1) %6)
          to label %18 unwind label %22, !dbg !2794

18:                                               ; preds = %16
  %19 = invoke i32 @_ZN4Args8completeEv(%class.Args* nonnull %7)
          to label %20 unwind label %22, !dbg !2795

20:                                               ; preds = %18
  %21 = icmp slt i32 %19, 0, !dbg !2796
  call void @_ZN4ArgsD1Ev(%class.Args* nonnull %7) #13, !dbg !2715
  call void @llvm.lifetime.end.p0i8(i64 112, i8* nonnull %10) #13, !dbg !2715
  br i1 %21, label %45, label %24, !dbg !2797

22:                                               ; preds = %12, %13, %3, %16, %18
  %23 = landingpad { i8*, i32 }
          cleanup, !dbg !2798
  call void @_ZN4ArgsD1Ev(%class.Args* nonnull %7) #13, !dbg !2715
  call void @llvm.lifetime.end.p0i8(i64 112, i8* nonnull %10) #13, !dbg !2715
  call void @llvm.lifetime.end.p0i8(i64 1, i8* nonnull %6) #13, !dbg !2799
  call void @llvm.lifetime.end.p0i8(i64 4, i8* nonnull %9) #13, !dbg !2799
  call void @llvm.lifetime.end.p0i8(i64 4, i8* nonnull %8) #13, !dbg !2799
  resume { i8*, i32 } %23, !dbg !2799

24:                                               ; preds = %20
  call void @llvm.dbg.value(metadata i8 %15, metadata !2701, metadata !DIExpression()), !dbg !2703
  %25 = icmp eq i8 %15, 0, !dbg !2800
  %26 = icmp eq i8 %17, 0, !dbg !2802
  %27 = or i1 %25, %26, !dbg !2803
  br i1 %27, label %30, label %28, !dbg !2803

28:                                               ; preds = %24
  %29 = call i32 (%class.ErrorHandler*, i8*, ...) @_ZN12ErrorHandler5errorEPKcz(%class.ErrorHandler* %2, i8* getelementptr inbounds ([36 x i8], [36 x i8]* @.str.4, i64 0, i64 0)), !dbg !2804
  br label %45, !dbg !2805

30:                                               ; preds = %24
  call void @llvm.dbg.value(metadata i8 %17, metadata !2702, metadata !DIExpression()), !dbg !2703
  br i1 %26, label %34, label %31, !dbg !2806

31:                                               ; preds = %30
  %32 = load i32, i32* %5, align 4, !dbg !2807, !tbaa !2706
  call void @llvm.dbg.value(metadata i32 %32, metadata !2699, metadata !DIExpression()), !dbg !2703
  %33 = sub i32 268435456, %32, !dbg !2809
  call void @llvm.dbg.value(metadata i32 %33, metadata !2698, metadata !DIExpression()), !dbg !2703
  store i32 %33, i32* %4, align 4, !dbg !2810, !tbaa !2706
  br label %36, !dbg !2811

34:                                               ; preds = %30
  %35 = load i32, i32* %4, align 4, !dbg !2812, !tbaa !2706
  br label %36, !dbg !2812

36:                                               ; preds = %34, %31
  %37 = phi i32 [ %35, %34 ], [ %33, %31 ], !dbg !2812
  call void @llvm.dbg.value(metadata i32 %37, metadata !2698, metadata !DIExpression()), !dbg !2703
  %38 = icmp ugt i32 %37, 268435456, !dbg !2814
  br i1 %38, label %39, label %41, !dbg !2815

39:                                               ; preds = %36
  %40 = call i32 (%class.ErrorHandler*, i8*, ...) @_ZN12ErrorHandler5errorEPKcz(%class.ErrorHandler* %2, i8* getelementptr inbounds ([45 x i8], [45 x i8]* @.str.5, i64 0, i64 0)), !dbg !2816
  br label %45, !dbg !2817

41:                                               ; preds = %36
  %42 = getelementptr inbounds %class.RandomSample, %class.RandomSample* %0, i64 0, i32 1, !dbg !2818
  store i32 %37, i32* %42, align 4, !dbg !2819, !tbaa !2820
  %43 = load i8, i8* %6, align 1, !dbg !2823, !tbaa !2713, !range !2764
  call void @llvm.dbg.value(metadata i8 %43, metadata !2700, metadata !DIExpression()), !dbg !2703
  %44 = getelementptr inbounds %class.RandomSample, %class.RandomSample* %0, i64 0, i32 2, !dbg !2824
  store i8 %43, i8* %44, align 8, !dbg !2825, !tbaa !2826
  br label %45, !dbg !2827

45:                                               ; preds = %20, %41, %39, %28
  %46 = phi i32 [ %29, %28 ], [ %40, %39 ], [ 0, %41 ], [ -1, %20 ], !dbg !2703
  call void @llvm.lifetime.end.p0i8(i64 1, i8* nonnull %6) #13, !dbg !2799
  call void @llvm.lifetime.end.p0i8(i64 4, i8* nonnull %9) #13, !dbg !2799
  call void @llvm.lifetime.end.p0i8(i64 4, i8* nonnull %8) #13, !dbg !2799
  ret i32 %46, !dbg !2799
}

; Function Attrs: argmemonly nounwind willreturn
declare void @llvm.lifetime.start.p0i8(i64 immarg, i8* nocapture) #3

declare void @_ZN4ArgsC1ERK6VectorI6StringEPK7ElementP12ErrorHandler(%class.Args*, %class.Vector* dereferenceable(16), %class.Element*, %class.ErrorHandler*) unnamed_addr #2

declare i32 @__gxx_personality_v0(...)

; Function Attrs: argmemonly nounwind willreturn
declare void @llvm.memcpy.p0i8.p0i8.i64(i8* noalias nocapture writeonly, i8* noalias nocapture readonly, i64, i1 immarg) #3

declare i32 @_ZN4Args8completeEv(%class.Args*) local_unnamed_addr #2

; Function Attrs: nounwind
declare void @_ZN4ArgsD1Ev(%class.Args*) unnamed_addr #4

; Function Attrs: argmemonly nounwind willreturn
declare void @llvm.lifetime.end.p0i8(i64 immarg, i8* nocapture) #3

declare i32 @_ZN12ErrorHandler5errorEPKcz(%class.ErrorHandler*, i8*, ...) local_unnamed_addr #2

; Function Attrs: nofree norecurse nounwind sspstrong uwtable writeonly
define dso_local i32 @_ZN12RandomSample10initializeEP12ErrorHandler(%class.RandomSample* nocapture %0, %class.ErrorHandler* nocapture readnone %1) unnamed_addr #5 align 2 !dbg !2828 {
  call void @llvm.dbg.value(metadata %class.RandomSample* %0, metadata !2830, metadata !DIExpression()), !dbg !2832
  call void @llvm.dbg.value(metadata %class.ErrorHandler* undef, metadata !2831, metadata !DIExpression()), !dbg !2832
  call void @llvm.dbg.value(metadata %class.RandomSample* %0, metadata !2833, metadata !DIExpression(DW_OP_plus_uconst, 116, DW_OP_stack_value)), !dbg !2838
  call void @llvm.dbg.value(metadata i32 0, metadata !2836, metadata !DIExpression()), !dbg !2838
  %3 = getelementptr inbounds %class.RandomSample, %class.RandomSample* %0, i64 0, i32 3, i32 0, !dbg !2840
  store i32 0, i32* %3, align 4, !dbg !2841, !tbaa !2842
  ret i32 0, !dbg !2843
}

; Function Attrs: sspstrong uwtable
define dso_local void @_ZN12RandomSample4pushEiP6Packet(%class.RandomSample* %0, i32 %1, %class.Packet* %2) unnamed_addr #0 align 2 !dbg !2844 {
  call void @llvm.dbg.value(metadata %class.RandomSample* %0, metadata !2846, metadata !DIExpression()), !dbg !2849
  call void @llvm.dbg.value(metadata i32 undef, metadata !2847, metadata !DIExpression()), !dbg !2849
  call void @llvm.dbg.value(metadata %class.Packet* %2, metadata !2848, metadata !DIExpression()), !dbg !2849
  %4 = getelementptr inbounds %class.RandomSample, %class.RandomSample* %0, i64 0, i32 2, !dbg !2850
  %5 = load i8, i8* %4, align 8, !dbg !2850, !tbaa !2826, !range !2764
  %6 = icmp eq i8 %5, 0, !dbg !2850
  br i1 %6, label %14, label %7, !dbg !2852

7:                                                ; preds = %3
  %8 = tail call i64 @random() #13, !dbg !2853
  %9 = trunc i64 %8 to i32, !dbg !2853
  %10 = and i32 %9, 268435455, !dbg !2858
  %11 = getelementptr inbounds %class.RandomSample, %class.RandomSample* %0, i64 0, i32 1, !dbg !2859
  %12 = load i32, i32* %11, align 4, !dbg !2859, !tbaa !2820
  %13 = icmp ult i32 %10, %12, !dbg !2860
  br i1 %13, label %14, label %17, !dbg !2861

14:                                               ; preds = %3, %7
  %15 = bitcast %class.RandomSample* %0 to %class.Element*, !dbg !2862
  %16 = tail call dereferenceable(16) %"class.Element::Port"* @_ZNK7Element6outputEi(%class.Element* %15, i32 0), !dbg !2862
  tail call void @_ZNK7Element4Port4pushEP6Packet(%"class.Element::Port"* nonnull %16, %class.Packet* %2), !dbg !2863
  br label %22, !dbg !2862

17:                                               ; preds = %7
  %18 = bitcast %class.RandomSample* %0 to %class.Element*, !dbg !2864
  tail call void @_ZNK7Element19checked_output_pushEiP6Packet(%class.Element* %18, i32 1, %class.Packet* %2), !dbg !2864
  call void @llvm.dbg.value(metadata %class.RandomSample* %0, metadata !2866, metadata !DIExpression(DW_OP_plus_uconst, 116, DW_OP_stack_value)), !dbg !2870
  call void @llvm.dbg.value(metadata i32 0, metadata !2869, metadata !DIExpression()), !dbg !2870
  %19 = getelementptr inbounds %class.RandomSample, %class.RandomSample* %0, i64 0, i32 3, i32 0, !dbg !2872
  %20 = load i32, i32* %19, align 4, !dbg !2873, !tbaa !2842
  %21 = add i32 %20, 1, !dbg !2873
  store i32 %21, i32* %19, align 4, !dbg !2873, !tbaa !2842
  br label %22

22:                                               ; preds = %17, %14
  ret void, !dbg !2874
}

; Function Attrs: noinline optnone sspstrong uwtable
define linkonce_odr dso_local dereferenceable(16) %"class.Element::Port"* @_ZNK7Element6outputEi(%class.Element* %0, i32 %1) local_unnamed_addr #6 comdat align 2 !dbg !2875 {
  %3 = alloca %class.Element*, align 8
  %4 = alloca i32, align 4
  store %class.Element* %0, %class.Element** %3, align 8, !tbaa !2915
  call void @llvm.dbg.declare(metadata %class.Element** %3, metadata !2913, metadata !DIExpression()), !dbg !2916
  store i32 %1, i32* %4, align 4, !tbaa !2706
  call void @llvm.dbg.declare(metadata i32* %4, metadata !2914, metadata !DIExpression()), !dbg !2917
  %5 = load %class.Element*, %class.Element** %3, align 8
  %6 = load i32, i32* %4, align 4, !dbg !2918, !tbaa !2706
  %7 = call dereferenceable(16) %"class.Element::Port"* @_ZNK7Element4portEbi(%class.Element* %5, i1 zeroext true, i32 %6), !dbg !2919
  ret %"class.Element::Port"* %7, !dbg !2920
}

; Function Attrs: noinline optnone sspstrong uwtable
define linkonce_odr dso_local void @_ZNK7Element4Port4pushEP6Packet(%"class.Element::Port"* %0, %class.Packet* %1) local_unnamed_addr #6 comdat align 2 !dbg !2921 {
  %3 = alloca %"class.Element::Port"*, align 8
  %4 = alloca %class.Packet*, align 8
  store %"class.Element::Port"* %0, %"class.Element::Port"** %3, align 8, !tbaa !2915
  call void @llvm.dbg.declare(metadata %"class.Element::Port"** %3, metadata !2923, metadata !DIExpression()), !dbg !2926
  store %class.Packet* %1, %class.Packet** %4, align 8, !tbaa !2915
  call void @llvm.dbg.declare(metadata %class.Packet** %4, metadata !2925, metadata !DIExpression()), !dbg !2927
  %5 = load %"class.Element::Port"*, %"class.Element::Port"** %3, align 8
  %6 = getelementptr inbounds %"class.Element::Port", %"class.Element::Port"* %5, i32 0, i32 0, !dbg !2928
  %7 = load %class.Element*, %class.Element** %6, align 8, !dbg !2928, !tbaa !2929
  %8 = icmp ne %class.Element* %7, null, !dbg !2928
  br i1 %8, label %9, label %12, !dbg !2928

9:                                                ; preds = %2
  %10 = load %class.Packet*, %class.Packet** %4, align 8, !dbg !2928, !tbaa !2915
  %11 = icmp ne %class.Packet* %10, null, !dbg !2928
  br label %12

12:                                               ; preds = %9, %2
  %13 = phi i1 [ false, %2 ], [ %11, %9 ], !dbg !2926
  br i1 %13, label %14, label %15, !dbg !2928

14:                                               ; preds = %12
  br label %16, !dbg !2928

15:                                               ; preds = %12
  call void @__assert_fail(i8* getelementptr inbounds ([8 x i8], [8 x i8]* @.str.17, i64 0, i64 0), i8* getelementptr inbounds ([30 x i8], [30 x i8]* @.str.16, i64 0, i64 0), i32 611, i8* getelementptr inbounds ([41 x i8], [41 x i8]* @__PRETTY_FUNCTION__._ZNK7Element4Port4pushEP6Packet, i64 0, i64 0)) #14, !dbg !2928
  unreachable, !dbg !2928

16:                                               ; preds = %14
  %17 = getelementptr inbounds %"class.Element::Port", %"class.Element::Port"* %5, i32 0, i32 0, !dbg !2931
  %18 = load %class.Element*, %class.Element** %17, align 8, !dbg !2931, !tbaa !2929
  %19 = getelementptr inbounds %"class.Element::Port", %"class.Element::Port"* %5, i32 0, i32 1, !dbg !2932
  %20 = load i32, i32* %19, align 8, !dbg !2932, !tbaa !2933
  %21 = load %class.Packet*, %class.Packet** %4, align 8, !dbg !2934, !tbaa !2915
  %22 = bitcast %class.Element* %18 to void (%class.Element*, i32, %class.Packet*)***, !dbg !2935
  %23 = load void (%class.Element*, i32, %class.Packet*)**, void (%class.Element*, i32, %class.Packet*)*** %22, align 8, !dbg !2935, !tbaa !2689
  %24 = getelementptr inbounds void (%class.Element*, i32, %class.Packet*)*, void (%class.Element*, i32, %class.Packet*)** %23, i64 2, !dbg !2935
  %25 = load void (%class.Element*, i32, %class.Packet*)*, void (%class.Element*, i32, %class.Packet*)** %24, align 8, !dbg !2935
  call void %25(%class.Element* %18, i32 %20, %class.Packet* %21), !dbg !2935
  ret void, !dbg !2936
}

; Function Attrs: noinline optnone sspstrong uwtable
define linkonce_odr dso_local void @_ZNK7Element19checked_output_pushEiP6Packet(%class.Element* %0, i32 %1, %class.Packet* %2) local_unnamed_addr #6 comdat align 2 !dbg !2937 {
  %4 = alloca %class.Element*, align 8
  %5 = alloca i32, align 4
  %6 = alloca %class.Packet*, align 8
  store %class.Element* %0, %class.Element** %4, align 8, !tbaa !2915
  call void @llvm.dbg.declare(metadata %class.Element** %4, metadata !2942, metadata !DIExpression()), !dbg !2945
  store i32 %1, i32* %5, align 4, !tbaa !2706
  call void @llvm.dbg.declare(metadata i32* %5, metadata !2943, metadata !DIExpression()), !dbg !2946
  store %class.Packet* %2, %class.Packet** %6, align 8, !tbaa !2915
  call void @llvm.dbg.declare(metadata %class.Packet** %6, metadata !2944, metadata !DIExpression()), !dbg !2947
  %7 = load %class.Element*, %class.Element** %4, align 8
  %8 = load i32, i32* %5, align 4, !dbg !2948, !tbaa !2706
  %9 = call i32 @_ZNK7Element8noutputsEv(%class.Element* %7), !dbg !2950
  %10 = icmp ult i32 %8, %9, !dbg !2951
  br i1 %10, label %11, label %19, !dbg !2952

11:                                               ; preds = %3
  %12 = getelementptr inbounds %class.Element, %class.Element* %7, i32 0, i32 1, !dbg !2953
  %13 = getelementptr inbounds [2 x %"class.Element::Port"*], [2 x %"class.Element::Port"*]* %12, i64 0, i64 1, !dbg !2953
  %14 = load %"class.Element::Port"*, %"class.Element::Port"** %13, align 8, !dbg !2953, !tbaa !2915
  %15 = load i32, i32* %5, align 4, !dbg !2954, !tbaa !2706
  %16 = sext i32 %15 to i64, !dbg !2953
  %17 = getelementptr inbounds %"class.Element::Port", %"class.Element::Port"* %14, i64 %16, !dbg !2953
  %18 = load %class.Packet*, %class.Packet** %6, align 8, !dbg !2955, !tbaa !2915
  call void @_ZNK7Element4Port4pushEP6Packet(%"class.Element::Port"* %17, %class.Packet* %18), !dbg !2956
  br label %21, !dbg !2953

19:                                               ; preds = %3
  %20 = load %class.Packet*, %class.Packet** %6, align 8, !dbg !2957, !tbaa !2915
  call void @_ZN6Packet4killEv(%class.Packet* %20), !dbg !2958
  br label %21

21:                                               ; preds = %19, %11
  ret void, !dbg !2959
}

; Function Attrs: sspstrong uwtable
define dso_local %class.Packet* @_ZN12RandomSample4pullEi(%class.RandomSample* %0, i32 %1) unnamed_addr #0 align 2 !dbg !2960 {
  call void @llvm.dbg.value(metadata %class.RandomSample* %0, metadata !2962, metadata !DIExpression()), !dbg !2965
  call void @llvm.dbg.value(metadata i32 undef, metadata !2963, metadata !DIExpression()), !dbg !2965
  %3 = bitcast %class.RandomSample* %0 to %class.Element*, !dbg !2966
  %4 = tail call dereferenceable(16) %"class.Element::Port"* @_ZNK7Element5inputEi(%class.Element* %3, i32 0), !dbg !2966
  call void @llvm.dbg.value(metadata %"class.Element::Port"* %4, metadata !2967, metadata !DIExpression()), !dbg !2971
  %5 = getelementptr inbounds %"class.Element::Port", %"class.Element::Port"* %4, i64 0, i32 0, !dbg !2973
  %6 = load %class.Element*, %class.Element** %5, align 8, !dbg !2973, !tbaa !2929
  %7 = icmp eq %class.Element* %6, null, !dbg !2973
  br i1 %7, label %8, label %9, !dbg !2973

8:                                                ; preds = %2
  tail call void @__assert_fail(i8* getelementptr inbounds ([3 x i8], [3 x i8]* @.str.18, i64 0, i64 0), i8* getelementptr inbounds ([30 x i8], [30 x i8]* @.str.16, i64 0, i64 0), i32 657, i8* getelementptr inbounds ([36 x i8], [36 x i8]* @__PRETTY_FUNCTION__._ZNK7Element4Port4pullEv, i64 0, i64 0)) #14, !dbg !2973
  unreachable, !dbg !2973

9:                                                ; preds = %2
  %10 = getelementptr inbounds %"class.Element::Port", %"class.Element::Port"* %4, i64 0, i32 1, !dbg !2974
  %11 = load i32, i32* %10, align 8, !dbg !2974, !tbaa !2933
  %12 = bitcast %class.Element* %6 to %class.Packet* (%class.Element*, i32)***, !dbg !2975
  %13 = load %class.Packet* (%class.Element*, i32)**, %class.Packet* (%class.Element*, i32)*** %12, align 8, !dbg !2975, !tbaa !2689
  %14 = getelementptr inbounds %class.Packet* (%class.Element*, i32)*, %class.Packet* (%class.Element*, i32)** %13, i64 3, !dbg !2975
  %15 = load %class.Packet* (%class.Element*, i32)*, %class.Packet* (%class.Element*, i32)** %14, align 8, !dbg !2975
  %16 = tail call %class.Packet* %15(%class.Element* nonnull %6, i32 %11), !dbg !2975
  call void @llvm.dbg.value(metadata %class.Packet* %16, metadata !2970, metadata !DIExpression()), !dbg !2971
  call void @llvm.dbg.value(metadata %class.Packet* %16, metadata !2964, metadata !DIExpression()), !dbg !2965
  %17 = icmp eq %class.Packet* %16, null, !dbg !2976
  br i1 %17, label %33, label %18, !dbg !2978

18:                                               ; preds = %9
  %19 = getelementptr inbounds %class.RandomSample, %class.RandomSample* %0, i64 0, i32 2, !dbg !2979
  %20 = load i8, i8* %19, align 8, !dbg !2979, !tbaa !2826, !range !2764
  %21 = icmp eq i8 %20, 0, !dbg !2979
  br i1 %21, label %33, label %22, !dbg !2981

22:                                               ; preds = %18
  %23 = tail call i64 @random() #13, !dbg !2982
  %24 = trunc i64 %23 to i32, !dbg !2982
  %25 = and i32 %24, 268435455, !dbg !2984
  %26 = getelementptr inbounds %class.RandomSample, %class.RandomSample* %0, i64 0, i32 1, !dbg !2985
  %27 = load i32, i32* %26, align 4, !dbg !2985, !tbaa !2820
  %28 = icmp ult i32 %25, %27, !dbg !2986
  br i1 %28, label %33, label %29, !dbg !2987

29:                                               ; preds = %22
  tail call void @_ZNK7Element19checked_output_pushEiP6Packet(%class.Element* nonnull %3, i32 1, %class.Packet* nonnull %16), !dbg !2988
  call void @llvm.dbg.value(metadata %class.RandomSample* %0, metadata !2866, metadata !DIExpression(DW_OP_plus_uconst, 116, DW_OP_stack_value)), !dbg !2990
  call void @llvm.dbg.value(metadata i32 0, metadata !2869, metadata !DIExpression()), !dbg !2990
  %30 = getelementptr inbounds %class.RandomSample, %class.RandomSample* %0, i64 0, i32 3, i32 0, !dbg !2992
  %31 = load i32, i32* %30, align 4, !dbg !2993, !tbaa !2842
  %32 = add i32 %31, 1, !dbg !2993
  store i32 %32, i32* %30, align 4, !dbg !2993, !tbaa !2842
  br label %33, !dbg !2994

33:                                               ; preds = %22, %18, %9, %29
  %34 = phi %class.Packet* [ null, %29 ], [ null, %9 ], [ %16, %18 ], [ %16, %22 ], !dbg !2995
  ret %class.Packet* %34, !dbg !2996
}

; Function Attrs: noinline nounwind optnone sspstrong uwtable
define linkonce_odr dso_local dereferenceable(16) %"class.Element::Port"* @_ZNK7Element5inputEi(%class.Element* %0, i32 %1) local_unnamed_addr #7 comdat align 2 !dbg !2997 {
  %3 = alloca %class.Element*, align 8
  %4 = alloca i32, align 4
  store %class.Element* %0, %class.Element** %3, align 8, !tbaa !2915
  call void @llvm.dbg.declare(metadata %class.Element** %3, metadata !3000, metadata !DIExpression()), !dbg !3002
  store i32 %1, i32* %4, align 4, !tbaa !2706
  call void @llvm.dbg.declare(metadata i32* %4, metadata !3001, metadata !DIExpression()), !dbg !3003
  %5 = load %class.Element*, %class.Element** %3, align 8
  %6 = load i32, i32* %4, align 4, !dbg !3004, !tbaa !2706
  %7 = call dereferenceable(16) %"class.Element::Port"* @_ZNK7Element4portEbi(%class.Element* %5, i1 zeroext false, i32 %6), !dbg !3005
  ret %"class.Element::Port"* %7, !dbg !3006
}

; Function Attrs: sspstrong uwtable
define dso_local void @_ZN12RandomSample12read_handlerEP7ElementPv(%class.String* noalias sret %0, %class.Element* nocapture readonly %1, i8* %2) #0 align 2 personality i8* bitcast (i32 (...)* @__gxx_personality_v0 to i8*) !dbg !3007 {
  %4 = alloca %class.StringAccum, align 8
  %5 = alloca %class.String, align 8
  call void @llvm.dbg.value(metadata %class.Element* %1, metadata !3009, metadata !DIExpression()), !dbg !3015
  call void @llvm.dbg.value(metadata i8* %2, metadata !3010, metadata !DIExpression()), !dbg !3015
  call void @llvm.dbg.value(metadata %class.Element* %1, metadata !3011, metadata !DIExpression()), !dbg !3015
  %6 = ptrtoint i8* %2 to i64, !dbg !3016
  switch i64 %6, label %151 [
    i64 0, label %7
    i64 1, label %11
    i64 2, label %16
  ], !dbg !3017

7:                                                ; preds = %3
  call void @llvm.dbg.value(metadata %class.Element* %1, metadata !3011, metadata !DIExpression()), !dbg !3015
  %8 = getelementptr inbounds %class.Element, %class.Element* %1, i64 0, i32 6, !dbg !3018
  %9 = bitcast [4 x i8]* %8 to i32*, !dbg !3018
  %10 = load i32, i32* %9, align 4, !dbg !3018, !tbaa !2820
  tail call void @_Z16cp_unparse_real2ji(%class.String* sret %0, i32 %10, i32 28), !dbg !3019
  br label %155, !dbg !3020

11:                                               ; preds = %3
  %12 = getelementptr inbounds %class.Element, %class.Element* %1, i64 0, i32 6, !dbg !3021
  %13 = bitcast [4 x i8]* %12 to i32*, !dbg !3021
  %14 = load i32, i32* %13, align 4, !dbg !3021, !tbaa !2820
  %15 = sub i32 268435456, %14, !dbg !3022
  tail call void @_Z16cp_unparse_real2ji(%class.String* sret %0, i32 %15, i32 28), !dbg !3023
  br label %155, !dbg !3024

16:                                               ; preds = %3
  %17 = bitcast %class.StringAccum* %4 to i8*, !dbg !3025
  call void @llvm.lifetime.start.p0i8(i64 16, i8* nonnull %17) #13, !dbg !3025
  call void @llvm.dbg.declare(metadata %class.StringAccum* %4, metadata !3012, metadata !DIExpression()), !dbg !3026
  call void @llvm.dbg.value(metadata %class.StringAccum* %4, metadata !3027, metadata !DIExpression()), !dbg !3031
  call void @llvm.dbg.value(metadata %class.StringAccum* %4, metadata !3033, metadata !DIExpression()), !dbg !3037
  %18 = getelementptr inbounds %class.StringAccum, %class.StringAccum* %4, i64 0, i32 0, i32 0, !dbg !3039
  store i8* @_ZN6String9null_dataE, i8** %18, align 8, !dbg !3039, !tbaa !3040
  %19 = getelementptr inbounds %class.StringAccum, %class.StringAccum* %4, i64 0, i32 0, i32 1, !dbg !3042
  store i32 0, i32* %19, align 8, !dbg !3042, !tbaa !3043
  %20 = getelementptr inbounds %class.StringAccum, %class.StringAccum* %4, i64 0, i32 0, i32 2, !dbg !3044
  store i32 0, i32* %20, align 4, !dbg !3044, !tbaa !3045
  call void @llvm.dbg.value(metadata %class.StringAccum* %4, metadata !3046, metadata !DIExpression()), !dbg !3052
  call void @llvm.dbg.value(metadata i8* getelementptr inbounds ([8 x i8], [8 x i8]* @.str.6, i64 0, i64 0), metadata !3051, metadata !DIExpression()), !dbg !3052
  call void @llvm.dbg.value(metadata %class.StringAccum* %4, metadata !3054, metadata !DIExpression()), !dbg !3058
  call void @llvm.dbg.value(metadata i8* getelementptr inbounds ([8 x i8], [8 x i8]* @.str.6, i64 0, i64 0), metadata !3057, metadata !DIExpression()), !dbg !3058
  call void @llvm.dbg.value(metadata %class.StringAccum* %4, metadata !3060, metadata !DIExpression()), !dbg !3065
  call void @llvm.dbg.value(metadata i8* getelementptr inbounds ([8 x i8], [8 x i8]* @.str.6, i64 0, i64 0), metadata !3063, metadata !DIExpression()), !dbg !3065
  call void @llvm.dbg.value(metadata i32 7, metadata !3064, metadata !DIExpression()), !dbg !3065
  invoke void @_ZN11StringAccum11hard_appendEPKci(%class.StringAccum* nonnull %4, i8* nonnull getelementptr inbounds ([8 x i8], [8 x i8]* @.str.6, i64 0, i64 0), i32 7)
          to label %21 unwind label %108, !dbg !3068

21:                                               ; preds = %16
  %22 = bitcast %class.String* %5 to i8*, !dbg !3070
  call void @llvm.lifetime.start.p0i8(i64 24, i8* nonnull %22) #13, !dbg !3070
  %23 = getelementptr inbounds %class.Element, %class.Element* %1, i64 0, i32 6, !dbg !3071
  %24 = bitcast [4 x i8]* %23 to i32*, !dbg !3071
  %25 = load i32, i32* %24, align 4, !dbg !3071, !tbaa !2820
  invoke void @_Z16cp_unparse_real2ji(%class.String* nonnull sret %5, i32 %25, i32 28)
          to label %26 unwind label %112, !dbg !3070

26:                                               ; preds = %21
  call void @llvm.dbg.value(metadata %class.StringAccum* %4, metadata !3072, metadata !DIExpression()), !dbg !3078
  call void @llvm.dbg.value(metadata %class.String* %5, metadata !3077, metadata !DIExpression()), !dbg !3078
  call void @llvm.dbg.value(metadata %class.String* %5, metadata !3080, metadata !DIExpression()), !dbg !3083
  %27 = getelementptr inbounds %class.String, %class.String* %5, i64 0, i32 0, i32 0, !dbg !3085
  %28 = load i8*, i8** %27, align 8, !dbg !3085, !tbaa !3086
  call void @llvm.dbg.value(metadata %class.String* %5, metadata !3089, metadata !DIExpression()), !dbg !3092
  %29 = getelementptr inbounds %class.String, %class.String* %5, i64 0, i32 0, i32 1, !dbg !3094
  %30 = load i32, i32* %29, align 8, !dbg !3094, !tbaa !3095
  call void @llvm.dbg.value(metadata %class.StringAccum* %4, metadata !3060, metadata !DIExpression()), !dbg !3096
  call void @llvm.dbg.value(metadata i8* %28, metadata !3063, metadata !DIExpression()), !dbg !3096
  call void @llvm.dbg.value(metadata i32 %30, metadata !3064, metadata !DIExpression()), !dbg !3096
  %31 = icmp sgt i32 %30, -1, !dbg !3098
  br i1 %31, label %33, label %32, !dbg !3098

32:                                               ; preds = %26
  call void @__assert_fail(i8* getelementptr inbounds ([9 x i8], [9 x i8]* @.str.19, i64 0, i64 0), i8* getelementptr inbounds ([31 x i8], [31 x i8]* @.str.20, i64 0, i64 0), i32 433, i8* getelementptr inbounds ([44 x i8], [44 x i8]* @__PRETTY_FUNCTION__._ZN11StringAccum6appendEPKci, i64 0, i64 0)) #14, !dbg !3098
  unreachable, !dbg !3098

33:                                               ; preds = %26
  %34 = load i32, i32* %19, align 8, !dbg !3099, !tbaa !3100
  %35 = add nsw i32 %34, %30, !dbg !3102
  %36 = load i32, i32* %20, align 4, !dbg !3103, !tbaa !3104
  %37 = icmp sgt i32 %35, %36, !dbg !3105
  br i1 %37, label %45, label %38, !dbg !3106

38:                                               ; preds = %33
  %39 = load i8*, i8** %18, align 8, !dbg !3107, !tbaa !3109
  %40 = sext i32 %34 to i64, !dbg !3110
  %41 = getelementptr inbounds i8, i8* %39, i64 %40, !dbg !3110
  %42 = zext i32 %30 to i64, !dbg !3111
  call void @llvm.memcpy.p0i8.p0i8.i64(i8* align 1 %41, i8* align 1 %28, i64 %42, i1 false), !dbg !3112
  %43 = load i32, i32* %19, align 8, !dbg !3113, !tbaa !3100
  %44 = add nsw i32 %43, %30, !dbg !3113
  store i32 %44, i32* %19, align 8, !dbg !3113, !tbaa !3100
  br label %48, !dbg !3114

45:                                               ; preds = %33
  invoke void @_ZN11StringAccum11hard_appendEPKci(%class.StringAccum* nonnull %4, i8* %28, i32 %30)
          to label %46 unwind label %116, !dbg !3115

46:                                               ; preds = %45
  %47 = load i32, i32* %19, align 8, !dbg !3116, !tbaa !3100
  br label %48, !dbg !3115

48:                                               ; preds = %46, %38
  %49 = phi i32 [ %47, %46 ], [ %44, %38 ], !dbg !3116
  call void @llvm.dbg.value(metadata %class.StringAccum* %4, metadata !3046, metadata !DIExpression()), !dbg !3120
  call void @llvm.dbg.value(metadata i8* getelementptr inbounds ([10 x i8], [10 x i8]* @.str.7, i64 0, i64 0), metadata !3051, metadata !DIExpression()), !dbg !3120
  call void @llvm.dbg.value(metadata %class.StringAccum* %4, metadata !3054, metadata !DIExpression()), !dbg !3121
  call void @llvm.dbg.value(metadata i8* getelementptr inbounds ([10 x i8], [10 x i8]* @.str.7, i64 0, i64 0), metadata !3057, metadata !DIExpression()), !dbg !3121
  call void @llvm.dbg.value(metadata %class.StringAccum* %4, metadata !3060, metadata !DIExpression()), !dbg !3122
  call void @llvm.dbg.value(metadata i8* getelementptr inbounds ([10 x i8], [10 x i8]* @.str.7, i64 0, i64 0), metadata !3063, metadata !DIExpression()), !dbg !3122
  call void @llvm.dbg.value(metadata i32 9, metadata !3064, metadata !DIExpression()), !dbg !3122
  %50 = add nsw i32 %49, 9, !dbg !3123
  %51 = load i32, i32* %20, align 4, !dbg !3124, !tbaa !3104
  %52 = icmp sgt i32 %50, %51, !dbg !3125
  br i1 %52, label %59, label %53, !dbg !3126

53:                                               ; preds = %48
  %54 = load i8*, i8** %18, align 8, !dbg !3127, !tbaa !3109
  %55 = sext i32 %49 to i64, !dbg !3128
  %56 = getelementptr inbounds i8, i8* %54, i64 %55, !dbg !3128
  call void @llvm.memcpy.p0i8.p0i8.i64(i8* nonnull align 1 dereferenceable(9) %56, i8* nonnull align 1 dereferenceable(9) getelementptr inbounds ([10 x i8], [10 x i8]* @.str.7, i64 0, i64 0), i64 9, i1 false), !dbg !3129
  %57 = load i32, i32* %19, align 8, !dbg !3130, !tbaa !3100
  %58 = add nsw i32 %57, 9, !dbg !3130
  store i32 %58, i32* %19, align 8, !dbg !3130, !tbaa !3100
  br label %62, !dbg !3131

59:                                               ; preds = %48
  invoke void @_ZN11StringAccum11hard_appendEPKci(%class.StringAccum* nonnull %4, i8* nonnull getelementptr inbounds ([10 x i8], [10 x i8]* @.str.7, i64 0, i64 0), i32 9)
          to label %60 unwind label %116, !dbg !3132

60:                                               ; preds = %59
  %61 = load i32, i32* %19, align 8, !dbg !3133, !tbaa !3100
  br label %62, !dbg !3132

62:                                               ; preds = %60, %53
  %63 = phi i32 [ %61, %60 ], [ %58, %53 ], !dbg !3133
  %64 = getelementptr inbounds %class.Element, %class.Element* %1, i64 1, !dbg !3142
  %65 = bitcast %class.Element* %64 to i8*, !dbg !3142
  %66 = load i8, i8* %65, align 8, !dbg !3142, !tbaa !2826, !range !2764
  %67 = icmp ne i8 %66, 0, !dbg !3142
  call void @llvm.dbg.value(metadata %class.StringAccum* %4, metadata !3139, metadata !DIExpression()), !dbg !3143
  call void @llvm.dbg.value(metadata i1 %67, metadata !3140, metadata !DIExpression()), !dbg !3143
  %68 = select i1 %67, i64 6, i64 0, !dbg !3144
  %69 = getelementptr inbounds [11 x i8], [11 x i8]* @_ZN6String9bool_dataE, i64 0, i64 %68, !dbg !3144
  %70 = select i1 %67, i32 4, i32 5, !dbg !3145
  call void @llvm.dbg.value(metadata %class.StringAccum* %4, metadata !3060, metadata !DIExpression()), !dbg !3146
  call void @llvm.dbg.value(metadata i8* %69, metadata !3063, metadata !DIExpression()), !dbg !3146
  call void @llvm.dbg.value(metadata i32 %70, metadata !3064, metadata !DIExpression()), !dbg !3146
  %71 = add nsw i32 %70, %63, !dbg !3147
  %72 = load i32, i32* %20, align 4, !dbg !3148, !tbaa !3104
  %73 = icmp sgt i32 %71, %72, !dbg !3149
  br i1 %73, label %81, label %74, !dbg !3150

74:                                               ; preds = %62
  %75 = load i8*, i8** %18, align 8, !dbg !3151, !tbaa !3109
  %76 = sext i32 %63 to i64, !dbg !3152
  %77 = getelementptr inbounds i8, i8* %75, i64 %76, !dbg !3152
  %78 = zext i32 %70 to i64, !dbg !3153
  call void @llvm.memcpy.p0i8.p0i8.i64(i8* nonnull align 1 dereferenceable(1) %77, i8* nonnull align 1 %69, i64 %78, i1 false), !dbg !3154
  %79 = load i32, i32* %19, align 8, !dbg !3155, !tbaa !3100
  %80 = add nsw i32 %79, %70, !dbg !3155
  store i32 %80, i32* %19, align 8, !dbg !3155, !tbaa !3100
  br label %82, !dbg !3156

81:                                               ; preds = %62
  invoke void @_ZN11StringAccum11hard_appendEPKci(%class.StringAccum* nonnull %4, i8* nonnull %69, i32 %70)
          to label %82 unwind label %116, !dbg !3157

82:                                               ; preds = %74, %81
  call void @llvm.dbg.value(metadata %class.String* %5, metadata !3158, metadata !DIExpression()) #13, !dbg !3161
  call void @llvm.dbg.value(metadata %class.String* %5, metadata !3163, metadata !DIExpression()) #13, !dbg !3166
  %83 = getelementptr inbounds %class.String, %class.String* %5, i64 0, i32 0, i32 2, !dbg !3169
  %84 = load %"struct.String::memo_t"*, %"struct.String::memo_t"** %83, align 8, !dbg !3169, !tbaa !3171
  %85 = icmp eq %"struct.String::memo_t"* %84, null, !dbg !3172
  br i1 %85, label %100, label %86, !dbg !3173

86:                                               ; preds = %82
  %87 = getelementptr inbounds %"struct.String::memo_t", %"struct.String::memo_t"* %84, i64 0, i32 0, !dbg !3174
  %88 = load volatile i32, i32* %87, align 4, !dbg !3174, !tbaa !3176
  %89 = icmp eq i32 %88, 0, !dbg !3174
  br i1 %89, label %90, label %91, !dbg !3174

90:                                               ; preds = %86
  call void @__assert_fail(i8* getelementptr inbounds ([18 x i8], [18 x i8]* @.str.21, i64 0, i64 0), i8* getelementptr inbounds ([29 x i8], [29 x i8]* @.str.22, i64 0, i64 0), i32 273, i8* getelementptr inbounds ([27 x i8], [27 x i8]* @__PRETTY_FUNCTION__._ZNK6String5derefEv, i64 0, i64 0)) #14, !dbg !3174
  unreachable, !dbg !3174

91:                                               ; preds = %86
  call void @llvm.dbg.value(metadata i32* %87, metadata !3178, metadata !DIExpression()) #13, !dbg !3181
  %92 = load volatile i32, i32* %87, align 4, !dbg !3184, !tbaa !2706
  %93 = add i32 %92, -1, !dbg !3184
  store volatile i32 %93, i32* %87, align 4, !dbg !3184, !tbaa !2706
  %94 = icmp eq i32 %93, 0, !dbg !3185
  br i1 %94, label %95, label %96, !dbg !3186

95:                                               ; preds = %91
  invoke void @_ZN6String11delete_memoEPNS_6memo_tE(%"struct.String::memo_t"* nonnull %84)
          to label %96 unwind label %97, !dbg !3187

96:                                               ; preds = %95, %91
  store %"struct.String::memo_t"* null, %"struct.String::memo_t"** %83, align 8, !dbg !3188, !tbaa !3171
  br label %100, !dbg !3189

97:                                               ; preds = %95
  %98 = landingpad { i8*, i32 }
          catch i8* null, !dbg !3190
  %99 = extractvalue { i8*, i32 } %98, 0, !dbg !3190
  call void @__clang_call_terminate(i8* %99) #14, !dbg !3190
  unreachable, !dbg !3190

100:                                              ; preds = %82, %96
  call void @llvm.lifetime.end.p0i8(i64 24, i8* nonnull %22) #13, !dbg !3191
  invoke void @_ZN11StringAccum11take_stringEv(%class.String* sret %0, %class.StringAccum* nonnull %4)
          to label %101 unwind label %108, !dbg !3192

101:                                              ; preds = %100
  call void @llvm.dbg.value(metadata %class.StringAccum* %4, metadata !3193, metadata !DIExpression()) #13, !dbg !3196
  %102 = load i32, i32* %20, align 4, !dbg !3198, !tbaa !3104
  %103 = icmp sgt i32 %102, 0, !dbg !3201
  br i1 %103, label %104, label %107, !dbg !3202

104:                                              ; preds = %101
  %105 = load i8*, i8** %18, align 8, !dbg !3203, !tbaa !3109
  %106 = getelementptr inbounds i8, i8* %105, i64 -12, !dbg !3203
  call void @_ZdaPv(i8* nonnull %106) #15, !dbg !3203
  br label %107, !dbg !3203

107:                                              ; preds = %101, %104
  call void @llvm.lifetime.end.p0i8(i64 16, i8* nonnull %17) #13, !dbg !3204
  br label %155

108:                                              ; preds = %16, %100
  %109 = landingpad { i8*, i32 }
          cleanup, !dbg !3205
  %110 = extractvalue { i8*, i32 } %109, 0, !dbg !3205
  %111 = extractvalue { i8*, i32 } %109, 1, !dbg !3205
  br label %140, !dbg !3205

112:                                              ; preds = %21
  %113 = landingpad { i8*, i32 }
          cleanup, !dbg !3205
  %114 = extractvalue { i8*, i32 } %113, 0, !dbg !3205
  %115 = extractvalue { i8*, i32 } %113, 1, !dbg !3205
  br label %137, !dbg !3205

116:                                              ; preds = %81, %59, %45
  %117 = landingpad { i8*, i32 }
          cleanup, !dbg !3205
  %118 = extractvalue { i8*, i32 } %117, 0, !dbg !3205
  %119 = extractvalue { i8*, i32 } %117, 1, !dbg !3205
  call void @llvm.dbg.value(metadata %class.String* %5, metadata !3158, metadata !DIExpression()) #13, !dbg !3206
  call void @llvm.dbg.value(metadata %class.String* %5, metadata !3163, metadata !DIExpression()) #13, !dbg !3208
  %120 = getelementptr inbounds %class.String, %class.String* %5, i64 0, i32 0, i32 2, !dbg !3210
  %121 = load %"struct.String::memo_t"*, %"struct.String::memo_t"** %120, align 8, !dbg !3210, !tbaa !3171
  %122 = icmp eq %"struct.String::memo_t"* %121, null, !dbg !3211
  br i1 %122, label %137, label %123, !dbg !3212

123:                                              ; preds = %116
  %124 = getelementptr inbounds %"struct.String::memo_t", %"struct.String::memo_t"* %121, i64 0, i32 0, !dbg !3213
  %125 = load volatile i32, i32* %124, align 4, !dbg !3213, !tbaa !3176
  %126 = icmp eq i32 %125, 0, !dbg !3213
  br i1 %126, label %127, label %128, !dbg !3213

127:                                              ; preds = %123
  call void @__assert_fail(i8* getelementptr inbounds ([18 x i8], [18 x i8]* @.str.21, i64 0, i64 0), i8* getelementptr inbounds ([29 x i8], [29 x i8]* @.str.22, i64 0, i64 0), i32 273, i8* getelementptr inbounds ([27 x i8], [27 x i8]* @__PRETTY_FUNCTION__._ZNK6String5derefEv, i64 0, i64 0)) #14, !dbg !3213
  unreachable, !dbg !3213

128:                                              ; preds = %123
  call void @llvm.dbg.value(metadata i32* %124, metadata !3178, metadata !DIExpression()) #13, !dbg !3214
  %129 = load volatile i32, i32* %124, align 4, !dbg !3216, !tbaa !2706
  %130 = add i32 %129, -1, !dbg !3216
  store volatile i32 %130, i32* %124, align 4, !dbg !3216, !tbaa !2706
  %131 = icmp eq i32 %130, 0, !dbg !3217
  br i1 %131, label %132, label %133, !dbg !3218

132:                                              ; preds = %128
  invoke void @_ZN6String11delete_memoEPNS_6memo_tE(%"struct.String::memo_t"* nonnull %121)
          to label %133 unwind label %134, !dbg !3219

133:                                              ; preds = %132, %128
  store %"struct.String::memo_t"* null, %"struct.String::memo_t"** %120, align 8, !dbg !3220, !tbaa !3171
  br label %137, !dbg !3221

134:                                              ; preds = %132
  %135 = landingpad { i8*, i32 }
          catch i8* null, !dbg !3222
  %136 = extractvalue { i8*, i32 } %135, 0, !dbg !3222
  call void @__clang_call_terminate(i8* %136) #14, !dbg !3222
  unreachable, !dbg !3222

137:                                              ; preds = %133, %116, %112
  %138 = phi i8* [ %114, %112 ], [ %118, %116 ], [ %118, %133 ], !dbg !3205
  %139 = phi i32 [ %115, %112 ], [ %119, %116 ], [ %119, %133 ], !dbg !3205
  call void @llvm.lifetime.end.p0i8(i64 24, i8* nonnull %22) #13, !dbg !3191
  br label %140, !dbg !3191

140:                                              ; preds = %137, %108
  %141 = phi i8* [ %110, %108 ], [ %138, %137 ], !dbg !3205
  %142 = phi i32 [ %111, %108 ], [ %139, %137 ], !dbg !3205
  call void @llvm.dbg.value(metadata %class.StringAccum* %4, metadata !3193, metadata !DIExpression()) #13, !dbg !3223
  %143 = load i32, i32* %20, align 4, !dbg !3225, !tbaa !3104
  %144 = icmp sgt i32 %143, 0, !dbg !3226
  br i1 %144, label %145, label %148, !dbg !3227

145:                                              ; preds = %140
  %146 = load i8*, i8** %18, align 8, !dbg !3228, !tbaa !3109
  %147 = getelementptr inbounds i8, i8* %146, i64 -12, !dbg !3228
  call void @_ZdaPv(i8* nonnull %147) #15, !dbg !3228
  br label %148, !dbg !3228

148:                                              ; preds = %140, %145
  call void @llvm.lifetime.end.p0i8(i64 16, i8* nonnull %17) #13, !dbg !3204
  %149 = insertvalue { i8*, i32 } undef, i8* %141, 0, !dbg !3229
  %150 = insertvalue { i8*, i32 } %149, i32 %142, 1, !dbg !3229
  resume { i8*, i32 } %150, !dbg !3229

151:                                              ; preds = %3
  call void @llvm.dbg.value(metadata %class.String* %0, metadata !3230, metadata !DIExpression()), !dbg !3234
  call void @llvm.dbg.value(metadata i8* getelementptr inbounds ([8 x i8], [8 x i8]* @.str.8, i64 0, i64 0), metadata !3233, metadata !DIExpression()), !dbg !3234
  call void @llvm.dbg.value(metadata %class.String* %0, metadata !3236, metadata !DIExpression()), !dbg !3242
  call void @llvm.dbg.value(metadata i8* getelementptr inbounds ([8 x i8], [8 x i8]* @.str.8, i64 0, i64 0), metadata !3239, metadata !DIExpression()), !dbg !3242
  call void @llvm.dbg.value(metadata i32 7, metadata !3240, metadata !DIExpression()), !dbg !3242
  call void @llvm.dbg.value(metadata %"struct.String::memo_t"* null, metadata !3241, metadata !DIExpression()), !dbg !3242
  %152 = getelementptr inbounds %class.String, %class.String* %0, i64 0, i32 0, i32 0, !dbg !3246
  store i8* getelementptr inbounds ([8 x i8], [8 x i8]* @.str.8, i64 0, i64 0), i8** %152, align 8, !dbg !3247, !tbaa !3086
  %153 = getelementptr inbounds %class.String, %class.String* %0, i64 0, i32 0, i32 1, !dbg !3248
  store i32 7, i32* %153, align 8, !dbg !3249, !tbaa !3095
  %154 = getelementptr inbounds %class.String, %class.String* %0, i64 0, i32 0, i32 2, !dbg !3250
  store %"struct.String::memo_t"* null, %"struct.String::memo_t"** %154, align 8, !dbg !3252, !tbaa !3171
  br label %155, !dbg !3253

155:                                              ; preds = %151, %107, %11, %7
  ret void, !dbg !3229
}

declare !dbg !1740 void @_Z16cp_unparse_real2ji(%class.String* sret, i32, i32) local_unnamed_addr #2

declare void @_ZN11StringAccum11take_stringEv(%class.String* sret, %class.StringAccum*) local_unnamed_addr #2

; Function Attrs: sspstrong uwtable
define dso_local i32 @_ZN12RandomSample13write_handlerERK6StringP7ElementPvP12ErrorHandler(%class.String* dereferenceable(24) %0, %class.Element* nocapture %1, i8* readnone %2, %class.ErrorHandler* %3) #0 align 2 personality i8* bitcast (i32 (...)* @__gxx_personality_v0 to i8*) !dbg !3254 {
  %5 = alloca i32, align 4
  %6 = alloca %class.FixedPointArg, align 4
  %7 = alloca %class.String, align 8
  call void @llvm.dbg.value(metadata %class.String* %0, metadata !3256, metadata !DIExpression()), !dbg !3262
  call void @llvm.dbg.value(metadata %class.Element* %1, metadata !3257, metadata !DIExpression()), !dbg !3262
  call void @llvm.dbg.value(metadata i8* %2, metadata !3258, metadata !DIExpression()), !dbg !3262
  call void @llvm.dbg.value(metadata %class.ErrorHandler* %3, metadata !3259, metadata !DIExpression()), !dbg !3262
  call void @llvm.dbg.value(metadata %class.Element* %1, metadata !3260, metadata !DIExpression()), !dbg !3262
  %8 = bitcast i32* %5 to i8*, !dbg !3263
  call void @llvm.lifetime.start.p0i8(i64 4, i8* nonnull %8) #13, !dbg !3263
  %9 = bitcast %class.FixedPointArg* %6 to i8*, !dbg !3264
  call void @llvm.lifetime.start.p0i8(i64 12, i8* nonnull %9) #13, !dbg !3264
  call void @llvm.dbg.value(metadata %class.FixedPointArg* %6, metadata !3266, metadata !DIExpression()), !dbg !3272
  call void @llvm.dbg.value(metadata i32 28, metadata !3269, metadata !DIExpression()), !dbg !3272
  call void @llvm.dbg.value(metadata i32 0, metadata !3270, metadata !DIExpression()), !dbg !3272
  %10 = getelementptr inbounds %class.FixedPointArg, %class.FixedPointArg* %6, i64 0, i32 0, !dbg !3274
  store i32 28, i32* %10, align 4, !dbg !3274, !tbaa !3275
  %11 = getelementptr inbounds %class.FixedPointArg, %class.FixedPointArg* %6, i64 0, i32 1, !dbg !3277
  store i32 0, i32* %11, align 4, !dbg !3277, !tbaa !3278
  %12 = bitcast %class.String* %7 to i8*, !dbg !3279
  call void @llvm.lifetime.start.p0i8(i64 24, i8* nonnull %12) #13, !dbg !3279
  call void @_Z12cp_uncommentRK6String(%class.String* nonnull sret %7, %class.String* nonnull dereferenceable(24) %0), !dbg !3279
  %13 = invoke zeroext i1 @_ZN13FixedPointArg5parseERK6StringRjRK10ArgContext(%class.FixedPointArg* nonnull %6, %class.String* nonnull dereferenceable(24) %7, i32* nonnull dereferenceable(4) %5, %class.ArgContext* nonnull dereferenceable(32) @blank_args)
          to label %14 unwind label %39, !dbg !3280

14:                                               ; preds = %4
  %15 = load i32, i32* %5, align 4, !dbg !3281
  call void @llvm.dbg.value(metadata i32 %15, metadata !3261, metadata !DIExpression()), !dbg !3262
  %16 = icmp ugt i32 %15, 268435456, !dbg !3281
  %17 = xor i1 %13, true, !dbg !3281
  %18 = or i1 %16, %17, !dbg !3281
  call void @llvm.dbg.value(metadata %class.String* %7, metadata !3158, metadata !DIExpression()) #13, !dbg !3282
  call void @llvm.dbg.value(metadata %class.String* %7, metadata !3163, metadata !DIExpression()) #13, !dbg !3284
  %19 = getelementptr inbounds %class.String, %class.String* %7, i64 0, i32 0, i32 2, !dbg !3286
  %20 = load %"struct.String::memo_t"*, %"struct.String::memo_t"** %19, align 8, !dbg !3286, !tbaa !3171
  %21 = icmp eq %"struct.String::memo_t"* %20, null, !dbg !3287
  br i1 %21, label %36, label %22, !dbg !3288

22:                                               ; preds = %14
  %23 = getelementptr inbounds %"struct.String::memo_t", %"struct.String::memo_t"* %20, i64 0, i32 0, !dbg !3289
  %24 = load volatile i32, i32* %23, align 4, !dbg !3289, !tbaa !3176
  %25 = icmp eq i32 %24, 0, !dbg !3289
  br i1 %25, label %26, label %27, !dbg !3289

26:                                               ; preds = %22
  call void @__assert_fail(i8* getelementptr inbounds ([18 x i8], [18 x i8]* @.str.21, i64 0, i64 0), i8* getelementptr inbounds ([29 x i8], [29 x i8]* @.str.22, i64 0, i64 0), i32 273, i8* getelementptr inbounds ([27 x i8], [27 x i8]* @__PRETTY_FUNCTION__._ZNK6String5derefEv, i64 0, i64 0)) #14, !dbg !3289
  unreachable, !dbg !3289

27:                                               ; preds = %22
  call void @llvm.dbg.value(metadata i32* %23, metadata !3178, metadata !DIExpression()) #13, !dbg !3290
  %28 = load volatile i32, i32* %23, align 4, !dbg !3292, !tbaa !2706
  %29 = add i32 %28, -1, !dbg !3292
  store volatile i32 %29, i32* %23, align 4, !dbg !3292, !tbaa !2706
  %30 = icmp eq i32 %29, 0, !dbg !3293
  br i1 %30, label %31, label %32, !dbg !3294

31:                                               ; preds = %27
  invoke void @_ZN6String11delete_memoEPNS_6memo_tE(%"struct.String::memo_t"* nonnull %20)
          to label %32 unwind label %33, !dbg !3295

32:                                               ; preds = %31, %27
  store %"struct.String::memo_t"* null, %"struct.String::memo_t"** %19, align 8, !dbg !3296, !tbaa !3171
  br label %36, !dbg !3297

33:                                               ; preds = %31
  %34 = landingpad { i8*, i32 }
          catch i8* null, !dbg !3298
  %35 = extractvalue { i8*, i32 } %34, 0, !dbg !3298
  call void @__clang_call_terminate(i8* %35) #14, !dbg !3298
  unreachable, !dbg !3298

36:                                               ; preds = %14, %32
  call void @llvm.lifetime.end.p0i8(i64 24, i8* nonnull %12) #13, !dbg !3299
  call void @llvm.lifetime.end.p0i8(i64 12, i8* nonnull %9) #13, !dbg !3299
  br i1 %18, label %37, label %59, !dbg !3300

37:                                               ; preds = %36
  %38 = call i32 (%class.ErrorHandler*, i8*, ...) @_ZN12ErrorHandler5errorEPKcz(%class.ErrorHandler* %3, i8* getelementptr inbounds ([43 x i8], [43 x i8]* @.str.9, i64 0, i64 0)), !dbg !3301
  br label %68, !dbg !3302

39:                                               ; preds = %4
  %40 = landingpad { i8*, i32 }
          cleanup, !dbg !3303
  call void @llvm.dbg.value(metadata %class.String* %7, metadata !3158, metadata !DIExpression()) #13, !dbg !3304
  call void @llvm.dbg.value(metadata %class.String* %7, metadata !3163, metadata !DIExpression()) #13, !dbg !3306
  %41 = getelementptr inbounds %class.String, %class.String* %7, i64 0, i32 0, i32 2, !dbg !3308
  %42 = load %"struct.String::memo_t"*, %"struct.String::memo_t"** %41, align 8, !dbg !3308, !tbaa !3171
  %43 = icmp eq %"struct.String::memo_t"* %42, null, !dbg !3309
  br i1 %43, label %58, label %44, !dbg !3310

44:                                               ; preds = %39
  %45 = getelementptr inbounds %"struct.String::memo_t", %"struct.String::memo_t"* %42, i64 0, i32 0, !dbg !3311
  %46 = load volatile i32, i32* %45, align 4, !dbg !3311, !tbaa !3176
  %47 = icmp eq i32 %46, 0, !dbg !3311
  br i1 %47, label %48, label %49, !dbg !3311

48:                                               ; preds = %44
  call void @__assert_fail(i8* getelementptr inbounds ([18 x i8], [18 x i8]* @.str.21, i64 0, i64 0), i8* getelementptr inbounds ([29 x i8], [29 x i8]* @.str.22, i64 0, i64 0), i32 273, i8* getelementptr inbounds ([27 x i8], [27 x i8]* @__PRETTY_FUNCTION__._ZNK6String5derefEv, i64 0, i64 0)) #14, !dbg !3311
  unreachable, !dbg !3311

49:                                               ; preds = %44
  call void @llvm.dbg.value(metadata i32* %45, metadata !3178, metadata !DIExpression()) #13, !dbg !3312
  %50 = load volatile i32, i32* %45, align 4, !dbg !3314, !tbaa !2706
  %51 = add i32 %50, -1, !dbg !3314
  store volatile i32 %51, i32* %45, align 4, !dbg !3314, !tbaa !2706
  %52 = icmp eq i32 %51, 0, !dbg !3315
  br i1 %52, label %53, label %54, !dbg !3316

53:                                               ; preds = %49
  invoke void @_ZN6String11delete_memoEPNS_6memo_tE(%"struct.String::memo_t"* nonnull %42)
          to label %54 unwind label %55, !dbg !3317

54:                                               ; preds = %53, %49
  store %"struct.String::memo_t"* null, %"struct.String::memo_t"** %41, align 8, !dbg !3318, !tbaa !3171
  br label %58, !dbg !3319

55:                                               ; preds = %53
  %56 = landingpad { i8*, i32 }
          catch i8* null, !dbg !3320
  %57 = extractvalue { i8*, i32 } %56, 0, !dbg !3320
  call void @__clang_call_terminate(i8* %57) #14, !dbg !3320
  unreachable, !dbg !3320

58:                                               ; preds = %39, %54
  call void @llvm.lifetime.end.p0i8(i64 24, i8* nonnull %12) #13, !dbg !3299
  call void @llvm.lifetime.end.p0i8(i64 12, i8* nonnull %9) #13, !dbg !3299
  call void @llvm.lifetime.end.p0i8(i64 4, i8* nonnull %8) #13, !dbg !3321
  resume { i8*, i32 } %40, !dbg !3321

59:                                               ; preds = %36
  %60 = icmp eq i8* %2, inttoptr (i64 1 to i8*), !dbg !3322
  %61 = load i32, i32* %5, align 4, !dbg !3262, !tbaa !2706
  br i1 %60, label %62, label %64, !dbg !3324

62:                                               ; preds = %59
  call void @llvm.dbg.value(metadata i32 %61, metadata !3261, metadata !DIExpression()), !dbg !3262
  %63 = sub i32 268435456, %61, !dbg !3325
  call void @llvm.dbg.value(metadata i32 %63, metadata !3261, metadata !DIExpression()), !dbg !3262
  store i32 %63, i32* %5, align 4, !dbg !3326, !tbaa !2706
  br label %64, !dbg !3327

64:                                               ; preds = %59, %62
  %65 = phi i32 [ %63, %62 ], [ %61, %59 ], !dbg !3328
  call void @llvm.dbg.value(metadata i32 %65, metadata !3261, metadata !DIExpression()), !dbg !3262
  %66 = getelementptr inbounds %class.Element, %class.Element* %1, i64 0, i32 6, !dbg !3329
  %67 = bitcast [4 x i8]* %66 to i32*, !dbg !3329
  store i32 %65, i32* %67, align 4, !dbg !3330, !tbaa !2820
  br label %68, !dbg !3331

68:                                               ; preds = %64, %37
  %69 = phi i32 [ %38, %37 ], [ 0, %64 ], !dbg !3262
  call void @llvm.lifetime.end.p0i8(i64 4, i8* nonnull %8) #13, !dbg !3321
  ret i32 %69, !dbg !3321
}

declare zeroext i1 @_ZN13FixedPointArg5parseERK6StringRjRK10ArgContext(%class.FixedPointArg*, %class.String* dereferenceable(24), i32* dereferenceable(4), %class.ArgContext* dereferenceable(32)) local_unnamed_addr #2

declare !dbg !1744 void @_Z12cp_uncommentRK6String(%class.String* sret, %class.String* dereferenceable(24)) local_unnamed_addr #2

; Function Attrs: sspstrong uwtable
define dso_local void @_ZN12RandomSample12add_handlersEv(%class.RandomSample* %0) unnamed_addr #0 align 2 personality i8* bitcast (i32 (...)* @__gxx_personality_v0 to i8*) !dbg !3332 {
  %2 = alloca %class.String, align 8
  call void @llvm.dbg.value(metadata %class.RandomSample* %0, metadata !3334, metadata !DIExpression()), !dbg !3335
  %3 = bitcast %class.RandomSample* %0 to %class.Element*, !dbg !3336
  tail call void @_ZN7Element16add_read_handlerEPKcPF6StringPS_PvEij(%class.Element* %3, i8* getelementptr inbounds ([14 x i8], [14 x i8]* @.str.10, i64 0, i64 0), void (%class.String*, %class.Element*, i8*)* nonnull @_ZN12RandomSample12read_handlerEP7ElementPv, i32 0, i32 0), !dbg !3336
  tail call void @_ZN7Element17add_write_handlerEPKcPFiRK6StringPS_PvP12ErrorHandlerEij(%class.Element* %3, i8* getelementptr inbounds ([14 x i8], [14 x i8]* @.str.10, i64 0, i64 0), i32 (%class.String*, %class.Element*, i8*, %class.ErrorHandler*)* nonnull @_ZN12RandomSample13write_handlerERK6StringP7ElementPvP12ErrorHandler, i32 0, i32 0), !dbg !3337
  %4 = getelementptr inbounds %class.RandomSample, %class.RandomSample* %0, i64 0, i32 2, !dbg !3338
  tail call void @_ZN7Element17add_data_handlersEPKciPb(%class.Element* %3, i8* getelementptr inbounds ([7 x i8], [7 x i8]* @.str.11, i64 0, i64 0), i32 16387, i8* nonnull %4), !dbg !3339
  %5 = getelementptr inbounds %class.RandomSample, %class.RandomSample* %0, i64 0, i32 3, !dbg !3340
  tail call void @_ZN7Element17add_data_handlersEPKciP15atomic_uint32_t(%class.Element* %3, i8* getelementptr inbounds ([6 x i8], [6 x i8]* @.str.12, i64 0, i64 0), i32 1, %class.atomic_uint32_t* nonnull %5), !dbg !3341
  tail call void @_ZN7Element16add_read_handlerEPKcPF6StringPS_PvEij(%class.Element* %3, i8* getelementptr inbounds ([10 x i8], [10 x i8]* @.str.13, i64 0, i64 0), void (%class.String*, %class.Element*, i8*)* nonnull @_ZN12RandomSample12read_handlerEP7ElementPv, i32 1, i32 0), !dbg !3342
  tail call void @_ZN7Element17add_write_handlerEPKcPFiRK6StringPS_PvP12ErrorHandlerEij(%class.Element* %3, i8* getelementptr inbounds ([10 x i8], [10 x i8]* @.str.13, i64 0, i64 0), i32 (%class.String*, %class.Element*, i8*, %class.ErrorHandler*)* nonnull @_ZN12RandomSample13write_handlerERK6StringP7ElementPvP12ErrorHandler, i32 1, i32 0), !dbg !3343
  tail call void @_ZN7Element16add_read_handlerEPKcPF6StringPS_PvEij(%class.Element* %3, i8* getelementptr inbounds ([7 x i8], [7 x i8]* @.str.14, i64 0, i64 0), void (%class.String*, %class.Element*, i8*)* nonnull @_ZN12RandomSample12read_handlerEP7ElementPv, i32 2, i32 0), !dbg !3344
  %6 = bitcast %class.String* %2 to i8*, !dbg !3345
  call void @llvm.lifetime.start.p0i8(i64 24, i8* nonnull %6) #13, !dbg !3345
  call void @llvm.dbg.value(metadata %class.String* %2, metadata !3230, metadata !DIExpression()), !dbg !3346
  call void @llvm.dbg.value(metadata i8* getelementptr inbounds ([7 x i8], [7 x i8]* @.str.14, i64 0, i64 0), metadata !3233, metadata !DIExpression()), !dbg !3346
  call void @llvm.dbg.value(metadata %class.String* %2, metadata !3236, metadata !DIExpression()), !dbg !3348
  call void @llvm.dbg.value(metadata i8* getelementptr inbounds ([7 x i8], [7 x i8]* @.str.14, i64 0, i64 0), metadata !3239, metadata !DIExpression()), !dbg !3348
  call void @llvm.dbg.value(metadata i32 6, metadata !3240, metadata !DIExpression()), !dbg !3348
  call void @llvm.dbg.value(metadata %"struct.String::memo_t"* null, metadata !3241, metadata !DIExpression()), !dbg !3348
  %7 = getelementptr inbounds %class.String, %class.String* %2, i64 0, i32 0, i32 0, !dbg !3350
  store i8* getelementptr inbounds ([7 x i8], [7 x i8]* @.str.14, i64 0, i64 0), i8** %7, align 8, !dbg !3351, !tbaa !3086
  %8 = getelementptr inbounds %class.String, %class.String* %2, i64 0, i32 0, i32 1, !dbg !3352
  store i32 6, i32* %8, align 8, !dbg !3353, !tbaa !3095
  %9 = getelementptr inbounds %class.String, %class.String* %2, i64 0, i32 0, i32 2, !dbg !3354
  store %"struct.String::memo_t"* null, %"struct.String::memo_t"** %9, align 8, !dbg !3355, !tbaa !3171
  %10 = invoke i32 @_ZN7Element17set_handler_flagsERK6Stringii(%class.Element* %3, %class.String* nonnull dereferenceable(24) %2, i32 0, i32 2048)
          to label %11 unwind label %29, !dbg !3356

11:                                               ; preds = %1
  call void @llvm.dbg.value(metadata %class.String* %2, metadata !3158, metadata !DIExpression()) #13, !dbg !3357
  call void @llvm.dbg.value(metadata %class.String* %2, metadata !3163, metadata !DIExpression()) #13, !dbg !3359
  %12 = load %"struct.String::memo_t"*, %"struct.String::memo_t"** %9, align 8, !dbg !3361, !tbaa !3171
  %13 = icmp eq %"struct.String::memo_t"* %12, null, !dbg !3362
  br i1 %13, label %28, label %14, !dbg !3363

14:                                               ; preds = %11
  %15 = getelementptr inbounds %"struct.String::memo_t", %"struct.String::memo_t"* %12, i64 0, i32 0, !dbg !3364
  %16 = load volatile i32, i32* %15, align 4, !dbg !3364, !tbaa !3176
  %17 = icmp eq i32 %16, 0, !dbg !3364
  br i1 %17, label %18, label %19, !dbg !3364

18:                                               ; preds = %14
  call void @__assert_fail(i8* getelementptr inbounds ([18 x i8], [18 x i8]* @.str.21, i64 0, i64 0), i8* getelementptr inbounds ([29 x i8], [29 x i8]* @.str.22, i64 0, i64 0), i32 273, i8* getelementptr inbounds ([27 x i8], [27 x i8]* @__PRETTY_FUNCTION__._ZNK6String5derefEv, i64 0, i64 0)) #14, !dbg !3364
  unreachable, !dbg !3364

19:                                               ; preds = %14
  call void @llvm.dbg.value(metadata i32* %15, metadata !3178, metadata !DIExpression()) #13, !dbg !3365
  %20 = load volatile i32, i32* %15, align 4, !dbg !3367, !tbaa !2706
  %21 = add i32 %20, -1, !dbg !3367
  store volatile i32 %21, i32* %15, align 4, !dbg !3367, !tbaa !2706
  %22 = icmp eq i32 %21, 0, !dbg !3368
  br i1 %22, label %23, label %24, !dbg !3369

23:                                               ; preds = %19
  invoke void @_ZN6String11delete_memoEPNS_6memo_tE(%"struct.String::memo_t"* nonnull %12)
          to label %24 unwind label %25, !dbg !3370

24:                                               ; preds = %23, %19
  store %"struct.String::memo_t"* null, %"struct.String::memo_t"** %9, align 8, !dbg !3371, !tbaa !3171
  br label %28, !dbg !3372

25:                                               ; preds = %23
  %26 = landingpad { i8*, i32 }
          catch i8* null, !dbg !3373
  %27 = extractvalue { i8*, i32 } %26, 0, !dbg !3373
  call void @__clang_call_terminate(i8* %27) #14, !dbg !3373
  unreachable, !dbg !3373

28:                                               ; preds = %11, %24
  call void @llvm.lifetime.end.p0i8(i64 24, i8* nonnull %6) #13, !dbg !3356
  ret void, !dbg !3374

29:                                               ; preds = %1
  %30 = landingpad { i8*, i32 }
          cleanup, !dbg !3374
  call void @llvm.dbg.value(metadata %class.String* %2, metadata !3158, metadata !DIExpression()) #13, !dbg !3375
  call void @llvm.dbg.value(metadata %class.String* %2, metadata !3163, metadata !DIExpression()) #13, !dbg !3377
  %31 = load %"struct.String::memo_t"*, %"struct.String::memo_t"** %9, align 8, !dbg !3379, !tbaa !3171
  %32 = icmp eq %"struct.String::memo_t"* %31, null, !dbg !3380
  br i1 %32, label %47, label %33, !dbg !3381

33:                                               ; preds = %29
  %34 = getelementptr inbounds %"struct.String::memo_t", %"struct.String::memo_t"* %31, i64 0, i32 0, !dbg !3382
  %35 = load volatile i32, i32* %34, align 4, !dbg !3382, !tbaa !3176
  %36 = icmp eq i32 %35, 0, !dbg !3382
  br i1 %36, label %37, label %38, !dbg !3382

37:                                               ; preds = %33
  call void @__assert_fail(i8* getelementptr inbounds ([18 x i8], [18 x i8]* @.str.21, i64 0, i64 0), i8* getelementptr inbounds ([29 x i8], [29 x i8]* @.str.22, i64 0, i64 0), i32 273, i8* getelementptr inbounds ([27 x i8], [27 x i8]* @__PRETTY_FUNCTION__._ZNK6String5derefEv, i64 0, i64 0)) #14, !dbg !3382
  unreachable, !dbg !3382

38:                                               ; preds = %33
  call void @llvm.dbg.value(metadata i32* %34, metadata !3178, metadata !DIExpression()) #13, !dbg !3383
  %39 = load volatile i32, i32* %34, align 4, !dbg !3385, !tbaa !2706
  %40 = add i32 %39, -1, !dbg !3385
  store volatile i32 %40, i32* %34, align 4, !dbg !3385, !tbaa !2706
  %41 = icmp eq i32 %40, 0, !dbg !3386
  br i1 %41, label %42, label %43, !dbg !3387

42:                                               ; preds = %38
  invoke void @_ZN6String11delete_memoEPNS_6memo_tE(%"struct.String::memo_t"* nonnull %31)
          to label %43 unwind label %44, !dbg !3388

43:                                               ; preds = %42, %38
  store %"struct.String::memo_t"* null, %"struct.String::memo_t"** %9, align 8, !dbg !3389, !tbaa !3171
  br label %47, !dbg !3390

44:                                               ; preds = %42
  %45 = landingpad { i8*, i32 }
          catch i8* null, !dbg !3391
  %46 = extractvalue { i8*, i32 } %45, 0, !dbg !3391
  call void @__clang_call_terminate(i8* %46) #14, !dbg !3391
  unreachable, !dbg !3391

47:                                               ; preds = %29, %43
  call void @llvm.lifetime.end.p0i8(i64 24, i8* nonnull %6) #13, !dbg !3356
  resume { i8*, i32 } %30, !dbg !3356
}

declare void @_ZN7Element16add_read_handlerEPKcPF6StringPS_PvEij(%class.Element*, i8*, void (%class.String*, %class.Element*, i8*)*, i32, i32) local_unnamed_addr #2

declare void @_ZN7Element17add_write_handlerEPKcPFiRK6StringPS_PvP12ErrorHandlerEij(%class.Element*, i8*, i32 (%class.String*, %class.Element*, i8*, %class.ErrorHandler*)*, i32, i32) local_unnamed_addr #2

declare void @_ZN7Element17add_data_handlersEPKciPb(%class.Element*, i8*, i32, i8*) local_unnamed_addr #2

declare void @_ZN7Element17add_data_handlersEPKciP15atomic_uint32_t(%class.Element*, i8*, i32, %class.atomic_uint32_t*) local_unnamed_addr #2

declare i32 @_ZN7Element17set_handler_flagsERK6Stringii(%class.Element*, %class.String* dereferenceable(24), i32, i32) local_unnamed_addr #2

; Function Attrs: nounwind
declare void @_ZN7ElementD2Ev(%class.Element*) unnamed_addr #4

; Function Attrs: inlinehint nounwind sspstrong uwtable
define linkonce_odr dso_local void @_ZN12RandomSampleD0Ev(%class.RandomSample* %0) unnamed_addr #8 comdat align 2 !dbg !3392 {
  call void @llvm.dbg.value(metadata %class.RandomSample* %0, metadata !3395, metadata !DIExpression()), !dbg !3396
  %2 = bitcast %class.RandomSample* %0 to %class.Element*, !dbg !3397
  tail call void @_ZN7ElementD2Ev(%class.Element* %2) #13, !dbg !3397
  %3 = bitcast %class.RandomSample* %0 to i8*, !dbg !3397
  tail call void @_ZdlPv(i8* %3) #15, !dbg !3397
  ret void, !dbg !3397
}

declare %class.Packet* @_ZN7Element13simple_actionEP6Packet(%class.Element*, %class.Packet*) unnamed_addr #2

declare zeroext i1 @_ZN7Element8run_taskEP4Task(%class.Element*, %class.Task*) unnamed_addr #2

declare void @_ZN7Element9run_timerEP5Timer(%class.Element*, %class.Timer*) unnamed_addr #2

declare void @_ZN7Element8selectedEii(%class.Element*, i32, i32) unnamed_addr #2

declare void @_ZN7Element8selectedEi(%class.Element*, i32) unnamed_addr #2

; Function Attrs: nounwind sspstrong uwtable
define linkonce_odr dso_local i8* @_ZNK12RandomSample10class_nameEv(%class.RandomSample* %0) unnamed_addr #9 comdat align 2 !dbg !3398 {
  call void @llvm.dbg.value(metadata %class.RandomSample* %0, metadata !3400, metadata !DIExpression()), !dbg !3402
  ret i8* getelementptr inbounds ([13 x i8], [13 x i8]* @.str.23, i64 0, i64 0), !dbg !3403
}

; Function Attrs: nounwind sspstrong uwtable
define linkonce_odr dso_local i8* @_ZNK12RandomSample10port_countEv(%class.RandomSample* %0) unnamed_addr #9 comdat align 2 !dbg !3404 {
  call void @llvm.dbg.value(metadata %class.RandomSample* %0, metadata !3406, metadata !DIExpression()), !dbg !3407
  ret i8* getelementptr inbounds ([0 x i8], [0 x i8]* @_ZN7Element11PORTS_1_1X2E, i64 0, i64 0), !dbg !3408
}

; Function Attrs: nounwind sspstrong uwtable
define linkonce_odr dso_local i8* @_ZNK12RandomSample10processingEv(%class.RandomSample* %0) unnamed_addr #9 comdat align 2 !dbg !3409 {
  call void @llvm.dbg.value(metadata %class.RandomSample* %0, metadata !3411, metadata !DIExpression()), !dbg !3412
  ret i8* getelementptr inbounds ([0 x i8], [0 x i8]* @_ZN7Element15PROCESSING_A_AHE, i64 0, i64 0), !dbg !3413
}

declare i8* @_ZNK7Element9flow_codeEv(%class.Element*) unnamed_addr #2

declare i8* @_ZNK7Element5flagsEv(%class.Element*) unnamed_addr #2

declare i8* @_ZN7Element4castEPKc(%class.Element*, i8*) unnamed_addr #2

declare i8* @_ZN7Element9port_castEbiPKc(%class.Element*, i1 zeroext, i32, i8*) unnamed_addr #2

declare i32 @_ZNK7Element15configure_phaseEv(%class.Element*) unnamed_addr #2

declare void @_ZN7Element10take_stateEPS_P12ErrorHandler(%class.Element*, %class.Element*, %class.ErrorHandler*) unnamed_addr #2

declare %class.Element* @_ZNK7Element15hotswap_elementEv(%class.Element*) unnamed_addr #2

declare void @_ZN7Element7cleanupENS_12CleanupStageE(%class.Element*, i32) unnamed_addr #2

declare void @_ZNK7Element11declarationEv(%class.String* sret, %class.Element*) unnamed_addr #2

; Function Attrs: nounwind sspstrong uwtable
define linkonce_odr dso_local zeroext i1 @_ZNK12RandomSample20can_live_reconfigureEv(%class.RandomSample* %0) unnamed_addr #9 comdat align 2 !dbg !3414 {
  call void @llvm.dbg.value(metadata %class.RandomSample* %0, metadata !3416, metadata !DIExpression()), !dbg !3417
  ret i1 true, !dbg !3418
}

declare i32 @_ZN7Element16live_reconfigureER6VectorI6StringEP12ErrorHandler(%class.Element*, %class.Vector* dereferenceable(16), %class.ErrorHandler*) unnamed_addr #2

declare i32 @_ZN7Element5llrpcEjPv(%class.Element*, i32, i8*) unnamed_addr #2

; Function Attrs: nounwind
declare !dbg !1747 i64 @random() local_unnamed_addr #4

; Function Attrs: noinline nounwind optnone sspstrong uwtable
define linkonce_odr dso_local dereferenceable(16) %"class.Element::Port"* @_ZNK7Element4portEbi(%class.Element* %0, i1 zeroext %1, i32 %2) local_unnamed_addr #7 comdat align 2 !dbg !3419 {
  %4 = alloca %class.Element*, align 8
  %5 = alloca i8, align 1
  %6 = alloca i32, align 4
  store %class.Element* %0, %class.Element** %4, align 8, !tbaa !2915
  call void @llvm.dbg.declare(metadata %class.Element** %4, metadata !3424, metadata !DIExpression()), !dbg !3427
  %7 = zext i1 %1 to i8
  store i8 %7, i8* %5, align 1, !tbaa !2713
  call void @llvm.dbg.declare(metadata i8* %5, metadata !3425, metadata !DIExpression()), !dbg !3428
  store i32 %2, i32* %6, align 4, !tbaa !2706
  call void @llvm.dbg.declare(metadata i32* %6, metadata !3426, metadata !DIExpression()), !dbg !3429
  %8 = load %class.Element*, %class.Element** %4, align 8
  %9 = load i32, i32* %6, align 4, !dbg !3430, !tbaa !2706
  %10 = getelementptr inbounds %class.Element, %class.Element* %8, i32 0, i32 3, !dbg !3430
  %11 = load i8, i8* %5, align 1, !dbg !3430, !tbaa !2713, !range !2764
  %12 = trunc i8 %11 to i1, !dbg !3430
  %13 = zext i1 %12 to i64, !dbg !3430
  %14 = getelementptr inbounds [2 x i32], [2 x i32]* %10, i64 0, i64 %13, !dbg !3430
  %15 = load i32, i32* %14, align 4, !dbg !3430, !tbaa !2706
  %16 = icmp ult i32 %9, %15, !dbg !3430
  br i1 %16, label %17, label %18, !dbg !3430

17:                                               ; preds = %3
  br label %19, !dbg !3430

18:                                               ; preds = %3
  call void @__assert_fail(i8* getelementptr inbounds ([47 x i8], [47 x i8]* @.str.15, i64 0, i64 0), i8* getelementptr inbounds ([30 x i8], [30 x i8]* @.str.16, i64 0, i64 0), i32 437, i8* getelementptr inbounds ([52 x i8], [52 x i8]* @__PRETTY_FUNCTION__._ZNK7Element4portEbi, i64 0, i64 0)) #14, !dbg !3430
  unreachable, !dbg !3430

19:                                               ; preds = %17
  %20 = getelementptr inbounds %class.Element, %class.Element* %8, i32 0, i32 1, !dbg !3431
  %21 = load i8, i8* %5, align 1, !dbg !3432, !tbaa !2713, !range !2764
  %22 = trunc i8 %21 to i1, !dbg !3432
  %23 = zext i1 %22 to i64, !dbg !3431
  %24 = getelementptr inbounds [2 x %"class.Element::Port"*], [2 x %"class.Element::Port"*]* %20, i64 0, i64 %23, !dbg !3431
  %25 = load %"class.Element::Port"*, %"class.Element::Port"** %24, align 8, !dbg !3431, !tbaa !2915
  %26 = load i32, i32* %6, align 4, !dbg !3433, !tbaa !2706
  %27 = sext i32 %26 to i64, !dbg !3431
  %28 = getelementptr inbounds %"class.Element::Port", %"class.Element::Port"* %25, i64 %27, !dbg !3431
  ret %"class.Element::Port"* %28, !dbg !3434
}

; Function Attrs: noreturn nounwind
declare void @__assert_fail(i8*, i8*, i32, i8*) local_unnamed_addr #10

; Function Attrs: inlinehint nounwind sspstrong uwtable
define linkonce_odr dso_local i32 @_ZNK7Element8noutputsEv(%class.Element* %0) local_unnamed_addr #8 comdat align 2 !dbg !3435 {
  call void @llvm.dbg.value(metadata %class.Element* %0, metadata !3440, metadata !DIExpression()), !dbg !3441
  %2 = getelementptr inbounds %class.Element, %class.Element* %0, i64 0, i32 3, i64 1, !dbg !3442
  %3 = load i32, i32* %2, align 4, !dbg !3442, !tbaa !2706
  ret i32 %3, !dbg !3443
}

declare void @_ZN6Packet4killEv(%class.Packet*) local_unnamed_addr #2

declare void @_ZN11StringAccum11hard_appendEPKci(%class.StringAccum*, i8*, i32) local_unnamed_addr #2

; Function Attrs: inlinehint nounwind sspstrong uwtable
define linkonce_odr dso_local i32 @_ZNK6String6lengthEv(%class.String* %0) #8 comdat align 2 !dbg !3090 {
  call void @llvm.dbg.value(metadata %class.String* %0, metadata !3089, metadata !DIExpression()), !dbg !3444
  %2 = getelementptr inbounds %class.String, %class.String* %0, i64 0, i32 0, i32 1, !dbg !3445
  %3 = load i32, i32* %2, align 8, !dbg !3445, !tbaa !3095
  ret i32 %3, !dbg !3446
}

; Function Attrs: noinline noreturn nounwind
define linkonce_odr hidden void @__clang_call_terminate(i8* %0) local_unnamed_addr #11 comdat {
  %2 = tail call i8* @__cxa_begin_catch(i8* %0) #13
  tail call void @_ZSt9terminatev() #14
  unreachable
}

declare i8* @__cxa_begin_catch(i8*) local_unnamed_addr

declare void @_ZSt9terminatev() local_unnamed_addr

declare void @_ZN6String11delete_memoEPNS_6memo_tE(%"struct.String::memo_t"*) local_unnamed_addr #2

; Function Attrs: nobuiltin nounwind
declare void @_ZdaPv(i8*) local_unnamed_addr #12

; Function Attrs: nobuiltin nounwind
declare void @_ZdlPv(i8*) local_unnamed_addr #12

; Function Attrs: noinline optnone sspstrong uwtable
define linkonce_odr dso_local void @_Z14args_base_readI13FixedPointArgjEvP4ArgsPKciT_RT0_(%class.Args* %0, i8* %1, i32 %2, i64 %3, i32 %4, i32* dereferenceable(4) %5) local_unnamed_addr #6 comdat !dbg !3447 {
  %7 = alloca %class.FixedPointArg, align 4
  %8 = alloca { i64, i32 }, align 4
  %9 = alloca %class.Args*, align 8
  %10 = alloca i8*, align 8
  %11 = alloca i32, align 4
  %12 = alloca i32*, align 8
  %13 = alloca %class.FixedPointArg, align 4
  %14 = alloca { i64, i32 }, align 4
  %15 = getelementptr inbounds { i64, i32 }, { i64, i32 }* %8, i32 0, i32 0
  store i64 %3, i64* %15, align 4
  %16 = getelementptr inbounds { i64, i32 }, { i64, i32 }* %8, i32 0, i32 1
  store i32 %4, i32* %16, align 4
  %17 = bitcast %class.FixedPointArg* %7 to i8*
  %18 = bitcast { i64, i32 }* %8 to i8*
  call void @llvm.memcpy.p0i8.p0i8.i64(i8* align 4 %17, i8* align 4 %18, i64 12, i1 false)
  store %class.Args* %0, %class.Args** %9, align 8, !tbaa !2915
  call void @llvm.dbg.declare(metadata %class.Args** %9, metadata !3449, metadata !DIExpression()), !dbg !3454
  store i8* %1, i8** %10, align 8, !tbaa !2915
  call void @llvm.dbg.declare(metadata i8** %10, metadata !3450, metadata !DIExpression()), !dbg !3455
  store i32 %2, i32* %11, align 4, !tbaa !2706
  call void @llvm.dbg.declare(metadata i32* %11, metadata !3451, metadata !DIExpression()), !dbg !3456
  call void @llvm.dbg.declare(metadata %class.FixedPointArg* %7, metadata !3452, metadata !DIExpression()), !dbg !3457
  store i32* %5, i32** %12, align 8, !tbaa !2915
  call void @llvm.dbg.declare(metadata i32** %12, metadata !3453, metadata !DIExpression()), !dbg !3458
  %19 = load %class.Args*, %class.Args** %9, align 8, !dbg !3459, !tbaa !2915
  %20 = load i8*, i8** %10, align 8, !dbg !3460, !tbaa !2915
  %21 = load i32, i32* %11, align 4, !dbg !3461, !tbaa !2706
  %22 = bitcast %class.FixedPointArg* %13 to i8*, !dbg !3462
  %23 = bitcast %class.FixedPointArg* %7 to i8*, !dbg !3462
  call void @llvm.memcpy.p0i8.p0i8.i64(i8* align 4 %22, i8* align 4 %23, i64 12, i1 false), !dbg !3462
  %24 = load i32*, i32** %12, align 8, !dbg !3463, !tbaa !2915
  %25 = bitcast { i64, i32 }* %14 to i8*, !dbg !3464
  %26 = bitcast %class.FixedPointArg* %13 to i8*, !dbg !3464
  call void @llvm.memcpy.p0i8.p0i8.i64(i8* align 4 %25, i8* align 4 %26, i64 12, i1 false), !dbg !3464
  %27 = getelementptr inbounds { i64, i32 }, { i64, i32 }* %14, i32 0, i32 0, !dbg !3464
  %28 = load i64, i64* %27, align 4, !dbg !3464
  %29 = getelementptr inbounds { i64, i32 }, { i64, i32 }* %14, i32 0, i32 1, !dbg !3464
  %30 = load i32, i32* %29, align 4, !dbg !3464
  call void @_ZN4Args9base_readI13FixedPointArgjEEvPKciT_RT0_(%class.Args* %19, i8* %20, i32 %21, i64 %28, i32 %30, i32* dereferenceable(4) %24), !dbg !3464
  ret void, !dbg !3465
}

; Function Attrs: sspstrong uwtable
define linkonce_odr dso_local void @_ZN4Args9base_readI13FixedPointArgjEEvPKciT_RT0_(%class.Args* %0, i8* %1, i32 %2, i64 %3, i32 %4, i32* dereferenceable(4) %5) local_unnamed_addr #0 comdat align 2 personality i8* bitcast (i32 (...)* @__gxx_personality_v0 to i8*) !dbg !3466 {
  %7 = alloca %class.FixedPointArg, align 8
  call void @llvm.dbg.declare(metadata %class.FixedPointArg* %7, metadata !3481, metadata !DIExpression()), !dbg !3495
  %8 = alloca %"struct.Args::Slot"*, align 8
  %9 = alloca %class.String, align 8
  call void @llvm.dbg.value(metadata i64 %3, metadata !3474, metadata !DIExpression(DW_OP_LLVM_fragment, 0, 64)), !dbg !3497
  call void @llvm.dbg.value(metadata i32 %4, metadata !3474, metadata !DIExpression(DW_OP_LLVM_fragment, 64, 32)), !dbg !3497
  call void @llvm.dbg.value(metadata %class.Args* %0, metadata !3471, metadata !DIExpression()), !dbg !3497
  call void @llvm.dbg.value(metadata i8* %1, metadata !3472, metadata !DIExpression()), !dbg !3497
  call void @llvm.dbg.value(metadata i32 %2, metadata !3473, metadata !DIExpression()), !dbg !3497
  call void @llvm.dbg.value(metadata i32* %5, metadata !3475, metadata !DIExpression()), !dbg !3497
  %10 = bitcast %"struct.Args::Slot"** %8 to i8*, !dbg !3498
  call void @llvm.lifetime.start.p0i8(i64 8, i8* nonnull %10) #13, !dbg !3498
  %11 = bitcast %class.String* %9 to i8*, !dbg !3499
  call void @llvm.lifetime.start.p0i8(i64 24, i8* nonnull %11) #13, !dbg !3499
  call void @llvm.dbg.declare(metadata %class.String* %9, metadata !3477, metadata !DIExpression()), !dbg !3500
  call void @llvm.dbg.value(metadata %"struct.Args::Slot"** %8, metadata !3476, metadata !DIExpression(DW_OP_deref)), !dbg !3497
  call void @_ZN4Args4findEPKciRPNS_4SlotE(%class.String* nonnull sret %9, %class.Args* %0, i8* %1, i32 %2, %"struct.Args::Slot"** nonnull dereferenceable(8) %8), !dbg !3501
  call void @llvm.dbg.value(metadata %class.String* %9, metadata !3502, metadata !DIExpression()), !dbg !3505
  %12 = getelementptr inbounds %class.String, %class.String* %9, i64 0, i32 0, i32 1, !dbg !3507
  %13 = load i32, i32* %12, align 8, !dbg !3507, !tbaa !3095
  %14 = icmp eq i32 %13, 0, !dbg !3508
  %15 = select i1 %14, { i64, i64 } zeroinitializer, { i64, i64 } { i64 ptrtoint (i32 (%class.String*)* @_ZNK6String6lengthEv to i64), i64 0 }, !dbg !3509
  %16 = extractvalue { i64, i64 } %15, 0, !dbg !3500
  %17 = icmp eq i64 %16, 0, !dbg !3500
  br i1 %17, label %54, label %18, !dbg !3499

18:                                               ; preds = %6
  call void @llvm.dbg.value(metadata i32* %5, metadata !3510, metadata !DIExpression()), !dbg !3517
  call void @llvm.dbg.value(metadata %class.Args* %0, metadata !3516, metadata !DIExpression()), !dbg !3517
  call void @llvm.dbg.value(metadata %class.Args* %0, metadata !3519, metadata !DIExpression()), !dbg !3527
  call void @llvm.dbg.value(metadata i32* %5, metadata !3526, metadata !DIExpression()), !dbg !3527
  %19 = bitcast i32* %5 to i8*, !dbg !3529
  %20 = invoke i8* @_ZN4Args11simple_slotEPvm(%class.Args* nonnull %0, i8* nonnull %19, i64 4)
          to label %21 unwind label %34, !dbg !3531

21:                                               ; preds = %18
  call void @llvm.dbg.value(metadata i8* %20, metadata !3479, metadata !DIExpression()), !dbg !3532
  %22 = icmp eq i8* %20, null, !dbg !3533
  br i1 %22, label %31, label %23, !dbg !3534

23:                                               ; preds = %21
  %24 = bitcast i8* %20 to i32*, !dbg !3535
  call void @llvm.dbg.value(metadata i32* %24, metadata !3479, metadata !DIExpression()), !dbg !3532
  %25 = bitcast %class.FixedPointArg* %7 to i8*
  call void @llvm.lifetime.start.p0i8(i64 12, i8* nonnull %25)
  %26 = bitcast %class.FixedPointArg* %7 to i64*
  store i64 %3, i64* %26, align 8
  %27 = getelementptr inbounds %class.FixedPointArg, %class.FixedPointArg* %7, i64 0, i32 2
  store i32 %4, i32* %27, align 8
  call void @llvm.dbg.value(metadata %class.String* %9, metadata !3492, metadata !DIExpression()), !dbg !3536
  call void @llvm.dbg.value(metadata i32* %24, metadata !3493, metadata !DIExpression()), !dbg !3536
  call void @llvm.dbg.value(metadata %class.Args* %0, metadata !3494, metadata !DIExpression()), !dbg !3536
  %28 = bitcast %class.Args* %0 to %class.ArgContext*, !dbg !3537
  %29 = invoke zeroext i1 @_ZN13FixedPointArg5parseERK6StringRjRK10ArgContext(%class.FixedPointArg* nonnull %7, %class.String* nonnull dereferenceable(24) %9, i32* nonnull dereferenceable(4) %24, %class.ArgContext* nonnull dereferenceable(32) %28)
          to label %30 unwind label %34, !dbg !3538

30:                                               ; preds = %23
  call void @llvm.lifetime.end.p0i8(i64 12, i8* nonnull %25), !dbg !3539
  br label %31, !dbg !3539

31:                                               ; preds = %30, %21
  %32 = phi i1 [ false, %21 ], [ %29, %30 ], !dbg !3532
  %33 = load %"struct.Args::Slot"*, %"struct.Args::Slot"** %8, align 8, !dbg !3540, !tbaa !2915
  call void @llvm.dbg.value(metadata %"struct.Args::Slot"* %33, metadata !3476, metadata !DIExpression()), !dbg !3497
  invoke void @_ZN4Args9postparseEbPNS_4SlotE(%class.Args* nonnull %0, i1 zeroext %32, %"struct.Args::Slot"* %33)
          to label %54 unwind label %34, !dbg !3541

34:                                               ; preds = %23, %18, %31
  %35 = landingpad { i8*, i32 }
          cleanup, !dbg !3542
  call void @llvm.dbg.value(metadata %class.String* %9, metadata !3158, metadata !DIExpression()) #13, !dbg !3543
  call void @llvm.dbg.value(metadata %class.String* %9, metadata !3163, metadata !DIExpression()) #13, !dbg !3545
  %36 = getelementptr inbounds %class.String, %class.String* %9, i64 0, i32 0, i32 2, !dbg !3547
  %37 = load %"struct.String::memo_t"*, %"struct.String::memo_t"** %36, align 8, !dbg !3547, !tbaa !3171
  %38 = icmp eq %"struct.String::memo_t"* %37, null, !dbg !3548
  br i1 %38, label %53, label %39, !dbg !3549

39:                                               ; preds = %34
  %40 = getelementptr inbounds %"struct.String::memo_t", %"struct.String::memo_t"* %37, i64 0, i32 0, !dbg !3550
  %41 = load volatile i32, i32* %40, align 4, !dbg !3550, !tbaa !3176
  %42 = icmp eq i32 %41, 0, !dbg !3550
  br i1 %42, label %43, label %44, !dbg !3550

43:                                               ; preds = %39
  call void @__assert_fail(i8* getelementptr inbounds ([18 x i8], [18 x i8]* @.str.21, i64 0, i64 0), i8* getelementptr inbounds ([29 x i8], [29 x i8]* @.str.22, i64 0, i64 0), i32 273, i8* getelementptr inbounds ([27 x i8], [27 x i8]* @__PRETTY_FUNCTION__._ZNK6String5derefEv, i64 0, i64 0)) #14, !dbg !3550
  unreachable, !dbg !3550

44:                                               ; preds = %39
  call void @llvm.dbg.value(metadata i32* %40, metadata !3178, metadata !DIExpression()) #13, !dbg !3551
  %45 = load volatile i32, i32* %40, align 4, !dbg !3553, !tbaa !2706
  %46 = add i32 %45, -1, !dbg !3553
  store volatile i32 %46, i32* %40, align 4, !dbg !3553, !tbaa !2706
  %47 = icmp eq i32 %46, 0, !dbg !3554
  br i1 %47, label %48, label %49, !dbg !3555

48:                                               ; preds = %44
  invoke void @_ZN6String11delete_memoEPNS_6memo_tE(%"struct.String::memo_t"* nonnull %37)
          to label %49 unwind label %50, !dbg !3556

49:                                               ; preds = %48, %44
  store %"struct.String::memo_t"* null, %"struct.String::memo_t"** %36, align 8, !dbg !3557, !tbaa !3171
  br label %53, !dbg !3558

50:                                               ; preds = %48
  %51 = landingpad { i8*, i32 }
          catch i8* null, !dbg !3559
  %52 = extractvalue { i8*, i32 } %51, 0, !dbg !3559
  call void @__clang_call_terminate(i8* %52) #14, !dbg !3559
  unreachable, !dbg !3559

53:                                               ; preds = %34, %49
  call void @llvm.lifetime.end.p0i8(i64 24, i8* nonnull %11) #13, !dbg !3499
  call void @llvm.lifetime.end.p0i8(i64 8, i8* nonnull %10) #13, !dbg !3560
  resume { i8*, i32 } %35, !dbg !3560

54:                                               ; preds = %31, %6
  call void @llvm.dbg.value(metadata %class.String* %9, metadata !3158, metadata !DIExpression()) #13, !dbg !3561
  call void @llvm.dbg.value(metadata %class.String* %9, metadata !3163, metadata !DIExpression()) #13, !dbg !3563
  %55 = getelementptr inbounds %class.String, %class.String* %9, i64 0, i32 0, i32 2, !dbg !3565
  %56 = load %"struct.String::memo_t"*, %"struct.String::memo_t"** %55, align 8, !dbg !3565, !tbaa !3171
  %57 = icmp eq %"struct.String::memo_t"* %56, null, !dbg !3566
  br i1 %57, label %72, label %58, !dbg !3567

58:                                               ; preds = %54
  %59 = getelementptr inbounds %"struct.String::memo_t", %"struct.String::memo_t"* %56, i64 0, i32 0, !dbg !3568
  %60 = load volatile i32, i32* %59, align 4, !dbg !3568, !tbaa !3176
  %61 = icmp eq i32 %60, 0, !dbg !3568
  br i1 %61, label %62, label %63, !dbg !3568

62:                                               ; preds = %58
  call void @__assert_fail(i8* getelementptr inbounds ([18 x i8], [18 x i8]* @.str.21, i64 0, i64 0), i8* getelementptr inbounds ([29 x i8], [29 x i8]* @.str.22, i64 0, i64 0), i32 273, i8* getelementptr inbounds ([27 x i8], [27 x i8]* @__PRETTY_FUNCTION__._ZNK6String5derefEv, i64 0, i64 0)) #14, !dbg !3568
  unreachable, !dbg !3568

63:                                               ; preds = %58
  call void @llvm.dbg.value(metadata i32* %59, metadata !3178, metadata !DIExpression()) #13, !dbg !3569
  %64 = load volatile i32, i32* %59, align 4, !dbg !3571, !tbaa !2706
  %65 = add i32 %64, -1, !dbg !3571
  store volatile i32 %65, i32* %59, align 4, !dbg !3571, !tbaa !2706
  %66 = icmp eq i32 %65, 0, !dbg !3572
  br i1 %66, label %67, label %68, !dbg !3573

67:                                               ; preds = %63
  invoke void @_ZN6String11delete_memoEPNS_6memo_tE(%"struct.String::memo_t"* nonnull %56)
          to label %68 unwind label %69, !dbg !3574

68:                                               ; preds = %67, %63
  store %"struct.String::memo_t"* null, %"struct.String::memo_t"** %55, align 8, !dbg !3575, !tbaa !3171
  br label %72, !dbg !3576

69:                                               ; preds = %67
  %70 = landingpad { i8*, i32 }
          catch i8* null, !dbg !3577
  %71 = extractvalue { i8*, i32 } %70, 0, !dbg !3577
  call void @__clang_call_terminate(i8* %71) #14, !dbg !3577
  unreachable, !dbg !3577

72:                                               ; preds = %54, %68
  call void @llvm.lifetime.end.p0i8(i64 24, i8* nonnull %11) #13, !dbg !3499
  call void @llvm.lifetime.end.p0i8(i64 8, i8* nonnull %10) #13, !dbg !3560
  ret void, !dbg !3560
}

declare void @_ZN4Args4findEPKciRPNS_4SlotE(%class.String* sret, %class.Args*, i8*, i32, %"struct.Args::Slot"** dereferenceable(8)) local_unnamed_addr #2

declare void @_ZN4Args9postparseEbPNS_4SlotE(%class.Args*, i1 zeroext, %"struct.Args::Slot"*) local_unnamed_addr #2

declare i8* @_ZN4Args11simple_slotEPvm(%class.Args*, i8*, i64) local_unnamed_addr #2

; Function Attrs: noinline optnone sspstrong uwtable
define linkonce_odr dso_local void @_Z14args_base_readIbEvP4ArgsPKciRT_(%class.Args* %0, i8* %1, i32 %2, i8* dereferenceable(1) %3) local_unnamed_addr #6 comdat !dbg !3578 {
  %5 = alloca %class.Args*, align 8
  %6 = alloca i8*, align 8
  %7 = alloca i32, align 4
  %8 = alloca i8*, align 8
  store %class.Args* %0, %class.Args** %5, align 8, !tbaa !2915
  call void @llvm.dbg.declare(metadata %class.Args** %5, metadata !3580, metadata !DIExpression()), !dbg !3584
  store i8* %1, i8** %6, align 8, !tbaa !2915
  call void @llvm.dbg.declare(metadata i8** %6, metadata !3581, metadata !DIExpression()), !dbg !3585
  store i32 %2, i32* %7, align 4, !tbaa !2706
  call void @llvm.dbg.declare(metadata i32* %7, metadata !3582, metadata !DIExpression()), !dbg !3586
  store i8* %3, i8** %8, align 8, !tbaa !2915
  call void @llvm.dbg.declare(metadata i8** %8, metadata !3583, metadata !DIExpression()), !dbg !3587
  %9 = load %class.Args*, %class.Args** %5, align 8, !dbg !3588, !tbaa !2915
  %10 = load i8*, i8** %6, align 8, !dbg !3589, !tbaa !2915
  %11 = load i32, i32* %7, align 4, !dbg !3590, !tbaa !2706
  %12 = load i8*, i8** %8, align 8, !dbg !3591, !tbaa !2915
  call void @_ZN4Args9base_readIbEEvPKciRT_(%class.Args* %9, i8* %10, i32 %11, i8* dereferenceable(1) %12), !dbg !3592
  ret void, !dbg !3593
}

; Function Attrs: sspstrong uwtable
define linkonce_odr dso_local void @_ZN4Args9base_readIbEEvPKciRT_(%class.Args* %0, i8* %1, i32 %2, i8* dereferenceable(1) %3) local_unnamed_addr #0 comdat align 2 personality i8* bitcast (i32 (...)* @__gxx_personality_v0 to i8*) !dbg !3594 {
  %5 = alloca %"struct.Args::Slot"*, align 8
  %6 = alloca %class.String, align 8
  call void @llvm.dbg.value(metadata %class.Args* %0, metadata !3599, metadata !DIExpression()), !dbg !3608
  call void @llvm.dbg.value(metadata i8* %1, metadata !3600, metadata !DIExpression()), !dbg !3608
  call void @llvm.dbg.value(metadata i32 %2, metadata !3601, metadata !DIExpression()), !dbg !3608
  call void @llvm.dbg.value(metadata i8* %3, metadata !3602, metadata !DIExpression()), !dbg !3608
  %7 = bitcast %"struct.Args::Slot"** %5 to i8*, !dbg !3609
  call void @llvm.lifetime.start.p0i8(i64 8, i8* nonnull %7) #13, !dbg !3609
  %8 = bitcast %class.String* %6 to i8*, !dbg !3610
  call void @llvm.lifetime.start.p0i8(i64 24, i8* nonnull %8) #13, !dbg !3610
  call void @llvm.dbg.declare(metadata %class.String* %6, metadata !3604, metadata !DIExpression()), !dbg !3611
  call void @llvm.dbg.value(metadata %"struct.Args::Slot"** %5, metadata !3603, metadata !DIExpression(DW_OP_deref)), !dbg !3608
  call void @_ZN4Args4findEPKciRPNS_4SlotE(%class.String* nonnull sret %6, %class.Args* %0, i8* %1, i32 %2, %"struct.Args::Slot"** nonnull dereferenceable(8) %5), !dbg !3612
  call void @llvm.dbg.value(metadata %class.String* %6, metadata !3502, metadata !DIExpression()), !dbg !3613
  %9 = getelementptr inbounds %class.String, %class.String* %6, i64 0, i32 0, i32 1, !dbg !3615
  %10 = load i32, i32* %9, align 8, !dbg !3615, !tbaa !3095
  %11 = icmp eq i32 %10, 0, !dbg !3616
  %12 = select i1 %11, { i64, i64 } zeroinitializer, { i64, i64 } { i64 ptrtoint (i32 (%class.String*)* @_ZNK6String6lengthEv to i64), i64 0 }, !dbg !3617
  %13 = extractvalue { i64, i64 } %12, 0, !dbg !3611
  %14 = icmp eq i64 %13, 0, !dbg !3611
  br i1 %14, label %45, label %15, !dbg !3610

15:                                               ; preds = %4
  call void @llvm.dbg.value(metadata i8* %3, metadata !3618, metadata !DIExpression()), !dbg !3640
  call void @llvm.dbg.value(metadata %class.Args* %0, metadata !3639, metadata !DIExpression()), !dbg !3640
  call void @llvm.dbg.value(metadata %class.Args* %0, metadata !3642, metadata !DIExpression()), !dbg !3649
  call void @llvm.dbg.value(metadata i8* %3, metadata !3648, metadata !DIExpression()), !dbg !3649
  %16 = invoke i8* @_ZN4Args11simple_slotEPvm(%class.Args* nonnull %0, i8* nonnull %3, i64 1)
          to label %17 unwind label %25, !dbg !3651

17:                                               ; preds = %15
  call void @llvm.dbg.value(metadata i8* %16, metadata !3606, metadata !DIExpression()), !dbg !3653
  %18 = icmp eq i8* %16, null, !dbg !3654
  br i1 %18, label %22, label %19, !dbg !3655

19:                                               ; preds = %17
  call void @llvm.dbg.value(metadata %class.String* %6, metadata !3656, metadata !DIExpression()), !dbg !3665
  call void @llvm.dbg.value(metadata i8* %16, metadata !3663, metadata !DIExpression()), !dbg !3665
  call void @llvm.dbg.value(metadata %class.Args* %0, metadata !3664, metadata !DIExpression()), !dbg !3665
  %20 = bitcast %class.Args* %0 to %class.ArgContext*, !dbg !3667
  %21 = invoke zeroext i1 @_ZN7BoolArg5parseERK6StringRbRK10ArgContext(%class.String* nonnull dereferenceable(24) %6, i8* nonnull dereferenceable(1) %16, %class.ArgContext* nonnull dereferenceable(32) %20)
          to label %22 unwind label %25, !dbg !3668

22:                                               ; preds = %19, %17
  %23 = phi i1 [ false, %17 ], [ %21, %19 ], !dbg !3653
  %24 = load %"struct.Args::Slot"*, %"struct.Args::Slot"** %5, align 8, !dbg !3669, !tbaa !2915
  call void @llvm.dbg.value(metadata %"struct.Args::Slot"* %24, metadata !3603, metadata !DIExpression()), !dbg !3608
  invoke void @_ZN4Args9postparseEbPNS_4SlotE(%class.Args* nonnull %0, i1 zeroext %23, %"struct.Args::Slot"* %24)
          to label %45 unwind label %25, !dbg !3670

25:                                               ; preds = %19, %15, %22
  %26 = landingpad { i8*, i32 }
          cleanup, !dbg !3671
  call void @llvm.dbg.value(metadata %class.String* %6, metadata !3158, metadata !DIExpression()) #13, !dbg !3672
  call void @llvm.dbg.value(metadata %class.String* %6, metadata !3163, metadata !DIExpression()) #13, !dbg !3674
  %27 = getelementptr inbounds %class.String, %class.String* %6, i64 0, i32 0, i32 2, !dbg !3676
  %28 = load %"struct.String::memo_t"*, %"struct.String::memo_t"** %27, align 8, !dbg !3676, !tbaa !3171
  %29 = icmp eq %"struct.String::memo_t"* %28, null, !dbg !3677
  br i1 %29, label %44, label %30, !dbg !3678

30:                                               ; preds = %25
  %31 = getelementptr inbounds %"struct.String::memo_t", %"struct.String::memo_t"* %28, i64 0, i32 0, !dbg !3679
  %32 = load volatile i32, i32* %31, align 4, !dbg !3679, !tbaa !3176
  %33 = icmp eq i32 %32, 0, !dbg !3679
  br i1 %33, label %34, label %35, !dbg !3679

34:                                               ; preds = %30
  call void @__assert_fail(i8* getelementptr inbounds ([18 x i8], [18 x i8]* @.str.21, i64 0, i64 0), i8* getelementptr inbounds ([29 x i8], [29 x i8]* @.str.22, i64 0, i64 0), i32 273, i8* getelementptr inbounds ([27 x i8], [27 x i8]* @__PRETTY_FUNCTION__._ZNK6String5derefEv, i64 0, i64 0)) #14, !dbg !3679
  unreachable, !dbg !3679

35:                                               ; preds = %30
  call void @llvm.dbg.value(metadata i32* %31, metadata !3178, metadata !DIExpression()) #13, !dbg !3680
  %36 = load volatile i32, i32* %31, align 4, !dbg !3682, !tbaa !2706
  %37 = add i32 %36, -1, !dbg !3682
  store volatile i32 %37, i32* %31, align 4, !dbg !3682, !tbaa !2706
  %38 = icmp eq i32 %37, 0, !dbg !3683
  br i1 %38, label %39, label %40, !dbg !3684

39:                                               ; preds = %35
  invoke void @_ZN6String11delete_memoEPNS_6memo_tE(%"struct.String::memo_t"* nonnull %28)
          to label %40 unwind label %41, !dbg !3685

40:                                               ; preds = %39, %35
  store %"struct.String::memo_t"* null, %"struct.String::memo_t"** %27, align 8, !dbg !3686, !tbaa !3171
  br label %44, !dbg !3687

41:                                               ; preds = %39
  %42 = landingpad { i8*, i32 }
          catch i8* null, !dbg !3688
  %43 = extractvalue { i8*, i32 } %42, 0, !dbg !3688
  call void @__clang_call_terminate(i8* %43) #14, !dbg !3688
  unreachable, !dbg !3688

44:                                               ; preds = %25, %40
  call void @llvm.lifetime.end.p0i8(i64 24, i8* nonnull %8) #13, !dbg !3610
  call void @llvm.lifetime.end.p0i8(i64 8, i8* nonnull %7) #13, !dbg !3689
  resume { i8*, i32 } %26, !dbg !3689

45:                                               ; preds = %22, %4
  call void @llvm.dbg.value(metadata %class.String* %6, metadata !3158, metadata !DIExpression()) #13, !dbg !3690
  call void @llvm.dbg.value(metadata %class.String* %6, metadata !3163, metadata !DIExpression()) #13, !dbg !3692
  %46 = getelementptr inbounds %class.String, %class.String* %6, i64 0, i32 0, i32 2, !dbg !3694
  %47 = load %"struct.String::memo_t"*, %"struct.String::memo_t"** %46, align 8, !dbg !3694, !tbaa !3171
  %48 = icmp eq %"struct.String::memo_t"* %47, null, !dbg !3695
  br i1 %48, label %63, label %49, !dbg !3696

49:                                               ; preds = %45
  %50 = getelementptr inbounds %"struct.String::memo_t", %"struct.String::memo_t"* %47, i64 0, i32 0, !dbg !3697
  %51 = load volatile i32, i32* %50, align 4, !dbg !3697, !tbaa !3176
  %52 = icmp eq i32 %51, 0, !dbg !3697
  br i1 %52, label %53, label %54, !dbg !3697

53:                                               ; preds = %49
  call void @__assert_fail(i8* getelementptr inbounds ([18 x i8], [18 x i8]* @.str.21, i64 0, i64 0), i8* getelementptr inbounds ([29 x i8], [29 x i8]* @.str.22, i64 0, i64 0), i32 273, i8* getelementptr inbounds ([27 x i8], [27 x i8]* @__PRETTY_FUNCTION__._ZNK6String5derefEv, i64 0, i64 0)) #14, !dbg !3697
  unreachable, !dbg !3697

54:                                               ; preds = %49
  call void @llvm.dbg.value(metadata i32* %50, metadata !3178, metadata !DIExpression()) #13, !dbg !3698
  %55 = load volatile i32, i32* %50, align 4, !dbg !3700, !tbaa !2706
  %56 = add i32 %55, -1, !dbg !3700
  store volatile i32 %56, i32* %50, align 4, !dbg !3700, !tbaa !2706
  %57 = icmp eq i32 %56, 0, !dbg !3701
  br i1 %57, label %58, label %59, !dbg !3702

58:                                               ; preds = %54
  invoke void @_ZN6String11delete_memoEPNS_6memo_tE(%"struct.String::memo_t"* nonnull %47)
          to label %59 unwind label %60, !dbg !3703

59:                                               ; preds = %58, %54
  store %"struct.String::memo_t"* null, %"struct.String::memo_t"** %46, align 8, !dbg !3704, !tbaa !3171
  br label %63, !dbg !3705

60:                                               ; preds = %58
  %61 = landingpad { i8*, i32 }
          catch i8* null, !dbg !3706
  %62 = extractvalue { i8*, i32 } %61, 0, !dbg !3706
  call void @__clang_call_terminate(i8* %62) #14, !dbg !3706
  unreachable, !dbg !3706

63:                                               ; preds = %45, %59
  call void @llvm.lifetime.end.p0i8(i64 24, i8* nonnull %8) #13, !dbg !3610
  call void @llvm.lifetime.end.p0i8(i64 8, i8* nonnull %7) #13, !dbg !3689
  ret void, !dbg !3689
}

declare zeroext i1 @_ZN7BoolArg5parseERK6StringRbRK10ArgContext(%class.String* dereferenceable(24), i8* dereferenceable(1), %class.ArgContext* dereferenceable(32)) local_unnamed_addr #2

; Function Attrs: nounwind readnone speculatable willreturn
declare void @llvm.dbg.value(metadata, metadata, metadata) #1

attributes #0 = { sspstrong uwtable "correctly-rounded-divide-sqrt-fp-math"="false" "disable-tail-calls"="false" "frame-pointer"="none" "less-precise-fpmad"="false" "min-legal-vector-width"="0" "no-infs-fp-math"="false" "no-jump-tables"="false" "no-nans-fp-math"="false" "no-signed-zeros-fp-math"="false" "no-trapping-math"="false" "stack-protector-buffer-size"="8" "target-cpu"="x86-64" "target-features"="+cx8,+fxsr,+mmx,+sse,+sse2,+x87" "unsafe-fp-math"="false" "use-soft-float"="false" }
attributes #1 = { nounwind readnone speculatable willreturn }
attributes #2 = { "correctly-rounded-divide-sqrt-fp-math"="false" "disable-tail-calls"="false" "frame-pointer"="none" "less-precise-fpmad"="false" "no-infs-fp-math"="false" "no-nans-fp-math"="false" "no-signed-zeros-fp-math"="false" "no-trapping-math"="false" "stack-protector-buffer-size"="8" "target-cpu"="x86-64" "target-features"="+cx8,+fxsr,+mmx,+sse,+sse2,+x87" "unsafe-fp-math"="false" "use-soft-float"="false" }
attributes #3 = { argmemonly nounwind willreturn }
attributes #4 = { nounwind "correctly-rounded-divide-sqrt-fp-math"="false" "disable-tail-calls"="false" "frame-pointer"="none" "less-precise-fpmad"="false" "no-infs-fp-math"="false" "no-nans-fp-math"="false" "no-signed-zeros-fp-math"="false" "no-trapping-math"="false" "stack-protector-buffer-size"="8" "target-cpu"="x86-64" "target-features"="+cx8,+fxsr,+mmx,+sse,+sse2,+x87" "unsafe-fp-math"="false" "use-soft-float"="false" }
attributes #5 = { nofree norecurse nounwind sspstrong uwtable writeonly "correctly-rounded-divide-sqrt-fp-math"="false" "disable-tail-calls"="false" "frame-pointer"="none" "less-precise-fpmad"="false" "min-legal-vector-width"="0" "no-infs-fp-math"="false" "no-jump-tables"="false" "no-nans-fp-math"="false" "no-signed-zeros-fp-math"="false" "no-trapping-math"="false" "stack-protector-buffer-size"="8" "target-cpu"="x86-64" "target-features"="+cx8,+fxsr,+mmx,+sse,+sse2,+x87" "unsafe-fp-math"="false" "use-soft-float"="false" }
attributes #6 = { noinline optnone sspstrong uwtable "correctly-rounded-divide-sqrt-fp-math"="false" "disable-tail-calls"="false" "frame-pointer"="none" "less-precise-fpmad"="false" "min-legal-vector-width"="0" "no-infs-fp-math"="false" "no-jump-tables"="false" "no-nans-fp-math"="false" "no-signed-zeros-fp-math"="false" "no-trapping-math"="false" "stack-protector-buffer-size"="8" "target-cpu"="x86-64" "target-features"="+cx8,+fxsr,+mmx,+sse,+sse2,+x87" "unsafe-fp-math"="false" "use-soft-float"="false" }
attributes #7 = { noinline nounwind optnone sspstrong uwtable "correctly-rounded-divide-sqrt-fp-math"="false" "disable-tail-calls"="false" "frame-pointer"="none" "less-precise-fpmad"="false" "min-legal-vector-width"="0" "no-infs-fp-math"="false" "no-jump-tables"="false" "no-nans-fp-math"="false" "no-signed-zeros-fp-math"="false" "no-trapping-math"="false" "stack-protector-buffer-size"="8" "target-cpu"="x86-64" "target-features"="+cx8,+fxsr,+mmx,+sse,+sse2,+x87" "unsafe-fp-math"="false" "use-soft-float"="false" }
attributes #8 = { inlinehint nounwind sspstrong uwtable "correctly-rounded-divide-sqrt-fp-math"="false" "disable-tail-calls"="false" "frame-pointer"="none" "less-precise-fpmad"="false" "min-legal-vector-width"="0" "no-infs-fp-math"="false" "no-jump-tables"="false" "no-nans-fp-math"="false" "no-signed-zeros-fp-math"="false" "no-trapping-math"="false" "stack-protector-buffer-size"="8" "target-cpu"="x86-64" "target-features"="+cx8,+fxsr,+mmx,+sse,+sse2,+x87" "unsafe-fp-math"="false" "use-soft-float"="false" }
attributes #9 = { nounwind sspstrong uwtable "correctly-rounded-divide-sqrt-fp-math"="false" "disable-tail-calls"="false" "frame-pointer"="none" "less-precise-fpmad"="false" "min-legal-vector-width"="0" "no-infs-fp-math"="false" "no-jump-tables"="false" "no-nans-fp-math"="false" "no-signed-zeros-fp-math"="false" "no-trapping-math"="false" "stack-protector-buffer-size"="8" "target-cpu"="x86-64" "target-features"="+cx8,+fxsr,+mmx,+sse,+sse2,+x87" "unsafe-fp-math"="false" "use-soft-float"="false" }
attributes #10 = { noreturn nounwind "correctly-rounded-divide-sqrt-fp-math"="false" "disable-tail-calls"="false" "frame-pointer"="none" "less-precise-fpmad"="false" "no-infs-fp-math"="false" "no-nans-fp-math"="false" "no-signed-zeros-fp-math"="false" "no-trapping-math"="false" "stack-protector-buffer-size"="8" "target-cpu"="x86-64" "target-features"="+cx8,+fxsr,+mmx,+sse,+sse2,+x87" "unsafe-fp-math"="false" "use-soft-float"="false" }
attributes #11 = { noinline noreturn nounwind }
attributes #12 = { nobuiltin nounwind "correctly-rounded-divide-sqrt-fp-math"="false" "disable-tail-calls"="false" "frame-pointer"="none" "less-precise-fpmad"="false" "no-infs-fp-math"="false" "no-nans-fp-math"="false" "no-signed-zeros-fp-math"="false" "no-trapping-math"="false" "stack-protector-buffer-size"="8" "target-cpu"="x86-64" "target-features"="+cx8,+fxsr,+mmx,+sse,+sse2,+x87" "unsafe-fp-math"="false" "use-soft-float"="false" }
attributes #13 = { nounwind }
attributes #14 = { noreturn nounwind }
attributes #15 = { builtin nounwind }

!llvm.dbg.cu = !{!0}
!llvm.module.flags = !{!2677, !2678, !2679, !2680, !2681}
!llvm.ident = !{!2682}

!0 = distinct !DICompileUnit(language: DW_LANG_C_plus_plus_14, file: !1, producer: "clang version 10.0.0 ", isOptimized: true, runtimeVersion: 0, emissionKind: FullDebug, enums: !2, retainedTypes: !1672, imports: !2058, splitDebugInlining: false, nameTableKind: None)
!1 = !DIFile(filename: "../elements/standard/randomsample.cc", directory: "/home/john/projects/click/ir-dir")
!2 = !{!3, !651, !1097, !1406, !1409, !1414, !1515}
!3 = !DICompositeType(tag: DW_TAG_enumeration_type, scope: !5, file: !4, line: 83, baseType: !15, size: 32, elements: !1404, identifier: "_ZTSN12RandomSampleUt_E")
!4 = !DIFile(filename: "../elements/standard/randomsample.hh", directory: "/home/john/projects/click/ir-dir")
!5 = distinct !DICompositeType(tag: DW_TAG_class_type, name: "RandomSample", file: !4, line: 65, size: 960, flags: DIFlagTypePassByReference | DIFlagNonTrivial, elements: !6, vtableHolder: !8)
!6 = !{!7, !10, !16, !18, !82, !86, !94, !95, !96, !597, !600, !603, !604, !1394, !1397, !1401}
!7 = !DIDerivedType(tag: DW_TAG_inheritance, scope: !5, baseType: !8, flags: DIFlagPublic, extraData: i32 0)
!8 = !DICompositeType(tag: DW_TAG_class_type, name: "Element", file: !9, line: 29, flags: DIFlagFwdDecl, identifier: "_ZTS7Element")
!9 = !DIFile(filename: "../dummy_inc/click/element.hh", directory: "/home/john/projects/click/ir-dir")
!10 = !DIDerivedType(tag: DW_TAG_member, name: "_sampling_prob", scope: !5, file: !4, line: 88, baseType: !11, size: 32, offset: 864)
!11 = !DIDerivedType(tag: DW_TAG_typedef, name: "uint32_t", file: !12, line: 26, baseType: !13)
!12 = !DIFile(filename: "/usr/include/bits/stdint-uintn.h", directory: "")
!13 = !DIDerivedType(tag: DW_TAG_typedef, name: "__uint32_t", file: !14, line: 42, baseType: !15)
!14 = !DIFile(filename: "/usr/include/bits/types.h", directory: "")
!15 = !DIBasicType(name: "unsigned int", size: 32, encoding: DW_ATE_unsigned)
!16 = !DIDerivedType(tag: DW_TAG_member, name: "_active", scope: !5, file: !4, line: 89, baseType: !17, size: 8, offset: 896)
!17 = !DIBasicType(name: "bool", size: 8, encoding: DW_ATE_boolean)
!18 = !DIDerivedType(tag: DW_TAG_member, name: "_drops", scope: !5, file: !4, line: 90, baseType: !19, size: 32, offset: 928)
!19 = distinct !DICompositeType(tag: DW_TAG_class_type, name: "atomic_uint32_t", file: !20, line: 52, size: 32, flags: DIFlagTypePassByValue, elements: !21, identifier: "_ZTS15atomic_uint32_t")
!20 = !DIFile(filename: "../dummy_inc/click/atomic.hh", directory: "/home/john/projects/click/ir-dir")
!21 = !{!22, !23, !28, !29, !34, !41, !42, !43, !44, !47, !50, !51, !52, !55, !56, !59, !62, !65, !70, !73, !76, !79}
!22 = !DIDerivedType(tag: DW_TAG_member, name: "_val", scope: !19, file: !20, line: 91, baseType: !11, size: 32)
!23 = !DISubprogram(name: "value", linkageName: "_ZNK15atomic_uint32_t5valueEv", scope: !19, file: !20, line: 57, type: !24, scopeLine: 57, flags: DIFlagPublic | DIFlagPrototyped, spFlags: DISPFlagOptimized)
!24 = !DISubroutineType(types: !25)
!25 = !{!11, !26}
!26 = !DIDerivedType(tag: DW_TAG_pointer_type, baseType: !27, size: 64, flags: DIFlagArtificial | DIFlagObjectPointer)
!27 = !DIDerivedType(tag: DW_TAG_const_type, baseType: !19)
!28 = !DISubprogram(name: "operator unsigned int", linkageName: "_ZNK15atomic_uint32_tcvjEv", scope: !19, file: !20, line: 58, type: !24, scopeLine: 58, flags: DIFlagPublic | DIFlagPrototyped, spFlags: DISPFlagOptimized)
!29 = !DISubprogram(name: "operator=", linkageName: "_ZN15atomic_uint32_taSEj", scope: !19, file: !20, line: 60, type: !30, scopeLine: 60, flags: DIFlagPublic | DIFlagPrototyped, spFlags: DISPFlagOptimized)
!30 = !DISubroutineType(types: !31)
!31 = !{!32, !33, !11}
!32 = !DIDerivedType(tag: DW_TAG_reference_type, baseType: !19, size: 64)
!33 = !DIDerivedType(tag: DW_TAG_pointer_type, baseType: !19, size: 64, flags: DIFlagArtificial | DIFlagObjectPointer)
!34 = !DISubprogram(name: "operator+=", linkageName: "_ZN15atomic_uint32_tpLEi", scope: !19, file: !20, line: 62, type: !35, scopeLine: 62, flags: DIFlagPublic | DIFlagPrototyped, spFlags: DISPFlagOptimized)
!35 = !DISubroutineType(types: !36)
!36 = !{!32, !33, !37}
!37 = !DIDerivedType(tag: DW_TAG_typedef, name: "int32_t", file: !38, line: 26, baseType: !39)
!38 = !DIFile(filename: "/usr/include/bits/stdint-intn.h", directory: "")
!39 = !DIDerivedType(tag: DW_TAG_typedef, name: "__int32_t", file: !14, line: 41, baseType: !40)
!40 = !DIBasicType(name: "int", size: 32, encoding: DW_ATE_signed)
!41 = !DISubprogram(name: "operator-=", linkageName: "_ZN15atomic_uint32_tmIEi", scope: !19, file: !20, line: 63, type: !35, scopeLine: 63, flags: DIFlagPublic | DIFlagPrototyped, spFlags: DISPFlagOptimized)
!42 = !DISubprogram(name: "operator|=", linkageName: "_ZN15atomic_uint32_toREj", scope: !19, file: !20, line: 64, type: !30, scopeLine: 64, flags: DIFlagPublic | DIFlagPrototyped, spFlags: DISPFlagOptimized)
!43 = !DISubprogram(name: "operator&=", linkageName: "_ZN15atomic_uint32_taNEj", scope: !19, file: !20, line: 65, type: !30, scopeLine: 65, flags: DIFlagPublic | DIFlagPrototyped, spFlags: DISPFlagOptimized)
!44 = !DISubprogram(name: "operator++", linkageName: "_ZN15atomic_uint32_tppEv", scope: !19, file: !20, line: 67, type: !45, scopeLine: 67, flags: DIFlagPublic | DIFlagPrototyped, spFlags: DISPFlagOptimized)
!45 = !DISubroutineType(types: !46)
!46 = !{null, !33}
!47 = !DISubprogram(name: "operator++", linkageName: "_ZN15atomic_uint32_tppEi", scope: !19, file: !20, line: 68, type: !48, scopeLine: 68, flags: DIFlagPublic | DIFlagPrototyped, spFlags: DISPFlagOptimized)
!48 = !DISubroutineType(types: !49)
!49 = !{null, !33, !40}
!50 = !DISubprogram(name: "operator--", linkageName: "_ZN15atomic_uint32_tmmEv", scope: !19, file: !20, line: 69, type: !45, scopeLine: 69, flags: DIFlagPublic | DIFlagPrototyped, spFlags: DISPFlagOptimized)
!51 = !DISubprogram(name: "operator--", linkageName: "_ZN15atomic_uint32_tmmEi", scope: !19, file: !20, line: 70, type: !48, scopeLine: 70, flags: DIFlagPublic | DIFlagPrototyped, spFlags: DISPFlagOptimized)
!52 = !DISubprogram(name: "swap", linkageName: "_ZN15atomic_uint32_t4swapEj", scope: !19, file: !20, line: 72, type: !53, scopeLine: 72, flags: DIFlagPublic | DIFlagPrototyped, spFlags: DISPFlagOptimized)
!53 = !DISubroutineType(types: !54)
!54 = !{!11, !33, !11}
!55 = !DISubprogram(name: "fetch_and_add", linkageName: "_ZN15atomic_uint32_t13fetch_and_addEj", scope: !19, file: !20, line: 73, type: !53, scopeLine: 73, flags: DIFlagPublic | DIFlagPrototyped, spFlags: DISPFlagOptimized)
!56 = !DISubprogram(name: "dec_and_test", linkageName: "_ZN15atomic_uint32_t12dec_and_testEv", scope: !19, file: !20, line: 74, type: !57, scopeLine: 74, flags: DIFlagPublic | DIFlagPrototyped, spFlags: DISPFlagOptimized)
!57 = !DISubroutineType(types: !58)
!58 = !{!17, !33}
!59 = !DISubprogram(name: "compare_swap", linkageName: "_ZN15atomic_uint32_t12compare_swapEjj", scope: !19, file: !20, line: 75, type: !60, scopeLine: 75, flags: DIFlagPublic | DIFlagPrototyped, spFlags: DISPFlagOptimized)
!60 = !DISubroutineType(types: !61)
!61 = !{!11, !33, !11, !11}
!62 = !DISubprogram(name: "compare_and_swap", linkageName: "_ZN15atomic_uint32_t16compare_and_swapEjj", scope: !19, file: !20, line: 76, type: !63, scopeLine: 76, flags: DIFlagPublic | DIFlagPrototyped, spFlags: DISPFlagOptimized)
!63 = !DISubroutineType(types: !64)
!64 = !{!17, !33, !11, !11}
!65 = !DISubprogram(name: "swap", linkageName: "_ZN15atomic_uint32_t4swapERVjj", scope: !19, file: !20, line: 78, type: !66, scopeLine: 78, flags: DIFlagPublic | DIFlagPrototyped | DIFlagStaticMember, spFlags: DISPFlagOptimized)
!66 = !DISubroutineType(types: !67)
!67 = !{!11, !68, !11}
!68 = !DIDerivedType(tag: DW_TAG_reference_type, baseType: !69, size: 64)
!69 = !DIDerivedType(tag: DW_TAG_volatile_type, baseType: !11)
!70 = !DISubprogram(name: "inc", linkageName: "_ZN15atomic_uint32_t3incERVj", scope: !19, file: !20, line: 79, type: !71, scopeLine: 79, flags: DIFlagPublic | DIFlagPrototyped | DIFlagStaticMember, spFlags: DISPFlagOptimized)
!71 = !DISubroutineType(types: !72)
!72 = !{null, !68}
!73 = !DISubprogram(name: "dec_and_test", linkageName: "_ZN15atomic_uint32_t12dec_and_testERVj", scope: !19, file: !20, line: 80, type: !74, scopeLine: 80, flags: DIFlagPublic | DIFlagPrototyped | DIFlagStaticMember, spFlags: DISPFlagOptimized)
!74 = !DISubroutineType(types: !75)
!75 = !{!17, !68}
!76 = !DISubprogram(name: "compare_swap", linkageName: "_ZN15atomic_uint32_t12compare_swapERVjjj", scope: !19, file: !20, line: 81, type: !77, scopeLine: 81, flags: DIFlagPublic | DIFlagPrototyped | DIFlagStaticMember, spFlags: DISPFlagOptimized)
!77 = !DISubroutineType(types: !78)
!78 = !{!11, !68, !11, !11}
!79 = !DISubprogram(name: "compare_and_swap", linkageName: "_ZN15atomic_uint32_t16compare_and_swapERVjjj", scope: !19, file: !20, line: 82, type: !80, scopeLine: 82, flags: DIFlagPublic | DIFlagPrototyped | DIFlagStaticMember, spFlags: DISPFlagOptimized)
!80 = !DISubroutineType(types: !81)
!81 = !{!17, !68, !11, !11}
!82 = !DISubprogram(name: "RandomSample", scope: !5, file: !4, line: 67, type: !83, scopeLine: 67, flags: DIFlagPublic | DIFlagPrototyped, spFlags: DISPFlagOptimized)
!83 = !DISubroutineType(types: !84)
!84 = !{null, !85}
!85 = !DIDerivedType(tag: DW_TAG_pointer_type, baseType: !5, size: 64, flags: DIFlagArtificial | DIFlagObjectPointer)
!86 = !DISubprogram(name: "class_name", linkageName: "_ZNK12RandomSample10class_nameEv", scope: !5, file: !4, line: 69, type: !87, scopeLine: 69, containingType: !5, virtualIndex: 9, flags: DIFlagPublic | DIFlagPrototyped, spFlags: DISPFlagVirtual | DISPFlagOptimized)
!87 = !DISubroutineType(types: !88)
!88 = !{!89, !92}
!89 = !DIDerivedType(tag: DW_TAG_pointer_type, baseType: !90, size: 64)
!90 = !DIDerivedType(tag: DW_TAG_const_type, baseType: !91)
!91 = !DIBasicType(name: "char", size: 8, encoding: DW_ATE_signed_char)
!92 = !DIDerivedType(tag: DW_TAG_pointer_type, baseType: !93, size: 64, flags: DIFlagArtificial | DIFlagObjectPointer)
!93 = !DIDerivedType(tag: DW_TAG_const_type, baseType: !5)
!94 = !DISubprogram(name: "port_count", linkageName: "_ZNK12RandomSample10port_countEv", scope: !5, file: !4, line: 70, type: !87, scopeLine: 70, containingType: !5, virtualIndex: 10, flags: DIFlagPublic | DIFlagPrototyped, spFlags: DISPFlagVirtual | DISPFlagOptimized)
!95 = !DISubprogram(name: "processing", linkageName: "_ZNK12RandomSample10processingEv", scope: !5, file: !4, line: 71, type: !87, scopeLine: 71, containingType: !5, virtualIndex: 11, flags: DIFlagPublic | DIFlagPrototyped, spFlags: DISPFlagVirtual | DISPFlagOptimized)
!96 = !DISubprogram(name: "configure", linkageName: "_ZN12RandomSample9configureER6VectorI6StringEP12ErrorHandler", scope: !5, file: !4, line: 73, type: !97, scopeLine: 73, containingType: !5, virtualIndex: 17, flags: DIFlagPublic | DIFlagPrototyped, spFlags: DISPFlagVirtual | DISPFlagOptimized)
!97 = !DISubroutineType(types: !98)
!98 = !{!40, !85, !99, !594}
!99 = !DIDerivedType(tag: DW_TAG_reference_type, baseType: !100, size: 64)
!100 = distinct !DICompositeType(tag: DW_TAG_class_type, name: "Vector<String>", file: !101, line: 111, size: 128, flags: DIFlagTypePassByReference | DIFlagNonTrivial, elements: !102, templateParams: !437, identifier: "_ZTS6VectorI6StringE")
!101 = !DIFile(filename: "../dummy_inc/click/vector.hh", directory: "/home/john/projects/click/ir-dir")
!102 = !{!103, !490, !494, !507, !512, !516, !519, !522, !525, !529, !530, !535, !536, !537, !538, !541, !542, !545, !546, !549, !552, !555, !556, !557, !560, !563, !564, !565, !566, !567, !568, !569, !572, !575, !578, !579, !580, !581, !584, !587, !590, !591}
!103 = !DIDerivedType(tag: DW_TAG_member, name: "vm_", scope: !100, file: !101, line: 114, baseType: !104, size: 128)
!104 = distinct !DICompositeType(tag: DW_TAG_class_type, name: "vector_memory<typed_array_memory<String> >", file: !101, line: 11, size: 128, flags: DIFlagTypePassByReference | DIFlagNonTrivial, elements: !105, templateParams: !488, identifier: "_ZTS13vector_memoryI18typed_array_memoryI6StringEE")
!105 = !{!106, !439, !441, !442, !449, !453, !454, !458, !461, !462, !466, !467, !470, !473, !476, !479, !480, !481, !484}
!106 = !DIDerivedType(tag: DW_TAG_member, name: "l_", scope: !104, file: !101, line: 68, baseType: !107, size: 64, flags: DIFlagPublic)
!107 = !DIDerivedType(tag: DW_TAG_pointer_type, baseType: !108, size: 64)
!108 = !DIDerivedType(tag: DW_TAG_typedef, name: "type", scope: !104, file: !101, line: 13, baseType: !109)
!109 = !DIDerivedType(tag: DW_TAG_typedef, name: "type", scope: !111, file: !110, line: 58, baseType: !117)
!110 = !DIFile(filename: "../dummy_inc/click/array_memory.hh", directory: "/home/john/projects/click/ir-dir")
!111 = distinct !DICompositeType(tag: DW_TAG_class_type, name: "typed_array_memory<String>", file: !110, line: 57, size: 8, flags: DIFlagTypePassByValue, elements: !112, templateParams: !437, identifier: "_ZTS18typed_array_memoryI6StringE")
!112 = !{!113, !415, !419, !424, !427, !430, !431, !432, !435, !436}
!113 = !DISubprogram(name: "cast", linkageName: "_ZN18typed_array_memoryI6StringE4castEPS0_", scope: !111, file: !110, line: 59, type: !114, scopeLine: 59, flags: DIFlagPublic | DIFlagPrototyped | DIFlagStaticMember, spFlags: DISPFlagOptimized)
!114 = !DISubroutineType(types: !115)
!115 = !{!116, !116}
!116 = !DIDerivedType(tag: DW_TAG_pointer_type, baseType: !117, size: 64)
!117 = distinct !DICompositeType(tag: DW_TAG_class_type, name: "String", file: !118, line: 19, size: 192, flags: DIFlagTypePassByReference | DIFlagNonTrivial, elements: !119, identifier: "_ZTS6String")
!118 = !DIFile(filename: "../dummy_inc/click/string.hh", directory: "/home/john/projects/click/ir-dir")
!119 = !{!120, !124, !140, !141, !145, !149, !151, !152, !156, !161, !165, !168, !171, !177, !180, !183, !186, !189, !192, !195, !198, !202, !206, !210, !214, !218, !219, !222, !225, !226, !229, !232, !235, !241, !247, !251, !254, !255, !260, !263, !264, !268, !269, !272, !273, !276, !277, !280, !283, !286, !289, !292, !295, !298, !301, !304, !307, !310, !313, !314, !315, !316, !319, !322, !323, !324, !325, !326, !327, !328, !332, !335, !338, !341, !342, !343, !344, !345, !346, !349, !353, !354, !355, !356, !359, !360, !361, !362, !363, !364, !367, !368, !369, !370, !373, !376, !377, !380, !383, !386, !389, !392, !395, !398, !399, !400, !401, !404, !407, !410, !411, !412}
!120 = !DIDerivedType(tag: DW_TAG_member, name: "bool_data", scope: !117, file: !118, line: 184, baseType: !121, flags: DIFlagPublic | DIFlagStaticMember)
!121 = !DICompositeType(tag: DW_TAG_array_type, baseType: !90, size: 88, elements: !122)
!122 = !{!123}
!123 = !DISubrange(count: 11)
!124 = !DIDerivedType(tag: DW_TAG_member, name: "_r", scope: !117, file: !118, line: 211, baseType: !125, size: 192)
!125 = distinct !DICompositeType(tag: DW_TAG_structure_type, name: "rep_t", scope: !117, file: !118, line: 204, size: 192, flags: DIFlagTypePassByValue, elements: !126, identifier: "_ZTSN6String5rep_tE")
!126 = !{!127, !128, !129}
!127 = !DIDerivedType(tag: DW_TAG_member, name: "data", scope: !125, file: !118, line: 205, baseType: !89, size: 64)
!128 = !DIDerivedType(tag: DW_TAG_member, name: "length", scope: !125, file: !118, line: 206, baseType: !40, size: 32, offset: 64)
!129 = !DIDerivedType(tag: DW_TAG_member, name: "memo", scope: !125, file: !118, line: 207, baseType: !130, size: 64, offset: 128)
!130 = !DIDerivedType(tag: DW_TAG_pointer_type, baseType: !131, size: 64)
!131 = distinct !DICompositeType(tag: DW_TAG_structure_type, name: "memo_t", scope: !117, file: !118, line: 189, size: 160, flags: DIFlagTypePassByValue, elements: !132, identifier: "_ZTSN6String6memo_tE")
!132 = !{!133, !134, !135, !136}
!133 = !DIDerivedType(tag: DW_TAG_member, name: "refcount", scope: !131, file: !118, line: 190, baseType: !69, size: 32)
!134 = !DIDerivedType(tag: DW_TAG_member, name: "capacity", scope: !131, file: !118, line: 191, baseType: !11, size: 32, offset: 32)
!135 = !DIDerivedType(tag: DW_TAG_member, name: "dirty", scope: !131, file: !118, line: 192, baseType: !69, size: 32, offset: 64)
!136 = !DIDerivedType(tag: DW_TAG_member, name: "real_data", scope: !131, file: !118, line: 197, baseType: !137, size: 64, offset: 96)
!137 = !DICompositeType(tag: DW_TAG_array_type, baseType: !91, size: 64, elements: !138)
!138 = !{!139}
!139 = !DISubrange(count: 8)
!140 = !DIDerivedType(tag: DW_TAG_member, name: "null_data", scope: !117, file: !118, line: 292, baseType: !90, flags: DIFlagStaticMember)
!141 = !DIDerivedType(tag: DW_TAG_member, name: "oom_data", scope: !117, file: !118, line: 293, baseType: !142, flags: DIFlagStaticMember)
!142 = !DICompositeType(tag: DW_TAG_array_type, baseType: !90, size: 120, elements: !143)
!143 = !{!144}
!144 = !DISubrange(count: 15)
!145 = !DIDerivedType(tag: DW_TAG_member, name: "int_data", scope: !117, file: !118, line: 294, baseType: !146, flags: DIFlagStaticMember)
!146 = !DICompositeType(tag: DW_TAG_array_type, baseType: !90, size: 160, elements: !147)
!147 = !{!148}
!148 = !DISubrange(count: 20)
!149 = !DIDerivedType(tag: DW_TAG_member, name: "null_string_rep", scope: !117, file: !118, line: 295, baseType: !150, flags: DIFlagStaticMember)
!150 = !DIDerivedType(tag: DW_TAG_const_type, baseType: !125)
!151 = !DIDerivedType(tag: DW_TAG_member, name: "oom_string_rep", scope: !117, file: !118, line: 296, baseType: !150, flags: DIFlagStaticMember)
!152 = !DISubprogram(name: "String", scope: !117, file: !118, line: 39, type: !153, scopeLine: 39, flags: DIFlagPublic | DIFlagPrototyped, spFlags: DISPFlagOptimized)
!153 = !DISubroutineType(types: !154)
!154 = !{null, !155}
!155 = !DIDerivedType(tag: DW_TAG_pointer_type, baseType: !117, size: 64, flags: DIFlagArtificial | DIFlagObjectPointer)
!156 = !DISubprogram(name: "String", scope: !117, file: !118, line: 40, type: !157, scopeLine: 40, flags: DIFlagPublic | DIFlagPrototyped, spFlags: DISPFlagOptimized)
!157 = !DISubroutineType(types: !158)
!158 = !{null, !155, !159}
!159 = !DIDerivedType(tag: DW_TAG_reference_type, baseType: !160, size: 64)
!160 = !DIDerivedType(tag: DW_TAG_const_type, baseType: !117)
!161 = !DISubprogram(name: "String", scope: !117, file: !118, line: 42, type: !162, scopeLine: 42, flags: DIFlagPublic | DIFlagPrototyped, spFlags: DISPFlagOptimized)
!162 = !DISubroutineType(types: !163)
!163 = !{null, !155, !164}
!164 = !DIDerivedType(tag: DW_TAG_rvalue_reference_type, baseType: !117, size: 64)
!165 = !DISubprogram(name: "String", scope: !117, file: !118, line: 44, type: !166, scopeLine: 44, flags: DIFlagPublic | DIFlagPrototyped, spFlags: DISPFlagOptimized)
!166 = !DISubroutineType(types: !167)
!167 = !{null, !155, !89}
!168 = !DISubprogram(name: "String", scope: !117, file: !118, line: 45, type: !169, scopeLine: 45, flags: DIFlagPublic | DIFlagPrototyped, spFlags: DISPFlagOptimized)
!169 = !DISubroutineType(types: !170)
!170 = !{null, !155, !89, !40}
!171 = !DISubprogram(name: "String", scope: !117, file: !118, line: 46, type: !172, scopeLine: 46, flags: DIFlagPublic | DIFlagPrototyped, spFlags: DISPFlagOptimized)
!172 = !DISubroutineType(types: !173)
!173 = !{null, !155, !174, !40}
!174 = !DIDerivedType(tag: DW_TAG_pointer_type, baseType: !175, size: 64)
!175 = !DIDerivedType(tag: DW_TAG_const_type, baseType: !176)
!176 = !DIBasicType(name: "unsigned char", size: 8, encoding: DW_ATE_unsigned_char)
!177 = !DISubprogram(name: "String", scope: !117, file: !118, line: 47, type: !178, scopeLine: 47, flags: DIFlagPublic | DIFlagPrototyped, spFlags: DISPFlagOptimized)
!178 = !DISubroutineType(types: !179)
!179 = !{null, !155, !89, !89}
!180 = !DISubprogram(name: "String", scope: !117, file: !118, line: 48, type: !181, scopeLine: 48, flags: DIFlagPublic | DIFlagPrototyped, spFlags: DISPFlagOptimized)
!181 = !DISubroutineType(types: !182)
!182 = !{null, !155, !174, !174}
!183 = !DISubprogram(name: "String", scope: !117, file: !118, line: 49, type: !184, scopeLine: 49, flags: DIFlagPublic | DIFlagExplicit | DIFlagPrototyped, spFlags: DISPFlagOptimized)
!184 = !DISubroutineType(types: !185)
!185 = !{null, !155, !17}
!186 = !DISubprogram(name: "String", scope: !117, file: !118, line: 50, type: !187, scopeLine: 50, flags: DIFlagPublic | DIFlagExplicit | DIFlagPrototyped, spFlags: DISPFlagOptimized)
!187 = !DISubroutineType(types: !188)
!188 = !{null, !155, !91}
!189 = !DISubprogram(name: "String", scope: !117, file: !118, line: 51, type: !190, scopeLine: 51, flags: DIFlagPublic | DIFlagExplicit | DIFlagPrototyped, spFlags: DISPFlagOptimized)
!190 = !DISubroutineType(types: !191)
!191 = !{null, !155, !176}
!192 = !DISubprogram(name: "String", scope: !117, file: !118, line: 52, type: !193, scopeLine: 52, flags: DIFlagPublic | DIFlagExplicit | DIFlagPrototyped, spFlags: DISPFlagOptimized)
!193 = !DISubroutineType(types: !194)
!194 = !{null, !155, !40}
!195 = !DISubprogram(name: "String", scope: !117, file: !118, line: 53, type: !196, scopeLine: 53, flags: DIFlagPublic | DIFlagExplicit | DIFlagPrototyped, spFlags: DISPFlagOptimized)
!196 = !DISubroutineType(types: !197)
!197 = !{null, !155, !15}
!198 = !DISubprogram(name: "String", scope: !117, file: !118, line: 54, type: !199, scopeLine: 54, flags: DIFlagPublic | DIFlagExplicit | DIFlagPrototyped, spFlags: DISPFlagOptimized)
!199 = !DISubroutineType(types: !200)
!200 = !{null, !155, !201}
!201 = !DIBasicType(name: "long int", size: 64, encoding: DW_ATE_signed)
!202 = !DISubprogram(name: "String", scope: !117, file: !118, line: 55, type: !203, scopeLine: 55, flags: DIFlagPublic | DIFlagExplicit | DIFlagPrototyped, spFlags: DISPFlagOptimized)
!203 = !DISubroutineType(types: !204)
!204 = !{null, !155, !205}
!205 = !DIBasicType(name: "long unsigned int", size: 64, encoding: DW_ATE_unsigned)
!206 = !DISubprogram(name: "String", scope: !117, file: !118, line: 57, type: !207, scopeLine: 57, flags: DIFlagPublic | DIFlagExplicit | DIFlagPrototyped, spFlags: DISPFlagOptimized)
!207 = !DISubroutineType(types: !208)
!208 = !{null, !155, !209}
!209 = !DIBasicType(name: "long long int", size: 64, encoding: DW_ATE_signed)
!210 = !DISubprogram(name: "String", scope: !117, file: !118, line: 58, type: !211, scopeLine: 58, flags: DIFlagPublic | DIFlagExplicit | DIFlagPrototyped, spFlags: DISPFlagOptimized)
!211 = !DISubroutineType(types: !212)
!212 = !{null, !155, !213}
!213 = !DIBasicType(name: "long long unsigned int", size: 64, encoding: DW_ATE_unsigned)
!214 = !DISubprogram(name: "String", scope: !117, file: !118, line: 65, type: !215, scopeLine: 65, flags: DIFlagPublic | DIFlagExplicit | DIFlagPrototyped, spFlags: DISPFlagOptimized)
!215 = !DISubroutineType(types: !216)
!216 = !{null, !155, !217}
!217 = !DIBasicType(name: "double", size: 64, encoding: DW_ATE_float)
!218 = !DISubprogram(name: "~String", scope: !117, file: !118, line: 67, type: !153, scopeLine: 67, flags: DIFlagPublic | DIFlagPrototyped, spFlags: DISPFlagOptimized)
!219 = !DISubprogram(name: "make_empty", linkageName: "_ZN6String10make_emptyEv", scope: !117, file: !118, line: 69, type: !220, scopeLine: 69, flags: DIFlagPublic | DIFlagPrototyped | DIFlagStaticMember, spFlags: DISPFlagOptimized)
!220 = !DISubroutineType(types: !221)
!221 = !{!159}
!222 = !DISubprogram(name: "make_uninitialized", linkageName: "_ZN6String18make_uninitializedEi", scope: !117, file: !118, line: 70, type: !223, scopeLine: 70, flags: DIFlagPublic | DIFlagPrototyped | DIFlagStaticMember, spFlags: DISPFlagOptimized)
!223 = !DISubroutineType(types: !224)
!224 = !{!117, !40}
!225 = !DISubprogram(name: "make_garbage", linkageName: "_ZN6String12make_garbageEi", scope: !117, file: !118, line: 71, type: !223, scopeLine: 71, flags: DIFlagPublic | DIFlagPrototyped | DIFlagStaticMember, spFlags: DISPFlagOptimized)
!226 = !DISubprogram(name: "make_stable", linkageName: "_ZN6String11make_stableEPKc", scope: !117, file: !118, line: 72, type: !227, scopeLine: 72, flags: DIFlagPublic | DIFlagPrototyped | DIFlagStaticMember, spFlags: DISPFlagOptimized)
!227 = !DISubroutineType(types: !228)
!228 = !{!117, !89}
!229 = !DISubprogram(name: "make_stable", linkageName: "_ZN6String11make_stableEPKci", scope: !117, file: !118, line: 73, type: !230, scopeLine: 73, flags: DIFlagPublic | DIFlagPrototyped | DIFlagStaticMember, spFlags: DISPFlagOptimized)
!230 = !DISubroutineType(types: !231)
!231 = !{!117, !89, !40}
!232 = !DISubprogram(name: "make_stable", linkageName: "_ZN6String11make_stableEPKcS1_", scope: !117, file: !118, line: 74, type: !233, scopeLine: 74, flags: DIFlagPublic | DIFlagPrototyped | DIFlagStaticMember, spFlags: DISPFlagOptimized)
!233 = !DISubroutineType(types: !234)
!234 = !{!117, !89, !89}
!235 = !DISubprogram(name: "make_numeric", linkageName: "_ZN6String12make_numericElib", scope: !117, file: !118, line: 75, type: !236, scopeLine: 75, flags: DIFlagPublic | DIFlagPrototyped | DIFlagStaticMember, spFlags: DISPFlagOptimized)
!236 = !DISubroutineType(types: !237)
!237 = !{!117, !238, !40, !17}
!238 = !DIDerivedType(tag: DW_TAG_typedef, name: "intmax_t", scope: !117, file: !118, line: 27, baseType: !239)
!239 = !DIDerivedType(tag: DW_TAG_typedef, name: "int64_t", file: !38, line: 27, baseType: !240)
!240 = !DIDerivedType(tag: DW_TAG_typedef, name: "__int64_t", file: !14, line: 44, baseType: !201)
!241 = !DISubprogram(name: "make_numeric", linkageName: "_ZN6String12make_numericEmib", scope: !117, file: !118, line: 76, type: !242, scopeLine: 76, flags: DIFlagPublic | DIFlagPrototyped | DIFlagStaticMember, spFlags: DISPFlagOptimized)
!242 = !DISubroutineType(types: !243)
!243 = !{!117, !244, !40, !17}
!244 = !DIDerivedType(tag: DW_TAG_typedef, name: "uintmax_t", scope: !117, file: !118, line: 28, baseType: !245)
!245 = !DIDerivedType(tag: DW_TAG_typedef, name: "uint64_t", file: !12, line: 27, baseType: !246)
!246 = !DIDerivedType(tag: DW_TAG_typedef, name: "__uint64_t", file: !14, line: 45, baseType: !205)
!247 = !DISubprogram(name: "data", linkageName: "_ZNK6String4dataEv", scope: !117, file: !118, line: 78, type: !248, scopeLine: 78, flags: DIFlagPublic | DIFlagPrototyped, spFlags: DISPFlagOptimized)
!248 = !DISubroutineType(types: !249)
!249 = !{!89, !250}
!250 = !DIDerivedType(tag: DW_TAG_pointer_type, baseType: !160, size: 64, flags: DIFlagArtificial | DIFlagObjectPointer)
!251 = !DISubprogram(name: "length", linkageName: "_ZNK6String6lengthEv", scope: !117, file: !118, line: 79, type: !252, scopeLine: 79, flags: DIFlagPublic | DIFlagPrototyped, spFlags: DISPFlagOptimized)
!252 = !DISubroutineType(types: !253)
!253 = !{!40, !250}
!254 = !DISubprogram(name: "c_str", linkageName: "_ZNK6String5c_strEv", scope: !117, file: !118, line: 81, type: !248, scopeLine: 81, flags: DIFlagPublic | DIFlagPrototyped, spFlags: DISPFlagOptimized)
!255 = !DISubprogram(name: "operator int (String::*)() const", linkageName: "_ZNK6StringcvMS_KFivEEv", scope: !117, file: !118, line: 83, type: !256, scopeLine: 83, flags: DIFlagPublic | DIFlagPrototyped, spFlags: DISPFlagOptimized)
!256 = !DISubroutineType(types: !257)
!257 = !{!258, !250}
!258 = !DIDerivedType(tag: DW_TAG_typedef, name: "unspecified_bool_type", scope: !117, file: !118, line: 24, baseType: !259)
!259 = !DIDerivedType(tag: DW_TAG_ptr_to_member_type, baseType: !252, size: 128, extraData: !117)
!260 = !DISubprogram(name: "empty", linkageName: "_ZNK6String5emptyEv", scope: !117, file: !118, line: 84, type: !261, scopeLine: 84, flags: DIFlagPublic | DIFlagPrototyped, spFlags: DISPFlagOptimized)
!261 = !DISubroutineType(types: !262)
!262 = !{!17, !250}
!263 = !DISubprogram(name: "operator!", linkageName: "_ZNK6StringntEv", scope: !117, file: !118, line: 85, type: !261, scopeLine: 85, flags: DIFlagPublic | DIFlagPrototyped, spFlags: DISPFlagOptimized)
!264 = !DISubprogram(name: "begin", linkageName: "_ZNK6String5beginEv", scope: !117, file: !118, line: 87, type: !265, scopeLine: 87, flags: DIFlagPublic | DIFlagPrototyped, spFlags: DISPFlagOptimized)
!265 = !DISubroutineType(types: !266)
!266 = !{!267, !250}
!267 = !DIDerivedType(tag: DW_TAG_typedef, name: "const_iterator", scope: !117, file: !118, line: 21, baseType: !89)
!268 = !DISubprogram(name: "end", linkageName: "_ZNK6String3endEv", scope: !117, file: !118, line: 88, type: !265, scopeLine: 88, flags: DIFlagPublic | DIFlagPrototyped, spFlags: DISPFlagOptimized)
!269 = !DISubprogram(name: "operator[]", linkageName: "_ZNK6StringixEi", scope: !117, file: !118, line: 90, type: !270, scopeLine: 90, flags: DIFlagPublic | DIFlagPrototyped, spFlags: DISPFlagOptimized)
!270 = !DISubroutineType(types: !271)
!271 = !{!91, !250, !40}
!272 = !DISubprogram(name: "at", linkageName: "_ZNK6String2atEi", scope: !117, file: !118, line: 91, type: !270, scopeLine: 91, flags: DIFlagPublic | DIFlagPrototyped, spFlags: DISPFlagOptimized)
!273 = !DISubprogram(name: "front", linkageName: "_ZNK6String5frontEv", scope: !117, file: !118, line: 92, type: !274, scopeLine: 92, flags: DIFlagPublic | DIFlagPrototyped, spFlags: DISPFlagOptimized)
!274 = !DISubroutineType(types: !275)
!275 = !{!91, !250}
!276 = !DISubprogram(name: "back", linkageName: "_ZNK6String4backEv", scope: !117, file: !118, line: 93, type: !274, scopeLine: 93, flags: DIFlagPublic | DIFlagPrototyped, spFlags: DISPFlagOptimized)
!277 = !DISubprogram(name: "hashcode", linkageName: "_ZN6String8hashcodeEPKcS1_", scope: !117, file: !118, line: 95, type: !278, scopeLine: 95, flags: DIFlagPublic | DIFlagPrototyped | DIFlagStaticMember, spFlags: DISPFlagOptimized)
!278 = !DISubroutineType(types: !279)
!279 = !{!11, !89, !89}
!280 = !DISubprogram(name: "hashcode", linkageName: "_ZN6String8hashcodeEPKhS1_", scope: !117, file: !118, line: 96, type: !281, scopeLine: 96, flags: DIFlagPublic | DIFlagPrototyped | DIFlagStaticMember, spFlags: DISPFlagOptimized)
!281 = !DISubroutineType(types: !282)
!282 = !{!11, !174, !174}
!283 = !DISubprogram(name: "hashcode", linkageName: "_ZNK6String8hashcodeEv", scope: !117, file: !118, line: 98, type: !284, scopeLine: 98, flags: DIFlagPublic | DIFlagPrototyped, spFlags: DISPFlagOptimized)
!284 = !DISubroutineType(types: !285)
!285 = !{!11, !250}
!286 = !DISubprogram(name: "substring", linkageName: "_ZNK6String9substringEPKcS1_", scope: !117, file: !118, line: 100, type: !287, scopeLine: 100, flags: DIFlagPublic | DIFlagPrototyped, spFlags: DISPFlagOptimized)
!287 = !DISubroutineType(types: !288)
!288 = !{!117, !250, !89, !89}
!289 = !DISubprogram(name: "substring", linkageName: "_ZNK6String9substringEii", scope: !117, file: !118, line: 101, type: !290, scopeLine: 101, flags: DIFlagPublic | DIFlagPrototyped, spFlags: DISPFlagOptimized)
!290 = !DISubroutineType(types: !291)
!291 = !{!117, !250, !40, !40}
!292 = !DISubprogram(name: "substring", linkageName: "_ZNK6String9substringEi", scope: !117, file: !118, line: 102, type: !293, scopeLine: 102, flags: DIFlagPublic | DIFlagPrototyped, spFlags: DISPFlagOptimized)
!293 = !DISubroutineType(types: !294)
!294 = !{!117, !250, !40}
!295 = !DISubprogram(name: "trim_space", linkageName: "_ZNK6String10trim_spaceEv", scope: !117, file: !118, line: 103, type: !296, scopeLine: 103, flags: DIFlagPublic | DIFlagPrototyped, spFlags: DISPFlagOptimized)
!296 = !DISubroutineType(types: !297)
!297 = !{!117, !250}
!298 = !DISubprogram(name: "equals", linkageName: "_ZNK6String6equalsERKS_", scope: !117, file: !118, line: 105, type: !299, scopeLine: 105, flags: DIFlagPublic | DIFlagPrototyped, spFlags: DISPFlagOptimized)
!299 = !DISubroutineType(types: !300)
!300 = !{!17, !250, !159}
!301 = !DISubprogram(name: "equals", linkageName: "_ZNK6String6equalsEPKci", scope: !117, file: !118, line: 106, type: !302, scopeLine: 106, flags: DIFlagPublic | DIFlagPrototyped, spFlags: DISPFlagOptimized)
!302 = !DISubroutineType(types: !303)
!303 = !{!17, !250, !89, !40}
!304 = !DISubprogram(name: "compare", linkageName: "_ZN6String7compareERKS_S1_", scope: !117, file: !118, line: 107, type: !305, scopeLine: 107, flags: DIFlagPublic | DIFlagPrototyped | DIFlagStaticMember, spFlags: DISPFlagOptimized)
!305 = !DISubroutineType(types: !306)
!306 = !{!40, !159, !159}
!307 = !DISubprogram(name: "compare", linkageName: "_ZNK6String7compareERKS_", scope: !117, file: !118, line: 108, type: !308, scopeLine: 108, flags: DIFlagPublic | DIFlagPrototyped, spFlags: DISPFlagOptimized)
!308 = !DISubroutineType(types: !309)
!309 = !{!40, !250, !159}
!310 = !DISubprogram(name: "compare", linkageName: "_ZNK6String7compareEPKci", scope: !117, file: !118, line: 109, type: !311, scopeLine: 109, flags: DIFlagPublic | DIFlagPrototyped, spFlags: DISPFlagOptimized)
!311 = !DISubroutineType(types: !312)
!312 = !{!40, !250, !89, !40}
!313 = !DISubprogram(name: "starts_with", linkageName: "_ZNK6String11starts_withERKS_", scope: !117, file: !118, line: 110, type: !299, scopeLine: 110, flags: DIFlagPublic | DIFlagPrototyped, spFlags: DISPFlagOptimized)
!314 = !DISubprogram(name: "starts_with", linkageName: "_ZNK6String11starts_withEPKci", scope: !117, file: !118, line: 111, type: !302, scopeLine: 111, flags: DIFlagPublic | DIFlagPrototyped, spFlags: DISPFlagOptimized)
!315 = !DISubprogram(name: "glob_match", linkageName: "_ZNK6String10glob_matchERKS_", scope: !117, file: !118, line: 112, type: !299, scopeLine: 112, flags: DIFlagPublic | DIFlagPrototyped, spFlags: DISPFlagOptimized)
!316 = !DISubprogram(name: "find_left", linkageName: "_ZNK6String9find_leftEci", scope: !117, file: !118, line: 125, type: !317, scopeLine: 125, flags: DIFlagPublic | DIFlagPrototyped, spFlags: DISPFlagOptimized)
!317 = !DISubroutineType(types: !318)
!318 = !{!40, !250, !91, !40}
!319 = !DISubprogram(name: "find_left", linkageName: "_ZNK6String9find_leftERKS_i", scope: !117, file: !118, line: 126, type: !320, scopeLine: 126, flags: DIFlagPublic | DIFlagPrototyped, spFlags: DISPFlagOptimized)
!320 = !DISubroutineType(types: !321)
!321 = !{!40, !250, !159, !40}
!322 = !DISubprogram(name: "find_right", linkageName: "_ZNK6String10find_rightEci", scope: !117, file: !118, line: 127, type: !317, scopeLine: 127, flags: DIFlagPublic | DIFlagPrototyped, spFlags: DISPFlagOptimized)
!323 = !DISubprogram(name: "lower", linkageName: "_ZNK6String5lowerEv", scope: !117, file: !118, line: 129, type: !296, scopeLine: 129, flags: DIFlagPublic | DIFlagPrototyped, spFlags: DISPFlagOptimized)
!324 = !DISubprogram(name: "upper", linkageName: "_ZNK6String5upperEv", scope: !117, file: !118, line: 130, type: !296, scopeLine: 130, flags: DIFlagPublic | DIFlagPrototyped, spFlags: DISPFlagOptimized)
!325 = !DISubprogram(name: "printable", linkageName: "_ZNK6String9printableEv", scope: !117, file: !118, line: 131, type: !296, scopeLine: 131, flags: DIFlagPublic | DIFlagPrototyped, spFlags: DISPFlagOptimized)
!326 = !DISubprogram(name: "quoted_hex", linkageName: "_ZNK6String10quoted_hexEv", scope: !117, file: !118, line: 132, type: !296, scopeLine: 132, flags: DIFlagPublic | DIFlagPrototyped, spFlags: DISPFlagOptimized)
!327 = !DISubprogram(name: "encode_json", linkageName: "_ZNK6String11encode_jsonEv", scope: !117, file: !118, line: 133, type: !296, scopeLine: 133, flags: DIFlagPublic | DIFlagPrototyped, spFlags: DISPFlagOptimized)
!328 = !DISubprogram(name: "operator=", linkageName: "_ZN6StringaSERKS_", scope: !117, file: !118, line: 135, type: !329, scopeLine: 135, flags: DIFlagPublic | DIFlagPrototyped, spFlags: DISPFlagOptimized)
!329 = !DISubroutineType(types: !330)
!330 = !{!331, !155, !159}
!331 = !DIDerivedType(tag: DW_TAG_reference_type, baseType: !117, size: 64)
!332 = !DISubprogram(name: "operator=", linkageName: "_ZN6StringaSEOS_", scope: !117, file: !118, line: 137, type: !333, scopeLine: 137, flags: DIFlagPublic | DIFlagPrototyped, spFlags: DISPFlagOptimized)
!333 = !DISubroutineType(types: !334)
!334 = !{!331, !155, !164}
!335 = !DISubprogram(name: "operator=", linkageName: "_ZN6StringaSEPKc", scope: !117, file: !118, line: 139, type: !336, scopeLine: 139, flags: DIFlagPublic | DIFlagPrototyped, spFlags: DISPFlagOptimized)
!336 = !DISubroutineType(types: !337)
!337 = !{!331, !155, !89}
!338 = !DISubprogram(name: "swap", linkageName: "_ZN6String4swapERS_", scope: !117, file: !118, line: 141, type: !339, scopeLine: 141, flags: DIFlagPublic | DIFlagPrototyped, spFlags: DISPFlagOptimized)
!339 = !DISubroutineType(types: !340)
!340 = !{null, !155, !331}
!341 = !DISubprogram(name: "append", linkageName: "_ZN6String6appendERKS_", scope: !117, file: !118, line: 143, type: !157, scopeLine: 143, flags: DIFlagPublic | DIFlagPrototyped, spFlags: DISPFlagOptimized)
!342 = !DISubprogram(name: "append", linkageName: "_ZN6String6appendEPKc", scope: !117, file: !118, line: 144, type: !166, scopeLine: 144, flags: DIFlagPublic | DIFlagPrototyped, spFlags: DISPFlagOptimized)
!343 = !DISubprogram(name: "append", linkageName: "_ZN6String6appendEPKci", scope: !117, file: !118, line: 145, type: !169, scopeLine: 145, flags: DIFlagPublic | DIFlagPrototyped, spFlags: DISPFlagOptimized)
!344 = !DISubprogram(name: "append", linkageName: "_ZN6String6appendEPKcS1_", scope: !117, file: !118, line: 146, type: !178, scopeLine: 146, flags: DIFlagPublic | DIFlagPrototyped, spFlags: DISPFlagOptimized)
!345 = !DISubprogram(name: "append", linkageName: "_ZN6String6appendEc", scope: !117, file: !118, line: 147, type: !187, scopeLine: 147, flags: DIFlagPublic | DIFlagPrototyped, spFlags: DISPFlagOptimized)
!346 = !DISubprogram(name: "append_fill", linkageName: "_ZN6String11append_fillEii", scope: !117, file: !118, line: 148, type: !347, scopeLine: 148, flags: DIFlagPublic | DIFlagPrototyped, spFlags: DISPFlagOptimized)
!347 = !DISubroutineType(types: !348)
!348 = !{null, !155, !40, !40}
!349 = !DISubprogram(name: "append_uninitialized", linkageName: "_ZN6String20append_uninitializedEi", scope: !117, file: !118, line: 149, type: !350, scopeLine: 149, flags: DIFlagPublic | DIFlagPrototyped, spFlags: DISPFlagOptimized)
!350 = !DISubroutineType(types: !351)
!351 = !{!352, !155, !40}
!352 = !DIDerivedType(tag: DW_TAG_pointer_type, baseType: !91, size: 64)
!353 = !DISubprogram(name: "append_garbage", linkageName: "_ZN6String14append_garbageEi", scope: !117, file: !118, line: 150, type: !350, scopeLine: 150, flags: DIFlagPublic | DIFlagPrototyped, spFlags: DISPFlagOptimized)
!354 = !DISubprogram(name: "operator+=", linkageName: "_ZN6StringpLERKS_", scope: !117, file: !118, line: 152, type: !329, scopeLine: 152, flags: DIFlagPublic | DIFlagPrototyped, spFlags: DISPFlagOptimized)
!355 = !DISubprogram(name: "operator+=", linkageName: "_ZN6StringpLEPKc", scope: !117, file: !118, line: 153, type: !336, scopeLine: 153, flags: DIFlagPublic | DIFlagPrototyped, spFlags: DISPFlagOptimized)
!356 = !DISubprogram(name: "operator+=", linkageName: "_ZN6StringpLEc", scope: !117, file: !118, line: 154, type: !357, scopeLine: 154, flags: DIFlagPublic | DIFlagPrototyped, spFlags: DISPFlagOptimized)
!357 = !DISubroutineType(types: !358)
!358 = !{!331, !155, !91}
!359 = !DISubprogram(name: "is_shared", linkageName: "_ZNK6String9is_sharedEv", scope: !117, file: !118, line: 160, type: !261, scopeLine: 160, flags: DIFlagPublic | DIFlagPrototyped, spFlags: DISPFlagOptimized)
!360 = !DISubprogram(name: "is_stable", linkageName: "_ZNK6String9is_stableEv", scope: !117, file: !118, line: 161, type: !261, scopeLine: 161, flags: DIFlagPublic | DIFlagPrototyped, spFlags: DISPFlagOptimized)
!361 = !DISubprogram(name: "unique", linkageName: "_ZNK6String6uniqueEv", scope: !117, file: !118, line: 163, type: !296, scopeLine: 163, flags: DIFlagPublic | DIFlagPrototyped, spFlags: DISPFlagOptimized)
!362 = !DISubprogram(name: "unshared", linkageName: "_ZNK6String8unsharedEv", scope: !117, file: !118, line: 164, type: !296, scopeLine: 164, flags: DIFlagPublic | DIFlagPrototyped, spFlags: DISPFlagOptimized)
!363 = !DISubprogram(name: "compact", linkageName: "_ZNK6String7compactEv", scope: !117, file: !118, line: 165, type: !296, scopeLine: 165, flags: DIFlagPublic | DIFlagPrototyped, spFlags: DISPFlagOptimized)
!364 = !DISubprogram(name: "mutable_data", linkageName: "_ZN6String12mutable_dataEv", scope: !117, file: !118, line: 167, type: !365, scopeLine: 167, flags: DIFlagPublic | DIFlagPrototyped, spFlags: DISPFlagOptimized)
!365 = !DISubroutineType(types: !366)
!366 = !{!352, !155}
!367 = !DISubprogram(name: "mutable_c_str", linkageName: "_ZN6String13mutable_c_strEv", scope: !117, file: !118, line: 168, type: !365, scopeLine: 168, flags: DIFlagPublic | DIFlagPrototyped, spFlags: DISPFlagOptimized)
!368 = !DISubprogram(name: "make_out_of_memory", linkageName: "_ZN6String18make_out_of_memoryEv", scope: !117, file: !118, line: 170, type: !220, scopeLine: 170, flags: DIFlagPublic | DIFlagPrototyped | DIFlagStaticMember, spFlags: DISPFlagOptimized)
!369 = !DISubprogram(name: "out_of_memory", linkageName: "_ZNK6String13out_of_memoryEv", scope: !117, file: !118, line: 171, type: !261, scopeLine: 171, flags: DIFlagPublic | DIFlagPrototyped, spFlags: DISPFlagOptimized)
!370 = !DISubprogram(name: "out_of_memory_data", linkageName: "_ZN6String18out_of_memory_dataEv", scope: !117, file: !118, line: 172, type: !371, scopeLine: 172, flags: DIFlagPublic | DIFlagPrototyped | DIFlagStaticMember, spFlags: DISPFlagOptimized)
!371 = !DISubroutineType(types: !372)
!372 = !{!89}
!373 = !DISubprogram(name: "out_of_memory_length", linkageName: "_ZN6String20out_of_memory_lengthEv", scope: !117, file: !118, line: 173, type: !374, scopeLine: 173, flags: DIFlagPublic | DIFlagPrototyped | DIFlagStaticMember, spFlags: DISPFlagOptimized)
!374 = !DISubroutineType(types: !375)
!375 = !{!40}
!376 = !DISubprogram(name: "empty_data", linkageName: "_ZN6String10empty_dataEv", scope: !117, file: !118, line: 174, type: !371, scopeLine: 174, flags: DIFlagPublic | DIFlagPrototyped | DIFlagStaticMember, spFlags: DISPFlagOptimized)
!377 = !DISubprogram(name: "skip_utf8_char", linkageName: "_ZN6String14skip_utf8_charEPKcS1_", scope: !117, file: !118, line: 180, type: !378, scopeLine: 180, flags: DIFlagPublic | DIFlagPrototyped | DIFlagStaticMember, spFlags: DISPFlagOptimized)
!378 = !DISubroutineType(types: !379)
!379 = !{!89, !89, !89}
!380 = !DISubprogram(name: "skip_utf8_char", linkageName: "_ZN6String14skip_utf8_charEPKhS1_", scope: !117, file: !118, line: 181, type: !381, scopeLine: 181, flags: DIFlagPublic | DIFlagPrototyped | DIFlagStaticMember, spFlags: DISPFlagOptimized)
!381 = !DISubroutineType(types: !382)
!382 = !{!174, !174, !174}
!383 = !DISubprogram(name: "assign_memo", linkageName: "_ZNK6String11assign_memoEPKciPNS_6memo_tE", scope: !117, file: !118, line: 256, type: !384, scopeLine: 256, flags: DIFlagPrototyped, spFlags: DISPFlagOptimized)
!384 = !DISubroutineType(types: !385)
!385 = !{null, !250, !89, !40, !130}
!386 = !DISubprogram(name: "String", scope: !117, file: !118, line: 263, type: !387, scopeLine: 263, flags: DIFlagPrototyped, spFlags: DISPFlagOptimized)
!387 = !DISubroutineType(types: !388)
!388 = !{null, !155, !89, !40, !130}
!389 = !DISubprogram(name: "assign", linkageName: "_ZNK6String6assignERKS_", scope: !117, file: !118, line: 267, type: !390, scopeLine: 267, flags: DIFlagPrototyped, spFlags: DISPFlagOptimized)
!390 = !DISubroutineType(types: !391)
!391 = !{null, !250, !159}
!392 = !DISubprogram(name: "deref", linkageName: "_ZNK6String5derefEv", scope: !117, file: !118, line: 271, type: !393, scopeLine: 271, flags: DIFlagPrototyped, spFlags: DISPFlagOptimized)
!393 = !DISubroutineType(types: !394)
!394 = !{null, !250}
!395 = !DISubprogram(name: "assign", linkageName: "_ZN6String6assignEPKcib", scope: !117, file: !118, line: 280, type: !396, scopeLine: 280, flags: DIFlagPrototyped, spFlags: DISPFlagOptimized)
!396 = !DISubroutineType(types: !397)
!397 = !{null, !155, !89, !40, !17}
!398 = !DISubprogram(name: "assign_out_of_memory", linkageName: "_ZN6String20assign_out_of_memoryEv", scope: !117, file: !118, line: 281, type: !153, scopeLine: 281, flags: DIFlagPrototyped, spFlags: DISPFlagOptimized)
!399 = !DISubprogram(name: "append", linkageName: "_ZN6String6appendEPKciPNS_6memo_tE", scope: !117, file: !118, line: 282, type: !387, scopeLine: 282, flags: DIFlagPrototyped, spFlags: DISPFlagOptimized)
!400 = !DISubprogram(name: "hard_make_stable", linkageName: "_ZN6String16hard_make_stableEPKci", scope: !117, file: !118, line: 283, type: !230, scopeLine: 283, flags: DIFlagPrototyped | DIFlagStaticMember, spFlags: DISPFlagOptimized)
!401 = !DISubprogram(name: "absent_memo", linkageName: "_ZN6String11absent_memoEv", scope: !117, file: !118, line: 284, type: !402, scopeLine: 284, flags: DIFlagPrototyped | DIFlagStaticMember, spFlags: DISPFlagOptimized)
!402 = !DISubroutineType(types: !403)
!403 = !{!130}
!404 = !DISubprogram(name: "create_memo", linkageName: "_ZN6String11create_memoEPcii", scope: !117, file: !118, line: 287, type: !405, scopeLine: 287, flags: DIFlagPrototyped | DIFlagStaticMember, spFlags: DISPFlagOptimized)
!405 = !DISubroutineType(types: !406)
!406 = !{!130, !352, !40, !40}
!407 = !DISubprogram(name: "delete_memo", linkageName: "_ZN6String11delete_memoEPNS_6memo_tE", scope: !117, file: !118, line: 288, type: !408, scopeLine: 288, flags: DIFlagPrototyped | DIFlagStaticMember, spFlags: DISPFlagOptimized)
!408 = !DISubroutineType(types: !409)
!409 = !{null, !130}
!410 = !DISubprogram(name: "hard_c_str", linkageName: "_ZNK6String10hard_c_strEv", scope: !117, file: !118, line: 289, type: !248, scopeLine: 289, flags: DIFlagPrototyped, spFlags: DISPFlagOptimized)
!411 = !DISubprogram(name: "hard_equals", linkageName: "_ZNK6String11hard_equalsEPKci", scope: !117, file: !118, line: 290, type: !302, scopeLine: 290, flags: DIFlagPrototyped, spFlags: DISPFlagOptimized)
!412 = !DISubprogram(name: "make_claim", linkageName: "_ZN6String10make_claimEPcii", scope: !117, file: !118, line: 299, type: !413, scopeLine: 299, flags: DIFlagPrototyped | DIFlagStaticMember, spFlags: DISPFlagOptimized)
!413 = !DISubroutineType(types: !414)
!414 = !{!117, !352, !40, !40}
!415 = !DISubprogram(name: "cast", linkageName: "_ZN18typed_array_memoryI6StringE4castEPKS0_", scope: !111, file: !110, line: 62, type: !416, scopeLine: 62, flags: DIFlagPublic | DIFlagPrototyped | DIFlagStaticMember, spFlags: DISPFlagOptimized)
!416 = !DISubroutineType(types: !417)
!417 = !{!418, !418}
!418 = !DIDerivedType(tag: DW_TAG_pointer_type, baseType: !160, size: 64)
!419 = !DISubprogram(name: "fill", linkageName: "_ZN18typed_array_memoryI6StringE4fillEPS0_mPKS0_", scope: !111, file: !110, line: 65, type: !420, scopeLine: 65, flags: DIFlagPublic | DIFlagPrototyped | DIFlagStaticMember, spFlags: DISPFlagOptimized)
!420 = !DISubroutineType(types: !421)
!421 = !{null, !116, !422, !418}
!422 = !DIDerivedType(tag: DW_TAG_typedef, name: "size_t", file: !423, line: 46, baseType: !205)
!423 = !DIFile(filename: "/usr/lib/clang/10.0.0/include/stddef.h", directory: "")
!424 = !DISubprogram(name: "move_construct", linkageName: "_ZN18typed_array_memoryI6StringE14move_constructEPS0_S2_", scope: !111, file: !110, line: 69, type: !425, scopeLine: 69, flags: DIFlagPublic | DIFlagPrototyped | DIFlagStaticMember, spFlags: DISPFlagOptimized)
!425 = !DISubroutineType(types: !426)
!426 = !{null, !116, !116}
!427 = !DISubprogram(name: "copy", linkageName: "_ZN18typed_array_memoryI6StringE4copyEPS0_PKS0_m", scope: !111, file: !110, line: 76, type: !428, scopeLine: 76, flags: DIFlagPublic | DIFlagPrototyped | DIFlagStaticMember, spFlags: DISPFlagOptimized)
!428 = !DISubroutineType(types: !429)
!429 = !{null, !116, !418, !422}
!430 = !DISubprogram(name: "move", linkageName: "_ZN18typed_array_memoryI6StringE4moveEPS0_PKS0_m", scope: !111, file: !110, line: 80, type: !428, scopeLine: 80, flags: DIFlagPublic | DIFlagPrototyped | DIFlagStaticMember, spFlags: DISPFlagOptimized)
!431 = !DISubprogram(name: "move_onto", linkageName: "_ZN18typed_array_memoryI6StringE9move_ontoEPS0_PKS0_m", scope: !111, file: !110, line: 93, type: !428, scopeLine: 93, flags: DIFlagPublic | DIFlagPrototyped | DIFlagStaticMember, spFlags: DISPFlagOptimized)
!432 = !DISubprogram(name: "destroy", linkageName: "_ZN18typed_array_memoryI6StringE7destroyEPS0_m", scope: !111, file: !110, line: 106, type: !433, scopeLine: 106, flags: DIFlagPublic | DIFlagPrototyped | DIFlagStaticMember, spFlags: DISPFlagOptimized)
!433 = !DISubroutineType(types: !434)
!434 = !{null, !116, !422}
!435 = !DISubprogram(name: "mark_noaccess", linkageName: "_ZN18typed_array_memoryI6StringE13mark_noaccessEPS0_m", scope: !111, file: !110, line: 110, type: !433, scopeLine: 110, flags: DIFlagPublic | DIFlagPrototyped | DIFlagStaticMember, spFlags: DISPFlagOptimized)
!436 = !DISubprogram(name: "mark_undefined", linkageName: "_ZN18typed_array_memoryI6StringE14mark_undefinedEPS0_m", scope: !111, file: !110, line: 113, type: !433, scopeLine: 113, flags: DIFlagPublic | DIFlagPrototyped | DIFlagStaticMember, spFlags: DISPFlagOptimized)
!437 = !{!438}
!438 = !DITemplateTypeParameter(name: "T", type: !117)
!439 = !DIDerivedType(tag: DW_TAG_member, name: "n_", scope: !104, file: !101, line: 69, baseType: !440, size: 32, offset: 64, flags: DIFlagPublic)
!440 = !DIDerivedType(tag: DW_TAG_typedef, name: "size_type", file: !101, line: 12, baseType: !40)
!441 = !DIDerivedType(tag: DW_TAG_member, name: "capacity_", scope: !104, file: !101, line: 70, baseType: !440, size: 32, offset: 96, flags: DIFlagPublic)
!442 = !DISubprogram(name: "need_argument_copy", linkageName: "_ZNK13vector_memoryI18typed_array_memoryI6StringEE18need_argument_copyEPKS1_", scope: !104, file: !101, line: 15, type: !443, scopeLine: 15, flags: DIFlagPublic | DIFlagPrototyped, spFlags: DISPFlagOptimized)
!443 = !DISubroutineType(types: !444)
!444 = !{!17, !445, !447}
!445 = !DIDerivedType(tag: DW_TAG_pointer_type, baseType: !446, size: 64, flags: DIFlagArtificial | DIFlagObjectPointer)
!446 = !DIDerivedType(tag: DW_TAG_const_type, baseType: !104)
!447 = !DIDerivedType(tag: DW_TAG_pointer_type, baseType: !448, size: 64)
!448 = !DIDerivedType(tag: DW_TAG_const_type, baseType: !108)
!449 = !DISubprogram(name: "vector_memory", scope: !104, file: !101, line: 20, type: !450, scopeLine: 20, flags: DIFlagPublic | DIFlagPrototyped, spFlags: DISPFlagOptimized)
!450 = !DISubroutineType(types: !451)
!451 = !{null, !452}
!452 = !DIDerivedType(tag: DW_TAG_pointer_type, baseType: !104, size: 64, flags: DIFlagArtificial | DIFlagObjectPointer)
!453 = !DISubprogram(name: "~vector_memory", scope: !104, file: !101, line: 23, type: !450, scopeLine: 23, flags: DIFlagPublic | DIFlagPrototyped, spFlags: DISPFlagOptimized)
!454 = !DISubprogram(name: "assign", linkageName: "_ZN13vector_memoryI18typed_array_memoryI6StringEE6assignERKS3_", scope: !104, file: !101, line: 25, type: !455, scopeLine: 25, flags: DIFlagPublic | DIFlagPrototyped, spFlags: DISPFlagOptimized)
!455 = !DISubroutineType(types: !456)
!456 = !{null, !452, !457}
!457 = !DIDerivedType(tag: DW_TAG_reference_type, baseType: !446, size: 64)
!458 = !DISubprogram(name: "assign", linkageName: "_ZN13vector_memoryI18typed_array_memoryI6StringEE6assignEiPKS1_", scope: !104, file: !101, line: 26, type: !459, scopeLine: 26, flags: DIFlagPublic | DIFlagPrototyped, spFlags: DISPFlagOptimized)
!459 = !DISubroutineType(types: !460)
!460 = !{null, !452, !440, !447}
!461 = !DISubprogram(name: "resize", linkageName: "_ZN13vector_memoryI18typed_array_memoryI6StringEE6resizeEiPKS1_", scope: !104, file: !101, line: 27, type: !459, scopeLine: 27, flags: DIFlagPublic | DIFlagPrototyped, spFlags: DISPFlagOptimized)
!462 = !DISubprogram(name: "begin", linkageName: "_ZN13vector_memoryI18typed_array_memoryI6StringEE5beginEv", scope: !104, file: !101, line: 28, type: !463, scopeLine: 28, flags: DIFlagPublic | DIFlagPrototyped, spFlags: DISPFlagOptimized)
!463 = !DISubroutineType(types: !464)
!464 = !{!465, !452}
!465 = !DIDerivedType(tag: DW_TAG_typedef, name: "iterator", scope: !104, file: !101, line: 14, baseType: !107)
!466 = !DISubprogram(name: "end", linkageName: "_ZN13vector_memoryI18typed_array_memoryI6StringEE3endEv", scope: !104, file: !101, line: 31, type: !463, scopeLine: 31, flags: DIFlagPublic | DIFlagPrototyped, spFlags: DISPFlagOptimized)
!467 = !DISubprogram(name: "insert", linkageName: "_ZN13vector_memoryI18typed_array_memoryI6StringEE6insertEPS1_PKS1_", scope: !104, file: !101, line: 34, type: !468, scopeLine: 34, flags: DIFlagPublic | DIFlagPrototyped, spFlags: DISPFlagOptimized)
!468 = !DISubroutineType(types: !469)
!469 = !{!465, !452, !465, !447}
!470 = !DISubprogram(name: "erase", linkageName: "_ZN13vector_memoryI18typed_array_memoryI6StringEE5eraseEPS1_S4_", scope: !104, file: !101, line: 35, type: !471, scopeLine: 35, flags: DIFlagPublic | DIFlagPrototyped, spFlags: DISPFlagOptimized)
!471 = !DISubroutineType(types: !472)
!472 = !{!465, !452, !465, !465}
!473 = !DISubprogram(name: "push_back", linkageName: "_ZN13vector_memoryI18typed_array_memoryI6StringEE9push_backEPKS1_", scope: !104, file: !101, line: 36, type: !474, scopeLine: 36, flags: DIFlagPublic | DIFlagPrototyped, spFlags: DISPFlagOptimized)
!474 = !DISubroutineType(types: !475)
!475 = !{null, !452, !447}
!476 = !DISubprogram(name: "move_construct_back", linkageName: "_ZN13vector_memoryI18typed_array_memoryI6StringEE19move_construct_backEPS1_", scope: !104, file: !101, line: 45, type: !477, scopeLine: 45, flags: DIFlagPublic | DIFlagPrototyped, spFlags: DISPFlagOptimized)
!477 = !DISubroutineType(types: !478)
!478 = !{null, !452, !107}
!479 = !DISubprogram(name: "pop_back", linkageName: "_ZN13vector_memoryI18typed_array_memoryI6StringEE8pop_backEv", scope: !104, file: !101, line: 54, type: !450, scopeLine: 54, flags: DIFlagPublic | DIFlagPrototyped, spFlags: DISPFlagOptimized)
!480 = !DISubprogram(name: "clear", linkageName: "_ZN13vector_memoryI18typed_array_memoryI6StringEE5clearEv", scope: !104, file: !101, line: 60, type: !450, scopeLine: 60, flags: DIFlagPublic | DIFlagPrototyped, spFlags: DISPFlagOptimized)
!481 = !DISubprogram(name: "reserve_and_push_back", linkageName: "_ZN13vector_memoryI18typed_array_memoryI6StringEE21reserve_and_push_backEiPKS1_", scope: !104, file: !101, line: 65, type: !482, scopeLine: 65, flags: DIFlagPublic | DIFlagPrototyped, spFlags: DISPFlagOptimized)
!482 = !DISubroutineType(types: !483)
!483 = !{!17, !452, !440, !447}
!484 = !DISubprogram(name: "swap", linkageName: "_ZN13vector_memoryI18typed_array_memoryI6StringEE4swapERS3_", scope: !104, file: !101, line: 66, type: !485, scopeLine: 66, flags: DIFlagPublic | DIFlagPrototyped, spFlags: DISPFlagOptimized)
!485 = !DISubroutineType(types: !486)
!486 = !{null, !452, !487}
!487 = !DIDerivedType(tag: DW_TAG_reference_type, baseType: !104, size: 64)
!488 = !{!489}
!489 = !DITemplateTypeParameter(name: "AM", type: !111)
!490 = !DISubprogram(name: "Vector", scope: !100, file: !101, line: 137, type: !491, scopeLine: 137, flags: DIFlagPublic | DIFlagExplicit | DIFlagPrototyped, spFlags: DISPFlagOptimized)
!491 = !DISubroutineType(types: !492)
!492 = !{null, !493}
!493 = !DIDerivedType(tag: DW_TAG_pointer_type, baseType: !100, size: 64, flags: DIFlagArtificial | DIFlagObjectPointer)
!494 = !DISubprogram(name: "Vector", scope: !100, file: !101, line: 138, type: !495, scopeLine: 138, flags: DIFlagPublic | DIFlagExplicit | DIFlagPrototyped, spFlags: DISPFlagOptimized)
!495 = !DISubroutineType(types: !496)
!496 = !{null, !493, !497, !498}
!497 = !DIDerivedType(tag: DW_TAG_typedef, name: "size_type", file: !101, line: 128, baseType: !40)
!498 = !DIDerivedType(tag: DW_TAG_typedef, name: "value_argument_type", scope: !100, file: !101, line: 125, baseType: !499)
!499 = !DIDerivedType(tag: DW_TAG_typedef, name: "type", scope: !501, file: !500, line: 150, baseType: !159)
!500 = !DIFile(filename: "../dummy_inc/click/type_traits.hh", directory: "/home/john/projects/click/ir-dir")
!501 = distinct !DICompositeType(tag: DW_TAG_structure_type, name: "fast_argument<String, true>", file: !500, line: 148, size: 8, flags: DIFlagTypePassByValue, elements: !502, templateParams: !505, identifier: "_ZTS13fast_argumentI6StringLb1EE")
!502 = !{!503}
!503 = !DIDerivedType(tag: DW_TAG_member, name: "is_reference", scope: !501, file: !500, line: 149, baseType: !504, flags: DIFlagStaticMember, extraData: i1 true)
!504 = !DIDerivedType(tag: DW_TAG_const_type, baseType: !17)
!505 = !{!438, !506}
!506 = !DITemplateValueParameter(name: "use_reference", type: !17, value: i8 1)
!507 = !DISubprogram(name: "Vector", scope: !100, file: !101, line: 139, type: !508, scopeLine: 139, flags: DIFlagPublic | DIFlagPrototyped, spFlags: DISPFlagOptimized)
!508 = !DISubroutineType(types: !509)
!509 = !{null, !493, !510}
!510 = !DIDerivedType(tag: DW_TAG_reference_type, baseType: !511, size: 64)
!511 = !DIDerivedType(tag: DW_TAG_const_type, baseType: !100)
!512 = !DISubprogram(name: "Vector", scope: !100, file: !101, line: 141, type: !513, scopeLine: 141, flags: DIFlagPublic | DIFlagPrototyped, spFlags: DISPFlagOptimized)
!513 = !DISubroutineType(types: !514)
!514 = !{null, !493, !515}
!515 = !DIDerivedType(tag: DW_TAG_rvalue_reference_type, baseType: !100, size: 64)
!516 = !DISubprogram(name: "operator=", linkageName: "_ZN6VectorI6StringEaSERKS1_", scope: !100, file: !101, line: 144, type: !517, scopeLine: 144, flags: DIFlagPublic | DIFlagPrototyped, spFlags: DISPFlagOptimized)
!517 = !DISubroutineType(types: !518)
!518 = !{!99, !493, !510}
!519 = !DISubprogram(name: "operator=", linkageName: "_ZN6VectorI6StringEaSEOS1_", scope: !100, file: !101, line: 146, type: !520, scopeLine: 146, flags: DIFlagPublic | DIFlagPrototyped, spFlags: DISPFlagOptimized)
!520 = !DISubroutineType(types: !521)
!521 = !{!99, !493, !515}
!522 = !DISubprogram(name: "assign", linkageName: "_ZN6VectorI6StringE6assignEiRKS0_", scope: !100, file: !101, line: 148, type: !523, scopeLine: 148, flags: DIFlagPublic | DIFlagPrototyped, spFlags: DISPFlagOptimized)
!523 = !DISubroutineType(types: !524)
!524 = !{!99, !493, !497, !498}
!525 = !DISubprogram(name: "begin", linkageName: "_ZN6VectorI6StringE5beginEv", scope: !100, file: !101, line: 150, type: !526, scopeLine: 150, flags: DIFlagPublic | DIFlagPrototyped, spFlags: DISPFlagOptimized)
!526 = !DISubroutineType(types: !527)
!527 = !{!528, !493}
!528 = !DIDerivedType(tag: DW_TAG_typedef, name: "iterator", scope: !100, file: !101, line: 130, baseType: !116)
!529 = !DISubprogram(name: "end", linkageName: "_ZN6VectorI6StringE3endEv", scope: !100, file: !101, line: 151, type: !526, scopeLine: 151, flags: DIFlagPublic | DIFlagPrototyped, spFlags: DISPFlagOptimized)
!530 = !DISubprogram(name: "begin", linkageName: "_ZNK6VectorI6StringE5beginEv", scope: !100, file: !101, line: 152, type: !531, scopeLine: 152, flags: DIFlagPublic | DIFlagPrototyped, spFlags: DISPFlagOptimized)
!531 = !DISubroutineType(types: !532)
!532 = !{!533, !534}
!533 = !DIDerivedType(tag: DW_TAG_typedef, name: "const_iterator", scope: !100, file: !101, line: 131, baseType: !418)
!534 = !DIDerivedType(tag: DW_TAG_pointer_type, baseType: !511, size: 64, flags: DIFlagArtificial | DIFlagObjectPointer)
!535 = !DISubprogram(name: "end", linkageName: "_ZNK6VectorI6StringE3endEv", scope: !100, file: !101, line: 153, type: !531, scopeLine: 153, flags: DIFlagPublic | DIFlagPrototyped, spFlags: DISPFlagOptimized)
!536 = !DISubprogram(name: "cbegin", linkageName: "_ZNK6VectorI6StringE6cbeginEv", scope: !100, file: !101, line: 154, type: !531, scopeLine: 154, flags: DIFlagPublic | DIFlagPrototyped, spFlags: DISPFlagOptimized)
!537 = !DISubprogram(name: "cend", linkageName: "_ZNK6VectorI6StringE4cendEv", scope: !100, file: !101, line: 155, type: !531, scopeLine: 155, flags: DIFlagPublic | DIFlagPrototyped, spFlags: DISPFlagOptimized)
!538 = !DISubprogram(name: "size", linkageName: "_ZNK6VectorI6StringE4sizeEv", scope: !100, file: !101, line: 157, type: !539, scopeLine: 157, flags: DIFlagPublic | DIFlagPrototyped, spFlags: DISPFlagOptimized)
!539 = !DISubroutineType(types: !540)
!540 = !{!497, !534}
!541 = !DISubprogram(name: "capacity", linkageName: "_ZNK6VectorI6StringE8capacityEv", scope: !100, file: !101, line: 158, type: !539, scopeLine: 158, flags: DIFlagPublic | DIFlagPrototyped, spFlags: DISPFlagOptimized)
!542 = !DISubprogram(name: "empty", linkageName: "_ZNK6VectorI6StringE5emptyEv", scope: !100, file: !101, line: 159, type: !543, scopeLine: 159, flags: DIFlagPublic | DIFlagPrototyped, spFlags: DISPFlagOptimized)
!543 = !DISubroutineType(types: !544)
!544 = !{!17, !534}
!545 = !DISubprogram(name: "resize", linkageName: "_ZN6VectorI6StringE6resizeEiRKS0_", scope: !100, file: !101, line: 160, type: !495, scopeLine: 160, flags: DIFlagPublic | DIFlagPrototyped, spFlags: DISPFlagOptimized)
!546 = !DISubprogram(name: "reserve", linkageName: "_ZN6VectorI6StringE7reserveEi", scope: !100, file: !101, line: 161, type: !547, scopeLine: 161, flags: DIFlagPublic | DIFlagPrototyped, spFlags: DISPFlagOptimized)
!547 = !DISubroutineType(types: !548)
!548 = !{!17, !493, !497}
!549 = !DISubprogram(name: "operator[]", linkageName: "_ZN6VectorI6StringEixEi", scope: !100, file: !101, line: 163, type: !550, scopeLine: 163, flags: DIFlagPublic | DIFlagPrototyped, spFlags: DISPFlagOptimized)
!550 = !DISubroutineType(types: !551)
!551 = !{!331, !493, !497}
!552 = !DISubprogram(name: "operator[]", linkageName: "_ZNK6VectorI6StringEixEi", scope: !100, file: !101, line: 164, type: !553, scopeLine: 164, flags: DIFlagPublic | DIFlagPrototyped, spFlags: DISPFlagOptimized)
!553 = !DISubroutineType(types: !554)
!554 = !{!159, !534, !497}
!555 = !DISubprogram(name: "at", linkageName: "_ZN6VectorI6StringE2atEi", scope: !100, file: !101, line: 165, type: !550, scopeLine: 165, flags: DIFlagPublic | DIFlagPrototyped, spFlags: DISPFlagOptimized)
!556 = !DISubprogram(name: "at", linkageName: "_ZNK6VectorI6StringE2atEi", scope: !100, file: !101, line: 166, type: !553, scopeLine: 166, flags: DIFlagPublic | DIFlagPrototyped, spFlags: DISPFlagOptimized)
!557 = !DISubprogram(name: "front", linkageName: "_ZN6VectorI6StringE5frontEv", scope: !100, file: !101, line: 167, type: !558, scopeLine: 167, flags: DIFlagPublic | DIFlagPrototyped, spFlags: DISPFlagOptimized)
!558 = !DISubroutineType(types: !559)
!559 = !{!331, !493}
!560 = !DISubprogram(name: "front", linkageName: "_ZNK6VectorI6StringE5frontEv", scope: !100, file: !101, line: 168, type: !561, scopeLine: 168, flags: DIFlagPublic | DIFlagPrototyped, spFlags: DISPFlagOptimized)
!561 = !DISubroutineType(types: !562)
!562 = !{!159, !534}
!563 = !DISubprogram(name: "back", linkageName: "_ZN6VectorI6StringE4backEv", scope: !100, file: !101, line: 169, type: !558, scopeLine: 169, flags: DIFlagPublic | DIFlagPrototyped, spFlags: DISPFlagOptimized)
!564 = !DISubprogram(name: "back", linkageName: "_ZNK6VectorI6StringE4backEv", scope: !100, file: !101, line: 170, type: !561, scopeLine: 170, flags: DIFlagPublic | DIFlagPrototyped, spFlags: DISPFlagOptimized)
!565 = !DISubprogram(name: "unchecked_at", linkageName: "_ZN6VectorI6StringE12unchecked_atEi", scope: !100, file: !101, line: 172, type: !550, scopeLine: 172, flags: DIFlagPublic | DIFlagPrototyped, spFlags: DISPFlagOptimized)
!566 = !DISubprogram(name: "unchecked_at", linkageName: "_ZNK6VectorI6StringE12unchecked_atEi", scope: !100, file: !101, line: 173, type: !553, scopeLine: 173, flags: DIFlagPublic | DIFlagPrototyped, spFlags: DISPFlagOptimized)
!567 = !DISubprogram(name: "at_u", linkageName: "_ZN6VectorI6StringE4at_uEi", scope: !100, file: !101, line: 174, type: !550, scopeLine: 174, flags: DIFlagPublic | DIFlagPrototyped, spFlags: DISPFlagOptimized)
!568 = !DISubprogram(name: "at_u", linkageName: "_ZNK6VectorI6StringE4at_uEi", scope: !100, file: !101, line: 175, type: !553, scopeLine: 175, flags: DIFlagPublic | DIFlagPrototyped, spFlags: DISPFlagOptimized)
!569 = !DISubprogram(name: "data", linkageName: "_ZN6VectorI6StringE4dataEv", scope: !100, file: !101, line: 177, type: !570, scopeLine: 177, flags: DIFlagPublic | DIFlagPrototyped, spFlags: DISPFlagOptimized)
!570 = !DISubroutineType(types: !571)
!571 = !{!116, !493}
!572 = !DISubprogram(name: "data", linkageName: "_ZNK6VectorI6StringE4dataEv", scope: !100, file: !101, line: 178, type: !573, scopeLine: 178, flags: DIFlagPublic | DIFlagPrototyped, spFlags: DISPFlagOptimized)
!573 = !DISubroutineType(types: !574)
!574 = !{!418, !534}
!575 = !DISubprogram(name: "push_back", linkageName: "_ZN6VectorI6StringE9push_backERKS0_", scope: !100, file: !101, line: 180, type: !576, scopeLine: 180, flags: DIFlagPublic | DIFlagPrototyped, spFlags: DISPFlagOptimized)
!576 = !DISubroutineType(types: !577)
!577 = !{null, !493, !498}
!578 = !DISubprogram(name: "pop_back", linkageName: "_ZN6VectorI6StringE8pop_backEv", scope: !100, file: !101, line: 185, type: !491, scopeLine: 185, flags: DIFlagPublic | DIFlagPrototyped, spFlags: DISPFlagOptimized)
!579 = !DISubprogram(name: "push_front", linkageName: "_ZN6VectorI6StringE10push_frontERKS0_", scope: !100, file: !101, line: 186, type: !576, scopeLine: 186, flags: DIFlagPublic | DIFlagPrototyped, spFlags: DISPFlagOptimized)
!580 = !DISubprogram(name: "pop_front", linkageName: "_ZN6VectorI6StringE9pop_frontEv", scope: !100, file: !101, line: 187, type: !491, scopeLine: 187, flags: DIFlagPublic | DIFlagPrototyped, spFlags: DISPFlagOptimized)
!581 = !DISubprogram(name: "insert", linkageName: "_ZN6VectorI6StringE6insertEPS0_RKS0_", scope: !100, file: !101, line: 189, type: !582, scopeLine: 189, flags: DIFlagPublic | DIFlagPrototyped, spFlags: DISPFlagOptimized)
!582 = !DISubroutineType(types: !583)
!583 = !{!528, !493, !528, !498}
!584 = !DISubprogram(name: "erase", linkageName: "_ZN6VectorI6StringE5eraseEPS0_", scope: !100, file: !101, line: 190, type: !585, scopeLine: 190, flags: DIFlagPublic | DIFlagPrototyped, spFlags: DISPFlagOptimized)
!585 = !DISubroutineType(types: !586)
!586 = !{!528, !493, !528}
!587 = !DISubprogram(name: "erase", linkageName: "_ZN6VectorI6StringE5eraseEPS0_S2_", scope: !100, file: !101, line: 191, type: !588, scopeLine: 191, flags: DIFlagPublic | DIFlagPrototyped, spFlags: DISPFlagOptimized)
!588 = !DISubroutineType(types: !589)
!589 = !{!528, !493, !528, !528}
!590 = !DISubprogram(name: "clear", linkageName: "_ZN6VectorI6StringE5clearEv", scope: !100, file: !101, line: 193, type: !491, scopeLine: 193, flags: DIFlagPublic | DIFlagPrototyped, spFlags: DISPFlagOptimized)
!591 = !DISubprogram(name: "swap", linkageName: "_ZN6VectorI6StringE4swapERS1_", scope: !100, file: !101, line: 195, type: !592, scopeLine: 195, flags: DIFlagPublic | DIFlagPrototyped, spFlags: DISPFlagOptimized)
!592 = !DISubroutineType(types: !593)
!593 = !{null, !493, !99}
!594 = !DIDerivedType(tag: DW_TAG_pointer_type, baseType: !595, size: 64)
!595 = !DICompositeType(tag: DW_TAG_class_type, name: "ErrorHandler", file: !596, line: 90, flags: DIFlagFwdDecl, identifier: "_ZTS12ErrorHandler")
!596 = !DIFile(filename: "../dummy_inc/click/error.hh", directory: "/home/john/projects/click/ir-dir")
!597 = !DISubprogram(name: "initialize", linkageName: "_ZN12RandomSample10initializeEP12ErrorHandler", scope: !5, file: !4, line: 74, type: !598, scopeLine: 74, containingType: !5, virtualIndex: 19, flags: DIFlagPublic | DIFlagPrototyped, spFlags: DISPFlagVirtual | DISPFlagOptimized)
!598 = !DISubroutineType(types: !599)
!599 = !{!40, !85, !594}
!600 = !DISubprogram(name: "can_live_reconfigure", linkageName: "_ZNK12RandomSample20can_live_reconfigureEv", scope: !5, file: !4, line: 75, type: !601, scopeLine: 75, containingType: !5, virtualIndex: 24, flags: DIFlagPublic | DIFlagPrototyped, spFlags: DISPFlagVirtual | DISPFlagOptimized)
!601 = !DISubroutineType(types: !602)
!602 = !{!17, !92}
!603 = !DISubprogram(name: "add_handlers", linkageName: "_ZN12RandomSample12add_handlersEv", scope: !5, file: !4, line: 76, type: !83, scopeLine: 76, containingType: !5, virtualIndex: 18, flags: DIFlagPublic | DIFlagPrototyped, spFlags: DISPFlagVirtual | DISPFlagOptimized)
!604 = !DISubprogram(name: "push", linkageName: "_ZN12RandomSample4pushEiP6Packet", scope: !5, file: !4, line: 78, type: !605, scopeLine: 78, containingType: !5, virtualIndex: 2, flags: DIFlagPublic | DIFlagPrototyped, spFlags: DISPFlagVirtual | DISPFlagOptimized)
!605 = !DISubroutineType(types: !606)
!606 = !{null, !85, !40, !607}
!607 = !DIDerivedType(tag: DW_TAG_pointer_type, baseType: !608, size: 64)
!608 = distinct !DICompositeType(tag: DW_TAG_class_type, name: "Packet", file: !609, line: 35, size: 1344, flags: DIFlagTypePassByReference | DIFlagNonTrivial, elements: !610, identifier: "_ZTS6Packet")
!609 = !DIFile(filename: "../dummy_inc/click/packet.hh", directory: "/home/john/projects/click/ir-dir")
!610 = !{!611, !612, !613, !615, !616, !617, !618, !663, !669, !670, !759, !762, !765, !768, !771, !775, !779, !782, !785, !788, !789, !792, !793, !794, !795, !796, !797, !800, !803, !806, !807, !810, !811, !814, !817, !818, !819, !820, !823, !826, !829, !832, !833, !834, !837, !838, !839, !842, !843, !844, !845, !846, !847, !848, !849, !850, !851, !852, !853, !854, !855, !856, !857, !862, !865, !870, !871, !872, !875, !880, !881, !882, !885, !888, !893, !898, !903, !908, !912, !1138, !1142, !1145, !1151, !1154, !1157, !1160, !1163, !1167, !1170, !1171, !1172, !1173, !1263, !1266, !1267, !1270, !1274, !1279, !1283, !1288, !1291, !1294, !1297, !1300, !1306, !1309, !1312, !1315, !1318, !1321, !1324, !1327, !1330, !1333, !1334, !1337, !1341, !1342, !1343, !1344, !1345, !1346, !1347, !1348, !1349, !1350, !1351, !1352, !1353, !1354, !1355, !1356, !1357, !1358, !1359, !1360, !1361, !1362, !1363, !1364, !1365, !1366, !1367, !1368, !1369, !1370, !1371, !1372, !1373, !1374, !1375, !1378, !1379, !1383, !1386, !1389, !1392, !1393}
!611 = !DIDerivedType(tag: DW_TAG_member, name: "_use_count", scope: !608, file: !609, line: 731, baseType: !19, size: 32)
!612 = !DIDerivedType(tag: DW_TAG_member, name: "_data_packet", scope: !608, file: !609, line: 732, baseType: !607, size: 64, offset: 64)
!613 = !DIDerivedType(tag: DW_TAG_member, name: "_head", scope: !608, file: !609, line: 734, baseType: !614, size: 64, offset: 128)
!614 = !DIDerivedType(tag: DW_TAG_pointer_type, baseType: !176, size: 64)
!615 = !DIDerivedType(tag: DW_TAG_member, name: "_data", scope: !608, file: !609, line: 735, baseType: !614, size: 64, offset: 192)
!616 = !DIDerivedType(tag: DW_TAG_member, name: "_tail", scope: !608, file: !609, line: 736, baseType: !614, size: 64, offset: 256)
!617 = !DIDerivedType(tag: DW_TAG_member, name: "_end", scope: !608, file: !609, line: 737, baseType: !614, size: 64, offset: 320)
!618 = !DIDerivedType(tag: DW_TAG_member, name: "_aa", scope: !608, file: !609, line: 741, baseType: !619, size: 832, offset: 384)
!619 = distinct !DICompositeType(tag: DW_TAG_structure_type, name: "AllAnno", scope: !608, file: !609, line: 716, size: 832, flags: DIFlagTypePassByValue, elements: !620, identifier: "_ZTSN6Packet7AllAnnoE")
!620 = !{!621, !647, !648, !649, !650, !660, !661, !662}
!621 = !DIDerivedType(tag: DW_TAG_member, name: "cb", scope: !619, file: !609, line: 717, baseType: !622, size: 384)
!622 = distinct !DICompositeType(tag: DW_TAG_union_type, name: "Anno", scope: !608, file: !609, line: 702, size: 384, flags: DIFlagTypePassByValue, elements: !623, identifier: "_ZTSN6Packet4AnnoE")
!623 = !{!624, !628, !632, !639, !643}
!624 = !DIDerivedType(tag: DW_TAG_member, name: "c", scope: !622, file: !609, line: 703, baseType: !625, size: 384)
!625 = !DICompositeType(tag: DW_TAG_array_type, baseType: !91, size: 384, elements: !626)
!626 = !{!627}
!627 = !DISubrange(count: 48)
!628 = !DIDerivedType(tag: DW_TAG_member, name: "u8", scope: !622, file: !609, line: 704, baseType: !629, size: 384)
!629 = !DICompositeType(tag: DW_TAG_array_type, baseType: !630, size: 384, elements: !626)
!630 = !DIDerivedType(tag: DW_TAG_typedef, name: "uint8_t", file: !12, line: 24, baseType: !631)
!631 = !DIDerivedType(tag: DW_TAG_typedef, name: "__uint8_t", file: !14, line: 38, baseType: !176)
!632 = !DIDerivedType(tag: DW_TAG_member, name: "u16", scope: !622, file: !609, line: 705, baseType: !633, size: 384)
!633 = !DICompositeType(tag: DW_TAG_array_type, baseType: !634, size: 384, elements: !637)
!634 = !DIDerivedType(tag: DW_TAG_typedef, name: "uint16_t", file: !12, line: 25, baseType: !635)
!635 = !DIDerivedType(tag: DW_TAG_typedef, name: "__uint16_t", file: !14, line: 40, baseType: !636)
!636 = !DIBasicType(name: "unsigned short", size: 16, encoding: DW_ATE_unsigned)
!637 = !{!638}
!638 = !DISubrange(count: 24)
!639 = !DIDerivedType(tag: DW_TAG_member, name: "u32", scope: !622, file: !609, line: 706, baseType: !640, size: 384)
!640 = !DICompositeType(tag: DW_TAG_array_type, baseType: !11, size: 384, elements: !641)
!641 = !{!642}
!642 = !DISubrange(count: 12)
!643 = !DIDerivedType(tag: DW_TAG_member, name: "u64", scope: !622, file: !609, line: 708, baseType: !644, size: 384)
!644 = !DICompositeType(tag: DW_TAG_array_type, baseType: !245, size: 384, elements: !645)
!645 = !{!646}
!646 = !DISubrange(count: 6)
!647 = !DIDerivedType(tag: DW_TAG_member, name: "mac", scope: !619, file: !609, line: 718, baseType: !614, size: 64, offset: 384)
!648 = !DIDerivedType(tag: DW_TAG_member, name: "nh", scope: !619, file: !609, line: 719, baseType: !614, size: 64, offset: 448)
!649 = !DIDerivedType(tag: DW_TAG_member, name: "h", scope: !619, file: !609, line: 720, baseType: !614, size: 64, offset: 512)
!650 = !DIDerivedType(tag: DW_TAG_member, name: "pkt_type", scope: !619, file: !609, line: 721, baseType: !651, size: 32, offset: 576)
!651 = !DICompositeType(tag: DW_TAG_enumeration_type, name: "PacketType", scope: !608, file: !609, line: 368, baseType: !15, size: 32, elements: !652, identifier: "_ZTSN6Packet10PacketTypeE")
!652 = !{!653, !654, !655, !656, !657, !658, !659}
!653 = !DIEnumerator(name: "HOST", value: 0, isUnsigned: true)
!654 = !DIEnumerator(name: "BROADCAST", value: 1, isUnsigned: true)
!655 = !DIEnumerator(name: "MULTICAST", value: 2, isUnsigned: true)
!656 = !DIEnumerator(name: "OTHERHOST", value: 3, isUnsigned: true)
!657 = !DIEnumerator(name: "OUTGOING", value: 4, isUnsigned: true)
!658 = !DIEnumerator(name: "LOOPBACK", value: 5, isUnsigned: true)
!659 = !DIEnumerator(name: "FASTROUTE", value: 6, isUnsigned: true)
!660 = !DIDerivedType(tag: DW_TAG_member, name: "timestamp", scope: !619, file: !609, line: 722, baseType: !137, size: 64, offset: 608)
!661 = !DIDerivedType(tag: DW_TAG_member, name: "next", scope: !619, file: !609, line: 723, baseType: !607, size: 64, offset: 704)
!662 = !DIDerivedType(tag: DW_TAG_member, name: "prev", scope: !619, file: !609, line: 724, baseType: !607, size: 64, offset: 768)
!663 = !DIDerivedType(tag: DW_TAG_member, name: "_destructor", scope: !608, file: !609, line: 746, baseType: !664, size: 64, offset: 1216)
!664 = !DIDerivedType(tag: DW_TAG_typedef, name: "buffer_destructor_type", scope: !608, file: !609, line: 65, baseType: !665)
!665 = !DIDerivedType(tag: DW_TAG_pointer_type, baseType: !666, size: 64)
!666 = !DISubroutineType(types: !667)
!667 = !{null, !614, !422, !668}
!668 = !DIDerivedType(tag: DW_TAG_pointer_type, baseType: null, size: 64)
!669 = !DIDerivedType(tag: DW_TAG_member, name: "_destructor_argument", scope: !608, file: !609, line: 747, baseType: !668, size: 64, offset: 1280)
!670 = !DISubprogram(name: "make", linkageName: "_ZN6Packet4makeEjPKvjj", scope: !608, file: !609, line: 52, type: !671, scopeLine: 52, flags: DIFlagPublic | DIFlagPrototyped | DIFlagStaticMember, spFlags: DISPFlagOptimized)
!671 = !DISubroutineType(types: !672)
!672 = !{!673, !11, !757, !11, !11}
!673 = !DIDerivedType(tag: DW_TAG_pointer_type, baseType: !674, size: 64)
!674 = distinct !DICompositeType(tag: DW_TAG_class_type, name: "WritablePacket", file: !609, line: 778, size: 1344, flags: DIFlagTypePassByReference | DIFlagNonTrivial, elements: !675, identifier: "_ZTS14WritablePacket")
!675 = !{!676, !677, !682, !683, !684, !685, !686, !691, !692, !715, !720, !721, !726, !731, !736, !737, !741, !742, !747, !748, !751, !754}
!676 = !DIDerivedType(tag: DW_TAG_inheritance, scope: !674, baseType: !608, flags: DIFlagPublic, extraData: i32 0)
!677 = !DISubprogram(name: "data", linkageName: "_ZNK14WritablePacket4dataEv", scope: !674, file: !609, line: 780, type: !678, scopeLine: 780, flags: DIFlagPublic | DIFlagPrototyped, spFlags: DISPFlagOptimized)
!678 = !DISubroutineType(types: !679)
!679 = !{!614, !680}
!680 = !DIDerivedType(tag: DW_TAG_pointer_type, baseType: !681, size: 64, flags: DIFlagArtificial | DIFlagObjectPointer)
!681 = !DIDerivedType(tag: DW_TAG_const_type, baseType: !674)
!682 = !DISubprogram(name: "end_data", linkageName: "_ZNK14WritablePacket8end_dataEv", scope: !674, file: !609, line: 781, type: !678, scopeLine: 781, flags: DIFlagPublic | DIFlagPrototyped, spFlags: DISPFlagOptimized)
!683 = !DISubprogram(name: "buffer", linkageName: "_ZNK14WritablePacket6bufferEv", scope: !674, file: !609, line: 782, type: !678, scopeLine: 782, flags: DIFlagPublic | DIFlagPrototyped, spFlags: DISPFlagOptimized)
!684 = !DISubprogram(name: "end_buffer", linkageName: "_ZNK14WritablePacket10end_bufferEv", scope: !674, file: !609, line: 783, type: !678, scopeLine: 783, flags: DIFlagPublic | DIFlagPrototyped, spFlags: DISPFlagOptimized)
!685 = !DISubprogram(name: "mac_header", linkageName: "_ZNK14WritablePacket10mac_headerEv", scope: !674, file: !609, line: 784, type: !678, scopeLine: 784, flags: DIFlagPublic | DIFlagPrototyped, spFlags: DISPFlagOptimized)
!686 = !DISubprogram(name: "ether_header", linkageName: "_ZNK14WritablePacket12ether_headerEv", scope: !674, file: !609, line: 785, type: !687, scopeLine: 785, flags: DIFlagPublic | DIFlagPrototyped, spFlags: DISPFlagOptimized)
!687 = !DISubroutineType(types: !688)
!688 = !{!689, !680}
!689 = !DIDerivedType(tag: DW_TAG_pointer_type, baseType: !690, size: 64)
!690 = !DICompositeType(tag: DW_TAG_structure_type, name: "click_ether", file: !609, line: 24, flags: DIFlagFwdDecl, identifier: "_ZTS11click_ether")
!691 = !DISubprogram(name: "network_header", linkageName: "_ZNK14WritablePacket14network_headerEv", scope: !674, file: !609, line: 786, type: !678, scopeLine: 786, flags: DIFlagPublic | DIFlagPrototyped, spFlags: DISPFlagOptimized)
!692 = !DISubprogram(name: "ip_header", linkageName: "_ZNK14WritablePacket9ip_headerEv", scope: !674, file: !609, line: 787, type: !693, scopeLine: 787, flags: DIFlagPublic | DIFlagPrototyped, spFlags: DISPFlagOptimized)
!693 = !DISubroutineType(types: !694)
!694 = !{!695, !680}
!695 = !DIDerivedType(tag: DW_TAG_pointer_type, baseType: !696, size: 64)
!696 = distinct !DICompositeType(tag: DW_TAG_structure_type, name: "click_ip", file: !697, line: 23, size: 160, flags: DIFlagTypePassByValue, elements: !698, identifier: "_ZTS8click_ip")
!697 = !DIFile(filename: "../dummy_inc/clicknet/ip.h", directory: "/home/john/projects/click/ir-dir")
!698 = !{!699, !700, !701, !702, !703, !704, !705, !706, !707, !708, !714}
!699 = !DIDerivedType(tag: DW_TAG_member, name: "ip_hl", scope: !696, file: !697, line: 28, baseType: !15, size: 4, flags: DIFlagBitField, extraData: i64 0)
!700 = !DIDerivedType(tag: DW_TAG_member, name: "ip_v", scope: !696, file: !697, line: 29, baseType: !15, size: 4, offset: 4, flags: DIFlagBitField, extraData: i64 0)
!701 = !DIDerivedType(tag: DW_TAG_member, name: "ip_tos", scope: !696, file: !697, line: 33, baseType: !630, size: 8, offset: 8)
!702 = !DIDerivedType(tag: DW_TAG_member, name: "ip_len", scope: !696, file: !697, line: 40, baseType: !634, size: 16, offset: 16)
!703 = !DIDerivedType(tag: DW_TAG_member, name: "ip_id", scope: !696, file: !697, line: 41, baseType: !634, size: 16, offset: 32)
!704 = !DIDerivedType(tag: DW_TAG_member, name: "ip_off", scope: !696, file: !697, line: 42, baseType: !634, size: 16, offset: 48)
!705 = !DIDerivedType(tag: DW_TAG_member, name: "ip_ttl", scope: !696, file: !697, line: 47, baseType: !630, size: 8, offset: 64)
!706 = !DIDerivedType(tag: DW_TAG_member, name: "ip_p", scope: !696, file: !697, line: 48, baseType: !630, size: 8, offset: 72)
!707 = !DIDerivedType(tag: DW_TAG_member, name: "ip_sum", scope: !696, file: !697, line: 49, baseType: !634, size: 16, offset: 80)
!708 = !DIDerivedType(tag: DW_TAG_member, name: "ip_src", scope: !696, file: !697, line: 50, baseType: !709, size: 32, offset: 96)
!709 = distinct !DICompositeType(tag: DW_TAG_structure_type, name: "in_addr", file: !710, line: 31, size: 32, flags: DIFlagTypePassByValue, elements: !711, identifier: "_ZTS7in_addr")
!710 = !DIFile(filename: "/usr/include/netinet/in.h", directory: "")
!711 = !{!712}
!712 = !DIDerivedType(tag: DW_TAG_member, name: "s_addr", scope: !709, file: !710, line: 33, baseType: !713, size: 32)
!713 = !DIDerivedType(tag: DW_TAG_typedef, name: "in_addr_t", file: !710, line: 30, baseType: !11)
!714 = !DIDerivedType(tag: DW_TAG_member, name: "ip_dst", scope: !696, file: !697, line: 51, baseType: !709, size: 32, offset: 128)
!715 = !DISubprogram(name: "ip6_header", linkageName: "_ZNK14WritablePacket10ip6_headerEv", scope: !674, file: !609, line: 788, type: !716, scopeLine: 788, flags: DIFlagPublic | DIFlagPrototyped, spFlags: DISPFlagOptimized)
!716 = !DISubroutineType(types: !717)
!717 = !{!718, !680}
!718 = !DIDerivedType(tag: DW_TAG_pointer_type, baseType: !719, size: 64)
!719 = !DICompositeType(tag: DW_TAG_structure_type, name: "click_ip6", file: !609, line: 27, flags: DIFlagFwdDecl, identifier: "_ZTS9click_ip6")
!720 = !DISubprogram(name: "transport_header", linkageName: "_ZNK14WritablePacket16transport_headerEv", scope: !674, file: !609, line: 789, type: !678, scopeLine: 789, flags: DIFlagPublic | DIFlagPrototyped, spFlags: DISPFlagOptimized)
!721 = !DISubprogram(name: "icmp_header", linkageName: "_ZNK14WritablePacket11icmp_headerEv", scope: !674, file: !609, line: 790, type: !722, scopeLine: 790, flags: DIFlagPublic | DIFlagPrototyped, spFlags: DISPFlagOptimized)
!722 = !DISubroutineType(types: !723)
!723 = !{!724, !680}
!724 = !DIDerivedType(tag: DW_TAG_pointer_type, baseType: !725, size: 64)
!725 = !DICompositeType(tag: DW_TAG_structure_type, name: "click_icmp", file: !609, line: 26, flags: DIFlagFwdDecl, identifier: "_ZTS10click_icmp")
!726 = !DISubprogram(name: "tcp_header", linkageName: "_ZNK14WritablePacket10tcp_headerEv", scope: !674, file: !609, line: 791, type: !727, scopeLine: 791, flags: DIFlagPublic | DIFlagPrototyped, spFlags: DISPFlagOptimized)
!727 = !DISubroutineType(types: !728)
!728 = !{!729, !680}
!729 = !DIDerivedType(tag: DW_TAG_pointer_type, baseType: !730, size: 64)
!730 = !DICompositeType(tag: DW_TAG_structure_type, name: "click_tcp", file: !609, line: 28, flags: DIFlagFwdDecl, identifier: "_ZTS9click_tcp")
!731 = !DISubprogram(name: "udp_header", linkageName: "_ZNK14WritablePacket10udp_headerEv", scope: !674, file: !609, line: 792, type: !732, scopeLine: 792, flags: DIFlagPublic | DIFlagPrototyped, spFlags: DISPFlagOptimized)
!732 = !DISubroutineType(types: !733)
!733 = !{!734, !680}
!734 = !DIDerivedType(tag: DW_TAG_pointer_type, baseType: !735, size: 64)
!735 = !DICompositeType(tag: DW_TAG_structure_type, name: "click_udp", file: !609, line: 29, flags: DIFlagFwdDecl, identifier: "_ZTS9click_udp")
!736 = !DISubprogram(name: "buffer_data", linkageName: "_ZNK14WritablePacket11buffer_dataEv", scope: !674, file: !609, line: 795, type: !678, scopeLine: 795, flags: DIFlagPublic | DIFlagPrototyped, spFlags: DISPFlagOptimized)
!737 = !DISubprogram(name: "WritablePacket", scope: !674, file: !609, line: 800, type: !738, scopeLine: 800, flags: DIFlagPrototyped, spFlags: DISPFlagOptimized)
!738 = !DISubroutineType(types: !739)
!739 = !{null, !740}
!740 = !DIDerivedType(tag: DW_TAG_pointer_type, baseType: !674, size: 64, flags: DIFlagArtificial | DIFlagObjectPointer)
!741 = !DISubprogram(name: "initialize", linkageName: "_ZN14WritablePacket10initializeEv", scope: !674, file: !609, line: 802, type: !738, scopeLine: 802, flags: DIFlagPrototyped, spFlags: DISPFlagOptimized)
!742 = !DISubprogram(name: "WritablePacket", scope: !674, file: !609, line: 804, type: !743, scopeLine: 804, flags: DIFlagPrototyped, spFlags: DISPFlagOptimized)
!743 = !DISubroutineType(types: !744)
!744 = !{null, !740, !745}
!745 = !DIDerivedType(tag: DW_TAG_reference_type, baseType: !746, size: 64)
!746 = !DIDerivedType(tag: DW_TAG_const_type, baseType: !608)
!747 = !DISubprogram(name: "~WritablePacket", scope: !674, file: !609, line: 805, type: !738, scopeLine: 805, flags: DIFlagPrototyped, spFlags: DISPFlagOptimized)
!748 = !DISubprogram(name: "pool_allocate", linkageName: "_ZN14WritablePacket13pool_allocateEb", scope: !674, file: !609, line: 808, type: !749, scopeLine: 808, flags: DIFlagPrototyped | DIFlagStaticMember, spFlags: DISPFlagOptimized)
!749 = !DISubroutineType(types: !750)
!750 = !{!673, !17}
!751 = !DISubprogram(name: "pool_allocate", linkageName: "_ZN14WritablePacket13pool_allocateEjjj", scope: !674, file: !609, line: 809, type: !752, scopeLine: 809, flags: DIFlagPrototyped | DIFlagStaticMember, spFlags: DISPFlagOptimized)
!752 = !DISubroutineType(types: !753)
!753 = !{!673, !11, !11, !11}
!754 = !DISubprogram(name: "recycle", linkageName: "_ZN14WritablePacket7recycleEPS_", scope: !674, file: !609, line: 811, type: !755, scopeLine: 811, flags: DIFlagPrototyped | DIFlagStaticMember, spFlags: DISPFlagOptimized)
!755 = !DISubroutineType(types: !756)
!756 = !{null, !673}
!757 = !DIDerivedType(tag: DW_TAG_pointer_type, baseType: !758, size: 64)
!758 = !DIDerivedType(tag: DW_TAG_const_type, baseType: null)
!759 = !DISubprogram(name: "make", linkageName: "_ZN6Packet4makeEPKvj", scope: !608, file: !609, line: 54, type: !760, scopeLine: 54, flags: DIFlagPublic | DIFlagPrototyped | DIFlagStaticMember, spFlags: DISPFlagOptimized)
!760 = !DISubroutineType(types: !761)
!761 = !{!673, !757, !11}
!762 = !DISubprogram(name: "make", linkageName: "_ZN6Packet4makeEj", scope: !608, file: !609, line: 55, type: !763, scopeLine: 55, flags: DIFlagPublic | DIFlagPrototyped | DIFlagStaticMember, spFlags: DISPFlagOptimized)
!763 = !DISubroutineType(types: !764)
!764 = !{!673, !11}
!765 = !DISubprogram(name: "make", linkageName: "_ZN6Packet4makeEPhjPFvS0_mPvES1_ii", scope: !608, file: !609, line: 66, type: !766, scopeLine: 66, flags: DIFlagPublic | DIFlagPrototyped | DIFlagStaticMember, spFlags: DISPFlagOptimized)
!766 = !DISubroutineType(types: !767)
!767 = !{!673, !614, !11, !664, !668, !40, !40}
!768 = !DISubprogram(name: "static_cleanup", linkageName: "_ZN6Packet14static_cleanupEv", scope: !608, file: !609, line: 71, type: !769, scopeLine: 71, flags: DIFlagPublic | DIFlagPrototyped | DIFlagStaticMember, spFlags: DISPFlagOptimized)
!769 = !DISubroutineType(types: !770)
!770 = !{null}
!771 = !DISubprogram(name: "kill", linkageName: "_ZN6Packet4killEv", scope: !608, file: !609, line: 73, type: !772, scopeLine: 73, flags: DIFlagPublic | DIFlagPrototyped, spFlags: DISPFlagOptimized)
!772 = !DISubroutineType(types: !773)
!773 = !{null, !774}
!774 = !DIDerivedType(tag: DW_TAG_pointer_type, baseType: !608, size: 64, flags: DIFlagArtificial | DIFlagObjectPointer)
!775 = !DISubprogram(name: "shared", linkageName: "_ZNK6Packet6sharedEv", scope: !608, file: !609, line: 75, type: !776, scopeLine: 75, flags: DIFlagPublic | DIFlagPrototyped, spFlags: DISPFlagOptimized)
!776 = !DISubroutineType(types: !777)
!777 = !{!17, !778}
!778 = !DIDerivedType(tag: DW_TAG_pointer_type, baseType: !746, size: 64, flags: DIFlagArtificial | DIFlagObjectPointer)
!779 = !DISubprogram(name: "clone", linkageName: "_ZN6Packet5cloneEv", scope: !608, file: !609, line: 76, type: !780, scopeLine: 76, flags: DIFlagPublic | DIFlagPrototyped, spFlags: DISPFlagOptimized)
!780 = !DISubroutineType(types: !781)
!781 = !{!607, !774}
!782 = !DISubprogram(name: "uniqueify", linkageName: "_ZN6Packet9uniqueifyEv", scope: !608, file: !609, line: 77, type: !783, scopeLine: 77, flags: DIFlagPublic | DIFlagPrototyped, spFlags: DISPFlagOptimized)
!783 = !DISubroutineType(types: !784)
!784 = !{!673, !774}
!785 = !DISubprogram(name: "data", linkageName: "_ZNK6Packet4dataEv", scope: !608, file: !609, line: 79, type: !786, scopeLine: 79, flags: DIFlagPublic | DIFlagPrototyped, spFlags: DISPFlagOptimized)
!786 = !DISubroutineType(types: !787)
!787 = !{!174, !778}
!788 = !DISubprogram(name: "end_data", linkageName: "_ZNK6Packet8end_dataEv", scope: !608, file: !609, line: 80, type: !786, scopeLine: 80, flags: DIFlagPublic | DIFlagPrototyped, spFlags: DISPFlagOptimized)
!789 = !DISubprogram(name: "length", linkageName: "_ZNK6Packet6lengthEv", scope: !608, file: !609, line: 81, type: !790, scopeLine: 81, flags: DIFlagPublic | DIFlagPrototyped, spFlags: DISPFlagOptimized)
!790 = !DISubroutineType(types: !791)
!791 = !{!11, !778}
!792 = !DISubprogram(name: "headroom", linkageName: "_ZNK6Packet8headroomEv", scope: !608, file: !609, line: 82, type: !790, scopeLine: 82, flags: DIFlagPublic | DIFlagPrototyped, spFlags: DISPFlagOptimized)
!793 = !DISubprogram(name: "tailroom", linkageName: "_ZNK6Packet8tailroomEv", scope: !608, file: !609, line: 83, type: !790, scopeLine: 83, flags: DIFlagPublic | DIFlagPrototyped, spFlags: DISPFlagOptimized)
!794 = !DISubprogram(name: "buffer", linkageName: "_ZNK6Packet6bufferEv", scope: !608, file: !609, line: 84, type: !786, scopeLine: 84, flags: DIFlagPublic | DIFlagPrototyped, spFlags: DISPFlagOptimized)
!795 = !DISubprogram(name: "end_buffer", linkageName: "_ZNK6Packet10end_bufferEv", scope: !608, file: !609, line: 85, type: !786, scopeLine: 85, flags: DIFlagPublic | DIFlagPrototyped, spFlags: DISPFlagOptimized)
!796 = !DISubprogram(name: "buffer_length", linkageName: "_ZNK6Packet13buffer_lengthEv", scope: !608, file: !609, line: 86, type: !790, scopeLine: 86, flags: DIFlagPublic | DIFlagPrototyped, spFlags: DISPFlagOptimized)
!797 = !DISubprogram(name: "buffer_destructor", linkageName: "_ZNK6Packet17buffer_destructorEv", scope: !608, file: !609, line: 97, type: !798, scopeLine: 97, flags: DIFlagPublic | DIFlagPrototyped, spFlags: DISPFlagOptimized)
!798 = !DISubroutineType(types: !799)
!799 = !{!664, !778}
!800 = !DISubprogram(name: "set_buffer_destructor", linkageName: "_ZN6Packet21set_buffer_destructorEPFvPhmPvE", scope: !608, file: !609, line: 101, type: !801, scopeLine: 101, flags: DIFlagPublic | DIFlagPrototyped, spFlags: DISPFlagOptimized)
!801 = !DISubroutineType(types: !802)
!802 = !{null, !774, !664}
!803 = !DISubprogram(name: "destructor_argument", linkageName: "_ZN6Packet19destructor_argumentEv", scope: !608, file: !609, line: 105, type: !804, scopeLine: 105, flags: DIFlagPublic | DIFlagPrototyped, spFlags: DISPFlagOptimized)
!804 = !DISubroutineType(types: !805)
!805 = !{!668, !774}
!806 = !DISubprogram(name: "reset_buffer", linkageName: "_ZN6Packet12reset_bufferEv", scope: !608, file: !609, line: 109, type: !772, scopeLine: 109, flags: DIFlagPublic | DIFlagPrototyped, spFlags: DISPFlagOptimized)
!807 = !DISubprogram(name: "push", linkageName: "_ZN6Packet4pushEj", scope: !608, file: !609, line: 141, type: !808, scopeLine: 141, flags: DIFlagPublic | DIFlagPrototyped, spFlags: DISPFlagOptimized)
!808 = !DISubroutineType(types: !809)
!809 = !{!673, !774, !11}
!810 = !DISubprogram(name: "push_mac_header", linkageName: "_ZN6Packet15push_mac_headerEj", scope: !608, file: !609, line: 152, type: !808, scopeLine: 152, flags: DIFlagPublic | DIFlagPrototyped, spFlags: DISPFlagOptimized)
!811 = !DISubprogram(name: "nonunique_push", linkageName: "_ZN6Packet14nonunique_pushEj", scope: !608, file: !609, line: 171, type: !812, scopeLine: 171, flags: DIFlagPublic | DIFlagPrototyped, spFlags: DISPFlagOptimized)
!812 = !DISubroutineType(types: !813)
!813 = !{!607, !774, !11}
!814 = !DISubprogram(name: "pull", linkageName: "_ZN6Packet4pullEj", scope: !608, file: !609, line: 187, type: !815, scopeLine: 187, flags: DIFlagPublic | DIFlagPrototyped, spFlags: DISPFlagOptimized)
!815 = !DISubroutineType(types: !816)
!816 = !{null, !774, !11}
!817 = !DISubprogram(name: "put", linkageName: "_ZN6Packet3putEj", scope: !608, file: !609, line: 213, type: !808, scopeLine: 213, flags: DIFlagPublic | DIFlagPrototyped, spFlags: DISPFlagOptimized)
!818 = !DISubprogram(name: "nonunique_put", linkageName: "_ZN6Packet13nonunique_putEj", scope: !608, file: !609, line: 230, type: !812, scopeLine: 230, flags: DIFlagPublic | DIFlagPrototyped, spFlags: DISPFlagOptimized)
!819 = !DISubprogram(name: "take", linkageName: "_ZN6Packet4takeEj", scope: !608, file: !609, line: 245, type: !815, scopeLine: 245, flags: DIFlagPublic | DIFlagPrototyped, spFlags: DISPFlagOptimized)
!820 = !DISubprogram(name: "shift_data", linkageName: "_ZN6Packet10shift_dataEib", scope: !608, file: !609, line: 269, type: !821, scopeLine: 269, flags: DIFlagPublic | DIFlagPrototyped, spFlags: DISPFlagOptimized)
!821 = !DISubroutineType(types: !822)
!822 = !{!607, !774, !40, !17}
!823 = !DISubprogram(name: "shrink_data", linkageName: "_ZN6Packet11shrink_dataEPKhj", scope: !608, file: !609, line: 271, type: !824, scopeLine: 271, flags: DIFlagPublic | DIFlagPrototyped, spFlags: DISPFlagOptimized)
!824 = !DISubroutineType(types: !825)
!825 = !{null, !774, !174, !11}
!826 = !DISubprogram(name: "change_headroom_and_length", linkageName: "_ZN6Packet26change_headroom_and_lengthEjj", scope: !608, file: !609, line: 272, type: !827, scopeLine: 272, flags: DIFlagPublic | DIFlagPrototyped, spFlags: DISPFlagOptimized)
!827 = !DISubroutineType(types: !828)
!828 = !{null, !774, !11, !11}
!829 = !DISubprogram(name: "copy", linkageName: "_ZN6Packet4copyEPS_i", scope: !608, file: !609, line: 274, type: !830, scopeLine: 274, flags: DIFlagPublic | DIFlagPrototyped, spFlags: DISPFlagOptimized)
!830 = !DISubroutineType(types: !831)
!831 = !{!17, !774, !607, !40}
!832 = !DISubprogram(name: "has_mac_header", linkageName: "_ZNK6Packet14has_mac_headerEv", scope: !608, file: !609, line: 279, type: !776, scopeLine: 279, flags: DIFlagPublic | DIFlagPrototyped, spFlags: DISPFlagOptimized)
!833 = !DISubprogram(name: "mac_header", linkageName: "_ZNK6Packet10mac_headerEv", scope: !608, file: !609, line: 280, type: !786, scopeLine: 280, flags: DIFlagPublic | DIFlagPrototyped, spFlags: DISPFlagOptimized)
!834 = !DISubprogram(name: "mac_header_offset", linkageName: "_ZNK6Packet17mac_header_offsetEv", scope: !608, file: !609, line: 281, type: !835, scopeLine: 281, flags: DIFlagPublic | DIFlagPrototyped, spFlags: DISPFlagOptimized)
!835 = !DISubroutineType(types: !836)
!836 = !{!40, !778}
!837 = !DISubprogram(name: "mac_header_length", linkageName: "_ZNK6Packet17mac_header_lengthEv", scope: !608, file: !609, line: 282, type: !790, scopeLine: 282, flags: DIFlagPublic | DIFlagPrototyped, spFlags: DISPFlagOptimized)
!838 = !DISubprogram(name: "mac_length", linkageName: "_ZNK6Packet10mac_lengthEv", scope: !608, file: !609, line: 283, type: !835, scopeLine: 283, flags: DIFlagPublic | DIFlagPrototyped, spFlags: DISPFlagOptimized)
!839 = !DISubprogram(name: "set_mac_header", linkageName: "_ZN6Packet14set_mac_headerEPKh", scope: !608, file: !609, line: 284, type: !840, scopeLine: 284, flags: DIFlagPublic | DIFlagPrototyped, spFlags: DISPFlagOptimized)
!840 = !DISubroutineType(types: !841)
!841 = !{null, !774, !174}
!842 = !DISubprogram(name: "set_mac_header", linkageName: "_ZN6Packet14set_mac_headerEPKhj", scope: !608, file: !609, line: 285, type: !824, scopeLine: 285, flags: DIFlagPublic | DIFlagPrototyped, spFlags: DISPFlagOptimized)
!843 = !DISubprogram(name: "clear_mac_header", linkageName: "_ZN6Packet16clear_mac_headerEv", scope: !608, file: !609, line: 286, type: !772, scopeLine: 286, flags: DIFlagPublic | DIFlagPrototyped, spFlags: DISPFlagOptimized)
!844 = !DISubprogram(name: "has_network_header", linkageName: "_ZNK6Packet18has_network_headerEv", scope: !608, file: !609, line: 288, type: !776, scopeLine: 288, flags: DIFlagPublic | DIFlagPrototyped, spFlags: DISPFlagOptimized)
!845 = !DISubprogram(name: "network_header", linkageName: "_ZNK6Packet14network_headerEv", scope: !608, file: !609, line: 289, type: !786, scopeLine: 289, flags: DIFlagPublic | DIFlagPrototyped, spFlags: DISPFlagOptimized)
!846 = !DISubprogram(name: "network_header_offset", linkageName: "_ZNK6Packet21network_header_offsetEv", scope: !608, file: !609, line: 290, type: !835, scopeLine: 290, flags: DIFlagPublic | DIFlagPrototyped, spFlags: DISPFlagOptimized)
!847 = !DISubprogram(name: "network_header_length", linkageName: "_ZNK6Packet21network_header_lengthEv", scope: !608, file: !609, line: 291, type: !790, scopeLine: 291, flags: DIFlagPublic | DIFlagPrototyped, spFlags: DISPFlagOptimized)
!848 = !DISubprogram(name: "network_length", linkageName: "_ZNK6Packet14network_lengthEv", scope: !608, file: !609, line: 292, type: !835, scopeLine: 292, flags: DIFlagPublic | DIFlagPrototyped, spFlags: DISPFlagOptimized)
!849 = !DISubprogram(name: "set_network_header", linkageName: "_ZN6Packet18set_network_headerEPKhj", scope: !608, file: !609, line: 293, type: !824, scopeLine: 293, flags: DIFlagPublic | DIFlagPrototyped, spFlags: DISPFlagOptimized)
!850 = !DISubprogram(name: "set_network_header_length", linkageName: "_ZN6Packet25set_network_header_lengthEj", scope: !608, file: !609, line: 294, type: !815, scopeLine: 294, flags: DIFlagPublic | DIFlagPrototyped, spFlags: DISPFlagOptimized)
!851 = !DISubprogram(name: "clear_network_header", linkageName: "_ZN6Packet20clear_network_headerEv", scope: !608, file: !609, line: 295, type: !772, scopeLine: 295, flags: DIFlagPublic | DIFlagPrototyped, spFlags: DISPFlagOptimized)
!852 = !DISubprogram(name: "has_transport_header", linkageName: "_ZNK6Packet20has_transport_headerEv", scope: !608, file: !609, line: 297, type: !776, scopeLine: 297, flags: DIFlagPublic | DIFlagPrototyped, spFlags: DISPFlagOptimized)
!853 = !DISubprogram(name: "transport_header", linkageName: "_ZNK6Packet16transport_headerEv", scope: !608, file: !609, line: 298, type: !786, scopeLine: 298, flags: DIFlagPublic | DIFlagPrototyped, spFlags: DISPFlagOptimized)
!854 = !DISubprogram(name: "transport_header_offset", linkageName: "_ZNK6Packet23transport_header_offsetEv", scope: !608, file: !609, line: 299, type: !835, scopeLine: 299, flags: DIFlagPublic | DIFlagPrototyped, spFlags: DISPFlagOptimized)
!855 = !DISubprogram(name: "transport_length", linkageName: "_ZNK6Packet16transport_lengthEv", scope: !608, file: !609, line: 300, type: !835, scopeLine: 300, flags: DIFlagPublic | DIFlagPrototyped, spFlags: DISPFlagOptimized)
!856 = !DISubprogram(name: "clear_transport_header", linkageName: "_ZN6Packet22clear_transport_headerEv", scope: !608, file: !609, line: 301, type: !772, scopeLine: 301, flags: DIFlagPublic | DIFlagPrototyped, spFlags: DISPFlagOptimized)
!857 = !DISubprogram(name: "ether_header", linkageName: "_ZNK6Packet12ether_headerEv", scope: !608, file: !609, line: 304, type: !858, scopeLine: 304, flags: DIFlagPublic | DIFlagPrototyped, spFlags: DISPFlagOptimized)
!858 = !DISubroutineType(types: !859)
!859 = !{!860, !778}
!860 = !DIDerivedType(tag: DW_TAG_pointer_type, baseType: !861, size: 64)
!861 = !DIDerivedType(tag: DW_TAG_const_type, baseType: !690)
!862 = !DISubprogram(name: "set_ether_header", linkageName: "_ZN6Packet16set_ether_headerEPK11click_ether", scope: !608, file: !609, line: 305, type: !863, scopeLine: 305, flags: DIFlagPublic | DIFlagPrototyped, spFlags: DISPFlagOptimized)
!863 = !DISubroutineType(types: !864)
!864 = !{null, !774, !860}
!865 = !DISubprogram(name: "ip_header", linkageName: "_ZNK6Packet9ip_headerEv", scope: !608, file: !609, line: 307, type: !866, scopeLine: 307, flags: DIFlagPublic | DIFlagPrototyped, spFlags: DISPFlagOptimized)
!866 = !DISubroutineType(types: !867)
!867 = !{!868, !778}
!868 = !DIDerivedType(tag: DW_TAG_pointer_type, baseType: !869, size: 64)
!869 = !DIDerivedType(tag: DW_TAG_const_type, baseType: !696)
!870 = !DISubprogram(name: "ip_header_offset", linkageName: "_ZNK6Packet16ip_header_offsetEv", scope: !608, file: !609, line: 308, type: !835, scopeLine: 308, flags: DIFlagPublic | DIFlagPrototyped, spFlags: DISPFlagOptimized)
!871 = !DISubprogram(name: "ip_header_length", linkageName: "_ZNK6Packet16ip_header_lengthEv", scope: !608, file: !609, line: 309, type: !790, scopeLine: 309, flags: DIFlagPublic | DIFlagPrototyped, spFlags: DISPFlagOptimized)
!872 = !DISubprogram(name: "set_ip_header", linkageName: "_ZN6Packet13set_ip_headerEPK8click_ipj", scope: !608, file: !609, line: 310, type: !873, scopeLine: 310, flags: DIFlagPublic | DIFlagPrototyped, spFlags: DISPFlagOptimized)
!873 = !DISubroutineType(types: !874)
!874 = !{null, !774, !868, !11}
!875 = !DISubprogram(name: "ip6_header", linkageName: "_ZNK6Packet10ip6_headerEv", scope: !608, file: !609, line: 312, type: !876, scopeLine: 312, flags: DIFlagPublic | DIFlagPrototyped, spFlags: DISPFlagOptimized)
!876 = !DISubroutineType(types: !877)
!877 = !{!878, !778}
!878 = !DIDerivedType(tag: DW_TAG_pointer_type, baseType: !879, size: 64)
!879 = !DIDerivedType(tag: DW_TAG_const_type, baseType: !719)
!880 = !DISubprogram(name: "ip6_header_offset", linkageName: "_ZNK6Packet17ip6_header_offsetEv", scope: !608, file: !609, line: 313, type: !835, scopeLine: 313, flags: DIFlagPublic | DIFlagPrototyped, spFlags: DISPFlagOptimized)
!881 = !DISubprogram(name: "ip6_header_length", linkageName: "_ZNK6Packet17ip6_header_lengthEv", scope: !608, file: !609, line: 314, type: !790, scopeLine: 314, flags: DIFlagPublic | DIFlagPrototyped, spFlags: DISPFlagOptimized)
!882 = !DISubprogram(name: "set_ip6_header", linkageName: "_ZN6Packet14set_ip6_headerEPK9click_ip6", scope: !608, file: !609, line: 315, type: !883, scopeLine: 315, flags: DIFlagPublic | DIFlagPrototyped, spFlags: DISPFlagOptimized)
!883 = !DISubroutineType(types: !884)
!884 = !{null, !774, !878}
!885 = !DISubprogram(name: "set_ip6_header", linkageName: "_ZN6Packet14set_ip6_headerEPK9click_ip6j", scope: !608, file: !609, line: 316, type: !886, scopeLine: 316, flags: DIFlagPublic | DIFlagPrototyped, spFlags: DISPFlagOptimized)
!886 = !DISubroutineType(types: !887)
!887 = !{null, !774, !878, !11}
!888 = !DISubprogram(name: "icmp_header", linkageName: "_ZNK6Packet11icmp_headerEv", scope: !608, file: !609, line: 318, type: !889, scopeLine: 318, flags: DIFlagPublic | DIFlagPrototyped, spFlags: DISPFlagOptimized)
!889 = !DISubroutineType(types: !890)
!890 = !{!891, !778}
!891 = !DIDerivedType(tag: DW_TAG_pointer_type, baseType: !892, size: 64)
!892 = !DIDerivedType(tag: DW_TAG_const_type, baseType: !725)
!893 = !DISubprogram(name: "tcp_header", linkageName: "_ZNK6Packet10tcp_headerEv", scope: !608, file: !609, line: 319, type: !894, scopeLine: 319, flags: DIFlagPublic | DIFlagPrototyped, spFlags: DISPFlagOptimized)
!894 = !DISubroutineType(types: !895)
!895 = !{!896, !778}
!896 = !DIDerivedType(tag: DW_TAG_pointer_type, baseType: !897, size: 64)
!897 = !DIDerivedType(tag: DW_TAG_const_type, baseType: !730)
!898 = !DISubprogram(name: "udp_header", linkageName: "_ZNK6Packet10udp_headerEv", scope: !608, file: !609, line: 320, type: !899, scopeLine: 320, flags: DIFlagPublic | DIFlagPrototyped, spFlags: DISPFlagOptimized)
!899 = !DISubroutineType(types: !900)
!900 = !{!901, !778}
!901 = !DIDerivedType(tag: DW_TAG_pointer_type, baseType: !902, size: 64)
!902 = !DIDerivedType(tag: DW_TAG_const_type, baseType: !735)
!903 = !DISubprogram(name: "xanno", linkageName: "_ZNK6Packet5xannoEv", scope: !608, file: !609, line: 340, type: !904, scopeLine: 340, flags: DIFlagPrototyped, spFlags: DISPFlagOptimized)
!904 = !DISubroutineType(types: !905)
!905 = !{!906, !778}
!906 = !DIDerivedType(tag: DW_TAG_pointer_type, baseType: !907, size: 64)
!907 = !DIDerivedType(tag: DW_TAG_const_type, baseType: !622)
!908 = !DISubprogram(name: "xanno", linkageName: "_ZN6Packet5xannoEv", scope: !608, file: !609, line: 341, type: !909, scopeLine: 341, flags: DIFlagPrototyped, spFlags: DISPFlagOptimized)
!909 = !DISubroutineType(types: !910)
!910 = !{!911, !774}
!911 = !DIDerivedType(tag: DW_TAG_pointer_type, baseType: !622, size: 64)
!912 = !DISubprogram(name: "timestamp_anno", linkageName: "_ZNK6Packet14timestamp_annoEv", scope: !608, file: !609, line: 354, type: !913, scopeLine: 354, flags: DIFlagPublic | DIFlagPrototyped, spFlags: DISPFlagOptimized)
!913 = !DISubroutineType(types: !914)
!914 = !{!915, !778}
!915 = !DIDerivedType(tag: DW_TAG_reference_type, baseType: !916, size: 64)
!916 = !DIDerivedType(tag: DW_TAG_const_type, baseType: !917)
!917 = distinct !DICompositeType(tag: DW_TAG_class_type, name: "Timestamp", file: !918, line: 122, size: 64, flags: DIFlagTypePassByValue | DIFlagNonTrivial, elements: !919, identifier: "_ZTS9Timestamp")
!918 = !DIFile(filename: "../dummy_inc/click/timestamp.hh", directory: "/home/john/projects/click/ir-dir")
!919 = !{!920, !924, !928, !931, !934, !937, !940, !943, !955, !966, !971, !980, !989, !992, !993, !996, !997, !998, !999, !1002, !1005, !1006, !1007, !1008, !1011, !1012, !1015, !1018, !1022, !1023, !1024, !1027, !1028, !1029, !1034, !1038, !1041, !1044, !1047, !1050, !1051, !1052, !1053, !1054, !1057, !1058, !1061, !1062, !1063, !1064, !1065, !1066, !1067, !1070, !1071, !1072, !1073, !1074, !1075, !1076, !1077, !1078, !1081, !1082, !1085, !1086, !1087, !1088, !1089, !1090, !1091, !1094, !1103, !1106, !1107, !1110, !1113, !1114, !1115, !1116, !1117, !1118, !1119, !1122, !1126, !1129, !1132, !1135}
!920 = !DIDerivedType(tag: DW_TAG_member, name: "_t", scope: !917, file: !918, line: 672, baseType: !921, size: 64)
!921 = distinct !DICompositeType(tag: DW_TAG_union_type, name: "rep_t", scope: !917, file: !918, line: 539, size: 64, flags: DIFlagTypePassByValue, elements: !922, identifier: "_ZTSN9Timestamp5rep_tE")
!922 = !{!923}
!923 = !DIDerivedType(tag: DW_TAG_member, name: "x", scope: !921, file: !918, line: 541, baseType: !239, size: 64)
!924 = !DISubprogram(name: "Timestamp", scope: !917, file: !918, line: 174, type: !925, scopeLine: 174, flags: DIFlagPublic | DIFlagPrototyped, spFlags: DISPFlagOptimized)
!925 = !DISubroutineType(types: !926)
!926 = !{null, !927}
!927 = !DIDerivedType(tag: DW_TAG_pointer_type, baseType: !917, size: 64, flags: DIFlagArtificial | DIFlagObjectPointer)
!928 = !DISubprogram(name: "Timestamp", scope: !917, file: !918, line: 187, type: !929, scopeLine: 187, flags: DIFlagPublic | DIFlagExplicit | DIFlagPrototyped, spFlags: DISPFlagOptimized)
!929 = !DISubroutineType(types: !930)
!930 = !{null, !927, !201, !11}
!931 = !DISubprogram(name: "Timestamp", scope: !917, file: !918, line: 191, type: !932, scopeLine: 191, flags: DIFlagPublic | DIFlagExplicit | DIFlagPrototyped, spFlags: DISPFlagOptimized)
!932 = !DISubroutineType(types: !933)
!933 = !{null, !927, !40, !11}
!934 = !DISubprogram(name: "Timestamp", scope: !917, file: !918, line: 195, type: !935, scopeLine: 195, flags: DIFlagPublic | DIFlagExplicit | DIFlagPrototyped, spFlags: DISPFlagOptimized)
!935 = !DISubroutineType(types: !936)
!936 = !{null, !927, !205, !11}
!937 = !DISubprogram(name: "Timestamp", scope: !917, file: !918, line: 199, type: !938, scopeLine: 199, flags: DIFlagPublic | DIFlagExplicit | DIFlagPrototyped, spFlags: DISPFlagOptimized)
!938 = !DISubroutineType(types: !939)
!939 = !{null, !927, !15, !11}
!940 = !DISubprogram(name: "Timestamp", scope: !917, file: !918, line: 203, type: !941, scopeLine: 203, flags: DIFlagPublic | DIFlagExplicit | DIFlagPrototyped, spFlags: DISPFlagOptimized)
!941 = !DISubroutineType(types: !942)
!942 = !{null, !927, !217}
!943 = !DISubprogram(name: "Timestamp", scope: !917, file: !918, line: 206, type: !944, scopeLine: 206, flags: DIFlagPublic | DIFlagPrototyped, spFlags: DISPFlagOptimized)
!944 = !DISubroutineType(types: !945)
!945 = !{null, !927, !946}
!946 = !DIDerivedType(tag: DW_TAG_reference_type, baseType: !947, size: 64)
!947 = !DIDerivedType(tag: DW_TAG_const_type, baseType: !948)
!948 = distinct !DICompositeType(tag: DW_TAG_structure_type, name: "timeval", file: !949, line: 8, size: 128, flags: DIFlagTypePassByValue, elements: !950, identifier: "_ZTS7timeval")
!949 = !DIFile(filename: "/usr/include/bits/types/struct_timeval.h", directory: "")
!950 = !{!951, !953}
!951 = !DIDerivedType(tag: DW_TAG_member, name: "tv_sec", scope: !948, file: !949, line: 10, baseType: !952, size: 64)
!952 = !DIDerivedType(tag: DW_TAG_typedef, name: "__time_t", file: !14, line: 160, baseType: !201)
!953 = !DIDerivedType(tag: DW_TAG_member, name: "tv_usec", scope: !948, file: !949, line: 11, baseType: !954, size: 64, offset: 64)
!954 = !DIDerivedType(tag: DW_TAG_typedef, name: "__suseconds_t", file: !14, line: 162, baseType: !201)
!955 = !DISubprogram(name: "Timestamp", scope: !917, file: !918, line: 208, type: !956, scopeLine: 208, flags: DIFlagPublic | DIFlagPrototyped, spFlags: DISPFlagOptimized)
!956 = !DISubroutineType(types: !957)
!957 = !{null, !927, !958}
!958 = !DIDerivedType(tag: DW_TAG_reference_type, baseType: !959, size: 64)
!959 = !DIDerivedType(tag: DW_TAG_const_type, baseType: !960)
!960 = distinct !DICompositeType(tag: DW_TAG_structure_type, name: "timespec", file: !961, line: 10, size: 128, flags: DIFlagTypePassByValue, elements: !962, identifier: "_ZTS8timespec")
!961 = !DIFile(filename: "/usr/include/bits/types/struct_timespec.h", directory: "")
!962 = !{!963, !964}
!963 = !DIDerivedType(tag: DW_TAG_member, name: "tv_sec", scope: !960, file: !961, line: 12, baseType: !952, size: 64)
!964 = !DIDerivedType(tag: DW_TAG_member, name: "tv_nsec", scope: !960, file: !961, line: 16, baseType: !965, size: 64, offset: 64)
!965 = !DIDerivedType(tag: DW_TAG_typedef, name: "__syscall_slong_t", file: !14, line: 196, baseType: !201)
!966 = !DISubprogram(name: "Timestamp", scope: !917, file: !918, line: 212, type: !967, scopeLine: 212, flags: DIFlagPublic | DIFlagPrototyped, spFlags: DISPFlagOptimized)
!967 = !DISubroutineType(types: !968)
!968 = !{null, !927, !969}
!969 = !DIDerivedType(tag: DW_TAG_reference_type, baseType: !970, size: 64)
!970 = !DIDerivedType(tag: DW_TAG_const_type, baseType: !921)
!971 = !DISubprogram(name: "Timestamp", scope: !917, file: !918, line: 217, type: !972, scopeLine: 217, flags: DIFlagPublic | DIFlagPrototyped, spFlags: DISPFlagOptimized)
!972 = !DISubroutineType(types: !973)
!973 = !{null, !927, !974}
!974 = !DIDerivedType(tag: DW_TAG_reference_type, baseType: !975, size: 64)
!975 = !DIDerivedType(tag: DW_TAG_const_type, baseType: !976)
!976 = !DIDerivedType(tag: DW_TAG_typedef, name: "uninitialized_t", scope: !917, file: !918, line: 168, baseType: !977)
!977 = distinct !DICompositeType(tag: DW_TAG_structure_type, name: "uninitialized_type", file: !978, line: 317, size: 8, flags: DIFlagTypePassByValue, elements: !979, identifier: "_ZTS18uninitialized_type")
!978 = !DIFile(filename: "../dummy_inc/click/config.h", directory: "/home/john/projects/click/ir-dir")
!979 = !{}
!980 = !DISubprogram(name: "operator int (Timestamp::*)() const", linkageName: "_ZNK9TimestampcvMS_KFivEEv", scope: !917, file: !918, line: 222, type: !981, scopeLine: 222, flags: DIFlagPublic | DIFlagPrototyped, spFlags: DISPFlagOptimized)
!981 = !DISubroutineType(types: !982)
!982 = !{!983, !988}
!983 = !DIDerivedType(tag: DW_TAG_typedef, name: "unspecified_bool_type", scope: !917, file: !918, line: 221, baseType: !984)
!984 = !DIDerivedType(tag: DW_TAG_ptr_to_member_type, baseType: !985, size: 128, extraData: !917)
!985 = !DISubroutineType(types: !986)
!986 = !{!987, !988}
!987 = !DIDerivedType(tag: DW_TAG_typedef, name: "seconds_type", scope: !917, file: !918, line: 125, baseType: !37)
!988 = !DIDerivedType(tag: DW_TAG_pointer_type, baseType: !916, size: 64, flags: DIFlagArtificial | DIFlagObjectPointer)
!989 = !DISubprogram(name: "is_negative", linkageName: "_ZNK9Timestamp11is_negativeEv", scope: !917, file: !918, line: 225, type: !990, scopeLine: 225, flags: DIFlagPublic | DIFlagPrototyped, spFlags: DISPFlagOptimized)
!990 = !DISubroutineType(types: !991)
!991 = !{!17, !988}
!992 = !DISubprogram(name: "sec", linkageName: "_ZNK9Timestamp3secEv", scope: !917, file: !918, line: 233, type: !985, scopeLine: 233, flags: DIFlagPublic | DIFlagPrototyped, spFlags: DISPFlagOptimized)
!993 = !DISubprogram(name: "subsec", linkageName: "_ZNK9Timestamp6subsecEv", scope: !917, file: !918, line: 234, type: !994, scopeLine: 234, flags: DIFlagPublic | DIFlagPrototyped, spFlags: DISPFlagOptimized)
!994 = !DISubroutineType(types: !995)
!995 = !{!11, !988}
!996 = !DISubprogram(name: "msec", linkageName: "_ZNK9Timestamp4msecEv", scope: !917, file: !918, line: 235, type: !994, scopeLine: 235, flags: DIFlagPublic | DIFlagPrototyped, spFlags: DISPFlagOptimized)
!997 = !DISubprogram(name: "usec", linkageName: "_ZNK9Timestamp4usecEv", scope: !917, file: !918, line: 236, type: !994, scopeLine: 236, flags: DIFlagPublic | DIFlagPrototyped, spFlags: DISPFlagOptimized)
!998 = !DISubprogram(name: "nsec", linkageName: "_ZNK9Timestamp4nsecEv", scope: !917, file: !918, line: 237, type: !994, scopeLine: 237, flags: DIFlagPublic | DIFlagPrototyped, spFlags: DISPFlagOptimized)
!999 = !DISubprogram(name: "set_sec", linkageName: "_ZN9Timestamp7set_secEi", scope: !917, file: !918, line: 239, type: !1000, scopeLine: 239, flags: DIFlagPublic | DIFlagPrototyped, spFlags: DISPFlagOptimized)
!1000 = !DISubroutineType(types: !1001)
!1001 = !{null, !927, !987}
!1002 = !DISubprogram(name: "set_subsec", linkageName: "_ZN9Timestamp10set_subsecEj", scope: !917, file: !918, line: 240, type: !1003, scopeLine: 240, flags: DIFlagPublic | DIFlagPrototyped, spFlags: DISPFlagOptimized)
!1003 = !DISubroutineType(types: !1004)
!1004 = !{null, !927, !11}
!1005 = !DISubprogram(name: "msec1", linkageName: "_ZNK9Timestamp5msec1Ev", scope: !917, file: !918, line: 242, type: !985, scopeLine: 242, flags: DIFlagPublic | DIFlagPrototyped, spFlags: DISPFlagOptimized)
!1006 = !DISubprogram(name: "usec1", linkageName: "_ZNK9Timestamp5usec1Ev", scope: !917, file: !918, line: 243, type: !985, scopeLine: 243, flags: DIFlagPublic | DIFlagPrototyped, spFlags: DISPFlagOptimized)
!1007 = !DISubprogram(name: "nsec1", linkageName: "_ZNK9Timestamp5nsec1Ev", scope: !917, file: !918, line: 244, type: !985, scopeLine: 244, flags: DIFlagPublic | DIFlagPrototyped, spFlags: DISPFlagOptimized)
!1008 = !DISubprogram(name: "timeval", linkageName: "_ZNK9Timestamp7timevalEv", scope: !917, file: !918, line: 250, type: !1009, scopeLine: 250, flags: DIFlagPublic | DIFlagPrototyped, spFlags: DISPFlagOptimized)
!1009 = !DISubroutineType(types: !1010)
!1010 = !{!948, !988}
!1011 = !DISubprogram(name: "timeval_ceil", linkageName: "_ZNK9Timestamp12timeval_ceilEv", scope: !917, file: !918, line: 251, type: !1009, scopeLine: 251, flags: DIFlagPublic | DIFlagPrototyped, spFlags: DISPFlagOptimized)
!1012 = !DISubprogram(name: "timespec", linkageName: "_ZNK9Timestamp8timespecEv", scope: !917, file: !918, line: 257, type: !1013, scopeLine: 257, flags: DIFlagPublic | DIFlagPrototyped, spFlags: DISPFlagOptimized)
!1013 = !DISubroutineType(types: !1014)
!1014 = !{!960, !988}
!1015 = !DISubprogram(name: "doubleval", linkageName: "_ZNK9Timestamp9doublevalEv", scope: !917, file: !918, line: 262, type: !1016, scopeLine: 262, flags: DIFlagPublic | DIFlagPrototyped, spFlags: DISPFlagOptimized)
!1016 = !DISubroutineType(types: !1017)
!1017 = !{!217, !988}
!1018 = !DISubprogram(name: "msecval", linkageName: "_ZNK9Timestamp7msecvalEv", scope: !917, file: !918, line: 265, type: !1019, scopeLine: 265, flags: DIFlagPublic | DIFlagPrototyped, spFlags: DISPFlagOptimized)
!1019 = !DISubroutineType(types: !1020)
!1020 = !{!1021, !988}
!1021 = !DIDerivedType(tag: DW_TAG_typedef, name: "value_type", scope: !917, file: !918, line: 128, baseType: !239)
!1022 = !DISubprogram(name: "usecval", linkageName: "_ZNK9Timestamp7usecvalEv", scope: !917, file: !918, line: 273, type: !1019, scopeLine: 273, flags: DIFlagPublic | DIFlagPrototyped, spFlags: DISPFlagOptimized)
!1023 = !DISubprogram(name: "nsecval", linkageName: "_ZNK9Timestamp7nsecvalEv", scope: !917, file: !918, line: 281, type: !1019, scopeLine: 281, flags: DIFlagPublic | DIFlagPrototyped, spFlags: DISPFlagOptimized)
!1024 = !DISubprogram(name: "msec_ceil", linkageName: "_ZNK9Timestamp9msec_ceilEv", scope: !917, file: !918, line: 290, type: !1025, scopeLine: 290, flags: DIFlagPublic | DIFlagPrototyped, spFlags: DISPFlagOptimized)
!1025 = !DISubroutineType(types: !1026)
!1026 = !{!917, !988}
!1027 = !DISubprogram(name: "usec_ceil", linkageName: "_ZNK9Timestamp9usec_ceilEv", scope: !917, file: !918, line: 295, type: !1025, scopeLine: 295, flags: DIFlagPublic | DIFlagPrototyped, spFlags: DISPFlagOptimized)
!1028 = !DISubprogram(name: "nsec_ceil", linkageName: "_ZNK9Timestamp9nsec_ceilEv", scope: !917, file: !918, line: 304, type: !1025, scopeLine: 304, flags: DIFlagPublic | DIFlagPrototyped, spFlags: DISPFlagOptimized)
!1029 = !DISubprogram(name: "make_jiffies", linkageName: "_ZN9Timestamp12make_jiffiesEj", scope: !917, file: !918, line: 310, type: !1030, scopeLine: 310, flags: DIFlagPublic | DIFlagPrototyped | DIFlagStaticMember, spFlags: DISPFlagOptimized)
!1030 = !DISubroutineType(types: !1031)
!1031 = !{!917, !1032}
!1032 = !DIDerivedType(tag: DW_TAG_typedef, name: "click_jiffies_t", file: !1033, line: 477, baseType: !15)
!1033 = !DIFile(filename: "../dummy_inc/click/glue.hh", directory: "/home/john/projects/click/ir-dir")
!1034 = !DISubprogram(name: "make_jiffies", linkageName: "_ZN9Timestamp12make_jiffiesEi", scope: !917, file: !918, line: 312, type: !1035, scopeLine: 312, flags: DIFlagPublic | DIFlagPrototyped | DIFlagStaticMember, spFlags: DISPFlagOptimized)
!1035 = !DISubroutineType(types: !1036)
!1036 = !{!917, !1037}
!1037 = !DIDerivedType(tag: DW_TAG_typedef, name: "click_jiffies_difference_t", file: !1033, line: 478, baseType: !40)
!1038 = !DISubprogram(name: "jiffies", linkageName: "_ZNK9Timestamp7jiffiesEv", scope: !917, file: !918, line: 314, type: !1039, scopeLine: 314, flags: DIFlagPublic | DIFlagPrototyped, spFlags: DISPFlagOptimized)
!1039 = !DISubroutineType(types: !1040)
!1040 = !{!1032, !988}
!1041 = !DISubprogram(name: "make_sec", linkageName: "_ZN9Timestamp8make_secEi", scope: !917, file: !918, line: 318, type: !1042, scopeLine: 318, flags: DIFlagPublic | DIFlagPrototyped | DIFlagStaticMember, spFlags: DISPFlagOptimized)
!1042 = !DISubroutineType(types: !1043)
!1043 = !{!917, !987}
!1044 = !DISubprogram(name: "make_msec", linkageName: "_ZN9Timestamp9make_msecEij", scope: !917, file: !918, line: 324, type: !1045, scopeLine: 324, flags: DIFlagPublic | DIFlagPrototyped | DIFlagStaticMember, spFlags: DISPFlagOptimized)
!1045 = !DISubroutineType(types: !1046)
!1046 = !{!917, !987, !11}
!1047 = !DISubprogram(name: "make_msec", linkageName: "_ZN9Timestamp9make_msecEl", scope: !917, file: !918, line: 328, type: !1048, scopeLine: 328, flags: DIFlagPublic | DIFlagPrototyped | DIFlagStaticMember, spFlags: DISPFlagOptimized)
!1048 = !DISubroutineType(types: !1049)
!1049 = !{!917, !1021}
!1050 = !DISubprogram(name: "make_usec", linkageName: "_ZN9Timestamp9make_usecEij", scope: !917, file: !918, line: 341, type: !1045, scopeLine: 341, flags: DIFlagPublic | DIFlagPrototyped | DIFlagStaticMember, spFlags: DISPFlagOptimized)
!1051 = !DISubprogram(name: "make_usec", linkageName: "_ZN9Timestamp9make_usecEl", scope: !917, file: !918, line: 345, type: !1048, scopeLine: 345, flags: DIFlagPublic | DIFlagPrototyped | DIFlagStaticMember, spFlags: DISPFlagOptimized)
!1052 = !DISubprogram(name: "make_nsec", linkageName: "_ZN9Timestamp9make_nsecEij", scope: !917, file: !918, line: 358, type: !1045, scopeLine: 358, flags: DIFlagPublic | DIFlagPrototyped | DIFlagStaticMember, spFlags: DISPFlagOptimized)
!1053 = !DISubprogram(name: "make_nsec", linkageName: "_ZN9Timestamp9make_nsecEl", scope: !917, file: !918, line: 362, type: !1048, scopeLine: 362, flags: DIFlagPublic | DIFlagPrototyped | DIFlagStaticMember, spFlags: DISPFlagOptimized)
!1054 = !DISubprogram(name: "epsilon", linkageName: "_ZN9Timestamp7epsilonEv", scope: !917, file: !918, line: 375, type: !1055, scopeLine: 375, flags: DIFlagPublic | DIFlagPrototyped | DIFlagStaticMember, spFlags: DISPFlagOptimized)
!1055 = !DISubroutineType(types: !1056)
!1056 = !{!917}
!1057 = !DISubprogram(name: "clear", linkageName: "_ZN9Timestamp5clearEv", scope: !917, file: !918, line: 380, type: !925, scopeLine: 380, flags: DIFlagPublic | DIFlagPrototyped, spFlags: DISPFlagOptimized)
!1058 = !DISubprogram(name: "assign", linkageName: "_ZN9Timestamp6assignEij", scope: !917, file: !918, line: 388, type: !1059, scopeLine: 388, flags: DIFlagPublic | DIFlagPrototyped, spFlags: DISPFlagOptimized)
!1059 = !DISubroutineType(types: !1060)
!1060 = !{null, !927, !987, !11}
!1061 = !DISubprogram(name: "assign_usec", linkageName: "_ZN9Timestamp11assign_usecEij", scope: !917, file: !918, line: 397, type: !1059, scopeLine: 397, flags: DIFlagPublic | DIFlagPrototyped, spFlags: DISPFlagOptimized)
!1062 = !DISubprogram(name: "assign_nsec", linkageName: "_ZN9Timestamp11assign_nsecEij", scope: !917, file: !918, line: 401, type: !1059, scopeLine: 401, flags: DIFlagPublic | DIFlagPrototyped, spFlags: DISPFlagOptimized)
!1063 = !DISubprogram(name: "set", linkageName: "_ZN9Timestamp3setEij", scope: !917, file: !918, line: 408, type: !1059, scopeLine: 408, flags: DIFlagPublic | DIFlagPrototyped, spFlags: DISPFlagOptimized)
!1064 = !DISubprogram(name: "set_usec", linkageName: "_ZN9Timestamp8set_usecEij", scope: !917, file: !918, line: 411, type: !1059, scopeLine: 411, flags: DIFlagPublic | DIFlagPrototyped, spFlags: DISPFlagOptimized)
!1065 = !DISubprogram(name: "set_nsec", linkageName: "_ZN9Timestamp8set_nsecEij", scope: !917, file: !918, line: 414, type: !1059, scopeLine: 414, flags: DIFlagPublic | DIFlagPrototyped, spFlags: DISPFlagOptimized)
!1066 = !DISubprogram(name: "set_now", linkageName: "_ZN9Timestamp7set_nowEv", scope: !917, file: !918, line: 417, type: !925, scopeLine: 417, flags: DIFlagPublic | DIFlagPrototyped, spFlags: DISPFlagOptimized)
!1067 = !DISubprogram(name: "set_timeval_ioctl", linkageName: "_ZN9Timestamp17set_timeval_ioctlEii", scope: !917, file: !918, line: 420, type: !1068, scopeLine: 420, flags: DIFlagPublic | DIFlagPrototyped, spFlags: DISPFlagOptimized)
!1068 = !DISubroutineType(types: !1069)
!1069 = !{!40, !927, !40, !40}
!1070 = !DISubprogram(name: "now", linkageName: "_ZN9Timestamp3nowEv", scope: !917, file: !918, line: 432, type: !1055, scopeLine: 432, flags: DIFlagPublic | DIFlagPrototyped | DIFlagStaticMember, spFlags: DISPFlagOptimized)
!1071 = !DISubprogram(name: "assign_now", linkageName: "_ZN9Timestamp10assign_nowEv", scope: !917, file: !918, line: 438, type: !925, scopeLine: 438, flags: DIFlagPublic | DIFlagPrototyped, spFlags: DISPFlagOptimized)
!1072 = !DISubprogram(name: "recent", linkageName: "_ZN9Timestamp6recentEv", scope: !917, file: !918, line: 446, type: !1055, scopeLine: 446, flags: DIFlagPublic | DIFlagPrototyped | DIFlagStaticMember, spFlags: DISPFlagOptimized)
!1073 = !DISubprogram(name: "assign_recent", linkageName: "_ZN9Timestamp13assign_recentEv", scope: !917, file: !918, line: 452, type: !925, scopeLine: 452, flags: DIFlagPublic | DIFlagPrototyped, spFlags: DISPFlagOptimized)
!1074 = !DISubprogram(name: "now_steady", linkageName: "_ZN9Timestamp10now_steadyEv", scope: !917, file: !918, line: 466, type: !1055, scopeLine: 466, flags: DIFlagPublic | DIFlagPrototyped | DIFlagStaticMember, spFlags: DISPFlagOptimized)
!1075 = !DISubprogram(name: "assign_now_steady", linkageName: "_ZN9Timestamp17assign_now_steadyEv", scope: !917, file: !918, line: 472, type: !925, scopeLine: 472, flags: DIFlagPublic | DIFlagPrototyped, spFlags: DISPFlagOptimized)
!1076 = !DISubprogram(name: "recent_steady", linkageName: "_ZN9Timestamp13recent_steadyEv", scope: !917, file: !918, line: 481, type: !1055, scopeLine: 481, flags: DIFlagPublic | DIFlagPrototyped | DIFlagStaticMember, spFlags: DISPFlagOptimized)
!1077 = !DISubprogram(name: "assign_recent_steady", linkageName: "_ZN9Timestamp20assign_recent_steadyEv", scope: !917, file: !918, line: 487, type: !925, scopeLine: 487, flags: DIFlagPublic | DIFlagPrototyped, spFlags: DISPFlagOptimized)
!1078 = !DISubprogram(name: "unparse", linkageName: "_ZNK9Timestamp7unparseEv", scope: !917, file: !918, line: 496, type: !1079, scopeLine: 496, flags: DIFlagPublic | DIFlagPrototyped, spFlags: DISPFlagOptimized)
!1079 = !DISubroutineType(types: !1080)
!1080 = !{!117, !988}
!1081 = !DISubprogram(name: "unparse_interval", linkageName: "_ZNK9Timestamp16unparse_intervalEv", scope: !917, file: !918, line: 501, type: !1079, scopeLine: 501, flags: DIFlagPublic | DIFlagPrototyped, spFlags: DISPFlagOptimized)
!1082 = !DISubprogram(name: "msec_to_subsec", linkageName: "_ZN9Timestamp14msec_to_subsecEj", scope: !917, file: !918, line: 510, type: !1083, scopeLine: 510, flags: DIFlagPublic | DIFlagPrototyped | DIFlagStaticMember, spFlags: DISPFlagOptimized)
!1083 = !DISubroutineType(types: !1084)
!1084 = !{!11, !11}
!1085 = !DISubprogram(name: "usec_to_subsec", linkageName: "_ZN9Timestamp14usec_to_subsecEj", scope: !917, file: !918, line: 514, type: !1083, scopeLine: 514, flags: DIFlagPublic | DIFlagPrototyped | DIFlagStaticMember, spFlags: DISPFlagOptimized)
!1086 = !DISubprogram(name: "nsec_to_subsec", linkageName: "_ZN9Timestamp14nsec_to_subsecEj", scope: !917, file: !918, line: 518, type: !1083, scopeLine: 518, flags: DIFlagPublic | DIFlagPrototyped | DIFlagStaticMember, spFlags: DISPFlagOptimized)
!1087 = !DISubprogram(name: "subsec_to_msec", linkageName: "_ZN9Timestamp14subsec_to_msecEj", scope: !917, file: !918, line: 522, type: !1083, scopeLine: 522, flags: DIFlagPublic | DIFlagPrototyped | DIFlagStaticMember, spFlags: DISPFlagOptimized)
!1088 = !DISubprogram(name: "subsec_to_usec", linkageName: "_ZN9Timestamp14subsec_to_usecEj", scope: !917, file: !918, line: 526, type: !1083, scopeLine: 526, flags: DIFlagPublic | DIFlagPrototyped | DIFlagStaticMember, spFlags: DISPFlagOptimized)
!1089 = !DISubprogram(name: "subsec_to_nsec", linkageName: "_ZN9Timestamp14subsec_to_nsecEj", scope: !917, file: !918, line: 530, type: !1083, scopeLine: 530, flags: DIFlagPublic | DIFlagPrototyped | DIFlagStaticMember, spFlags: DISPFlagOptimized)
!1090 = !DISubprogram(name: "warp_class", linkageName: "_ZN9Timestamp10warp_classEv", scope: !917, file: !918, line: 581, type: !374, scopeLine: 581, flags: DIFlagPublic | DIFlagPrototyped | DIFlagStaticMember, spFlags: DISPFlagOptimized)
!1091 = !DISubprogram(name: "warp_speed", linkageName: "_ZN9Timestamp10warp_speedEv", scope: !917, file: !918, line: 588, type: !1092, scopeLine: 588, flags: DIFlagPublic | DIFlagPrototyped | DIFlagStaticMember, spFlags: DISPFlagOptimized)
!1092 = !DISubroutineType(types: !1093)
!1093 = !{!217}
!1094 = !DISubprogram(name: "warp_set_class", linkageName: "_ZN9Timestamp14warp_set_classENS_15warp_class_typeEd", scope: !917, file: !918, line: 621, type: !1095, scopeLine: 621, flags: DIFlagPublic | DIFlagPrototyped | DIFlagStaticMember, spFlags: DISPFlagOptimized)
!1095 = !DISubroutineType(types: !1096)
!1096 = !{null, !1097, !217}
!1097 = !DICompositeType(tag: DW_TAG_enumeration_type, name: "warp_class_type", scope: !917, file: !918, line: 571, baseType: !15, size: 32, elements: !1098, identifier: "_ZTSN9Timestamp15warp_class_typeE")
!1098 = !{!1099, !1100, !1101, !1102}
!1099 = !DIEnumerator(name: "warp_none", value: 0, isUnsigned: true)
!1100 = !DIEnumerator(name: "warp_linear", value: 1, isUnsigned: true)
!1101 = !DIEnumerator(name: "warp_nowait", value: 2, isUnsigned: true)
!1102 = !DIEnumerator(name: "warp_simulation", value: 3, isUnsigned: true)
!1103 = !DISubprogram(name: "warp_set_now", linkageName: "_ZN9Timestamp12warp_set_nowERKS_S1_", scope: !917, file: !918, line: 628, type: !1104, scopeLine: 628, flags: DIFlagPublic | DIFlagPrototyped | DIFlagStaticMember, spFlags: DISPFlagOptimized)
!1104 = !DISubroutineType(types: !1105)
!1105 = !{null, !915, !915}
!1106 = !DISubprogram(name: "warp_real_delay", linkageName: "_ZNK9Timestamp15warp_real_delayEv", scope: !917, file: !918, line: 632, type: !1025, scopeLine: 632, flags: DIFlagPublic | DIFlagPrototyped, spFlags: DISPFlagOptimized)
!1107 = !DISubprogram(name: "warp_jumping", linkageName: "_ZN9Timestamp12warp_jumpingEv", scope: !917, file: !918, line: 635, type: !1108, scopeLine: 635, flags: DIFlagPublic | DIFlagPrototyped | DIFlagStaticMember, spFlags: DISPFlagOptimized)
!1108 = !DISubroutineType(types: !1109)
!1109 = !{!17}
!1110 = !DISubprogram(name: "warp_jump_steady", linkageName: "_ZN9Timestamp16warp_jump_steadyERKS_", scope: !917, file: !918, line: 640, type: !1111, scopeLine: 640, flags: DIFlagPublic | DIFlagPrototyped | DIFlagStaticMember, spFlags: DISPFlagOptimized)
!1111 = !DISubroutineType(types: !1112)
!1112 = !{null, !915}
!1113 = !DISubprogram(name: "now_unwarped", linkageName: "_ZN9Timestamp12now_unwarpedEv", scope: !917, file: !918, line: 647, type: !1055, scopeLine: 647, flags: DIFlagPublic | DIFlagPrototyped | DIFlagStaticMember, spFlags: DISPFlagOptimized)
!1114 = !DISubprogram(name: "assign_now_unwarped", linkageName: "_ZN9Timestamp19assign_now_unwarpedEv", scope: !917, file: !918, line: 653, type: !925, scopeLine: 653, flags: DIFlagPublic | DIFlagPrototyped, spFlags: DISPFlagOptimized)
!1115 = !DISubprogram(name: "now_steady_unwarped", linkageName: "_ZN9Timestamp19now_steady_unwarpedEv", scope: !917, file: !918, line: 659, type: !1055, scopeLine: 659, flags: DIFlagPublic | DIFlagPrototyped | DIFlagStaticMember, spFlags: DISPFlagOptimized)
!1116 = !DISubprogram(name: "assign_now_steady_unwarped", linkageName: "_ZN9Timestamp26assign_now_steady_unwarpedEv", scope: !917, file: !918, line: 666, type: !925, scopeLine: 666, flags: DIFlagPublic | DIFlagPrototyped, spFlags: DISPFlagOptimized)
!1117 = !DISubprogram(name: "add_fix", linkageName: "_ZN9Timestamp7add_fixEv", scope: !917, file: !918, line: 674, type: !925, scopeLine: 674, flags: DIFlagPrototyped, spFlags: DISPFlagOptimized)
!1118 = !DISubprogram(name: "sub_fix", linkageName: "_ZN9Timestamp7sub_fixEv", scope: !917, file: !918, line: 686, type: !925, scopeLine: 686, flags: DIFlagPrototyped, spFlags: DISPFlagOptimized)
!1119 = !DISubprogram(name: "value_div", linkageName: "_ZN9Timestamp9value_divElj", scope: !917, file: !918, line: 698, type: !1120, scopeLine: 698, flags: DIFlagPrototyped | DIFlagStaticMember, spFlags: DISPFlagOptimized)
!1120 = !DISubroutineType(types: !1121)
!1121 = !{!1021, !1021, !11}
!1122 = !DISubprogram(name: "value_div_mod", linkageName: "_ZN9Timestamp13value_div_modERiS0_lj", scope: !917, file: !918, line: 702, type: !1123, scopeLine: 702, flags: DIFlagPrototyped | DIFlagStaticMember, spFlags: DISPFlagOptimized)
!1123 = !DISubroutineType(types: !1124)
!1124 = !{null, !1125, !1125, !1021, !11}
!1125 = !DIDerivedType(tag: DW_TAG_reference_type, baseType: !37, size: 64)
