; ModuleID = '../elements/standard/randomsource.cc'
source_filename = "../elements/standard/randomsource.cc"
target datalayout = "e-m:e-p270:32:32-p271:32:32-p272:64:64-i64:64-f80:128-n8:16:32:64-S128"
target triple = "x86_64-pc-linux-gnu"

%class.Handler = type <{ %class.String, %union.anon, %union.anon.11, i8*, i8*, i32, i32, i32, [4 x i8] }>
%class.String = type { %"struct.String::rep_t" }
%"struct.String::rep_t" = type { i8*, i32, %"struct.String::memo_t"* }
%"struct.String::memo_t" = type { i32, i32, i32, [8 x i8] }
%union.anon = type { i32 (i32, %class.String*, %class.Element*, %class.Handler*, %class.ErrorHandler*)* }
%class.Element = type <{ i32 (...)**, [2 x %"class.Element::Port"*], [4 x %"class.Element::Port"], [2 x i32], %class.Router*, i32, [4 x i8] }>
%"class.Element::Port" = type <{ %class.Element*, i32, [4 x i8] }>
%class.Router = type { %class.Master*, %class.atomic_uint32_t, i32, i8, i32, %class.atomic_uint32_t, %class.Vector, %class.Vector.0, %class.Vector.0, %class.Vector.2, %class.Vector.5, %class.Vector.6, i32, %class.Vector.5, [2 x %class.Vector.5], %class.Vector.5, %class.Vector.8, %class.Vector.5, %class.Vector.0, %class.Vector.5, %class.Vector.5, %class.Vector.5, %class.Vector.5, %class.Handler**, i32, i32, %class.Vector.0, %class.Vector.12, %class.Element*, %class.String, %"struct.Router::notifier_signals_t"*, %class.HashMap_ArenaFactory*, %class.Router*, %class.ThreadSched*, %class.NameInfo*, %class.Vector.5, %class.Vector.0, %class.Router* }
%class.Master = type opaque
%class.atomic_uint32_t = type { i32 }
%class.Vector = type { %class.vector_memory }
%class.vector_memory = type { %struct.char_array*, i32, i32 }
%struct.char_array = type opaque
%class.Vector.2 = type { %class.vector_memory.3 }
%class.vector_memory.3 = type { %struct.char_array.4*, i32, i32 }
%struct.char_array.4 = type opaque
%class.Vector.6 = type { %class.vector_memory.7 }
%class.vector_memory.7 = type { %"struct.Router::element_landmark_t"*, i32, i32 }
%"struct.Router::element_landmark_t" = type { i32, %class.String }
%class.Vector.8 = type { %class.vector_memory.9 }
%class.vector_memory.9 = type { %struct.char_array.10*, i32, i32 }
%struct.char_array.10 = type { [16 x i8] }
%class.Vector.12 = type { %class.vector_memory }
%"struct.Router::notifier_signals_t" = type { %class.String, i32, [128 x %class.atomic_uint32_t], %"struct.Router::notifier_signals_t"* }
%class.HashMap_ArenaFactory = type opaque
%class.ThreadSched = type { i32 (...)** }
%class.NameInfo = type opaque
%class.Vector.5 = type { %class.vector_memory.3 }
%class.Vector.0 = type { %class.vector_memory.1 }
%class.vector_memory.1 = type { %class.String*, i32, i32 }
%class.ErrorHandler = type <{ i32 (...)**, i32, [4 x i8] }>
%union.anon.11 = type { i32 (i32, %class.String*, %class.Element*, %class.Handler*, %class.ErrorHandler*)* }
%class.RandomSource = type { %class.InfiniteSource }
%class.InfiniteSource = type { %class.Element.base, %class.ActiveNotifier, %class.Packet*, i32, i64, i64, i32, i8, i8, %class.Task, %class.String, %class.NotifierSignal, %class.HandlerCall* }
%class.Element.base = type <{ i32 (...)**, [2 x %"class.Element::Port"*], [4 x %"class.Element::Port"], [2 x i32], %class.Router*, i32 }>
%class.ActiveNotifier = type { %class.Notifier.base, %class.Task*, %"union.ActiveNotifier::task_or_signal_t"* }
%class.Notifier.base = type <{ i32 (...)**, %class.NotifierSignal, i32 }>
%"union.ActiveNotifier::task_or_signal_t" = type { %class.Task* }
%class.Packet = type { %class.atomic_uint32_t, %class.Packet*, i8*, i8*, i8*, i8*, %"struct.Packet::AllAnno", void (i8*, i64, i8*)*, i8* }
%"struct.Packet::AllAnno" = type { %"union.Packet::Anno", i8*, i8*, i8*, i32, [8 x i8], %class.Packet*, %class.Packet* }
%"union.Packet::Anno" = type { [6 x i64] }
%class.Task = type { %struct.TaskLink.base, i32, i32, %"union.Task::Status", i1 (%class.Task*, i8*)*, i8*, %class.RouterThread*, %class.Element*, %"union.Task::Pending" }
%struct.TaskLink.base = type <{ %struct.TaskLink*, %struct.TaskLink*, i32 }>
%struct.TaskLink = type <{ %struct.TaskLink*, %struct.TaskLink*, i32, [4 x i8] }>
%"union.Task::Status" = type { i32 }
%class.RouterThread = type { %struct.TaskLink, i8, [7 x i8], %class.TimerSet, %class.SelectSet, [32 x i8], %class.Spinlock, %class.atomic_uint32_t, %class.atomic_uint32_t, %"union.Task::Pending", %"union.Task::Pending"*, %class.SpinlockIRQ, [31 x i8], %class.Master*, i32, i8, i32, i32, [40 x i8] }
%class.TimerSet = type <{ %class.Timestamp, i32, i32, i32, [4 x i8], %class.Vector.13, %class.Vector.14, %class.SimpleSpinlock, [7 x i8], %class.Timestamp, i32, [4 x i8] }>
%class.Vector.13 = type { %class.vector_memory.9 }
%class.Vector.14 = type { %class.vector_memory }
%class.SimpleSpinlock = type { i8 }
%class.Timestamp = type { %"union.Timestamp::rep_t" }
%"union.Timestamp::rep_t" = type { i64 }
%class.SelectSet = type { [2 x i32], i8, %class.Vector.15, %class.Vector.16 }
%class.Vector.15 = type { %class.vector_memory }
%class.Vector.16 = type { %class.vector_memory.17 }
%class.vector_memory.17 = type { %struct.char_array.18*, i32, i32 }
%struct.char_array.18 = type opaque
%class.Spinlock = type { i8 }
%class.SpinlockIRQ = type { i8 }
%"union.Task::Pending" = type { %class.Task* }
%class.NotifierSignal = type <{ %"union.NotifierSignal::vmvalue", i32, [4 x i8] }>
%"union.NotifierSignal::vmvalue" = type { %class.atomic_uint32_t* }
%class.HandlerCall = type { %class.Element*, %class.Handler*, %class.String }
%class.Args = type { %class.ArgContext.base, i8, i8, i8, %class.Vector.0*, %class.Vector.5, %"struct.Args::Slot"*, [48 x i8] }
%class.ArgContext.base = type <{ %class.Element*, %class.ErrorHandler*, i8*, i8 }>
%"struct.Args::Slot" = type { i32 (...)**, %"struct.Args::Slot"* }
%class.Notifier = type <{ i32 (...)**, %class.NotifierSignal, i32, [4 x i8] }>
%"struct.NotifierSignal::vmpair" = type { %class.atomic_uint32_t*, i32 }
%struct.anon = type { i16, i8, i8 }
%class.WritablePacket = type { %class.Packet }
%class.Timer = type { i32, %class.Timestamp, %union.anon.19, i8*, %class.Element*, %class.RouterThread* }
%union.anon.19 = type { void (%class.Timer*, i8*)* }
%class.IntArg = type { i32, i32 }
%class.ArgContext = type <{ %class.Element*, %class.ErrorHandler*, i8*, i8, [7 x i8] }>
%struct.HandlerCallArg = type { i32 }
%"struct.Args::SlotT" = type { %"struct.Args::Slot", %class.HandlerCall*, %class.HandlerCall }

$_ZNK7Element6outputEi = comdat any

$_ZNK7Element4Port4pushEP6Packet = comdat any

$_ZN9Timestamp10assign_nowEv = comdat any

$_ZN14InfiniteSourceD2Ev = comdat any

$_ZN12RandomSourceD0Ev = comdat any

$_ZNK12RandomSource10class_nameEv = comdat any

$_ZNK14InfiniteSource10port_countEv = comdat any

$_ZNK14InfiniteSource5flagsEv = comdat any

$_ZNK14InfiniteSource20can_live_reconfigureEv = comdat any

$_ZThn112_N12RandomSourceD1Ev = comdat any

$_ZThn112_N12RandomSourceD0Ev = comdat any

$_ZNK11HandlerCall5emptyEv = comdat any

$__clang_call_terminate = comdat any

$_ZNK14NotifierSignal6activeEv = comdat any

$_ZNK7Element4portEbi = comdat any

$_Z14args_base_readIiEvP4ArgsPKciRT_ = comdat any

$_ZN4Args9base_readIiEEvPKciRT_ = comdat any

$_ZNK6String6lengthEv = comdat any

$_Z14args_base_readIlEvP4ArgsPKciRT_ = comdat any

$_ZN4Args9base_readIlEEvPKciRT_ = comdat any

$_Z14args_base_readIbEvP4ArgsPKciRT_ = comdat any

$_ZN4Args9base_readIbEEvPKciRT_ = comdat any

$_Z14args_base_readI14HandlerCallArg11HandlerCallEvP4ArgsPKciT_RT0_ = comdat any

$_ZN4Args9base_readI14HandlerCallArg11HandlerCallEEvPKciT_RT0_ = comdat any

$_ZN4Args5SlotTI11HandlerCallED2Ev = comdat any

$_ZN4Args5SlotTI11HandlerCallED0Ev = comdat any

$_ZN4Args5SlotTI11HandlerCallE5storeEv = comdat any

$_ZTVN4Args5SlotTI11HandlerCallEE = comdat any

$_ZTSN4Args5SlotTI11HandlerCallEE = comdat any

$_ZTSN4Args4SlotE = comdat any

$_ZTIN4Args4SlotE = comdat any

$_ZTIN4Args5SlotTI11HandlerCallEE = comdat any

@_ZTV12RandomSource = dso_local unnamed_addr constant { [29 x i8*], [6 x i8*] } { [29 x i8*] [i8* null, i8* bitcast ({ i8*, i8*, i8* }* @_ZTI12RandomSource to i8*), i8* bitcast (void (%class.InfiniteSource*)* @_ZN14InfiniteSourceD2Ev to i8*), i8* bitcast (void (%class.RandomSource*)* @_ZN12RandomSourceD0Ev to i8*), i8* bitcast (void (%class.Element*, i32, %class.Packet*)* @_ZN7Element4pushEiP6Packet to i8*), i8* bitcast (%class.Packet* (%class.RandomSource*, i32)* @_ZN12RandomSource4pullEi to i8*), i8* bitcast (%class.Packet* (%class.Element*, %class.Packet*)* @_ZN7Element13simple_actionEP6Packet to i8*), i8* bitcast (i1 (%class.RandomSource*, %class.Task*)* @_ZN12RandomSource8run_taskEP4Task to i8*), i8* bitcast (void (%class.Element*, %class.Timer*)* @_ZN7Element9run_timerEP5Timer to i8*), i8* bitcast (void (%class.Element*, i32, i32)* @_ZN7Element8selectedEii to i8*), i8* bitcast (void (%class.Element*, i32)* @_ZN7Element8selectedEi to i8*), i8* bitcast (i8* (%class.RandomSource*)* @_ZNK12RandomSource10class_nameEv to i8*), i8* bitcast (i8* (%class.InfiniteSource*)* @_ZNK14InfiniteSource10port_countEv to i8*), i8* bitcast (i8* (%class.Element*)* @_ZNK7Element10processingEv to i8*), i8* bitcast (i8* (%class.Element*)* @_ZNK7Element9flow_codeEv to i8*), i8* bitcast (i8* (%class.InfiniteSource*)* @_ZNK14InfiniteSource5flagsEv to i8*), i8* bitcast (i8* (%class.InfiniteSource*, i8*)* @_ZN14InfiniteSource4castEPKc to i8*), i8* bitcast (i8* (%class.Element*, i1, i32, i8*)* @_ZN7Element9port_castEbiPKc to i8*), i8* bitcast (i32 (%class.Element*)* @_ZNK7Element15configure_phaseEv to i8*), i8* bitcast (i32 (%class.RandomSource*, %class.Vector.0*, %class.ErrorHandler*)* @_ZN12RandomSource9configureER6VectorI6StringEP12ErrorHandler to i8*), i8* bitcast (void (%class.RandomSource*)* @_ZN12RandomSource12add_handlersEv to i8*), i8* bitcast (i32 (%class.InfiniteSource*, %class.ErrorHandler*)* @_ZN14InfiniteSource10initializeEP12ErrorHandler to i8*), i8* bitcast (void (%class.Element*, %class.Element*, %class.ErrorHandler*)* @_ZN7Element10take_stateEPS_P12ErrorHandler to i8*), i8* bitcast (%class.Element* (%class.Element*)* @_ZNK7Element15hotswap_elementEv to i8*), i8* bitcast (void (%class.InfiniteSource*, i32)* @_ZN14InfiniteSource7cleanupEN7Element12CleanupStageE to i8*), i8* bitcast (void (%class.String*, %class.Element*)* @_ZNK7Element11declarationEv to i8*), i8* bitcast (i1 (%class.InfiniteSource*)* @_ZNK14InfiniteSource20can_live_reconfigureEv to i8*), i8* bitcast (i32 (%class.Element*, %class.Vector.0*, %class.ErrorHandler*)* @_ZN7Element16live_reconfigureER6VectorI6StringEP12ErrorHandler to i8*), i8* bitcast (i32 (%class.Element*, i32, i8*)* @_ZN7Element5llrpcEjPv to i8*)], [6 x i8*] [i8* inttoptr (i64 -112 to i8*), i8* bitcast ({ i8*, i8*, i8* }* @_ZTI12RandomSource to i8*), i8* bitcast (void (%class.RandomSource*)* @_ZThn112_N12RandomSourceD1Ev to i8*), i8* bitcast (void (%class.RandomSource*)* @_ZThn112_N12RandomSourceD0Ev to i8*), i8* bitcast (i32 (%class.ActiveNotifier*, void (i8*, %class.Notifier*)*, i8*)* @_ZN14ActiveNotifier21add_activate_callbackEPFvPvP8NotifierES0_ to i8*), i8* bitcast (void (%class.ActiveNotifier*, void (i8*, %class.Notifier*)*, i8*)* @_ZN14ActiveNotifier24remove_activate_callbackEPFvPvP8NotifierES0_ to i8*)] }, align 8
@_ZN8Notifier14EMPTY_NOTIFIERE = external constant [0 x i8], align 1
@.str = private unnamed_addr constant [7 x i8] c"LENGTH\00", align 1
@.str.1 = private unnamed_addr constant [6 x i8] c"LIMIT\00", align 1
@.str.2 = private unnamed_addr constant [6 x i8] c"BURST\00", align 1
@.str.3 = private unnamed_addr constant [7 x i8] c"ACTIVE\00", align 1
@.str.4 = private unnamed_addr constant [10 x i8] c"TIMESTAMP\00", align 1
@.str.5 = private unnamed_addr constant [5 x i8] c"STOP\00", align 1
@.str.6 = private unnamed_addr constant [9 x i8] c"END_CALL\00", align 1
@.str.7 = private unnamed_addr constant [14 x i8] c"bad length %d\00", align 1
@.str.8 = private unnamed_addr constant [24 x i8] c"burst size must be >= 1\00", align 1
@.str.9 = private unnamed_addr constant [41 x i8] c"END_CALL and STOP are mutually exclusive\00", align 1
@.str.10 = private unnamed_addr constant [5 x i8] c"stop\00", align 1
@.str.11 = private unnamed_addr constant [6 x i8] c"limit\00", align 1
@.str.12 = private unnamed_addr constant [6 x i8] c"burst\00", align 1
@.str.13 = private unnamed_addr constant [7 x i8] c"active\00", align 1
@.str.14 = private unnamed_addr constant [6 x i8] c"count\00", align 1
@.str.15 = private unnamed_addr constant [6 x i8] c"reset\00", align 1
@.str.16 = private unnamed_addr constant [7 x i8] c"length\00", align 1
@_ZTVN10__cxxabiv120__si_class_type_infoE = external global i8*
@_ZTS12RandomSource = dso_local constant [15 x i8] c"12RandomSource\00", align 1
@_ZTI14InfiniteSource = external constant i8*
@_ZTI12RandomSource = dso_local constant { i8*, i8*, i8* } { i8* bitcast (i8** getelementptr inbounds (i8*, i8** @_ZTVN10__cxxabiv120__si_class_type_infoE, i64 2) to i8*), i8* getelementptr inbounds ([15 x i8], [15 x i8]* @_ZTS12RandomSource, i32 0, i32 0), i8* bitcast (i8** @_ZTI14InfiniteSource to i8*) }, align 8
@_ZN7Handler17the_blank_handlerE = external local_unnamed_addr global %class.Handler*, align 8
@.str.17 = private unnamed_addr constant [18 x i8] c"_r.memo->refcount\00", align 1
@.str.18 = private unnamed_addr constant [29 x i8] c"../dummy_inc/click/string.hh\00", align 1
@__PRETTY_FUNCTION__._ZNK6String5derefEv = private unnamed_addr constant [27 x i8] c"void String::deref() const\00", align 1
@.str.19 = private unnamed_addr constant [47 x i8] c"(unsigned) port < (unsigned) _nports[isoutput]\00", align 1
@.str.20 = private unnamed_addr constant [30 x i8] c"../dummy_inc/click/element.hh\00", align 1
@__PRETTY_FUNCTION__._ZNK7Element4portEbi = private unnamed_addr constant [52 x i8] c"const Element::Port &Element::port(bool, int) const\00", align 1
@.str.21 = private unnamed_addr constant [8 x i8] c"_e && p\00", align 1
@__PRETTY_FUNCTION__._ZNK7Element4Port4pushEP6Packet = private unnamed_addr constant [41 x i8] c"void Element::Port::push(Packet *) const\00", align 1
@_ZN14NotifierSignal12static_valueE = external global %class.atomic_uint32_t, align 4
@.str.22 = private unnamed_addr constant [49 x i8] c"_v.v1 != &static_value && !(_mask & (_mask - 1))\00", align 1
@.str.23 = private unnamed_addr constant [31 x i8] c"../dummy_inc/click/notifier.hh\00", align 1
@__PRETTY_FUNCTION__._ZN14NotifierSignal10set_activeEb = private unnamed_addr constant [38 x i8] c"bool NotifierSignal::set_active(bool)\00", align 1
@_ZN6String9null_dataE = external constant i8, align 1
@_ZTV14InfiniteSource = external unnamed_addr constant { [29 x i8*], [6 x i8*] }, align 8
@.str.24 = private unnamed_addr constant [13 x i8] c"RandomSource\00", align 1
@_ZN7Element9PORTS_0_1E = external constant [0 x i8], align 1
@.str.25 = private unnamed_addr constant [3 x i8] c"S1\00", align 1
@.str.26 = private unnamed_addr constant [15 x i8] c"invalid number\00", align 1
@_ZTVN4Args5SlotTI11HandlerCallEE = linkonce_odr dso_local unnamed_addr constant { [5 x i8*] } { [5 x i8*] [i8* null, i8* bitcast ({ i8*, i8*, i8* }* @_ZTIN4Args5SlotTI11HandlerCallEE to i8*), i8* bitcast (void (%"struct.Args::SlotT"*)* @_ZN4Args5SlotTI11HandlerCallED2Ev to i8*), i8* bitcast (void (%"struct.Args::SlotT"*)* @_ZN4Args5SlotTI11HandlerCallED0Ev to i8*), i8* bitcast (void (%"struct.Args::SlotT"*)* @_ZN4Args5SlotTI11HandlerCallE5storeEv to i8*)] }, comdat, align 8
@_ZTSN4Args5SlotTI11HandlerCallEE = linkonce_odr dso_local constant [29 x i8] c"N4Args5SlotTI11HandlerCallEE\00", comdat, align 1
@_ZTVN10__cxxabiv117__class_type_infoE = external global i8*
@_ZTSN4Args4SlotE = linkonce_odr dso_local constant [13 x i8] c"N4Args4SlotE\00", comdat, align 1
@_ZTIN4Args4SlotE = linkonce_odr dso_local constant { i8*, i8* } { i8* bitcast (i8** getelementptr inbounds (i8*, i8** @_ZTVN10__cxxabiv117__class_type_infoE, i64 2) to i8*), i8* getelementptr inbounds ([13 x i8], [13 x i8]* @_ZTSN4Args4SlotE, i32 0, i32 0) }, comdat, align 8
@_ZTIN4Args5SlotTI11HandlerCallEE = linkonce_odr dso_local constant { i8*, i8*, i8* } { i8* bitcast (i8** getelementptr inbounds (i8*, i8** @_ZTVN10__cxxabiv120__si_class_type_infoE, i64 2) to i8*), i8* getelementptr inbounds ([29 x i8], [29 x i8]* @_ZTSN4Args5SlotTI11HandlerCallEE, i32 0, i32 0), i8* bitcast ({ i8*, i8* }* @_ZTIN4Args4SlotE to i8*) }, comdat, align 8

@_ZN12RandomSourceC1Ev = dso_local unnamed_addr alias void (%class.RandomSource*), void (%class.RandomSource*)* @_ZN12RandomSourceC2Ev

; Function Attrs: sspstrong uwtable
define dso_local void @_ZN12RandomSourceC2Ev(%class.RandomSource* %0) unnamed_addr #0 align 2 !dbg !2702 {
  call void @llvm.dbg.value(metadata %class.RandomSource* %0, metadata !5087, metadata !DIExpression()), !dbg !5089
  %2 = getelementptr %class.RandomSource, %class.RandomSource* %0, i64 0, i32 0, !dbg !5090
  tail call void @_ZN14InfiniteSourceC2Ev(%class.InfiniteSource* %2), !dbg !5091
  %3 = getelementptr %class.RandomSource, %class.RandomSource* %0, i64 0, i32 0, i32 0, i32 0, !dbg !5090
  store i32 (...)** bitcast (i8** getelementptr inbounds ({ [29 x i8*], [6 x i8*] }, { [29 x i8*], [6 x i8*] }* @_ZTV12RandomSource, i64 0, inrange i32 0, i64 2) to i32 (...)**), i32 (...)*** %3, align 8, !dbg !5090, !tbaa !5092
  %4 = getelementptr inbounds %class.RandomSource, %class.RandomSource* %0, i64 0, i32 0, i32 1, i32 0, i32 0, !dbg !5090
  store i32 (...)** bitcast (i8** getelementptr inbounds ({ [29 x i8*], [6 x i8*] }, { [29 x i8*], [6 x i8*] }* @_ZTV12RandomSource, i64 0, inrange i32 1, i64 2) to i32 (...)**), i32 (...)*** %4, align 8, !dbg !5090, !tbaa !5092
  ret void, !dbg !5095
}

; Function Attrs: nounwind readnone speculatable willreturn
declare void @llvm.dbg.declare(metadata, metadata, metadata) #1

declare void @_ZN14InfiniteSourceC2Ev(%class.InfiniteSource*) unnamed_addr #2

; Function Attrs: sspstrong uwtable
define dso_local i32 @_ZN12RandomSource9configureER6VectorI6StringEP12ErrorHandler(%class.RandomSource* %0, %class.Vector.0* dereferenceable(16) %1, %class.ErrorHandler* %2) unnamed_addr #0 align 2 personality i8* bitcast (i32 (...)* @__gxx_personality_v0 to i8*) !dbg !5096 {
  %4 = alloca i64, align 8
  %5 = alloca i32, align 4
  %6 = alloca i32, align 4
  %7 = alloca i8, align 1
  %8 = alloca i8, align 1
  %9 = alloca i8, align 1
  %10 = alloca %class.HandlerCall, align 8
  %11 = alloca %class.Args, align 8
  call void @llvm.dbg.value(metadata %class.RandomSource* %0, metadata !5098, metadata !DIExpression()), !dbg !5109
  call void @llvm.dbg.value(metadata %class.Vector.0* %1, metadata !5099, metadata !DIExpression()), !dbg !5109
  call void @llvm.dbg.value(metadata %class.ErrorHandler* %2, metadata !5100, metadata !DIExpression()), !dbg !5109
  %12 = getelementptr inbounds %class.RandomSource, %class.RandomSource* %0, i64 0, i32 0, i32 1, !dbg !5110
  %13 = bitcast %class.ActiveNotifier* %12 to %class.Notifier*, !dbg !5110
  %14 = bitcast %class.RandomSource* %0 to %class.Element*, !dbg !5111
  call void @llvm.dbg.value(metadata %class.Element* %14, metadata !5112, metadata !DIExpression()), !dbg !5119
  %15 = getelementptr inbounds %class.RandomSource, %class.RandomSource* %0, i64 0, i32 0, i32 0, i32 4, !dbg !5121
  %16 = load %class.Router*, %class.Router** %15, align 8, !dbg !5121, !tbaa !5122
  %17 = tail call i32 @_ZN8Notifier10initializeEPKcP6Router(%class.Notifier* nonnull %13, i8* getelementptr inbounds ([0 x i8], [0 x i8]* @_ZN8Notifier14EMPTY_NOTIFIERE, i64 0, i64 0), %class.Router* %16), !dbg !5110
  %18 = bitcast i64* %4 to i8*, !dbg !5127
  call void @llvm.lifetime.start.p0i8(i64 8, i8* nonnull %18) #14, !dbg !5127
  call void @llvm.dbg.value(metadata i64 -1, metadata !5101, metadata !DIExpression()), !dbg !5109
  store i64 -1, i64* %4, align 8, !dbg !5128, !tbaa !5129
  %19 = bitcast i32* %5 to i8*, !dbg !5131
  call void @llvm.lifetime.start.p0i8(i64 4, i8* nonnull %19) #14, !dbg !5131
  call void @llvm.dbg.value(metadata i32 1, metadata !5103, metadata !DIExpression()), !dbg !5109
  store i32 1, i32* %5, align 4, !dbg !5132, !tbaa !5133
  %20 = bitcast i32* %6 to i8*, !dbg !5134
  call void @llvm.lifetime.start.p0i8(i64 4, i8* nonnull %20) #14, !dbg !5134
  call void @llvm.dbg.value(metadata i32 -1, metadata !5104, metadata !DIExpression()), !dbg !5109
  store i32 -1, i32* %6, align 4, !dbg !5135, !tbaa !5133
  call void @llvm.lifetime.start.p0i8(i64 1, i8* nonnull %7) #14, !dbg !5136
  call void @llvm.dbg.value(metadata i8 1, metadata !5105, metadata !DIExpression()), !dbg !5109
  store i8 1, i8* %7, align 1, !dbg !5137, !tbaa !5138
  call void @llvm.lifetime.start.p0i8(i64 1, i8* nonnull %8) #14, !dbg !5136
  call void @llvm.dbg.value(metadata i8 0, metadata !5106, metadata !DIExpression()), !dbg !5109
  store i8 0, i8* %8, align 1, !dbg !5140, !tbaa !5138
  call void @llvm.lifetime.start.p0i8(i64 1, i8* nonnull %9) #14, !dbg !5136
  call void @llvm.dbg.value(metadata i8 1, metadata !5107, metadata !DIExpression()), !dbg !5109
  store i8 1, i8* %9, align 1, !dbg !5141, !tbaa !5138
  %21 = bitcast %class.HandlerCall* %10 to i8*, !dbg !5142
  call void @llvm.lifetime.start.p0i8(i64 40, i8* nonnull %21) #14, !dbg !5142
  call void @llvm.dbg.declare(metadata %class.HandlerCall* %10, metadata !5108, metadata !DIExpression()), !dbg !5143
  call void @llvm.dbg.value(metadata %class.HandlerCall* %10, metadata !5144, metadata !DIExpression()), !dbg !5147
  %22 = getelementptr inbounds %class.HandlerCall, %class.HandlerCall* %10, i64 0, i32 0, !dbg !5149
  store %class.Element* null, %class.Element** %22, align 8, !dbg !5149, !tbaa !5150
  %23 = getelementptr inbounds %class.HandlerCall, %class.HandlerCall* %10, i64 0, i32 1, !dbg !5154
  %24 = load i64, i64* bitcast (%class.Handler** @_ZN7Handler17the_blank_handlerE to i64*), align 8, !dbg !5155, !tbaa !5158
  %25 = bitcast %class.Handler** %23 to i64*, !dbg !5154
  store i64 %24, i64* %25, align 8, !dbg !5154, !tbaa !5159
  call void @llvm.dbg.value(metadata %class.HandlerCall* %10, metadata !5160, metadata !DIExpression(DW_OP_plus_uconst, 16, DW_OP_stack_value)), !dbg !5163
  call void @llvm.dbg.value(metadata %class.HandlerCall* %10, metadata !5165, metadata !DIExpression(DW_OP_plus_uconst, 16, DW_OP_stack_value)), !dbg !5171
  call void @llvm.dbg.value(metadata i8* @_ZN6String9null_dataE, metadata !5168, metadata !DIExpression()), !dbg !5171
  call void @llvm.dbg.value(metadata i32 0, metadata !5169, metadata !DIExpression()), !dbg !5171
  call void @llvm.dbg.value(metadata %"struct.String::memo_t"* null, metadata !5170, metadata !DIExpression()), !dbg !5171
  %26 = getelementptr inbounds %class.HandlerCall, %class.HandlerCall* %10, i64 0, i32 2, i32 0, i32 0, !dbg !5174
  store i8* @_ZN6String9null_dataE, i8** %26, align 8, !dbg !5175, !tbaa !5176
  %27 = getelementptr inbounds %class.HandlerCall, %class.HandlerCall* %10, i64 0, i32 2, i32 0, i32 1, !dbg !5177
  store i32 0, i32* %27, align 8, !dbg !5178, !tbaa !5179
  %28 = getelementptr inbounds %class.HandlerCall, %class.HandlerCall* %10, i64 0, i32 2, i32 0, i32 2, !dbg !5180
  store %"struct.String::memo_t"* null, %"struct.String::memo_t"** %28, align 8, !dbg !5182, !tbaa !5183
  %29 = bitcast %class.Args* %11 to i8*, !dbg !5184
  call void @llvm.lifetime.start.p0i8(i64 112, i8* nonnull %29) #14, !dbg !5184
  invoke void @_ZN4ArgsC1ERK6VectorI6StringEPK7ElementP12ErrorHandler(%class.Args* nonnull %11, %class.Vector.0* nonnull dereferenceable(16) %1, %class.Element* %14, %class.ErrorHandler* %2)
          to label %30 unwind label %41, !dbg !5184

30:                                               ; preds = %3
  call void @llvm.dbg.value(metadata %class.Args* %11, metadata !5186, metadata !DIExpression()), !dbg !5194
  call void @llvm.dbg.value(metadata i8* getelementptr inbounds ([7 x i8], [7 x i8]* @.str, i64 0, i64 0), metadata !5192, metadata !DIExpression()), !dbg !5194
  call void @llvm.dbg.value(metadata i32* %6, metadata !5193, metadata !DIExpression()), !dbg !5194
  call void @llvm.dbg.value(metadata %class.Args* %11, metadata !5196, metadata !DIExpression()), !dbg !5205
  call void @llvm.dbg.value(metadata i8* getelementptr inbounds ([7 x i8], [7 x i8]* @.str, i64 0, i64 0), metadata !5202, metadata !DIExpression()), !dbg !5205
  call void @llvm.dbg.value(metadata i32 3, metadata !5203, metadata !DIExpression()), !dbg !5205
  call void @llvm.dbg.value(metadata i32* %6, metadata !5204, metadata !DIExpression()), !dbg !5205
  invoke void @_Z14args_base_readIiEvP4ArgsPKciRT_(%class.Args* nonnull %11, i8* getelementptr inbounds ([7 x i8], [7 x i8]* @.str, i64 0, i64 0), i32 3, i32* nonnull dereferenceable(4) %6)
          to label %31 unwind label %45, !dbg !5207

31:                                               ; preds = %30
  call void @llvm.dbg.value(metadata %class.Args* %11, metadata !5208, metadata !DIExpression()), !dbg !5216
  call void @llvm.dbg.value(metadata i8* getelementptr inbounds ([6 x i8], [6 x i8]* @.str.1, i64 0, i64 0), metadata !5214, metadata !DIExpression()), !dbg !5216
  call void @llvm.dbg.value(metadata i64* %4, metadata !5215, metadata !DIExpression()), !dbg !5216
  call void @llvm.dbg.value(metadata %class.Args* %11, metadata !5218, metadata !DIExpression()), !dbg !5227
  call void @llvm.dbg.value(metadata i8* getelementptr inbounds ([6 x i8], [6 x i8]* @.str.1, i64 0, i64 0), metadata !5224, metadata !DIExpression()), !dbg !5227
  call void @llvm.dbg.value(metadata i32 2, metadata !5225, metadata !DIExpression()), !dbg !5227
  call void @llvm.dbg.value(metadata i64* %4, metadata !5226, metadata !DIExpression()), !dbg !5227
  invoke void @_Z14args_base_readIlEvP4ArgsPKciRT_(%class.Args* nonnull %11, i8* getelementptr inbounds ([6 x i8], [6 x i8]* @.str.1, i64 0, i64 0), i32 2, i64* nonnull dereferenceable(8) %4)
          to label %32 unwind label %45, !dbg !5229

32:                                               ; preds = %31
  call void @llvm.dbg.value(metadata %class.Args* %11, metadata !5230, metadata !DIExpression()), !dbg !5236
  call void @llvm.dbg.value(metadata i8* getelementptr inbounds ([6 x i8], [6 x i8]* @.str.2, i64 0, i64 0), metadata !5234, metadata !DIExpression()), !dbg !5236
  call void @llvm.dbg.value(metadata i32* %5, metadata !5235, metadata !DIExpression()), !dbg !5236
  call void @llvm.dbg.value(metadata %class.Args* %11, metadata !5196, metadata !DIExpression()), !dbg !5238
  call void @llvm.dbg.value(metadata i8* getelementptr inbounds ([6 x i8], [6 x i8]* @.str.2, i64 0, i64 0), metadata !5202, metadata !DIExpression()), !dbg !5238
  call void @llvm.dbg.value(metadata i32 2, metadata !5203, metadata !DIExpression()), !dbg !5238
  call void @llvm.dbg.value(metadata i32* %5, metadata !5204, metadata !DIExpression()), !dbg !5238
  invoke void @_Z14args_base_readIiEvP4ArgsPKciRT_(%class.Args* nonnull %11, i8* getelementptr inbounds ([6 x i8], [6 x i8]* @.str.2, i64 0, i64 0), i32 2, i32* nonnull dereferenceable(4) %5)
          to label %33 unwind label %45, !dbg !5240

33:                                               ; preds = %32
  call void @llvm.dbg.value(metadata %class.Args* %11, metadata !5241, metadata !DIExpression()), !dbg !5249
  call void @llvm.dbg.value(metadata i8* getelementptr inbounds ([7 x i8], [7 x i8]* @.str.3, i64 0, i64 0), metadata !5247, metadata !DIExpression()), !dbg !5249
  call void @llvm.dbg.value(metadata i8* %7, metadata !5248, metadata !DIExpression()), !dbg !5249
  call void @llvm.dbg.value(metadata %class.Args* %11, metadata !5251, metadata !DIExpression()), !dbg !5260
  call void @llvm.dbg.value(metadata i8* getelementptr inbounds ([7 x i8], [7 x i8]* @.str.3, i64 0, i64 0), metadata !5257, metadata !DIExpression()), !dbg !5260
  call void @llvm.dbg.value(metadata i32 2, metadata !5258, metadata !DIExpression()), !dbg !5260
  call void @llvm.dbg.value(metadata i8* %7, metadata !5259, metadata !DIExpression()), !dbg !5260
  invoke void @_Z14args_base_readIbEvP4ArgsPKciRT_(%class.Args* nonnull %11, i8* getelementptr inbounds ([7 x i8], [7 x i8]* @.str.3, i64 0, i64 0), i32 2, i8* nonnull dereferenceable(1) %7)
          to label %34 unwind label %45, !dbg !5262

34:                                               ; preds = %33
  call void @llvm.dbg.value(metadata %class.Args* %11, metadata !5263, metadata !DIExpression()), !dbg !5269
  call void @llvm.dbg.value(metadata i8* getelementptr inbounds ([10 x i8], [10 x i8]* @.str.4, i64 0, i64 0), metadata !5267, metadata !DIExpression()), !dbg !5269
  call void @llvm.dbg.value(metadata i8* %9, metadata !5268, metadata !DIExpression()), !dbg !5269
  call void @llvm.dbg.value(metadata %class.Args* %11, metadata !5251, metadata !DIExpression()), !dbg !5271
  call void @llvm.dbg.value(metadata i8* getelementptr inbounds ([10 x i8], [10 x i8]* @.str.4, i64 0, i64 0), metadata !5257, metadata !DIExpression()), !dbg !5271
  call void @llvm.dbg.value(metadata i32 0, metadata !5258, metadata !DIExpression()), !dbg !5271
  call void @llvm.dbg.value(metadata i8* %9, metadata !5259, metadata !DIExpression()), !dbg !5271
  invoke void @_Z14args_base_readIbEvP4ArgsPKciRT_(%class.Args* nonnull %11, i8* getelementptr inbounds ([10 x i8], [10 x i8]* @.str.4, i64 0, i64 0), i32 0, i8* nonnull dereferenceable(1) %9)
          to label %35 unwind label %45, !dbg !5273

35:                                               ; preds = %34
  call void @llvm.dbg.value(metadata %class.Args* %11, metadata !5263, metadata !DIExpression()), !dbg !5274
  call void @llvm.dbg.value(metadata i8* getelementptr inbounds ([5 x i8], [5 x i8]* @.str.5, i64 0, i64 0), metadata !5267, metadata !DIExpression()), !dbg !5274
  call void @llvm.dbg.value(metadata i8* %8, metadata !5268, metadata !DIExpression()), !dbg !5274
  call void @llvm.dbg.value(metadata %class.Args* %11, metadata !5251, metadata !DIExpression()), !dbg !5276
  call void @llvm.dbg.value(metadata i8* getelementptr inbounds ([5 x i8], [5 x i8]* @.str.5, i64 0, i64 0), metadata !5257, metadata !DIExpression()), !dbg !5276
  call void @llvm.dbg.value(metadata i32 0, metadata !5258, metadata !DIExpression()), !dbg !5276
  call void @llvm.dbg.value(metadata i8* %8, metadata !5259, metadata !DIExpression()), !dbg !5276
  invoke void @_Z14args_base_readIbEvP4ArgsPKciRT_(%class.Args* nonnull %11, i8* getelementptr inbounds ([5 x i8], [5 x i8]* @.str.5, i64 0, i64 0), i32 0, i8* nonnull dereferenceable(1) %8)
          to label %36 unwind label %45, !dbg !5278

36:                                               ; preds = %35
  call void @llvm.dbg.value(metadata i32 2, metadata !5279, metadata !DIExpression()), !dbg !5288
  call void @llvm.dbg.value(metadata %class.Args* %11, metadata !5285, metadata !DIExpression()), !dbg !5288
  call void @llvm.dbg.value(metadata i8* getelementptr inbounds ([9 x i8], [9 x i8]* @.str.6, i64 0, i64 0), metadata !5286, metadata !DIExpression()), !dbg !5288
  call void @llvm.dbg.value(metadata %class.HandlerCall* %10, metadata !5287, metadata !DIExpression()), !dbg !5288
  call void @llvm.dbg.value(metadata i32 2, metadata !5290, metadata !DIExpression()), !dbg !5300
  call void @llvm.dbg.value(metadata %class.Args* %11, metadata !5296, metadata !DIExpression()), !dbg !5300
  call void @llvm.dbg.value(metadata i8* getelementptr inbounds ([9 x i8], [9 x i8]* @.str.6, i64 0, i64 0), metadata !5297, metadata !DIExpression()), !dbg !5300
  call void @llvm.dbg.value(metadata i32 0, metadata !5298, metadata !DIExpression()), !dbg !5300
  call void @llvm.dbg.value(metadata %class.HandlerCall* %10, metadata !5299, metadata !DIExpression()), !dbg !5300
  invoke void @_Z14args_base_readI14HandlerCallArg11HandlerCallEvP4ArgsPKciT_RT0_(%class.Args* nonnull %11, i8* getelementptr inbounds ([9 x i8], [9 x i8]* @.str.6, i64 0, i64 0), i32 0, i32 2, %class.HandlerCall* nonnull dereferenceable(40) %10)
          to label %37 unwind label %45, !dbg !5302

37:                                               ; preds = %36
  %38 = invoke i32 @_ZN4Args8completeEv(%class.Args* nonnull %11)
          to label %39 unwind label %45, !dbg !5303

39:                                               ; preds = %37
  %40 = icmp slt i32 %38, 0, !dbg !5304
  call void @_ZN4ArgsD1Ev(%class.Args* nonnull %11) #14, !dbg !5184
  call void @llvm.lifetime.end.p0i8(i64 112, i8* nonnull %29) #14, !dbg !5184
  br i1 %40, label %162, label %52, !dbg !5305

41:                                               ; preds = %3
  %42 = landingpad { i8*, i32 }
          cleanup, !dbg !5306
  %43 = extractvalue { i8*, i32 } %42, 0, !dbg !5306
  %44 = extractvalue { i8*, i32 } %42, 1, !dbg !5306
  br label %49, !dbg !5306

45:                                               ; preds = %36, %35, %34, %33, %32, %31, %30, %37
  %46 = landingpad { i8*, i32 }
          cleanup, !dbg !5306
  %47 = extractvalue { i8*, i32 } %46, 0, !dbg !5306
  %48 = extractvalue { i8*, i32 } %46, 1, !dbg !5306
  call void @_ZN4ArgsD1Ev(%class.Args* nonnull %11) #14, !dbg !5184
  br label %49, !dbg !5184

49:                                               ; preds = %45, %41
  %50 = phi i8* [ %47, %45 ], [ %43, %41 ], !dbg !5306
  %51 = phi i32 [ %48, %45 ], [ %44, %41 ], !dbg !5306
  call void @llvm.lifetime.end.p0i8(i64 112, i8* nonnull %29) #14, !dbg !5184
  br label %181, !dbg !5184

52:                                               ; preds = %39
  %53 = load i32, i32* %6, align 4, !dbg !5307, !tbaa !5133
  call void @llvm.dbg.value(metadata i32 %53, metadata !5104, metadata !DIExpression()), !dbg !5109
  %54 = icmp ugt i32 %53, 65535, !dbg !5309
  br i1 %54, label %55, label %61, !dbg !5309

55:                                               ; preds = %52
  %56 = invoke i32 (%class.ErrorHandler*, i8*, ...) @_ZN12ErrorHandler5errorEPKcz(%class.ErrorHandler* %2, i8* getelementptr inbounds ([14 x i8], [14 x i8]* @.str.7, i64 0, i64 0), i32 %53)
          to label %162 unwind label %57, !dbg !5310

57:                                               ; preds = %148, %124, %79, %64, %55
  %58 = landingpad { i8*, i32 }
          cleanup, !dbg !5311
  %59 = extractvalue { i8*, i32 } %58, 0, !dbg !5311
  %60 = extractvalue { i8*, i32 } %58, 1, !dbg !5311
  br label %181, !dbg !5311

61:                                               ; preds = %52
  %62 = load i32, i32* %5, align 4, !dbg !5312, !tbaa !5133
  call void @llvm.dbg.value(metadata i32 %62, metadata !5103, metadata !DIExpression()), !dbg !5109
  %63 = icmp slt i32 %62, 1, !dbg !5314
  br i1 %63, label %64, label %66, !dbg !5315

64:                                               ; preds = %61
  %65 = invoke i32 (%class.ErrorHandler*, i8*, ...) @_ZN12ErrorHandler5errorEPKcz(%class.ErrorHandler* %2, i8* getelementptr inbounds ([24 x i8], [24 x i8]* @.str.8, i64 0, i64 0))
          to label %162 unwind label %57, !dbg !5316

66:                                               ; preds = %61
  %67 = load i8, i8* %8, align 1, !dbg !5317, !tbaa !5138, !range !5319
  call void @llvm.dbg.value(metadata i8 %67, metadata !5106, metadata !DIExpression()), !dbg !5109
  %68 = icmp eq i8 %67, 0, !dbg !5317
  br i1 %68, label %81, label %69, !dbg !5320

69:                                               ; preds = %66
  call void @llvm.dbg.value(metadata %class.HandlerCall* %10, metadata !5321, metadata !DIExpression()), !dbg !5325
  %70 = load %class.Handler*, %class.Handler** %23, align 8, !dbg !5327, !tbaa !5159
  %71 = load %class.Handler*, %class.Handler** @_ZN7Handler17the_blank_handlerE, align 8, !dbg !5328, !tbaa !5158
  %72 = icmp eq %class.Handler* %70, %71, !dbg !5330
  %73 = load %class.Element*, %class.Element** %22, align 8, !dbg !5331
  %74 = icmp eq %class.Element* %73, null, !dbg !5331
  %75 = and i1 %72, %74, !dbg !5331
  %76 = select i1 %75, { i64, i64 } zeroinitializer, { i64, i64 } { i64 ptrtoint (i1 (%class.HandlerCall*)* @_ZNK11HandlerCall5emptyEv to i64), i64 0 }, !dbg !5331
  %77 = extractvalue { i64, i64 } %76, 0, !dbg !5332
  %78 = icmp eq i64 %77, 0, !dbg !5332
  br i1 %78, label %81, label %79, !dbg !5333

79:                                               ; preds = %69
  %80 = invoke i32 (%class.ErrorHandler*, i8*, ...) @_ZN12ErrorHandler5errorEPKcz(%class.ErrorHandler* %2, i8* getelementptr inbounds ([41 x i8], [41 x i8]* @.str.9, i64 0, i64 0))
          to label %162 unwind label %57, !dbg !5334

81:                                               ; preds = %69, %66
  call void @llvm.dbg.value(metadata i32 %53, metadata !5104, metadata !DIExpression()), !dbg !5109
  %82 = getelementptr inbounds %class.RandomSource, %class.RandomSource* %0, i64 0, i32 0, i32 6, !dbg !5335
  store i32 %53, i32* %82, align 8, !dbg !5336, !tbaa !5337
  %83 = load i64, i64* %4, align 8, !dbg !5341, !tbaa !5129
  call void @llvm.dbg.value(metadata i64 %83, metadata !5101, metadata !DIExpression()), !dbg !5109
  %84 = getelementptr inbounds %class.RandomSource, %class.RandomSource* %0, i64 0, i32 0, i32 4, !dbg !5342
  store i64 %83, i64* %84, align 8, !dbg !5343, !tbaa !5344
  call void @llvm.dbg.value(metadata i32 %62, metadata !5103, metadata !DIExpression()), !dbg !5109
  %85 = getelementptr inbounds %class.RandomSource, %class.RandomSource* %0, i64 0, i32 0, i32 3, !dbg !5345
  store i32 %62, i32* %85, align 8, !dbg !5346, !tbaa !5347
  %86 = getelementptr inbounds %class.RandomSource, %class.RandomSource* %0, i64 0, i32 0, i32 5, !dbg !5348
  store i64 0, i64* %86, align 8, !dbg !5349, !tbaa !5350
  %87 = load i8, i8* %7, align 1, !dbg !5351, !tbaa !5138, !range !5319
  call void @llvm.dbg.value(metadata i8 %87, metadata !5105, metadata !DIExpression()), !dbg !5109
  %88 = getelementptr inbounds %class.RandomSource, %class.RandomSource* %0, i64 0, i32 0, i32 7, !dbg !5352
  store i8 %87, i8* %88, align 4, !dbg !5353, !tbaa !5354
  %89 = load i8, i8* %9, align 1, !dbg !5355, !tbaa !5138, !range !5319
  call void @llvm.dbg.value(metadata i8 %89, metadata !5107, metadata !DIExpression()), !dbg !5109
  %90 = getelementptr inbounds %class.RandomSource, %class.RandomSource* %0, i64 0, i32 0, i32 8, !dbg !5356
  store i8 %89, i8* %90, align 1, !dbg !5357, !tbaa !5358
  %91 = getelementptr inbounds %class.RandomSource, %class.RandomSource* %0, i64 0, i32 0, i32 12, !dbg !5359
  %92 = load %class.HandlerCall*, %class.HandlerCall** %91, align 8, !dbg !5359, !tbaa !5360
  %93 = icmp eq %class.HandlerCall* %92, null, !dbg !5361
  br i1 %93, label %113, label %94, !dbg !5361

94:                                               ; preds = %81
  call void @llvm.dbg.value(metadata %class.HandlerCall* %92, metadata !5362, metadata !DIExpression()) #14, !dbg !5366
  call void @llvm.dbg.value(metadata %class.HandlerCall* %92, metadata !5368, metadata !DIExpression(DW_OP_plus_uconst, 16, DW_OP_stack_value)) #14, !dbg !5371
  call void @llvm.dbg.value(metadata %class.HandlerCall* %92, metadata !5374, metadata !DIExpression(DW_OP_plus_uconst, 16, DW_OP_stack_value)) #14, !dbg !5377
  %95 = getelementptr inbounds %class.HandlerCall, %class.HandlerCall* %92, i64 0, i32 2, i32 0, i32 2, !dbg !5380
  %96 = load %"struct.String::memo_t"*, %"struct.String::memo_t"** %95, align 8, !dbg !5380, !tbaa !5183
  %97 = icmp eq %"struct.String::memo_t"* %96, null, !dbg !5382
  br i1 %97, label %111, label %98, !dbg !5383

98:                                               ; preds = %94
  %99 = getelementptr inbounds %"struct.String::memo_t", %"struct.String::memo_t"* %96, i64 0, i32 0, !dbg !5384
  %100 = load volatile i32, i32* %99, align 4, !dbg !5384, !tbaa !5386
  %101 = icmp eq i32 %100, 0, !dbg !5384
  br i1 %101, label %102, label %103, !dbg !5384

102:                                              ; preds = %98
  call void @__assert_fail(i8* getelementptr inbounds ([18 x i8], [18 x i8]* @.str.17, i64 0, i64 0), i8* getelementptr inbounds ([29 x i8], [29 x i8]* @.str.18, i64 0, i64 0), i32 273, i8* getelementptr inbounds ([27 x i8], [27 x i8]* @__PRETTY_FUNCTION__._ZNK6String5derefEv, i64 0, i64 0)) #15, !dbg !5384
  unreachable, !dbg !5384

103:                                              ; preds = %98
  call void @llvm.dbg.value(metadata i32* %99, metadata !5388, metadata !DIExpression()) #14, !dbg !5391
  %104 = load volatile i32, i32* %99, align 4, !dbg !5394, !tbaa !5133
  %105 = add i32 %104, -1, !dbg !5394
  store volatile i32 %105, i32* %99, align 4, !dbg !5394, !tbaa !5133
  %106 = icmp eq i32 %105, 0, !dbg !5395
  br i1 %106, label %107, label %111, !dbg !5396

107:                                              ; preds = %103
  invoke void @_ZN6String11delete_memoEPNS_6memo_tE(%"struct.String::memo_t"* nonnull %96)
          to label %111 unwind label %108, !dbg !5397

108:                                              ; preds = %107
  %109 = landingpad { i8*, i32 }
          catch i8* null, !dbg !5398
  %110 = extractvalue { i8*, i32 } %109, 0, !dbg !5398
  call void @__clang_call_terminate(i8* %110) #15, !dbg !5398
  unreachable, !dbg !5398

111:                                              ; preds = %103, %107, %94
  %112 = bitcast %class.HandlerCall* %92 to i8*, !dbg !5361
  call void @_ZdlPv(i8* %112) #16, !dbg !5361
  br label %113, !dbg !5361

113:                                              ; preds = %111, %81
  call void @llvm.dbg.value(metadata %class.HandlerCall* %10, metadata !5321, metadata !DIExpression()), !dbg !5399
  %114 = load %class.Handler*, %class.Handler** %23, align 8, !dbg !5402, !tbaa !5159
  %115 = load %class.Handler*, %class.Handler** @_ZN7Handler17the_blank_handlerE, align 8, !dbg !5403, !tbaa !5158
  %116 = icmp eq %class.Handler* %114, %115, !dbg !5405
  %117 = load %class.Element*, %class.Element** %22, align 8, !dbg !5406
  %118 = icmp eq %class.Element* %117, null, !dbg !5406
  %119 = and i1 %116, %118, !dbg !5406
  %120 = select i1 %119, { i64, i64 } zeroinitializer, { i64, i64 } { i64 ptrtoint (i1 (%class.HandlerCall*)* @_ZNK11HandlerCall5emptyEv to i64), i64 0 }, !dbg !5406
  %121 = extractvalue { i64, i64 } %120, 0, !dbg !5407
  %122 = icmp eq i64 %121, 0, !dbg !5407
  %123 = ptrtoint %class.Handler* %115 to i64, !dbg !5408
  br i1 %122, label %145, label %124, !dbg !5408

124:                                              ; preds = %113
  %125 = invoke dereferenceable(40) i8* @_Znwm(i64 40) #17
          to label %126 unwind label %57, !dbg !5409

126:                                              ; preds = %124
  call void @llvm.dbg.value(metadata i8* %125, metadata !5410, metadata !DIExpression()), !dbg !5418
  call void @llvm.dbg.value(metadata %class.HandlerCall* %10, metadata !5417, metadata !DIExpression()), !dbg !5418
  call void @llvm.memcpy.p0i8.p0i8.i64(i8* nonnull align 8 dereferenceable(16) %125, i8* nonnull align 8 dereferenceable(16) %21, i64 16, i1 false), !dbg !5420
  %127 = getelementptr inbounds i8, i8* %125, i64 16, !dbg !5420
  %128 = getelementptr inbounds %class.HandlerCall, %class.HandlerCall* %10, i64 0, i32 2, !dbg !5420
  call void @llvm.dbg.value(metadata i8* %127, metadata !5421, metadata !DIExpression()), !dbg !5425
  call void @llvm.dbg.value(metadata %class.String* %128, metadata !5424, metadata !DIExpression()), !dbg !5425
  call void @llvm.dbg.value(metadata i8* %127, metadata !5427, metadata !DIExpression()), !dbg !5431
  call void @llvm.dbg.value(metadata %class.String* %128, metadata !5430, metadata !DIExpression()), !dbg !5431
  %129 = bitcast %class.String* %128 to i64*, !dbg !5434
  %130 = load i64, i64* %129, align 8, !dbg !5434, !tbaa !5176
  %131 = load i32, i32* %27, align 8, !dbg !5435, !tbaa !5179
  %132 = load %"struct.String::memo_t"*, %"struct.String::memo_t"** %28, align 8, !dbg !5436, !tbaa !5183
  call void @llvm.dbg.value(metadata i8* %127, metadata !5165, metadata !DIExpression()), !dbg !5437
  call void @llvm.dbg.value(metadata i8* undef, metadata !5168, metadata !DIExpression()), !dbg !5437
  call void @llvm.dbg.value(metadata i32 %131, metadata !5169, metadata !DIExpression()), !dbg !5437
  call void @llvm.dbg.value(metadata %"struct.String::memo_t"* %132, metadata !5170, metadata !DIExpression()), !dbg !5437
  %133 = bitcast i8* %127 to i64*, !dbg !5439
  store i64 %130, i64* %133, align 8, !dbg !5439, !tbaa !5176
  %134 = getelementptr inbounds i8, i8* %125, i64 24, !dbg !5440
  %135 = bitcast i8* %134 to i32*, !dbg !5440
  store i32 %131, i32* %135, align 8, !dbg !5441, !tbaa !5179
  %136 = getelementptr inbounds i8, i8* %125, i64 32, !dbg !5442
  %137 = bitcast i8* %136 to %"struct.String::memo_t"**, !dbg !5442
  store %"struct.String::memo_t"* %132, %"struct.String::memo_t"** %137, align 8, !dbg !5443, !tbaa !5183
  %138 = icmp eq %"struct.String::memo_t"* %132, null, !dbg !5444
  br i1 %138, label %143, label %139, !dbg !5445

139:                                              ; preds = %126
  %140 = getelementptr inbounds %"struct.String::memo_t", %"struct.String::memo_t"* %132, i64 0, i32 0, !dbg !5446
  call void @llvm.dbg.value(metadata i32* %140, metadata !5447, metadata !DIExpression()), !dbg !5450
  %141 = load volatile i32, i32* %140, align 4, !dbg !5452, !tbaa !5133
  %142 = add i32 %141, 1, !dbg !5452
  store volatile i32 %142, i32* %140, align 4, !dbg !5452, !tbaa !5133
  br label %143, !dbg !5453

143:                                              ; preds = %139, %126
  %144 = bitcast %class.HandlerCall** %91 to i8**, !dbg !5454
  store i8* %125, i8** %144, align 8, !dbg !5454, !tbaa !5360
  br label %162, !dbg !5455

145:                                              ; preds = %113
  %146 = load i8, i8* %8, align 1, !dbg !5456, !tbaa !5138, !range !5319
  call void @llvm.dbg.value(metadata i8 %146, metadata !5106, metadata !DIExpression()), !dbg !5109
  %147 = icmp eq i8 %146, 0, !dbg !5456
  br i1 %147, label %161, label %148, !dbg !5458

148:                                              ; preds = %145
  %149 = invoke dereferenceable(40) i8* @_Znwm(i64 40) #17
          to label %150 unwind label %57, !dbg !5459

150:                                              ; preds = %148
  call void @llvm.dbg.value(metadata %class.String* undef, metadata !5165, metadata !DIExpression()), !dbg !5460
  call void @llvm.dbg.value(metadata i32 4, metadata !5169, metadata !DIExpression()), !dbg !5460
  call void @llvm.dbg.value(metadata %"struct.String::memo_t"* null, metadata !5170, metadata !DIExpression()), !dbg !5460
  call void @llvm.dbg.value(metadata i8* %149, metadata !5469, metadata !DIExpression()), !dbg !5473
  call void @llvm.dbg.value(metadata %class.String* undef, metadata !5472, metadata !DIExpression()), !dbg !5473
  %151 = bitcast i8* %149 to %class.Element**, !dbg !5475
  store %class.Element* inttoptr (i64 4 to %class.Element*), %class.Element** %151, align 8, !dbg !5475, !tbaa !5150
  %152 = getelementptr inbounds i8, i8* %149, i64 8, !dbg !5476
  %153 = bitcast i8* %152 to i64*, !dbg !5476
  store i64 %123, i64* %153, align 8, !dbg !5476, !tbaa !5159
  %154 = getelementptr inbounds i8, i8* %149, i64 16, !dbg !5477
  call void @llvm.dbg.value(metadata i8* %154, metadata !5421, metadata !DIExpression()), !dbg !5478
  call void @llvm.dbg.value(metadata %class.String* undef, metadata !5424, metadata !DIExpression()), !dbg !5478
  call void @llvm.dbg.value(metadata i8* %154, metadata !5427, metadata !DIExpression()), !dbg !5480
  call void @llvm.dbg.value(metadata %class.String* undef, metadata !5430, metadata !DIExpression()), !dbg !5480
  call void @llvm.dbg.value(metadata i8* %154, metadata !5165, metadata !DIExpression()), !dbg !5482
  call void @llvm.dbg.value(metadata i8* undef, metadata !5168, metadata !DIExpression()), !dbg !5482
  call void @llvm.dbg.value(metadata i32 4, metadata !5169, metadata !DIExpression()), !dbg !5482
  call void @llvm.dbg.value(metadata %"struct.String::memo_t"* null, metadata !5170, metadata !DIExpression()), !dbg !5482
  %155 = bitcast i8* %154 to i64*, !dbg !5484
  store i64 ptrtoint ([5 x i8]* @.str.10 to i64), i64* %155, align 8, !dbg !5484, !tbaa !5176
  %156 = getelementptr inbounds i8, i8* %149, i64 24, !dbg !5485
  %157 = bitcast i8* %156 to i32*, !dbg !5485
  store i32 4, i32* %157, align 8, !dbg !5486, !tbaa !5179
  %158 = getelementptr inbounds i8, i8* %149, i64 32, !dbg !5487
  %159 = bitcast i8* %158 to %"struct.String::memo_t"**, !dbg !5487
  store %"struct.String::memo_t"* null, %"struct.String::memo_t"** %159, align 8, !dbg !5488, !tbaa !5183
  %160 = bitcast %class.HandlerCall** %91 to i8**, !dbg !5489
  store i8* %149, i8** %160, align 8, !dbg !5489, !tbaa !5360
  call void @llvm.dbg.value(metadata %class.String* undef, metadata !5368, metadata !DIExpression()) #14, !dbg !5490
  call void @llvm.dbg.value(metadata %class.String* undef, metadata !5374, metadata !DIExpression()) #14, !dbg !5492
  br label %162, !dbg !5494

161:                                              ; preds = %145
  store %class.HandlerCall* null, %class.HandlerCall** %91, align 8, !dbg !5495, !tbaa !5360
  br label %162

162:                                              ; preds = %143, %161, %150, %79, %64, %55, %39
  %163 = phi i32 [ -1, %39 ], [ %56, %55 ], [ %65, %64 ], [ %80, %79 ], [ 0, %150 ], [ 0, %161 ], [ 0, %143 ], !dbg !5109
  call void @llvm.dbg.value(metadata %class.HandlerCall* %10, metadata !5362, metadata !DIExpression()) #14, !dbg !5496
  call void @llvm.dbg.value(metadata %class.HandlerCall* %10, metadata !5368, metadata !DIExpression(DW_OP_plus_uconst, 16, DW_OP_stack_value)) #14, !dbg !5498
  call void @llvm.dbg.value(metadata %class.HandlerCall* %10, metadata !5374, metadata !DIExpression(DW_OP_plus_uconst, 16, DW_OP_stack_value)) #14, !dbg !5500
  %164 = load %"struct.String::memo_t"*, %"struct.String::memo_t"** %28, align 8, !dbg !5502, !tbaa !5183
  %165 = icmp eq %"struct.String::memo_t"* %164, null, !dbg !5503
  br i1 %165, label %180, label %166, !dbg !5504

166:                                              ; preds = %162
  %167 = getelementptr inbounds %"struct.String::memo_t", %"struct.String::memo_t"* %164, i64 0, i32 0, !dbg !5505
  %168 = load volatile i32, i32* %167, align 4, !dbg !5505, !tbaa !5386
  %169 = icmp eq i32 %168, 0, !dbg !5505
  br i1 %169, label %170, label %171, !dbg !5505

170:                                              ; preds = %166
  call void @__assert_fail(i8* getelementptr inbounds ([18 x i8], [18 x i8]* @.str.17, i64 0, i64 0), i8* getelementptr inbounds ([29 x i8], [29 x i8]* @.str.18, i64 0, i64 0), i32 273, i8* getelementptr inbounds ([27 x i8], [27 x i8]* @__PRETTY_FUNCTION__._ZNK6String5derefEv, i64 0, i64 0)) #15, !dbg !5505
  unreachable, !dbg !5505

171:                                              ; preds = %166
  call void @llvm.dbg.value(metadata i32* %167, metadata !5388, metadata !DIExpression()) #14, !dbg !5506
  %172 = load volatile i32, i32* %167, align 4, !dbg !5508, !tbaa !5133
  %173 = add i32 %172, -1, !dbg !5508
  store volatile i32 %173, i32* %167, align 4, !dbg !5508, !tbaa !5133
  %174 = icmp eq i32 %173, 0, !dbg !5509
  br i1 %174, label %175, label %176, !dbg !5510

175:                                              ; preds = %171
  invoke void @_ZN6String11delete_memoEPNS_6memo_tE(%"struct.String::memo_t"* nonnull %164)
          to label %176 unwind label %177, !dbg !5511

176:                                              ; preds = %175, %171
  store %"struct.String::memo_t"* null, %"struct.String::memo_t"** %28, align 8, !dbg !5512, !tbaa !5183
  br label %180, !dbg !5513

177:                                              ; preds = %175
  %178 = landingpad { i8*, i32 }
          catch i8* null, !dbg !5514
  %179 = extractvalue { i8*, i32 } %178, 0, !dbg !5514
  call void @__clang_call_terminate(i8* %179) #15, !dbg !5514
  unreachable, !dbg !5514

180:                                              ; preds = %162, %176
  call void @llvm.lifetime.end.p0i8(i64 40, i8* nonnull %21) #14, !dbg !5515
  call void @llvm.lifetime.end.p0i8(i64 1, i8* nonnull %9) #14, !dbg !5515
  call void @llvm.lifetime.end.p0i8(i64 1, i8* nonnull %8) #14, !dbg !5515
  call void @llvm.lifetime.end.p0i8(i64 1, i8* nonnull %7) #14, !dbg !5515
  call void @llvm.lifetime.end.p0i8(i64 4, i8* nonnull %20) #14, !dbg !5515
  call void @llvm.lifetime.end.p0i8(i64 4, i8* nonnull %19) #14, !dbg !5515
  call void @llvm.lifetime.end.p0i8(i64 8, i8* nonnull %18) #14, !dbg !5515
  ret i32 %163, !dbg !5515

181:                                              ; preds = %57, %49
  %182 = phi i8* [ %59, %57 ], [ %50, %49 ], !dbg !5109
  %183 = phi i32 [ %60, %57 ], [ %51, %49 ], !dbg !5109
  call void @llvm.dbg.value(metadata %class.HandlerCall* %10, metadata !5362, metadata !DIExpression()) #14, !dbg !5516
  call void @llvm.dbg.value(metadata %class.HandlerCall* %10, metadata !5368, metadata !DIExpression(DW_OP_plus_uconst, 16, DW_OP_stack_value)) #14, !dbg !5518
  call void @llvm.dbg.value(metadata %class.HandlerCall* %10, metadata !5374, metadata !DIExpression(DW_OP_plus_uconst, 16, DW_OP_stack_value)) #14, !dbg !5520
  %184 = load %"struct.String::memo_t"*, %"struct.String::memo_t"** %28, align 8, !dbg !5522, !tbaa !5183
  %185 = icmp eq %"struct.String::memo_t"* %184, null, !dbg !5523
  br i1 %185, label %200, label %186, !dbg !5524

186:                                              ; preds = %181
  %187 = getelementptr inbounds %"struct.String::memo_t", %"struct.String::memo_t"* %184, i64 0, i32 0, !dbg !5525
  %188 = load volatile i32, i32* %187, align 4, !dbg !5525, !tbaa !5386
  %189 = icmp eq i32 %188, 0, !dbg !5525
  br i1 %189, label %190, label %191, !dbg !5525

190:                                              ; preds = %186
  call void @__assert_fail(i8* getelementptr inbounds ([18 x i8], [18 x i8]* @.str.17, i64 0, i64 0), i8* getelementptr inbounds ([29 x i8], [29 x i8]* @.str.18, i64 0, i64 0), i32 273, i8* getelementptr inbounds ([27 x i8], [27 x i8]* @__PRETTY_FUNCTION__._ZNK6String5derefEv, i64 0, i64 0)) #15, !dbg !5525
  unreachable, !dbg !5525

191:                                              ; preds = %186
  call void @llvm.dbg.value(metadata i32* %187, metadata !5388, metadata !DIExpression()) #14, !dbg !5526
  %192 = load volatile i32, i32* %187, align 4, !dbg !5528, !tbaa !5133
  %193 = add i32 %192, -1, !dbg !5528
  store volatile i32 %193, i32* %187, align 4, !dbg !5528, !tbaa !5133
  %194 = icmp eq i32 %193, 0, !dbg !5529
  br i1 %194, label %195, label %196, !dbg !5530

195:                                              ; preds = %191
  invoke void @_ZN6String11delete_memoEPNS_6memo_tE(%"struct.String::memo_t"* nonnull %184)
          to label %196 unwind label %197, !dbg !5531

196:                                              ; preds = %195, %191
  store %"struct.String::memo_t"* null, %"struct.String::memo_t"** %28, align 8, !dbg !5532, !tbaa !5183
  br label %200, !dbg !5533

197:                                              ; preds = %195
  %198 = landingpad { i8*, i32 }
          catch i8* null, !dbg !5534
  %199 = extractvalue { i8*, i32 } %198, 0, !dbg !5534
  call void @__clang_call_terminate(i8* %199) #15, !dbg !5534
  unreachable, !dbg !5534

200:                                              ; preds = %181, %196
  call void @llvm.lifetime.end.p0i8(i64 40, i8* nonnull %21) #14, !dbg !5515
  call void @llvm.lifetime.end.p0i8(i64 1, i8* nonnull %9) #14, !dbg !5515
  call void @llvm.lifetime.end.p0i8(i64 1, i8* nonnull %8) #14, !dbg !5515
  call void @llvm.lifetime.end.p0i8(i64 1, i8* nonnull %7) #14, !dbg !5515
  call void @llvm.lifetime.end.p0i8(i64 4, i8* nonnull %20) #14, !dbg !5515
  call void @llvm.lifetime.end.p0i8(i64 4, i8* nonnull %19) #14, !dbg !5515
  call void @llvm.lifetime.end.p0i8(i64 8, i8* nonnull %18) #14, !dbg !5515
  %201 = insertvalue { i8*, i32 } undef, i8* %182, 0, !dbg !5515
  %202 = insertvalue { i8*, i32 } %201, i32 %183, 1, !dbg !5515
  resume { i8*, i32 } %202, !dbg !5515
}

declare i32 @_ZN8Notifier10initializeEPKcP6Router(%class.Notifier*, i8*, %class.Router*) local_unnamed_addr #2

; Function Attrs: argmemonly nounwind willreturn
declare void @llvm.lifetime.start.p0i8(i64 immarg, i8* nocapture) #3

declare void @_ZN4ArgsC1ERK6VectorI6StringEPK7ElementP12ErrorHandler(%class.Args*, %class.Vector.0* dereferenceable(16), %class.Element*, %class.ErrorHandler*) unnamed_addr #2

declare i32 @__gxx_personality_v0(...)

declare i32 @_ZN4Args8completeEv(%class.Args*) local_unnamed_addr #2

; Function Attrs: nounwind
declare void @_ZN4ArgsD1Ev(%class.Args*) unnamed_addr #4

; Function Attrs: argmemonly nounwind willreturn
declare void @llvm.lifetime.end.p0i8(i64 immarg, i8* nocapture) #3

declare i32 @_ZN12ErrorHandler5errorEPKcz(%class.ErrorHandler*, i8*, ...) local_unnamed_addr #2

; Function Attrs: nobuiltin nounwind
declare void @_ZdlPv(i8*) local_unnamed_addr #5

; Function Attrs: nobuiltin nofree
declare noalias nonnull i8* @_Znwm(i64) local_unnamed_addr #6

; Function Attrs: sspstrong uwtable
define dso_local zeroext i1 @_ZN12RandomSource8run_taskEP4Task(%class.RandomSource* %0, %class.Task* nocapture readnone %1) unnamed_addr #0 align 2 !dbg !5535 {
  call void @llvm.dbg.value(metadata %class.RandomSource* %0, metadata !5537, metadata !DIExpression()), !dbg !5545
  call void @llvm.dbg.value(metadata %class.Task* undef, metadata !5538, metadata !DIExpression()), !dbg !5545
  %3 = getelementptr inbounds %class.RandomSource, %class.RandomSource* %0, i64 0, i32 0, i32 7, !dbg !5546
  %4 = load i8, i8* %3, align 4, !dbg !5546, !tbaa !5354, !range !5319
  %5 = icmp eq i8 %4, 0, !dbg !5546
  br i1 %5, label %102, label %6, !dbg !5548

6:                                                ; preds = %2
  %7 = getelementptr inbounds %class.RandomSource, %class.RandomSource* %0, i64 0, i32 0, i32 11, !dbg !5549
  call void @llvm.dbg.value(metadata %class.NotifierSignal* %7, metadata !5550, metadata !DIExpression()), !dbg !5554
  call void @llvm.dbg.value(metadata %class.NotifierSignal* %7, metadata !5556, metadata !DIExpression()), !dbg !5563
  tail call void asm sideeffect "", "~{memory},~{dirflag},~{fpsr},~{flags}"() #14, !dbg !5565, !srcloc !5571
  %8 = getelementptr inbounds %class.RandomSource, %class.RandomSource* %0, i64 0, i32 0, i32 11, i32 1, !dbg !5572
  %9 = load i32, i32* %8, align 8, !dbg !5572, !tbaa !5573
  %10 = icmp eq i32 %9, 0, !dbg !5572
  br i1 %10, label %11, label %31, !dbg !5574, !prof !5575, !misexpect !5576

11:                                               ; preds = %6
  %12 = bitcast %class.NotifierSignal* %7 to %"struct.NotifierSignal::vmpair"**, !dbg !5577
  %13 = load %"struct.NotifierSignal::vmpair"*, %"struct.NotifierSignal::vmpair"** %12, align 8, !dbg !5577, !tbaa !5578
  call void @llvm.dbg.value(metadata %"struct.NotifierSignal::vmpair"* %13, metadata !5559, metadata !DIExpression()), !dbg !5579
  %14 = getelementptr inbounds %"struct.NotifierSignal::vmpair", %"struct.NotifierSignal::vmpair"* %13, i64 0, i32 1, !dbg !5580
  %15 = load i32, i32* %14, align 8, !dbg !5580, !tbaa !5582
  %16 = icmp eq i32 %15, 0, !dbg !5584
  br i1 %16, label %39, label %22, !dbg !5585

17:                                               ; preds = %22
  %18 = getelementptr inbounds %"struct.NotifierSignal::vmpair", %"struct.NotifierSignal::vmpair"* %24, i64 1, !dbg !5586
  call void @llvm.dbg.value(metadata %"struct.NotifierSignal::vmpair"* %18, metadata !5559, metadata !DIExpression()), !dbg !5579
  call void @llvm.dbg.value(metadata %"struct.NotifierSignal::vmpair"* %18, metadata !5559, metadata !DIExpression()), !dbg !5579
  %19 = getelementptr inbounds %"struct.NotifierSignal::vmpair", %"struct.NotifierSignal::vmpair"* %24, i64 1, i32 1, !dbg !5580
  %20 = load i32, i32* %19, align 8, !dbg !5580, !tbaa !5582
  %21 = icmp eq i32 %20, 0, !dbg !5584
  br i1 %21, label %39, label %22, !dbg !5585, !llvm.loop !5587

22:                                               ; preds = %11, %17
  %23 = phi i32 [ %20, %17 ], [ %15, %11 ]
  %24 = phi %"struct.NotifierSignal::vmpair"* [ %18, %17 ], [ %13, %11 ]
  call void @llvm.dbg.value(metadata %"struct.NotifierSignal::vmpair"* %24, metadata !5559, metadata !DIExpression()), !dbg !5579
  %25 = getelementptr inbounds %"struct.NotifierSignal::vmpair", %"struct.NotifierSignal::vmpair"* %24, i64 0, i32 0, !dbg !5589
  %26 = load %class.atomic_uint32_t*, %class.atomic_uint32_t** %25, align 8, !dbg !5589, !tbaa !5591
  call void @llvm.dbg.value(metadata %class.atomic_uint32_t* %26, metadata !5592, metadata !DIExpression()), !dbg !5595
  call void @llvm.dbg.value(metadata %class.atomic_uint32_t* %26, metadata !5597, metadata !DIExpression()), !dbg !5600
  %27 = getelementptr inbounds %class.atomic_uint32_t, %class.atomic_uint32_t* %26, i64 0, i32 0, !dbg !5602
  %28 = load i32, i32* %27, align 4, !dbg !5602, !tbaa !5603
  %29 = and i32 %28, %23, !dbg !5605
  %30 = icmp eq i32 %29, 0, !dbg !5606
  call void @llvm.dbg.value(metadata %"struct.NotifierSignal::vmpair"* %24, metadata !5559, metadata !DIExpression(DW_OP_plus_uconst, 16, DW_OP_stack_value)), !dbg !5579
  br i1 %30, label %17, label %38, !dbg !5607

31:                                               ; preds = %6
  %32 = getelementptr inbounds %class.NotifierSignal, %class.NotifierSignal* %7, i64 0, i32 0, i32 0, !dbg !5608
  %33 = load %class.atomic_uint32_t*, %class.atomic_uint32_t** %32, align 8, !dbg !5608, !tbaa !5578
  call void @llvm.dbg.value(metadata %class.atomic_uint32_t* %33, metadata !5592, metadata !DIExpression()), !dbg !5609
  call void @llvm.dbg.value(metadata %class.atomic_uint32_t* %33, metadata !5597, metadata !DIExpression()), !dbg !5611
  %34 = getelementptr inbounds %class.atomic_uint32_t, %class.atomic_uint32_t* %33, i64 0, i32 0, !dbg !5613
  %35 = load i32, i32* %34, align 4, !dbg !5613, !tbaa !5603
  %36 = and i32 %35, %9, !dbg !5614
  %37 = icmp eq i32 %36, 0, !dbg !5615
  br i1 %37, label %39, label %38, !dbg !5616

38:                                               ; preds = %22, %31
  br label %39, !dbg !5616

39:                                               ; preds = %17, %11, %31, %38
  %40 = phi { i64, i64 } [ { i64 ptrtoint (i1 (%class.NotifierSignal*)* @_ZNK14NotifierSignal6activeEv to i64), i64 0 }, %38 ], [ zeroinitializer, %31 ], [ zeroinitializer, %11 ], [ zeroinitializer, %17 ]
  %41 = extractvalue { i64, i64 } %40, 0, !dbg !5549
  %42 = icmp eq i64 %41, 0, !dbg !5549
  br i1 %42, label %102, label %43, !dbg !5617

43:                                               ; preds = %39
  %44 = getelementptr inbounds %class.RandomSource, %class.RandomSource* %0, i64 0, i32 0, i32 3, !dbg !5618
  %45 = load i32, i32* %44, align 8, !dbg !5618, !tbaa !5347
  call void @llvm.dbg.value(metadata i32 %45, metadata !5539, metadata !DIExpression()), !dbg !5545
  %46 = getelementptr inbounds %class.RandomSource, %class.RandomSource* %0, i64 0, i32 0, i32 4, !dbg !5619
  %47 = load i64, i64* %46, align 8, !dbg !5619, !tbaa !5344
  %48 = icmp sgt i64 %47, -1, !dbg !5621
  br i1 %48, label %49, label %59, !dbg !5622

49:                                               ; preds = %43
  %50 = getelementptr inbounds %class.RandomSource, %class.RandomSource* %0, i64 0, i32 0, i32 5, !dbg !5623
  %51 = load i64, i64* %50, align 8, !dbg !5623, !tbaa !5350
  %52 = sext i32 %45 to i64, !dbg !5624
  %53 = add i64 %51, %52, !dbg !5625
  %54 = icmp ult i64 %53, %47, !dbg !5626
  br i1 %54, label %59, label %55, !dbg !5627

55:                                               ; preds = %49
  %56 = icmp ult i64 %47, %51, !dbg !5628
  %57 = sub i64 %47, %51, !dbg !5629
  %58 = trunc i64 %57 to i32, !dbg !5629
  br i1 %56, label %64, label %59

59:                                               ; preds = %55, %49, %43
  %60 = phi i32 [ %45, %49 ], [ %45, %43 ], [ %58, %55 ], !dbg !5545
  call void @llvm.dbg.value(metadata i32 %60, metadata !5539, metadata !DIExpression()), !dbg !5545
  call void @llvm.dbg.value(metadata i32 0, metadata !5540, metadata !DIExpression()), !dbg !5630
  %61 = icmp sgt i32 %60, 0, !dbg !5631
  br i1 %61, label %62, label %64, !dbg !5632

62:                                               ; preds = %59
  %63 = bitcast %class.RandomSource* %0 to %class.Element*, !dbg !5633
  br label %75, !dbg !5632

64:                                               ; preds = %59, %55
  %65 = phi i32 [ %60, %59 ], [ 0, %55 ]
  %66 = sext i32 %65 to i64, !dbg !5634
  %67 = getelementptr inbounds %class.RandomSource, %class.RandomSource* %0, i64 0, i32 0, i32 5, !dbg !5635
  %68 = load i64, i64* %67, align 8, !dbg !5636, !tbaa !5350
  %69 = add i64 %68, %66, !dbg !5636
  store i64 %69, i64* %67, align 8, !dbg !5636, !tbaa !5350
  br label %85, !dbg !5637

70:                                               ; preds = %75
  %71 = sext i32 %60 to i64, !dbg !5634
  %72 = getelementptr inbounds %class.RandomSource, %class.RandomSource* %0, i64 0, i32 0, i32 5, !dbg !5635
  %73 = load i64, i64* %72, align 8, !dbg !5636, !tbaa !5350
  %74 = add i64 %73, %71, !dbg !5636
  store i64 %74, i64* %72, align 8, !dbg !5636, !tbaa !5350
  br i1 %61, label %81, label %85, !dbg !5637

75:                                               ; preds = %75, %62
  %76 = phi i32 [ 0, %62 ], [ %79, %75 ]
  call void @llvm.dbg.value(metadata i32 %76, metadata !5540, metadata !DIExpression()), !dbg !5630
  %77 = tail call %class.Packet* @_ZN12RandomSource11make_packetEv(%class.RandomSource* %0), !dbg !5638
  call void @llvm.dbg.value(metadata %class.Packet* %77, metadata !5542, metadata !DIExpression()), !dbg !5633
  %78 = tail call dereferenceable(16) %"class.Element::Port"* @_ZNK7Element6outputEi(%class.Element* %63, i32 0), !dbg !5639
  tail call void @_ZNK7Element4Port4pushEP6Packet(%"class.Element::Port"* nonnull %78, %class.Packet* %77), !dbg !5640
  %79 = add nuw nsw i32 %76, 1, !dbg !5641
  call void @llvm.dbg.value(metadata i32 %79, metadata !5540, metadata !DIExpression()), !dbg !5630
  %80 = icmp eq i32 %79, %60, !dbg !5631
  br i1 %80, label %70, label %75, !dbg !5632, !llvm.loop !5642

81:                                               ; preds = %70
  call void @llvm.dbg.value(metadata %class.RandomSource* %0, metadata !5644, metadata !DIExpression(DW_OP_plus_uconst, 200, DW_OP_stack_value)), !dbg !5647
  %82 = getelementptr inbounds %class.RandomSource, %class.RandomSource* %0, i64 0, i32 0, i32 9, i32 3, !dbg !5650
  %83 = bitcast %"union.Task::Status"* %82 to %struct.anon*, !dbg !5651
  %84 = getelementptr inbounds %struct.anon, %struct.anon* %83, i64 0, i32 1, !dbg !5651
  store i8 1, i8* %84, align 2, !dbg !5652, !tbaa !5578
  br label %102, !dbg !5653

85:                                               ; preds = %64, %70
  %86 = phi i64 [ %69, %64 ], [ %74, %70 ]
  %87 = getelementptr inbounds %class.RandomSource, %class.RandomSource* %0, i64 0, i32 0, i32 12, !dbg !5654
  %88 = load %class.HandlerCall*, %class.HandlerCall** %87, align 8, !dbg !5654, !tbaa !5360
  %89 = icmp eq %class.HandlerCall* %88, null, !dbg !5654
  br i1 %89, label %102, label %90, !dbg !5656

90:                                               ; preds = %85
  %91 = load i64, i64* %46, align 8, !dbg !5657, !tbaa !5344
  %92 = icmp slt i64 %91, 0, !dbg !5658
  %93 = icmp ult i64 %86, %91, !dbg !5659
  %94 = or i1 %92, %93, !dbg !5660
  br i1 %94, label %102, label %95, !dbg !5660

95:                                               ; preds = %90
  call void @llvm.dbg.value(metadata %class.HandlerCall* %88, metadata !5661, metadata !DIExpression()), !dbg !5665
  call void @llvm.dbg.value(metadata %class.ErrorHandler* null, metadata !5664, metadata !DIExpression()), !dbg !5665
  %96 = getelementptr inbounds %class.HandlerCall, %class.HandlerCall* %88, i64 0, i32 1, !dbg !5667
  %97 = load %class.Handler*, %class.Handler** %96, align 8, !dbg !5667, !tbaa !5159
  %98 = getelementptr inbounds %class.HandlerCall, %class.HandlerCall* %88, i64 0, i32 2, !dbg !5668
  %99 = getelementptr inbounds %class.HandlerCall, %class.HandlerCall* %88, i64 0, i32 0, !dbg !5669
  %100 = load %class.Element*, %class.Element** %99, align 8, !dbg !5669, !tbaa !5150
  %101 = tail call i32 @_ZNK7Handler10call_writeERK6StringP7ElementP12ErrorHandler(%class.Handler* %97, %class.String* nonnull dereferenceable(24) %98, %class.Element* %100, %class.ErrorHandler* null), !dbg !5670
  br label %102, !dbg !5671

102:                                              ; preds = %81, %95, %85, %90, %2, %39
  %103 = phi i1 [ false, %39 ], [ false, %2 ], [ false, %90 ], [ false, %85 ], [ false, %95 ], [ true, %81 ], !dbg !5545
  ret i1 %103, !dbg !5672
}

; Function Attrs: sspstrong uwtable
define dso_local %class.Packet* @_ZN12RandomSource11make_packetEv(%class.RandomSource* nocapture readonly %0) local_unnamed_addr #0 align 2 !dbg !5673 {
  call void @llvm.dbg.value(metadata %class.RandomSource* %0, metadata !5675, metadata !DIExpression()), !dbg !5679
  %2 = getelementptr inbounds %class.RandomSource, %class.RandomSource* %0, i64 0, i32 0, i32 6, !dbg !5680
  %3 = load i32, i32* %2, align 8, !dbg !5680, !tbaa !5337
  %4 = tail call %class.WritablePacket* @_ZN6Packet4makeEjPKvjj(i32 36, i8* null, i32 %3, i32 0), !dbg !5681
  call void @llvm.dbg.value(metadata %class.WritablePacket* %4, metadata !5676, metadata !DIExpression()), !dbg !5679
  %5 = tail call i8* @_ZNK14WritablePacket4dataEv(%class.WritablePacket* %4), !dbg !5682
  call void @llvm.dbg.value(metadata i8* %5, metadata !5678, metadata !DIExpression()), !dbg !5679
  call void @llvm.dbg.value(metadata i32 0, metadata !5677, metadata !DIExpression()), !dbg !5679
  %6 = load i32, i32* %2, align 8, !dbg !5683, !tbaa !5337
  %7 = icmp sgt i32 %6, 0, !dbg !5686
  br i1 %7, label %14, label %8, !dbg !5687

8:                                                ; preds = %14, %1
  %9 = phi i32 [ %6, %1 ], [ %22, %14 ], !dbg !5688
  %10 = phi i32 [ 0, %1 ], [ %21, %14 ], !dbg !5691
  call void @llvm.dbg.value(metadata i32 %10, metadata !5677, metadata !DIExpression()), !dbg !5679
  %11 = icmp slt i32 %10, %9, !dbg !5692
  br i1 %11, label %12, label %33, !dbg !5693

12:                                               ; preds = %8
  %13 = sext i32 %10 to i64, !dbg !5693
  br label %24, !dbg !5693

14:                                               ; preds = %1, %14
  %15 = phi i32 [ %21, %14 ], [ 0, %1 ]
  call void @llvm.dbg.value(metadata i32 %15, metadata !5677, metadata !DIExpression()), !dbg !5679
  %16 = tail call i64 @random() #14, !dbg !5694
  %17 = trunc i64 %16 to i32, !dbg !5694
  %18 = sext i32 %15 to i64, !dbg !5699
  %19 = getelementptr inbounds i8, i8* %5, i64 %18, !dbg !5699
  %20 = bitcast i8* %19 to i32*, !dbg !5700
  store i32 %17, i32* %20, align 4, !dbg !5701, !tbaa !5133
  %21 = add i32 %15, 4, !dbg !5702
  call void @llvm.dbg.value(metadata i32 %21, metadata !5677, metadata !DIExpression()), !dbg !5679
  %22 = load i32, i32* %2, align 8, !dbg !5683, !tbaa !5337
  %23 = icmp slt i32 %21, %22, !dbg !5686
  br i1 %23, label %14, label %8, !dbg !5687, !llvm.loop !5703

24:                                               ; preds = %12, %24
  %25 = phi i64 [ %13, %12 ], [ %29, %24 ]
  call void @llvm.dbg.value(metadata i64 %25, metadata !5677, metadata !DIExpression()), !dbg !5679
  %26 = tail call i64 @random() #14, !dbg !5705
  %27 = trunc i64 %26 to i8, !dbg !5705
  %28 = getelementptr inbounds i8, i8* %5, i64 %25, !dbg !5707
  store i8 %27, i8* %28, align 1, !dbg !5708, !tbaa !5578
  %29 = add nsw i64 %25, 1, !dbg !5709
  call void @llvm.dbg.value(metadata i64 %29, metadata !5677, metadata !DIExpression()), !dbg !5679
  %30 = load i32, i32* %2, align 8, !dbg !5688, !tbaa !5337
  %31 = sext i32 %30 to i64, !dbg !5692
  %32 = icmp slt i64 %29, %31, !dbg !5692
  br i1 %32, label %24, label %33, !dbg !5693, !llvm.loop !5710

33:                                               ; preds = %24, %8
  %34 = getelementptr inbounds %class.RandomSource, %class.RandomSource* %0, i64 0, i32 0, i32 8, !dbg !5712
  %35 = load i8, i8* %34, align 1, !dbg !5712, !tbaa !5358, !range !5319
  %36 = icmp eq i8 %35, 0, !dbg !5712
  br i1 %36, label %40, label %37, !dbg !5714

37:                                               ; preds = %33
  %38 = getelementptr %class.WritablePacket, %class.WritablePacket* %4, i64 0, i32 0, !dbg !5715
  %39 = tail call dereferenceable(8) %class.Timestamp* @_ZN6Packet14timestamp_annoEv(%class.Packet* %38), !dbg !5715
  tail call void @_ZN9Timestamp10assign_nowEv(%class.Timestamp* nonnull %39), !dbg !5716
  br label %40, !dbg !5717

40:                                               ; preds = %33, %37
  %41 = getelementptr %class.WritablePacket, %class.WritablePacket* %4, i64 0, i32 0, !dbg !5718
  ret %class.Packet* %41, !dbg !5719
}

; Function Attrs: noinline optnone sspstrong uwtable
define linkonce_odr dso_local dereferenceable(16) %"class.Element::Port"* @_ZNK7Element6outputEi(%class.Element* %0, i32 %1) local_unnamed_addr #7 comdat align 2 !dbg !5720 {
  %3 = alloca %class.Element*, align 8
  %4 = alloca i32, align 4
  store %class.Element* %0, %class.Element** %3, align 8, !tbaa !5158
  call void @llvm.dbg.declare(metadata %class.Element** %3, metadata !5757, metadata !DIExpression()), !dbg !5759
  store i32 %1, i32* %4, align 4, !tbaa !5133
  call void @llvm.dbg.declare(metadata i32* %4, metadata !5758, metadata !DIExpression()), !dbg !5760
  %5 = load %class.Element*, %class.Element** %3, align 8
  %6 = load i32, i32* %4, align 4, !dbg !5761, !tbaa !5133
  %7 = call dereferenceable(16) %"class.Element::Port"* @_ZNK7Element4portEbi(%class.Element* %5, i1 zeroext true, i32 %6), !dbg !5762
  ret %"class.Element::Port"* %7, !dbg !5763
}

; Function Attrs: noinline optnone sspstrong uwtable
define linkonce_odr dso_local void @_ZNK7Element4Port4pushEP6Packet(%"class.Element::Port"* %0, %class.Packet* %1) local_unnamed_addr #7 comdat align 2 !dbg !5764 {
  %3 = alloca %"class.Element::Port"*, align 8
  %4 = alloca %class.Packet*, align 8
  store %"class.Element::Port"* %0, %"class.Element::Port"** %3, align 8, !tbaa !5158
  call void @llvm.dbg.declare(metadata %"class.Element::Port"** %3, metadata !5766, metadata !DIExpression()), !dbg !5769
  store %class.Packet* %1, %class.Packet** %4, align 8, !tbaa !5158
  call void @llvm.dbg.declare(metadata %class.Packet** %4, metadata !5768, metadata !DIExpression()), !dbg !5770
  %5 = load %"class.Element::Port"*, %"class.Element::Port"** %3, align 8
  %6 = getelementptr inbounds %"class.Element::Port", %"class.Element::Port"* %5, i32 0, i32 0, !dbg !5771
  %7 = load %class.Element*, %class.Element** %6, align 8, !dbg !5771, !tbaa !5772
  %8 = icmp ne %class.Element* %7, null, !dbg !5771
  br i1 %8, label %9, label %12, !dbg !5771

9:                                                ; preds = %2
  %10 = load %class.Packet*, %class.Packet** %4, align 8, !dbg !5771, !tbaa !5158
  %11 = icmp ne %class.Packet* %10, null, !dbg !5771
  br label %12

12:                                               ; preds = %9, %2
  %13 = phi i1 [ false, %2 ], [ %11, %9 ], !dbg !5769
  br i1 %13, label %14, label %15, !dbg !5771

14:                                               ; preds = %12
  br label %16, !dbg !5771

15:                                               ; preds = %12
  call void @__assert_fail(i8* getelementptr inbounds ([8 x i8], [8 x i8]* @.str.21, i64 0, i64 0), i8* getelementptr inbounds ([30 x i8], [30 x i8]* @.str.20, i64 0, i64 0), i32 611, i8* getelementptr inbounds ([41 x i8], [41 x i8]* @__PRETTY_FUNCTION__._ZNK7Element4Port4pushEP6Packet, i64 0, i64 0)) #15, !dbg !5771
  unreachable, !dbg !5771

16:                                               ; preds = %14
  %17 = getelementptr inbounds %"class.Element::Port", %"class.Element::Port"* %5, i32 0, i32 0, !dbg !5774
  %18 = load %class.Element*, %class.Element** %17, align 8, !dbg !5774, !tbaa !5772
  %19 = getelementptr inbounds %"class.Element::Port", %"class.Element::Port"* %5, i32 0, i32 1, !dbg !5775
  %20 = load i32, i32* %19, align 8, !dbg !5775, !tbaa !5776
  %21 = load %class.Packet*, %class.Packet** %4, align 8, !dbg !5777, !tbaa !5158
  %22 = bitcast %class.Element* %18 to void (%class.Element*, i32, %class.Packet*)***, !dbg !5778
  %23 = load void (%class.Element*, i32, %class.Packet*)**, void (%class.Element*, i32, %class.Packet*)*** %22, align 8, !dbg !5778, !tbaa !5092
  %24 = getelementptr inbounds void (%class.Element*, i32, %class.Packet*)*, void (%class.Element*, i32, %class.Packet*)** %23, i64 2, !dbg !5778
  %25 = load void (%class.Element*, i32, %class.Packet*)*, void (%class.Element*, i32, %class.Packet*)** %24, align 8, !dbg !5778
  call void %25(%class.Element* %18, i32 %20, %class.Packet* %21), !dbg !5778
  ret void, !dbg !5779
}

; Function Attrs: sspstrong uwtable
define dso_local %class.Packet* @_ZN12RandomSource4pullEi(%class.RandomSource* nocapture %0, i32 %1) unnamed_addr #0 align 2 !dbg !5780 {
  call void @llvm.dbg.value(metadata %class.RandomSource* %0, metadata !5782, metadata !DIExpression()), !dbg !5788
  call void @llvm.dbg.value(metadata i32 undef, metadata !5783, metadata !DIExpression()), !dbg !5788
  %3 = getelementptr inbounds %class.RandomSource, %class.RandomSource* %0, i64 0, i32 0, i32 7, !dbg !5789
  %4 = load i8, i8* %3, align 4, !dbg !5789, !tbaa !5354, !range !5319
  %5 = icmp eq i8 %4, 0, !dbg !5789
  br i1 %5, label %6, label %51, !dbg !5790

6:                                                ; preds = %59, %2, %63
  call void @llvm.dbg.label(metadata !5785), !dbg !5791
  call void @llvm.dbg.value(metadata %class.RandomSource* %0, metadata !5792, metadata !DIExpression(DW_OP_plus_uconst, 112, DW_OP_stack_value)), !dbg !5802
  %7 = getelementptr inbounds %class.RandomSource, %class.RandomSource* %0, i64 0, i32 0, i32 1, i32 0, i32 1, !dbg !5805
  call void @llvm.dbg.value(metadata %class.NotifierSignal* %7, metadata !5556, metadata !DIExpression()), !dbg !5806
  tail call void asm sideeffect "", "~{memory},~{dirflag},~{fpsr},~{flags}"() #14, !dbg !5808, !srcloc !5571
  %8 = getelementptr inbounds %class.RandomSource, %class.RandomSource* %0, i64 0, i32 0, i32 1, i32 0, i32 1, i32 1, !dbg !5811
  %9 = load i32, i32* %8, align 8, !dbg !5811, !tbaa !5573
  %10 = icmp eq i32 %9, 0, !dbg !5811
  br i1 %10, label %11, label %32, !dbg !5812, !prof !5575, !misexpect !5576

11:                                               ; preds = %6
  %12 = bitcast %class.NotifierSignal* %7 to %"struct.NotifierSignal::vmpair"**, !dbg !5813
  %13 = load %"struct.NotifierSignal::vmpair"*, %"struct.NotifierSignal::vmpair"** %12, align 8, !dbg !5813, !tbaa !5578
  call void @llvm.dbg.value(metadata %"struct.NotifierSignal::vmpair"* %13, metadata !5559, metadata !DIExpression()), !dbg !5814
  %14 = getelementptr inbounds %"struct.NotifierSignal::vmpair", %"struct.NotifierSignal::vmpair"* %13, i64 0, i32 1, !dbg !5815
  %15 = load i32, i32* %14, align 8, !dbg !5815, !tbaa !5582
  %16 = icmp eq i32 %15, 0, !dbg !5816
  %17 = bitcast %"struct.NotifierSignal::vmpair"* %13 to %class.atomic_uint32_t*, !dbg !5817
  br i1 %16, label %74, label %23, !dbg !5817

18:                                               ; preds = %23
  %19 = getelementptr inbounds %"struct.NotifierSignal::vmpair", %"struct.NotifierSignal::vmpair"* %25, i64 1, !dbg !5818
  call void @llvm.dbg.value(metadata %"struct.NotifierSignal::vmpair"* %19, metadata !5559, metadata !DIExpression()), !dbg !5814
  call void @llvm.dbg.value(metadata %"struct.NotifierSignal::vmpair"* %19, metadata !5559, metadata !DIExpression()), !dbg !5814
  %20 = getelementptr inbounds %"struct.NotifierSignal::vmpair", %"struct.NotifierSignal::vmpair"* %25, i64 1, i32 1, !dbg !5815
  %21 = load i32, i32* %20, align 8, !dbg !5815, !tbaa !5582
  %22 = icmp eq i32 %21, 0, !dbg !5816
  br i1 %22, label %74, label %23, !dbg !5817, !llvm.loop !5819

23:                                               ; preds = %11, %18
  %24 = phi i32 [ %21, %18 ], [ %15, %11 ]
  %25 = phi %"struct.NotifierSignal::vmpair"* [ %19, %18 ], [ %13, %11 ]
  call void @llvm.dbg.value(metadata %"struct.NotifierSignal::vmpair"* %25, metadata !5559, metadata !DIExpression()), !dbg !5814
  %26 = getelementptr inbounds %"struct.NotifierSignal::vmpair", %"struct.NotifierSignal::vmpair"* %25, i64 0, i32 0, !dbg !5821
  %27 = load %class.atomic_uint32_t*, %class.atomic_uint32_t** %26, align 8, !dbg !5821, !tbaa !5591
  call void @llvm.dbg.value(metadata %class.atomic_uint32_t* %27, metadata !5592, metadata !DIExpression()), !dbg !5822
  call void @llvm.dbg.value(metadata %class.atomic_uint32_t* %27, metadata !5597, metadata !DIExpression()), !dbg !5824
  %28 = getelementptr inbounds %class.atomic_uint32_t, %class.atomic_uint32_t* %27, i64 0, i32 0, !dbg !5826
  %29 = load i32, i32* %28, align 4, !dbg !5826, !tbaa !5603
  %30 = and i32 %29, %24, !dbg !5827
  %31 = icmp eq i32 %30, 0, !dbg !5828
  call void @llvm.dbg.value(metadata %"struct.NotifierSignal::vmpair"* %25, metadata !5559, metadata !DIExpression(DW_OP_plus_uconst, 16, DW_OP_stack_value)), !dbg !5814
  br i1 %31, label %18, label %39, !dbg !5829

32:                                               ; preds = %6
  %33 = getelementptr inbounds %class.NotifierSignal, %class.NotifierSignal* %7, i64 0, i32 0, i32 0, !dbg !5830
  %34 = load %class.atomic_uint32_t*, %class.atomic_uint32_t** %33, align 8, !dbg !5830, !tbaa !5578
  call void @llvm.dbg.value(metadata %class.atomic_uint32_t* %34, metadata !5592, metadata !DIExpression()), !dbg !5831
  call void @llvm.dbg.value(metadata %class.atomic_uint32_t* %34, metadata !5597, metadata !DIExpression()), !dbg !5833
  %35 = getelementptr inbounds %class.atomic_uint32_t, %class.atomic_uint32_t* %34, i64 0, i32 0, !dbg !5835
  %36 = load i32, i32* %35, align 4, !dbg !5835, !tbaa !5603
  %37 = and i32 %36, %9, !dbg !5836
  %38 = icmp eq i32 %37, 0, !dbg !5837
  br i1 %38, label %74, label %39, !dbg !5838

39:                                               ; preds = %23, %32
  %40 = phi %class.atomic_uint32_t* [ %34, %32 ], [ %17, %23 ], !dbg !5839
  call void @llvm.dbg.value(metadata %class.RandomSource* %0, metadata !5892, metadata !DIExpression(DW_OP_plus_uconst, 112, DW_OP_stack_value)), !dbg !5894
  call void @llvm.dbg.value(metadata %class.RandomSource* %0, metadata !5864, metadata !DIExpression(DW_OP_plus_uconst, 112, DW_OP_stack_value)), !dbg !5895
  call void @llvm.dbg.value(metadata i1 false, metadata !5866, metadata !DIExpression()), !dbg !5895
  call void @llvm.dbg.value(metadata i1 true, metadata !5867, metadata !DIExpression()), !dbg !5895
  call void @llvm.dbg.value(metadata %class.RandomSource* %0, metadata !5853, metadata !DIExpression(DW_OP_plus_uconst, 112, DW_OP_stack_value)), !dbg !5896
  call void @llvm.dbg.value(metadata i1 false, metadata !5855, metadata !DIExpression()), !dbg !5896
  call void @llvm.dbg.value(metadata %class.RandomSource* %0, metadata !5842, metadata !DIExpression(DW_OP_plus_uconst, 112, DW_OP_plus_uconst, 8, DW_OP_stack_value)), !dbg !5897
  call void @llvm.dbg.value(metadata i1 false, metadata !5844, metadata !DIExpression()), !dbg !5897
  %41 = icmp ne %class.atomic_uint32_t* %40, @_ZN14NotifierSignal12static_valueE, !dbg !5839
  %42 = tail call i32 @llvm.ctpop.i32(i32 %9), !dbg !5839, !range !5898
  %43 = icmp ult i32 %42, 2, !dbg !5839
  %44 = and i1 %41, %43, !dbg !5839
  br i1 %44, label %46, label %45, !dbg !5839

45:                                               ; preds = %39
  tail call void @__assert_fail(i8* getelementptr inbounds ([49 x i8], [49 x i8]* @.str.22, i64 0, i64 0), i8* getelementptr inbounds ([31 x i8], [31 x i8]* @.str.23, i64 0, i64 0), i32 293, i8* getelementptr inbounds ([38 x i8], [38 x i8]* @__PRETTY_FUNCTION__._ZN14NotifierSignal10set_activeEb, i64 0, i64 0)) #15, !dbg !5839
  unreachable, !dbg !5839

46:                                               ; preds = %39
  call void @llvm.dbg.value(metadata %class.atomic_uint32_t* %40, metadata !5592, metadata !DIExpression()), !dbg !5899
  call void @llvm.dbg.value(metadata %class.atomic_uint32_t* %40, metadata !5597, metadata !DIExpression()), !dbg !5901
  %47 = getelementptr inbounds %class.atomic_uint32_t, %class.atomic_uint32_t* %40, i64 0, i32 0, !dbg !5903
  %48 = load i32, i32* %47, align 4, !dbg !5903, !tbaa !5603
  call void @llvm.dbg.value(metadata i32 %48, metadata !5845, metadata !DIExpression()), !dbg !5897
  %49 = xor i32 %9, -1, !dbg !5904
  %50 = and i32 %48, %49, !dbg !5904
  call void @llvm.dbg.value(metadata %class.atomic_uint32_t* %40, metadata !5905, metadata !DIExpression()), !dbg !5909
  call void @llvm.dbg.value(metadata i32 %50, metadata !5908, metadata !DIExpression()), !dbg !5909
  store i32 %50, i32* %47, align 4, !dbg !5911, !tbaa !5603
  call void @llvm.dbg.value(metadata i1 undef, metadata !5868, metadata !DIExpression()), !dbg !5895
  br label %74, !dbg !5912

51:                                               ; preds = %2
  %52 = getelementptr inbounds %class.RandomSource, %class.RandomSource* %0, i64 0, i32 0, i32 4, !dbg !5913
  %53 = load i64, i64* %52, align 8, !dbg !5913, !tbaa !5344
  %54 = icmp slt i64 %53, 0, !dbg !5915
  %55 = getelementptr inbounds %class.RandomSource, %class.RandomSource* %0, i64 0, i32 0, i32 5, !dbg !5788
  %56 = load i64, i64* %55, align 8, !dbg !5788, !tbaa !5350
  %57 = icmp ult i64 %56, %53, !dbg !5916
  %58 = or i1 %54, %57, !dbg !5917
  br i1 %58, label %70, label %59, !dbg !5917

59:                                               ; preds = %51
  %60 = getelementptr inbounds %class.RandomSource, %class.RandomSource* %0, i64 0, i32 0, i32 12, !dbg !5918
  %61 = load %class.HandlerCall*, %class.HandlerCall** %60, align 8, !dbg !5918, !tbaa !5360
  %62 = icmp eq %class.HandlerCall* %61, null, !dbg !5918
  br i1 %62, label %6, label %63, !dbg !5921

63:                                               ; preds = %59
  call void @llvm.dbg.value(metadata %class.HandlerCall* %61, metadata !5661, metadata !DIExpression()), !dbg !5922
  call void @llvm.dbg.value(metadata %class.ErrorHandler* null, metadata !5664, metadata !DIExpression()), !dbg !5922
  %64 = getelementptr inbounds %class.HandlerCall, %class.HandlerCall* %61, i64 0, i32 1, !dbg !5924
  %65 = load %class.Handler*, %class.Handler** %64, align 8, !dbg !5924, !tbaa !5159
  %66 = getelementptr inbounds %class.HandlerCall, %class.HandlerCall* %61, i64 0, i32 2, !dbg !5925
  %67 = getelementptr inbounds %class.HandlerCall, %class.HandlerCall* %61, i64 0, i32 0, !dbg !5926
  %68 = load %class.Element*, %class.Element** %67, align 8, !dbg !5926, !tbaa !5150
  %69 = tail call i32 @_ZNK7Handler10call_writeERK6StringP7ElementP12ErrorHandler(%class.Handler* %65, %class.String* nonnull dereferenceable(24) %66, %class.Element* %68, %class.ErrorHandler* null), !dbg !5927
  br label %6, !dbg !5928

70:                                               ; preds = %51
  %71 = getelementptr inbounds %class.RandomSource, %class.RandomSource* %0, i64 0, i32 0, i32 5, !dbg !5929
  %72 = add i64 %56, 1, !dbg !5930
  store i64 %72, i64* %71, align 8, !dbg !5930, !tbaa !5350
  %73 = tail call %class.Packet* @_ZN12RandomSource11make_packetEv(%class.RandomSource* nonnull %0), !dbg !5931
  call void @llvm.dbg.value(metadata %class.Packet* %73, metadata !5784, metadata !DIExpression()), !dbg !5788
  br label %74

74:                                               ; preds = %18, %32, %11, %46, %70
  %75 = phi %class.Packet* [ %73, %70 ], [ null, %46 ], [ null, %32 ], [ null, %11 ], [ null, %18 ], !dbg !5788
  ret %class.Packet* %75, !dbg !5932
}

; Function Attrs: nounwind readnone speculatable willreturn
declare void @llvm.dbg.label(metadata) #1

declare %class.WritablePacket* @_ZN6Packet4makeEjPKvjj(i32, i8*, i32, i32) local_unnamed_addr #2

declare i8* @_ZNK14WritablePacket4dataEv(%class.WritablePacket*) local_unnamed_addr #2

declare dereferenceable(8) %class.Timestamp* @_ZN6Packet14timestamp_annoEv(%class.Packet*) local_unnamed_addr #2

; Function Attrs: noinline optnone sspstrong uwtable
define linkonce_odr dso_local void @_ZN9Timestamp10assign_nowEv(%class.Timestamp* %0) local_unnamed_addr #7 comdat align 2 !dbg !5933 {
  %2 = alloca %class.Timestamp*, align 8
  store %class.Timestamp* %0, %class.Timestamp** %2, align 8, !tbaa !5158
  call void @llvm.dbg.declare(metadata %class.Timestamp** %2, metadata !5935, metadata !DIExpression()), !dbg !5937
  %3 = load %class.Timestamp*, %class.Timestamp** %2, align 8
  call void @_ZN9Timestamp10assign_nowEbbb(%class.Timestamp* %3, i1 zeroext false, i1 zeroext false, i1 zeroext false), !dbg !5938
  ret void, !dbg !5939
}

; Function Attrs: sspstrong uwtable
define dso_local void @_ZN12RandomSource12add_handlersEv(%class.RandomSource* %0) unnamed_addr #0 align 2 personality i8* bitcast (i32 (...)* @__gxx_personality_v0 to i8*) !dbg !5940 {
  %2 = alloca %class.String, align 8
  call void @llvm.dbg.value(metadata %class.RandomSource* %0, metadata !5942, metadata !DIExpression()), !dbg !5943
  %3 = bitcast %class.RandomSource* %0 to %class.Element*, !dbg !5944
  %4 = getelementptr inbounds %class.RandomSource, %class.RandomSource* %0, i64 0, i32 0, i32 4, !dbg !5945
  tail call void @_ZN7Element17add_data_handlersEPKciPl(%class.Element* %3, i8* getelementptr inbounds ([6 x i8], [6 x i8]* @.str.11, i64 0, i64 0), i32 2049, i64* nonnull %4), !dbg !5944
  tail call void @_ZN7Element17add_write_handlerEPKcPFiRK6StringPS_PvP12ErrorHandlerEij(%class.Element* %3, i8* getelementptr inbounds ([6 x i8], [6 x i8]* @.str.11, i64 0, i64 0), i32 (%class.String*, %class.Element*, i8*, %class.ErrorHandler*)* nonnull @_ZN14InfiniteSource12change_paramERK6StringP7ElementPvP12ErrorHandler, i32 1, i32 0), !dbg !5946
  %5 = getelementptr inbounds %class.RandomSource, %class.RandomSource* %0, i64 0, i32 0, i32 3, !dbg !5947
  tail call void @_ZN7Element17add_data_handlersEPKciPi(%class.Element* %3, i8* getelementptr inbounds ([6 x i8], [6 x i8]* @.str.12, i64 0, i64 0), i32 2049, i32* nonnull %5), !dbg !5948
  tail call void @_ZN7Element17add_write_handlerEPKcPFiRK6StringPS_PvP12ErrorHandlerEij(%class.Element* %3, i8* getelementptr inbounds ([6 x i8], [6 x i8]* @.str.12, i64 0, i64 0), i32 (%class.String*, %class.Element*, i8*, %class.ErrorHandler*)* nonnull @_ZN14InfiniteSource12change_paramERK6StringP7ElementPvP12ErrorHandler, i32 2, i32 0), !dbg !5949
  %6 = getelementptr inbounds %class.RandomSource, %class.RandomSource* %0, i64 0, i32 0, i32 7, !dbg !5950
  tail call void @_ZN7Element17add_data_handlersEPKciPb(%class.Element* %3, i8* getelementptr inbounds ([7 x i8], [7 x i8]* @.str.13, i64 0, i64 0), i32 16385, i8* nonnull %6), !dbg !5951
  tail call void @_ZN7Element17add_write_handlerEPKcPFiRK6StringPS_PvP12ErrorHandlerEij(%class.Element* %3, i8* getelementptr inbounds ([7 x i8], [7 x i8]* @.str.13, i64 0, i64 0), i32 (%class.String*, %class.Element*, i8*, %class.ErrorHandler*)* nonnull @_ZN14InfiniteSource12change_paramERK6StringP7ElementPvP12ErrorHandler, i32 3, i32 0), !dbg !5952
  %7 = getelementptr inbounds %class.RandomSource, %class.RandomSource* %0, i64 0, i32 0, i32 5, !dbg !5953
  tail call void @_ZN7Element17add_data_handlersEPKciPm(%class.Element* %3, i8* getelementptr inbounds ([6 x i8], [6 x i8]* @.str.14, i64 0, i64 0), i32 1, i64* nonnull %7), !dbg !5954
  tail call void @_ZN7Element17add_write_handlerEPKcPFiRK6StringPS_PvP12ErrorHandlerEij(%class.Element* %3, i8* getelementptr inbounds ([6 x i8], [6 x i8]* @.str.15, i64 0, i64 0), i32 (%class.String*, %class.Element*, i8*, %class.ErrorHandler*)* nonnull @_ZN14InfiniteSource12change_paramERK6StringP7ElementPvP12ErrorHandler, i32 4, i32 8192), !dbg !5955
  %8 = getelementptr inbounds %class.RandomSource, %class.RandomSource* %0, i64 0, i32 0, i32 6, !dbg !5956
  tail call void @_ZN7Element17add_data_handlersEPKciPi(%class.Element* %3, i8* getelementptr inbounds ([7 x i8], [7 x i8]* @.str.16, i64 0, i64 0), i32 2049, i32* nonnull %8), !dbg !5957
  tail call void @_ZN7Element17add_write_handlerEPKcPFiRK6StringPS_PvP12ErrorHandlerEij(%class.Element* %3, i8* getelementptr inbounds ([7 x i8], [7 x i8]* @.str.16, i64 0, i64 0), i32 (%class.String*, %class.Element*, i8*, %class.ErrorHandler*)* nonnull @_ZN14InfiniteSource12change_paramERK6StringP7ElementPvP12ErrorHandler, i32 6, i32 0), !dbg !5958
  call void @llvm.dbg.value(metadata %class.Element* %3, metadata !5959, metadata !DIExpression()), !dbg !5966
  call void @llvm.dbg.value(metadata i32 0, metadata !5965, metadata !DIExpression()), !dbg !5966
  call void @llvm.dbg.value(metadata %class.Element* %3, metadata !5969, metadata !DIExpression()), !dbg !5977
  call void @llvm.dbg.value(metadata i1 true, metadata !5975, metadata !DIExpression()), !dbg !5977
  call void @llvm.dbg.value(metadata i32 0, metadata !5976, metadata !DIExpression()), !dbg !5977
  call void @llvm.dbg.value(metadata %class.Element* %3, metadata !5979, metadata !DIExpression()), !dbg !5986
  call void @llvm.dbg.value(metadata i1 true, metadata !5985, metadata !DIExpression()), !dbg !5986
  %9 = getelementptr inbounds %class.RandomSource, %class.RandomSource* %0, i64 0, i32 0, i32 0, i32 3, i64 1, !dbg !5988
  %10 = load i32, i32* %9, align 4, !dbg !5988, !tbaa !5133
  %11 = icmp eq i32 %10, 0, !dbg !5989
  br i1 %11, label %61, label %12, !dbg !5990

12:                                               ; preds = %1
  %13 = getelementptr inbounds %class.RandomSource, %class.RandomSource* %0, i64 0, i32 0, i32 0, i32 1, i64 1, !dbg !5991
  %14 = load %"class.Element::Port"*, %"class.Element::Port"** %13, align 8, !dbg !5991, !tbaa !5158
  call void @llvm.dbg.value(metadata %"class.Element::Port"* undef, metadata !5992, metadata !DIExpression()), !dbg !5995
  %15 = getelementptr inbounds %"class.Element::Port", %"class.Element::Port"* %14, i64 0, i32 1, !dbg !5997
  %16 = load i32, i32* %15, align 8, !dbg !5997, !tbaa !5776
  %17 = icmp sgt i32 %16, -1, !dbg !5998
  br i1 %17, label %18, label %61, !dbg !5999

18:                                               ; preds = %12
  %19 = getelementptr inbounds %class.RandomSource, %class.RandomSource* %0, i64 0, i32 0, i32 9, !dbg !6000
  %20 = bitcast %class.String* %2 to i8*, !dbg !6001
  call void @llvm.lifetime.start.p0i8(i64 24, i8* nonnull %20) #14, !dbg !6001
  call void @llvm.dbg.value(metadata %class.String* %2, metadata !5160, metadata !DIExpression()), !dbg !6002
  call void @llvm.dbg.value(metadata %class.String* %2, metadata !5165, metadata !DIExpression()), !dbg !6004
  call void @llvm.dbg.value(metadata i8* @_ZN6String9null_dataE, metadata !5168, metadata !DIExpression()), !dbg !6004
  call void @llvm.dbg.value(metadata i32 0, metadata !5169, metadata !DIExpression()), !dbg !6004
  call void @llvm.dbg.value(metadata %"struct.String::memo_t"* null, metadata !5170, metadata !DIExpression()), !dbg !6004
  %21 = getelementptr inbounds %class.String, %class.String* %2, i64 0, i32 0, i32 0, !dbg !6006
  store i8* @_ZN6String9null_dataE, i8** %21, align 8, !dbg !6007, !tbaa !5176
  %22 = getelementptr inbounds %class.String, %class.String* %2, i64 0, i32 0, i32 1, !dbg !6008
  store i32 0, i32* %22, align 8, !dbg !6009, !tbaa !5179
  %23 = getelementptr inbounds %class.String, %class.String* %2, i64 0, i32 0, i32 2, !dbg !6010
  store %"struct.String::memo_t"* null, %"struct.String::memo_t"** %23, align 8, !dbg !6011, !tbaa !5183
  call void @llvm.dbg.value(metadata %class.Element* %3, metadata !6012, metadata !DIExpression()), !dbg !6021
  call void @llvm.dbg.value(metadata %class.Task* %19, metadata !6019, metadata !DIExpression()), !dbg !6021
  call void @llvm.dbg.value(metadata %class.String* %2, metadata !6020, metadata !DIExpression()), !dbg !6021
  invoke void @_ZN7Element17add_task_handlersEP4TaskP14NotifierSignaliRK6String(%class.Element* nonnull %3, %class.Task* nonnull %19, %class.NotifierSignal* null, i32 6, %class.String* nonnull dereferenceable(24) %2)
          to label %24 unwind label %42, !dbg !6023

24:                                               ; preds = %18
  call void @llvm.dbg.value(metadata %class.String* %2, metadata !5368, metadata !DIExpression()) #14, !dbg !6024
  call void @llvm.dbg.value(metadata %class.String* %2, metadata !5374, metadata !DIExpression()) #14, !dbg !6026
  %25 = load %"struct.String::memo_t"*, %"struct.String::memo_t"** %23, align 8, !dbg !6028, !tbaa !5183
  %26 = icmp eq %"struct.String::memo_t"* %25, null, !dbg !6029
  br i1 %26, label %41, label %27, !dbg !6030

27:                                               ; preds = %24
  %28 = getelementptr inbounds %"struct.String::memo_t", %"struct.String::memo_t"* %25, i64 0, i32 0, !dbg !6031
  %29 = load volatile i32, i32* %28, align 4, !dbg !6031, !tbaa !5386
  %30 = icmp eq i32 %29, 0, !dbg !6031
  br i1 %30, label %31, label %32, !dbg !6031

31:                                               ; preds = %27
  call void @__assert_fail(i8* getelementptr inbounds ([18 x i8], [18 x i8]* @.str.17, i64 0, i64 0), i8* getelementptr inbounds ([29 x i8], [29 x i8]* @.str.18, i64 0, i64 0), i32 273, i8* getelementptr inbounds ([27 x i8], [27 x i8]* @__PRETTY_FUNCTION__._ZNK6String5derefEv, i64 0, i64 0)) #15, !dbg !6031
  unreachable, !dbg !6031

32:                                               ; preds = %27
  call void @llvm.dbg.value(metadata i32* %28, metadata !5388, metadata !DIExpression()) #14, !dbg !6032
  %33 = load volatile i32, i32* %28, align 4, !dbg !6034, !tbaa !5133
  %34 = add i32 %33, -1, !dbg !6034
  store volatile i32 %34, i32* %28, align 4, !dbg !6034, !tbaa !5133
  %35 = icmp eq i32 %34, 0, !dbg !6035
  br i1 %35, label %36, label %37, !dbg !6036

36:                                               ; preds = %32
  invoke void @_ZN6String11delete_memoEPNS_6memo_tE(%"struct.String::memo_t"* nonnull %25)
          to label %37 unwind label %38, !dbg !6037

37:                                               ; preds = %36, %32
  store %"struct.String::memo_t"* null, %"struct.String::memo_t"** %23, align 8, !dbg !6038, !tbaa !5183
  br label %41, !dbg !6039

38:                                               ; preds = %36
  %39 = landingpad { i8*, i32 }
          catch i8* null, !dbg !6040
  %40 = extractvalue { i8*, i32 } %39, 0, !dbg !6040
  call void @__clang_call_terminate(i8* %40) #15, !dbg !6040
  unreachable, !dbg !6040

41:                                               ; preds = %24, %37
  call void @llvm.lifetime.end.p0i8(i64 24, i8* nonnull %20) #14, !dbg !6001
  br label %61, !dbg !6001

42:                                               ; preds = %18
  %43 = landingpad { i8*, i32 }
          cleanup, !dbg !6041
  call void @llvm.dbg.value(metadata %class.String* %2, metadata !5368, metadata !DIExpression()) #14, !dbg !6042
  call void @llvm.dbg.value(metadata %class.String* %2, metadata !5374, metadata !DIExpression()) #14, !dbg !6044
  %44 = load %"struct.String::memo_t"*, %"struct.String::memo_t"** %23, align 8, !dbg !6046, !tbaa !5183
  %45 = icmp eq %"struct.String::memo_t"* %44, null, !dbg !6047
  br i1 %45, label %60, label %46, !dbg !6048

46:                                               ; preds = %42
  %47 = getelementptr inbounds %"struct.String::memo_t", %"struct.String::memo_t"* %44, i64 0, i32 0, !dbg !6049
  %48 = load volatile i32, i32* %47, align 4, !dbg !6049, !tbaa !5386
  %49 = icmp eq i32 %48, 0, !dbg !6049
  br i1 %49, label %50, label %51, !dbg !6049

50:                                               ; preds = %46
  call void @__assert_fail(i8* getelementptr inbounds ([18 x i8], [18 x i8]* @.str.17, i64 0, i64 0), i8* getelementptr inbounds ([29 x i8], [29 x i8]* @.str.18, i64 0, i64 0), i32 273, i8* getelementptr inbounds ([27 x i8], [27 x i8]* @__PRETTY_FUNCTION__._ZNK6String5derefEv, i64 0, i64 0)) #15, !dbg !6049
  unreachable, !dbg !6049

51:                                               ; preds = %46
  call void @llvm.dbg.value(metadata i32* %47, metadata !5388, metadata !DIExpression()) #14, !dbg !6050
  %52 = load volatile i32, i32* %47, align 4, !dbg !6052, !tbaa !5133
  %53 = add i32 %52, -1, !dbg !6052
  store volatile i32 %53, i32* %47, align 4, !dbg !6052, !tbaa !5133
  %54 = icmp eq i32 %53, 0, !dbg !6053
  br i1 %54, label %55, label %56, !dbg !6054

55:                                               ; preds = %51
  invoke void @_ZN6String11delete_memoEPNS_6memo_tE(%"struct.String::memo_t"* nonnull %44)
          to label %56 unwind label %57, !dbg !6055

56:                                               ; preds = %55, %51
  store %"struct.String::memo_t"* null, %"struct.String::memo_t"** %23, align 8, !dbg !6056, !tbaa !5183
  br label %60, !dbg !6057

57:                                               ; preds = %55
  %58 = landingpad { i8*, i32 }
          catch i8* null, !dbg !6058
  %59 = extractvalue { i8*, i32 } %58, 0, !dbg !6058
  call void @__clang_call_terminate(i8* %59) #15, !dbg !6058
  unreachable, !dbg !6058

60:                                               ; preds = %42, %56
  call void @llvm.lifetime.end.p0i8(i64 24, i8* nonnull %20) #14, !dbg !6001
  resume { i8*, i32 } %43, !dbg !6001

61:                                               ; preds = %1, %41, %12
  ret void, !dbg !6059
}

declare void @_ZN7Element17add_data_handlersEPKciPl(%class.Element*, i8*, i32, i64*) local_unnamed_addr #2

declare void @_ZN7Element17add_write_handlerEPKcPFiRK6StringPS_PvP12ErrorHandlerEij(%class.Element*, i8*, i32 (%class.String*, %class.Element*, i8*, %class.ErrorHandler*)*, i32, i32) local_unnamed_addr #2

declare i32 @_ZN14InfiniteSource12change_paramERK6StringP7ElementPvP12ErrorHandler(%class.String* dereferenceable(24), %class.Element*, i8*, %class.ErrorHandler*) #2

declare void @_ZN7Element17add_data_handlersEPKciPi(%class.Element*, i8*, i32, i32*) local_unnamed_addr #2

declare void @_ZN7Element17add_data_handlersEPKciPb(%class.Element*, i8*, i32, i8*) local_unnamed_addr #2

declare void @_ZN7Element17add_data_handlersEPKciPm(%class.Element*, i8*, i32, i64*) local_unnamed_addr #2

; Function Attrs: inlinehint nounwind sspstrong uwtable
define linkonce_odr dso_local void @_ZN14InfiniteSourceD2Ev(%class.InfiniteSource* %0) unnamed_addr #8 comdat align 2 personality i32 (...)* @__gxx_personality_v0 !dbg !6060 {
  call void @llvm.dbg.value(metadata %class.InfiniteSource* %0, metadata !6066, metadata !DIExpression()), !dbg !6068
  %2 = getelementptr %class.InfiniteSource, %class.InfiniteSource* %0, i64 0, i32 0, i32 0, !dbg !6069
  store i32 (...)** bitcast (i8** getelementptr inbounds ({ [29 x i8*], [6 x i8*] }, { [29 x i8*], [6 x i8*] }* @_ZTV14InfiniteSource, i64 0, inrange i32 0, i64 2) to i32 (...)**), i32 (...)*** %2, align 8, !dbg !6069, !tbaa !5092
  %3 = getelementptr inbounds %class.InfiniteSource, %class.InfiniteSource* %0, i64 0, i32 1, !dbg !6069
  %4 = getelementptr %class.ActiveNotifier, %class.ActiveNotifier* %3, i64 0, i32 0, i32 0, !dbg !6069
  store i32 (...)** bitcast (i8** getelementptr inbounds ({ [29 x i8*], [6 x i8*] }, { [29 x i8*], [6 x i8*] }* @_ZTV14InfiniteSource, i64 0, inrange i32 1, i64 2) to i32 (...)**), i32 (...)*** %4, align 8, !dbg !6069, !tbaa !5092
  call void @llvm.dbg.value(metadata %class.InfiniteSource* %0, metadata !6070, metadata !DIExpression(DW_OP_plus_uconst, 296, DW_OP_stack_value)) #14, !dbg !6073
  %5 = getelementptr inbounds %class.InfiniteSource, %class.InfiniteSource* %0, i64 0, i32 11, i32 1, !dbg !6076
  %6 = load i32, i32* %5, align 8, !dbg !6076, !tbaa !5573
  %7 = icmp eq i32 %6, 0, !dbg !6076
  br i1 %7, label %8, label %15, !dbg !6079, !prof !5575, !misexpect !6080

8:                                                ; preds = %1
  %9 = getelementptr inbounds %class.InfiniteSource, %class.InfiniteSource* %0, i64 0, i32 11, !dbg !6081
  call void @llvm.dbg.value(metadata %class.NotifierSignal* %9, metadata !6070, metadata !DIExpression()) #14, !dbg !6073
  %10 = bitcast %class.NotifierSignal* %9 to %"struct.NotifierSignal::vmpair"**, !dbg !6082
  %11 = load %"struct.NotifierSignal::vmpair"*, %"struct.NotifierSignal::vmpair"** %10, align 8, !dbg !6082, !tbaa !5578
  %12 = icmp eq %"struct.NotifierSignal::vmpair"* %11, null, !dbg !6083
  br i1 %12, label %15, label %13, !dbg !6083

13:                                               ; preds = %8
  %14 = bitcast %"struct.NotifierSignal::vmpair"* %11 to i8*, !dbg !6083
  tail call void @_ZdaPv(i8* %14) #16, !dbg !6083
  br label %15, !dbg !6083

15:                                               ; preds = %1, %8, %13
  call void @llvm.dbg.value(metadata %class.InfiniteSource* %0, metadata !5368, metadata !DIExpression(DW_OP_plus_uconst, 272, DW_OP_stack_value)) #14, !dbg !6084
  call void @llvm.dbg.value(metadata %class.InfiniteSource* %0, metadata !5374, metadata !DIExpression(DW_OP_plus_uconst, 272, DW_OP_stack_value)) #14, !dbg !6086
  %16 = getelementptr inbounds %class.InfiniteSource, %class.InfiniteSource* %0, i64 0, i32 10, i32 0, i32 2, !dbg !6088
  %17 = load %"struct.String::memo_t"*, %"struct.String::memo_t"** %16, align 8, !dbg !6088, !tbaa !5183
  %18 = icmp eq %"struct.String::memo_t"* %17, null, !dbg !6089
  br i1 %18, label %33, label %19, !dbg !6090

19:                                               ; preds = %15
  %20 = getelementptr inbounds %"struct.String::memo_t", %"struct.String::memo_t"* %17, i64 0, i32 0, !dbg !6091
  %21 = load volatile i32, i32* %20, align 4, !dbg !6091, !tbaa !5386
  %22 = icmp eq i32 %21, 0, !dbg !6091
  br i1 %22, label %23, label %24, !dbg !6091

23:                                               ; preds = %19
  tail call void @__assert_fail(i8* getelementptr inbounds ([18 x i8], [18 x i8]* @.str.17, i64 0, i64 0), i8* getelementptr inbounds ([29 x i8], [29 x i8]* @.str.18, i64 0, i64 0), i32 273, i8* getelementptr inbounds ([27 x i8], [27 x i8]* @__PRETTY_FUNCTION__._ZNK6String5derefEv, i64 0, i64 0)) #15, !dbg !6091
  unreachable, !dbg !6091

24:                                               ; preds = %19
  call void @llvm.dbg.value(metadata i32* %20, metadata !5388, metadata !DIExpression()) #14, !dbg !6092
  %25 = load volatile i32, i32* %20, align 4, !dbg !6094, !tbaa !5133
  %26 = add i32 %25, -1, !dbg !6094
  store volatile i32 %26, i32* %20, align 4, !dbg !6094, !tbaa !5133
  %27 = icmp eq i32 %26, 0, !dbg !6095
  br i1 %27, label %28, label %29, !dbg !6096

28:                                               ; preds = %24
  invoke void @_ZN6String11delete_memoEPNS_6memo_tE(%"struct.String::memo_t"* nonnull %17)
          to label %29 unwind label %30, !dbg !6097

29:                                               ; preds = %28, %24
  store %"struct.String::memo_t"* null, %"struct.String::memo_t"** %16, align 8, !dbg !6098, !tbaa !5183
  br label %33, !dbg !6099

30:                                               ; preds = %28
  %31 = landingpad { i8*, i32 }
          catch i8* null, !dbg !6100
  %32 = extractvalue { i8*, i32 } %31, 0, !dbg !6100
  tail call void @__clang_call_terminate(i8* %32) #15, !dbg !6100
  unreachable, !dbg !6100

33:                                               ; preds = %15, %29
  %34 = getelementptr inbounds %class.InfiniteSource, %class.InfiniteSource* %0, i64 0, i32 9, !dbg !6081
  tail call void @_ZN4TaskD1Ev(%class.Task* nonnull %34) #14, !dbg !6081
  tail call void @_ZN14ActiveNotifierD2Ev(%class.ActiveNotifier* nonnull %3) #14, !dbg !6081
  %35 = bitcast %class.InfiniteSource* %0 to %class.Element*, !dbg !6081
  tail call void @_ZN7ElementD2Ev(%class.Element* %35) #14, !dbg !6081
  ret void, !dbg !6069
}

; Function Attrs: inlinehint nounwind sspstrong uwtable
define linkonce_odr dso_local void @_ZN12RandomSourceD0Ev(%class.RandomSource* %0) unnamed_addr #8 comdat align 2 !dbg !6101 {
  call void @llvm.dbg.value(metadata %class.RandomSource* %0, metadata !6104, metadata !DIExpression()), !dbg !6105
  %2 = getelementptr %class.RandomSource, %class.RandomSource* %0, i64 0, i32 0, !dbg !6106
  tail call void @_ZN14InfiniteSourceD2Ev(%class.InfiniteSource* %2) #14, !dbg !6106
  %3 = bitcast %class.RandomSource* %0 to i8*, !dbg !6106
  tail call void @_ZdlPv(i8* %3) #16, !dbg !6106
  ret void, !dbg !6106
}

declare void @_ZN7Element4pushEiP6Packet(%class.Element*, i32, %class.Packet*) unnamed_addr #2

declare %class.Packet* @_ZN7Element13simple_actionEP6Packet(%class.Element*, %class.Packet*) unnamed_addr #2

declare void @_ZN7Element9run_timerEP5Timer(%class.Element*, %class.Timer*) unnamed_addr #2

declare void @_ZN7Element8selectedEii(%class.Element*, i32, i32) unnamed_addr #2

declare void @_ZN7Element8selectedEi(%class.Element*, i32) unnamed_addr #2

; Function Attrs: nounwind sspstrong uwtable
define linkonce_odr dso_local i8* @_ZNK12RandomSource10class_nameEv(%class.RandomSource* %0) unnamed_addr #9 comdat align 2 !dbg !6107 {
  call void @llvm.dbg.value(metadata %class.RandomSource* %0, metadata !6109, metadata !DIExpression()), !dbg !6111
  ret i8* getelementptr inbounds ([13 x i8], [13 x i8]* @.str.24, i64 0, i64 0), !dbg !6112
}

; Function Attrs: nounwind sspstrong uwtable
define linkonce_odr dso_local i8* @_ZNK14InfiniteSource10port_countEv(%class.InfiniteSource* %0) unnamed_addr #9 comdat align 2 !dbg !6113 {
  call void @llvm.dbg.value(metadata %class.InfiniteSource* %0, metadata !6120, metadata !DIExpression()), !dbg !6122
  ret i8* getelementptr inbounds ([0 x i8], [0 x i8]* @_ZN7Element9PORTS_0_1E, i64 0, i64 0), !dbg !6123
}

declare i8* @_ZNK7Element10processingEv(%class.Element*) unnamed_addr #2

declare i8* @_ZNK7Element9flow_codeEv(%class.Element*) unnamed_addr #2

; Function Attrs: nounwind sspstrong uwtable
define linkonce_odr dso_local i8* @_ZNK14InfiniteSource5flagsEv(%class.InfiniteSource* %0) unnamed_addr #9 comdat align 2 !dbg !6124 {
  call void @llvm.dbg.value(metadata %class.InfiniteSource* %0, metadata !6127, metadata !DIExpression()), !dbg !6128
  ret i8* getelementptr inbounds ([3 x i8], [3 x i8]* @.str.25, i64 0, i64 0), !dbg !6129
}

declare i8* @_ZN14InfiniteSource4castEPKc(%class.InfiniteSource*, i8*) unnamed_addr #2

declare i8* @_ZN7Element9port_castEbiPKc(%class.Element*, i1 zeroext, i32, i8*) unnamed_addr #2

declare i32 @_ZNK7Element15configure_phaseEv(%class.Element*) unnamed_addr #2

declare i32 @_ZN14InfiniteSource10initializeEP12ErrorHandler(%class.InfiniteSource*, %class.ErrorHandler*) unnamed_addr #2

declare void @_ZN7Element10take_stateEPS_P12ErrorHandler(%class.Element*, %class.Element*, %class.ErrorHandler*) unnamed_addr #2

declare %class.Element* @_ZNK7Element15hotswap_elementEv(%class.Element*) unnamed_addr #2

declare void @_ZN14InfiniteSource7cleanupEN7Element12CleanupStageE(%class.InfiniteSource*, i32) unnamed_addr #2

declare void @_ZNK7Element11declarationEv(%class.String* sret, %class.Element*) unnamed_addr #2

; Function Attrs: nounwind sspstrong uwtable
define linkonce_odr dso_local zeroext i1 @_ZNK14InfiniteSource20can_live_reconfigureEv(%class.InfiniteSource* %0) unnamed_addr #9 comdat align 2 !dbg !6130 {
  call void @llvm.dbg.value(metadata %class.InfiniteSource* %0, metadata !6135, metadata !DIExpression()), !dbg !6136
  ret i1 true, !dbg !6137
}

declare i32 @_ZN7Element16live_reconfigureER6VectorI6StringEP12ErrorHandler(%class.Element*, %class.Vector.0* dereferenceable(16), %class.ErrorHandler*) unnamed_addr #2

declare i32 @_ZN7Element5llrpcEjPv(%class.Element*, i32, i8*) unnamed_addr #2

; Function Attrs: inlinehint nounwind sspstrong uwtable
define linkonce_odr dso_local void @_ZThn112_N12RandomSourceD1Ev(%class.RandomSource* %0) unnamed_addr #8 comdat align 2 !dbg !6138 {
  %2 = getelementptr inbounds %class.RandomSource, %class.RandomSource* %0, i64 -1, i32 0, i32 9, i32 0, i32 1, !dbg !6140
  %3 = bitcast %struct.TaskLink** %2 to %class.InfiniteSource*, !dbg !6140
  tail call void @_ZN14InfiniteSourceD2Ev(%class.InfiniteSource* nonnull %3) #14, !dbg !6140
  ret void, !dbg !6140
}

; Function Attrs: inlinehint nounwind sspstrong uwtable
define linkonce_odr dso_local void @_ZThn112_N12RandomSourceD0Ev(%class.RandomSource* %0) unnamed_addr #8 comdat align 2 !dbg !6141 {
  %2 = getelementptr inbounds %class.RandomSource, %class.RandomSource* %0, i64 -1, i32 0, i32 9, i32 0, i32 1, !dbg !6142
  call void @llvm.dbg.value(metadata %struct.TaskLink** %2, metadata !6104, metadata !DIExpression()) #14, !dbg !6143
  %3 = bitcast %struct.TaskLink** %2 to %class.InfiniteSource*, !dbg !6145
  tail call void @_ZN14InfiniteSourceD2Ev(%class.InfiniteSource* nonnull %3) #14, !dbg !6145
  %4 = bitcast %struct.TaskLink** %2 to i8*, !dbg !6145
  tail call void @_ZdlPv(i8* nonnull %4) #16, !dbg !6145
  ret void, !dbg !6142
}

declare i32 @_ZN14ActiveNotifier21add_activate_callbackEPFvPvP8NotifierES0_(%class.ActiveNotifier*, void (i8*, %class.Notifier*)*, i8*) unnamed_addr #2

declare void @_ZN14ActiveNotifier24remove_activate_callbackEPFvPvP8NotifierES0_(%class.ActiveNotifier*, void (i8*, %class.Notifier*)*, i8*) unnamed_addr #2

; Function Attrs: nounwind sspstrong uwtable
define linkonce_odr dso_local zeroext i1 @_ZNK11HandlerCall5emptyEv(%class.HandlerCall* %0) #9 comdat align 2 !dbg !6146 {
  call void @llvm.dbg.value(metadata %class.HandlerCall* %0, metadata !6148, metadata !DIExpression()), !dbg !6149
  %2 = getelementptr inbounds %class.HandlerCall, %class.HandlerCall* %0, i64 0, i32 1, !dbg !6150
  %3 = load %class.Handler*, %class.Handler** %2, align 8, !dbg !6150, !tbaa !5159
  %4 = load %class.Handler*, %class.Handler** @_ZN7Handler17the_blank_handlerE, align 8, !dbg !6151, !tbaa !5158
  %5 = icmp eq %class.Handler* %3, %4, !dbg !6153
  br i1 %5, label %6, label %10, !dbg !6154

6:                                                ; preds = %1
  %7 = getelementptr inbounds %class.HandlerCall, %class.HandlerCall* %0, i64 0, i32 0, !dbg !6155
  %8 = load %class.Element*, %class.Element** %7, align 8, !dbg !6155, !tbaa !5150
  %9 = icmp eq %class.Element* %8, null, !dbg !6155
  br label %10

10:                                               ; preds = %6, %1
  %11 = phi i1 [ false, %1 ], [ %9, %6 ], !dbg !6149
  ret i1 %11, !dbg !6156
}

; Function Attrs: argmemonly nounwind willreturn
declare void @llvm.memcpy.p0i8.p0i8.i64(i8* noalias nocapture writeonly, i8* noalias nocapture readonly, i64, i1 immarg) #3

; Function Attrs: noinline noreturn nounwind
define linkonce_odr hidden void @__clang_call_terminate(i8* %0) local_unnamed_addr #10 comdat {
  %2 = tail call i8* @__cxa_begin_catch(i8* %0) #14
  tail call void @_ZSt9terminatev() #15
  unreachable
}

declare i8* @__cxa_begin_catch(i8*) local_unnamed_addr

declare void @_ZSt9terminatev() local_unnamed_addr

; Function Attrs: noreturn nounwind
declare void @__assert_fail(i8*, i8*, i32, i8*) local_unnamed_addr #11

declare void @_ZN6String11delete_memoEPNS_6memo_tE(%"struct.String::memo_t"*) local_unnamed_addr #2

; Function Attrs: inlinehint sspstrong uwtable
define linkonce_odr dso_local zeroext i1 @_ZNK14NotifierSignal6activeEv(%class.NotifierSignal* %0) #12 comdat align 2 !dbg !5557 {
  call void @llvm.dbg.value(metadata %class.NotifierSignal* %0, metadata !5556, metadata !DIExpression()), !dbg !6157
  tail call void asm sideeffect "", "~{memory},~{dirflag},~{fpsr},~{flags}"() #14, !dbg !6158, !srcloc !5571
  %2 = getelementptr inbounds %class.NotifierSignal, %class.NotifierSignal* %0, i64 0, i32 1, !dbg !6161
  %3 = load i32, i32* %2, align 8, !dbg !6161, !tbaa !5573
  %4 = icmp eq i32 %3, 0, !dbg !6161
  br i1 %4, label %12, label %5, !dbg !6162, !prof !5575, !misexpect !5576

5:                                                ; preds = %1
  %6 = getelementptr inbounds %class.NotifierSignal, %class.NotifierSignal* %0, i64 0, i32 0, i32 0, !dbg !6163
  %7 = load %class.atomic_uint32_t*, %class.atomic_uint32_t** %6, align 8, !dbg !6163, !tbaa !5578
  call void @llvm.dbg.value(metadata %class.atomic_uint32_t* %7, metadata !5592, metadata !DIExpression()), !dbg !6164
  call void @llvm.dbg.value(metadata %class.atomic_uint32_t* %7, metadata !5597, metadata !DIExpression()), !dbg !6166
  %8 = getelementptr inbounds %class.atomic_uint32_t, %class.atomic_uint32_t* %7, i64 0, i32 0, !dbg !6168
  %9 = load i32, i32* %8, align 4, !dbg !6168, !tbaa !5603
  %10 = and i32 %9, %3, !dbg !6169
  %11 = icmp ne i32 %10, 0, !dbg !6170
  ret i1 %11, !dbg !6171

12:                                               ; preds = %1
  %13 = bitcast %class.NotifierSignal* %0 to %"struct.NotifierSignal::vmpair"**, !dbg !6172
  %14 = load %"struct.NotifierSignal::vmpair"*, %"struct.NotifierSignal::vmpair"** %13, align 8, !dbg !6172, !tbaa !5578
  call void @llvm.dbg.value(metadata %"struct.NotifierSignal::vmpair"* %14, metadata !5559, metadata !DIExpression()), !dbg !6173
  %15 = getelementptr inbounds %"struct.NotifierSignal::vmpair", %"struct.NotifierSignal::vmpair"* %14, i64 0, i32 1, !dbg !6174
  %16 = load i32, i32* %15, align 8, !dbg !6174, !tbaa !5582
  %17 = icmp eq i32 %16, 0, !dbg !6175
  br i1 %17, label %32, label %23, !dbg !6176

18:                                               ; preds = %23
  %19 = getelementptr inbounds %"struct.NotifierSignal::vmpair", %"struct.NotifierSignal::vmpair"* %25, i64 1, !dbg !6177
  call void @llvm.dbg.value(metadata %"struct.NotifierSignal::vmpair"* %19, metadata !5559, metadata !DIExpression()), !dbg !6173
  call void @llvm.dbg.value(metadata %"struct.NotifierSignal::vmpair"* %19, metadata !5559, metadata !DIExpression()), !dbg !6173
  %20 = getelementptr inbounds %"struct.NotifierSignal::vmpair", %"struct.NotifierSignal::vmpair"* %25, i64 1, i32 1, !dbg !6174
  %21 = load i32, i32* %20, align 8, !dbg !6174, !tbaa !5582
  %22 = icmp eq i32 %21, 0, !dbg !6175
  br i1 %22, label %32, label %23, !dbg !6176, !llvm.loop !6178

23:                                               ; preds = %12, %18
  %24 = phi i32 [ %21, %18 ], [ %16, %12 ]
  %25 = phi %"struct.NotifierSignal::vmpair"* [ %19, %18 ], [ %14, %12 ]
  call void @llvm.dbg.value(metadata %"struct.NotifierSignal::vmpair"* %25, metadata !5559, metadata !DIExpression()), !dbg !6173
  %26 = getelementptr inbounds %"struct.NotifierSignal::vmpair", %"struct.NotifierSignal::vmpair"* %25, i64 0, i32 0, !dbg !6180
  %27 = load %class.atomic_uint32_t*, %class.atomic_uint32_t** %26, align 8, !dbg !6180, !tbaa !5591
  call void @llvm.dbg.value(metadata %class.atomic_uint32_t* %27, metadata !5592, metadata !DIExpression()), !dbg !6181
  call void @llvm.dbg.value(metadata %class.atomic_uint32_t* %27, metadata !5597, metadata !DIExpression()), !dbg !6183
  %28 = getelementptr inbounds %class.atomic_uint32_t, %class.atomic_uint32_t* %27, i64 0, i32 0, !dbg !6185
  %29 = load i32, i32* %28, align 4, !dbg !6185, !tbaa !5603
  %30 = and i32 %29, %24, !dbg !6186
  %31 = icmp eq i32 %30, 0, !dbg !6187
  call void @llvm.dbg.value(metadata %"struct.NotifierSignal::vmpair"* %25, metadata !5559, metadata !DIExpression(DW_OP_plus_uconst, 16, DW_OP_stack_value)), !dbg !6173
  br i1 %31, label %18, label %32, !dbg !6188

32:                                               ; preds = %23, %18, %12
  %33 = phi i1 [ false, %12 ], [ false, %18 ], [ true, %23 ]
  ret i1 %33
}

; Function Attrs: noinline nounwind optnone sspstrong uwtable
define linkonce_odr dso_local dereferenceable(16) %"class.Element::Port"* @_ZNK7Element4portEbi(%class.Element* %0, i1 zeroext %1, i32 %2) local_unnamed_addr #13 comdat align 2 !dbg !6189 {
  %4 = alloca %class.Element*, align 8
  %5 = alloca i8, align 1
  %6 = alloca i32, align 4
  store %class.Element* %0, %class.Element** %4, align 8, !tbaa !5158
  call void @llvm.dbg.declare(metadata %class.Element** %4, metadata !6194, metadata !DIExpression()), !dbg !6197
  %7 = zext i1 %1 to i8
  store i8 %7, i8* %5, align 1, !tbaa !5138
  call void @llvm.dbg.declare(metadata i8* %5, metadata !6195, metadata !DIExpression()), !dbg !6198
  store i32 %2, i32* %6, align 4, !tbaa !5133
  call void @llvm.dbg.declare(metadata i32* %6, metadata !6196, metadata !DIExpression()), !dbg !6199
  %8 = load %class.Element*, %class.Element** %4, align 8
  %9 = load i32, i32* %6, align 4, !dbg !6200, !tbaa !5133
  %10 = getelementptr inbounds %class.Element, %class.Element* %8, i32 0, i32 3, !dbg !6200
  %11 = load i8, i8* %5, align 1, !dbg !6200, !tbaa !5138, !range !5319
  %12 = trunc i8 %11 to i1, !dbg !6200
  %13 = zext i1 %12 to i64, !dbg !6200
  %14 = getelementptr inbounds [2 x i32], [2 x i32]* %10, i64 0, i64 %13, !dbg !6200
  %15 = load i32, i32* %14, align 4, !dbg !6200, !tbaa !5133
  %16 = icmp ult i32 %9, %15, !dbg !6200
  br i1 %16, label %17, label %18, !dbg !6200

17:                                               ; preds = %3
  br label %19, !dbg !6200

18:                                               ; preds = %3
  call void @__assert_fail(i8* getelementptr inbounds ([47 x i8], [47 x i8]* @.str.19, i64 0, i64 0), i8* getelementptr inbounds ([30 x i8], [30 x i8]* @.str.20, i64 0, i64 0), i32 437, i8* getelementptr inbounds ([52 x i8], [52 x i8]* @__PRETTY_FUNCTION__._ZNK7Element4portEbi, i64 0, i64 0)) #15, !dbg !6200
  unreachable, !dbg !6200

19:                                               ; preds = %17
  %20 = getelementptr inbounds %class.Element, %class.Element* %8, i32 0, i32 1, !dbg !6201
  %21 = load i8, i8* %5, align 1, !dbg !6202, !tbaa !5138, !range !5319
  %22 = trunc i8 %21 to i1, !dbg !6202
  %23 = zext i1 %22 to i64, !dbg !6201
  %24 = getelementptr inbounds [2 x %"class.Element::Port"*], [2 x %"class.Element::Port"*]* %20, i64 0, i64 %23, !dbg !6201
  %25 = load %"class.Element::Port"*, %"class.Element::Port"** %24, align 8, !dbg !6201, !tbaa !5158
  %26 = load i32, i32* %6, align 4, !dbg !6203, !tbaa !5133
  %27 = sext i32 %26 to i64, !dbg !6201
  %28 = getelementptr inbounds %"class.Element::Port", %"class.Element::Port"* %25, i64 %27, !dbg !6201
  ret %"class.Element::Port"* %28, !dbg !6204
}

declare i32 @_ZNK7Handler10call_writeERK6StringP7ElementP12ErrorHandler(%class.Handler*, %class.String* dereferenceable(24), %class.Element*, %class.ErrorHandler*) local_unnamed_addr #2

; Function Attrs: nounwind
declare !dbg !1465 i64 @random() local_unnamed_addr #4

declare void @_ZN9Timestamp10assign_nowEbbb(%class.Timestamp*, i1 zeroext, i1 zeroext, i1 zeroext) local_unnamed_addr #2

declare void @_ZN7Element17add_task_handlersEP4TaskP14NotifierSignaliRK6String(%class.Element*, %class.Task*, %class.NotifierSignal*, i32, %class.String* dereferenceable(24)) local_unnamed_addr #2

; Function Attrs: nounwind
declare void @_ZN4TaskD1Ev(%class.Task*) unnamed_addr #4

; Function Attrs: nounwind
declare void @_ZN14ActiveNotifierD2Ev(%class.ActiveNotifier*) unnamed_addr #4

; Function Attrs: nounwind
declare void @_ZN7ElementD2Ev(%class.Element*) unnamed_addr #4

; Function Attrs: nobuiltin nounwind
declare void @_ZdaPv(i8*) local_unnamed_addr #5

; Function Attrs: noinline optnone sspstrong uwtable
define linkonce_odr dso_local void @_Z14args_base_readIiEvP4ArgsPKciRT_(%class.Args* %0, i8* %1, i32 %2, i32* dereferenceable(4) %3) local_unnamed_addr #7 comdat !dbg !6205 {
  %5 = alloca %class.Args*, align 8
  %6 = alloca i8*, align 8
  %7 = alloca i32, align 4
  %8 = alloca i32*, align 8
  store %class.Args* %0, %class.Args** %5, align 8, !tbaa !5158
  call void @llvm.dbg.declare(metadata %class.Args** %5, metadata !6207, metadata !DIExpression()), !dbg !6211
  store i8* %1, i8** %6, align 8, !tbaa !5158
  call void @llvm.dbg.declare(metadata i8** %6, metadata !6208, metadata !DIExpression()), !dbg !6212
  store i32 %2, i32* %7, align 4, !tbaa !5133
  call void @llvm.dbg.declare(metadata i32* %7, metadata !6209, metadata !DIExpression()), !dbg !6213
  store i32* %3, i32** %8, align 8, !tbaa !5158
  call void @llvm.dbg.declare(metadata i32** %8, metadata !6210, metadata !DIExpression()), !dbg !6214
  %9 = load %class.Args*, %class.Args** %5, align 8, !dbg !6215, !tbaa !5158
  %10 = load i8*, i8** %6, align 8, !dbg !6216, !tbaa !5158
  %11 = load i32, i32* %7, align 4, !dbg !6217, !tbaa !5133
  %12 = load i32*, i32** %8, align 8, !dbg !6218, !tbaa !5158
  call void @_ZN4Args9base_readIiEEvPKciRT_(%class.Args* %9, i8* %10, i32 %11, i32* dereferenceable(4) %12), !dbg !6219
  ret void, !dbg !6220
}

; Function Attrs: sspstrong uwtable
define linkonce_odr dso_local void @_ZN4Args9base_readIiEEvPKciRT_(%class.Args* %0, i8* %1, i32 %2, i32* dereferenceable(4) %3) local_unnamed_addr #0 comdat align 2 personality i8* bitcast (i32 (...)* @__gxx_personality_v0 to i8*) !dbg !6221 {
  %5 = alloca [1 x i32], align 4
  call void @llvm.dbg.declare(metadata [1 x i32]* %5, metadata !2007, metadata !DIExpression()), !dbg !6235
  %6 = alloca i64, align 8
  %7 = alloca %"struct.Args::Slot"*, align 8
  %8 = alloca %class.String, align 8
  call void @llvm.dbg.value(metadata %class.Args* %0, metadata !6226, metadata !DIExpression()), !dbg !6266
  call void @llvm.dbg.value(metadata i8* %1, metadata !6227, metadata !DIExpression()), !dbg !6266
  call void @llvm.dbg.value(metadata i32 %2, metadata !6228, metadata !DIExpression()), !dbg !6266
  call void @llvm.dbg.value(metadata i32* %3, metadata !6229, metadata !DIExpression()), !dbg !6266
  %9 = bitcast %"struct.Args::Slot"** %7 to i8*, !dbg !6267
  call void @llvm.lifetime.start.p0i8(i64 8, i8* nonnull %9) #14, !dbg !6267
  %10 = bitcast %class.String* %8 to i8*, !dbg !6268
  call void @llvm.lifetime.start.p0i8(i64 24, i8* nonnull %10) #14, !dbg !6268
  call void @llvm.dbg.declare(metadata %class.String* %8, metadata !6231, metadata !DIExpression()), !dbg !6269
  call void @llvm.dbg.value(metadata %"struct.Args::Slot"** %7, metadata !6230, metadata !DIExpression(DW_OP_deref)), !dbg !6266
  call void @_ZN4Args4findEPKciRPNS_4SlotE(%class.String* nonnull sret %8, %class.Args* %0, i8* %1, i32 %2, %"struct.Args::Slot"** nonnull dereferenceable(8) %7), !dbg !6270
  call void @llvm.dbg.value(metadata %class.String* %8, metadata !6271, metadata !DIExpression()), !dbg !6274
  %11 = getelementptr inbounds %class.String, %class.String* %8, i64 0, i32 0, i32 1, !dbg !6276
  %12 = load i32, i32* %11, align 8, !dbg !6276, !tbaa !5179
  %13 = icmp eq i32 %12, 0, !dbg !6277
  %14 = select i1 %13, { i64, i64 } zeroinitializer, { i64, i64 } { i64 ptrtoint (i32 (%class.String*)* @_ZNK6String6lengthEv to i64), i64 0 }, !dbg !6278
  %15 = extractvalue { i64, i64 } %14, 0, !dbg !6269
  %16 = icmp eq i64 %15, 0, !dbg !6269
  br i1 %16, label %77, label %17, !dbg !6268

17:                                               ; preds = %4
  call void @llvm.dbg.value(metadata i32* %3, metadata !6279, metadata !DIExpression()), !dbg !6286
  call void @llvm.dbg.value(metadata %class.Args* %0, metadata !6285, metadata !DIExpression()), !dbg !6286
  call void @llvm.dbg.value(metadata %class.Args* %0, metadata !6288, metadata !DIExpression()), !dbg !6295
  call void @llvm.dbg.value(metadata i32* %3, metadata !6294, metadata !DIExpression()), !dbg !6295
  %18 = bitcast i32* %3 to i8*, !dbg !6297
  %19 = invoke i8* @_ZN4Args11simple_slotEPvm(%class.Args* nonnull %0, i8* nonnull %18, i64 4)
          to label %20 unwind label %57, !dbg !6299

20:                                               ; preds = %17
  %21 = bitcast i8* %19 to i32*, !dbg !6300
  call void @llvm.dbg.value(metadata i32* %21, metadata !6233, metadata !DIExpression()), !dbg !6301
  %22 = icmp eq i8* %19, null, !dbg !6302
  br i1 %22, label %54, label %23, !dbg !6303

23:                                               ; preds = %20
  %24 = bitcast i64* %6 to i8*, !dbg !6304
  call void @llvm.lifetime.start.p0i8(i64 8, i8* nonnull %24), !dbg !6304
  call void @llvm.dbg.value(metadata i64 0, metadata !6261, metadata !DIExpression()), !dbg !6304
  store i64 0, i64* %6, align 8
  call void @llvm.dbg.value(metadata %class.String* %8, metadata !6262, metadata !DIExpression()), !dbg !6304
  call void @llvm.dbg.value(metadata i32* %21, metadata !6263, metadata !DIExpression()), !dbg !6304
  call void @llvm.dbg.value(metadata %class.Args* %0, metadata !6264, metadata !DIExpression()), !dbg !6304
  %25 = bitcast i64* %6 to %class.IntArg*, !dbg !6305
  %26 = bitcast %class.Args* %0 to %class.ArgContext*, !dbg !6306
  call void @llvm.dbg.value(metadata %class.IntArg* %25, metadata !6241, metadata !DIExpression()), !dbg !6307
  call void @llvm.dbg.value(metadata %class.String* %8, metadata !6242, metadata !DIExpression()), !dbg !6307
  call void @llvm.dbg.value(metadata i32* %21, metadata !6243, metadata !DIExpression()), !dbg !6307
  call void @llvm.dbg.value(metadata %class.ArgContext* %26, metadata !6244, metadata !DIExpression()), !dbg !6307
  call void @llvm.dbg.value(metadata %class.IntArg* %25, metadata !2000, metadata !DIExpression()), !dbg !6308
  call void @llvm.dbg.value(metadata %class.String* %8, metadata !2002, metadata !DIExpression()), !dbg !6308
  call void @llvm.dbg.value(metadata %class.ArgContext* %26, metadata !2004, metadata !DIExpression()), !dbg !6308
  call void @llvm.dbg.value(metadata i8 1, metadata !2005, metadata !DIExpression()), !dbg !6308
  call void @llvm.dbg.value(metadata i32 1, metadata !2006, metadata !DIExpression()), !dbg !6308
  %27 = bitcast [1 x i32]* %5 to i8*, !dbg !6309
  call void @llvm.lifetime.start.p0i8(i64 4, i8* nonnull %27) #14, !dbg !6309
  call void @llvm.dbg.value(metadata %class.String* %8, metadata !6310, metadata !DIExpression()), !dbg !6313
  %28 = getelementptr inbounds %class.String, %class.String* %8, i64 0, i32 0, i32 0, !dbg !6316
  %29 = load i8*, i8** %28, align 8, !dbg !6316, !tbaa !5176
  call void @llvm.dbg.value(metadata %class.String* %8, metadata !6317, metadata !DIExpression()), !dbg !6320
  %30 = load i32, i32* %11, align 8, !dbg !6322, !tbaa !5179
  %31 = sext i32 %30 to i64, !dbg !6323
  %32 = getelementptr inbounds i8, i8* %29, i64 %31, !dbg !6323
  %33 = getelementptr inbounds [1 x i32], [1 x i32]* %5, i64 0, i64 0, !dbg !6324
  call void @llvm.dbg.value(metadata i64* %6, metadata !6261, metadata !DIExpression(DW_OP_deref)), !dbg !6304
  %34 = invoke i8* @_ZN6IntArg5parseEPKcS1_biPji(%class.IntArg* nonnull %25, i8* %29, i8* %32, i1 zeroext true, i32 4, i32* nonnull %33, i32 1)
          to label %35 unwind label %57, !dbg !6325

35:                                               ; preds = %23
  call void @llvm.dbg.value(metadata %class.String* %8, metadata !6317, metadata !DIExpression()), !dbg !6326
  %36 = load i8*, i8** %28, align 8, !dbg !6328, !tbaa !5176
  %37 = load i32, i32* %11, align 8, !dbg !6329, !tbaa !5179
  %38 = sext i32 %37 to i64, !dbg !6330
  %39 = getelementptr inbounds i8, i8* %36, i64 %38, !dbg !6330
  %40 = icmp eq i8* %34, %39, !dbg !6331
  %41 = getelementptr inbounds %class.IntArg, %class.IntArg* %25, i64 0, i32 1, !dbg !6308
  br i1 %40, label %43, label %42, !dbg !6332

42:                                               ; preds = %35
  store i32 22, i32* %41, align 4, !dbg !6333, !tbaa !6334
  br label %45, !dbg !6336

43:                                               ; preds = %35
  %44 = load i32, i32* %41, align 4, !dbg !6338, !tbaa !6334
  switch i32 %44, label %45 [
    i32 0, label %47
    i32 34, label %47
  ], !dbg !6336

45:                                               ; preds = %43, %42
  invoke void (%class.ArgContext*, i8*, ...) @_ZNK10ArgContext5errorEPKcz(%class.ArgContext* nonnull %26, i8* getelementptr inbounds ([15 x i8], [15 x i8]* @.str.26, i64 0, i64 0))
          to label %46 unwind label %57, !dbg !6339

46:                                               ; preds = %45
  call void @llvm.lifetime.end.p0i8(i64 4, i8* nonnull %27) #14, !dbg !6341
  br label %52, !dbg !6342

47:                                               ; preds = %43, %43
  call void @llvm.dbg.value(metadata i32* %33, metadata !6343, metadata !DIExpression()), !dbg !6352
  call void @llvm.dbg.value(metadata i32* %33, metadata !6354, metadata !DIExpression()), !dbg !6363
  %48 = load i32, i32* %33, align 4, !dbg !6365, !tbaa !5133
  call void @llvm.lifetime.end.p0i8(i64 4, i8* nonnull %27) #14, !dbg !6341
  switch i32 %44, label %52 [
    i32 34, label %49
    i32 0, label %51
  ], !dbg !6366

49:                                               ; preds = %47
  %50 = sext i32 %48 to i64, !dbg !6367
  call void @llvm.dbg.value(metadata i64* %6, metadata !6261, metadata !DIExpression(DW_OP_deref)), !dbg !6304
  invoke void @_ZN6IntArg11range_errorERK10ArgContextbx(%class.IntArg* nonnull %25, %class.ArgContext* nonnull dereferenceable(32) %26, i1 zeroext true, i64 %50)
          to label %52 unwind label %57, !dbg !6370

51:                                               ; preds = %47
  store i32 %48, i32* %21, align 4, !dbg !6371, !tbaa !5133
  br label %52, !dbg !6373

52:                                               ; preds = %49, %46, %47, %51
  %53 = phi i1 [ true, %51 ], [ false, %47 ], [ false, %46 ], [ false, %49 ], !dbg !6374
  call void @llvm.lifetime.end.p0i8(i64 8, i8* nonnull %24), !dbg !6375
  br label %54, !dbg !6375

54:                                               ; preds = %52, %20
  %55 = phi i1 [ false, %20 ], [ %53, %52 ], !dbg !6301
  %56 = load %"struct.Args::Slot"*, %"struct.Args::Slot"** %7, align 8, !dbg !6376, !tbaa !5158
  call void @llvm.dbg.value(metadata %"struct.Args::Slot"* %56, metadata !6230, metadata !DIExpression()), !dbg !6266
  invoke void @_ZN4Args9postparseEbPNS_4SlotE(%class.Args* nonnull %0, i1 zeroext %55, %"struct.Args::Slot"* %56)
          to label %77 unwind label %57, !dbg !6377

57:                                               ; preds = %49, %45, %23, %17, %54
  %58 = landingpad { i8*, i32 }
          cleanup, !dbg !6378
  call void @llvm.dbg.value(metadata %class.String* %8, metadata !5368, metadata !DIExpression()) #14, !dbg !6379
  call void @llvm.dbg.value(metadata %class.String* %8, metadata !5374, metadata !DIExpression()) #14, !dbg !6381
  %59 = getelementptr inbounds %class.String, %class.String* %8, i64 0, i32 0, i32 2, !dbg !6383
  %60 = load %"struct.String::memo_t"*, %"struct.String::memo_t"** %59, align 8, !dbg !6383, !tbaa !5183
  %61 = icmp eq %"struct.String::memo_t"* %60, null, !dbg !6384
  br i1 %61, label %76, label %62, !dbg !6385

62:                                               ; preds = %57
  %63 = getelementptr inbounds %"struct.String::memo_t", %"struct.String::memo_t"* %60, i64 0, i32 0, !dbg !6386
  %64 = load volatile i32, i32* %63, align 4, !dbg !6386, !tbaa !5386
  %65 = icmp eq i32 %64, 0, !dbg !6386
  br i1 %65, label %66, label %67, !dbg !6386

66:                                               ; preds = %62
  call void @__assert_fail(i8* getelementptr inbounds ([18 x i8], [18 x i8]* @.str.17, i64 0, i64 0), i8* getelementptr inbounds ([29 x i8], [29 x i8]* @.str.18, i64 0, i64 0), i32 273, i8* getelementptr inbounds ([27 x i8], [27 x i8]* @__PRETTY_FUNCTION__._ZNK6String5derefEv, i64 0, i64 0)) #15, !dbg !6386
  unreachable, !dbg !6386

67:                                               ; preds = %62
  call void @llvm.dbg.value(metadata i32* %63, metadata !5388, metadata !DIExpression()) #14, !dbg !6387
  %68 = load volatile i32, i32* %63, align 4, !dbg !6389, !tbaa !5133
  %69 = add i32 %68, -1, !dbg !6389
  store volatile i32 %69, i32* %63, align 4, !dbg !6389, !tbaa !5133
  %70 = icmp eq i32 %69, 0, !dbg !6390
  br i1 %70, label %71, label %72, !dbg !6391

71:                                               ; preds = %67
  invoke void @_ZN6String11delete_memoEPNS_6memo_tE(%"struct.String::memo_t"* nonnull %60)
          to label %72 unwind label %73, !dbg !6392

72:                                               ; preds = %71, %67
  store %"struct.String::memo_t"* null, %"struct.String::memo_t"** %59, align 8, !dbg !6393, !tbaa !5183
  br label %76, !dbg !6394

73:                                               ; preds = %71
  %74 = landingpad { i8*, i32 }
          catch i8* null, !dbg !6395
  %75 = extractvalue { i8*, i32 } %74, 0, !dbg !6395
  call void @__clang_call_terminate(i8* %75) #15, !dbg !6395
  unreachable, !dbg !6395

76:                                               ; preds = %57, %72
  call void @llvm.lifetime.end.p0i8(i64 24, i8* nonnull %10) #14, !dbg !6268
  call void @llvm.lifetime.end.p0i8(i64 8, i8* nonnull %9) #14, !dbg !6396
  resume { i8*, i32 } %58, !dbg !6396

77:                                               ; preds = %54, %4
  call void @llvm.dbg.value(metadata %class.String* %8, metadata !5368, metadata !DIExpression()) #14, !dbg !6397
  call void @llvm.dbg.value(metadata %class.String* %8, metadata !5374, metadata !DIExpression()) #14, !dbg !6399
  %78 = getelementptr inbounds %class.String, %class.String* %8, i64 0, i32 0, i32 2, !dbg !6401
  %79 = load %"struct.String::memo_t"*, %"struct.String::memo_t"** %78, align 8, !dbg !6401, !tbaa !5183
  %80 = icmp eq %"struct.String::memo_t"* %79, null, !dbg !6402
  br i1 %80, label %95, label %81, !dbg !6403

81:                                               ; preds = %77
  %82 = getelementptr inbounds %"struct.String::memo_t", %"struct.String::memo_t"* %79, i64 0, i32 0, !dbg !6404
  %83 = load volatile i32, i32* %82, align 4, !dbg !6404, !tbaa !5386
  %84 = icmp eq i32 %83, 0, !dbg !6404
  br i1 %84, label %85, label %86, !dbg !6404

85:                                               ; preds = %81
  call void @__assert_fail(i8* getelementptr inbounds ([18 x i8], [18 x i8]* @.str.17, i64 0, i64 0), i8* getelementptr inbounds ([29 x i8], [29 x i8]* @.str.18, i64 0, i64 0), i32 273, i8* getelementptr inbounds ([27 x i8], [27 x i8]* @__PRETTY_FUNCTION__._ZNK6String5derefEv, i64 0, i64 0)) #15, !dbg !6404
  unreachable, !dbg !6404

86:                                               ; preds = %81
  call void @llvm.dbg.value(metadata i32* %82, metadata !5388, metadata !DIExpression()) #14, !dbg !6405
  %87 = load volatile i32, i32* %82, align 4, !dbg !6407, !tbaa !5133
  %88 = add i32 %87, -1, !dbg !6407
  store volatile i32 %88, i32* %82, align 4, !dbg !6407, !tbaa !5133
  %89 = icmp eq i32 %88, 0, !dbg !6408
  br i1 %89, label %90, label %91, !dbg !6409

90:                                               ; preds = %86
  invoke void @_ZN6String11delete_memoEPNS_6memo_tE(%"struct.String::memo_t"* nonnull %79)
          to label %91 unwind label %92, !dbg !6410

91:                                               ; preds = %90, %86
  store %"struct.String::memo_t"* null, %"struct.String::memo_t"** %78, align 8, !dbg !6411, !tbaa !5183
  br label %95, !dbg !6412

92:                                               ; preds = %90
  %93 = landingpad { i8*, i32 }
          catch i8* null, !dbg !6413
  %94 = extractvalue { i8*, i32 } %93, 0, !dbg !6413
  call void @__clang_call_terminate(i8* %94) #15, !dbg !6413
  unreachable, !dbg !6413

95:                                               ; preds = %77, %91
  call void @llvm.lifetime.end.p0i8(i64 24, i8* nonnull %10) #14, !dbg !6268
  call void @llvm.lifetime.end.p0i8(i64 8, i8* nonnull %9) #14, !dbg !6396
  ret void, !dbg !6396
}

declare void @_ZN4Args4findEPKciRPNS_4SlotE(%class.String* sret, %class.Args*, i8*, i32, %"struct.Args::Slot"** dereferenceable(8)) local_unnamed_addr #2

declare void @_ZN4Args9postparseEbPNS_4SlotE(%class.Args*, i1 zeroext, %"struct.Args::Slot"*) local_unnamed_addr #2

; Function Attrs: inlinehint nounwind sspstrong uwtable
define linkonce_odr dso_local i32 @_ZNK6String6lengthEv(%class.String* %0) #8 comdat align 2 !dbg !6414 {
  call void @llvm.dbg.value(metadata %class.String* %0, metadata !6416, metadata !DIExpression()), !dbg !6417
  %2 = getelementptr inbounds %class.String, %class.String* %0, i64 0, i32 0, i32 1, !dbg !6418
  %3 = load i32, i32* %2, align 8, !dbg !6418, !tbaa !5179
  ret i32 %3, !dbg !6419
}

declare i8* @_ZN4Args11simple_slotEPvm(%class.Args*, i8*, i64) local_unnamed_addr #2

declare void @_ZN6IntArg11range_errorERK10ArgContextbx(%class.IntArg*, %class.ArgContext* dereferenceable(32), i1 zeroext, i64) local_unnamed_addr #2

declare i8* @_ZN6IntArg5parseEPKcS1_biPji(%class.IntArg*, i8*, i8*, i1 zeroext, i32, i32*, i32) local_unnamed_addr #2

declare void @_ZNK10ArgContext5errorEPKcz(%class.ArgContext*, i8*, ...) local_unnamed_addr #2

; Function Attrs: noinline optnone sspstrong uwtable
define linkonce_odr dso_local void @_Z14args_base_readIlEvP4ArgsPKciRT_(%class.Args* %0, i8* %1, i32 %2, i64* dereferenceable(8) %3) local_unnamed_addr #7 comdat !dbg !6420 {
  %5 = alloca %class.Args*, align 8
  %6 = alloca i8*, align 8
  %7 = alloca i32, align 4
  %8 = alloca i64*, align 8
  store %class.Args* %0, %class.Args** %5, align 8, !tbaa !5158
  call void @llvm.dbg.declare(metadata %class.Args** %5, metadata !6422, metadata !DIExpression()), !dbg !6426
  store i8* %1, i8** %6, align 8, !tbaa !5158
  call void @llvm.dbg.declare(metadata i8** %6, metadata !6423, metadata !DIExpression()), !dbg !6427
  store i32 %2, i32* %7, align 4, !tbaa !5133
  call void @llvm.dbg.declare(metadata i32* %7, metadata !6424, metadata !DIExpression()), !dbg !6428
  store i64* %3, i64** %8, align 8, !tbaa !5158
  call void @llvm.dbg.declare(metadata i64** %8, metadata !6425, metadata !DIExpression()), !dbg !6429
  %9 = load %class.Args*, %class.Args** %5, align 8, !dbg !6430, !tbaa !5158
  %10 = load i8*, i8** %6, align 8, !dbg !6431, !tbaa !5158
  %11 = load i32, i32* %7, align 4, !dbg !6432, !tbaa !5133
  %12 = load i64*, i64** %8, align 8, !dbg !6433, !tbaa !5158
  call void @_ZN4Args9base_readIlEEvPKciRT_(%class.Args* %9, i8* %10, i32 %11, i64* dereferenceable(8) %12), !dbg !6434
  ret void, !dbg !6435
}

; Function Attrs: sspstrong uwtable
define linkonce_odr dso_local void @_ZN4Args9base_readIlEEvPKciRT_(%class.Args* %0, i8* %1, i32 %2, i64* dereferenceable(8) %3) local_unnamed_addr #0 comdat align 2 personality i8* bitcast (i32 (...)* @__gxx_personality_v0 to i8*) !dbg !6436 {
  %5 = alloca [2 x i32], align 4
  call void @llvm.dbg.declare(metadata [2 x i32]* %5, metadata !2046, metadata !DIExpression()), !dbg !6450
  %6 = alloca i64, align 8
  %7 = alloca %"struct.Args::Slot"*, align 8
  %8 = alloca %class.String, align 8
  call void @llvm.dbg.value(metadata %class.Args* %0, metadata !6441, metadata !DIExpression()), !dbg !6479
  call void @llvm.dbg.value(metadata i8* %1, metadata !6442, metadata !DIExpression()), !dbg !6479
  call void @llvm.dbg.value(metadata i32 %2, metadata !6443, metadata !DIExpression()), !dbg !6479
  call void @llvm.dbg.value(metadata i64* %3, metadata !6444, metadata !DIExpression()), !dbg !6479
  %9 = bitcast %"struct.Args::Slot"** %7 to i8*, !dbg !6480
  call void @llvm.lifetime.start.p0i8(i64 8, i8* nonnull %9) #14, !dbg !6480
  %10 = bitcast %class.String* %8 to i8*, !dbg !6481
  call void @llvm.lifetime.start.p0i8(i64 24, i8* nonnull %10) #14, !dbg !6481
  call void @llvm.dbg.declare(metadata %class.String* %8, metadata !6446, metadata !DIExpression()), !dbg !6482
  call void @llvm.dbg.value(metadata %"struct.Args::Slot"** %7, metadata !6445, metadata !DIExpression(DW_OP_deref)), !dbg !6479
  call void @_ZN4Args4findEPKciRPNS_4SlotE(%class.String* nonnull sret %8, %class.Args* %0, i8* %1, i32 %2, %"struct.Args::Slot"** nonnull dereferenceable(8) %7), !dbg !6483
  call void @llvm.dbg.value(metadata %class.String* %8, metadata !6271, metadata !DIExpression()), !dbg !6484
  %11 = getelementptr inbounds %class.String, %class.String* %8, i64 0, i32 0, i32 1, !dbg !6486
  %12 = load i32, i32* %11, align 8, !dbg !6486, !tbaa !5179
  %13 = icmp eq i32 %12, 0, !dbg !6487
  %14 = select i1 %13, { i64, i64 } zeroinitializer, { i64, i64 } { i64 ptrtoint (i32 (%class.String*)* @_ZNK6String6lengthEv to i64), i64 0 }, !dbg !6488
  %15 = extractvalue { i64, i64 } %14, 0, !dbg !6482
  %16 = icmp eq i64 %15, 0, !dbg !6482
  br i1 %16, label %82, label %17, !dbg !6481

17:                                               ; preds = %4
  call void @llvm.dbg.value(metadata i64* %3, metadata !6489, metadata !DIExpression()), !dbg !6496
  call void @llvm.dbg.value(metadata %class.Args* %0, metadata !6495, metadata !DIExpression()), !dbg !6496
  call void @llvm.dbg.value(metadata %class.Args* %0, metadata !6498, metadata !DIExpression()), !dbg !6505
  call void @llvm.dbg.value(metadata i64* %3, metadata !6504, metadata !DIExpression()), !dbg !6505
  %18 = bitcast i64* %3 to i8*, !dbg !6507
  %19 = invoke i8* @_ZN4Args11simple_slotEPvm(%class.Args* nonnull %0, i8* nonnull %18, i64 8)
          to label %20 unwind label %62, !dbg !6509

20:                                               ; preds = %17
  %21 = bitcast i8* %19 to i64*, !dbg !6510
  call void @llvm.dbg.value(metadata i64* %21, metadata !6448, metadata !DIExpression()), !dbg !6511
  %22 = icmp eq i8* %19, null, !dbg !6512
  br i1 %22, label %59, label %23, !dbg !6513

23:                                               ; preds = %20
  %24 = bitcast i64* %6 to i8*, !dbg !6514
  call void @llvm.lifetime.start.p0i8(i64 8, i8* nonnull %24), !dbg !6514
  call void @llvm.dbg.value(metadata i64 0, metadata !6474, metadata !DIExpression()), !dbg !6514
  store i64 0, i64* %6, align 8
  call void @llvm.dbg.value(metadata %class.String* %8, metadata !6475, metadata !DIExpression()), !dbg !6514
  call void @llvm.dbg.value(metadata i64* %21, metadata !6476, metadata !DIExpression()), !dbg !6514
  call void @llvm.dbg.value(metadata %class.Args* %0, metadata !6477, metadata !DIExpression()), !dbg !6514
  %25 = bitcast i64* %6 to %class.IntArg*, !dbg !6515
  %26 = bitcast %class.Args* %0 to %class.ArgContext*, !dbg !6516
  call void @llvm.dbg.value(metadata %class.IntArg* %25, metadata !6456, metadata !DIExpression()), !dbg !6517
  call void @llvm.dbg.value(metadata %class.String* %8, metadata !6457, metadata !DIExpression()), !dbg !6517
  call void @llvm.dbg.value(metadata i64* %21, metadata !6458, metadata !DIExpression()), !dbg !6517
  call void @llvm.dbg.value(metadata %class.ArgContext* %26, metadata !6459, metadata !DIExpression()), !dbg !6517
  call void @llvm.dbg.value(metadata %class.IntArg* %25, metadata !2040, metadata !DIExpression()), !dbg !6518
  call void @llvm.dbg.value(metadata %class.String* %8, metadata !2041, metadata !DIExpression()), !dbg !6518
  call void @llvm.dbg.value(metadata %class.ArgContext* %26, metadata !2043, metadata !DIExpression()), !dbg !6518
  call void @llvm.dbg.value(metadata i8 1, metadata !2044, metadata !DIExpression()), !dbg !6518
  call void @llvm.dbg.value(metadata i32 2, metadata !2045, metadata !DIExpression()), !dbg !6518
  %27 = bitcast [2 x i32]* %5 to i8*, !dbg !6519
  call void @llvm.lifetime.start.p0i8(i64 8, i8* nonnull %27) #14, !dbg !6519
  call void @llvm.dbg.value(metadata %class.String* %8, metadata !6310, metadata !DIExpression()), !dbg !6520
  %28 = getelementptr inbounds %class.String, %class.String* %8, i64 0, i32 0, i32 0, !dbg !6523
  %29 = load i8*, i8** %28, align 8, !dbg !6523, !tbaa !5176
  call void @llvm.dbg.value(metadata %class.String* %8, metadata !6317, metadata !DIExpression()), !dbg !6524
  %30 = load i32, i32* %11, align 8, !dbg !6526, !tbaa !5179
  %31 = sext i32 %30 to i64, !dbg !6527
  %32 = getelementptr inbounds i8, i8* %29, i64 %31, !dbg !6527
  %33 = getelementptr inbounds [2 x i32], [2 x i32]* %5, i64 0, i64 0, !dbg !6528
  call void @llvm.dbg.value(metadata i64* %6, metadata !6474, metadata !DIExpression(DW_OP_deref)), !dbg !6514
  %34 = invoke i8* @_ZN6IntArg5parseEPKcS1_biPji(%class.IntArg* nonnull %25, i8* %29, i8* %32, i1 zeroext true, i32 8, i32* nonnull %33, i32 2)
          to label %35 unwind label %62, !dbg !6529

35:                                               ; preds = %23
  call void @llvm.dbg.value(metadata %class.String* %8, metadata !6317, metadata !DIExpression()), !dbg !6530
  %36 = load i8*, i8** %28, align 8, !dbg !6532, !tbaa !5176
  %37 = load i32, i32* %11, align 8, !dbg !6533, !tbaa !5179
  %38 = sext i32 %37 to i64, !dbg !6534
  %39 = getelementptr inbounds i8, i8* %36, i64 %38, !dbg !6534
  %40 = icmp eq i8* %34, %39, !dbg !6535
  %41 = getelementptr inbounds %class.IntArg, %class.IntArg* %25, i64 0, i32 1, !dbg !6518
  br i1 %40, label %43, label %42, !dbg !6536

42:                                               ; preds = %35
  store i32 22, i32* %41, align 4, !dbg !6537, !tbaa !6334
  br label %45, !dbg !6538

43:                                               ; preds = %35
  %44 = load i32, i32* %41, align 4, !dbg !6540, !tbaa !6334
  switch i32 %44, label %45 [
    i32 0, label %47
    i32 34, label %47
  ], !dbg !6538

45:                                               ; preds = %43, %42
  invoke void (%class.ArgContext*, i8*, ...) @_ZNK10ArgContext5errorEPKcz(%class.ArgContext* nonnull %26, i8* getelementptr inbounds ([15 x i8], [15 x i8]* @.str.26, i64 0, i64 0))
          to label %46 unwind label %62, !dbg !6541

46:                                               ; preds = %45
  call void @llvm.lifetime.end.p0i8(i64 8, i8* nonnull %27) #14, !dbg !6543
  br label %57, !dbg !6544

47:                                               ; preds = %43, %43
  call void @llvm.dbg.value(metadata i32* %33, metadata !6545, metadata !DIExpression()), !dbg !6554
  call void @llvm.dbg.value(metadata i32* %33, metadata !6556, metadata !DIExpression()), !dbg !6565
  %48 = getelementptr inbounds [2 x i32], [2 x i32]* %5, i64 0, i64 1, !dbg !6567
  call void @llvm.dbg.value(metadata i32* %48, metadata !6568, metadata !DIExpression()), !dbg !6576
  %49 = load i32, i32* %48, align 4, !dbg !6578, !tbaa !5133
  %50 = zext i32 %49 to i64, !dbg !6578
  %51 = shl nuw i64 %50, 32, !dbg !6579
  %52 = load i32, i32* %33, align 4, !dbg !6580, !tbaa !5133
  %53 = zext i32 %52 to i64, !dbg !6580
  %54 = or i64 %51, %53, !dbg !6581
  call void @llvm.lifetime.end.p0i8(i64 8, i8* nonnull %27) #14, !dbg !6543
  switch i32 %44, label %57 [
    i32 34, label %55
    i32 0, label %56
  ], !dbg !6582

55:                                               ; preds = %47
  call void @llvm.dbg.value(metadata i64* %6, metadata !6474, metadata !DIExpression(DW_OP_deref)), !dbg !6514
  invoke void @_ZN6IntArg11range_errorERK10ArgContextbx(%class.IntArg* nonnull %25, %class.ArgContext* nonnull dereferenceable(32) %26, i1 zeroext true, i64 %54)
          to label %57 unwind label %62, !dbg !6583

56:                                               ; preds = %47
  store i64 %54, i64* %21, align 8, !dbg !6586, !tbaa !5129
  br label %57, !dbg !6588

57:                                               ; preds = %55, %46, %47, %56
  %58 = phi i1 [ true, %56 ], [ false, %47 ], [ false, %46 ], [ false, %55 ], !dbg !6589
  call void @llvm.lifetime.end.p0i8(i64 8, i8* nonnull %24), !dbg !6590
  br label %59, !dbg !6590

59:                                               ; preds = %57, %20
  %60 = phi i1 [ false, %20 ], [ %58, %57 ], !dbg !6511
  %61 = load %"struct.Args::Slot"*, %"struct.Args::Slot"** %7, align 8, !dbg !6591, !tbaa !5158
  call void @llvm.dbg.value(metadata %"struct.Args::Slot"* %61, metadata !6445, metadata !DIExpression()), !dbg !6479
  invoke void @_ZN4Args9postparseEbPNS_4SlotE(%class.Args* nonnull %0, i1 zeroext %60, %"struct.Args::Slot"* %61)
          to label %82 unwind label %62, !dbg !6592

62:                                               ; preds = %55, %45, %23, %17, %59
  %63 = landingpad { i8*, i32 }
          cleanup, !dbg !6593
  call void @llvm.dbg.value(metadata %class.String* %8, metadata !5368, metadata !DIExpression()) #14, !dbg !6594
  call void @llvm.dbg.value(metadata %class.String* %8, metadata !5374, metadata !DIExpression()) #14, !dbg !6596
  %64 = getelementptr inbounds %class.String, %class.String* %8, i64 0, i32 0, i32 2, !dbg !6598
  %65 = load %"struct.String::memo_t"*, %"struct.String::memo_t"** %64, align 8, !dbg !6598, !tbaa !5183
  %66 = icmp eq %"struct.String::memo_t"* %65, null, !dbg !6599
  br i1 %66, label %81, label %67, !dbg !6600

67:                                               ; preds = %62
  %68 = getelementptr inbounds %"struct.String::memo_t", %"struct.String::memo_t"* %65, i64 0, i32 0, !dbg !6601
  %69 = load volatile i32, i32* %68, align 4, !dbg !6601, !tbaa !5386
  %70 = icmp eq i32 %69, 0, !dbg !6601
  br i1 %70, label %71, label %72, !dbg !6601

71:                                               ; preds = %67
  call void @__assert_fail(i8* getelementptr inbounds ([18 x i8], [18 x i8]* @.str.17, i64 0, i64 0), i8* getelementptr inbounds ([29 x i8], [29 x i8]* @.str.18, i64 0, i64 0), i32 273, i8* getelementptr inbounds ([27 x i8], [27 x i8]* @__PRETTY_FUNCTION__._ZNK6String5derefEv, i64 0, i64 0)) #15, !dbg !6601
  unreachable, !dbg !6601

72:                                               ; preds = %67
  call void @llvm.dbg.value(metadata i32* %68, metadata !5388, metadata !DIExpression()) #14, !dbg !6602
  %73 = load volatile i32, i32* %68, align 4, !dbg !6604, !tbaa !5133
  %74 = add i32 %73, -1, !dbg !6604
  store volatile i32 %74, i32* %68, align 4, !dbg !6604, !tbaa !5133
  %75 = icmp eq i32 %74, 0, !dbg !6605
  br i1 %75, label %76, label %77, !dbg !6606

76:                                               ; preds = %72
  invoke void @_ZN6String11delete_memoEPNS_6memo_tE(%"struct.String::memo_t"* nonnull %65)
          to label %77 unwind label %78, !dbg !6607

77:                                               ; preds = %76, %72
  store %"struct.String::memo_t"* null, %"struct.String::memo_t"** %64, align 8, !dbg !6608, !tbaa !5183
  br label %81, !dbg !6609

78:                                               ; preds = %76
  %79 = landingpad { i8*, i32 }
          catch i8* null, !dbg !6610
  %80 = extractvalue { i8*, i32 } %79, 0, !dbg !6610
  call void @__clang_call_terminate(i8* %80) #15, !dbg !6610
  unreachable, !dbg !6610

81:                                               ; preds = %62, %77
  call void @llvm.lifetime.end.p0i8(i64 24, i8* nonnull %10) #14, !dbg !6481
  call void @llvm.lifetime.end.p0i8(i64 8, i8* nonnull %9) #14, !dbg !6611
  resume { i8*, i32 } %63, !dbg !6611

82:                                               ; preds = %59, %4
  call void @llvm.dbg.value(metadata %class.String* %8, metadata !5368, metadata !DIExpression()) #14, !dbg !6612
  call void @llvm.dbg.value(metadata %class.String* %8, metadata !5374, metadata !DIExpression()) #14, !dbg !6614
  %83 = getelementptr inbounds %class.String, %class.String* %8, i64 0, i32 0, i32 2, !dbg !6616
  %84 = load %"struct.String::memo_t"*, %"struct.String::memo_t"** %83, align 8, !dbg !6616, !tbaa !5183
  %85 = icmp eq %"struct.String::memo_t"* %84, null, !dbg !6617
  br i1 %85, label %100, label %86, !dbg !6618

86:                                               ; preds = %82
  %87 = getelementptr inbounds %"struct.String::memo_t", %"struct.String::memo_t"* %84, i64 0, i32 0, !dbg !6619
  %88 = load volatile i32, i32* %87, align 4, !dbg !6619, !tbaa !5386
  %89 = icmp eq i32 %88, 0, !dbg !6619
  br i1 %89, label %90, label %91, !dbg !6619

90:                                               ; preds = %86
  call void @__assert_fail(i8* getelementptr inbounds ([18 x i8], [18 x i8]* @.str.17, i64 0, i64 0), i8* getelementptr inbounds ([29 x i8], [29 x i8]* @.str.18, i64 0, i64 0), i32 273, i8* getelementptr inbounds ([27 x i8], [27 x i8]* @__PRETTY_FUNCTION__._ZNK6String5derefEv, i64 0, i64 0)) #15, !dbg !6619
  unreachable, !dbg !6619

91:                                               ; preds = %86
  call void @llvm.dbg.value(metadata i32* %87, metadata !5388, metadata !DIExpression()) #14, !dbg !6620
  %92 = load volatile i32, i32* %87, align 4, !dbg !6622, !tbaa !5133
  %93 = add i32 %92, -1, !dbg !6622
  store volatile i32 %93, i32* %87, align 4, !dbg !6622, !tbaa !5133
  %94 = icmp eq i32 %93, 0, !dbg !6623
  br i1 %94, label %95, label %96, !dbg !6624

95:                                               ; preds = %91
  invoke void @_ZN6String11delete_memoEPNS_6memo_tE(%"struct.String::memo_t"* nonnull %84)
          to label %96 unwind label %97, !dbg !6625

96:                                               ; preds = %95, %91
  store %"struct.String::memo_t"* null, %"struct.String::memo_t"** %83, align 8, !dbg !6626, !tbaa !5183
  br label %100, !dbg !6627

97:                                               ; preds = %95
  %98 = landingpad { i8*, i32 }
          catch i8* null, !dbg !6628
  %99 = extractvalue { i8*, i32 } %98, 0, !dbg !6628
  call void @__clang_call_terminate(i8* %99) #15, !dbg !6628
  unreachable, !dbg !6628

100:                                              ; preds = %82, %96
  call void @llvm.lifetime.end.p0i8(i64 24, i8* nonnull %10) #14, !dbg !6481
  call void @llvm.lifetime.end.p0i8(i64 8, i8* nonnull %9) #14, !dbg !6611
  ret void, !dbg !6611
}

; Function Attrs: noinline optnone sspstrong uwtable
define linkonce_odr dso_local void @_Z14args_base_readIbEvP4ArgsPKciRT_(%class.Args* %0, i8* %1, i32 %2, i8* dereferenceable(1) %3) local_unnamed_addr #7 comdat !dbg !6629 {
  %5 = alloca %class.Args*, align 8
  %6 = alloca i8*, align 8
  %7 = alloca i32, align 4
  %8 = alloca i8*, align 8
  store %class.Args* %0, %class.Args** %5, align 8, !tbaa !5158
  call void @llvm.dbg.declare(metadata %class.Args** %5, metadata !6631, metadata !DIExpression()), !dbg !6635
  store i8* %1, i8** %6, align 8, !tbaa !5158
  call void @llvm.dbg.declare(metadata i8** %6, metadata !6632, metadata !DIExpression()), !dbg !6636
  store i32 %2, i32* %7, align 4, !tbaa !5133
  call void @llvm.dbg.declare(metadata i32* %7, metadata !6633, metadata !DIExpression()), !dbg !6637
  store i8* %3, i8** %8, align 8, !tbaa !5158
  call void @llvm.dbg.declare(metadata i8** %8, metadata !6634, metadata !DIExpression()), !dbg !6638
  %9 = load %class.Args*, %class.Args** %5, align 8, !dbg !6639, !tbaa !5158
  %10 = load i8*, i8** %6, align 8, !dbg !6640, !tbaa !5158
  %11 = load i32, i32* %7, align 4, !dbg !6641, !tbaa !5133
  %12 = load i8*, i8** %8, align 8, !dbg !6642, !tbaa !5158
  call void @_ZN4Args9base_readIbEEvPKciRT_(%class.Args* %9, i8* %10, i32 %11, i8* dereferenceable(1) %12), !dbg !6643
  ret void, !dbg !6644
}

; Function Attrs: sspstrong uwtable
define linkonce_odr dso_local void @_ZN4Args9base_readIbEEvPKciRT_(%class.Args* %0, i8* %1, i32 %2, i8* dereferenceable(1) %3) local_unnamed_addr #0 comdat align 2 personality i8* bitcast (i32 (...)* @__gxx_personality_v0 to i8*) !dbg !6645 {
  %5 = alloca %"struct.Args::Slot"*, align 8
  %6 = alloca %class.String, align 8
  call void @llvm.dbg.value(metadata %class.Args* %0, metadata !6650, metadata !DIExpression()), !dbg !6659
  call void @llvm.dbg.value(metadata i8* %1, metadata !6651, metadata !DIExpression()), !dbg !6659
  call void @llvm.dbg.value(metadata i32 %2, metadata !6652, metadata !DIExpression()), !dbg !6659
  call void @llvm.dbg.value(metadata i8* %3, metadata !6653, metadata !DIExpression()), !dbg !6659
  %7 = bitcast %"struct.Args::Slot"** %5 to i8*, !dbg !6660
  call void @llvm.lifetime.start.p0i8(i64 8, i8* nonnull %7) #14, !dbg !6660
  %8 = bitcast %class.String* %6 to i8*, !dbg !6661
  call void @llvm.lifetime.start.p0i8(i64 24, i8* nonnull %8) #14, !dbg !6661
  call void @llvm.dbg.declare(metadata %class.String* %6, metadata !6655, metadata !DIExpression()), !dbg !6662
  call void @llvm.dbg.value(metadata %"struct.Args::Slot"** %5, metadata !6654, metadata !DIExpression(DW_OP_deref)), !dbg !6659
  call void @_ZN4Args4findEPKciRPNS_4SlotE(%class.String* nonnull sret %6, %class.Args* %0, i8* %1, i32 %2, %"struct.Args::Slot"** nonnull dereferenceable(8) %5), !dbg !6663
  call void @llvm.dbg.value(metadata %class.String* %6, metadata !6271, metadata !DIExpression()), !dbg !6664
  %9 = getelementptr inbounds %class.String, %class.String* %6, i64 0, i32 0, i32 1, !dbg !6666
  %10 = load i32, i32* %9, align 8, !dbg !6666, !tbaa !5179
  %11 = icmp eq i32 %10, 0, !dbg !6667
  %12 = select i1 %11, { i64, i64 } zeroinitializer, { i64, i64 } { i64 ptrtoint (i32 (%class.String*)* @_ZNK6String6lengthEv to i64), i64 0 }, !dbg !6668
  %13 = extractvalue { i64, i64 } %12, 0, !dbg !6662
  %14 = icmp eq i64 %13, 0, !dbg !6662
  br i1 %14, label %45, label %15, !dbg !6661

15:                                               ; preds = %4
  call void @llvm.dbg.value(metadata i8* %3, metadata !6669, metadata !DIExpression()), !dbg !6691
  call void @llvm.dbg.value(metadata %class.Args* %0, metadata !6690, metadata !DIExpression()), !dbg !6691
  call void @llvm.dbg.value(metadata %class.Args* %0, metadata !6693, metadata !DIExpression()), !dbg !6700
  call void @llvm.dbg.value(metadata i8* %3, metadata !6699, metadata !DIExpression()), !dbg !6700
  %16 = invoke i8* @_ZN4Args11simple_slotEPvm(%class.Args* nonnull %0, i8* nonnull %3, i64 1)
          to label %17 unwind label %25, !dbg !6702

17:                                               ; preds = %15
  call void @llvm.dbg.value(metadata i8* %16, metadata !6657, metadata !DIExpression()), !dbg !6704
  %18 = icmp eq i8* %16, null, !dbg !6705
  br i1 %18, label %22, label %19, !dbg !6706

19:                                               ; preds = %17
  call void @llvm.dbg.value(metadata %class.String* %6, metadata !6707, metadata !DIExpression()), !dbg !6716
  call void @llvm.dbg.value(metadata i8* %16, metadata !6714, metadata !DIExpression()), !dbg !6716
  call void @llvm.dbg.value(metadata %class.Args* %0, metadata !6715, metadata !DIExpression()), !dbg !6716
  %20 = bitcast %class.Args* %0 to %class.ArgContext*, !dbg !6718
  %21 = invoke zeroext i1 @_ZN7BoolArg5parseERK6StringRbRK10ArgContext(%class.String* nonnull dereferenceable(24) %6, i8* nonnull dereferenceable(1) %16, %class.ArgContext* nonnull dereferenceable(32) %20)
          to label %22 unwind label %25, !dbg !6719

22:                                               ; preds = %19, %17
  %23 = phi i1 [ false, %17 ], [ %21, %19 ], !dbg !6704
  %24 = load %"struct.Args::Slot"*, %"struct.Args::Slot"** %5, align 8, !dbg !6720, !tbaa !5158
  call void @llvm.dbg.value(metadata %"struct.Args::Slot"* %24, metadata !6654, metadata !DIExpression()), !dbg !6659
  invoke void @_ZN4Args9postparseEbPNS_4SlotE(%class.Args* nonnull %0, i1 zeroext %23, %"struct.Args::Slot"* %24)
          to label %45 unwind label %25, !dbg !6721

25:                                               ; preds = %19, %15, %22
  %26 = landingpad { i8*, i32 }
          cleanup, !dbg !6722
  call void @llvm.dbg.value(metadata %class.String* %6, metadata !5368, metadata !DIExpression()) #14, !dbg !6723
  call void @llvm.dbg.value(metadata %class.String* %6, metadata !5374, metadata !DIExpression()) #14, !dbg !6725
  %27 = getelementptr inbounds %class.String, %class.String* %6, i64 0, i32 0, i32 2, !dbg !6727
  %28 = load %"struct.String::memo_t"*, %"struct.String::memo_t"** %27, align 8, !dbg !6727, !tbaa !5183
  %29 = icmp eq %"struct.String::memo_t"* %28, null, !dbg !6728
  br i1 %29, label %44, label %30, !dbg !6729

30:                                               ; preds = %25
  %31 = getelementptr inbounds %"struct.String::memo_t", %"struct.String::memo_t"* %28, i64 0, i32 0, !dbg !6730
  %32 = load volatile i32, i32* %31, align 4, !dbg !6730, !tbaa !5386
  %33 = icmp eq i32 %32, 0, !dbg !6730
  br i1 %33, label %34, label %35, !dbg !6730

34:                                               ; preds = %30
  call void @__assert_fail(i8* getelementptr inbounds ([18 x i8], [18 x i8]* @.str.17, i64 0, i64 0), i8* getelementptr inbounds ([29 x i8], [29 x i8]* @.str.18, i64 0, i64 0), i32 273, i8* getelementptr inbounds ([27 x i8], [27 x i8]* @__PRETTY_FUNCTION__._ZNK6String5derefEv, i64 0, i64 0)) #15, !dbg !6730
  unreachable, !dbg !6730

35:                                               ; preds = %30
  call void @llvm.dbg.value(metadata i32* %31, metadata !5388, metadata !DIExpression()) #14, !dbg !6731
  %36 = load volatile i32, i32* %31, align 4, !dbg !6733, !tbaa !5133
  %37 = add i32 %36, -1, !dbg !6733
  store volatile i32 %37, i32* %31, align 4, !dbg !6733, !tbaa !5133
  %38 = icmp eq i32 %37, 0, !dbg !6734
  br i1 %38, label %39, label %40, !dbg !6735

39:                                               ; preds = %35
  invoke void @_ZN6String11delete_memoEPNS_6memo_tE(%"struct.String::memo_t"* nonnull %28)
          to label %40 unwind label %41, !dbg !6736

40:                                               ; preds = %39, %35
  store %"struct.String::memo_t"* null, %"struct.String::memo_t"** %27, align 8, !dbg !6737, !tbaa !5183
  br label %44, !dbg !6738

41:                                               ; preds = %39
  %42 = landingpad { i8*, i32 }
          catch i8* null, !dbg !6739
  %43 = extractvalue { i8*, i32 } %42, 0, !dbg !6739
  call void @__clang_call_terminate(i8* %43) #15, !dbg !6739
  unreachable, !dbg !6739

44:                                               ; preds = %25, %40
  call void @llvm.lifetime.end.p0i8(i64 24, i8* nonnull %8) #14, !dbg !6661
  call void @llvm.lifetime.end.p0i8(i64 8, i8* nonnull %7) #14, !dbg !6740
  resume { i8*, i32 } %26, !dbg !6740

45:                                               ; preds = %22, %4
  call void @llvm.dbg.value(metadata %class.String* %6, metadata !5368, metadata !DIExpression()) #14, !dbg !6741
  call void @llvm.dbg.value(metadata %class.String* %6, metadata !5374, metadata !DIExpression()) #14, !dbg !6743
  %46 = getelementptr inbounds %class.String, %class.String* %6, i64 0, i32 0, i32 2, !dbg !6745
  %47 = load %"struct.String::memo_t"*, %"struct.String::memo_t"** %46, align 8, !dbg !6745, !tbaa !5183
  %48 = icmp eq %"struct.String::memo_t"* %47, null, !dbg !6746
  br i1 %48, label %63, label %49, !dbg !6747

49:                                               ; preds = %45
  %50 = getelementptr inbounds %"struct.String::memo_t", %"struct.String::memo_t"* %47, i64 0, i32 0, !dbg !6748
  %51 = load volatile i32, i32* %50, align 4, !dbg !6748, !tbaa !5386
  %52 = icmp eq i32 %51, 0, !dbg !6748
  br i1 %52, label %53, label %54, !dbg !6748

53:                                               ; preds = %49
  call void @__assert_fail(i8* getelementptr inbounds ([18 x i8], [18 x i8]* @.str.17, i64 0, i64 0), i8* getelementptr inbounds ([29 x i8], [29 x i8]* @.str.18, i64 0, i64 0), i32 273, i8* getelementptr inbounds ([27 x i8], [27 x i8]* @__PRETTY_FUNCTION__._ZNK6String5derefEv, i64 0, i64 0)) #15, !dbg !6748
  unreachable, !dbg !6748

54:                                               ; preds = %49
  call void @llvm.dbg.value(metadata i32* %50, metadata !5388, metadata !DIExpression()) #14, !dbg !6749
  %55 = load volatile i32, i32* %50, align 4, !dbg !6751, !tbaa !5133
  %56 = add i32 %55, -1, !dbg !6751
  store volatile i32 %56, i32* %50, align 4, !dbg !6751, !tbaa !5133
  %57 = icmp eq i32 %56, 0, !dbg !6752
  br i1 %57, label %58, label %59, !dbg !6753

58:                                               ; preds = %54
  invoke void @_ZN6String11delete_memoEPNS_6memo_tE(%"struct.String::memo_t"* nonnull %47)
          to label %59 unwind label %60, !dbg !6754

59:                                               ; preds = %58, %54
  store %"struct.String::memo_t"* null, %"struct.String::memo_t"** %46, align 8, !dbg !6755, !tbaa !5183
  br label %63, !dbg !6756

60:                                               ; preds = %58
  %61 = landingpad { i8*, i32 }
          catch i8* null, !dbg !6757
  %62 = extractvalue { i8*, i32 } %61, 0, !dbg !6757
  call void @__clang_call_terminate(i8* %62) #15, !dbg !6757
  unreachable, !dbg !6757

63:                                               ; preds = %45, %59
  call void @llvm.lifetime.end.p0i8(i64 24, i8* nonnull %8) #14, !dbg !6661
  call void @llvm.lifetime.end.p0i8(i64 8, i8* nonnull %7) #14, !dbg !6740
  ret void, !dbg !6740
}

declare zeroext i1 @_ZN7BoolArg5parseERK6StringRbRK10ArgContext(%class.String* dereferenceable(24), i8* dereferenceable(1), %class.ArgContext* dereferenceable(32)) local_unnamed_addr #2

; Function Attrs: noinline optnone sspstrong uwtable
define linkonce_odr dso_local void @_Z14args_base_readI14HandlerCallArg11HandlerCallEvP4ArgsPKciT_RT0_(%class.Args* %0, i8* %1, i32 %2, i32 %3, %class.HandlerCall* dereferenceable(40) %4) local_unnamed_addr #7 comdat !dbg !6758 {
  %6 = alloca %struct.HandlerCallArg, align 4
  %7 = alloca %class.Args*, align 8
  %8 = alloca i8*, align 8
  %9 = alloca i32, align 4
  %10 = alloca %class.HandlerCall*, align 8
  %11 = alloca %struct.HandlerCallArg, align 4
  %12 = getelementptr inbounds %struct.HandlerCallArg, %struct.HandlerCallArg* %6, i32 0, i32 0
  store i32 %3, i32* %12, align 4
  store %class.Args* %0, %class.Args** %7, align 8, !tbaa !5158
  call void @llvm.dbg.declare(metadata %class.Args** %7, metadata !6760, metadata !DIExpression()), !dbg !6765
  store i8* %1, i8** %8, align 8, !tbaa !5158
  call void @llvm.dbg.declare(metadata i8** %8, metadata !6761, metadata !DIExpression()), !dbg !6766
  store i32 %2, i32* %9, align 4, !tbaa !5133
  call void @llvm.dbg.declare(metadata i32* %9, metadata !6762, metadata !DIExpression()), !dbg !6767
  call void @llvm.dbg.declare(metadata %struct.HandlerCallArg* %6, metadata !6763, metadata !DIExpression()), !dbg !6768
  store %class.HandlerCall* %4, %class.HandlerCall** %10, align 8, !tbaa !5158
  call void @llvm.dbg.declare(metadata %class.HandlerCall** %10, metadata !6764, metadata !DIExpression()), !dbg !6769
  %13 = load %class.Args*, %class.Args** %7, align 8, !dbg !6770, !tbaa !5158
  %14 = load i8*, i8** %8, align 8, !dbg !6771, !tbaa !5158
  %15 = load i32, i32* %9, align 4, !dbg !6772, !tbaa !5133
  %16 = bitcast %struct.HandlerCallArg* %11 to i8*, !dbg !6773
  %17 = bitcast %struct.HandlerCallArg* %6 to i8*, !dbg !6773
  call void @llvm.memcpy.p0i8.p0i8.i64(i8* align 4 %16, i8* align 4 %17, i64 4, i1 false), !dbg !6773, !tbaa.struct !6774
  %18 = load %class.HandlerCall*, %class.HandlerCall** %10, align 8, !dbg !6775, !tbaa !5158
  %19 = getelementptr inbounds %struct.HandlerCallArg, %struct.HandlerCallArg* %11, i32 0, i32 0, !dbg !6776
  %20 = load i32, i32* %19, align 4, !dbg !6776
  call void @_ZN4Args9base_readI14HandlerCallArg11HandlerCallEEvPKciT_RT0_(%class.Args* %13, i8* %14, i32 %15, i32 %20, %class.HandlerCall* dereferenceable(40) %18), !dbg !6776
  ret void, !dbg !6777
}

; Function Attrs: sspstrong uwtable
define linkonce_odr dso_local void @_ZN4Args9base_readI14HandlerCallArg11HandlerCallEEvPKciT_RT0_(%class.Args* %0, i8* %1, i32 %2, i32 %3, %class.HandlerCall* dereferenceable(40) %4) local_unnamed_addr #0 comdat align 2 personality i8* bitcast (i32 (...)* @__gxx_personality_v0 to i8*) !dbg !6778 {
  %6 = alloca %struct.HandlerCallArg, align 4
  call void @llvm.dbg.declare(metadata %struct.HandlerCallArg* %6, metadata !6793, metadata !DIExpression()), !dbg !6805
  %7 = alloca %"struct.Args::Slot"*, align 8
  %8 = alloca %class.String, align 8
  call void @llvm.dbg.value(metadata i32 %3, metadata !6786, metadata !DIExpression()), !dbg !6807
  call void @llvm.dbg.value(metadata %class.Args* %0, metadata !6783, metadata !DIExpression()), !dbg !6807
  call void @llvm.dbg.value(metadata i8* %1, metadata !6784, metadata !DIExpression()), !dbg !6807
  call void @llvm.dbg.value(metadata i32 %2, metadata !6785, metadata !DIExpression()), !dbg !6807
  call void @llvm.dbg.value(metadata %class.HandlerCall* %4, metadata !6787, metadata !DIExpression()), !dbg !6807
  %9 = bitcast %"struct.Args::Slot"** %7 to i8*, !dbg !6808
  call void @llvm.lifetime.start.p0i8(i64 8, i8* nonnull %9) #14, !dbg !6808
  %10 = bitcast %class.String* %8 to i8*, !dbg !6809
  call void @llvm.lifetime.start.p0i8(i64 24, i8* nonnull %10) #14, !dbg !6809
  call void @llvm.dbg.declare(metadata %class.String* %8, metadata !6789, metadata !DIExpression()), !dbg !6810
  call void @llvm.dbg.value(metadata %"struct.Args::Slot"** %7, metadata !6788, metadata !DIExpression(DW_OP_deref)), !dbg !6807
  call void @_ZN4Args4findEPKciRPNS_4SlotE(%class.String* nonnull sret %8, %class.Args* %0, i8* %1, i32 %2, %"struct.Args::Slot"** nonnull dereferenceable(8) %7), !dbg !6811
  call void @llvm.dbg.value(metadata %class.String* %8, metadata !6271, metadata !DIExpression()), !dbg !6812
  %11 = getelementptr inbounds %class.String, %class.String* %8, i64 0, i32 0, i32 1, !dbg !6814
  %12 = load i32, i32* %11, align 8, !dbg !6814, !tbaa !5179
  %13 = icmp eq i32 %12, 0, !dbg !6815
  %14 = select i1 %13, { i64, i64 } zeroinitializer, { i64, i64 } { i64 ptrtoint (i32 (%class.String*)* @_ZNK6String6lengthEv to i64), i64 0 }, !dbg !6816
  %15 = extractvalue { i64, i64 } %14, 0, !dbg !6810
  %16 = icmp eq i64 %15, 0, !dbg !6810
  br i1 %16, label %67, label %17, !dbg !6809

17:                                               ; preds = %5
  call void @llvm.dbg.value(metadata %class.HandlerCall* %4, metadata !6817, metadata !DIExpression()), !dbg !6824
  call void @llvm.dbg.value(metadata %class.Args* %0, metadata !6823, metadata !DIExpression()), !dbg !6824
  call void @llvm.dbg.value(metadata %class.Args* %0, metadata !6826, metadata !DIExpression()), !dbg !6834
  call void @llvm.dbg.value(metadata %class.HandlerCall* %4, metadata !6833, metadata !DIExpression()), !dbg !6834
  call void @llvm.dbg.value(metadata %class.Args* %0, metadata !6836, metadata !DIExpression()), !dbg !6856
  call void @llvm.dbg.value(metadata %class.HandlerCall* %4, metadata !6840, metadata !DIExpression()), !dbg !6856
  %18 = invoke dereferenceable(64) i8* @_Znwm(i64 64) #17
          to label %19 unwind label %47, !dbg !6859

19:                                               ; preds = %17
  call void @llvm.dbg.value(metadata i8* %18, metadata !6860, metadata !DIExpression()), !dbg !6864
  call void @llvm.dbg.value(metadata %class.HandlerCall* %4, metadata !6863, metadata !DIExpression()), !dbg !6864
  %20 = bitcast i8* %18 to i32 (...)***, !dbg !6866
  store i32 (...)** bitcast (i8** getelementptr inbounds ({ [5 x i8*] }, { [5 x i8*] }* @_ZTVN4Args5SlotTI11HandlerCallEE, i64 0, inrange i32 0, i64 2) to i32 (...)**), i32 (...)*** %20, align 8, !dbg !6866, !tbaa !5092
  %21 = getelementptr inbounds i8, i8* %18, i64 16, !dbg !6867
  %22 = bitcast i8* %21 to %class.HandlerCall**, !dbg !6867
  store %class.HandlerCall* %4, %class.HandlerCall** %22, align 8, !dbg !6867, !tbaa !6868
  call void @llvm.dbg.value(metadata i8* %18, metadata !5144, metadata !DIExpression(DW_OP_plus_uconst, 24, DW_OP_stack_value)), !dbg !6870
  %23 = getelementptr inbounds i8, i8* %18, i64 24, !dbg !6872
  %24 = bitcast i8* %23 to %class.Element**, !dbg !6872
  store %class.Element* null, %class.Element** %24, align 8, !dbg !6872, !tbaa !5150
  %25 = getelementptr inbounds i8, i8* %18, i64 32, !dbg !6873
  %26 = load i64, i64* bitcast (%class.Handler** @_ZN7Handler17the_blank_handlerE to i64*), align 8, !dbg !6874, !tbaa !5158
  %27 = bitcast i8* %25 to i64*, !dbg !6873
  store i64 %26, i64* %27, align 8, !dbg !6873, !tbaa !5159
  call void @llvm.dbg.value(metadata i8* %18, metadata !5160, metadata !DIExpression(DW_OP_plus_uconst, 24, DW_OP_plus_uconst, 16, DW_OP_stack_value)), !dbg !6876
  call void @llvm.dbg.value(metadata i8* %18, metadata !5165, metadata !DIExpression(DW_OP_plus_uconst, 24, DW_OP_plus_uconst, 16, DW_OP_stack_value)), !dbg !6878
  call void @llvm.dbg.value(metadata i8* @_ZN6String9null_dataE, metadata !5168, metadata !DIExpression()), !dbg !6878
  call void @llvm.dbg.value(metadata i32 0, metadata !5169, metadata !DIExpression()), !dbg !6878
  call void @llvm.dbg.value(metadata %"struct.String::memo_t"* null, metadata !5170, metadata !DIExpression()), !dbg !6878
  %28 = getelementptr inbounds i8, i8* %18, i64 40, !dbg !6880
  %29 = bitcast i8* %28 to i8**, !dbg !6880
  store i8* @_ZN6String9null_dataE, i8** %29, align 8, !dbg !6881, !tbaa !5176
  %30 = getelementptr inbounds i8, i8* %18, i64 48, !dbg !6882
  %31 = bitcast i8* %30 to i32*, !dbg !6882
  store i32 0, i32* %31, align 8, !dbg !6883, !tbaa !5179
  %32 = getelementptr inbounds i8, i8* %18, i64 56, !dbg !6884
  %33 = bitcast i8* %32 to %"struct.String::memo_t"**, !dbg !6884
  store %"struct.String::memo_t"* null, %"struct.String::memo_t"** %33, align 8, !dbg !6885, !tbaa !5183
  call void @llvm.dbg.value(metadata i8* %18, metadata !6841, metadata !DIExpression()), !dbg !6886
  %34 = getelementptr inbounds %class.Args, %class.Args* %0, i64 0, i32 6, !dbg !6887
  %35 = bitcast %"struct.Args::Slot"** %34 to i64*, !dbg !6887
  %36 = load i64, i64* %35, align 8, !dbg !6887, !tbaa !6889
  %37 = getelementptr inbounds i8, i8* %18, i64 8, !dbg !6893
  %38 = bitcast i8* %37 to i64*, !dbg !6894
  store i64 %36, i64* %38, align 8, !dbg !6894, !tbaa !6895
  %39 = bitcast %"struct.Args::Slot"** %34 to i8**, !dbg !6897
  store i8* %18, i8** %39, align 8, !dbg !6897, !tbaa !6889
  %40 = bitcast i8* %23 to %class.HandlerCall*, !dbg !6898
  call void @llvm.dbg.value(metadata %class.HandlerCall* %40, metadata !6791, metadata !DIExpression()), !dbg !6899
  %41 = bitcast %struct.HandlerCallArg* %6 to i8*
  call void @llvm.lifetime.start.p0i8(i64 4, i8* nonnull %41)
  %42 = getelementptr inbounds %struct.HandlerCallArg, %struct.HandlerCallArg* %6, i64 0, i32 0
  store i32 %3, i32* %42, align 4
  call void @llvm.dbg.value(metadata %class.String* %8, metadata !6802, metadata !DIExpression()), !dbg !6900
  call void @llvm.dbg.value(metadata %class.HandlerCall* %40, metadata !6803, metadata !DIExpression()), !dbg !6900
  call void @llvm.dbg.value(metadata %class.Args* %0, metadata !6804, metadata !DIExpression()), !dbg !6900
  %43 = bitcast %class.Args* %0 to %class.ArgContext*, !dbg !6901
  %44 = invoke zeroext i1 @_ZN14HandlerCallArg5parseERK6StringR11HandlerCallRK10ArgContext(%struct.HandlerCallArg* nonnull %6, %class.String* nonnull dereferenceable(24) %8, %class.HandlerCall* nonnull dereferenceable(40) %40, %class.ArgContext* nonnull dereferenceable(32) %43)
          to label %45 unwind label %47, !dbg !6902

45:                                               ; preds = %19
  call void @llvm.lifetime.end.p0i8(i64 4, i8* nonnull %41), !dbg !6903
  %46 = load %"struct.Args::Slot"*, %"struct.Args::Slot"** %7, align 8, !dbg !6904, !tbaa !5158
  call void @llvm.dbg.value(metadata %"struct.Args::Slot"* %46, metadata !6788, metadata !DIExpression()), !dbg !6807
  invoke void @_ZN4Args9postparseEbPNS_4SlotE(%class.Args* nonnull %0, i1 zeroext %44, %"struct.Args::Slot"* %46)
          to label %67 unwind label %47, !dbg !6905

47:                                               ; preds = %19, %17, %45
  %48 = landingpad { i8*, i32 }
          cleanup, !dbg !6906
  call void @llvm.dbg.value(metadata %class.String* %8, metadata !5368, metadata !DIExpression()) #14, !dbg !6907
  call void @llvm.dbg.value(metadata %class.String* %8, metadata !5374, metadata !DIExpression()) #14, !dbg !6909
  %49 = getelementptr inbounds %class.String, %class.String* %8, i64 0, i32 0, i32 2, !dbg !6911
  %50 = load %"struct.String::memo_t"*, %"struct.String::memo_t"** %49, align 8, !dbg !6911, !tbaa !5183
  %51 = icmp eq %"struct.String::memo_t"* %50, null, !dbg !6912
  br i1 %51, label %66, label %52, !dbg !6913

52:                                               ; preds = %47
  %53 = getelementptr inbounds %"struct.String::memo_t", %"struct.String::memo_t"* %50, i64 0, i32 0, !dbg !6914
  %54 = load volatile i32, i32* %53, align 4, !dbg !6914, !tbaa !5386
  %55 = icmp eq i32 %54, 0, !dbg !6914
  br i1 %55, label %56, label %57, !dbg !6914

56:                                               ; preds = %52
  call void @__assert_fail(i8* getelementptr inbounds ([18 x i8], [18 x i8]* @.str.17, i64 0, i64 0), i8* getelementptr inbounds ([29 x i8], [29 x i8]* @.str.18, i64 0, i64 0), i32 273, i8* getelementptr inbounds ([27 x i8], [27 x i8]* @__PRETTY_FUNCTION__._ZNK6String5derefEv, i64 0, i64 0)) #15, !dbg !6914
  unreachable, !dbg !6914

57:                                               ; preds = %52
  call void @llvm.dbg.value(metadata i32* %53, metadata !5388, metadata !DIExpression()) #14, !dbg !6915
  %58 = load volatile i32, i32* %53, align 4, !dbg !6917, !tbaa !5133
  %59 = add i32 %58, -1, !dbg !6917
  store volatile i32 %59, i32* %53, align 4, !dbg !6917, !tbaa !5133
  %60 = icmp eq i32 %59, 0, !dbg !6918
  br i1 %60, label %61, label %62, !dbg !6919

61:                                               ; preds = %57
  invoke void @_ZN6String11delete_memoEPNS_6memo_tE(%"struct.String::memo_t"* nonnull %50)
          to label %62 unwind label %63, !dbg !6920

62:                                               ; preds = %61, %57
  store %"struct.String::memo_t"* null, %"struct.String::memo_t"** %49, align 8, !dbg !6921, !tbaa !5183
  br label %66, !dbg !6922

63:                                               ; preds = %61
  %64 = landingpad { i8*, i32 }
          catch i8* null, !dbg !6923
  %65 = extractvalue { i8*, i32 } %64, 0, !dbg !6923
  call void @__clang_call_terminate(i8* %65) #15, !dbg !6923
  unreachable, !dbg !6923

66:                                               ; preds = %47, %62
  call void @llvm.lifetime.end.p0i8(i64 24, i8* nonnull %10) #14, !dbg !6809
  call void @llvm.lifetime.end.p0i8(i64 8, i8* nonnull %9) #14, !dbg !6924
  resume { i8*, i32 } %48, !dbg !6924

67:                                               ; preds = %45, %5
  call void @llvm.dbg.value(metadata %class.String* %8, metadata !5368, metadata !DIExpression()) #14, !dbg !6925
  call void @llvm.dbg.value(metadata %class.String* %8, metadata !5374, metadata !DIExpression()) #14, !dbg !6927
  %68 = getelementptr inbounds %class.String, %class.String* %8, i64 0, i32 0, i32 2, !dbg !6929
  %69 = load %"struct.String::memo_t"*, %"struct.String::memo_t"** %68, align 8, !dbg !6929, !tbaa !5183
  %70 = icmp eq %"struct.String::memo_t"* %69, null, !dbg !6930
  br i1 %70, label %85, label %71, !dbg !6931

71:                                               ; preds = %67
  %72 = getelementptr inbounds %"struct.String::memo_t", %"struct.String::memo_t"* %69, i64 0, i32 0, !dbg !6932
  %73 = load volatile i32, i32* %72, align 4, !dbg !6932, !tbaa !5386
  %74 = icmp eq i32 %73, 0, !dbg !6932
  br i1 %74, label %75, label %76, !dbg !6932

75:                                               ; preds = %71
  call void @__assert_fail(i8* getelementptr inbounds ([18 x i8], [18 x i8]* @.str.17, i64 0, i64 0), i8* getelementptr inbounds ([29 x i8], [29 x i8]* @.str.18, i64 0, i64 0), i32 273, i8* getelementptr inbounds ([27 x i8], [27 x i8]* @__PRETTY_FUNCTION__._ZNK6String5derefEv, i64 0, i64 0)) #15, !dbg !6932
  unreachable, !dbg !6932

76:                                               ; preds = %71
  call void @llvm.dbg.value(metadata i32* %72, metadata !5388, metadata !DIExpression()) #14, !dbg !6933
  %77 = load volatile i32, i32* %72, align 4, !dbg !6935, !tbaa !5133
  %78 = add i32 %77, -1, !dbg !6935
  store volatile i32 %78, i32* %72, align 4, !dbg !6935, !tbaa !5133
  %79 = icmp eq i32 %78, 0, !dbg !6936
  br i1 %79, label %80, label %81, !dbg !6937

80:                                               ; preds = %76
  invoke void @_ZN6String11delete_memoEPNS_6memo_tE(%"struct.String::memo_t"* nonnull %69)
          to label %81 unwind label %82, !dbg !6938

81:                                               ; preds = %80, %76
  store %"struct.String::memo_t"* null, %"struct.String::memo_t"** %68, align 8, !dbg !6939, !tbaa !5183
  br label %85, !dbg !6940

82:                                               ; preds = %80
  %83 = landingpad { i8*, i32 }
          catch i8* null, !dbg !6941
  %84 = extractvalue { i8*, i32 } %83, 0, !dbg !6941
  call void @__clang_call_terminate(i8* %84) #15, !dbg !6941
  unreachable, !dbg !6941

85:                                               ; preds = %67, %81
  call void @llvm.lifetime.end.p0i8(i64 24, i8* nonnull %10) #14, !dbg !6809
  call void @llvm.lifetime.end.p0i8(i64 8, i8* nonnull %9) #14, !dbg !6924
  ret void, !dbg !6924
}

; Function Attrs: inlinehint nounwind sspstrong uwtable
define linkonce_odr dso_local void @_ZN4Args5SlotTI11HandlerCallED2Ev(%"struct.Args::SlotT"* %0) unnamed_addr #8 comdat align 2 personality i32 (...)* @__gxx_personality_v0 !dbg !6942 {
  call void @llvm.dbg.value(metadata %"struct.Args::SlotT"* %0, metadata !6945, metadata !DIExpression()), !dbg !6946
  %2 = getelementptr %"struct.Args::SlotT", %"struct.Args::SlotT"* %0, i64 0, i32 0, i32 0, !dbg !6947
  store i32 (...)** bitcast (i8** getelementptr inbounds ({ [5 x i8*] }, { [5 x i8*] }* @_ZTVN4Args5SlotTI11HandlerCallEE, i64 0, inrange i32 0, i64 2) to i32 (...)**), i32 (...)*** %2, align 8, !dbg !6947, !tbaa !5092
  call void @llvm.dbg.value(metadata %"struct.Args::SlotT"* %0, metadata !5362, metadata !DIExpression(DW_OP_plus_uconst, 24, DW_OP_stack_value)) #14, !dbg !6948
  call void @llvm.dbg.value(metadata %"struct.Args::SlotT"* %0, metadata !5368, metadata !DIExpression(DW_OP_plus_uconst, 24, DW_OP_plus_uconst, 16, DW_OP_stack_value)) #14, !dbg !6951
  call void @llvm.dbg.value(metadata %"struct.Args::SlotT"* %0, metadata !5374, metadata !DIExpression(DW_OP_plus_uconst, 24, DW_OP_plus_uconst, 16, DW_OP_stack_value)) #14, !dbg !6953
  %3 = getelementptr inbounds %"struct.Args::SlotT", %"struct.Args::SlotT"* %0, i64 0, i32 2, i32 2, i32 0, i32 2, !dbg !6955
  %4 = load %"struct.String::memo_t"*, %"struct.String::memo_t"** %3, align 8, !dbg !6955, !tbaa !5183
  %5 = icmp eq %"struct.String::memo_t"* %4, null, !dbg !6956
  br i1 %5, label %20, label %6, !dbg !6957

6:                                                ; preds = %1
  %7 = getelementptr inbounds %"struct.String::memo_t", %"struct.String::memo_t"* %4, i64 0, i32 0, !dbg !6958
  %8 = load volatile i32, i32* %7, align 4, !dbg !6958, !tbaa !5386
  %9 = icmp eq i32 %8, 0, !dbg !6958
  br i1 %9, label %10, label %11, !dbg !6958

10:                                               ; preds = %6
  tail call void @__assert_fail(i8* getelementptr inbounds ([18 x i8], [18 x i8]* @.str.17, i64 0, i64 0), i8* getelementptr inbounds ([29 x i8], [29 x i8]* @.str.18, i64 0, i64 0), i32 273, i8* getelementptr inbounds ([27 x i8], [27 x i8]* @__PRETTY_FUNCTION__._ZNK6String5derefEv, i64 0, i64 0)) #15, !dbg !6958
  unreachable, !dbg !6958

11:                                               ; preds = %6
  call void @llvm.dbg.value(metadata i32* %7, metadata !5388, metadata !DIExpression()) #14, !dbg !6959
  %12 = load volatile i32, i32* %7, align 4, !dbg !6961, !tbaa !5133
  %13 = add i32 %12, -1, !dbg !6961
  store volatile i32 %13, i32* %7, align 4, !dbg !6961, !tbaa !5133
  %14 = icmp eq i32 %13, 0, !dbg !6962
  br i1 %14, label %15, label %16, !dbg !6963

15:                                               ; preds = %11
  invoke void @_ZN6String11delete_memoEPNS_6memo_tE(%"struct.String::memo_t"* nonnull %4)
          to label %16 unwind label %17, !dbg !6964

16:                                               ; preds = %15, %11
  store %"struct.String::memo_t"* null, %"struct.String::memo_t"** %3, align 8, !dbg !6965, !tbaa !5183
  br label %20, !dbg !6966

17:                                               ; preds = %15
  %18 = landingpad { i8*, i32 }
          catch i8* null, !dbg !6967
  %19 = extractvalue { i8*, i32 } %18, 0, !dbg !6967
  tail call void @__clang_call_terminate(i8* %19) #15, !dbg !6967
  unreachable, !dbg !6967

20:                                               ; preds = %1, %16
  ret void, !dbg !6947
}

; Function Attrs: inlinehint nounwind sspstrong uwtable
define linkonce_odr dso_local void @_ZN4Args5SlotTI11HandlerCallED0Ev(%"struct.Args::SlotT"* %0) unnamed_addr #8 comdat align 2 personality i32 (...)* @__gxx_personality_v0 !dbg !6968 {
  call void @llvm.dbg.value(metadata %"struct.Args::SlotT"* %0, metadata !6970, metadata !DIExpression()), !dbg !6971
  call void @llvm.dbg.value(metadata %"struct.Args::SlotT"* %0, metadata !6945, metadata !DIExpression()) #14, !dbg !6972
  %2 = getelementptr %"struct.Args::SlotT", %"struct.Args::SlotT"* %0, i64 0, i32 0, i32 0, !dbg !6974
  store i32 (...)** bitcast (i8** getelementptr inbounds ({ [5 x i8*] }, { [5 x i8*] }* @_ZTVN4Args5SlotTI11HandlerCallEE, i64 0, inrange i32 0, i64 2) to i32 (...)**), i32 (...)*** %2, align 8, !dbg !6974, !tbaa !5092
  call void @llvm.dbg.value(metadata %"struct.Args::SlotT"* %0, metadata !5362, metadata !DIExpression(DW_OP_plus_uconst, 24, DW_OP_stack_value)) #14, !dbg !6975
  call void @llvm.dbg.value(metadata %"struct.Args::SlotT"* %0, metadata !5368, metadata !DIExpression(DW_OP_plus_uconst, 24, DW_OP_plus_uconst, 16, DW_OP_stack_value)) #14, !dbg !6977
  call void @llvm.dbg.value(metadata %"struct.Args::SlotT"* %0, metadata !5374, metadata !DIExpression(DW_OP_plus_uconst, 24, DW_OP_plus_uconst, 16, DW_OP_stack_value)) #14, !dbg !6979
  %3 = getelementptr inbounds %"struct.Args::SlotT", %"struct.Args::SlotT"* %0, i64 0, i32 2, i32 2, i32 0, i32 2, !dbg !6981
  %4 = load %"struct.String::memo_t"*, %"struct.String::memo_t"** %3, align 8, !dbg !6981, !tbaa !5183
  %5 = icmp eq %"struct.String::memo_t"* %4, null, !dbg !6982
  br i1 %5, label %19, label %6, !dbg !6983

6:                                                ; preds = %1
  %7 = getelementptr inbounds %"struct.String::memo_t", %"struct.String::memo_t"* %4, i64 0, i32 0, !dbg !6984
  %8 = load volatile i32, i32* %7, align 4, !dbg !6984, !tbaa !5386
  %9 = icmp eq i32 %8, 0, !dbg !6984
  br i1 %9, label %10, label %11, !dbg !6984

10:                                               ; preds = %6
  tail call void @__assert_fail(i8* getelementptr inbounds ([18 x i8], [18 x i8]* @.str.17, i64 0, i64 0), i8* getelementptr inbounds ([29 x i8], [29 x i8]* @.str.18, i64 0, i64 0), i32 273, i8* getelementptr inbounds ([27 x i8], [27 x i8]* @__PRETTY_FUNCTION__._ZNK6String5derefEv, i64 0, i64 0)) #15, !dbg !6984
  unreachable, !dbg !6984

11:                                               ; preds = %6
  call void @llvm.dbg.value(metadata i32* %7, metadata !5388, metadata !DIExpression()) #14, !dbg !6985
  %12 = load volatile i32, i32* %7, align 4, !dbg !6987, !tbaa !5133
  %13 = add i32 %12, -1, !dbg !6987
  store volatile i32 %13, i32* %7, align 4, !dbg !6987, !tbaa !5133
  %14 = icmp eq i32 %13, 0, !dbg !6988
  br i1 %14, label %15, label %19, !dbg !6989

15:                                               ; preds = %11
  invoke void @_ZN6String11delete_memoEPNS_6memo_tE(%"struct.String::memo_t"* nonnull %4)
          to label %19 unwind label %16, !dbg !6990

16:                                               ; preds = %15
  %17 = landingpad { i8*, i32 }
          catch i8* null, !dbg !6991
  %18 = extractvalue { i8*, i32 } %17, 0, !dbg !6991
  tail call void @__clang_call_terminate(i8* %18) #15, !dbg !6991
  unreachable, !dbg !6991

19:                                               ; preds = %11, %15, %1
  %20 = bitcast %"struct.Args::SlotT"* %0 to i8*, !dbg !6992
  tail call void @_ZdlPv(i8* %20) #16, !dbg !6992
  ret void, !dbg !6992
}

; Function Attrs: sspstrong uwtable
define linkonce_odr dso_local void @_ZN4Args5SlotTI11HandlerCallE5storeEv(%"struct.Args::SlotT"* %0) unnamed_addr #0 comdat align 2 !dbg !6993 {
  call void @llvm.dbg.value(metadata %"struct.Args::SlotT"* %0, metadata !6995, metadata !DIExpression()), !dbg !6996
  %2 = getelementptr inbounds %"struct.Args::SlotT", %"struct.Args::SlotT"* %0, i64 0, i32 1, !dbg !6997
  %3 = load %class.HandlerCall*, %class.HandlerCall** %2, align 8, !dbg !6997, !tbaa !6868
  %4 = getelementptr inbounds %"struct.Args::SlotT", %"struct.Args::SlotT"* %0, i64 0, i32 2, !dbg !6998
  call void @llvm.dbg.value(metadata %class.HandlerCall* %3, metadata !6999, metadata !DIExpression()), !dbg !7008
  call void @llvm.dbg.value(metadata %class.HandlerCall* %4, metadata !7005, metadata !DIExpression()), !dbg !7008
  call void @llvm.dbg.value(metadata %class.HandlerCall* %3, metadata !7010, metadata !DIExpression()), !dbg !7017
  call void @llvm.dbg.value(metadata %class.HandlerCall* %4, metadata !7016, metadata !DIExpression()), !dbg !7017
  %5 = bitcast %class.HandlerCall* %3 to i8*, !dbg !7019
  %6 = bitcast %class.HandlerCall* %4 to i8*, !dbg !7019
  tail call void @llvm.memcpy.p0i8.p0i8.i64(i8* nonnull align 8 dereferenceable(16) %5, i8* nonnull align 8 dereferenceable(16) %6, i64 16, i1 false), !dbg !7019
  %7 = getelementptr inbounds %class.HandlerCall, %class.HandlerCall* %3, i64 0, i32 2, !dbg !7020
  %8 = getelementptr inbounds %"struct.Args::SlotT", %"struct.Args::SlotT"* %0, i64 0, i32 2, i32 2, !dbg !7020
  call void @llvm.dbg.value(metadata %class.String* %7, metadata !7022, metadata !DIExpression()), !dbg !7026
  call void @llvm.dbg.value(metadata %class.String* %8, metadata !7025, metadata !DIExpression()), !dbg !7026
  %9 = icmp eq %class.HandlerCall* %4, %3, !dbg !7028
  br i1 %9, label %39, label %10, !dbg !7030, !prof !5575, !misexpect !5576

10:                                               ; preds = %1
  call void @llvm.dbg.value(metadata %class.String* %7, metadata !5374, metadata !DIExpression()), !dbg !7031
  %11 = getelementptr inbounds %class.HandlerCall, %class.HandlerCall* %3, i64 0, i32 2, i32 0, i32 2, !dbg !7034
  %12 = load %"struct.String::memo_t"*, %"struct.String::memo_t"** %11, align 8, !dbg !7034, !tbaa !5183
  %13 = icmp eq %"struct.String::memo_t"* %12, null, !dbg !7035
  br i1 %13, label %25, label %14, !dbg !7036

14:                                               ; preds = %10
  %15 = getelementptr inbounds %"struct.String::memo_t", %"struct.String::memo_t"* %12, i64 0, i32 0, !dbg !7037
  %16 = load volatile i32, i32* %15, align 4, !dbg !7037, !tbaa !5386
  %17 = icmp eq i32 %16, 0, !dbg !7037
  br i1 %17, label %18, label %19, !dbg !7037

18:                                               ; preds = %14
  tail call void @__assert_fail(i8* getelementptr inbounds ([18 x i8], [18 x i8]* @.str.17, i64 0, i64 0), i8* getelementptr inbounds ([29 x i8], [29 x i8]* @.str.18, i64 0, i64 0), i32 273, i8* getelementptr inbounds ([27 x i8], [27 x i8]* @__PRETTY_FUNCTION__._ZNK6String5derefEv, i64 0, i64 0)) #15, !dbg !7037
  unreachable, !dbg !7037

19:                                               ; preds = %14
  call void @llvm.dbg.value(metadata i32* %15, metadata !5388, metadata !DIExpression()), !dbg !7038
  %20 = load volatile i32, i32* %15, align 4, !dbg !7040, !tbaa !5133
  %21 = add i32 %20, -1, !dbg !7040
  store volatile i32 %21, i32* %15, align 4, !dbg !7040, !tbaa !5133
  %22 = icmp eq i32 %21, 0, !dbg !7041
  br i1 %22, label %23, label %24, !dbg !7042

23:                                               ; preds = %19
  tail call void @_ZN6String11delete_memoEPNS_6memo_tE(%"struct.String::memo_t"* nonnull %12), !dbg !7043
  br label %24, !dbg !7043

24:                                               ; preds = %23, %19
  store %"struct.String::memo_t"* null, %"struct.String::memo_t"** %11, align 8, !dbg !7044, !tbaa !5183
  br label %25, !dbg !7045

25:                                               ; preds = %24, %10
  call void @llvm.dbg.value(metadata %class.String* %7, metadata !5427, metadata !DIExpression()), !dbg !7046
  call void @llvm.dbg.value(metadata %class.String* %8, metadata !5430, metadata !DIExpression()), !dbg !7046
  %26 = bitcast %class.String* %8 to i64*, !dbg !7048
  %27 = load i64, i64* %26, align 8, !dbg !7048, !tbaa !5176
  %28 = getelementptr inbounds %"struct.Args::SlotT", %"struct.Args::SlotT"* %0, i64 0, i32 2, i32 2, i32 0, i32 1, !dbg !7049
  %29 = load i32, i32* %28, align 8, !dbg !7049, !tbaa !5179
  %30 = getelementptr inbounds %"struct.Args::SlotT", %"struct.Args::SlotT"* %0, i64 0, i32 2, i32 2, i32 0, i32 2, !dbg !7050
  %31 = load %"struct.String::memo_t"*, %"struct.String::memo_t"** %30, align 8, !dbg !7050, !tbaa !5183
  call void @llvm.dbg.value(metadata %class.String* %7, metadata !5165, metadata !DIExpression()), !dbg !7051
  call void @llvm.dbg.value(metadata i8* undef, metadata !5168, metadata !DIExpression()), !dbg !7051
  call void @llvm.dbg.value(metadata i32 %29, metadata !5169, metadata !DIExpression()), !dbg !7051
  call void @llvm.dbg.value(metadata %"struct.String::memo_t"* %31, metadata !5170, metadata !DIExpression()), !dbg !7051
  %32 = bitcast %class.String* %7 to i64*, !dbg !7053
  store i64 %27, i64* %32, align 8, !dbg !7053, !tbaa !5176
  %33 = getelementptr inbounds %class.HandlerCall, %class.HandlerCall* %3, i64 0, i32 2, i32 0, i32 1, !dbg !7054
  store i32 %29, i32* %33, align 8, !dbg !7055, !tbaa !5179
  store %"struct.String::memo_t"* %31, %"struct.String::memo_t"** %11, align 8, !dbg !7056, !tbaa !5183
  %34 = icmp eq %"struct.String::memo_t"* %31, null, !dbg !7057
  br i1 %34, label %39, label %35, !dbg !7058

35:                                               ; preds = %25
  %36 = getelementptr inbounds %"struct.String::memo_t", %"struct.String::memo_t"* %31, i64 0, i32 0, !dbg !7059
  call void @llvm.dbg.value(metadata i32* %36, metadata !5447, metadata !DIExpression()), !dbg !7060
  %37 = load volatile i32, i32* %36, align 4, !dbg !7062, !tbaa !5133
  %38 = add i32 %37, 1, !dbg !7062
  store volatile i32 %38, i32* %36, align 4, !dbg !7062, !tbaa !5133
  br label %39, !dbg !7063

39:                                               ; preds = %1, %25, %35
  ret void, !dbg !7064
}

declare zeroext i1 @_ZN14HandlerCallArg5parseERK6StringR11HandlerCallRK10ArgContext(%struct.HandlerCallArg*, %class.String* dereferenceable(24), %class.HandlerCall* dereferenceable(40), %class.ArgContext* dereferenceable(32)) local_unnamed_addr #2

; Function Attrs: nounwind readnone speculatable willreturn
declare void @llvm.dbg.value(metadata, metadata, metadata) #1

; Function Attrs: nounwind readnone speculatable willreturn
declare i32 @llvm.ctpop.i32(i32) #1

attributes #0 = { sspstrong uwtable "correctly-rounded-divide-sqrt-fp-math"="false" "disable-tail-calls"="false" "frame-pointer"="none" "less-precise-fpmad"="false" "min-legal-vector-width"="0" "no-infs-fp-math"="false" "no-jump-tables"="false" "no-nans-fp-math"="false" "no-signed-zeros-fp-math"="false" "no-trapping-math"="false" "stack-protector-buffer-size"="8" "target-cpu"="x86-64" "target-features"="+cx8,+fxsr,+mmx,+sse,+sse2,+x87" "unsafe-fp-math"="false" "use-soft-float"="false" }
attributes #1 = { nounwind readnone speculatable willreturn }
attributes #2 = { "correctly-rounded-divide-sqrt-fp-math"="false" "disable-tail-calls"="false" "frame-pointer"="none" "less-precise-fpmad"="false" "no-infs-fp-math"="false" "no-nans-fp-math"="false" "no-signed-zeros-fp-math"="false" "no-trapping-math"="false" "stack-protector-buffer-size"="8" "target-cpu"="x86-64" "target-features"="+cx8,+fxsr,+mmx,+sse,+sse2,+x87" "unsafe-fp-math"="false" "use-soft-float"="false" }
attributes #3 = { argmemonly nounwind willreturn }
attributes #4 = { nounwind "correctly-rounded-divide-sqrt-fp-math"="false" "disable-tail-calls"="false" "frame-pointer"="none" "less-precise-fpmad"="false" "no-infs-fp-math"="false" "no-nans-fp-math"="false" "no-signed-zeros-fp-math"="false" "no-trapping-math"="false" "stack-protector-buffer-size"="8" "target-cpu"="x86-64" "target-features"="+cx8,+fxsr,+mmx,+sse,+sse2,+x87" "unsafe-fp-math"="false" "use-soft-float"="false" }
attributes #5 = { nobuiltin nounwind "correctly-rounded-divide-sqrt-fp-math"="false" "disable-tail-calls"="false" "frame-pointer"="none" "less-precise-fpmad"="false" "no-infs-fp-math"="false" "no-nans-fp-math"="false" "no-signed-zeros-fp-math"="false" "no-trapping-math"="false" "stack-protector-buffer-size"="8" "target-cpu"="x86-64" "target-features"="+cx8,+fxsr,+mmx,+sse,+sse2,+x87" "unsafe-fp-math"="false" "use-soft-float"="false" }
attributes #6 = { nobuiltin nofree "correctly-rounded-divide-sqrt-fp-math"="false" "disable-tail-calls"="false" "frame-pointer"="none" "less-precise-fpmad"="false" "no-infs-fp-math"="false" "no-nans-fp-math"="false" "no-signed-zeros-fp-math"="false" "no-trapping-math"="false" "stack-protector-buffer-size"="8" "target-cpu"="x86-64" "target-features"="+cx8,+fxsr,+mmx,+sse,+sse2,+x87" "unsafe-fp-math"="false" "use-soft-float"="false" }
attributes #7 = { noinline optnone sspstrong uwtable "correctly-rounded-divide-sqrt-fp-math"="false" "disable-tail-calls"="false" "frame-pointer"="none" "less-precise-fpmad"="false" "min-legal-vector-width"="0" "no-infs-fp-math"="false" "no-jump-tables"="false" "no-nans-fp-math"="false" "no-signed-zeros-fp-math"="false" "no-trapping-math"="false" "stack-protector-buffer-size"="8" "target-cpu"="x86-64" "target-features"="+cx8,+fxsr,+mmx,+sse,+sse2,+x87" "unsafe-fp-math"="false" "use-soft-float"="false" }
attributes #8 = { inlinehint nounwind sspstrong uwtable "correctly-rounded-divide-sqrt-fp-math"="false" "disable-tail-calls"="false" "frame-pointer"="none" "less-precise-fpmad"="false" "min-legal-vector-width"="0" "no-infs-fp-math"="false" "no-jump-tables"="false" "no-nans-fp-math"="false" "no-signed-zeros-fp-math"="false" "no-trapping-math"="false" "stack-protector-buffer-size"="8" "target-cpu"="x86-64" "target-features"="+cx8,+fxsr,+mmx,+sse,+sse2,+x87" "unsafe-fp-math"="false" "use-soft-float"="false" }
attributes #9 = { nounwind sspstrong uwtable "correctly-rounded-divide-sqrt-fp-math"="false" "disable-tail-calls"="false" "frame-pointer"="none" "less-precise-fpmad"="false" "min-legal-vector-width"="0" "no-infs-fp-math"="false" "no-jump-tables"="false" "no-nans-fp-math"="false" "no-signed-zeros-fp-math"="false" "no-trapping-math"="false" "stack-protector-buffer-size"="8" "target-cpu"="x86-64" "target-features"="+cx8,+fxsr,+mmx,+sse,+sse2,+x87" "unsafe-fp-math"="false" "use-soft-float"="false" }
attributes #10 = { noinline noreturn nounwind }
attributes #11 = { noreturn nounwind "correctly-rounded-divide-sqrt-fp-math"="false" "disable-tail-calls"="false" "frame-pointer"="none" "less-precise-fpmad"="false" "no-infs-fp-math"="false" "no-nans-fp-math"="false" "no-signed-zeros-fp-math"="false" "no-trapping-math"="false" "stack-protector-buffer-size"="8" "target-cpu"="x86-64" "target-features"="+cx8,+fxsr,+mmx,+sse,+sse2,+x87" "unsafe-fp-math"="false" "use-soft-float"="false" }
attributes #12 = { inlinehint sspstrong uwtable "correctly-rounded-divide-sqrt-fp-math"="false" "disable-tail-calls"="false" "frame-pointer"="none" "less-precise-fpmad"="false" "min-legal-vector-width"="0" "no-infs-fp-math"="false" "no-jump-tables"="false" "no-nans-fp-math"="false" "no-signed-zeros-fp-math"="false" "no-trapping-math"="false" "stack-protector-buffer-size"="8" "target-cpu"="x86-64" "target-features"="+cx8,+fxsr,+mmx,+sse,+sse2,+x87" "unsafe-fp-math"="false" "use-soft-float"="false" }
attributes #13 = { noinline nounwind optnone sspstrong uwtable "correctly-rounded-divide-sqrt-fp-math"="false" "disable-tail-calls"="false" "frame-pointer"="none" "less-precise-fpmad"="false" "min-legal-vector-width"="0" "no-infs-fp-math"="false" "no-jump-tables"="false" "no-nans-fp-math"="false" "no-signed-zeros-fp-math"="false" "no-trapping-math"="false" "stack-protector-buffer-size"="8" "target-cpu"="x86-64" "target-features"="+cx8,+fxsr,+mmx,+sse,+sse2,+x87" "unsafe-fp-math"="false" "use-soft-float"="false" }
attributes #14 = { nounwind }
attributes #15 = { noreturn nounwind }
attributes #16 = { builtin nounwind }
attributes #17 = { builtin }

!llvm.dbg.cu = !{!0}
!llvm.module.flags = !{!2696, !2697, !2698, !2699, !2700}
!llvm.ident = !{!2701}

!0 = distinct !DICompileUnit(language: DW_LANG_C_plus_plus_14, file: !1, producer: "clang version 10.0.0 ", isOptimized: true, runtimeVersion: 0, emissionKind: FullDebug, enums: !2, retainedTypes: !1413, imports: !2077, splitDebugInlining: false, nameTableKind: None)
!1 = !DIFile(filename: "../elements/standard/randomsource.cc", directory: "/home/john/projects/click/ir-dir")
!2 = !{!3, !525, !750, !1373, !1385, !1397, !1404}
!3 = !DICompositeType(tag: DW_TAG_enumeration_type, name: "Flags", scope: !5, file: !4, line: 184, baseType: !44, size: 32, elements: !518, identifier: "_ZTSN11HandlerCall5FlagsE")
!4 = !DIFile(filename: "../dummy_inc/click/handlercall.hh", directory: "/home/john/projects/click/ir-dir")
!5 = distinct !DICompositeType(tag: DW_TAG_class_type, name: "HandlerCall", file: !4, line: 143, size: 320, flags: DIFlagTypePassByReference | DIFlagNonTrivial, elements: !6, identifier: "_ZTS11HandlerCall")
!6 = !{!7, !11, !419, !420, !423, !428, !431, !434, !437, !440, !444, !447, !450, !453, !454, !463, !464, !465, !468, !471, !477, !480, !485, !488, !491, !494, !495, !498, !501, !504, !507, !508, !511, !512, !515}
!7 = !DIDerivedType(tag: DW_TAG_member, name: "_e", scope: !5, file: !4, line: 463, baseType: !8, size: 64)
!8 = !DIDerivedType(tag: DW_TAG_pointer_type, baseType: !9, size: 64)
!9 = !DICompositeType(tag: DW_TAG_class_type, name: "Element", file: !10, line: 29, flags: DIFlagFwdDecl, identifier: "_ZTS7Element")
!10 = !DIFile(filename: "../dummy_inc/click/element.hh", directory: "/home/john/projects/click/ir-dir")
!11 = !DIDerivedType(tag: DW_TAG_member, name: "_h", scope: !5, file: !4, line: 464, baseType: !12, size: 64, offset: 64)
!12 = !DIDerivedType(tag: DW_TAG_pointer_type, baseType: !13, size: 64)
!13 = !DIDerivedType(tag: DW_TAG_const_type, baseType: !14)
!14 = distinct !DICompositeType(tag: DW_TAG_class_type, name: "Handler", file: !15, line: 19, size: 576, flags: DIFlagTypePassByReference | DIFlagNonTrivial, elements: !16, identifier: "_ZTS7Handler")
!15 = !DIFile(filename: "../dummy_inc/click/handler.hh", directory: "/home/john/projects/click/ir-dir")
!16 = !{!17, !328, !345, !354, !355, !356, !357, !358, !359, !360, !364, !367, !370, !373, !374, !375, !376, !379, !380, !381, !382, !383, !384, !385, !386, !387, !390, !393, !396, !399, !402, !405, !408, !412, !416}
!17 = !DIDerivedType(tag: DW_TAG_member, name: "_name", scope: !14, file: !15, line: 289, baseType: !18, size: 192)
!18 = distinct !DICompositeType(tag: DW_TAG_class_type, name: "String", file: !19, line: 19, size: 192, flags: DIFlagTypePassByReference | DIFlagNonTrivial, elements: !20, identifier: "_ZTS6String")
!19 = !DIFile(filename: "../dummy_inc/click/string.hh", directory: "/home/john/projects/click/ir-dir")
!20 = !{!21, !27, !51, !52, !56, !60, !62, !63, !67, !72, !76, !79, !82, !88, !91, !94, !98, !101, !104, !107, !110, !114, !118, !122, !126, !130, !131, !134, !137, !138, !141, !144, !147, !154, !160, !164, !167, !168, !173, !176, !177, !181, !182, !185, !186, !189, !190, !193, !196, !199, !202, !205, !208, !211, !214, !217, !220, !223, !226, !227, !228, !229, !232, !235, !236, !237, !238, !239, !240, !241, !245, !248, !251, !254, !255, !256, !257, !258, !259, !262, !266, !267, !268, !269, !272, !273, !274, !275, !276, !277, !280, !281, !282, !283, !286, !289, !290, !293, !296, !299, !302, !305, !308, !311, !312, !313, !314, !317, !320, !323, !324, !325}
!21 = !DIDerivedType(tag: DW_TAG_member, name: "bool_data", scope: !18, file: !19, line: 184, baseType: !22, flags: DIFlagPublic | DIFlagStaticMember)
!22 = !DICompositeType(tag: DW_TAG_array_type, baseType: !23, size: 88, elements: !25)
!23 = !DIDerivedType(tag: DW_TAG_const_type, baseType: !24)
!24 = !DIBasicType(name: "char", size: 8, encoding: DW_ATE_signed_char)
!25 = !{!26}
!26 = !DISubrange(count: 11)
!27 = !DIDerivedType(tag: DW_TAG_member, name: "_r", scope: !18, file: !19, line: 211, baseType: !28, size: 192)
!28 = distinct !DICompositeType(tag: DW_TAG_structure_type, name: "rep_t", scope: !18, file: !19, line: 204, size: 192, flags: DIFlagTypePassByValue, elements: !29, identifier: "_ZTSN6String5rep_tE")
!29 = !{!30, !32, !34}
!30 = !DIDerivedType(tag: DW_TAG_member, name: "data", scope: !28, file: !19, line: 205, baseType: !31, size: 64)
!31 = !DIDerivedType(tag: DW_TAG_pointer_type, baseType: !23, size: 64)
!32 = !DIDerivedType(tag: DW_TAG_member, name: "length", scope: !28, file: !19, line: 206, baseType: !33, size: 32, offset: 64)
!33 = !DIBasicType(name: "int", size: 32, encoding: DW_ATE_signed)
!34 = !DIDerivedType(tag: DW_TAG_member, name: "memo", scope: !28, file: !19, line: 207, baseType: !35, size: 64, offset: 128)
!35 = !DIDerivedType(tag: DW_TAG_pointer_type, baseType: !36, size: 64)
!36 = distinct !DICompositeType(tag: DW_TAG_structure_type, name: "memo_t", scope: !18, file: !19, line: 189, size: 160, flags: DIFlagTypePassByValue, elements: !37, identifier: "_ZTSN6String6memo_tE")
!37 = !{!38, !45, !46, !47}
!38 = !DIDerivedType(tag: DW_TAG_member, name: "refcount", scope: !36, file: !19, line: 190, baseType: !39, size: 32)
!39 = !DIDerivedType(tag: DW_TAG_volatile_type, baseType: !40)
!40 = !DIDerivedType(tag: DW_TAG_typedef, name: "uint32_t", file: !41, line: 26, baseType: !42)
!41 = !DIFile(filename: "/usr/include/bits/stdint-uintn.h", directory: "")
!42 = !DIDerivedType(tag: DW_TAG_typedef, name: "__uint32_t", file: !43, line: 42, baseType: !44)
!43 = !DIFile(filename: "/usr/include/bits/types.h", directory: "")
!44 = !DIBasicType(name: "unsigned int", size: 32, encoding: DW_ATE_unsigned)
!45 = !DIDerivedType(tag: DW_TAG_member, name: "capacity", scope: !36, file: !19, line: 191, baseType: !40, size: 32, offset: 32)
!46 = !DIDerivedType(tag: DW_TAG_member, name: "dirty", scope: !36, file: !19, line: 192, baseType: !39, size: 32, offset: 64)
!47 = !DIDerivedType(tag: DW_TAG_member, name: "real_data", scope: !36, file: !19, line: 197, baseType: !48, size: 64, offset: 96)
!48 = !DICompositeType(tag: DW_TAG_array_type, baseType: !24, size: 64, elements: !49)
!49 = !{!50}
!50 = !DISubrange(count: 8)
!51 = !DIDerivedType(tag: DW_TAG_member, name: "null_data", scope: !18, file: !19, line: 292, baseType: !23, flags: DIFlagStaticMember)
!52 = !DIDerivedType(tag: DW_TAG_member, name: "oom_data", scope: !18, file: !19, line: 293, baseType: !53, flags: DIFlagStaticMember)
!53 = !DICompositeType(tag: DW_TAG_array_type, baseType: !23, size: 120, elements: !54)
!54 = !{!55}
!55 = !DISubrange(count: 15)
!56 = !DIDerivedType(tag: DW_TAG_member, name: "int_data", scope: !18, file: !19, line: 294, baseType: !57, flags: DIFlagStaticMember)
!57 = !DICompositeType(tag: DW_TAG_array_type, baseType: !23, size: 160, elements: !58)
!58 = !{!59}
!59 = !DISubrange(count: 20)
!60 = !DIDerivedType(tag: DW_TAG_member, name: "null_string_rep", scope: !18, file: !19, line: 295, baseType: !61, flags: DIFlagStaticMember)
!61 = !DIDerivedType(tag: DW_TAG_const_type, baseType: !28)
!62 = !DIDerivedType(tag: DW_TAG_member, name: "oom_string_rep", scope: !18, file: !19, line: 296, baseType: !61, flags: DIFlagStaticMember)
!63 = !DISubprogram(name: "String", scope: !18, file: !19, line: 39, type: !64, scopeLine: 39, flags: DIFlagPublic | DIFlagPrototyped, spFlags: DISPFlagOptimized)
!64 = !DISubroutineType(types: !65)
!65 = !{null, !66}
!66 = !DIDerivedType(tag: DW_TAG_pointer_type, baseType: !18, size: 64, flags: DIFlagArtificial | DIFlagObjectPointer)
!67 = !DISubprogram(name: "String", scope: !18, file: !19, line: 40, type: !68, scopeLine: 40, flags: DIFlagPublic | DIFlagPrototyped, spFlags: DISPFlagOptimized)
!68 = !DISubroutineType(types: !69)
!69 = !{null, !66, !70}
!70 = !DIDerivedType(tag: DW_TAG_reference_type, baseType: !71, size: 64)
!71 = !DIDerivedType(tag: DW_TAG_const_type, baseType: !18)
!72 = !DISubprogram(name: "String", scope: !18, file: !19, line: 42, type: !73, scopeLine: 42, flags: DIFlagPublic | DIFlagPrototyped, spFlags: DISPFlagOptimized)
!73 = !DISubroutineType(types: !74)
!74 = !{null, !66, !75}
!75 = !DIDerivedType(tag: DW_TAG_rvalue_reference_type, baseType: !18, size: 64)
!76 = !DISubprogram(name: "String", scope: !18, file: !19, line: 44, type: !77, scopeLine: 44, flags: DIFlagPublic | DIFlagPrototyped, spFlags: DISPFlagOptimized)
!77 = !DISubroutineType(types: !78)
!78 = !{null, !66, !31}
!79 = !DISubprogram(name: "String", scope: !18, file: !19, line: 45, type: !80, scopeLine: 45, flags: DIFlagPublic | DIFlagPrototyped, spFlags: DISPFlagOptimized)
!80 = !DISubroutineType(types: !81)
!81 = !{null, !66, !31, !33}
!82 = !DISubprogram(name: "String", scope: !18, file: !19, line: 46, type: !83, scopeLine: 46, flags: DIFlagPublic | DIFlagPrototyped, spFlags: DISPFlagOptimized)
!83 = !DISubroutineType(types: !84)
!84 = !{null, !66, !85, !33}
!85 = !DIDerivedType(tag: DW_TAG_pointer_type, baseType: !86, size: 64)
!86 = !DIDerivedType(tag: DW_TAG_const_type, baseType: !87)
!87 = !DIBasicType(name: "unsigned char", size: 8, encoding: DW_ATE_unsigned_char)
!88 = !DISubprogram(name: "String", scope: !18, file: !19, line: 47, type: !89, scopeLine: 47, flags: DIFlagPublic | DIFlagPrototyped, spFlags: DISPFlagOptimized)
!89 = !DISubroutineType(types: !90)
!90 = !{null, !66, !31, !31}
!91 = !DISubprogram(name: "String", scope: !18, file: !19, line: 48, type: !92, scopeLine: 48, flags: DIFlagPublic | DIFlagPrototyped, spFlags: DISPFlagOptimized)
!92 = !DISubroutineType(types: !93)
!93 = !{null, !66, !85, !85}
!94 = !DISubprogram(name: "String", scope: !18, file: !19, line: 49, type: !95, scopeLine: 49, flags: DIFlagPublic | DIFlagExplicit | DIFlagPrototyped, spFlags: DISPFlagOptimized)
!95 = !DISubroutineType(types: !96)
!96 = !{null, !66, !97}
!97 = !DIBasicType(name: "bool", size: 8, encoding: DW_ATE_boolean)
!98 = !DISubprogram(name: "String", scope: !18, file: !19, line: 50, type: !99, scopeLine: 50, flags: DIFlagPublic | DIFlagExplicit | DIFlagPrototyped, spFlags: DISPFlagOptimized)
!99 = !DISubroutineType(types: !100)
!100 = !{null, !66, !24}
!101 = !DISubprogram(name: "String", scope: !18, file: !19, line: 51, type: !102, scopeLine: 51, flags: DIFlagPublic | DIFlagExplicit | DIFlagPrototyped, spFlags: DISPFlagOptimized)
!102 = !DISubroutineType(types: !103)
!103 = !{null, !66, !87}
!104 = !DISubprogram(name: "String", scope: !18, file: !19, line: 52, type: !105, scopeLine: 52, flags: DIFlagPublic | DIFlagExplicit | DIFlagPrototyped, spFlags: DISPFlagOptimized)
!105 = !DISubroutineType(types: !106)
!106 = !{null, !66, !33}
!107 = !DISubprogram(name: "String", scope: !18, file: !19, line: 53, type: !108, scopeLine: 53, flags: DIFlagPublic | DIFlagExplicit | DIFlagPrototyped, spFlags: DISPFlagOptimized)
!108 = !DISubroutineType(types: !109)
!109 = !{null, !66, !44}
!110 = !DISubprogram(name: "String", scope: !18, file: !19, line: 54, type: !111, scopeLine: 54, flags: DIFlagPublic | DIFlagExplicit | DIFlagPrototyped, spFlags: DISPFlagOptimized)
!111 = !DISubroutineType(types: !112)
!112 = !{null, !66, !113}
!113 = !DIBasicType(name: "long int", size: 64, encoding: DW_ATE_signed)
!114 = !DISubprogram(name: "String", scope: !18, file: !19, line: 55, type: !115, scopeLine: 55, flags: DIFlagPublic | DIFlagExplicit | DIFlagPrototyped, spFlags: DISPFlagOptimized)
!115 = !DISubroutineType(types: !116)
!116 = !{null, !66, !117}
!117 = !DIBasicType(name: "long unsigned int", size: 64, encoding: DW_ATE_unsigned)
!118 = !DISubprogram(name: "String", scope: !18, file: !19, line: 57, type: !119, scopeLine: 57, flags: DIFlagPublic | DIFlagExplicit | DIFlagPrototyped, spFlags: DISPFlagOptimized)
!119 = !DISubroutineType(types: !120)
!120 = !{null, !66, !121}
!121 = !DIBasicType(name: "long long int", size: 64, encoding: DW_ATE_signed)
!122 = !DISubprogram(name: "String", scope: !18, file: !19, line: 58, type: !123, scopeLine: 58, flags: DIFlagPublic | DIFlagExplicit | DIFlagPrototyped, spFlags: DISPFlagOptimized)
!123 = !DISubroutineType(types: !124)
!124 = !{null, !66, !125}
!125 = !DIBasicType(name: "long long unsigned int", size: 64, encoding: DW_ATE_unsigned)
!126 = !DISubprogram(name: "String", scope: !18, file: !19, line: 65, type: !127, scopeLine: 65, flags: DIFlagPublic | DIFlagExplicit | DIFlagPrototyped, spFlags: DISPFlagOptimized)
!127 = !DISubroutineType(types: !128)
!128 = !{null, !66, !129}
!129 = !DIBasicType(name: "double", size: 64, encoding: DW_ATE_float)
!130 = !DISubprogram(name: "~String", scope: !18, file: !19, line: 67, type: !64, scopeLine: 67, flags: DIFlagPublic | DIFlagPrototyped, spFlags: DISPFlagOptimized)
!131 = !DISubprogram(name: "make_empty", linkageName: "_ZN6String10make_emptyEv", scope: !18, file: !19, line: 69, type: !132, scopeLine: 69, flags: DIFlagPublic | DIFlagPrototyped | DIFlagStaticMember, spFlags: DISPFlagOptimized)
!132 = !DISubroutineType(types: !133)
!133 = !{!70}
!134 = !DISubprogram(name: "make_uninitialized", linkageName: "_ZN6String18make_uninitializedEi", scope: !18, file: !19, line: 70, type: !135, scopeLine: 70, flags: DIFlagPublic | DIFlagPrototyped | DIFlagStaticMember, spFlags: DISPFlagOptimized)
!135 = !DISubroutineType(types: !136)
!136 = !{!18, !33}
!137 = !DISubprogram(name: "make_garbage", linkageName: "_ZN6String12make_garbageEi", scope: !18, file: !19, line: 71, type: !135, scopeLine: 71, flags: DIFlagPublic | DIFlagPrototyped | DIFlagStaticMember, spFlags: DISPFlagOptimized)
!138 = !DISubprogram(name: "make_stable", linkageName: "_ZN6String11make_stableEPKc", scope: !18, file: !19, line: 72, type: !139, scopeLine: 72, flags: DIFlagPublic | DIFlagPrototyped | DIFlagStaticMember, spFlags: DISPFlagOptimized)
!139 = !DISubroutineType(types: !140)
!140 = !{!18, !31}
!141 = !DISubprogram(name: "make_stable", linkageName: "_ZN6String11make_stableEPKci", scope: !18, file: !19, line: 73, type: !142, scopeLine: 73, flags: DIFlagPublic | DIFlagPrototyped | DIFlagStaticMember, spFlags: DISPFlagOptimized)
!142 = !DISubroutineType(types: !143)
!143 = !{!18, !31, !33}
!144 = !DISubprogram(name: "make_stable", linkageName: "_ZN6String11make_stableEPKcS1_", scope: !18, file: !19, line: 74, type: !145, scopeLine: 74, flags: DIFlagPublic | DIFlagPrototyped | DIFlagStaticMember, spFlags: DISPFlagOptimized)
!145 = !DISubroutineType(types: !146)
!146 = !{!18, !31, !31}
!147 = !DISubprogram(name: "make_numeric", linkageName: "_ZN6String12make_numericElib", scope: !18, file: !19, line: 75, type: !148, scopeLine: 75, flags: DIFlagPublic | DIFlagPrototyped | DIFlagStaticMember, spFlags: DISPFlagOptimized)
!148 = !DISubroutineType(types: !149)
!149 = !{!18, !150, !33, !97}
!150 = !DIDerivedType(tag: DW_TAG_typedef, name: "intmax_t", scope: !18, file: !19, line: 27, baseType: !151)
!151 = !DIDerivedType(tag: DW_TAG_typedef, name: "int64_t", file: !152, line: 27, baseType: !153)
!152 = !DIFile(filename: "/usr/include/bits/stdint-intn.h", directory: "")
!153 = !DIDerivedType(tag: DW_TAG_typedef, name: "__int64_t", file: !43, line: 44, baseType: !113)
!154 = !DISubprogram(name: "make_numeric", linkageName: "_ZN6String12make_numericEmib", scope: !18, file: !19, line: 76, type: !155, scopeLine: 76, flags: DIFlagPublic | DIFlagPrototyped | DIFlagStaticMember, spFlags: DISPFlagOptimized)
!155 = !DISubroutineType(types: !156)
!156 = !{!18, !157, !33, !97}
!157 = !DIDerivedType(tag: DW_TAG_typedef, name: "uintmax_t", scope: !18, file: !19, line: 28, baseType: !158)
!158 = !DIDerivedType(tag: DW_TAG_typedef, name: "uint64_t", file: !41, line: 27, baseType: !159)
!159 = !DIDerivedType(tag: DW_TAG_typedef, name: "__uint64_t", file: !43, line: 45, baseType: !117)
!160 = !DISubprogram(name: "data", linkageName: "_ZNK6String4dataEv", scope: !18, file: !19, line: 78, type: !161, scopeLine: 78, flags: DIFlagPublic | DIFlagPrototyped, spFlags: DISPFlagOptimized)
!161 = !DISubroutineType(types: !162)
!162 = !{!31, !163}
!163 = !DIDerivedType(tag: DW_TAG_pointer_type, baseType: !71, size: 64, flags: DIFlagArtificial | DIFlagObjectPointer)
!164 = !DISubprogram(name: "length", linkageName: "_ZNK6String6lengthEv", scope: !18, file: !19, line: 79, type: !165, scopeLine: 79, flags: DIFlagPublic | DIFlagPrototyped, spFlags: DISPFlagOptimized)
!165 = !DISubroutineType(types: !166)
!166 = !{!33, !163}
!167 = !DISubprogram(name: "c_str", linkageName: "_ZNK6String5c_strEv", scope: !18, file: !19, line: 81, type: !161, scopeLine: 81, flags: DIFlagPublic | DIFlagPrototyped, spFlags: DISPFlagOptimized)
!168 = !DISubprogram(name: "operator int (String::*)() const", linkageName: "_ZNK6StringcvMS_KFivEEv", scope: !18, file: !19, line: 83, type: !169, scopeLine: 83, flags: DIFlagPublic | DIFlagPrototyped, spFlags: DISPFlagOptimized)
!169 = !DISubroutineType(types: !170)
!170 = !{!171, !163}
!171 = !DIDerivedType(tag: DW_TAG_typedef, name: "unspecified_bool_type", scope: !18, file: !19, line: 24, baseType: !172)
!172 = !DIDerivedType(tag: DW_TAG_ptr_to_member_type, baseType: !165, size: 128, extraData: !18)
!173 = !DISubprogram(name: "empty", linkageName: "_ZNK6String5emptyEv", scope: !18, file: !19, line: 84, type: !174, scopeLine: 84, flags: DIFlagPublic | DIFlagPrototyped, spFlags: DISPFlagOptimized)
!174 = !DISubroutineType(types: !175)
!175 = !{!97, !163}
!176 = !DISubprogram(name: "operator!", linkageName: "_ZNK6StringntEv", scope: !18, file: !19, line: 85, type: !174, scopeLine: 85, flags: DIFlagPublic | DIFlagPrototyped, spFlags: DISPFlagOptimized)
!177 = !DISubprogram(name: "begin", linkageName: "_ZNK6String5beginEv", scope: !18, file: !19, line: 87, type: !178, scopeLine: 87, flags: DIFlagPublic | DIFlagPrototyped, spFlags: DISPFlagOptimized)
!178 = !DISubroutineType(types: !179)
!179 = !{!180, !163}
!180 = !DIDerivedType(tag: DW_TAG_typedef, name: "const_iterator", scope: !18, file: !19, line: 21, baseType: !31)
!181 = !DISubprogram(name: "end", linkageName: "_ZNK6String3endEv", scope: !18, file: !19, line: 88, type: !178, scopeLine: 88, flags: DIFlagPublic | DIFlagPrototyped, spFlags: DISPFlagOptimized)
!182 = !DISubprogram(name: "operator[]", linkageName: "_ZNK6StringixEi", scope: !18, file: !19, line: 90, type: !183, scopeLine: 90, flags: DIFlagPublic | DIFlagPrototyped, spFlags: DISPFlagOptimized)
!183 = !DISubroutineType(types: !184)
!184 = !{!24, !163, !33}
!185 = !DISubprogram(name: "at", linkageName: "_ZNK6String2atEi", scope: !18, file: !19, line: 91, type: !183, scopeLine: 91, flags: DIFlagPublic | DIFlagPrototyped, spFlags: DISPFlagOptimized)
!186 = !DISubprogram(name: "front", linkageName: "_ZNK6String5frontEv", scope: !18, file: !19, line: 92, type: !187, scopeLine: 92, flags: DIFlagPublic | DIFlagPrototyped, spFlags: DISPFlagOptimized)
!187 = !DISubroutineType(types: !188)
!188 = !{!24, !163}
!189 = !DISubprogram(name: "back", linkageName: "_ZNK6String4backEv", scope: !18, file: !19, line: 93, type: !187, scopeLine: 93, flags: DIFlagPublic | DIFlagPrototyped, spFlags: DISPFlagOptimized)
!190 = !DISubprogram(name: "hashcode", linkageName: "_ZN6String8hashcodeEPKcS1_", scope: !18, file: !19, line: 95, type: !191, scopeLine: 95, flags: DIFlagPublic | DIFlagPrototyped | DIFlagStaticMember, spFlags: DISPFlagOptimized)
!191 = !DISubroutineType(types: !192)
!192 = !{!40, !31, !31}
!193 = !DISubprogram(name: "hashcode", linkageName: "_ZN6String8hashcodeEPKhS1_", scope: !18, file: !19, line: 96, type: !194, scopeLine: 96, flags: DIFlagPublic | DIFlagPrototyped | DIFlagStaticMember, spFlags: DISPFlagOptimized)
!194 = !DISubroutineType(types: !195)
!195 = !{!40, !85, !85}
!196 = !DISubprogram(name: "hashcode", linkageName: "_ZNK6String8hashcodeEv", scope: !18, file: !19, line: 98, type: !197, scopeLine: 98, flags: DIFlagPublic | DIFlagPrototyped, spFlags: DISPFlagOptimized)
!197 = !DISubroutineType(types: !198)
!198 = !{!40, !163}
!199 = !DISubprogram(name: "substring", linkageName: "_ZNK6String9substringEPKcS1_", scope: !18, file: !19, line: 100, type: !200, scopeLine: 100, flags: DIFlagPublic | DIFlagPrototyped, spFlags: DISPFlagOptimized)
!200 = !DISubroutineType(types: !201)
!201 = !{!18, !163, !31, !31}
!202 = !DISubprogram(name: "substring", linkageName: "_ZNK6String9substringEii", scope: !18, file: !19, line: 101, type: !203, scopeLine: 101, flags: DIFlagPublic | DIFlagPrototyped, spFlags: DISPFlagOptimized)
!203 = !DISubroutineType(types: !204)
!204 = !{!18, !163, !33, !33}
!205 = !DISubprogram(name: "substring", linkageName: "_ZNK6String9substringEi", scope: !18, file: !19, line: 102, type: !206, scopeLine: 102, flags: DIFlagPublic | DIFlagPrototyped, spFlags: DISPFlagOptimized)
!206 = !DISubroutineType(types: !207)
!207 = !{!18, !163, !33}
!208 = !DISubprogram(name: "trim_space", linkageName: "_ZNK6String10trim_spaceEv", scope: !18, file: !19, line: 103, type: !209, scopeLine: 103, flags: DIFlagPublic | DIFlagPrototyped, spFlags: DISPFlagOptimized)
!209 = !DISubroutineType(types: !210)
!210 = !{!18, !163}
!211 = !DISubprogram(name: "equals", linkageName: "_ZNK6String6equalsERKS_", scope: !18, file: !19, line: 105, type: !212, scopeLine: 105, flags: DIFlagPublic | DIFlagPrototyped, spFlags: DISPFlagOptimized)
!212 = !DISubroutineType(types: !213)
!213 = !{!97, !163, !70}
!214 = !DISubprogram(name: "equals", linkageName: "_ZNK6String6equalsEPKci", scope: !18, file: !19, line: 106, type: !215, scopeLine: 106, flags: DIFlagPublic | DIFlagPrototyped, spFlags: DISPFlagOptimized)
!215 = !DISubroutineType(types: !216)
!216 = !{!97, !163, !31, !33}
!217 = !DISubprogram(name: "compare", linkageName: "_ZN6String7compareERKS_S1_", scope: !18, file: !19, line: 107, type: !218, scopeLine: 107, flags: DIFlagPublic | DIFlagPrototyped | DIFlagStaticMember, spFlags: DISPFlagOptimized)
!218 = !DISubroutineType(types: !219)
!219 = !{!33, !70, !70}
!220 = !DISubprogram(name: "compare", linkageName: "_ZNK6String7compareERKS_", scope: !18, file: !19, line: 108, type: !221, scopeLine: 108, flags: DIFlagPublic | DIFlagPrototyped, spFlags: DISPFlagOptimized)
!221 = !DISubroutineType(types: !222)
!222 = !{!33, !163, !70}
!223 = !DISubprogram(name: "compare", linkageName: "_ZNK6String7compareEPKci", scope: !18, file: !19, line: 109, type: !224, scopeLine: 109, flags: DIFlagPublic | DIFlagPrototyped, spFlags: DISPFlagOptimized)
!224 = !DISubroutineType(types: !225)
!225 = !{!33, !163, !31, !33}
!226 = !DISubprogram(name: "starts_with", linkageName: "_ZNK6String11starts_withERKS_", scope: !18, file: !19, line: 110, type: !212, scopeLine: 110, flags: DIFlagPublic | DIFlagPrototyped, spFlags: DISPFlagOptimized)
!227 = !DISubprogram(name: "starts_with", linkageName: "_ZNK6String11starts_withEPKci", scope: !18, file: !19, line: 111, type: !215, scopeLine: 111, flags: DIFlagPublic | DIFlagPrototyped, spFlags: DISPFlagOptimized)
!228 = !DISubprogram(name: "glob_match", linkageName: "_ZNK6String10glob_matchERKS_", scope: !18, file: !19, line: 112, type: !212, scopeLine: 112, flags: DIFlagPublic | DIFlagPrototyped, spFlags: DISPFlagOptimized)
!229 = !DISubprogram(name: "find_left", linkageName: "_ZNK6String9find_leftEci", scope: !18, file: !19, line: 125, type: !230, scopeLine: 125, flags: DIFlagPublic | DIFlagPrototyped, spFlags: DISPFlagOptimized)
!230 = !DISubroutineType(types: !231)
!231 = !{!33, !163, !24, !33}
!232 = !DISubprogram(name: "find_left", linkageName: "_ZNK6String9find_leftERKS_i", scope: !18, file: !19, line: 126, type: !233, scopeLine: 126, flags: DIFlagPublic | DIFlagPrototyped, spFlags: DISPFlagOptimized)
!233 = !DISubroutineType(types: !234)
!234 = !{!33, !163, !70, !33}
!235 = !DISubprogram(name: "find_right", linkageName: "_ZNK6String10find_rightEci", scope: !18, file: !19, line: 127, type: !230, scopeLine: 127, flags: DIFlagPublic | DIFlagPrototyped, spFlags: DISPFlagOptimized)
!236 = !DISubprogram(name: "lower", linkageName: "_ZNK6String5lowerEv", scope: !18, file: !19, line: 129, type: !209, scopeLine: 129, flags: DIFlagPublic | DIFlagPrototyped, spFlags: DISPFlagOptimized)
!237 = !DISubprogram(name: "upper", linkageName: "_ZNK6String5upperEv", scope: !18, file: !19, line: 130, type: !209, scopeLine: 130, flags: DIFlagPublic | DIFlagPrototyped, spFlags: DISPFlagOptimized)
!238 = !DISubprogram(name: "printable", linkageName: "_ZNK6String9printableEv", scope: !18, file: !19, line: 131, type: !209, scopeLine: 131, flags: DIFlagPublic | DIFlagPrototyped, spFlags: DISPFlagOptimized)
!239 = !DISubprogram(name: "quoted_hex", linkageName: "_ZNK6String10quoted_hexEv", scope: !18, file: !19, line: 132, type: !209, scopeLine: 132, flags: DIFlagPublic | DIFlagPrototyped, spFlags: DISPFlagOptimized)
!240 = !DISubprogram(name: "encode_json", linkageName: "_ZNK6String11encode_jsonEv", scope: !18, file: !19, line: 133, type: !209, scopeLine: 133, flags: DIFlagPublic | DIFlagPrototyped, spFlags: DISPFlagOptimized)
!241 = !DISubprogram(name: "operator=", linkageName: "_ZN6StringaSERKS_", scope: !18, file: !19, line: 135, type: !242, scopeLine: 135, flags: DIFlagPublic | DIFlagPrototyped, spFlags: DISPFlagOptimized)
!242 = !DISubroutineType(types: !243)
!243 = !{!244, !66, !70}
!244 = !DIDerivedType(tag: DW_TAG_reference_type, baseType: !18, size: 64)
!245 = !DISubprogram(name: "operator=", linkageName: "_ZN6StringaSEOS_", scope: !18, file: !19, line: 137, type: !246, scopeLine: 137, flags: DIFlagPublic | DIFlagPrototyped, spFlags: DISPFlagOptimized)
!246 = !DISubroutineType(types: !247)
!247 = !{!244, !66, !75}
!248 = !DISubprogram(name: "operator=", linkageName: "_ZN6StringaSEPKc", scope: !18, file: !19, line: 139, type: !249, scopeLine: 139, flags: DIFlagPublic | DIFlagPrototyped, spFlags: DISPFlagOptimized)
!249 = !DISubroutineType(types: !250)
!250 = !{!244, !66, !31}
!251 = !DISubprogram(name: "swap", linkageName: "_ZN6String4swapERS_", scope: !18, file: !19, line: 141, type: !252, scopeLine: 141, flags: DIFlagPublic | DIFlagPrototyped, spFlags: DISPFlagOptimized)
!252 = !DISubroutineType(types: !253)
!253 = !{null, !66, !244}
!254 = !DISubprogram(name: "append", linkageName: "_ZN6String6appendERKS_", scope: !18, file: !19, line: 143, type: !68, scopeLine: 143, flags: DIFlagPublic | DIFlagPrototyped, spFlags: DISPFlagOptimized)
!255 = !DISubprogram(name: "append", linkageName: "_ZN6String6appendEPKc", scope: !18, file: !19, line: 144, type: !77, scopeLine: 144, flags: DIFlagPublic | DIFlagPrototyped, spFlags: DISPFlagOptimized)
!256 = !DISubprogram(name: "append", linkageName: "_ZN6String6appendEPKci", scope: !18, file: !19, line: 145, type: !80, scopeLine: 145, flags: DIFlagPublic | DIFlagPrototyped, spFlags: DISPFlagOptimized)
!257 = !DISubprogram(name: "append", linkageName: "_ZN6String6appendEPKcS1_", scope: !18, file: !19, line: 146, type: !89, scopeLine: 146, flags: DIFlagPublic | DIFlagPrototyped, spFlags: DISPFlagOptimized)
!258 = !DISubprogram(name: "append", linkageName: "_ZN6String6appendEc", scope: !18, file: !19, line: 147, type: !99, scopeLine: 147, flags: DIFlagPublic | DIFlagPrototyped, spFlags: DISPFlagOptimized)
!259 = !DISubprogram(name: "append_fill", linkageName: "_ZN6String11append_fillEii", scope: !18, file: !19, line: 148, type: !260, scopeLine: 148, flags: DIFlagPublic | DIFlagPrototyped, spFlags: DISPFlagOptimized)
!260 = !DISubroutineType(types: !261)
!261 = !{null, !66, !33, !33}
!262 = !DISubprogram(name: "append_uninitialized", linkageName: "_ZN6String20append_uninitializedEi", scope: !18, file: !19, line: 149, type: !263, scopeLine: 149, flags: DIFlagPublic | DIFlagPrototyped, spFlags: DISPFlagOptimized)
!263 = !DISubroutineType(types: !264)
!264 = !{!265, !66, !33}
!265 = !DIDerivedType(tag: DW_TAG_pointer_type, baseType: !24, size: 64)
!266 = !DISubprogram(name: "append_garbage", linkageName: "_ZN6String14append_garbageEi", scope: !18, file: !19, line: 150, type: !263, scopeLine: 150, flags: DIFlagPublic | DIFlagPrototyped, spFlags: DISPFlagOptimized)
!267 = !DISubprogram(name: "operator+=", linkageName: "_ZN6StringpLERKS_", scope: !18, file: !19, line: 152, type: !242, scopeLine: 152, flags: DIFlagPublic | DIFlagPrototyped, spFlags: DISPFlagOptimized)
!268 = !DISubprogram(name: "operator+=", linkageName: "_ZN6StringpLEPKc", scope: !18, file: !19, line: 153, type: !249, scopeLine: 153, flags: DIFlagPublic | DIFlagPrototyped, spFlags: DISPFlagOptimized)
!269 = !DISubprogram(name: "operator+=", linkageName: "_ZN6StringpLEc", scope: !18, file: !19, line: 154, type: !270, scopeLine: 154, flags: DIFlagPublic | DIFlagPrototyped, spFlags: DISPFlagOptimized)
!270 = !DISubroutineType(types: !271)
!271 = !{!244, !66, !24}
!272 = !DISubprogram(name: "is_shared", linkageName: "_ZNK6String9is_sharedEv", scope: !18, file: !19, line: 160, type: !174, scopeLine: 160, flags: DIFlagPublic | DIFlagPrototyped, spFlags: DISPFlagOptimized)
!273 = !DISubprogram(name: "is_stable", linkageName: "_ZNK6String9is_stableEv", scope: !18, file: !19, line: 161, type: !174, scopeLine: 161, flags: DIFlagPublic | DIFlagPrototyped, spFlags: DISPFlagOptimized)
!274 = !DISubprogram(name: "unique", linkageName: "_ZNK6String6uniqueEv", scope: !18, file: !19, line: 163, type: !209, scopeLine: 163, flags: DIFlagPublic | DIFlagPrototyped, spFlags: DISPFlagOptimized)
!275 = !DISubprogram(name: "unshared", linkageName: "_ZNK6String8unsharedEv", scope: !18, file: !19, line: 164, type: !209, scopeLine: 164, flags: DIFlagPublic | DIFlagPrototyped, spFlags: DISPFlagOptimized)
!276 = !DISubprogram(name: "compact", linkageName: "_ZNK6String7compactEv", scope: !18, file: !19, line: 165, type: !209, scopeLine: 165, flags: DIFlagPublic | DIFlagPrototyped, spFlags: DISPFlagOptimized)
!277 = !DISubprogram(name: "mutable_data", linkageName: "_ZN6String12mutable_dataEv", scope: !18, file: !19, line: 167, type: !278, scopeLine: 167, flags: DIFlagPublic | DIFlagPrototyped, spFlags: DISPFlagOptimized)
!278 = !DISubroutineType(types: !279)
!279 = !{!265, !66}
!280 = !DISubprogram(name: "mutable_c_str", linkageName: "_ZN6String13mutable_c_strEv", scope: !18, file: !19, line: 168, type: !278, scopeLine: 168, flags: DIFlagPublic | DIFlagPrototyped, spFlags: DISPFlagOptimized)
!281 = !DISubprogram(name: "make_out_of_memory", linkageName: "_ZN6String18make_out_of_memoryEv", scope: !18, file: !19, line: 170, type: !132, scopeLine: 170, flags: DIFlagPublic | DIFlagPrototyped | DIFlagStaticMember, spFlags: DISPFlagOptimized)
!282 = !DISubprogram(name: "out_of_memory", linkageName: "_ZNK6String13out_of_memoryEv", scope: !18, file: !19, line: 171, type: !174, scopeLine: 171, flags: DIFlagPublic | DIFlagPrototyped, spFlags: DISPFlagOptimized)
!283 = !DISubprogram(name: "out_of_memory_data", linkageName: "_ZN6String18out_of_memory_dataEv", scope: !18, file: !19, line: 172, type: !284, scopeLine: 172, flags: DIFlagPublic | DIFlagPrototyped | DIFlagStaticMember, spFlags: DISPFlagOptimized)
!284 = !DISubroutineType(types: !285)
!285 = !{!31}
!286 = !DISubprogram(name: "out_of_memory_length", linkageName: "_ZN6String20out_of_memory_lengthEv", scope: !18, file: !19, line: 173, type: !287, scopeLine: 173, flags: DIFlagPublic | DIFlagPrototyped | DIFlagStaticMember, spFlags: DISPFlagOptimized)
!287 = !DISubroutineType(types: !288)
!288 = !{!33}
!289 = !DISubprogram(name: "empty_data", linkageName: "_ZN6String10empty_dataEv", scope: !18, file: !19, line: 174, type: !284, scopeLine: 174, flags: DIFlagPublic | DIFlagPrototyped | DIFlagStaticMember, spFlags: DISPFlagOptimized)
!290 = !DISubprogram(name: "skip_utf8_char", linkageName: "_ZN6String14skip_utf8_charEPKcS1_", scope: !18, file: !19, line: 180, type: !291, scopeLine: 180, flags: DIFlagPublic | DIFlagPrototyped | DIFlagStaticMember, spFlags: DISPFlagOptimized)
!291 = !DISubroutineType(types: !292)
!292 = !{!31, !31, !31}
!293 = !DISubprogram(name: "skip_utf8_char", linkageName: "_ZN6String14skip_utf8_charEPKhS1_", scope: !18, file: !19, line: 181, type: !294, scopeLine: 181, flags: DIFlagPublic | DIFlagPrototyped | DIFlagStaticMember, spFlags: DISPFlagOptimized)
!294 = !DISubroutineType(types: !295)
!295 = !{!85, !85, !85}
!296 = !DISubprogram(name: "assign_memo", linkageName: "_ZNK6String11assign_memoEPKciPNS_6memo_tE", scope: !18, file: !19, line: 256, type: !297, scopeLine: 256, flags: DIFlagPrototyped, spFlags: DISPFlagOptimized)
!297 = !DISubroutineType(types: !298)
!298 = !{null, !163, !31, !33, !35}
!299 = !DISubprogram(name: "String", scope: !18, file: !19, line: 263, type: !300, scopeLine: 263, flags: DIFlagPrototyped, spFlags: DISPFlagOptimized)
!300 = !DISubroutineType(types: !301)
!301 = !{null, !66, !31, !33, !35}
!302 = !DISubprogram(name: "assign", linkageName: "_ZNK6String6assignERKS_", scope: !18, file: !19, line: 267, type: !303, scopeLine: 267, flags: DIFlagPrototyped, spFlags: DISPFlagOptimized)
!303 = !DISubroutineType(types: !304)
!304 = !{null, !163, !70}
!305 = !DISubprogram(name: "deref", linkageName: "_ZNK6String5derefEv", scope: !18, file: !19, line: 271, type: !306, scopeLine: 271, flags: DIFlagPrototyped, spFlags: DISPFlagOptimized)
!306 = !DISubroutineType(types: !307)
!307 = !{null, !163}
!308 = !DISubprogram(name: "assign", linkageName: "_ZN6String6assignEPKcib", scope: !18, file: !19, line: 280, type: !309, scopeLine: 280, flags: DIFlagPrototyped, spFlags: DISPFlagOptimized)
!309 = !DISubroutineType(types: !310)
!310 = !{null, !66, !31, !33, !97}
!311 = !DISubprogram(name: "assign_out_of_memory", linkageName: "_ZN6String20assign_out_of_memoryEv", scope: !18, file: !19, line: 281, type: !64, scopeLine: 281, flags: DIFlagPrototyped, spFlags: DISPFlagOptimized)
!312 = !DISubprogram(name: "append", linkageName: "_ZN6String6appendEPKciPNS_6memo_tE", scope: !18, file: !19, line: 282, type: !300, scopeLine: 282, flags: DIFlagPrototyped, spFlags: DISPFlagOptimized)
!313 = !DISubprogram(name: "hard_make_stable", linkageName: "_ZN6String16hard_make_stableEPKci", scope: !18, file: !19, line: 283, type: !142, scopeLine: 283, flags: DIFlagPrototyped | DIFlagStaticMember, spFlags: DISPFlagOptimized)
!314 = !DISubprogram(name: "absent_memo", linkageName: "_ZN6String11absent_memoEv", scope: !18, file: !19, line: 284, type: !315, scopeLine: 284, flags: DIFlagPrototyped | DIFlagStaticMember, spFlags: DISPFlagOptimized)
!315 = !DISubroutineType(types: !316)
!316 = !{!35}
!317 = !DISubprogram(name: "create_memo", linkageName: "_ZN6String11create_memoEPcii", scope: !18, file: !19, line: 287, type: !318, scopeLine: 287, flags: DIFlagPrototyped | DIFlagStaticMember, spFlags: DISPFlagOptimized)
!318 = !DISubroutineType(types: !319)
!319 = !{!35, !265, !33, !33}
!320 = !DISubprogram(name: "delete_memo", linkageName: "_ZN6String11delete_memoEPNS_6memo_tE", scope: !18, file: !19, line: 288, type: !321, scopeLine: 288, flags: DIFlagPrototyped | DIFlagStaticMember, spFlags: DISPFlagOptimized)
!321 = !DISubroutineType(types: !322)
!322 = !{null, !35}
!323 = !DISubprogram(name: "hard_c_str", linkageName: "_ZNK6String10hard_c_strEv", scope: !18, file: !19, line: 289, type: !161, scopeLine: 289, flags: DIFlagPrototyped, spFlags: DISPFlagOptimized)
!324 = !DISubprogram(name: "hard_equals", linkageName: "_ZNK6String11hard_equalsEPKci", scope: !18, file: !19, line: 290, type: !215, scopeLine: 290, flags: DIFlagPrototyped, spFlags: DISPFlagOptimized)
!325 = !DISubprogram(name: "make_claim", linkageName: "_ZN6String10make_claimEPcii", scope: !18, file: !19, line: 299, type: !326, scopeLine: 299, flags: DIFlagPrototyped | DIFlagStaticMember, spFlags: DISPFlagOptimized)
!326 = !DISubroutineType(types: !327)
!327 = !{!18, !265, !33, !33}
!328 = !DIDerivedType(tag: DW_TAG_member, name: "_read_hook", scope: !14, file: !15, line: 293, baseType: !329, size: 64, offset: 192)
!329 = distinct !DICompositeType(tag: DW_TAG_union_type, scope: !14, file: !15, line: 290, size: 64, flags: DIFlagTypePassByValue, elements: !330, identifier: "_ZTSN7HandlerUt1_E")
!330 = !{!331, !339}
!331 = !DIDerivedType(tag: DW_TAG_member, name: "h", scope: !329, file: !15, line: 291, baseType: !332, size: 64)
!332 = !DIDerivedType(tag: DW_TAG_typedef, name: "HandlerCallback", file: !15, line: 13, baseType: !333)
!333 = !DIDerivedType(tag: DW_TAG_pointer_type, baseType: !334, size: 64)
!334 = !DISubroutineType(types: !335)
!335 = !{!33, !33, !244, !8, !12, !336}
!336 = !DIDerivedType(tag: DW_TAG_pointer_type, baseType: !337, size: 64)
!337 = !DICompositeType(tag: DW_TAG_class_type, name: "ErrorHandler", file: !338, line: 90, flags: DIFlagFwdDecl, identifier: "_ZTS12ErrorHandler")
!338 = !DIFile(filename: "../dummy_inc/click/error.hh", directory: "/home/john/projects/click/ir-dir")
!339 = !DIDerivedType(tag: DW_TAG_member, name: "r", scope: !329, file: !15, line: 292, baseType: !340, size: 64)
!340 = !DIDerivedType(tag: DW_TAG_typedef, name: "ReadHandlerCallback", file: !15, line: 15, baseType: !341)
!341 = !DIDerivedType(tag: DW_TAG_pointer_type, baseType: !342, size: 64)
!342 = !DISubroutineType(types: !343)
!343 = !{!18, !8, !344}
!344 = !DIDerivedType(tag: DW_TAG_pointer_type, baseType: null, size: 64)
!345 = !DIDerivedType(tag: DW_TAG_member, name: "_write_hook", scope: !14, file: !15, line: 297, baseType: !346, size: 64, offset: 256)
!346 = distinct !DICompositeType(tag: DW_TAG_union_type, scope: !14, file: !15, line: 294, size: 64, flags: DIFlagTypePassByValue, elements: !347, identifier: "_ZTSN7HandlerUt2_E")
!347 = !{!348, !349}
!348 = !DIDerivedType(tag: DW_TAG_member, name: "h", scope: !346, file: !15, line: 295, baseType: !332, size: 64)
!349 = !DIDerivedType(tag: DW_TAG_member, name: "w", scope: !346, file: !15, line: 296, baseType: !350, size: 64)
!350 = !DIDerivedType(tag: DW_TAG_typedef, name: "WriteHandlerCallback", file: !15, line: 16, baseType: !351)
!351 = !DIDerivedType(tag: DW_TAG_pointer_type, baseType: !352, size: 64)
!352 = !DISubroutineType(types: !353)
!353 = !{!33, !70, !8, !344, !336}
!354 = !DIDerivedType(tag: DW_TAG_member, name: "_read_user_data", scope: !14, file: !15, line: 298, baseType: !344, size: 64, offset: 320)
!355 = !DIDerivedType(tag: DW_TAG_member, name: "_write_user_data", scope: !14, file: !15, line: 299, baseType: !344, size: 64, offset: 384)
!356 = !DIDerivedType(tag: DW_TAG_member, name: "_flags", scope: !14, file: !15, line: 300, baseType: !40, size: 32, offset: 448)
!357 = !DIDerivedType(tag: DW_TAG_member, name: "_use_count", scope: !14, file: !15, line: 301, baseType: !33, size: 32, offset: 480)
!358 = !DIDerivedType(tag: DW_TAG_member, name: "_next_by_name", scope: !14, file: !15, line: 302, baseType: !33, size: 32, offset: 512)
!359 = !DIDerivedType(tag: DW_TAG_member, name: "the_blank_handler", scope: !14, file: !15, line: 304, baseType: !12, flags: DIFlagStaticMember)
!360 = !DISubprogram(name: "name", linkageName: "_ZNK7Handler4nameEv", scope: !14, file: !15, line: 62, type: !361, scopeLine: 62, flags: DIFlagPublic | DIFlagPrototyped, spFlags: DISPFlagOptimized)
!361 = !DISubroutineType(types: !362)
!362 = !{!70, !363}
!363 = !DIDerivedType(tag: DW_TAG_pointer_type, baseType: !13, size: 64, flags: DIFlagArtificial | DIFlagObjectPointer)
!364 = !DISubprogram(name: "flags", linkageName: "_ZNK7Handler5flagsEv", scope: !14, file: !15, line: 69, type: !365, scopeLine: 69, flags: DIFlagPublic | DIFlagPrototyped, spFlags: DISPFlagOptimized)
!365 = !DISubroutineType(types: !366)
!366 = !{!40, !363}
!367 = !DISubprogram(name: "user_data", linkageName: "_ZNK7Handler9user_dataEi", scope: !14, file: !15, line: 75, type: !368, scopeLine: 75, flags: DIFlagPublic | DIFlagPrototyped, spFlags: DISPFlagOptimized)
!368 = !DISubroutineType(types: !369)
!369 = !{!344, !363, !33}
!370 = !DISubprogram(name: "read_user_data", linkageName: "_ZNK7Handler14read_user_dataEv", scope: !14, file: !15, line: 80, type: !371, scopeLine: 80, flags: DIFlagPublic | DIFlagPrototyped, spFlags: DISPFlagOptimized)
!371 = !DISubroutineType(types: !372)
!372 = !{!344, !363}
!373 = !DISubprogram(name: "write_user_data", linkageName: "_ZNK7Handler15write_user_dataEv", scope: !14, file: !15, line: 85, type: !371, scopeLine: 85, flags: DIFlagPublic | DIFlagPrototyped, spFlags: DISPFlagOptimized)
!374 = !DISubprogram(name: "user_data1", linkageName: "_ZNK7Handler10user_data1Ev", scope: !14, file: !15, line: 90, type: !371, scopeLine: 90, flags: DIFlagPublic | DIFlagPrototyped, spFlags: DISPFlagOptimized)
!375 = !DISubprogram(name: "user_data2", linkageName: "_ZNK7Handler10user_data2Ev", scope: !14, file: !15, line: 91, type: !371, scopeLine: 91, flags: DIFlagPublic | DIFlagPrototyped, spFlags: DISPFlagOptimized)
!376 = !DISubprogram(name: "readable", linkageName: "_ZNK7Handler8readableEv", scope: !14, file: !15, line: 96, type: !377, scopeLine: 96, flags: DIFlagPublic | DIFlagPrototyped, spFlags: DISPFlagOptimized)
!377 = !DISubroutineType(types: !378)
!378 = !{!97, !363}
!379 = !DISubprogram(name: "read_param", linkageName: "_ZNK7Handler10read_paramEv", scope: !14, file: !15, line: 102, type: !377, scopeLine: 102, flags: DIFlagPublic | DIFlagPrototyped, spFlags: DISPFlagOptimized)
!380 = !DISubprogram(name: "read_visible", linkageName: "_ZNK7Handler12read_visibleEv", scope: !14, file: !15, line: 111, type: !377, scopeLine: 111, flags: DIFlagPublic | DIFlagPrototyped, spFlags: DISPFlagOptimized)
!381 = !DISubprogram(name: "writable", linkageName: "_ZNK7Handler8writableEv", scope: !14, file: !15, line: 116, type: !377, scopeLine: 116, flags: DIFlagPublic | DIFlagPrototyped, spFlags: DISPFlagOptimized)
!382 = !DISubprogram(name: "write_visible", linkageName: "_ZNK7Handler13write_visibleEv", scope: !14, file: !15, line: 125, type: !377, scopeLine: 125, flags: DIFlagPublic | DIFlagPrototyped, spFlags: DISPFlagOptimized)
!383 = !DISubprogram(name: "visible", linkageName: "_ZNK7Handler7visibleEv", scope: !14, file: !15, line: 130, type: !377, scopeLine: 130, flags: DIFlagPublic | DIFlagPrototyped, spFlags: DISPFlagOptimized)
!384 = !DISubprogram(name: "allow_concurrent_handlers", linkageName: "_ZNK7Handler25allow_concurrent_handlersEv", scope: !14, file: !15, line: 136, type: !377, scopeLine: 136, flags: DIFlagPublic | DIFlagPrototyped, spFlags: DISPFlagOptimized)
!385 = !DISubprogram(name: "allow_concurrent_threads", linkageName: "_ZNK7Handler24allow_concurrent_threadsEv", scope: !14, file: !15, line: 142, type: !377, scopeLine: 142, flags: DIFlagPublic | DIFlagPrototyped, spFlags: DISPFlagOptimized)
!386 = !DISubprogram(name: "raw", linkageName: "_ZNK7Handler3rawEv", scope: !14, file: !15, line: 164, type: !377, scopeLine: 164, flags: DIFlagPublic | DIFlagPrototyped, spFlags: DISPFlagOptimized)
!387 = !DISubprogram(name: "call_read", linkageName: "_ZNK7Handler9call_readEP7ElementRK6StringP12ErrorHandler", scope: !14, file: !15, line: 177, type: !388, scopeLine: 177, flags: DIFlagPublic | DIFlagPrototyped, spFlags: DISPFlagOptimized)
!388 = !DISubroutineType(types: !389)
!389 = !{!18, !363, !8, !70, !336}
!390 = !DISubprogram(name: "call_read", linkageName: "_ZNK7Handler9call_readEP7ElementP12ErrorHandler", scope: !14, file: !15, line: 186, type: !391, scopeLine: 186, flags: DIFlagPublic | DIFlagPrototyped, spFlags: DISPFlagOptimized)
!391 = !DISubroutineType(types: !392)
!392 = !{!18, !363, !8, !336}
!393 = !DISubprogram(name: "call_write", linkageName: "_ZNK7Handler10call_writeERK6StringP7ElementP12ErrorHandler", scope: !14, file: !15, line: 198, type: !394, scopeLine: 198, flags: DIFlagPublic | DIFlagPrototyped, spFlags: DISPFlagOptimized)
!394 = !DISubroutineType(types: !395)
!395 = !{!33, !363, !70, !8, !336}
!396 = !DISubprogram(name: "unparse_name", linkageName: "_ZNK7Handler12unparse_nameEP7Element", scope: !14, file: !15, line: 207, type: !397, scopeLine: 207, flags: DIFlagPublic | DIFlagPrototyped, spFlags: DISPFlagOptimized)
!397 = !DISubroutineType(types: !398)
!398 = !{!18, !363, !8}
!399 = !DISubprogram(name: "unparse_name", linkageName: "_ZN7Handler12unparse_nameEP7ElementRK6String", scope: !14, file: !15, line: 216, type: !400, scopeLine: 216, flags: DIFlagPublic | DIFlagPrototyped | DIFlagStaticMember, spFlags: DISPFlagOptimized)
!400 = !DISubroutineType(types: !401)
!401 = !{!18, !8, !70}
!402 = !DISubprogram(name: "blank_handler", linkageName: "_ZN7Handler13blank_handlerEv", scope: !14, file: !15, line: 223, type: !403, scopeLine: 223, flags: DIFlagPublic | DIFlagPrototyped | DIFlagStaticMember, spFlags: DISPFlagOptimized)
!403 = !DISubroutineType(types: !404)
!404 = !{!12}
!405 = !DISubprogram(name: "__call_read", linkageName: "_ZNK7Handler11__call_readEP7ElementPv", scope: !14, file: !15, line: 281, type: !406, scopeLine: 281, flags: DIFlagPublic | DIFlagPrototyped, spFlags: DISPFlagOptimized)
!406 = !DISubroutineType(types: !407)
!407 = !{!18, !363, !8, !344}
!408 = !DISubprogram(name: "Handler", scope: !14, file: !15, line: 306, type: !409, scopeLine: 306, flags: DIFlagPrototyped, spFlags: DISPFlagOptimized)
!409 = !DISubroutineType(types: !410)
!410 = !{null, !411, !70}
!411 = !DIDerivedType(tag: DW_TAG_pointer_type, baseType: !14, size: 64, flags: DIFlagArtificial | DIFlagObjectPointer)
!412 = !DISubprogram(name: "combine", linkageName: "_ZN7Handler7combineERKS_", scope: !14, file: !15, line: 308, type: !413, scopeLine: 308, flags: DIFlagPrototyped, spFlags: DISPFlagOptimized)
!413 = !DISubroutineType(types: !414)
!414 = !{null, !411, !415}
!415 = !DIDerivedType(tag: DW_TAG_reference_type, baseType: !13, size: 64)
!416 = !DISubprogram(name: "compatible", linkageName: "_ZNK7Handler10compatibleERKS_", scope: !14, file: !15, line: 309, type: !417, scopeLine: 309, flags: DIFlagPrototyped, spFlags: DISPFlagOptimized)
!417 = !DISubroutineType(types: !418)
!418 = !{!97, !363, !415}
!419 = !DIDerivedType(tag: DW_TAG_member, name: "_value", scope: !5, file: !4, line: 465, baseType: !18, size: 192, offset: 128)
!420 = !DISubprogram(name: "call_read", linkageName: "_ZN11HandlerCall9call_readEP7ElementRK6StringP12ErrorHandler", scope: !5, file: !4, line: 147, type: !421, scopeLine: 147, flags: DIFlagPublic | DIFlagPrototyped | DIFlagStaticMember, spFlags: DISPFlagOptimized)
!421 = !DISubroutineType(types: !422)
!422 = !{!18, !8, !70, !336}
!423 = !DISubprogram(name: "call_read", linkageName: "_ZN11HandlerCall9call_readERK6StringPK7ElementP12ErrorHandler", scope: !5, file: !4, line: 149, type: !424, scopeLine: 149, flags: DIFlagPublic | DIFlagPrototyped | DIFlagStaticMember, spFlags: DISPFlagOptimized)
!424 = !DISubroutineType(types: !425)
!425 = !{!18, !70, !426, !336}
!426 = !DIDerivedType(tag: DW_TAG_pointer_type, baseType: !427, size: 64)
!427 = !DIDerivedType(tag: DW_TAG_const_type, baseType: !9)
!428 = !DISubprogram(name: "call_write", linkageName: "_ZN11HandlerCall10call_writeEP7ElementRK6StringP12ErrorHandler", scope: !5, file: !4, line: 151, type: !429, scopeLine: 151, flags: DIFlagPublic | DIFlagPrototyped | DIFlagStaticMember, spFlags: DISPFlagOptimized)
!429 = !DISubroutineType(types: !430)
!430 = !{!33, !8, !70, !336}
!431 = !DISubprogram(name: "call_write", linkageName: "_ZN11HandlerCall10call_writeEP7ElementRK6StringS4_P12ErrorHandler", scope: !5, file: !4, line: 153, type: !432, scopeLine: 153, flags: DIFlagPublic | DIFlagPrototyped | DIFlagStaticMember, spFlags: DISPFlagOptimized)
!432 = !DISubroutineType(types: !433)
!433 = !{!33, !8, !70, !70, !336}
!434 = !DISubprogram(name: "call_write", linkageName: "_ZN11HandlerCall10call_writeERK6StringPK7ElementP12ErrorHandler", scope: !5, file: !4, line: 155, type: !435, scopeLine: 155, flags: DIFlagPublic | DIFlagPrototyped | DIFlagStaticMember, spFlags: DISPFlagOptimized)
!435 = !DISubroutineType(types: !436)
!436 = !{!33, !70, !426, !336}
