; ModuleID = '../elements/standard/ratedunqueue.cc'
source_filename = "../elements/standard/ratedunqueue.cc"
target datalayout = "e-m:e-p270:32:32-p271:32:32-p272:64:64-i64:64-f80:128-n8:16:32:64-S128"
target triple = "x86_64-pc-linux-gnu"

%class.atomic_uint32_t = type { i32 }
%class.RatedUnqueue = type <{ %class.Element.base, %class.TokenBucketX, %class.Task, %class.Timer, %class.NotifierSignal, i32, i32, i32, i32, i8, [7 x i8] }>
%class.Element.base = type <{ i32 (...)**, [2 x %"class.Element::Port"*], [4 x %"class.Element::Port"], [2 x i32], %class.Router*, i32 }>
%"class.Element::Port" = type <{ %class.Element*, i32, [4 x i8] }>
%class.Element = type <{ i32 (...)**, [2 x %"class.Element::Port"*], [4 x %"class.Element::Port"], [2 x i32], %class.Router*, i32, [4 x i8] }>
%class.Router = type opaque
%class.TokenBucketX = type { %class.TokenRateX, %class.TokenCounterX }
%class.TokenRateX = type { i32, i32, i32 }
%class.TokenCounterX = type { i32, i32 }
%class.Task = type { %struct.TaskLink.base, i32, i32, %"union.Task::Status", i1 (%class.Task*, i8*)*, i8*, %class.RouterThread*, %class.Element*, %"union.Task::Pending" }
%struct.TaskLink.base = type <{ %struct.TaskLink*, %struct.TaskLink*, i32 }>
%struct.TaskLink = type <{ %struct.TaskLink*, %struct.TaskLink*, i32, [4 x i8] }>
%"union.Task::Status" = type { i32 }
%class.RouterThread = type { %struct.TaskLink, i8, [7 x i8], %class.TimerSet, %class.SelectSet, [32 x i8], %class.Spinlock, %class.atomic_uint32_t, %class.atomic_uint32_t, %"union.Task::Pending", %"union.Task::Pending"*, %class.SpinlockIRQ, [31 x i8], %class.Master*, i32, i8, i32, i32, [40 x i8] }
%class.TimerSet = type <{ %class.Timestamp, i32, i32, i32, [4 x i8], %class.Vector, %class.Vector.0, %class.SimpleSpinlock, [7 x i8], %class.Timestamp, i32, [4 x i8] }>
%class.Vector = type { %class.vector_memory }
%class.vector_memory = type { %struct.char_array*, i32, i32 }
%struct.char_array = type { [16 x i8] }
%class.Vector.0 = type { %class.vector_memory.1 }
%class.vector_memory.1 = type { %struct.char_array.2*, i32, i32 }
%struct.char_array.2 = type opaque
%class.SimpleSpinlock = type { i8 }
%class.Timestamp = type { %"union.Timestamp::rep_t" }
%"union.Timestamp::rep_t" = type { i64 }
%class.SelectSet = type { [2 x i32], i8, %class.Vector.3, %class.Vector.4 }
%class.Vector.3 = type { %class.vector_memory.1 }
%class.Vector.4 = type { %class.vector_memory.5 }
%class.vector_memory.5 = type { %struct.char_array.6*, i32, i32 }
%struct.char_array.6 = type opaque
%class.Spinlock = type { i8 }
%class.SpinlockIRQ = type { i8 }
%class.Master = type opaque
%"union.Task::Pending" = type { %class.Task* }
%class.Timer = type { i32, %class.Timestamp, %union.anon, i8*, %class.Element*, %class.RouterThread* }
%union.anon = type { void (%class.Timer*, i8*)* }
%class.NotifierSignal = type <{ %"union.NotifierSignal::vmvalue", i32, [4 x i8] }>
%"union.NotifierSignal::vmvalue" = type { %class.atomic_uint32_t* }
%struct.anon = type { i16, i8, i8 }
%class.Vector.7 = type { %class.vector_memory.8 }
%class.vector_memory.8 = type { %class.String*, i32, i32 }
%class.String = type { %"struct.String::rep_t" }
%"struct.String::rep_t" = type { i8*, i32, %"struct.String::memo_t"* }
%"struct.String::memo_t" = type { i32, i32, i32, [8 x i8] }
%class.ErrorHandler = type <{ i32 (...)**, i32, [4 x i8] }>
%class.Args = type { %class.ArgContext.base, i8, i8, i8, %class.Vector.7*, %class.Vector.9, %"struct.Args::Slot"*, [48 x i8] }
%class.ArgContext.base = type <{ %class.Element*, %class.ErrorHandler*, i8*, i8 }>
%class.Vector.9 = type { %class.vector_memory.10 }
%class.vector_memory.10 = type { %struct.char_array.11*, i32, i32 }
%struct.char_array.11 = type opaque
%"struct.Args::Slot" = type { i32 (...)**, %"struct.Args::Slot"* }
%class.Notifier = type <{ i32 (...)**, %class.NotifierSignal, i32, [4 x i8] }>
%"struct.NotifierSignal::vmpair" = type { %class.atomic_uint32_t*, i32 }
%class.Packet = type { %class.atomic_uint32_t, %class.Packet*, i8*, i8*, i8*, i8*, %"struct.Packet::AllAnno", void (i8*, i64, i8*)*, i8* }
%"struct.Packet::AllAnno" = type { %"union.Packet::Anno", i8*, i8*, i8*, i32, [8 x i8], %class.Packet*, %class.Packet* }
%"union.Packet::Anno" = type { [6 x i64] }
%class.StringAccum = type { %"struct.StringAccum::rep_t" }
%"struct.StringAccum::rep_t" = type { i8*, i32, i32 }
%class.BandwidthArg = type { i32 }
%class.ArgContext = type <{ %class.Element*, %class.ErrorHandler*, i8*, i8, [7 x i8] }>
%class.IntArg = type { i32, i32 }
%class.SecondsArg = type { i32, i32 }

$_ZN6BigintIjjE6divideEPjPKjij = comdat any

$_ZNK7Element5inputEi = comdat any

$_ZNK7Element6outputEi = comdat any

$_ZNK7Element4Port4pushEP6Packet = comdat any

$_ZN12RatedUnqueueD2Ev = comdat any

$_ZN12RatedUnqueueD0Ev = comdat any

$_ZNK12RatedUnqueue10class_nameEv = comdat any

$_ZNK12RatedUnqueue10port_countEv = comdat any

$_ZNK12RatedUnqueue10processingEv = comdat any

$_ZNK12RatedUnqueue20can_live_reconfigureEv = comdat any

$__clang_call_terminate = comdat any

$_ZNK7Element4portEbi = comdat any

$_ZNK14NotifierSignal6activeEv = comdat any

$_Z14args_base_readI12BandwidthArgjEvP4ArgsPKciT_RT0_ = comdat any

$_ZN4Args9base_readI12BandwidthArgjEEvPKciT_RT0_ = comdat any

$_ZNK6String6lengthEv = comdat any

$_Z14args_base_readIjEvP4ArgsPKciRT_ = comdat any

$_ZN4Args9base_readIjEEvPKciRT_ = comdat any

$_Z14args_base_readI10SecondsArgjEvP4ArgsPKciT_RT0_ = comdat any

$_ZN4Args9base_readI10SecondsArgjEEvPKciT_RT0_ = comdat any

@_ZTV12RatedUnqueue = dso_local unnamed_addr constant { [29 x i8*] } { [29 x i8*] [i8* null, i8* bitcast ({ i8*, i8*, i8* }* @_ZTI12RatedUnqueue to i8*), i8* bitcast (void (%class.RatedUnqueue*)* @_ZN12RatedUnqueueD2Ev to i8*), i8* bitcast (void (%class.RatedUnqueue*)* @_ZN12RatedUnqueueD0Ev to i8*), i8* bitcast (void (%class.Element*, i32, %class.Packet*)* @_ZN7Element4pushEiP6Packet to i8*), i8* bitcast (%class.Packet* (%class.Element*, i32)* @_ZN7Element4pullEi to i8*), i8* bitcast (%class.Packet* (%class.Element*, %class.Packet*)* @_ZN7Element13simple_actionEP6Packet to i8*), i8* bitcast (i1 (%class.RatedUnqueue*, %class.Task*)* @_ZN12RatedUnqueue8run_taskEP4Task to i8*), i8* bitcast (void (%class.Element*, %class.Timer*)* @_ZN7Element9run_timerEP5Timer to i8*), i8* bitcast (void (%class.Element*, i32, i32)* @_ZN7Element8selectedEii to i8*), i8* bitcast (void (%class.Element*, i32)* @_ZN7Element8selectedEi to i8*), i8* bitcast (i8* (%class.RatedUnqueue*)* @_ZNK12RatedUnqueue10class_nameEv to i8*), i8* bitcast (i8* (%class.RatedUnqueue*)* @_ZNK12RatedUnqueue10port_countEv to i8*), i8* bitcast (i8* (%class.RatedUnqueue*)* @_ZNK12RatedUnqueue10processingEv to i8*), i8* bitcast (i8* (%class.Element*)* @_ZNK7Element9flow_codeEv to i8*), i8* bitcast (i8* (%class.Element*)* @_ZNK7Element5flagsEv to i8*), i8* bitcast (i8* (%class.Element*, i8*)* @_ZN7Element4castEPKc to i8*), i8* bitcast (i8* (%class.Element*, i1, i32, i8*)* @_ZN7Element9port_castEbiPKc to i8*), i8* bitcast (i32 (%class.Element*)* @_ZNK7Element15configure_phaseEv to i8*), i8* bitcast (i32 (%class.RatedUnqueue*, %class.Vector.7*, %class.ErrorHandler*)* @_ZN12RatedUnqueue9configureER6VectorI6StringEP12ErrorHandler to i8*), i8* bitcast (void (%class.RatedUnqueue*)* @_ZN12RatedUnqueue12add_handlersEv to i8*), i8* bitcast (i32 (%class.RatedUnqueue*, %class.ErrorHandler*)* @_ZN12RatedUnqueue10initializeEP12ErrorHandler to i8*), i8* bitcast (void (%class.Element*, %class.Element*, %class.ErrorHandler*)* @_ZN7Element10take_stateEPS_P12ErrorHandler to i8*), i8* bitcast (%class.Element* (%class.Element*)* @_ZNK7Element15hotswap_elementEv to i8*), i8* bitcast (void (%class.Element*, i32)* @_ZN7Element7cleanupENS_12CleanupStageE to i8*), i8* bitcast (void (%class.String*, %class.Element*)* @_ZNK7Element11declarationEv to i8*), i8* bitcast (i1 (%class.RatedUnqueue*)* @_ZNK12RatedUnqueue20can_live_reconfigureEv to i8*), i8* bitcast (i32 (%class.Element*, %class.Vector.7*, %class.ErrorHandler*)* @_ZN7Element16live_reconfigureER6VectorI6StringEP12ErrorHandler to i8*), i8* bitcast (i32 (%class.Element*, i32, i8*)* @_ZN7Element5llrpcEjPv to i8*)] }, align 8
@.str = private unnamed_addr constant [12 x i8] c"BURST_BYTES\00", align 1
@.str.1 = private unnamed_addr constant [11 x i8] c"BURST_SIZE\00", align 1
@.str.2 = private unnamed_addr constant [5 x i8] c"RATE\00", align 1
@.str.3 = private unnamed_addr constant [15 x i8] c"BURST_DURATION\00", align 1
@.str.4 = private unnamed_addr constant [50 x i8] c"cannot specify both BURST_DURATION and BURST_SIZE\00", align 1
@.str.5 = private unnamed_addr constant [22 x i8] c" calls to run_task()\0A\00", align 1
@.str.6 = private unnamed_addr constant [13 x i8] c" empty runs\0A\00", align 1
@.str.7 = private unnamed_addr constant [9 x i8] c" pushes\0A\00", align 1
@.str.8 = private unnamed_addr constant [15 x i8] c" failed pulls\0A\00", align 1
@.str.9 = private unnamed_addr constant [6 x i8] c"calls\00", align 1
@.str.10 = private unnamed_addr constant [5 x i8] c"rate\00", align 1
@.str.11 = private unnamed_addr constant [7 x i8] c"0 RATE\00", align 1
@.str.12 = private unnamed_addr constant [7 x i8] c"active\00", align 1
@.str.13 = private unnamed_addr constant [7 x i8] c"config\00", align 1
@_ZTVN10__cxxabiv120__si_class_type_infoE = external global i8*
@_ZTS12RatedUnqueue = dso_local constant [15 x i8] c"12RatedUnqueue\00", align 1
@_ZTI7Element = external constant i8*
@_ZTI12RatedUnqueue = dso_local constant { i8*, i8*, i8* } { i8* bitcast (i8** getelementptr inbounds (i8*, i8** @_ZTVN10__cxxabiv120__si_class_type_infoE, i64 2) to i8*), i8* getelementptr inbounds ([15 x i8], [15 x i8]* @_ZTS12RatedUnqueue, i32 0, i32 0), i8* bitcast (i8** @_ZTI7Element to i8*) }, align 8
@_ZN14NotifierSignal12static_valueE = external global %class.atomic_uint32_t, align 4
@.str.14 = private unnamed_addr constant [47 x i8] c"(unsigned) port < (unsigned) _nports[isoutput]\00", align 1
@.str.15 = private unnamed_addr constant [30 x i8] c"../dummy_inc/click/element.hh\00", align 1
@__PRETTY_FUNCTION__._ZNK7Element4portEbi = private unnamed_addr constant [52 x i8] c"const Element::Port &Element::port(bool, int) const\00", align 1
@.str.16 = private unnamed_addr constant [3 x i8] c"_e\00", align 1
@__PRETTY_FUNCTION__._ZNK7Element4Port4pullEv = private unnamed_addr constant [36 x i8] c"Packet *Element::Port::pull() const\00", align 1
@.str.17 = private unnamed_addr constant [8 x i8] c"_e && p\00", align 1
@__PRETTY_FUNCTION__._ZNK7Element4Port4pushEP6Packet = private unnamed_addr constant [41 x i8] c"void Element::Port::push(Packet *) const\00", align 1
@_ZN6String9null_dataE = external constant i8, align 1
@.str.20 = private unnamed_addr constant [18 x i8] c"_r.memo->refcount\00", align 1
@.str.21 = private unnamed_addr constant [29 x i8] c"../dummy_inc/click/string.hh\00", align 1
@__PRETTY_FUNCTION__._ZNK6String5derefEv = private unnamed_addr constant [27 x i8] c"void String::deref() const\00", align 1
@.str.22 = private unnamed_addr constant [13 x i8] c"RatedUnqueue\00", align 1
@_ZN7Element9PORTS_1_1E = external constant [0 x i8], align 1
@_ZN7Element12PULL_TO_PUSHE = external constant [0 x i8], align 1
@.str.23 = private unnamed_addr constant [15 x i8] c"invalid number\00", align 1
@.str.24 = private unnamed_addr constant [10 x i8] c"l[1] == 0\00", align 1
@.str.25 = private unnamed_addr constant [34 x i8] c"../dummy_inc/click/tokenbucket.hh\00", align 1
@__PRETTY_FUNCTION__._ZN10TokenRateXI26TokenBucketJiffyParametersIjEE6assignEjj = private unnamed_addr constant [162 x i8] c"void TokenRateX<TokenBucketJiffyParameters<unsigned int> >::assign(TokenRateX::token_type, TokenRateX::token_type) [P = TokenBucketJiffyParameters<unsigned int>]\00", align 1

@_ZN12RatedUnqueueC1Ev = dso_local unnamed_addr alias void (%class.RatedUnqueue*), void (%class.RatedUnqueue*)* @_ZN12RatedUnqueueC2Ev

; Function Attrs: sspstrong uwtable
define dso_local void @_ZN12RatedUnqueueC2Ev(%class.RatedUnqueue* %0) unnamed_addr #0 align 2 personality i8* bitcast (i32 (...)* @__gxx_personality_v0 to i8*) !dbg !4249 {
  call void @llvm.dbg.value(metadata %class.RatedUnqueue* %0, metadata !4251, metadata !DIExpression()), !dbg !4252
  %2 = bitcast %class.RatedUnqueue* %0 to %class.Element*, !dbg !4253
  tail call void @_ZN7ElementC2Ev(%class.Element* %2), !dbg !4254
  %3 = getelementptr %class.RatedUnqueue, %class.RatedUnqueue* %0, i64 0, i32 0, i32 0, !dbg !4253
  store i32 (...)** bitcast (i8** getelementptr inbounds ({ [29 x i8*] }, { [29 x i8*] }* @_ZTV12RatedUnqueue, i64 0, inrange i32 0, i64 2) to i32 (...)**), i32 (...)*** %3, align 8, !dbg !4253, !tbaa !4255
  call void @llvm.dbg.value(metadata %class.RatedUnqueue* %0, metadata !4258, metadata !DIExpression(DW_OP_plus_uconst, 108, DW_OP_stack_value)), !dbg !4262
  call void @llvm.dbg.value(metadata %class.RatedUnqueue* %0, metadata !4264, metadata !DIExpression(DW_OP_plus_uconst, 108, DW_OP_stack_value)), !dbg !4268
  call void @llvm.dbg.value(metadata %class.RatedUnqueue* %0, metadata !4270, metadata !DIExpression(DW_OP_plus_uconst, 108, DW_OP_stack_value)), !dbg !4274
  call void @llvm.dbg.value(metadata i1 false, metadata !4273, metadata !DIExpression()), !dbg !4274
  %4 = getelementptr inbounds %class.RatedUnqueue, %class.RatedUnqueue* %0, i64 0, i32 1, i32 0, i32 1, !dbg !4277
  store i32 1, i32* %4, align 4, !dbg !4278, !tbaa !4279
  %5 = getelementptr inbounds %class.RatedUnqueue, %class.RatedUnqueue* %0, i64 0, i32 1, i32 0, i32 0, !dbg !4283
  store i32 0, i32* %5, align 4, !dbg !4283, !tbaa !4285
  %6 = getelementptr inbounds %class.RatedUnqueue, %class.RatedUnqueue* %0, i64 0, i32 1, i32 0, i32 2, !dbg !4286
  store i32 -1, i32* %6, align 4, !dbg !4288
  call void @llvm.dbg.value(metadata %class.RatedUnqueue* %0, metadata !4289, metadata !DIExpression(DW_OP_plus_uconst, 108, DW_OP_plus_uconst, 12, DW_OP_stack_value)), !dbg !4293
  %7 = getelementptr inbounds %class.RatedUnqueue, %class.RatedUnqueue* %0, i64 0, i32 1, i32 1, i32 0, !dbg !4295
  %8 = getelementptr inbounds %class.RatedUnqueue, %class.RatedUnqueue* %0, i64 0, i32 2, !dbg !4296
  call void @llvm.dbg.value(metadata %class.Task* %8, metadata !4297, metadata !DIExpression()), !dbg !4301
  call void @llvm.dbg.value(metadata %class.Element* %2, metadata !4300, metadata !DIExpression()), !dbg !4301
  %9 = getelementptr inbounds %class.RatedUnqueue, %class.RatedUnqueue* %0, i64 0, i32 2, i32 2, !dbg !4303
  %10 = bitcast i32* %7 to i8*, !dbg !4303
  call void @llvm.memset.p0i8.i64(i8* nonnull align 4 dereferenceable(32) %10, i8 0, i64 32, i1 false), !dbg !4304
  store i32 -1, i32* %9, align 8, !dbg !4303, !tbaa !4305
  %11 = getelementptr inbounds %class.RatedUnqueue, %class.RatedUnqueue* %0, i64 0, i32 2, i32 4, !dbg !4308
  store i1 (%class.Task*, i8*)* null, i1 (%class.Task*, i8*)** %11, align 8, !dbg !4308, !tbaa !4309
  %12 = getelementptr inbounds %class.RatedUnqueue, %class.RatedUnqueue* %0, i64 0, i32 2, i32 5, !dbg !4310
  %13 = bitcast i8** %12 to %class.RatedUnqueue**, !dbg !4310
  store %class.RatedUnqueue* %0, %class.RatedUnqueue** %13, align 8, !dbg !4310, !tbaa !4311
  %14 = getelementptr inbounds %class.RatedUnqueue, %class.RatedUnqueue* %0, i64 0, i32 2, i32 6, !dbg !4312
  %15 = getelementptr inbounds %class.RatedUnqueue, %class.RatedUnqueue* %0, i64 0, i32 2, i32 3, !dbg !4313
  %16 = bitcast %"union.Task::Status"* %15 to %struct.anon*, !dbg !4315
  %17 = bitcast %"union.Task::Status"* %15 to i16*, !dbg !4315
  %18 = bitcast %class.RouterThread** %14 to i8*, !dbg !4316
  tail call void @llvm.memset.p0i8.i64(i8* nonnull align 8 dereferenceable(16) %18, i8 0, i64 16, i1 false), !dbg !4317
  store i16 -2, i16* %17, align 4, !dbg !4316, !tbaa !4318
  %19 = getelementptr inbounds %struct.anon, %struct.anon* %16, i64 0, i32 2, !dbg !4319
  store i8 0, i8* %19, align 1, !dbg !4320, !tbaa !4318
  %20 = getelementptr inbounds %struct.anon, %struct.anon* %16, i64 0, i32 1, !dbg !4321
  store i8 0, i8* %20, align 2, !dbg !4322, !tbaa !4318
  %21 = getelementptr inbounds %class.RatedUnqueue, %class.RatedUnqueue* %0, i64 0, i32 2, i32 8, !dbg !4323
  %22 = bitcast %"union.Task::Pending"* %21 to i64*, !dbg !4324
  store i64 0, i64* %22, align 8, !dbg !4325, !tbaa !4318
  %23 = getelementptr inbounds %class.RatedUnqueue, %class.RatedUnqueue* %0, i64 0, i32 3, !dbg !4326
  invoke void @_ZN5TimerC1EP4Task(%class.Timer* nonnull %23, %class.Task* nonnull %8)
          to label %24 unwind label %30, !dbg !4326

24:                                               ; preds = %1
  call void @llvm.dbg.value(metadata %class.RatedUnqueue* %0, metadata !4327, metadata !DIExpression(DW_OP_plus_uconst, 248, DW_OP_stack_value)), !dbg !4331
  %25 = getelementptr inbounds %class.RatedUnqueue, %class.RatedUnqueue* %0, i64 0, i32 4, i32 1, !dbg !4333
  store i32 1, i32* %25, align 8, !dbg !4333, !tbaa !4334
  %26 = getelementptr inbounds %class.RatedUnqueue, %class.RatedUnqueue* %0, i64 0, i32 4, i32 0, i32 0, !dbg !4336
  store %class.atomic_uint32_t* @_ZN14NotifierSignal12static_valueE, %class.atomic_uint32_t** %26, align 8, !dbg !4338, !tbaa !4318
  %27 = getelementptr inbounds %class.RatedUnqueue, %class.RatedUnqueue* %0, i64 0, i32 5, !dbg !4339
  %28 = getelementptr inbounds %class.RatedUnqueue, %class.RatedUnqueue* %0, i64 0, i32 9, !dbg !4340
  %29 = bitcast i32* %27 to i8*, !dbg !4340
  call void @llvm.memset.p0i8.i64(i8* nonnull align 8 dereferenceable(16) %29, i8 0, i64 16, i1 false), !dbg !4341
  store i8 1, i8* %28, align 8, !dbg !4340, !tbaa !4342
  ret void, !dbg !4349

30:                                               ; preds = %1
  %31 = landingpad { i8*, i32 }
          cleanup, !dbg !4349
  tail call void @_ZN4TaskD1Ev(%class.Task* nonnull %8) #13, !dbg !4350
  tail call void @_ZN7ElementD2Ev(%class.Element* %2) #13, !dbg !4350
  resume { i8*, i32 } %31, !dbg !4350
}

; Function Attrs: nounwind readnone speculatable willreturn
declare void @llvm.dbg.declare(metadata, metadata, metadata) #1

declare void @_ZN7ElementC2Ev(%class.Element*) unnamed_addr #2

declare i32 @__gxx_personality_v0(...)

declare void @_ZN5TimerC1EP4Task(%class.Timer*, %class.Task*) unnamed_addr #2

; Function Attrs: nounwind
declare void @_ZN4TaskD1Ev(%class.Task*) unnamed_addr #3

; Function Attrs: nounwind
declare void @_ZN7ElementD2Ev(%class.Element*) unnamed_addr #3

; Function Attrs: sspstrong uwtable
define dso_local i32 @_ZN12RatedUnqueue9configureER6VectorI6StringEP12ErrorHandler(%class.RatedUnqueue* %0, %class.Vector.7* dereferenceable(16) %1, %class.ErrorHandler* %2) unnamed_addr #0 align 2 !dbg !4352 {
  call void @llvm.dbg.value(metadata %class.RatedUnqueue* %0, metadata !4354, metadata !DIExpression()), !dbg !4357
  call void @llvm.dbg.value(metadata %class.Vector.7* %1, metadata !4355, metadata !DIExpression()), !dbg !4357
  call void @llvm.dbg.value(metadata %class.ErrorHandler* %2, metadata !4356, metadata !DIExpression()), !dbg !4357
  %4 = getelementptr inbounds %class.RatedUnqueue, %class.RatedUnqueue* %0, i64 0, i32 1, !dbg !4358
  call void @llvm.dbg.value(metadata %class.RatedUnqueue* %0, metadata !4359, metadata !DIExpression()), !dbg !4363
  %5 = bitcast %class.RatedUnqueue* %0 to i8* (%class.RatedUnqueue*)***, !dbg !4365
  %6 = load i8* (%class.RatedUnqueue*)**, i8* (%class.RatedUnqueue*)*** %5, align 8, !dbg !4365, !tbaa !4255
  %7 = getelementptr inbounds i8* (%class.RatedUnqueue*)*, i8* (%class.RatedUnqueue*)** %6, i64 9, !dbg !4365
  %8 = load i8* (%class.RatedUnqueue*)*, i8* (%class.RatedUnqueue*)** %7, align 8, !dbg !4365
  %9 = tail call i8* %8(%class.RatedUnqueue* %0), !dbg !4365
  %10 = load i8, i8* %9, align 1, !dbg !4365, !tbaa !4318
  %11 = icmp eq i8 %10, 66, !dbg !4366
  %12 = bitcast %class.RatedUnqueue* %0 to %class.Element*, !dbg !4367
  %13 = tail call i32 @_ZN12RatedUnqueue16configure_helperEP12TokenBucketXI26TokenBucketJiffyParametersIjEEbP7ElementR6VectorI6StringEP12ErrorHandler(%class.TokenBucketX* nonnull %4, i1 zeroext %11, %class.Element* %12, %class.Vector.7* nonnull dereferenceable(16) %1, %class.ErrorHandler* %2), !dbg !4368
  ret i32 %13, !dbg !4369
}

; Function Attrs: sspstrong uwtable
define dso_local i32 @_ZN12RatedUnqueue16configure_helperEP12TokenBucketXI26TokenBucketJiffyParametersIjEEbP7ElementR6VectorI6StringEP12ErrorHandler(%class.TokenBucketX* nocapture %0, i1 zeroext %1, %class.Element* %2, %class.Vector.7* dereferenceable(16) %3, %class.ErrorHandler* %4) local_unnamed_addr #0 align 2 personality i8* bitcast (i32 (...)* @__gxx_personality_v0 to i8*) !dbg !4370 {
  %6 = alloca i64, align 8
  %7 = alloca i32, align 4
  %8 = alloca i32, align 4
  %9 = alloca i32, align 4
  %10 = alloca %class.Args, align 8
  %11 = alloca [2 x i32], align 4
  call void @llvm.dbg.value(metadata %class.TokenBucketX* %0, metadata !4372, metadata !DIExpression()), !dbg !4392
  call void @llvm.dbg.value(metadata i1 %1, metadata !4373, metadata !DIExpression()), !dbg !4392
  call void @llvm.dbg.value(metadata %class.Element* %2, metadata !4374, metadata !DIExpression()), !dbg !4392
  call void @llvm.dbg.value(metadata %class.Vector.7* %3, metadata !4375, metadata !DIExpression()), !dbg !4392
  call void @llvm.dbg.value(metadata %class.ErrorHandler* %4, metadata !4376, metadata !DIExpression()), !dbg !4392
  %12 = bitcast i32* %7 to i8*, !dbg !4393
  call void @llvm.lifetime.start.p0i8(i64 4, i8* nonnull %12) #13, !dbg !4393
  %13 = bitcast i32* %8 to i8*, !dbg !4394
  call void @llvm.lifetime.start.p0i8(i64 4, i8* nonnull %13) #13, !dbg !4394
  call void @llvm.dbg.value(metadata i32 20, metadata !4378, metadata !DIExpression()), !dbg !4392
  store i32 20, i32* %8, align 4, !dbg !4395, !tbaa !4396
  %14 = bitcast i32* %9 to i8*, !dbg !4397
  call void @llvm.lifetime.start.p0i8(i64 4, i8* nonnull %14) #13, !dbg !4397
  %15 = select i1 %1, i8* getelementptr inbounds ([12 x i8], [12 x i8]* @.str, i64 0, i64 0), i8* getelementptr inbounds ([11 x i8], [11 x i8]* @.str.1, i64 0, i64 0), !dbg !4398
  call void @llvm.dbg.value(metadata i8* %15, metadata !4382, metadata !DIExpression()), !dbg !4392
  %16 = bitcast %class.Args* %10 to i8*, !dbg !4399
  call void @llvm.lifetime.start.p0i8(i64 112, i8* nonnull %16) #13, !dbg !4399
  call void @llvm.dbg.declare(metadata %class.Args* %10, metadata !4383, metadata !DIExpression()), !dbg !4400
  call void @_ZN4ArgsC1ERK6VectorI6StringEPK7ElementP12ErrorHandler(%class.Args* nonnull %10, %class.Vector.7* nonnull dereferenceable(16) %3, %class.Element* %2, %class.ErrorHandler* %4), !dbg !4400
  br i1 %1, label %17, label %22, !dbg !4401

17:                                               ; preds = %5
  call void @llvm.dbg.value(metadata i32 0, metadata !4402, metadata !DIExpression()), !dbg !4411
  call void @llvm.dbg.value(metadata %class.Args* %10, metadata !4408, metadata !DIExpression()), !dbg !4411
  call void @llvm.dbg.value(metadata i8* getelementptr inbounds ([5 x i8], [5 x i8]* @.str.2, i64 0, i64 0), metadata !4409, metadata !DIExpression()), !dbg !4411
  call void @llvm.dbg.value(metadata i32* %7, metadata !4410, metadata !DIExpression()), !dbg !4411
  call void @llvm.dbg.value(metadata i32 0, metadata !4414, metadata !DIExpression()), !dbg !4424
  call void @llvm.dbg.value(metadata %class.Args* %10, metadata !4420, metadata !DIExpression()), !dbg !4424
  call void @llvm.dbg.value(metadata i8* getelementptr inbounds ([5 x i8], [5 x i8]* @.str.2, i64 0, i64 0), metadata !4421, metadata !DIExpression()), !dbg !4424
  call void @llvm.dbg.value(metadata i32 3, metadata !4422, metadata !DIExpression()), !dbg !4424
  call void @llvm.dbg.value(metadata i32* %7, metadata !4423, metadata !DIExpression()), !dbg !4424
  invoke void @_Z14args_base_readI12BandwidthArgjEvP4ArgsPKciT_RT0_(%class.Args* nonnull %10, i8* getelementptr inbounds ([5 x i8], [5 x i8]* @.str.2, i64 0, i64 0), i32 3, i32 0, i32* nonnull dereferenceable(4) %7)
          to label %23 unwind label %18, !dbg !4426

18:                                               ; preds = %24, %23, %77, %22, %17, %36, %27
  %19 = landingpad { i8*, i32 }
          cleanup, !dbg !4427
  %20 = extractvalue { i8*, i32 } %19, 0, !dbg !4427
  %21 = extractvalue { i8*, i32 } %19, 1, !dbg !4427
  br label %110, !dbg !4427

22:                                               ; preds = %5
  call void @llvm.dbg.value(metadata %class.Args* %10, metadata !4428, metadata !DIExpression()), !dbg !4436
  call void @llvm.dbg.value(metadata i8* getelementptr inbounds ([5 x i8], [5 x i8]* @.str.2, i64 0, i64 0), metadata !4434, metadata !DIExpression()), !dbg !4436
  call void @llvm.dbg.value(metadata i32* %7, metadata !4435, metadata !DIExpression()), !dbg !4436
  call void @llvm.dbg.value(metadata %class.Args* %10, metadata !4438, metadata !DIExpression()), !dbg !4447
  call void @llvm.dbg.value(metadata i8* getelementptr inbounds ([5 x i8], [5 x i8]* @.str.2, i64 0, i64 0), metadata !4444, metadata !DIExpression()), !dbg !4447
  call void @llvm.dbg.value(metadata i32 3, metadata !4445, metadata !DIExpression()), !dbg !4447
  call void @llvm.dbg.value(metadata i32* %7, metadata !4446, metadata !DIExpression()), !dbg !4447
  invoke void @_Z14args_base_readIjEvP4ArgsPKciRT_(%class.Args* nonnull %10, i8* getelementptr inbounds ([5 x i8], [5 x i8]* @.str.2, i64 0, i64 0), i32 3, i32* nonnull dereferenceable(4) %7)
          to label %23 unwind label %18, !dbg !4449

23:                                               ; preds = %22, %17
  call void @llvm.dbg.value(metadata i64 3, metadata !4450, metadata !DIExpression()), !dbg !4459
  call void @llvm.dbg.value(metadata %class.Args* %10, metadata !4456, metadata !DIExpression()), !dbg !4459
  call void @llvm.dbg.value(metadata i8* getelementptr inbounds ([15 x i8], [15 x i8]* @.str.3, i64 0, i64 0), metadata !4457, metadata !DIExpression()), !dbg !4459
  call void @llvm.dbg.value(metadata i32* %8, metadata !4458, metadata !DIExpression()), !dbg !4459
  call void @llvm.dbg.value(metadata i64 3, metadata !4462, metadata !DIExpression()), !dbg !4472
  call void @llvm.dbg.value(metadata %class.Args* %10, metadata !4468, metadata !DIExpression()), !dbg !4472
  call void @llvm.dbg.value(metadata i8* getelementptr inbounds ([15 x i8], [15 x i8]* @.str.3, i64 0, i64 0), metadata !4469, metadata !DIExpression()), !dbg !4472
  call void @llvm.dbg.value(metadata i32 0, metadata !4470, metadata !DIExpression()), !dbg !4472
  call void @llvm.dbg.value(metadata i32* %8, metadata !4471, metadata !DIExpression()), !dbg !4472
  invoke void @_Z14args_base_readI10SecondsArgjEvP4ArgsPKciT_RT0_(%class.Args* nonnull %10, i8* getelementptr inbounds ([15 x i8], [15 x i8]* @.str.3, i64 0, i64 0), i32 0, i64 3, i32* nonnull dereferenceable(4) %8)
          to label %24 unwind label %18, !dbg !4474

24:                                               ; preds = %23
  call void @llvm.dbg.value(metadata %class.Args* %10, metadata !4475, metadata !DIExpression()), !dbg !4479
  %25 = getelementptr inbounds %class.Args, %class.Args* %10, i64 0, i32 0, i32 3, !dbg !4481
  %26 = load i8, i8* %25, align 8, !dbg !4481, !tbaa !4482, !range !4484
  call void @llvm.dbg.value(metadata %class.Args* %10, metadata !4485, metadata !DIExpression()), !dbg !4491
  call void @llvm.dbg.value(metadata i8* %15, metadata !4489, metadata !DIExpression()), !dbg !4491
  call void @llvm.dbg.value(metadata i32* %9, metadata !4490, metadata !DIExpression()), !dbg !4491
  call void @llvm.dbg.value(metadata %class.Args* %10, metadata !4438, metadata !DIExpression()), !dbg !4493
  call void @llvm.dbg.value(metadata i8* %15, metadata !4444, metadata !DIExpression()), !dbg !4493
  call void @llvm.dbg.value(metadata i32 0, metadata !4445, metadata !DIExpression()), !dbg !4493
  call void @llvm.dbg.value(metadata i32* %9, metadata !4446, metadata !DIExpression()), !dbg !4493
  invoke void @_Z14args_base_readIjEvP4ArgsPKciRT_(%class.Args* nonnull %10, i8* %15, i32 0, i32* nonnull dereferenceable(4) %9)
          to label %27 unwind label %18, !dbg !4495

27:                                               ; preds = %24
  call void @llvm.dbg.value(metadata %class.Args* %10, metadata !4475, metadata !DIExpression()), !dbg !4496
  %28 = load i8, i8* %25, align 8, !dbg !4498, !tbaa !4482, !range !4484
  %29 = invoke i32 @_ZN4Args8completeEv(%class.Args* nonnull %10)
          to label %30 unwind label %18, !dbg !4499

30:                                               ; preds = %27
  %31 = icmp slt i32 %29, 0, !dbg !4500
  br i1 %31, label %108, label %32, !dbg !4501

32:                                               ; preds = %30
  call void @llvm.dbg.value(metadata i8 %26, metadata !4380, metadata !DIExpression()), !dbg !4392
  %33 = icmp eq i8 %26, 0, !dbg !4502
  %34 = icmp eq i8 %28, 0, !dbg !4503
  %35 = or i1 %33, %34, !dbg !4504
  br i1 %35, label %38, label %36, !dbg !4504

36:                                               ; preds = %32
  %37 = invoke i32 (%class.ErrorHandler*, i8*, ...) @_ZN12ErrorHandler5errorEPKcz(%class.ErrorHandler* %4, i8* getelementptr inbounds ([50 x i8], [50 x i8]* @.str.4, i64 0, i64 0))
          to label %108 unwind label %18, !dbg !4505

38:                                               ; preds = %32
  call void @llvm.dbg.value(metadata i8 %28, metadata !4381, metadata !DIExpression()), !dbg !4392
  br i1 %34, label %39, label %58, !dbg !4506

39:                                               ; preds = %38
  %40 = bitcast [2 x i32]* %11 to i8*, !dbg !4507
  call void @llvm.lifetime.start.p0i8(i64 8, i8* nonnull %40) #13, !dbg !4507
  call void @llvm.dbg.declare(metadata [2 x i32]* %11, metadata !4384, metadata !DIExpression()), !dbg !4508
  %41 = getelementptr inbounds [2 x i32], [2 x i32]* %11, i64 0, i64 1, !dbg !4509
  %42 = getelementptr inbounds [2 x i32], [2 x i32]* %11, i64 0, i64 0, !dbg !4510
  %43 = load i32, i32* %7, align 4, !dbg !4511, !tbaa !4396
  call void @llvm.dbg.value(metadata i32 %43, metadata !4377, metadata !DIExpression()), !dbg !4392
  %44 = load i32, i32* %8, align 4, !dbg !4512, !tbaa !4396
  call void @llvm.dbg.value(metadata i32 %44, metadata !4378, metadata !DIExpression()), !dbg !4392
  call void @llvm.dbg.value(metadata i32* %41, metadata !4513, metadata !DIExpression()), !dbg !4519
  call void @llvm.dbg.value(metadata i32* %42, metadata !4516, metadata !DIExpression()), !dbg !4519
  call void @llvm.dbg.value(metadata i32 %43, metadata !4517, metadata !DIExpression()), !dbg !4519
  call void @llvm.dbg.value(metadata i32 %44, metadata !4518, metadata !DIExpression()), !dbg !4519
  call void @llvm.dbg.value(metadata i32 %43, metadata !4521, metadata !DIExpression()) #13, !dbg !4530
  call void @llvm.dbg.value(metadata i32 %44, metadata !4527, metadata !DIExpression()) #13, !dbg !4530
  call void @llvm.dbg.value(metadata i32* %42, metadata !4528, metadata !DIExpression()) #13, !dbg !4530
  call void @llvm.dbg.value(metadata i32* %41, metadata !4529, metadata !DIExpression()) #13, !dbg !4530
  %45 = call { i32, i32 } asm "mul $2", "={ax},={dx},r,{ax},~{cc},~{dirflag},~{fpsr},~{flags}"(i32 %43, i32 %44) #14, !dbg !4532, !srcloc !4533
  %46 = extractvalue { i32, i32 } %45, 0, !dbg !4532
  %47 = extractvalue { i32, i32 } %45, 1, !dbg !4532
  store i32 %46, i32* %42, align 4, !dbg !4532, !tbaa !4396
  store i32 %47, i32* %41, align 4, !dbg !4532, !tbaa !4396
  %48 = invoke i32 @_ZN6BigintIjjE6divideEPjPKjij(i32* nonnull %42, i32* nonnull %42, i32 2, i32 1000)
          to label %49 unwind label %54, !dbg !4534

49:                                               ; preds = %39
  %50 = load i32, i32* %41, align 4, !dbg !4535, !tbaa !4396
  %51 = icmp eq i32 %50, 0, !dbg !4535
  %52 = load i32, i32* %42, align 4, !dbg !4535
  %53 = select i1 %51, i32 %52, i32 -1, !dbg !4535
  call void @llvm.dbg.value(metadata i32 %53, metadata !4379, metadata !DIExpression()), !dbg !4392
  store i32 %53, i32* %9, align 4, !dbg !4536, !tbaa !4396
  call void @llvm.lifetime.end.p0i8(i64 8, i8* nonnull %40) #13, !dbg !4537
  br label %58, !dbg !4538

54:                                               ; preds = %39
  %55 = landingpad { i8*, i32 }
          cleanup, !dbg !4539
  %56 = extractvalue { i8*, i32 } %55, 0, !dbg !4539
  %57 = extractvalue { i8*, i32 } %55, 1, !dbg !4539
  call void @llvm.lifetime.end.p0i8(i64 8, i8* nonnull %40) #13, !dbg !4537
  br label %110, !dbg !4537

58:                                               ; preds = %38, %49
  %59 = load i32, i32* %9, align 4, !dbg !4392, !tbaa !4396
  br i1 %1, label %60, label %64, !dbg !4540

60:                                               ; preds = %58
  call void @llvm.dbg.value(metadata i32 %59, metadata !4379, metadata !DIExpression()), !dbg !4392
  %61 = add i32 %59, 131072, !dbg !4541
  call void @llvm.dbg.value(metadata i32 %61, metadata !4389, metadata !DIExpression()), !dbg !4542
  %62 = icmp ult i32 %59, -131072, !dbg !4543
  %63 = select i1 %62, i32 %61, i32 -1, !dbg !4544
  call void @llvm.dbg.value(metadata i32 %63, metadata !4379, metadata !DIExpression()), !dbg !4392
  store i32 %63, i32* %9, align 4, !dbg !4545, !tbaa !4396
  br label %64, !dbg !4546

64:                                               ; preds = %58, %60
  %65 = phi i32 [ %63, %60 ], [ %59, %58 ], !dbg !4547
  %66 = load i32, i32* %7, align 4, !dbg !4548, !tbaa !4396
  call void @llvm.dbg.value(metadata i32 %66, metadata !4377, metadata !DIExpression()), !dbg !4392
  call void @llvm.dbg.value(metadata i32 %65, metadata !4379, metadata !DIExpression()), !dbg !4392
  %67 = icmp eq i32 %65, 0, !dbg !4547
  %68 = select i1 %67, i32 1, i32 %65, !dbg !4547
  call void @llvm.dbg.value(metadata %class.TokenBucketX* %0, metadata !4549, metadata !DIExpression()), !dbg !4554
  call void @llvm.dbg.value(metadata i32 %66, metadata !4552, metadata !DIExpression()), !dbg !4554
  call void @llvm.dbg.value(metadata i32 %68, metadata !4553, metadata !DIExpression()), !dbg !4554
  %69 = bitcast i64* %6 to [2 x i32]*
  call void @llvm.dbg.value(metadata %class.TokenBucketX* %0, metadata !4556, metadata !DIExpression()), !dbg !4567
  call void @llvm.dbg.value(metadata i32 %66, metadata !4559, metadata !DIExpression()), !dbg !4567
  call void @llvm.dbg.value(metadata i32 %68, metadata !4560, metadata !DIExpression()), !dbg !4567
  call void @llvm.dbg.value(metadata i32 %66, metadata !4559, metadata !DIExpression()), !dbg !4567
  call void @llvm.dbg.value(metadata i32 %68, metadata !4560, metadata !DIExpression()), !dbg !4567
  call void @llvm.dbg.value(metadata i32 1000, metadata !4561, metadata !DIExpression()), !dbg !4567
  %70 = icmp ne i32 %66, 0, !dbg !4569
  br i1 %70, label %71, label %77, !dbg !4570

71:                                               ; preds = %64
  %72 = add i32 %66, -1, !dbg !4571
  %73 = udiv i32 %72, 1000, !dbg !4572
  %74 = add nuw nsw i32 %73, 1, !dbg !4573
  call void @llvm.dbg.value(metadata i32 %74, metadata !4562, metadata !DIExpression()), !dbg !4574
  %75 = icmp ugt i32 %68, %73, !dbg !4575
  %76 = select i1 %75, i32 %68, i32 %74, !dbg !4577
  call void @llvm.dbg.value(metadata i32 %76, metadata !4560, metadata !DIExpression()), !dbg !4567
  br label %77, !dbg !4578

77:                                               ; preds = %71, %64
  %78 = phi i32 [ %76, %71 ], [ %68, %64 ], !dbg !4567
  call void @llvm.dbg.value(metadata i32 %78, metadata !4560, metadata !DIExpression()), !dbg !4567
  %79 = udiv i32 -1, %78, !dbg !4579
  %80 = getelementptr inbounds %class.TokenBucketX, %class.TokenBucketX* %0, i64 0, i32 0, i32 1, !dbg !4580
  store i32 %79, i32* %80, align 4, !dbg !4581, !tbaa !4279
  %81 = bitcast i64* %6 to i8*, !dbg !4582
  call void @llvm.lifetime.start.p0i8(i64 8, i8* nonnull %81) #13, !dbg !4582
  call void @llvm.dbg.declare(metadata [2 x i32]* %69, metadata !4565, metadata !DIExpression()), !dbg !4583
  call void @llvm.dbg.value(metadata i32 undef, metadata !4566, metadata !DIExpression()), !dbg !4567
  call void @llvm.dbg.value(metadata i32 undef, metadata !4566, metadata !DIExpression()), !dbg !4567
  %82 = bitcast i64* %6 to i32*, !dbg !4584
  call void @llvm.dbg.value(metadata i32 %79, metadata !4585, metadata !DIExpression()), !dbg !4595
  call void @llvm.dbg.value(metadata i32 0, metadata !4591, metadata !DIExpression()), !dbg !4595
  call void @llvm.dbg.value(metadata i32* %82, metadata !4588, metadata !DIExpression()), !dbg !4595
  call void @llvm.dbg.value(metadata i32 2, metadata !4590, metadata !DIExpression()), !dbg !4595
  call void @llvm.dbg.value(metadata i32* undef, metadata !4589, metadata !DIExpression()), !dbg !4595
  call void @llvm.dbg.value(metadata i32* undef, metadata !4589, metadata !DIExpression(DW_OP_plus_uconst, 4, DW_OP_stack_value)), !dbg !4595
  call void @llvm.dbg.value(metadata i32 %66, metadata !4517, metadata !DIExpression()), !dbg !4597
  call void @llvm.dbg.value(metadata i32 %79, metadata !4518, metadata !DIExpression()), !dbg !4597
  call void @llvm.dbg.value(metadata i32 %66, metadata !4521, metadata !DIExpression()) #13, !dbg !4599
  call void @llvm.dbg.value(metadata i32 %79, metadata !4527, metadata !DIExpression()) #13, !dbg !4599
  %83 = call { i32, i32 } asm "mul $2", "={ax},={dx},r,{ax},~{cc},~{dirflag},~{fpsr},~{flags}"(i32 %66, i32 %79) #14, !dbg !4601, !srcloc !4533
  %84 = extractvalue { i32, i32 } %83, 0, !dbg !4601
  %85 = extractvalue { i32, i32 } %83, 1, !dbg !4601
  call void @llvm.dbg.value(metadata i32 %84, metadata !4592, metadata !DIExpression()), !dbg !4602
  call void @llvm.dbg.value(metadata i32 %85, metadata !4594, metadata !DIExpression()), !dbg !4602
  call void @llvm.dbg.value(metadata i32 %85, metadata !4591, metadata !DIExpression()), !dbg !4595
  call void @llvm.dbg.value(metadata i32 %84, metadata !4592, metadata !DIExpression()), !dbg !4602
  call void @llvm.dbg.value(metadata i32 %85, metadata !4591, metadata !DIExpression()), !dbg !4595
  %86 = getelementptr inbounds i32, i32* %82, i64 1, !dbg !4603
  call void @llvm.dbg.value(metadata i32* %86, metadata !4588, metadata !DIExpression()), !dbg !4595
  store i32 %84, i32* %82, align 8, !dbg !4604, !tbaa !4396
  call void @llvm.dbg.value(metadata i32 1, metadata !4590, metadata !DIExpression()), !dbg !4595
  call void @llvm.dbg.value(metadata i32 0, metadata !4517, metadata !DIExpression()), !dbg !4597
  call void @llvm.dbg.value(metadata i32 0, metadata !4521, metadata !DIExpression()) #13, !dbg !4599
  %87 = call { i32, i32 } asm "mul $2", "={ax},={dx},r,{ax},~{cc},~{dirflag},~{fpsr},~{flags}"(i32 0, i32 %79) #14, !dbg !4601, !srcloc !4533
  %88 = extractvalue { i32, i32 } %87, 0, !dbg !4601
  call void @llvm.dbg.value(metadata i32 %88, metadata !4592, metadata !DIExpression()), !dbg !4602
  %89 = add i32 %88, %85, !dbg !4605
  call void @llvm.dbg.value(metadata i32 %89, metadata !4592, metadata !DIExpression()), !dbg !4602
  call void @llvm.dbg.value(metadata i32 undef, metadata !4594, metadata !DIExpression()), !dbg !4602
  call void @llvm.dbg.value(metadata i32 undef, metadata !4591, metadata !DIExpression()), !dbg !4595
  call void @llvm.dbg.value(metadata i32 %89, metadata !4592, metadata !DIExpression()), !dbg !4602
  store i32 %89, i32* %86, align 4, !dbg !4604, !tbaa !4396
  call void @llvm.dbg.value(metadata i32 0, metadata !4590, metadata !DIExpression()), !dbg !4595
  %90 = invoke i32 @_ZN6BigintIjjE6divideEPjPKjij(i32* nonnull %82, i32* nonnull %82, i32 2, i32 1000)
          to label %91 unwind label %18, !dbg !4606

91:                                               ; preds = %77
  %92 = getelementptr inbounds [2 x i32], [2 x i32]* %69, i64 0, i64 1, !dbg !4607
  %93 = load i32, i32* %92, align 4, !dbg !4607, !tbaa !4396
  %94 = icmp eq i32 %93, 0, !dbg !4607
  br i1 %94, label %96, label %95, !dbg !4607

95:                                               ; preds = %91
  call void @__assert_fail(i8* getelementptr inbounds ([10 x i8], [10 x i8]* @.str.24, i64 0, i64 0), i8* getelementptr inbounds ([34 x i8], [34 x i8]* @.str.25, i64 0, i64 0), i32 230, i8* getelementptr inbounds ([162 x i8], [162 x i8]* @__PRETTY_FUNCTION__._ZN10TokenRateXI26TokenBucketJiffyParametersIjEE6assignEjj, i64 0, i64 0)) #15, !dbg !4607
  unreachable, !dbg !4607

96:                                               ; preds = %91
  br i1 %70, label %97, label %103, !dbg !4608

97:                                               ; preds = %96
  %98 = load i32, i32* %82, align 8, !dbg !4609, !tbaa !4396
  %99 = icmp eq i32 %98, 0, !dbg !4612
  %100 = select i1 %99, i32 1, i32 %98, !dbg !4609
  %101 = udiv i32 -2, %100, !dbg !4613
  %102 = add nuw i32 %101, 1, !dbg !4614
  br label %103, !dbg !4615

103:                                              ; preds = %96, %97
  %104 = phi i32 [ %100, %97 ], [ 0, %96 ], !dbg !4616
  %105 = phi i32 [ %102, %97 ], [ -1, %96 ], !dbg !4616
  %106 = getelementptr inbounds %class.TokenBucketX, %class.TokenBucketX* %0, i64 0, i32 0, i32 0, !dbg !4617
  store i32 %104, i32* %106, align 4, !dbg !4618
  %107 = getelementptr inbounds %class.TokenBucketX, %class.TokenBucketX* %0, i64 0, i32 0, i32 2, !dbg !4619
  store i32 %105, i32* %107, align 4, !dbg !4620
  call void @llvm.lifetime.end.p0i8(i64 8, i8* nonnull %81) #13, !dbg !4621
  br label %108, !dbg !4622

108:                                              ; preds = %103, %36, %30
  %109 = phi i32 [ -1, %30 ], [ %37, %36 ], [ 0, %103 ], !dbg !4392
  call void @_ZN4ArgsD1Ev(%class.Args* nonnull %10) #13, !dbg !4623
  call void @llvm.lifetime.end.p0i8(i64 112, i8* nonnull %16) #13, !dbg !4623
  call void @llvm.lifetime.end.p0i8(i64 4, i8* nonnull %14) #13, !dbg !4623
  call void @llvm.lifetime.end.p0i8(i64 4, i8* nonnull %13) #13, !dbg !4623
  call void @llvm.lifetime.end.p0i8(i64 4, i8* nonnull %12) #13, !dbg !4623
  ret i32 %109, !dbg !4623

110:                                              ; preds = %54, %18
  %111 = phi i8* [ %20, %18 ], [ %56, %54 ], !dbg !4392
  %112 = phi i32 [ %21, %18 ], [ %57, %54 ], !dbg !4392
  call void @_ZN4ArgsD1Ev(%class.Args* nonnull %10) #13, !dbg !4623
  call void @llvm.lifetime.end.p0i8(i64 112, i8* nonnull %16) #13, !dbg !4623
  call void @llvm.lifetime.end.p0i8(i64 4, i8* nonnull %14) #13, !dbg !4623
  call void @llvm.lifetime.end.p0i8(i64 4, i8* nonnull %13) #13, !dbg !4623
  call void @llvm.lifetime.end.p0i8(i64 4, i8* nonnull %12) #13, !dbg !4623
  %113 = insertvalue { i8*, i32 } undef, i8* %111, 0, !dbg !4623
  %114 = insertvalue { i8*, i32 } %113, i32 %112, 1, !dbg !4623
  resume { i8*, i32 } %114, !dbg !4623
}

; Function Attrs: argmemonly nounwind willreturn
declare void @llvm.lifetime.start.p0i8(i64 immarg, i8* nocapture) #4

declare void @_ZN4ArgsC1ERK6VectorI6StringEPK7ElementP12ErrorHandler(%class.Args*, %class.Vector.7* dereferenceable(16), %class.Element*, %class.ErrorHandler*) unnamed_addr #2

; Function Attrs: argmemonly nounwind willreturn
declare void @llvm.memset.p0i8.i64(i8* nocapture writeonly, i8, i64, i1 immarg) #4

declare i32 @_ZN4Args8completeEv(%class.Args*) local_unnamed_addr #2

declare i32 @_ZN12ErrorHandler5errorEPKcz(%class.ErrorHandler*, i8*, ...) local_unnamed_addr #2

; Function Attrs: sspstrong uwtable
define linkonce_odr dso_local i32 @_ZN6BigintIjjE6divideEPjPKjij(i32* %0, i32* %1, i32 %2, i32 %3) local_unnamed_addr #0 comdat align 2 !dbg !4624 {
  call void @llvm.dbg.value(metadata i32* %0, metadata !4626, metadata !DIExpression()), !dbg !4642
  call void @llvm.dbg.value(metadata i32* %1, metadata !4627, metadata !DIExpression()), !dbg !4642
  call void @llvm.dbg.value(metadata i32 %2, metadata !4628, metadata !DIExpression()), !dbg !4642
  call void @llvm.dbg.value(metadata i32 %3, metadata !4629, metadata !DIExpression()), !dbg !4642
  %5 = add nsw i32 %2, -1, !dbg !4643
  %6 = sext i32 %5 to i64, !dbg !4644
  %7 = getelementptr inbounds i32, i32* %0, i64 %6, !dbg !4644
  call void @llvm.dbg.value(metadata i32* %7, metadata !4626, metadata !DIExpression()), !dbg !4642
  %8 = getelementptr inbounds i32, i32* %1, i64 %6, !dbg !4645
  call void @llvm.dbg.value(metadata i32* %8, metadata !4627, metadata !DIExpression()), !dbg !4642
  call void @llvm.dbg.value(metadata i32 0, metadata !4630, metadata !DIExpression()), !dbg !4642
  %9 = icmp slt i32 %3, 0, !dbg !4646
  %10 = load i32, i32* %8, align 4, !dbg !4647, !tbaa !4396
  br i1 %9, label %11, label %93, !dbg !4648

11:                                               ; preds = %4
  call void @llvm.dbg.value(metadata i32 %10, metadata !4630, metadata !DIExpression()), !dbg !4642
  %12 = icmp uge i32 %10, %3, !dbg !4649
  %13 = zext i1 %12 to i32, !dbg !4650
  store i32 %13, i32* %7, align 4, !dbg !4651, !tbaa !4396
  %14 = select i1 %12, i32 %3, i32 0, !dbg !4652
  call void @llvm.dbg.value(metadata i32 %10, metadata !4630, metadata !DIExpression()), !dbg !4642
  %15 = sub i32 %10, %14, !dbg !4653
  call void @llvm.dbg.value(metadata i32 %15, metadata !4630, metadata !DIExpression()), !dbg !4642
  call void @llvm.dbg.value(metadata i32* %7, metadata !4626, metadata !DIExpression(DW_OP_constu, 4, DW_OP_minus, DW_OP_stack_value)), !dbg !4642
  call void @llvm.dbg.value(metadata i32* %8, metadata !4627, metadata !DIExpression(DW_OP_constu, 4, DW_OP_minus, DW_OP_stack_value)), !dbg !4642
  call void @llvm.dbg.value(metadata i32 %2, metadata !4628, metadata !DIExpression(DW_OP_constu, 1, DW_OP_minus, DW_OP_stack_value)), !dbg !4642
  call void @llvm.dbg.value(metadata i32 %3, metadata !4654, metadata !DIExpression()), !dbg !4666
  %16 = xor i32 %3, -1, !dbg !4668
  call void @llvm.dbg.value(metadata i32 %16, metadata !4657, metadata !DIExpression()), !dbg !4666
  call void @llvm.dbg.value(metadata i32 -1, metadata !4658, metadata !DIExpression()), !dbg !4666
  call void @llvm.dbg.value(metadata i32 %3, metadata !4669, metadata !DIExpression()), !dbg !4672
  %17 = lshr i32 %3, 16, !dbg !4674
  call void @llvm.dbg.value(metadata i32 %17, metadata !4659, metadata !DIExpression()), !dbg !4666
  call void @llvm.dbg.value(metadata i32 %3, metadata !4675, metadata !DIExpression()), !dbg !4678
  %18 = and i32 %3, 65535, !dbg !4680
  call void @llvm.dbg.value(metadata i32 %18, metadata !4660, metadata !DIExpression()), !dbg !4666
  %19 = udiv i32 %16, %17, !dbg !4681
  call void @llvm.dbg.value(metadata i32 %19, metadata !4661, metadata !DIExpression()), !dbg !4666
  %20 = mul i32 %19, %17, !dbg !4682
  %21 = urem i32 %16, %17
  call void @llvm.dbg.value(metadata i32 %21, metadata !4662, metadata !DIExpression()), !dbg !4666
  %22 = mul i32 %19, %18, !dbg !4683
  call void @llvm.dbg.value(metadata i32 %22, metadata !4663, metadata !DIExpression()), !dbg !4666
  %23 = shl i32 %21, 16, !dbg !4684
  call void @llvm.dbg.value(metadata i32 -1, metadata !4669, metadata !DIExpression()), !dbg !4685
  %24 = or i32 %23, 65535, !dbg !4687
  call void @llvm.dbg.value(metadata i32 %24, metadata !4662, metadata !DIExpression()), !dbg !4666
  %25 = icmp ult i32 %24, %22, !dbg !4688
  br i1 %25, label %26, label %35, !dbg !4690

26:                                               ; preds = %11
  %27 = add nsw i32 %19, -1, !dbg !4691
  call void @llvm.dbg.value(metadata i32 %27, metadata !4661, metadata !DIExpression()), !dbg !4666
  %28 = add i32 %24, %3, !dbg !4693
  call void @llvm.dbg.value(metadata i32 %28, metadata !4662, metadata !DIExpression()), !dbg !4666
  %29 = icmp uge i32 %28, %3, !dbg !4694
  %30 = icmp ult i32 %28, %22, !dbg !4696
  %31 = and i1 %29, %30, !dbg !4697
  br i1 %31, label %32, label %35, !dbg !4697

32:                                               ; preds = %26
  %33 = add nsw i32 %19, -2, !dbg !4698
  call void @llvm.dbg.value(metadata i32 %33, metadata !4661, metadata !DIExpression()), !dbg !4666
  %34 = add i32 %28, %3, !dbg !4699
  call void @llvm.dbg.value(metadata i32 %34, metadata !4662, metadata !DIExpression()), !dbg !4666
  br label %35, !dbg !4698

35:                                               ; preds = %32, %26, %11
  %36 = phi i32 [ %33, %32 ], [ %27, %26 ], [ %19, %11 ], !dbg !4666
  %37 = phi i32 [ %34, %32 ], [ %28, %26 ], [ %24, %11 ], !dbg !4666
  call void @llvm.dbg.value(metadata i32 %37, metadata !4662, metadata !DIExpression()), !dbg !4666
  call void @llvm.dbg.value(metadata i32 %36, metadata !4661, metadata !DIExpression()), !dbg !4666
  %38 = sub i32 %37, %22, !dbg !4700
  call void @llvm.dbg.value(metadata i32 %38, metadata !4662, metadata !DIExpression()), !dbg !4666
  %39 = udiv i32 %38, %17, !dbg !4701
  call void @llvm.dbg.value(metadata i32 %39, metadata !4664, metadata !DIExpression()), !dbg !4666
  %40 = mul i32 %39, %17, !dbg !4702
  %41 = urem i32 %38, %17
  call void @llvm.dbg.value(metadata i32 %41, metadata !4665, metadata !DIExpression()), !dbg !4666
  %42 = mul i32 %39, %18, !dbg !4703
  call void @llvm.dbg.value(metadata i32 %42, metadata !4663, metadata !DIExpression()), !dbg !4666
  %43 = shl i32 %41, 16, !dbg !4704
  call void @llvm.dbg.value(metadata i32 -1, metadata !4675, metadata !DIExpression()), !dbg !4705
  %44 = or i32 %43, 65535, !dbg !4707
  call void @llvm.dbg.value(metadata i32 %44, metadata !4665, metadata !DIExpression()), !dbg !4666
  %45 = icmp ult i32 %44, %42, !dbg !4708
  br i1 %45, label %46, label %53, !dbg !4710

46:                                               ; preds = %35
  call void @llvm.dbg.value(metadata i32 %39, metadata !4664, metadata !DIExpression(DW_OP_constu, 1, DW_OP_minus, DW_OP_stack_value)), !dbg !4666
  %47 = add i32 %44, %3, !dbg !4711
  call void @llvm.dbg.value(metadata i32 %47, metadata !4665, metadata !DIExpression()), !dbg !4666
  %48 = icmp uge i32 %47, %3, !dbg !4713
  %49 = icmp ult i32 %47, %42, !dbg !4715
  %50 = and i1 %48, %49, !dbg !4716
  %51 = select i1 %50, i32 -2, i32 -1, !dbg !4716
  %52 = add nsw i32 %51, %39, !dbg !4716
  br label %53, !dbg !4716

53:                                               ; preds = %35, %46
  %54 = phi i32 [ %39, %35 ], [ %52, %46 ], !dbg !4666
  call void @llvm.dbg.value(metadata i32 %54, metadata !4664, metadata !DIExpression()), !dbg !4666
  %55 = shl i32 %36, 16, !dbg !4717
  %56 = or i32 %54, %55, !dbg !4718
  call void @llvm.dbg.value(metadata i32 %56, metadata !4631, metadata !DIExpression()), !dbg !4719
  call void @llvm.dbg.value(metadata i32* %7, metadata !4626, metadata !DIExpression(DW_OP_constu, 4, DW_OP_minus, DW_OP_stack_value)), !dbg !4642
  call void @llvm.dbg.value(metadata i32* %8, metadata !4627, metadata !DIExpression(DW_OP_constu, 4, DW_OP_minus, DW_OP_stack_value)), !dbg !4642
  call void @llvm.dbg.value(metadata i32 %2, metadata !4628, metadata !DIExpression(DW_OP_constu, 1, DW_OP_minus, DW_OP_stack_value)), !dbg !4642
  %57 = icmp sgt i32 %2, 1, !dbg !4720
  br i1 %57, label %58, label %230, !dbg !4721

58:                                               ; preds = %53, %58
  %59 = phi i32* [ %64, %58 ], [ %7, %53 ]
  %60 = phi i32* [ %63, %58 ], [ %8, %53 ]
  %61 = phi i32 [ %65, %58 ], [ %2, %53 ]
  %62 = phi i32 [ %90, %58 ], [ %15, %53 ]
  %63 = getelementptr inbounds i32, i32* %60, i64 -1, !dbg !4719
  %64 = getelementptr inbounds i32, i32* %59, i64 -1, !dbg !4719
  call void @llvm.dbg.value(metadata i32 %61, metadata !4628, metadata !DIExpression(DW_OP_constu, 1, DW_OP_minus, DW_OP_stack_value)), !dbg !4642
  %65 = add nsw i32 %61, -1, !dbg !4719
  call void @llvm.dbg.value(metadata i32 %65, metadata !4628, metadata !DIExpression()), !dbg !4642
  call void @llvm.dbg.value(metadata i32 %62, metadata !4630, metadata !DIExpression()), !dbg !4642
  %66 = load i32, i32* %63, align 4, !dbg !4722, !tbaa !4396
  call void @llvm.dbg.value(metadata i32* %64, metadata !4724, metadata !DIExpression()), !dbg !4737
  call void @llvm.dbg.value(metadata i32 %62, metadata !4728, metadata !DIExpression()), !dbg !4737
  call void @llvm.dbg.value(metadata i32 %66, metadata !4729, metadata !DIExpression()), !dbg !4737
  call void @llvm.dbg.value(metadata i32 %3, metadata !4730, metadata !DIExpression()), !dbg !4737
  call void @llvm.dbg.value(metadata i32 %56, metadata !4731, metadata !DIExpression()), !dbg !4737
  %67 = ashr i32 %66, 31, !dbg !4739
  call void @llvm.dbg.value(metadata i32 %67, metadata !4732, metadata !DIExpression()), !dbg !4737
  %68 = and i32 %67, %3, !dbg !4740
  %69 = add i32 %68, %66, !dbg !4741
  call void @llvm.dbg.value(metadata i32 %69, metadata !4733, metadata !DIExpression()), !dbg !4737
  %70 = sub i32 %62, %67, !dbg !4742
  call void @llvm.dbg.value(metadata i32 %56, metadata !4517, metadata !DIExpression()), !dbg !4743
  call void @llvm.dbg.value(metadata i32 %70, metadata !4518, metadata !DIExpression()), !dbg !4743
  call void @llvm.dbg.value(metadata i32 %56, metadata !4521, metadata !DIExpression()) #13, !dbg !4745
  call void @llvm.dbg.value(metadata i32 %70, metadata !4527, metadata !DIExpression()) #13, !dbg !4745
  %71 = tail call { i32, i32 } asm "mul $2", "={ax},={dx},r,{ax},~{cc},~{dirflag},~{fpsr},~{flags}"(i32 %56, i32 %70) #14, !dbg !4747, !srcloc !4533
  %72 = extractvalue { i32, i32 } %71, 0, !dbg !4747
  %73 = extractvalue { i32, i32 } %71, 1, !dbg !4747
  call void @llvm.dbg.value(metadata i32 %73, metadata !4734, metadata !DIExpression()), !dbg !4737
  call void @llvm.dbg.value(metadata i32 %72, metadata !4735, metadata !DIExpression()), !dbg !4737
  call void @llvm.dbg.value(metadata i32 %73, metadata !4748, metadata !DIExpression()), !dbg !4756
  call void @llvm.dbg.value(metadata i32 %72, metadata !4753, metadata !DIExpression()), !dbg !4756
  call void @llvm.dbg.value(metadata i32 %62, metadata !4754, metadata !DIExpression()), !dbg !4756
  call void @llvm.dbg.value(metadata i32 %69, metadata !4755, metadata !DIExpression()), !dbg !4756
  %74 = add i32 %73, %62, !dbg !4758
  %75 = xor i32 %72, -1, !dbg !4759
  %76 = icmp ugt i32 %69, %75, !dbg !4759
  %77 = zext i1 %76 to i32, !dbg !4760
  %78 = add i32 %74, %77, !dbg !4761
  call void @llvm.dbg.value(metadata i32 %78, metadata !4734, metadata !DIExpression()), !dbg !4737
  %79 = xor i32 %78, -1, !dbg !4762
  call void @llvm.dbg.value(metadata i32 %79, metadata !4736, metadata !DIExpression()), !dbg !4737
  call void @llvm.dbg.value(metadata i32 %79, metadata !4517, metadata !DIExpression()), !dbg !4763
  call void @llvm.dbg.value(metadata i32 %3, metadata !4518, metadata !DIExpression()), !dbg !4763
  call void @llvm.dbg.value(metadata i32 %79, metadata !4521, metadata !DIExpression()) #13, !dbg !4765
  call void @llvm.dbg.value(metadata i32 %3, metadata !4527, metadata !DIExpression()) #13, !dbg !4765
  %80 = tail call { i32, i32 } asm "mul $2", "={ax},={dx},r,{ax},~{cc},~{dirflag},~{fpsr},~{flags}"(i32 %79, i32 %3) #14, !dbg !4767, !srcloc !4533
  %81 = extractvalue { i32, i32 } %80, 0, !dbg !4767
  %82 = extractvalue { i32, i32 } %80, 1, !dbg !4767
  call void @llvm.dbg.value(metadata i32 %82, metadata !4734, metadata !DIExpression()), !dbg !4737
  call void @llvm.dbg.value(metadata i32 %81, metadata !4735, metadata !DIExpression()), !dbg !4737
  call void @llvm.dbg.value(metadata i32 %82, metadata !4748, metadata !DIExpression()), !dbg !4768
  call void @llvm.dbg.value(metadata i32 %81, metadata !4753, metadata !DIExpression()), !dbg !4768
  call void @llvm.dbg.value(metadata i32 %62, metadata !4754, metadata !DIExpression()), !dbg !4768
  call void @llvm.dbg.value(metadata i32 %66, metadata !4755, metadata !DIExpression()), !dbg !4768
  %83 = add i32 %81, %66, !dbg !4770
  %84 = icmp ult i32 %83, %81, !dbg !4771
  %85 = zext i1 %84 to i32, !dbg !4772
  call void @llvm.dbg.value(metadata i32 undef, metadata !4734, metadata !DIExpression()), !dbg !4737
  %86 = sub i32 %62, %3, !dbg !4773
  %87 = add i32 %86, %82, !dbg !4774
  %88 = add i32 %87, %85, !dbg !4775
  call void @llvm.dbg.value(metadata i32 %88, metadata !4734, metadata !DIExpression()), !dbg !4737
  call void @llvm.dbg.value(metadata i32 %83, metadata !4735, metadata !DIExpression()), !dbg !4737
  %89 = and i32 %88, %3, !dbg !4776
  %90 = add i32 %89, %83, !dbg !4777
  %91 = sub i32 %88, %79, !dbg !4778
  store i32 %91, i32* %64, align 4, !dbg !4779, !tbaa !4396
  call void @llvm.dbg.value(metadata i32* %64, metadata !4626, metadata !DIExpression(DW_OP_constu, 4, DW_OP_minus, DW_OP_stack_value)), !dbg !4642
  call void @llvm.dbg.value(metadata i32* %63, metadata !4627, metadata !DIExpression(DW_OP_constu, 4, DW_OP_minus, DW_OP_stack_value)), !dbg !4642
  call void @llvm.dbg.value(metadata i32 %65, metadata !4628, metadata !DIExpression(DW_OP_constu, 1, DW_OP_minus, DW_OP_stack_value)), !dbg !4642
  call void @llvm.dbg.value(metadata i32* %64, metadata !4626, metadata !DIExpression(DW_OP_constu, 4, DW_OP_minus, DW_OP_stack_value)), !dbg !4642
  call void @llvm.dbg.value(metadata i32* %63, metadata !4627, metadata !DIExpression(DW_OP_constu, 4, DW_OP_minus, DW_OP_stack_value)), !dbg !4642
  %92 = icmp sgt i32 %61, 2, !dbg !4720
  br i1 %92, label %58, label %230, !dbg !4721, !llvm.loop !4780

93:                                               ; preds = %4
  %94 = icmp ult i32 %10, %3, !dbg !4782
  br i1 %94, label %95, label %98, !dbg !4784

95:                                               ; preds = %93
  call void @llvm.dbg.value(metadata i32 %10, metadata !4630, metadata !DIExpression()), !dbg !4642
  store i32 0, i32* %7, align 4, !dbg !4785, !tbaa !4396
  %96 = getelementptr inbounds i32, i32* %7, i64 -1, !dbg !4787
  call void @llvm.dbg.value(metadata i32* %96, metadata !4626, metadata !DIExpression()), !dbg !4642
  %97 = getelementptr inbounds i32, i32* %8, i64 -1, !dbg !4788
  call void @llvm.dbg.value(metadata i32* %97, metadata !4627, metadata !DIExpression()), !dbg !4642
  call void @llvm.dbg.value(metadata i32 %5, metadata !4628, metadata !DIExpression()), !dbg !4642
  br label %98, !dbg !4789

98:                                               ; preds = %95, %93
  %99 = phi i32 [ %10, %95 ], [ 0, %93 ], !dbg !4642
  %100 = phi i32 [ %5, %95 ], [ %2, %93 ]
  %101 = phi i32* [ %97, %95 ], [ %8, %93 ], !dbg !4642
  %102 = phi i32* [ %96, %95 ], [ %7, %93 ], !dbg !4642
  call void @llvm.dbg.value(metadata i32* %102, metadata !4626, metadata !DIExpression()), !dbg !4642
  call void @llvm.dbg.value(metadata i32* %101, metadata !4627, metadata !DIExpression()), !dbg !4642
  call void @llvm.dbg.value(metadata i32 %100, metadata !4628, metadata !DIExpression()), !dbg !4642
  %103 = icmp eq i32 %100, 0, !dbg !4790
  br i1 %103, label %230, label %104, !dbg !4791

104:                                              ; preds = %98
  call void @llvm.dbg.value(metadata i32 %3, metadata !4792, metadata !DIExpression()) #13, !dbg !4797
  %105 = icmp eq i32 %3, 0, !dbg !4799
  br i1 %105, label %109, label %106, !dbg !4799

106:                                              ; preds = %104
  %107 = tail call i32 @llvm.ctlz.i32(i32 %3, i1 true) #13, !dbg !4800, !range !4801
  %108 = add nuw nsw i32 %107, 1, !dbg !4802
  br label %109, !dbg !4799

109:                                              ; preds = %104, %106
  %110 = phi i32 [ %108, %106 ], [ 0, %104 ], !dbg !4799
  %111 = add nsw i32 %110, -1, !dbg !4803
  call void @llvm.dbg.value(metadata i32 %111, metadata !4634, metadata !DIExpression()), !dbg !4804
  %112 = shl i32 %3, %111, !dbg !4805
  call void @llvm.dbg.value(metadata i32 %112, metadata !4629, metadata !DIExpression()), !dbg !4642
  call void @llvm.dbg.value(metadata i32 %99, metadata !4630, metadata !DIExpression()), !dbg !4642
  %113 = shl i32 %99, %111, !dbg !4806
  call void @llvm.dbg.value(metadata i32 %113, metadata !4630, metadata !DIExpression()), !dbg !4642
  call void @llvm.dbg.value(metadata i32 %112, metadata !4654, metadata !DIExpression()), !dbg !4807
  %114 = xor i32 %112, -1, !dbg !4809
  call void @llvm.dbg.value(metadata i32 %114, metadata !4657, metadata !DIExpression()), !dbg !4807
  call void @llvm.dbg.value(metadata i32 -1, metadata !4658, metadata !DIExpression()), !dbg !4807
  call void @llvm.dbg.value(metadata i32 %112, metadata !4669, metadata !DIExpression()), !dbg !4810
  %115 = lshr i32 %112, 16, !dbg !4812
  call void @llvm.dbg.value(metadata i32 %115, metadata !4659, metadata !DIExpression()), !dbg !4807
  call void @llvm.dbg.value(metadata i32 %112, metadata !4675, metadata !DIExpression()), !dbg !4813
  %116 = and i32 %112, 65535, !dbg !4815
  call void @llvm.dbg.value(metadata i32 %116, metadata !4660, metadata !DIExpression()), !dbg !4807
  %117 = udiv i32 %114, %115, !dbg !4816
  call void @llvm.dbg.value(metadata i32 %117, metadata !4661, metadata !DIExpression()), !dbg !4807
  %118 = mul i32 %115, %117, !dbg !4817
  %119 = urem i32 %114, %115
  call void @llvm.dbg.value(metadata i32 %119, metadata !4662, metadata !DIExpression()), !dbg !4807
  %120 = mul i32 %116, %117, !dbg !4818
  call void @llvm.dbg.value(metadata i32 %120, metadata !4663, metadata !DIExpression()), !dbg !4807
  %121 = shl i32 %119, 16, !dbg !4819
  call void @llvm.dbg.value(metadata i32 -1, metadata !4669, metadata !DIExpression()), !dbg !4820
  %122 = or i32 %121, 65535, !dbg !4822
  call void @llvm.dbg.value(metadata i32 %122, metadata !4662, metadata !DIExpression()), !dbg !4807
  %123 = icmp ult i32 %122, %120, !dbg !4823
  br i1 %123, label %124, label %133, !dbg !4824

124:                                              ; preds = %109
  %125 = add i32 %117, -1, !dbg !4825
  call void @llvm.dbg.value(metadata i32 %125, metadata !4661, metadata !DIExpression()), !dbg !4807
  %126 = add i32 %122, %112, !dbg !4826
  call void @llvm.dbg.value(metadata i32 %126, metadata !4662, metadata !DIExpression()), !dbg !4807
  %127 = icmp uge i32 %126, %112, !dbg !4827
  %128 = icmp ult i32 %126, %120, !dbg !4828
  %129 = and i1 %127, %128, !dbg !4829
  br i1 %129, label %130, label %133, !dbg !4829

130:                                              ; preds = %124
  %131 = add i32 %117, -2, !dbg !4830
  call void @llvm.dbg.value(metadata i32 %131, metadata !4661, metadata !DIExpression()), !dbg !4807
  %132 = add i32 %126, %112, !dbg !4831
  call void @llvm.dbg.value(metadata i32 %132, metadata !4662, metadata !DIExpression()), !dbg !4807
  br label %133, !dbg !4830

133:                                              ; preds = %130, %124, %109
  %134 = phi i32 [ %131, %130 ], [ %125, %124 ], [ %117, %109 ], !dbg !4807
  %135 = phi i32 [ %132, %130 ], [ %126, %124 ], [ %122, %109 ], !dbg !4807
  call void @llvm.dbg.value(metadata i32 %135, metadata !4662, metadata !DIExpression()), !dbg !4807
  call void @llvm.dbg.value(metadata i32 %134, metadata !4661, metadata !DIExpression()), !dbg !4807
  %136 = sub i32 %135, %120, !dbg !4832
  call void @llvm.dbg.value(metadata i32 %136, metadata !4662, metadata !DIExpression()), !dbg !4807
  %137 = udiv i32 %136, %115, !dbg !4833
  call void @llvm.dbg.value(metadata i32 %137, metadata !4664, metadata !DIExpression()), !dbg !4807
  %138 = mul i32 %137, %115, !dbg !4834
  %139 = urem i32 %136, %115
  call void @llvm.dbg.value(metadata i32 %139, metadata !4665, metadata !DIExpression()), !dbg !4807
  %140 = mul i32 %137, %116, !dbg !4835
  call void @llvm.dbg.value(metadata i32 %140, metadata !4663, metadata !DIExpression()), !dbg !4807
  %141 = shl i32 %139, 16, !dbg !4836
  call void @llvm.dbg.value(metadata i32 -1, metadata !4675, metadata !DIExpression()), !dbg !4837
  %142 = or i32 %141, 65535, !dbg !4839
  call void @llvm.dbg.value(metadata i32 %142, metadata !4665, metadata !DIExpression()), !dbg !4807
  %143 = icmp ult i32 %142, %140, !dbg !4840
  br i1 %143, label %144, label %151, !dbg !4841

144:                                              ; preds = %133
  call void @llvm.dbg.value(metadata i32 %137, metadata !4664, metadata !DIExpression(DW_OP_constu, 1, DW_OP_minus, DW_OP_stack_value)), !dbg !4807
  %145 = add i32 %142, %112, !dbg !4842
  call void @llvm.dbg.value(metadata i32 %145, metadata !4665, metadata !DIExpression()), !dbg !4807
  %146 = icmp uge i32 %145, %112, !dbg !4843
  %147 = icmp ult i32 %145, %140, !dbg !4844
  %148 = and i1 %146, %147, !dbg !4845
  %149 = select i1 %148, i32 -2, i32 -1, !dbg !4845
  %150 = add i32 %149, %137, !dbg !4845
  br label %151, !dbg !4845

151:                                              ; preds = %133, %144
  %152 = phi i32 [ %137, %133 ], [ %150, %144 ], !dbg !4807
  call void @llvm.dbg.value(metadata i32 %152, metadata !4664, metadata !DIExpression()), !dbg !4807
  %153 = shl i32 %134, 16, !dbg !4846
  %154 = or i32 %152, %153, !dbg !4847
  call void @llvm.dbg.value(metadata i32 %154, metadata !4638, metadata !DIExpression()), !dbg !4804
  %155 = load i32, i32* %101, align 4, !dbg !4848, !tbaa !4396
  call void @llvm.dbg.value(metadata i32 %155, metadata !4639, metadata !DIExpression()), !dbg !4804
  %156 = sub nsw i32 33, %110, !dbg !4849
  %157 = lshr i32 %155, %156, !dbg !4850
  call void @llvm.dbg.value(metadata i32 %113, metadata !4630, metadata !DIExpression()), !dbg !4642
  %158 = or i32 %157, %113, !dbg !4851
  call void @llvm.dbg.value(metadata i32 %158, metadata !4630, metadata !DIExpression()), !dbg !4642
  call void @llvm.dbg.value(metadata i32* %101, metadata !4627, metadata !DIExpression(DW_OP_constu, 4, DW_OP_minus, DW_OP_stack_value)), !dbg !4642
  call void @llvm.dbg.value(metadata i32 %100, metadata !4628, metadata !DIExpression(DW_OP_constu, 1, DW_OP_minus, DW_OP_stack_value)), !dbg !4642
  call void @llvm.dbg.value(metadata i32* %102, metadata !4626, metadata !DIExpression()), !dbg !4642
  call void @llvm.dbg.value(metadata i32 %155, metadata !4639, metadata !DIExpression()), !dbg !4804
  call void @llvm.dbg.value(metadata i32* %101, metadata !4627, metadata !DIExpression(DW_OP_constu, 4, DW_OP_minus, DW_OP_stack_value)), !dbg !4642
  %159 = icmp sgt i32 %100, 1, !dbg !4852
  br i1 %159, label %160, label %199, !dbg !4853

160:                                              ; preds = %151, %160
  %161 = phi i32* [ %166, %160 ], [ %101, %151 ]
  %162 = phi i32* [ %197, %160 ], [ %102, %151 ]
  %163 = phi i32 [ %168, %160 ], [ %155, %151 ]
  %164 = phi i32 [ %167, %160 ], [ %100, %151 ]
  %165 = phi i32 [ %195, %160 ], [ %158, %151 ]
  %166 = getelementptr inbounds i32, i32* %161, i64 -1, !dbg !4804
  call void @llvm.dbg.value(metadata i32* %162, metadata !4626, metadata !DIExpression()), !dbg !4642
  call void @llvm.dbg.value(metadata i32 %163, metadata !4639, metadata !DIExpression()), !dbg !4804
  call void @llvm.dbg.value(metadata i32 %164, metadata !4628, metadata !DIExpression(DW_OP_constu, 1, DW_OP_minus, DW_OP_stack_value)), !dbg !4642
  %167 = add nsw i32 %164, -1, !dbg !4804
  call void @llvm.dbg.value(metadata i32 %167, metadata !4628, metadata !DIExpression()), !dbg !4642
  %168 = load i32, i32* %166, align 4, !dbg !4854, !tbaa !4396
  call void @llvm.dbg.value(metadata i32 %168, metadata !4640, metadata !DIExpression()), !dbg !4855
  call void @llvm.dbg.value(metadata i32 %165, metadata !4630, metadata !DIExpression()), !dbg !4642
  %169 = shl i32 %163, %111, !dbg !4856
  %170 = lshr i32 %168, %156, !dbg !4857
  %171 = or i32 %170, %169, !dbg !4858
  call void @llvm.dbg.value(metadata i32* %162, metadata !4724, metadata !DIExpression()), !dbg !4859
  call void @llvm.dbg.value(metadata i32 %165, metadata !4728, metadata !DIExpression()), !dbg !4859
  call void @llvm.dbg.value(metadata i32 %171, metadata !4729, metadata !DIExpression()), !dbg !4859
  call void @llvm.dbg.value(metadata i32 %112, metadata !4730, metadata !DIExpression()), !dbg !4859
  call void @llvm.dbg.value(metadata i32 %154, metadata !4731, metadata !DIExpression()), !dbg !4859
  %172 = ashr i32 %171, 31, !dbg !4861
  call void @llvm.dbg.value(metadata i32 %172, metadata !4732, metadata !DIExpression()), !dbg !4859
  %173 = and i32 %172, %112, !dbg !4862
  %174 = add i32 %173, %171, !dbg !4863
  call void @llvm.dbg.value(metadata i32 %174, metadata !4733, metadata !DIExpression()), !dbg !4859
  %175 = sub i32 %165, %172, !dbg !4864
  call void @llvm.dbg.value(metadata i32 %154, metadata !4517, metadata !DIExpression()), !dbg !4865
  call void @llvm.dbg.value(metadata i32 %175, metadata !4518, metadata !DIExpression()), !dbg !4865
  call void @llvm.dbg.value(metadata i32 %154, metadata !4521, metadata !DIExpression()) #13, !dbg !4867
  call void @llvm.dbg.value(metadata i32 %175, metadata !4527, metadata !DIExpression()) #13, !dbg !4867
  %176 = tail call { i32, i32 } asm "mul $2", "={ax},={dx},r,{ax},~{cc},~{dirflag},~{fpsr},~{flags}"(i32 %154, i32 %175) #14, !dbg !4869, !srcloc !4533
  %177 = extractvalue { i32, i32 } %176, 0, !dbg !4869
  %178 = extractvalue { i32, i32 } %176, 1, !dbg !4869
  call void @llvm.dbg.value(metadata i32 %178, metadata !4734, metadata !DIExpression()), !dbg !4859
  call void @llvm.dbg.value(metadata i32 %177, metadata !4735, metadata !DIExpression()), !dbg !4859
  call void @llvm.dbg.value(metadata i32 %178, metadata !4748, metadata !DIExpression()), !dbg !4870
  call void @llvm.dbg.value(metadata i32 %177, metadata !4753, metadata !DIExpression()), !dbg !4870
  call void @llvm.dbg.value(metadata i32 %165, metadata !4754, metadata !DIExpression()), !dbg !4870
  call void @llvm.dbg.value(metadata i32 %174, metadata !4755, metadata !DIExpression()), !dbg !4870
  %179 = add i32 %178, %165, !dbg !4872
  %180 = xor i32 %177, -1, !dbg !4873
  %181 = icmp ugt i32 %174, %180, !dbg !4873
  %182 = zext i1 %181 to i32, !dbg !4874
  %183 = add i32 %179, %182, !dbg !4875
  call void @llvm.dbg.value(metadata i32 %183, metadata !4734, metadata !DIExpression()), !dbg !4859
  %184 = xor i32 %183, -1, !dbg !4876
  call void @llvm.dbg.value(metadata i32 %184, metadata !4736, metadata !DIExpression()), !dbg !4859
  call void @llvm.dbg.value(metadata i32 %184, metadata !4517, metadata !DIExpression()), !dbg !4877
  call void @llvm.dbg.value(metadata i32 %112, metadata !4518, metadata !DIExpression()), !dbg !4877
  call void @llvm.dbg.value(metadata i32 %184, metadata !4521, metadata !DIExpression()) #13, !dbg !4879
  call void @llvm.dbg.value(metadata i32 %112, metadata !4527, metadata !DIExpression()) #13, !dbg !4879
  %185 = tail call { i32, i32 } asm "mul $2", "={ax},={dx},r,{ax},~{cc},~{dirflag},~{fpsr},~{flags}"(i32 %184, i32 %112) #14, !dbg !4881, !srcloc !4533
  %186 = extractvalue { i32, i32 } %185, 0, !dbg !4881
  %187 = extractvalue { i32, i32 } %185, 1, !dbg !4881
  call void @llvm.dbg.value(metadata i32 %187, metadata !4734, metadata !DIExpression()), !dbg !4859
  call void @llvm.dbg.value(metadata i32 %186, metadata !4735, metadata !DIExpression()), !dbg !4859
  call void @llvm.dbg.value(metadata i32 %187, metadata !4748, metadata !DIExpression()), !dbg !4882
  call void @llvm.dbg.value(metadata i32 %186, metadata !4753, metadata !DIExpression()), !dbg !4882
  call void @llvm.dbg.value(metadata i32 %165, metadata !4754, metadata !DIExpression()), !dbg !4882
  call void @llvm.dbg.value(metadata i32 %171, metadata !4755, metadata !DIExpression()), !dbg !4882
  %188 = add i32 %186, %171, !dbg !4884
  %189 = icmp ult i32 %188, %186, !dbg !4885
  %190 = zext i1 %189 to i32, !dbg !4886
  call void @llvm.dbg.value(metadata i32 undef, metadata !4734, metadata !DIExpression()), !dbg !4859
  %191 = sub i32 %165, %112, !dbg !4887
  %192 = add i32 %191, %187, !dbg !4888
  %193 = add i32 %192, %190, !dbg !4889
  call void @llvm.dbg.value(metadata i32 %193, metadata !4734, metadata !DIExpression()), !dbg !4859
  call void @llvm.dbg.value(metadata i32 %188, metadata !4735, metadata !DIExpression()), !dbg !4859
  %194 = and i32 %193, %112, !dbg !4890
  %195 = add i32 %194, %188, !dbg !4891
  %196 = sub i32 %193, %184, !dbg !4892
  store i32 %196, i32* %162, align 4, !dbg !4893, !tbaa !4396
  %197 = getelementptr inbounds i32, i32* %162, i64 -1, !dbg !4894
  call void @llvm.dbg.value(metadata i32* %197, metadata !4626, metadata !DIExpression()), !dbg !4642
  call void @llvm.dbg.value(metadata i32* %166, metadata !4627, metadata !DIExpression(DW_OP_constu, 4, DW_OP_minus, DW_OP_stack_value)), !dbg !4642
  call void @llvm.dbg.value(metadata i32 %167, metadata !4628, metadata !DIExpression(DW_OP_constu, 1, DW_OP_minus, DW_OP_stack_value)), !dbg !4642
  call void @llvm.dbg.value(metadata i32 %168, metadata !4639, metadata !DIExpression()), !dbg !4804
  call void @llvm.dbg.value(metadata i32* %166, metadata !4627, metadata !DIExpression(DW_OP_constu, 4, DW_OP_minus, DW_OP_stack_value)), !dbg !4642
  %198 = icmp sgt i32 %164, 2, !dbg !4852
  br i1 %198, label %160, label %199, !dbg !4853, !llvm.loop !4895

199:                                              ; preds = %160, %151
  %200 = phi i32 [ %158, %151 ], [ %195, %160 ], !dbg !4804
  %201 = phi i32 [ %155, %151 ], [ %168, %160 ], !dbg !4804
  %202 = phi i32* [ %102, %151 ], [ %197, %160 ], !dbg !4897
  call void @llvm.dbg.value(metadata i32 %201, metadata !4639, metadata !DIExpression()), !dbg !4804
  call void @llvm.dbg.value(metadata i32* %202, metadata !4626, metadata !DIExpression()), !dbg !4642
  call void @llvm.dbg.value(metadata i32 %200, metadata !4630, metadata !DIExpression()), !dbg !4642
  %203 = shl i32 %201, %111, !dbg !4898
  call void @llvm.dbg.value(metadata i32* %202, metadata !4724, metadata !DIExpression()), !dbg !4899
  call void @llvm.dbg.value(metadata i32 %200, metadata !4728, metadata !DIExpression()), !dbg !4899
  call void @llvm.dbg.value(metadata i32 %203, metadata !4729, metadata !DIExpression()), !dbg !4899
  call void @llvm.dbg.value(metadata i32 %112, metadata !4730, metadata !DIExpression()), !dbg !4899
  call void @llvm.dbg.value(metadata i32 %154, metadata !4731, metadata !DIExpression()), !dbg !4899
  %204 = ashr i32 %203, 31, !dbg !4901
  call void @llvm.dbg.value(metadata i32 %204, metadata !4732, metadata !DIExpression()), !dbg !4899
  %205 = and i32 %204, %112, !dbg !4902
  %206 = add i32 %205, %203, !dbg !4903
  call void @llvm.dbg.value(metadata i32 %206, metadata !4733, metadata !DIExpression()), !dbg !4899
  %207 = sub i32 %200, %204, !dbg !4904
  call void @llvm.dbg.value(metadata i32 %154, metadata !4517, metadata !DIExpression()), !dbg !4905
  call void @llvm.dbg.value(metadata i32 %207, metadata !4518, metadata !DIExpression()), !dbg !4905
  call void @llvm.dbg.value(metadata i32 %154, metadata !4521, metadata !DIExpression()) #13, !dbg !4907
  call void @llvm.dbg.value(metadata i32 %207, metadata !4527, metadata !DIExpression()) #13, !dbg !4907
  %208 = tail call { i32, i32 } asm "mul $2", "={ax},={dx},r,{ax},~{cc},~{dirflag},~{fpsr},~{flags}"(i32 %154, i32 %207) #14, !dbg !4909, !srcloc !4533
  %209 = extractvalue { i32, i32 } %208, 0, !dbg !4909
  %210 = extractvalue { i32, i32 } %208, 1, !dbg !4909
  call void @llvm.dbg.value(metadata i32 %210, metadata !4734, metadata !DIExpression()), !dbg !4899
  call void @llvm.dbg.value(metadata i32 %209, metadata !4735, metadata !DIExpression()), !dbg !4899
  call void @llvm.dbg.value(metadata i32 %210, metadata !4748, metadata !DIExpression()), !dbg !4910
  call void @llvm.dbg.value(metadata i32 %209, metadata !4753, metadata !DIExpression()), !dbg !4910
  call void @llvm.dbg.value(metadata i32 %200, metadata !4754, metadata !DIExpression()), !dbg !4910
  call void @llvm.dbg.value(metadata i32 %206, metadata !4755, metadata !DIExpression()), !dbg !4910
  %211 = add i32 %210, %200, !dbg !4912
  %212 = xor i32 %209, -1, !dbg !4913
  %213 = icmp ugt i32 %206, %212, !dbg !4913
  %214 = zext i1 %213 to i32, !dbg !4914
  %215 = add i32 %211, %214, !dbg !4915
  call void @llvm.dbg.value(metadata i32 %215, metadata !4734, metadata !DIExpression()), !dbg !4899
  %216 = xor i32 %215, -1, !dbg !4916
  call void @llvm.dbg.value(metadata i32 %216, metadata !4736, metadata !DIExpression()), !dbg !4899
  call void @llvm.dbg.value(metadata i32 %216, metadata !4517, metadata !DIExpression()), !dbg !4917
  call void @llvm.dbg.value(metadata i32 %112, metadata !4518, metadata !DIExpression()), !dbg !4917
  call void @llvm.dbg.value(metadata i32 %216, metadata !4521, metadata !DIExpression()) #13, !dbg !4919
  call void @llvm.dbg.value(metadata i32 %112, metadata !4527, metadata !DIExpression()) #13, !dbg !4919
  %217 = tail call { i32, i32 } asm "mul $2", "={ax},={dx},r,{ax},~{cc},~{dirflag},~{fpsr},~{flags}"(i32 %216, i32 %112) #14, !dbg !4921, !srcloc !4533
  %218 = extractvalue { i32, i32 } %217, 0, !dbg !4921
  %219 = extractvalue { i32, i32 } %217, 1, !dbg !4921
  call void @llvm.dbg.value(metadata i32 %219, metadata !4734, metadata !DIExpression()), !dbg !4899
  call void @llvm.dbg.value(metadata i32 %218, metadata !4735, metadata !DIExpression()), !dbg !4899
  call void @llvm.dbg.value(metadata i32 %219, metadata !4748, metadata !DIExpression()), !dbg !4922
  call void @llvm.dbg.value(metadata i32 %218, metadata !4753, metadata !DIExpression()), !dbg !4922
  call void @llvm.dbg.value(metadata i32 %200, metadata !4754, metadata !DIExpression()), !dbg !4922
  call void @llvm.dbg.value(metadata i32 %203, metadata !4755, metadata !DIExpression()), !dbg !4922
  %220 = add i32 %218, %203, !dbg !4924
  %221 = icmp ult i32 %220, %218, !dbg !4925
  %222 = zext i1 %221 to i32, !dbg !4926
  call void @llvm.dbg.value(metadata i32 undef, metadata !4734, metadata !DIExpression()), !dbg !4899
  %223 = sub i32 %200, %112, !dbg !4927
  %224 = add i32 %223, %219, !dbg !4928
  %225 = add i32 %224, %222, !dbg !4929
  call void @llvm.dbg.value(metadata i32 %225, metadata !4734, metadata !DIExpression()), !dbg !4899
  call void @llvm.dbg.value(metadata i32 %220, metadata !4735, metadata !DIExpression()), !dbg !4899
  %226 = and i32 %225, %112, !dbg !4930
  %227 = add i32 %226, %220, !dbg !4931
  call void @llvm.dbg.value(metadata i32 %225, metadata !4734, metadata !DIExpression()), !dbg !4899
  %228 = sub i32 %225, %216, !dbg !4932
  store i32 %228, i32* %202, align 4, !dbg !4933, !tbaa !4396
  call void @llvm.dbg.value(metadata i32 %227, metadata !4630, metadata !DIExpression()), !dbg !4642
  %229 = lshr i32 %227, %111, !dbg !4934
  call void @llvm.dbg.value(metadata i32 %229, metadata !4630, metadata !DIExpression()), !dbg !4642
  br label %230, !dbg !4935

230:                                              ; preds = %58, %53, %98, %199
  %231 = phi i32 [ %99, %98 ], [ %229, %199 ], [ %15, %53 ], [ %90, %58 ], !dbg !4647
  call void @llvm.dbg.value(metadata i32 %231, metadata !4630, metadata !DIExpression()), !dbg !4642
  ret i32 %231, !dbg !4936
}

; Function Attrs: argmemonly nounwind willreturn
declare void @llvm.lifetime.end.p0i8(i64 immarg, i8* nocapture) #4

; Function Attrs: nounwind
declare void @_ZN4ArgsD1Ev(%class.Args*) unnamed_addr #3

; Function Attrs: sspstrong uwtable
define dso_local i32 @_ZN12RatedUnqueue10initializeEP12ErrorHandler(%class.RatedUnqueue* %0, %class.ErrorHandler* %1) unnamed_addr #0 align 2 personality i8* bitcast (i32 (...)* @__gxx_personality_v0 to i8*) !dbg !4937 {
  %3 = alloca %class.NotifierSignal, align 8
  call void @llvm.dbg.value(metadata %class.RatedUnqueue* %0, metadata !4939, metadata !DIExpression()), !dbg !4941
  call void @llvm.dbg.value(metadata %class.ErrorHandler* %1, metadata !4940, metadata !DIExpression()), !dbg !4941
  %4 = bitcast %class.RatedUnqueue* %0 to %class.Element*, !dbg !4942
  %5 = getelementptr inbounds %class.RatedUnqueue, %class.RatedUnqueue* %0, i64 0, i32 2, !dbg !4943
  call void @llvm.dbg.value(metadata %class.Element* %4, metadata !4944, metadata !DIExpression()), !dbg !4954
  call void @llvm.dbg.value(metadata %class.Task* %5, metadata !4952, metadata !DIExpression()), !dbg !4954
  call void @llvm.dbg.value(metadata %class.ErrorHandler* %1, metadata !4953, metadata !DIExpression()), !dbg !4954
  tail call void @_ZN12ScheduleInfo15initialize_taskEP7ElementP4TaskbP12ErrorHandler(%class.Element* %4, %class.Task* nonnull %5, i1 zeroext true, %class.ErrorHandler* %1), !dbg !4956
  %6 = bitcast %class.NotifierSignal* %3 to i8*, !dbg !4957
  call void @llvm.lifetime.start.p0i8(i64 16, i8* nonnull %6) #13, !dbg !4957
  call void @llvm.dbg.value(metadata %class.Element* %4, metadata !4958, metadata !DIExpression()), !dbg !4966
  call void @llvm.dbg.value(metadata i32 0, metadata !4964, metadata !DIExpression()), !dbg !4966
  call void @llvm.dbg.value(metadata %class.Task* %5, metadata !4965, metadata !DIExpression()), !dbg !4966
  %7 = bitcast %class.Task* %5 to i8*, !dbg !4968
  call void @_ZN8Notifier21upstream_empty_signalEP7ElementiPFvPvPS_ES2_(%class.NotifierSignal* nonnull sret %3, %class.Element* %4, i32 0, void (i8*, %class.Notifier*)* null, i8* nonnull %7), !dbg !4969
  %8 = getelementptr inbounds %class.RatedUnqueue, %class.RatedUnqueue* %0, i64 0, i32 4, !dbg !4970
  call void @llvm.dbg.value(metadata %class.NotifierSignal* %8, metadata !4971, metadata !DIExpression()), !dbg !4975
  call void @llvm.dbg.value(metadata %class.NotifierSignal* %3, metadata !4974, metadata !DIExpression()), !dbg !4975
  %9 = icmp eq %class.NotifierSignal* %8, %3, !dbg !4977
  br i1 %9, label %29, label %10, !dbg !4979, !prof !4980, !misexpect !4981

10:                                               ; preds = %2
  %11 = getelementptr inbounds %class.RatedUnqueue, %class.RatedUnqueue* %0, i64 0, i32 4, i32 1, !dbg !4982
  %12 = load i32, i32* %11, align 8, !dbg !4982, !tbaa !4334
  %13 = icmp eq i32 %12, 0, !dbg !4982
  br i1 %13, label %14, label %20, !dbg !4985, !prof !4980, !misexpect !4986

14:                                               ; preds = %10
  %15 = bitcast %class.NotifierSignal* %8 to %"struct.NotifierSignal::vmpair"**, !dbg !4987
  %16 = load %"struct.NotifierSignal::vmpair"*, %"struct.NotifierSignal::vmpair"** %15, align 8, !dbg !4987, !tbaa !4318
  %17 = icmp eq %"struct.NotifierSignal::vmpair"* %16, null, !dbg !4988
  br i1 %17, label %20, label %18, !dbg !4988

18:                                               ; preds = %14
  %19 = bitcast %"struct.NotifierSignal::vmpair"* %16 to i8*, !dbg !4988
  call void @_ZdaPv(i8* %19) #16, !dbg !4988
  br label %20, !dbg !4988

20:                                               ; preds = %18, %14, %10
  %21 = getelementptr inbounds %class.NotifierSignal, %class.NotifierSignal* %3, i64 0, i32 1, !dbg !4989
  %22 = load i32, i32* %21, align 8, !dbg !4989, !tbaa !4334
  store i32 %22, i32* %11, align 8, !dbg !4990, !tbaa !4334
  %23 = icmp eq i32 %22, 0, !dbg !4991
  br i1 %23, label %28, label %24, !dbg !4993, !prof !4980, !misexpect !4981

24:                                               ; preds = %20
  %25 = bitcast %class.NotifierSignal* %3 to i64*, !dbg !4994
  %26 = load i64, i64* %25, align 8, !dbg !4994, !tbaa !4318
  %27 = bitcast %class.NotifierSignal* %8 to i64*, !dbg !4995
  store i64 %26, i64* %27, align 8, !dbg !4995, !tbaa !4318
  br label %29, !dbg !4996

28:                                               ; preds = %20
  invoke void @_ZN14NotifierSignal14hard_assign_vmERKS_(%class.NotifierSignal* nonnull %8, %class.NotifierSignal* nonnull dereferenceable(16) %3)
          to label %29 unwind label %41, !dbg !4997

29:                                               ; preds = %24, %2, %28
  call void @llvm.dbg.value(metadata %class.NotifierSignal* %3, metadata !4998, metadata !DIExpression()) #13, !dbg !5001
  %30 = getelementptr inbounds %class.NotifierSignal, %class.NotifierSignal* %3, i64 0, i32 1, !dbg !5003
  %31 = load i32, i32* %30, align 8, !dbg !5003, !tbaa !4334
  %32 = icmp eq i32 %31, 0, !dbg !5003
  br i1 %32, label %33, label %39, !dbg !5006, !prof !4980, !misexpect !4986

33:                                               ; preds = %29
  %34 = bitcast %class.NotifierSignal* %3 to %"struct.NotifierSignal::vmpair"**, !dbg !5007
  %35 = load %"struct.NotifierSignal::vmpair"*, %"struct.NotifierSignal::vmpair"** %34, align 8, !dbg !5007, !tbaa !4318
  %36 = icmp eq %"struct.NotifierSignal::vmpair"* %35, null, !dbg !5008
  br i1 %36, label %39, label %37, !dbg !5008

37:                                               ; preds = %33
  %38 = bitcast %"struct.NotifierSignal::vmpair"* %35 to i8*, !dbg !5008
  call void @_ZdaPv(i8* %38) #16, !dbg !5008
  br label %39, !dbg !5008

39:                                               ; preds = %29, %33, %37
  call void @llvm.lifetime.end.p0i8(i64 16, i8* nonnull %6) #13, !dbg !4970
  %40 = getelementptr inbounds %class.RatedUnqueue, %class.RatedUnqueue* %0, i64 0, i32 3, !dbg !5009
  call void @_ZN5Timer10initializeEP7Elementb(%class.Timer* nonnull %40, %class.Element* %4, i1 zeroext false), !dbg !5010
  ret i32 0, !dbg !5011

41:                                               ; preds = %28
  %42 = landingpad { i8*, i32 }
          cleanup, !dbg !5012
  call void @llvm.dbg.value(metadata %class.NotifierSignal* %3, metadata !4998, metadata !DIExpression()) #13, !dbg !5013
  %43 = load i32, i32* %21, align 8, !dbg !5015, !tbaa !4334
  %44 = icmp eq i32 %43, 0, !dbg !5015
  br i1 %44, label %45, label %51, !dbg !5016, !prof !4980, !misexpect !4986

45:                                               ; preds = %41
  %46 = bitcast %class.NotifierSignal* %3 to %"struct.NotifierSignal::vmpair"**, !dbg !5017
  %47 = load %"struct.NotifierSignal::vmpair"*, %"struct.NotifierSignal::vmpair"** %46, align 8, !dbg !5017, !tbaa !4318
  %48 = icmp eq %"struct.NotifierSignal::vmpair"* %47, null, !dbg !5018
  br i1 %48, label %51, label %49, !dbg !5018

49:                                               ; preds = %45
  %50 = bitcast %"struct.NotifierSignal::vmpair"* %47 to i8*, !dbg !5018
  call void @_ZdaPv(i8* %50) #16, !dbg !5018
  br label %51, !dbg !5018

51:                                               ; preds = %41, %45, %49
  call void @llvm.lifetime.end.p0i8(i64 16, i8* nonnull %6) #13, !dbg !4970
  resume { i8*, i32 } %42, !dbg !4970
}

declare void @_ZN5Timer10initializeEP7Elementb(%class.Timer*, %class.Element*, i1 zeroext) local_unnamed_addr #2

; Function Attrs: sspstrong uwtable
define dso_local zeroext i1 @_ZN12RatedUnqueue8run_taskEP4Task(%class.RatedUnqueue* %0, %class.Task* nocapture readnone %1) unnamed_addr #0 align 2 !dbg !5019 {
  %3 = alloca %class.Timestamp, align 8
  call void @llvm.dbg.value(metadata %class.RatedUnqueue* %0, metadata !5021, metadata !DIExpression()), !dbg !5028
  call void @llvm.dbg.value(metadata %class.Task* undef, metadata !5022, metadata !DIExpression()), !dbg !5028
  call void @llvm.dbg.value(metadata i8 0, metadata !5023, metadata !DIExpression()), !dbg !5028
  %4 = getelementptr inbounds %class.RatedUnqueue, %class.RatedUnqueue* %0, i64 0, i32 5, !dbg !5029
  %5 = load i32, i32* %4, align 8, !dbg !5030, !tbaa !5031
  %6 = add i32 %5, 1, !dbg !5030
  store i32 %6, i32* %4, align 8, !dbg !5030, !tbaa !5031
  %7 = getelementptr inbounds %class.RatedUnqueue, %class.RatedUnqueue* %0, i64 0, i32 9, !dbg !5032
  %8 = load i8, i8* %7, align 8, !dbg !5032, !tbaa !4342, !range !4484
  %9 = icmp eq i8 %8, 0, !dbg !5032
  br i1 %9, label %147, label %10, !dbg !5034

10:                                               ; preds = %2
  %11 = getelementptr inbounds %class.RatedUnqueue, %class.RatedUnqueue* %0, i64 0, i32 1, !dbg !5035
  call void @llvm.dbg.value(metadata %class.TokenBucketX* %11, metadata !5036, metadata !DIExpression()), !dbg !5039
  %12 = getelementptr inbounds %class.RatedUnqueue, %class.RatedUnqueue* %0, i64 0, i32 1, i32 1, !dbg !5041
  call void @llvm.dbg.value(metadata %class.TokenCounterX* %12, metadata !5042, metadata !DIExpression()), !dbg !5046
  call void @llvm.dbg.value(metadata %class.TokenBucketX* %11, metadata !5045, metadata !DIExpression()), !dbg !5046
  call void @llvm.dbg.value(metadata %class.TokenBucketX* %11, metadata !5048, metadata !DIExpression()), !dbg !5052
  %13 = tail call i32 @_Z13click_jiffiesv(), !dbg !5054
  call void @llvm.dbg.value(metadata %class.TokenCounterX* %12, metadata !5057, metadata !DIExpression()), !dbg !5067
  call void @llvm.dbg.value(metadata %class.TokenBucketX* %11, metadata !5060, metadata !DIExpression()), !dbg !5067
  call void @llvm.dbg.value(metadata i32 %13, metadata !5061, metadata !DIExpression()), !dbg !5067
  %14 = getelementptr inbounds %class.RatedUnqueue, %class.RatedUnqueue* %0, i64 0, i32 1, i32 1, i32 1, !dbg !5069
  %15 = load i32, i32* %14, align 4, !dbg !5069, !tbaa !5070
  call void @llvm.dbg.value(metadata %class.TokenBucketX* %11, metadata !5071, metadata !DIExpression()), !dbg !5076
  call void @llvm.dbg.value(metadata i32 %15, metadata !5074, metadata !DIExpression()), !dbg !5076
  call void @llvm.dbg.value(metadata i32 %13, metadata !5075, metadata !DIExpression()), !dbg !5076
  call void @llvm.dbg.value(metadata i32 %15, metadata !5078, metadata !DIExpression()) #13, !dbg !5082
  call void @llvm.dbg.value(metadata i32 %13, metadata !5081, metadata !DIExpression()) #13, !dbg !5082
  %16 = tail call i32 @llvm.usub.sat.i32(i32 %13, i32 %15) #13, !dbg !5084
  call void @llvm.dbg.value(metadata i32 %16, metadata !5062, metadata !DIExpression()), !dbg !5067
  call void @llvm.dbg.value(metadata %class.TokenBucketX* %11, metadata !5085, metadata !DIExpression()), !dbg !5088
  %17 = getelementptr inbounds %class.RatedUnqueue, %class.RatedUnqueue* %0, i64 0, i32 1, i32 0, i32 2, !dbg !5090
  %18 = load i32, i32* %17, align 4, !dbg !5090, !tbaa !5091
  %19 = icmp ult i32 %16, %18, !dbg !5092
  br i1 %19, label %22, label %20, !dbg !5093

20:                                               ; preds = %10
  %21 = getelementptr inbounds %class.TokenCounterX, %class.TokenCounterX* %12, i64 0, i32 0, !dbg !5094
  store i32 -1, i32* %21, align 4, !dbg !5096, !tbaa !5097
  br label %31, !dbg !5098

22:                                               ; preds = %10
  %23 = icmp ult i32 %15, %13, !dbg !5099
  br i1 %23, label %24, label %31, !dbg !5100

24:                                               ; preds = %22
  %25 = getelementptr inbounds %class.TokenCounterX, %class.TokenCounterX* %12, i64 0, i32 0, !dbg !5101
  %26 = load i32, i32* %25, align 4, !dbg !5101, !tbaa !5097
  call void @llvm.dbg.value(metadata %class.TokenBucketX* %11, metadata !5102, metadata !DIExpression()), !dbg !5105
  %27 = getelementptr inbounds %class.TokenBucketX, %class.TokenBucketX* %11, i64 0, i32 0, i32 0, !dbg !5107
  %28 = load i32, i32* %27, align 4, !dbg !5107, !tbaa !4285
  %29 = mul i32 %28, %16, !dbg !5108
  call void @llvm.dbg.value(metadata i32 undef, metadata !5063, metadata !DIExpression()), !dbg !5109
  %30 = tail call i32 @llvm.uadd.sat.i32(i32 %26, i32 %29), !dbg !5110
  store i32 %30, i32* %25, align 4, !dbg !5111, !tbaa !5097
  br label %31, !dbg !5112

31:                                               ; preds = %20, %22, %24
  store i32 %13, i32* %14, align 4, !dbg !5113, !tbaa !5070
  call void @llvm.dbg.value(metadata %class.TokenBucketX* %11, metadata !5114, metadata !DIExpression()), !dbg !5119
  call void @llvm.dbg.value(metadata i32 1, metadata !5117, metadata !DIExpression()), !dbg !5119
  call void @llvm.dbg.value(metadata %class.TokenBucketX* %11, metadata !5121, metadata !DIExpression(DW_OP_plus_uconst, 12, DW_OP_stack_value)), !dbg !5127
  call void @llvm.dbg.value(metadata %class.TokenBucketX* %11, metadata !5124, metadata !DIExpression()), !dbg !5127
  call void @llvm.dbg.value(metadata i32 1, metadata !5125, metadata !DIExpression()), !dbg !5127
  call void @llvm.dbg.value(metadata %class.TokenBucketX* %11, metadata !5129, metadata !DIExpression()), !dbg !5144
  call void @llvm.dbg.value(metadata %class.TokenBucketX* %11, metadata !5146, metadata !DIExpression()), !dbg !5149
  %32 = getelementptr inbounds %class.RatedUnqueue, %class.RatedUnqueue* %0, i64 0, i32 1, i32 0, i32 1, !dbg !5151
  %33 = load i32, i32* %32, align 4, !dbg !5151, !tbaa !4279
  call void @llvm.dbg.value(metadata i32 1, metadata !4521, metadata !DIExpression()) #13, !dbg !5152
  call void @llvm.dbg.value(metadata i32 %33, metadata !4527, metadata !DIExpression()) #13, !dbg !5152
  %34 = tail call { i32, i32 } asm "mul $2", "={ax},={dx},r,{ax},~{cc},~{dirflag},~{fpsr},~{flags}"(i32 1, i32 %33) #14, !dbg !5154, !srcloc !4533
  %35 = extractvalue { i32, i32 } %34, 1, !dbg !5154
  call void @llvm.dbg.value(metadata i32 %35, metadata !5143, metadata !DIExpression()), !dbg !5144
  %36 = icmp eq i32 %35, 0, !dbg !5155
  br i1 %36, label %37, label %114, !dbg !5157

37:                                               ; preds = %31
  call void @llvm.dbg.value(metadata %class.TokenBucketX* %11, metadata !5121, metadata !DIExpression(DW_OP_plus_uconst, 12, DW_OP_stack_value)), !dbg !5127
  %38 = extractvalue { i32, i32 } %34, 0, !dbg !5154
  call void @llvm.dbg.value(metadata i32 %38, metadata !5125, metadata !DIExpression()), !dbg !5127
  call void @llvm.dbg.value(metadata %class.TokenBucketX* %11, metadata !5158, metadata !DIExpression(DW_OP_plus_uconst, 12, DW_OP_stack_value)), !dbg !5162
  call void @llvm.dbg.value(metadata i32 %38, metadata !5161, metadata !DIExpression()), !dbg !5162
  %39 = getelementptr inbounds %class.RatedUnqueue, %class.RatedUnqueue* %0, i64 0, i32 1, i32 1, i32 0, !dbg !5164
  %40 = load i32, i32* %39, align 4, !dbg !5164, !tbaa !5097
  %41 = icmp ult i32 %40, %38, !dbg !5165
  br i1 %41, label %117, label %42, !dbg !5166

42:                                               ; preds = %37
  %43 = bitcast %class.RatedUnqueue* %0 to %class.Element*, !dbg !5167
  %44 = tail call dereferenceable(16) %"class.Element::Port"* @_ZNK7Element5inputEi(%class.Element* %43, i32 0), !dbg !5167
  call void @llvm.dbg.value(metadata %"class.Element::Port"* %44, metadata !5168, metadata !DIExpression()), !dbg !5204
  %45 = getelementptr inbounds %"class.Element::Port", %"class.Element::Port"* %44, i64 0, i32 0, !dbg !5206
  %46 = load %class.Element*, %class.Element** %45, align 8, !dbg !5206, !tbaa !5207
  %47 = icmp eq %class.Element* %46, null, !dbg !5206
  br i1 %47, label %48, label %49, !dbg !5206

48:                                               ; preds = %42
  tail call void @__assert_fail(i8* getelementptr inbounds ([3 x i8], [3 x i8]* @.str.16, i64 0, i64 0), i8* getelementptr inbounds ([30 x i8], [30 x i8]* @.str.15, i64 0, i64 0), i32 657, i8* getelementptr inbounds ([36 x i8], [36 x i8]* @__PRETTY_FUNCTION__._ZNK7Element4Port4pullEv, i64 0, i64 0)) #15, !dbg !5206
  unreachable, !dbg !5206

49:                                               ; preds = %42
  %50 = getelementptr inbounds %"class.Element::Port", %"class.Element::Port"* %44, i64 0, i32 1, !dbg !5209
  %51 = load i32, i32* %50, align 8, !dbg !5209, !tbaa !5210
  %52 = bitcast %class.Element* %46 to %class.Packet* (%class.Element*, i32)***, !dbg !5211
  %53 = load %class.Packet* (%class.Element*, i32)**, %class.Packet* (%class.Element*, i32)*** %52, align 8, !dbg !5211, !tbaa !4255
  %54 = getelementptr inbounds %class.Packet* (%class.Element*, i32)*, %class.Packet* (%class.Element*, i32)** %53, i64 3, !dbg !5211
  %55 = load %class.Packet* (%class.Element*, i32)*, %class.Packet* (%class.Element*, i32)** %54, align 8, !dbg !5211
  %56 = tail call %class.Packet* %55(%class.Element* nonnull %46, i32 %51), !dbg !5211
  call void @llvm.dbg.value(metadata %class.Packet* %56, metadata !5202, metadata !DIExpression()), !dbg !5204
  call void @llvm.dbg.value(metadata %class.Packet* %56, metadata !5024, metadata !DIExpression()), !dbg !5212
  %57 = icmp eq %class.Packet* %56, null, !dbg !5213
  br i1 %57, label %74, label %58, !dbg !5214

58:                                               ; preds = %49
  call void @llvm.dbg.value(metadata %class.TokenBucketX* %11, metadata !5215, metadata !DIExpression()), !dbg !5219
  call void @llvm.dbg.value(metadata i32 1, metadata !5218, metadata !DIExpression()), !dbg !5219
  call void @llvm.dbg.value(metadata %class.TokenBucketX* %11, metadata !5222, metadata !DIExpression(DW_OP_plus_uconst, 12, DW_OP_stack_value)), !dbg !5227
  call void @llvm.dbg.value(metadata %class.TokenBucketX* %11, metadata !5225, metadata !DIExpression()), !dbg !5227
  call void @llvm.dbg.value(metadata i32 1, metadata !5226, metadata !DIExpression()), !dbg !5227
  call void @llvm.dbg.value(metadata %class.TokenBucketX* %11, metadata !5129, metadata !DIExpression()), !dbg !5229
  call void @llvm.dbg.value(metadata %class.TokenBucketX* %11, metadata !5146, metadata !DIExpression()), !dbg !5231
  %59 = load i32, i32* %32, align 4, !dbg !5233, !tbaa !4279
  call void @llvm.dbg.value(metadata i32 1, metadata !4521, metadata !DIExpression()) #13, !dbg !5234
  call void @llvm.dbg.value(metadata i32 %59, metadata !4527, metadata !DIExpression()) #13, !dbg !5234
  %60 = tail call { i32, i32 } asm "mul $2", "={ax},={dx},r,{ax},~{cc},~{dirflag},~{fpsr},~{flags}"(i32 1, i32 %59) #14, !dbg !5236, !srcloc !4533
  %61 = extractvalue { i32, i32 } %60, 0, !dbg !5236
  %62 = extractvalue { i32, i32 } %60, 1, !dbg !5236
  call void @llvm.dbg.value(metadata i32 %62, metadata !5143, metadata !DIExpression()), !dbg !5229
  %63 = icmp eq i32 %62, 0, !dbg !5237
  %64 = select i1 %63, i32 %61, i32 -1, !dbg !5238
  call void @llvm.dbg.value(metadata i32 %64, metadata !5226, metadata !DIExpression()), !dbg !5227
  call void @llvm.dbg.value(metadata %class.TokenBucketX* %11, metadata !5239, metadata !DIExpression(DW_OP_plus_uconst, 12, DW_OP_stack_value)) #13, !dbg !5243
  call void @llvm.dbg.value(metadata i32 %64, metadata !5242, metadata !DIExpression()) #13, !dbg !5243
  %65 = load i32, i32* %39, align 4, !dbg !5245, !tbaa !5097
  %66 = tail call i32 @llvm.usub.sat.i32(i32 %65, i32 %64) #13, !dbg !5246
  store i32 %66, i32* %39, align 4, !dbg !5247, !tbaa !5097
  %67 = tail call dereferenceable(16) %"class.Element::Port"* @_ZNK7Element6outputEi(%class.Element* %43, i32 0), !dbg !5248
  tail call void @_ZNK7Element4Port4pushEP6Packet(%"class.Element::Port"* nonnull %67, %class.Packet* nonnull %56), !dbg !5249
  %68 = getelementptr inbounds %class.RatedUnqueue, %class.RatedUnqueue* %0, i64 0, i32 6, !dbg !5250
  %69 = load i32, i32* %68, align 4, !dbg !5251, !tbaa !5252
  %70 = add i32 %69, 1, !dbg !5251
  store i32 %70, i32* %68, align 4, !dbg !5251, !tbaa !5252
  call void @llvm.dbg.value(metadata i8 1, metadata !5023, metadata !DIExpression()), !dbg !5028
  call void @llvm.dbg.value(metadata i8 undef, metadata !5023, metadata !DIExpression()), !dbg !5028
  call void @llvm.dbg.value(metadata i8 undef, metadata !5023, metadata !DIExpression()), !dbg !5028
  call void @llvm.dbg.value(metadata %class.RatedUnqueue* %0, metadata !5253, metadata !DIExpression(DW_OP_plus_uconst, 128, DW_OP_stack_value)), !dbg !5256
  %71 = getelementptr inbounds %class.RatedUnqueue, %class.RatedUnqueue* %0, i64 0, i32 2, i32 3, !dbg !5258
  %72 = bitcast %"union.Task::Status"* %71 to %struct.anon*, !dbg !5259
  %73 = getelementptr inbounds %struct.anon, %struct.anon* %72, i64 0, i32 1, !dbg !5259
  store i8 1, i8* %73, align 2, !dbg !5260, !tbaa !4318
  br label %147, !dbg !5261

74:                                               ; preds = %49
  %75 = getelementptr inbounds %class.RatedUnqueue, %class.RatedUnqueue* %0, i64 0, i32 7, !dbg !5262
  %76 = load i32, i32* %75, align 8, !dbg !5264, !tbaa !5265
  %77 = add i32 %76, 1, !dbg !5264
  store i32 %77, i32* %75, align 8, !dbg !5264, !tbaa !5265
  %78 = getelementptr inbounds %class.RatedUnqueue, %class.RatedUnqueue* %0, i64 0, i32 4, !dbg !5266
  call void @llvm.dbg.value(metadata %class.NotifierSignal* %78, metadata !5268, metadata !DIExpression()), !dbg !5272
  call void @llvm.dbg.value(metadata %class.NotifierSignal* %78, metadata !5274, metadata !DIExpression()), !dbg !5281
  tail call void asm sideeffect "", "~{memory},~{dirflag},~{fpsr},~{flags}"() #13, !dbg !5283, !srcloc !5289
  %79 = getelementptr inbounds %class.RatedUnqueue, %class.RatedUnqueue* %0, i64 0, i32 4, i32 1, !dbg !5290
  %80 = load i32, i32* %79, align 8, !dbg !5290, !tbaa !4334
  %81 = icmp eq i32 %80, 0, !dbg !5290
  br i1 %81, label %82, label %102, !dbg !5291, !prof !4980, !misexpect !4981

82:                                               ; preds = %74
  %83 = bitcast %class.NotifierSignal* %78 to %"struct.NotifierSignal::vmpair"**, !dbg !5292
  %84 = load %"struct.NotifierSignal::vmpair"*, %"struct.NotifierSignal::vmpair"** %83, align 8, !dbg !5292, !tbaa !4318
  call void @llvm.dbg.value(metadata %"struct.NotifierSignal::vmpair"* %84, metadata !5277, metadata !DIExpression()), !dbg !5293
  %85 = getelementptr inbounds %"struct.NotifierSignal::vmpair", %"struct.NotifierSignal::vmpair"* %84, i64 0, i32 1, !dbg !5294
  %86 = load i32, i32* %85, align 8, !dbg !5294, !tbaa !5296
  %87 = icmp eq i32 %86, 0, !dbg !5298
  br i1 %87, label %110, label %93, !dbg !5299

88:                                               ; preds = %93
  %89 = getelementptr inbounds %"struct.NotifierSignal::vmpair", %"struct.NotifierSignal::vmpair"* %95, i64 1, !dbg !5300
  call void @llvm.dbg.value(metadata %"struct.NotifierSignal::vmpair"* %89, metadata !5277, metadata !DIExpression()), !dbg !5293
  call void @llvm.dbg.value(metadata %"struct.NotifierSignal::vmpair"* %89, metadata !5277, metadata !DIExpression()), !dbg !5293
  %90 = getelementptr inbounds %"struct.NotifierSignal::vmpair", %"struct.NotifierSignal::vmpair"* %95, i64 1, i32 1, !dbg !5294
  %91 = load i32, i32* %90, align 8, !dbg !5294, !tbaa !5296
  %92 = icmp eq i32 %91, 0, !dbg !5298
  br i1 %92, label %110, label %93, !dbg !5299, !llvm.loop !5301

93:                                               ; preds = %82, %88
  %94 = phi i32 [ %91, %88 ], [ %86, %82 ]
  %95 = phi %"struct.NotifierSignal::vmpair"* [ %89, %88 ], [ %84, %82 ]
  call void @llvm.dbg.value(metadata %"struct.NotifierSignal::vmpair"* %95, metadata !5277, metadata !DIExpression()), !dbg !5293
  %96 = getelementptr inbounds %"struct.NotifierSignal::vmpair", %"struct.NotifierSignal::vmpair"* %95, i64 0, i32 0, !dbg !5303
  %97 = load %class.atomic_uint32_t*, %class.atomic_uint32_t** %96, align 8, !dbg !5303, !tbaa !5305
  call void @llvm.dbg.value(metadata %class.atomic_uint32_t* %97, metadata !5306, metadata !DIExpression()), !dbg !5310
  call void @llvm.dbg.value(metadata %class.atomic_uint32_t* %97, metadata !5312, metadata !DIExpression()), !dbg !5315
  %98 = getelementptr inbounds %class.atomic_uint32_t, %class.atomic_uint32_t* %97, i64 0, i32 0, !dbg !5317
  %99 = load i32, i32* %98, align 4, !dbg !5317, !tbaa !5318
  %100 = and i32 %99, %94, !dbg !5320
  %101 = icmp eq i32 %100, 0, !dbg !5321
  call void @llvm.dbg.value(metadata %"struct.NotifierSignal::vmpair"* %95, metadata !5277, metadata !DIExpression(DW_OP_plus_uconst, 16, DW_OP_stack_value)), !dbg !5293
  br i1 %101, label %88, label %109, !dbg !5322

102:                                              ; preds = %74
  %103 = getelementptr inbounds %class.NotifierSignal, %class.NotifierSignal* %78, i64 0, i32 0, i32 0, !dbg !5323
  %104 = load %class.atomic_uint32_t*, %class.atomic_uint32_t** %103, align 8, !dbg !5323, !tbaa !4318
  call void @llvm.dbg.value(metadata %class.atomic_uint32_t* %104, metadata !5306, metadata !DIExpression()), !dbg !5324
  call void @llvm.dbg.value(metadata %class.atomic_uint32_t* %104, metadata !5312, metadata !DIExpression()), !dbg !5326
  %105 = getelementptr inbounds %class.atomic_uint32_t, %class.atomic_uint32_t* %104, i64 0, i32 0, !dbg !5328
  %106 = load i32, i32* %105, align 4, !dbg !5328, !tbaa !5318
  %107 = and i32 %106, %80, !dbg !5329
  %108 = icmp eq i32 %107, 0, !dbg !5330
  br i1 %108, label %110, label %109, !dbg !5331

109:                                              ; preds = %93, %102
  br label %110, !dbg !5331

110:                                              ; preds = %88, %82, %102, %109
  %111 = phi { i64, i64 } [ { i64 ptrtoint (i1 (%class.NotifierSignal*)* @_ZNK14NotifierSignal6activeEv to i64), i64 0 }, %109 ], [ zeroinitializer, %102 ], [ zeroinitializer, %82 ], [ zeroinitializer, %88 ]
  %112 = extractvalue { i64, i64 } %111, 0, !dbg !5266
  %113 = icmp eq i64 %112, 0, !dbg !5266
  br i1 %113, label %147, label %140, !dbg !5332

114:                                              ; preds = %31
  %115 = getelementptr inbounds %class.RatedUnqueue, %class.RatedUnqueue* %0, i64 0, i32 3, !dbg !5333
  %116 = bitcast %class.Timestamp* %3 to i8*, !dbg !5335
  call void @llvm.lifetime.start.p0i8(i64 8, i8* nonnull %116) #13, !dbg !5335
  call void @llvm.dbg.value(metadata %class.TokenBucketX* %11, metadata !5336, metadata !DIExpression()), !dbg !5340
  call void @llvm.dbg.value(metadata i32 1, metadata !5339, metadata !DIExpression()), !dbg !5340
  call void @llvm.dbg.value(metadata %class.TokenBucketX* %11, metadata !5342, metadata !DIExpression(DW_OP_plus_uconst, 12, DW_OP_stack_value)), !dbg !5347
  call void @llvm.dbg.value(metadata %class.TokenBucketX* %11, metadata !5345, metadata !DIExpression()), !dbg !5347
  call void @llvm.dbg.value(metadata i32 1, metadata !5346, metadata !DIExpression()), !dbg !5347
  call void @llvm.dbg.value(metadata %class.TokenBucketX* %11, metadata !5129, metadata !DIExpression()), !dbg !5349
  call void @llvm.dbg.value(metadata %class.TokenBucketX* %11, metadata !5146, metadata !DIExpression()), !dbg !5352
  call void @llvm.dbg.value(metadata i32 1, metadata !4521, metadata !DIExpression()) #13, !dbg !5354
  call void @llvm.dbg.value(metadata i32 %33, metadata !4527, metadata !DIExpression()) #13, !dbg !5354
  call void @llvm.dbg.value(metadata i32 %35, metadata !5143, metadata !DIExpression()), !dbg !5349
  br label %132, !dbg !5356

117:                                              ; preds = %37
  %118 = getelementptr inbounds %class.RatedUnqueue, %class.RatedUnqueue* %0, i64 0, i32 3, !dbg !5333
  %119 = bitcast %class.Timestamp* %3 to i8*, !dbg !5335
  call void @llvm.lifetime.start.p0i8(i64 8, i8* nonnull %119) #13, !dbg !5335
  call void @llvm.dbg.value(metadata %class.TokenBucketX* %11, metadata !5336, metadata !DIExpression()), !dbg !5340
  call void @llvm.dbg.value(metadata i32 1, metadata !5339, metadata !DIExpression()), !dbg !5340
  call void @llvm.dbg.value(metadata %class.TokenBucketX* %11, metadata !5342, metadata !DIExpression(DW_OP_plus_uconst, 12, DW_OP_stack_value)), !dbg !5347
  call void @llvm.dbg.value(metadata %class.TokenBucketX* %11, metadata !5345, metadata !DIExpression()), !dbg !5347
  call void @llvm.dbg.value(metadata i32 1, metadata !5346, metadata !DIExpression()), !dbg !5347
  call void @llvm.dbg.value(metadata %class.TokenBucketX* %11, metadata !5129, metadata !DIExpression()), !dbg !5349
  call void @llvm.dbg.value(metadata %class.TokenBucketX* %11, metadata !5146, metadata !DIExpression()), !dbg !5352
  call void @llvm.dbg.value(metadata i32 1, metadata !4521, metadata !DIExpression()) #13, !dbg !5354
  call void @llvm.dbg.value(metadata i32 %33, metadata !4527, metadata !DIExpression()) #13, !dbg !5354
  call void @llvm.dbg.value(metadata i32 %35, metadata !5143, metadata !DIExpression()), !dbg !5349
  call void @llvm.dbg.value(metadata %class.TokenBucketX* %11, metadata !5342, metadata !DIExpression(DW_OP_plus_uconst, 12, DW_OP_stack_value)), !dbg !5347
  call void @llvm.dbg.value(metadata i32 -1, metadata !5346, metadata !DIExpression()), !dbg !5347
  call void @llvm.dbg.value(metadata %class.TokenBucketX* %11, metadata !5357, metadata !DIExpression(DW_OP_plus_uconst, 12, DW_OP_stack_value)), !dbg !5362
  call void @llvm.dbg.value(metadata %class.TokenBucketX* %11, metadata !5360, metadata !DIExpression()), !dbg !5362
  call void @llvm.dbg.value(metadata i32 -1, metadata !5361, metadata !DIExpression()), !dbg !5362
  %120 = icmp eq i32 %18, 0, !dbg !5364
  call void @llvm.dbg.value(metadata %class.TokenBucketX* %11, metadata !5085, metadata !DIExpression()), !dbg !5366
  br i1 %120, label %132, label %121, !dbg !5368

121:                                              ; preds = %117
  call void @llvm.dbg.value(metadata %class.TokenBucketX* %11, metadata !5102, metadata !DIExpression()), !dbg !5369
  %122 = getelementptr inbounds %class.TokenBucketX, %class.TokenBucketX* %11, i64 0, i32 0, i32 0, !dbg !5372
  %123 = load i32, i32* %122, align 4, !dbg !5372, !tbaa !4285
  %124 = icmp eq i32 %123, 0, !dbg !5373
  br i1 %124, label %132, label %125, !dbg !5374

125:                                              ; preds = %121
  %126 = xor i32 %40, -1, !dbg !5375
  %127 = add i32 %38, %126, !dbg !5375
  call void @llvm.dbg.value(metadata %class.TokenBucketX* %11, metadata !5102, metadata !DIExpression()), !dbg !5376
  %128 = udiv i32 %127, %123, !dbg !5378
  %129 = add i32 %128, 1, !dbg !5379
  %130 = zext i32 %129 to i64, !dbg !5380
  %131 = mul nuw nsw i64 %130, 1000000, !dbg !5380
  br label %132, !dbg !5380

132:                                              ; preds = %117, %114, %121, %125
  %133 = phi i8* [ %116, %114 ], [ %119, %125 ], [ %119, %117 ], [ %119, %121 ]
  %134 = phi %class.Timer* [ %115, %114 ], [ %118, %125 ], [ %118, %117 ], [ %118, %121 ]
  %135 = phi i64 [ 4294967295000000, %114 ], [ %131, %125 ], [ 0, %117 ], [ 4294967295000000, %121 ]
  %136 = getelementptr inbounds %class.Timestamp, %class.Timestamp* %3, i64 0, i32 0, i32 0, !dbg !5335
  store i64 %135, i64* %136, align 8, !dbg !5335
  call void @_ZN5Timer14schedule_afterERK9Timestamp(%class.Timer* nonnull %134, %class.Timestamp* nonnull dereferenceable(8) %3), !dbg !5381
  call void @llvm.lifetime.end.p0i8(i64 8, i8* nonnull %133) #13, !dbg !5333
  %137 = getelementptr inbounds %class.RatedUnqueue, %class.RatedUnqueue* %0, i64 0, i32 8, !dbg !5382
  %138 = load i32, i32* %137, align 4, !dbg !5383, !tbaa !5384
  %139 = add i32 %138, 1, !dbg !5383
  store i32 %139, i32* %137, align 4, !dbg !5383, !tbaa !5384
  br label %147, !dbg !5385

140:                                              ; preds = %110
  call void @llvm.dbg.value(metadata i8 undef, metadata !5023, metadata !DIExpression()), !dbg !5028
  call void @llvm.dbg.value(metadata i8 undef, metadata !5023, metadata !DIExpression()), !dbg !5028
  call void @llvm.dbg.value(metadata %class.RatedUnqueue* %0, metadata !5253, metadata !DIExpression(DW_OP_plus_uconst, 128, DW_OP_stack_value)), !dbg !5256
  %141 = getelementptr inbounds %class.RatedUnqueue, %class.RatedUnqueue* %0, i64 0, i32 2, i32 3, !dbg !5258
  %142 = bitcast %"union.Task::Status"* %141 to %struct.anon*, !dbg !5259
  %143 = getelementptr inbounds %struct.anon, %struct.anon* %142, i64 0, i32 1, !dbg !5259
  store i8 1, i8* %143, align 2, !dbg !5260, !tbaa !4318
  %144 = getelementptr inbounds %class.RatedUnqueue, %class.RatedUnqueue* %0, i64 0, i32 8, !dbg !5386
  %145 = load i32, i32* %144, align 4, !dbg !5388, !tbaa !5384
  %146 = add i32 %145, 1, !dbg !5388
  store i32 %146, i32* %144, align 4, !dbg !5388, !tbaa !5384
  br label %147, !dbg !5386

147:                                              ; preds = %58, %110, %140, %2, %132
  %148 = phi i1 [ false, %132 ], [ false, %2 ], [ false, %140 ], [ false, %110 ], [ true, %58 ]
  ret i1 %148, !dbg !5389
}

; Function Attrs: noinline optnone sspstrong uwtable
define linkonce_odr dso_local dereferenceable(16) %"class.Element::Port"* @_ZNK7Element5inputEi(%class.Element* %0, i32 %1) local_unnamed_addr #5 comdat align 2 !dbg !5390 {
  %3 = alloca %class.Element*, align 8
  %4 = alloca i32, align 4
  store %class.Element* %0, %class.Element** %3, align 8, !tbaa !5399
  call void @llvm.dbg.declare(metadata %class.Element** %3, metadata !5397, metadata !DIExpression()), !dbg !5400
  store i32 %1, i32* %4, align 4, !tbaa !4396
  call void @llvm.dbg.declare(metadata i32* %4, metadata !5398, metadata !DIExpression()), !dbg !5401
  %5 = load %class.Element*, %class.Element** %3, align 8
  %6 = load i32, i32* %4, align 4, !dbg !5402, !tbaa !4396
  %7 = call dereferenceable(16) %"class.Element::Port"* @_ZNK7Element4portEbi(%class.Element* %5, i1 zeroext false, i32 %6), !dbg !5403
  ret %"class.Element::Port"* %7, !dbg !5404
}

; Function Attrs: noinline nounwind optnone sspstrong uwtable
define linkonce_odr dso_local dereferenceable(16) %"class.Element::Port"* @_ZNK7Element6outputEi(%class.Element* %0, i32 %1) local_unnamed_addr #6 comdat align 2 !dbg !5405 {
  %3 = alloca %class.Element*, align 8
  %4 = alloca i32, align 4
  store %class.Element* %0, %class.Element** %3, align 8, !tbaa !5399
  call void @llvm.dbg.declare(metadata %class.Element** %3, metadata !5408, metadata !DIExpression()), !dbg !5410
  store i32 %1, i32* %4, align 4, !tbaa !4396
  call void @llvm.dbg.declare(metadata i32* %4, metadata !5409, metadata !DIExpression()), !dbg !5411
  %5 = load %class.Element*, %class.Element** %3, align 8
  %6 = load i32, i32* %4, align 4, !dbg !5412, !tbaa !4396
  %7 = call dereferenceable(16) %"class.Element::Port"* @_ZNK7Element4portEbi(%class.Element* %5, i1 zeroext true, i32 %6), !dbg !5413
  ret %"class.Element::Port"* %7, !dbg !5414
}

; Function Attrs: noinline optnone sspstrong uwtable
define linkonce_odr dso_local void @_ZNK7Element4Port4pushEP6Packet(%"class.Element::Port"* %0, %class.Packet* %1) local_unnamed_addr #5 comdat align 2 !dbg !5415 {
  %3 = alloca %"class.Element::Port"*, align 8
  %4 = alloca %class.Packet*, align 8
  store %"class.Element::Port"* %0, %"class.Element::Port"** %3, align 8, !tbaa !5399
  call void @llvm.dbg.declare(metadata %"class.Element::Port"** %3, metadata !5417, metadata !DIExpression()), !dbg !5419
  store %class.Packet* %1, %class.Packet** %4, align 8, !tbaa !5399
  call void @llvm.dbg.declare(metadata %class.Packet** %4, metadata !5418, metadata !DIExpression()), !dbg !5420
  %5 = load %"class.Element::Port"*, %"class.Element::Port"** %3, align 8
  %6 = getelementptr inbounds %"class.Element::Port", %"class.Element::Port"* %5, i32 0, i32 0, !dbg !5421
  %7 = load %class.Element*, %class.Element** %6, align 8, !dbg !5421, !tbaa !5207
  %8 = icmp ne %class.Element* %7, null, !dbg !5421
  br i1 %8, label %9, label %12, !dbg !5421

9:                                                ; preds = %2
  %10 = load %class.Packet*, %class.Packet** %4, align 8, !dbg !5421, !tbaa !5399
  %11 = icmp ne %class.Packet* %10, null, !dbg !5421
  br label %12

12:                                               ; preds = %9, %2
  %13 = phi i1 [ false, %2 ], [ %11, %9 ], !dbg !5419
  br i1 %13, label %14, label %15, !dbg !5421

14:                                               ; preds = %12
  br label %16, !dbg !5421

15:                                               ; preds = %12
  call void @__assert_fail(i8* getelementptr inbounds ([8 x i8], [8 x i8]* @.str.17, i64 0, i64 0), i8* getelementptr inbounds ([30 x i8], [30 x i8]* @.str.15, i64 0, i64 0), i32 611, i8* getelementptr inbounds ([41 x i8], [41 x i8]* @__PRETTY_FUNCTION__._ZNK7Element4Port4pushEP6Packet, i64 0, i64 0)) #15, !dbg !5421
  unreachable, !dbg !5421

16:                                               ; preds = %14
  %17 = getelementptr inbounds %"class.Element::Port", %"class.Element::Port"* %5, i32 0, i32 0, !dbg !5422
  %18 = load %class.Element*, %class.Element** %17, align 8, !dbg !5422, !tbaa !5207
  %19 = getelementptr inbounds %"class.Element::Port", %"class.Element::Port"* %5, i32 0, i32 1, !dbg !5423
  %20 = load i32, i32* %19, align 8, !dbg !5423, !tbaa !5210
  %21 = load %class.Packet*, %class.Packet** %4, align 8, !dbg !5424, !tbaa !5399
  %22 = bitcast %class.Element* %18 to void (%class.Element*, i32, %class.Packet*)***, !dbg !5425
  %23 = load void (%class.Element*, i32, %class.Packet*)**, void (%class.Element*, i32, %class.Packet*)*** %22, align 8, !dbg !5425, !tbaa !4255
  %24 = getelementptr inbounds void (%class.Element*, i32, %class.Packet*)*, void (%class.Element*, i32, %class.Packet*)** %23, i64 2, !dbg !5425
  %25 = load void (%class.Element*, i32, %class.Packet*)*, void (%class.Element*, i32, %class.Packet*)** %24, align 8, !dbg !5425
  call void %25(%class.Element* %18, i32 %20, %class.Packet* %21), !dbg !5425
  ret void, !dbg !5426
}

declare void @_ZN5Timer14schedule_afterERK9Timestamp(%class.Timer*, %class.Timestamp* dereferenceable(8)) local_unnamed_addr #2

; Function Attrs: sspstrong uwtable
define dso_local void @_ZN12RatedUnqueue12read_handlerEP7ElementPv(%class.String* noalias sret %0, %class.Element* %1, i8* %2) #0 align 2 personality i8* bitcast (i32 (...)* @__gxx_personality_v0 to i8*) !dbg !5427 {
  %4 = alloca [2 x i32], align 4
  call void @llvm.dbg.declare(metadata [2 x i32]* %4, metadata !5435, metadata !DIExpression()), !dbg !5440
  %5 = alloca %class.StringAccum, align 8
  call void @llvm.dbg.value(metadata %class.Element* %1, metadata !5429, metadata !DIExpression()), !dbg !5447
  call void @llvm.dbg.value(metadata i8* %2, metadata !5430, metadata !DIExpression()), !dbg !5447
  %6 = bitcast %class.Element* %1 to %class.RatedUnqueue*, !dbg !5448
  call void @llvm.dbg.value(metadata %class.RatedUnqueue* %6, metadata !5431, metadata !DIExpression()), !dbg !5447
  %7 = ptrtoint i8* %2 to i64, !dbg !5449
  switch i64 %7, label %146 [
    i64 1, label %8
    i64 0, label %43
  ], !dbg !5450

8:                                                ; preds = %3
  call void @llvm.dbg.value(metadata %class.RatedUnqueue* %6, metadata !4359, metadata !DIExpression()), !dbg !5451
  %9 = bitcast %class.Element* %1 to i8* (%class.RatedUnqueue*)***, !dbg !5453
  %10 = load i8* (%class.RatedUnqueue*)**, i8* (%class.RatedUnqueue*)*** %9, align 8, !dbg !5453, !tbaa !4255
  %11 = getelementptr inbounds i8* (%class.RatedUnqueue*)*, i8* (%class.RatedUnqueue*)** %10, i64 9, !dbg !5453
  %12 = load i8* (%class.RatedUnqueue*)*, i8* (%class.RatedUnqueue*)** %11, align 8, !dbg !5453
  %13 = tail call i8* %12(%class.RatedUnqueue* %6), !dbg !5453
  %14 = load i8, i8* %13, align 1, !dbg !5453, !tbaa !4318
  %15 = icmp eq i8 %14, 66, !dbg !5454
  %16 = getelementptr inbounds %class.Element, %class.Element* %1, i64 0, i32 6, !dbg !5455
  call void @llvm.dbg.value(metadata [4 x i8]* %16, metadata !5444, metadata !DIExpression()), !dbg !5456
  call void @llvm.dbg.value(metadata [4 x i8]* %16, metadata !5438, metadata !DIExpression()), !dbg !5457
  %17 = bitcast [2 x i32]* %4 to i8*, !dbg !5458
  call void @llvm.lifetime.start.p0i8(i64 8, i8* nonnull %17) #13, !dbg !5458
  %18 = getelementptr inbounds [2 x i32], [2 x i32]* %4, i64 0, i64 0, !dbg !5459
  %19 = bitcast [4 x i8]* %16 to i32*, !dbg !5460
  %20 = load i32, i32* %19, align 4, !dbg !5460, !tbaa !4396
  %21 = lshr i32 %20, 1, !dbg !5461
  %22 = getelementptr inbounds [2 x i32], [2 x i32]* %4, i64 0, i64 1, !dbg !5459
  call void @llvm.dbg.value(metadata i32 undef, metadata !5439, metadata !DIExpression()), !dbg !5457
  call void @llvm.dbg.value(metadata i32 undef, metadata !5439, metadata !DIExpression()), !dbg !5457
  call void @llvm.dbg.value(metadata i32 1000, metadata !4585, metadata !DIExpression()), !dbg !5462
  call void @llvm.dbg.value(metadata i32 0, metadata !4591, metadata !DIExpression()), !dbg !5462
  call void @llvm.dbg.value(metadata i32* %18, metadata !4588, metadata !DIExpression()), !dbg !5462
  call void @llvm.dbg.value(metadata i32 2, metadata !4590, metadata !DIExpression()), !dbg !5462
  call void @llvm.dbg.value(metadata i32* undef, metadata !4589, metadata !DIExpression()), !dbg !5462
  call void @llvm.dbg.value(metadata i32* undef, metadata !4589, metadata !DIExpression(DW_OP_plus_uconst, 4, DW_OP_stack_value)), !dbg !5462
  call void @llvm.dbg.value(metadata i32 %20, metadata !4517, metadata !DIExpression()), !dbg !5464
  call void @llvm.dbg.value(metadata i32 1000, metadata !4518, metadata !DIExpression()), !dbg !5464
  call void @llvm.dbg.value(metadata i32 %20, metadata !4521, metadata !DIExpression()) #13, !dbg !5466
  call void @llvm.dbg.value(metadata i32 1000, metadata !4527, metadata !DIExpression()) #13, !dbg !5466
  %23 = tail call { i32, i32 } asm "mul $2", "={ax},={dx},r,{ax},~{cc},~{dirflag},~{fpsr},~{flags}"(i32 %20, i32 1000) #14, !dbg !5468, !srcloc !4533
  %24 = extractvalue { i32, i32 } %23, 0, !dbg !5468
  %25 = extractvalue { i32, i32 } %23, 1, !dbg !5468
  call void @llvm.dbg.value(metadata i32 %24, metadata !4592, metadata !DIExpression()), !dbg !5469
  call void @llvm.dbg.value(metadata i32 %25, metadata !4594, metadata !DIExpression()), !dbg !5469
  call void @llvm.dbg.value(metadata i32 %25, metadata !4591, metadata !DIExpression()), !dbg !5462
  %26 = add i32 %24, %21, !dbg !5470
  call void @llvm.dbg.value(metadata i32 %26, metadata !4592, metadata !DIExpression()), !dbg !5469
  %27 = icmp ult i32 %26, %21, !dbg !5471
  %28 = zext i1 %27 to i32, !dbg !5472
  call void @llvm.dbg.value(metadata i32 undef, metadata !4591, metadata !DIExpression()), !dbg !5462
  call void @llvm.dbg.value(metadata i32* %22, metadata !4588, metadata !DIExpression()), !dbg !5462
  store i32 %26, i32* %18, align 4, !dbg !5473, !tbaa !4396
  call void @llvm.dbg.value(metadata i32 1, metadata !4590, metadata !DIExpression()), !dbg !5462
  call void @llvm.dbg.value(metadata i32 0, metadata !4517, metadata !DIExpression()), !dbg !5464
  call void @llvm.dbg.value(metadata i32 0, metadata !4521, metadata !DIExpression()) #13, !dbg !5466
  %29 = tail call { i32, i32 } asm "mul $2", "={ax},={dx},r,{ax},~{cc},~{dirflag},~{fpsr},~{flags}"(i32 0, i32 1000) #14, !dbg !5468, !srcloc !4533
  %30 = extractvalue { i32, i32 } %29, 0, !dbg !5468
  call void @llvm.dbg.value(metadata i32 %30, metadata !4592, metadata !DIExpression()), !dbg !5469
  %31 = add i32 %30, %25, !dbg !5474
  %32 = add i32 %31, %28, !dbg !5475
  call void @llvm.dbg.value(metadata i32 %32, metadata !4592, metadata !DIExpression()), !dbg !5469
  call void @llvm.dbg.value(metadata i32 undef, metadata !4594, metadata !DIExpression()), !dbg !5469
  call void @llvm.dbg.value(metadata i32 undef, metadata !4591, metadata !DIExpression()), !dbg !5462
  call void @llvm.dbg.value(metadata i32 %32, metadata !4592, metadata !DIExpression()), !dbg !5469
  store i32 %32, i32* %22, align 4, !dbg !5473, !tbaa !4396
  call void @llvm.dbg.value(metadata i32 0, metadata !4590, metadata !DIExpression()), !dbg !5462
  call void @llvm.dbg.value(metadata [4 x i8]* %16, metadata !5146, metadata !DIExpression()), !dbg !5476
  %33 = getelementptr inbounds [4 x i8], [4 x i8]* %16, i64 1, !dbg !5478
  %34 = bitcast [4 x i8]* %33 to i32*, !dbg !5478
  %35 = load i32, i32* %34, align 4, !dbg !5478, !tbaa !4279
  %36 = call i32 @_ZN6BigintIjjE6divideEPjPKjij(i32* nonnull %18, i32* nonnull %18, i32 2, i32 %35), !dbg !5479
  %37 = load i32, i32* %22, align 4, !dbg !5480, !tbaa !4396
  %38 = icmp eq i32 %37, 0, !dbg !5480
  %39 = load i32, i32* %18, align 4, !dbg !5480
  %40 = select i1 %38, i32 %39, i32 -1, !dbg !5480
  call void @llvm.lifetime.end.p0i8(i64 8, i8* nonnull %17) #13, !dbg !5481
  br i1 %15, label %41, label %42, !dbg !5482

41:                                               ; preds = %8
  call void @_ZN12BandwidthArg7unparseEj(%class.String* sret %0, i32 %40), !dbg !5483
  br label %150, !dbg !5484

42:                                               ; preds = %8
  call void @_ZN6StringC1Ej(%class.String* %0, i32 %40), !dbg !5485
  br label %150, !dbg !5486

43:                                               ; preds = %3
  %44 = bitcast %class.StringAccum* %5 to i8*, !dbg !5487
  call void @llvm.lifetime.start.p0i8(i64 16, i8* nonnull %44) #13, !dbg !5487
  call void @llvm.dbg.declare(metadata %class.StringAccum* %5, metadata !5432, metadata !DIExpression()), !dbg !5488
  call void @llvm.dbg.value(metadata %class.StringAccum* %5, metadata !5489, metadata !DIExpression()), !dbg !5493
  call void @llvm.dbg.value(metadata %class.StringAccum* %5, metadata !5495, metadata !DIExpression()), !dbg !5499
  %45 = getelementptr inbounds %class.StringAccum, %class.StringAccum* %5, i64 0, i32 0, i32 0, !dbg !5501
  store i8* @_ZN6String9null_dataE, i8** %45, align 8, !dbg !5501, !tbaa !5502
  %46 = getelementptr inbounds %class.StringAccum, %class.StringAccum* %5, i64 0, i32 0, i32 1, !dbg !5504
  store i32 0, i32* %46, align 8, !dbg !5504, !tbaa !5505
  %47 = getelementptr inbounds %class.StringAccum, %class.StringAccum* %5, i64 0, i32 0, i32 2, !dbg !5506
  store i32 0, i32* %47, align 4, !dbg !5506, !tbaa !5507
  %48 = getelementptr inbounds %class.Element, %class.Element* %1, i64 2, i32 2, i64 1, !dbg !5508
  %49 = bitcast %"class.Element::Port"* %48 to i32*, !dbg !5508
  %50 = load i32, i32* %49, align 8, !dbg !5508, !tbaa !5031
  call void @llvm.dbg.value(metadata %class.StringAccum* %5, metadata !5509, metadata !DIExpression()), !dbg !5515
  call void @llvm.dbg.value(metadata i32 %50, metadata !5514, metadata !DIExpression()), !dbg !5515
  %51 = zext i32 %50 to i64, !dbg !5517
  %52 = invoke dereferenceable(16) %class.StringAccum* @_ZlsR11StringAccumm(%class.StringAccum* nonnull dereferenceable(16) %5, i64 %51)
          to label %53 unwind label %138, !dbg !5518

53:                                               ; preds = %43
  call void @llvm.dbg.value(metadata %class.StringAccum* %52, metadata !5519, metadata !DIExpression()), !dbg !5525
  call void @llvm.dbg.value(metadata i8* getelementptr inbounds ([22 x i8], [22 x i8]* @.str.5, i64 0, i64 0), metadata !5524, metadata !DIExpression()), !dbg !5525
  call void @llvm.dbg.value(metadata %class.StringAccum* %52, metadata !5527, metadata !DIExpression()), !dbg !5531
  call void @llvm.dbg.value(metadata i8* getelementptr inbounds ([22 x i8], [22 x i8]* @.str.5, i64 0, i64 0), metadata !5530, metadata !DIExpression()), !dbg !5531
  call void @llvm.dbg.value(metadata %class.StringAccum* %52, metadata !5533, metadata !DIExpression()), !dbg !5538
  call void @llvm.dbg.value(metadata i8* getelementptr inbounds ([22 x i8], [22 x i8]* @.str.5, i64 0, i64 0), metadata !5536, metadata !DIExpression()), !dbg !5538
  call void @llvm.dbg.value(metadata i32 21, metadata !5537, metadata !DIExpression()), !dbg !5538
  %54 = getelementptr inbounds %class.StringAccum, %class.StringAccum* %52, i64 0, i32 0, i32 1, !dbg !5541
  %55 = load i32, i32* %54, align 8, !dbg !5541, !tbaa !5543
  %56 = add nsw i32 %55, 21, !dbg !5545
  %57 = getelementptr inbounds %class.StringAccum, %class.StringAccum* %52, i64 0, i32 0, i32 2, !dbg !5546
  %58 = load i32, i32* %57, align 4, !dbg !5546, !tbaa !5547
  %59 = icmp sgt i32 %56, %58, !dbg !5548
  br i1 %59, label %67, label %60, !dbg !5549

60:                                               ; preds = %53
  %61 = getelementptr inbounds %class.StringAccum, %class.StringAccum* %52, i64 0, i32 0, i32 0, !dbg !5550
  %62 = load i8*, i8** %61, align 8, !dbg !5550, !tbaa !5552
  %63 = sext i32 %55 to i64, !dbg !5553
  %64 = getelementptr inbounds i8, i8* %62, i64 %63, !dbg !5553
  call void @llvm.memcpy.p0i8.p0i8.i64(i8* nonnull align 1 dereferenceable(21) %64, i8* nonnull align 1 dereferenceable(21) getelementptr inbounds ([22 x i8], [22 x i8]* @.str.5, i64 0, i64 0), i64 21, i1 false), !dbg !5554
  %65 = load i32, i32* %54, align 8, !dbg !5555, !tbaa !5543
  %66 = add nsw i32 %65, 21, !dbg !5555
  store i32 %66, i32* %54, align 8, !dbg !5555, !tbaa !5543
  br label %68, !dbg !5556

67:                                               ; preds = %53
  invoke void @_ZN11StringAccum11hard_appendEPKci(%class.StringAccum* nonnull %52, i8* nonnull getelementptr inbounds ([22 x i8], [22 x i8]* @.str.5, i64 0, i64 0), i32 21)
          to label %68 unwind label %138, !dbg !5557

68:                                               ; preds = %60, %67
  %69 = getelementptr inbounds %class.Element, %class.Element* %1, i64 2, i32 2, i64 1, i32 2, !dbg !5558
  %70 = bitcast [4 x i8]* %69 to i32*, !dbg !5558
  %71 = load i32, i32* %70, align 4, !dbg !5558, !tbaa !5384
  call void @llvm.dbg.value(metadata %class.StringAccum* %52, metadata !5509, metadata !DIExpression()), !dbg !5559
  call void @llvm.dbg.value(metadata i32 %71, metadata !5514, metadata !DIExpression()), !dbg !5559
  %72 = zext i32 %71 to i64, !dbg !5561
  %73 = invoke dereferenceable(16) %class.StringAccum* @_ZlsR11StringAccumm(%class.StringAccum* nonnull dereferenceable(16) %52, i64 %72)
          to label %74 unwind label %138, !dbg !5562

74:                                               ; preds = %68
  call void @llvm.dbg.value(metadata %class.StringAccum* %73, metadata !5519, metadata !DIExpression()), !dbg !5563
  call void @llvm.dbg.value(metadata i8* getelementptr inbounds ([13 x i8], [13 x i8]* @.str.6, i64 0, i64 0), metadata !5524, metadata !DIExpression()), !dbg !5563
  call void @llvm.dbg.value(metadata %class.StringAccum* %73, metadata !5527, metadata !DIExpression()), !dbg !5565
  call void @llvm.dbg.value(metadata i8* getelementptr inbounds ([13 x i8], [13 x i8]* @.str.6, i64 0, i64 0), metadata !5530, metadata !DIExpression()), !dbg !5565
  call void @llvm.dbg.value(metadata %class.StringAccum* %73, metadata !5533, metadata !DIExpression()), !dbg !5567
  call void @llvm.dbg.value(metadata i8* getelementptr inbounds ([13 x i8], [13 x i8]* @.str.6, i64 0, i64 0), metadata !5536, metadata !DIExpression()), !dbg !5567
  call void @llvm.dbg.value(metadata i32 12, metadata !5537, metadata !DIExpression()), !dbg !5567
  %75 = getelementptr inbounds %class.StringAccum, %class.StringAccum* %73, i64 0, i32 0, i32 1, !dbg !5569
  %76 = load i32, i32* %75, align 8, !dbg !5569, !tbaa !5543
  %77 = add nsw i32 %76, 12, !dbg !5570
  %78 = getelementptr inbounds %class.StringAccum, %class.StringAccum* %73, i64 0, i32 0, i32 2, !dbg !5571
  %79 = load i32, i32* %78, align 4, !dbg !5571, !tbaa !5547
  %80 = icmp sgt i32 %77, %79, !dbg !5572
  br i1 %80, label %88, label %81, !dbg !5573

81:                                               ; preds = %74
  %82 = getelementptr inbounds %class.StringAccum, %class.StringAccum* %73, i64 0, i32 0, i32 0, !dbg !5574
  %83 = load i8*, i8** %82, align 8, !dbg !5574, !tbaa !5552
  %84 = sext i32 %76 to i64, !dbg !5575
  %85 = getelementptr inbounds i8, i8* %83, i64 %84, !dbg !5575
  call void @llvm.memcpy.p0i8.p0i8.i64(i8* nonnull align 1 dereferenceable(12) %85, i8* nonnull align 1 dereferenceable(12) getelementptr inbounds ([13 x i8], [13 x i8]* @.str.6, i64 0, i64 0), i64 12, i1 false), !dbg !5576
  %86 = load i32, i32* %75, align 8, !dbg !5577, !tbaa !5543
  %87 = add nsw i32 %86, 12, !dbg !5577
  store i32 %87, i32* %75, align 8, !dbg !5577, !tbaa !5543
  br label %89, !dbg !5578

88:                                               ; preds = %74
  invoke void @_ZN11StringAccum11hard_appendEPKci(%class.StringAccum* nonnull %73, i8* nonnull getelementptr inbounds ([13 x i8], [13 x i8]* @.str.6, i64 0, i64 0), i32 12)
          to label %89 unwind label %138, !dbg !5579

89:                                               ; preds = %81, %88
  %90 = getelementptr inbounds %class.RatedUnqueue, %class.RatedUnqueue* %6, i64 0, i32 6, !dbg !5580
  %91 = load i32, i32* %90, align 4, !dbg !5580, !tbaa !5252
  call void @llvm.dbg.value(metadata %class.StringAccum* %73, metadata !5509, metadata !DIExpression()), !dbg !5581
  call void @llvm.dbg.value(metadata i32 %91, metadata !5514, metadata !DIExpression()), !dbg !5581
  %92 = zext i32 %91 to i64, !dbg !5583
  %93 = invoke dereferenceable(16) %class.StringAccum* @_ZlsR11StringAccumm(%class.StringAccum* nonnull dereferenceable(16) %73, i64 %92)
          to label %94 unwind label %138, !dbg !5584

94:                                               ; preds = %89
  call void @llvm.dbg.value(metadata %class.StringAccum* %93, metadata !5519, metadata !DIExpression()), !dbg !5585
  call void @llvm.dbg.value(metadata i8* getelementptr inbounds ([9 x i8], [9 x i8]* @.str.7, i64 0, i64 0), metadata !5524, metadata !DIExpression()), !dbg !5585
  call void @llvm.dbg.value(metadata %class.StringAccum* %93, metadata !5527, metadata !DIExpression()), !dbg !5587
  call void @llvm.dbg.value(metadata i8* getelementptr inbounds ([9 x i8], [9 x i8]* @.str.7, i64 0, i64 0), metadata !5530, metadata !DIExpression()), !dbg !5587
  call void @llvm.dbg.value(metadata %class.StringAccum* %93, metadata !5533, metadata !DIExpression()), !dbg !5589
  call void @llvm.dbg.value(metadata i8* getelementptr inbounds ([9 x i8], [9 x i8]* @.str.7, i64 0, i64 0), metadata !5536, metadata !DIExpression()), !dbg !5589
  call void @llvm.dbg.value(metadata i32 8, metadata !5537, metadata !DIExpression()), !dbg !5589
  %95 = getelementptr inbounds %class.StringAccum, %class.StringAccum* %93, i64 0, i32 0, i32 1, !dbg !5591
  %96 = load i32, i32* %95, align 8, !dbg !5591, !tbaa !5543
  %97 = add nsw i32 %96, 8, !dbg !5592
  %98 = getelementptr inbounds %class.StringAccum, %class.StringAccum* %93, i64 0, i32 0, i32 2, !dbg !5593
  %99 = load i32, i32* %98, align 4, !dbg !5593, !tbaa !5547
  %100 = icmp sgt i32 %97, %99, !dbg !5594
  br i1 %100, label %109, label %101, !dbg !5595

101:                                              ; preds = %94
  %102 = getelementptr inbounds %class.StringAccum, %class.StringAccum* %93, i64 0, i32 0, i32 0, !dbg !5596
  %103 = load i8*, i8** %102, align 8, !dbg !5596, !tbaa !5552
  %104 = sext i32 %96 to i64, !dbg !5597
  %105 = getelementptr inbounds i8, i8* %103, i64 %104, !dbg !5597
  %106 = bitcast i8* %105 to i64*, !dbg !5598
  store i64 753057061989085216, i64* %106, align 1, !dbg !5598
  %107 = load i32, i32* %95, align 8, !dbg !5599, !tbaa !5543
  %108 = add nsw i32 %107, 8, !dbg !5599
  store i32 %108, i32* %95, align 8, !dbg !5599, !tbaa !5543
  br label %110, !dbg !5600

109:                                              ; preds = %94
  invoke void @_ZN11StringAccum11hard_appendEPKci(%class.StringAccum* nonnull %93, i8* nonnull getelementptr inbounds ([9 x i8], [9 x i8]* @.str.7, i64 0, i64 0), i32 8)
          to label %110 unwind label %138, !dbg !5601

110:                                              ; preds = %101, %109
  %111 = getelementptr inbounds %class.Element, %class.Element* %1, i64 2, i32 2, i64 1, i32 1, !dbg !5602
  %112 = load i32, i32* %111, align 8, !dbg !5602, !tbaa !5265
  call void @llvm.dbg.value(metadata %class.StringAccum* %93, metadata !5509, metadata !DIExpression()), !dbg !5603
  call void @llvm.dbg.value(metadata i32 %112, metadata !5514, metadata !DIExpression()), !dbg !5603
  %113 = zext i32 %112 to i64, !dbg !5605
  %114 = invoke dereferenceable(16) %class.StringAccum* @_ZlsR11StringAccumm(%class.StringAccum* nonnull dereferenceable(16) %93, i64 %113)
          to label %115 unwind label %138, !dbg !5606

115:                                              ; preds = %110
  call void @llvm.dbg.value(metadata %class.StringAccum* %114, metadata !5519, metadata !DIExpression()), !dbg !5607
  call void @llvm.dbg.value(metadata i8* getelementptr inbounds ([15 x i8], [15 x i8]* @.str.8, i64 0, i64 0), metadata !5524, metadata !DIExpression()), !dbg !5607
  call void @llvm.dbg.value(metadata %class.StringAccum* %114, metadata !5527, metadata !DIExpression()), !dbg !5609
  call void @llvm.dbg.value(metadata i8* getelementptr inbounds ([15 x i8], [15 x i8]* @.str.8, i64 0, i64 0), metadata !5530, metadata !DIExpression()), !dbg !5609
  call void @llvm.dbg.value(metadata %class.StringAccum* %114, metadata !5533, metadata !DIExpression()), !dbg !5611
  call void @llvm.dbg.value(metadata i8* getelementptr inbounds ([15 x i8], [15 x i8]* @.str.8, i64 0, i64 0), metadata !5536, metadata !DIExpression()), !dbg !5611
  call void @llvm.dbg.value(metadata i32 14, metadata !5537, metadata !DIExpression()), !dbg !5611
  %116 = getelementptr inbounds %class.StringAccum, %class.StringAccum* %114, i64 0, i32 0, i32 1, !dbg !5613
  %117 = load i32, i32* %116, align 8, !dbg !5613, !tbaa !5543
  %118 = add nsw i32 %117, 14, !dbg !5614
  %119 = getelementptr inbounds %class.StringAccum, %class.StringAccum* %114, i64 0, i32 0, i32 2, !dbg !5615
  %120 = load i32, i32* %119, align 4, !dbg !5615, !tbaa !5547
  %121 = icmp sgt i32 %118, %120, !dbg !5616
  br i1 %121, label %129, label %122, !dbg !5617

122:                                              ; preds = %115
  %123 = getelementptr inbounds %class.StringAccum, %class.StringAccum* %114, i64 0, i32 0, i32 0, !dbg !5618
  %124 = load i8*, i8** %123, align 8, !dbg !5618, !tbaa !5552
  %125 = sext i32 %117 to i64, !dbg !5619
  %126 = getelementptr inbounds i8, i8* %124, i64 %125, !dbg !5619
  call void @llvm.memcpy.p0i8.p0i8.i64(i8* nonnull align 1 dereferenceable(14) %126, i8* nonnull align 1 dereferenceable(14) getelementptr inbounds ([15 x i8], [15 x i8]* @.str.8, i64 0, i64 0), i64 14, i1 false), !dbg !5620
  %127 = load i32, i32* %116, align 8, !dbg !5621, !tbaa !5543
  %128 = add nsw i32 %127, 14, !dbg !5621
  store i32 %128, i32* %116, align 8, !dbg !5621, !tbaa !5543
  br label %130, !dbg !5622

129:                                              ; preds = %115
  invoke void @_ZN11StringAccum11hard_appendEPKci(%class.StringAccum* nonnull %114, i8* nonnull getelementptr inbounds ([15 x i8], [15 x i8]* @.str.8, i64 0, i64 0), i32 14)
          to label %130 unwind label %138, !dbg !5623

130:                                              ; preds = %122, %129
  invoke void @_ZN11StringAccum11take_stringEv(%class.String* sret %0, %class.StringAccum* nonnull %5)
          to label %131 unwind label %138, !dbg !5624

131:                                              ; preds = %130
  call void @llvm.dbg.value(metadata %class.StringAccum* %5, metadata !5625, metadata !DIExpression()) #13, !dbg !5628
  %132 = load i32, i32* %47, align 4, !dbg !5630, !tbaa !5547
  %133 = icmp sgt i32 %132, 0, !dbg !5633
  br i1 %133, label %134, label %137, !dbg !5634

134:                                              ; preds = %131
  %135 = load i8*, i8** %45, align 8, !dbg !5635, !tbaa !5552
  %136 = getelementptr inbounds i8, i8* %135, i64 -12, !dbg !5635
  call void @_ZdaPv(i8* nonnull %136) #16, !dbg !5635
  br label %137, !dbg !5635

137:                                              ; preds = %131, %134
  call void @llvm.lifetime.end.p0i8(i64 16, i8* nonnull %44) #13, !dbg !5636
  br label %150

138:                                              ; preds = %129, %110, %109, %89, %88, %68, %67, %43, %130
  %139 = landingpad { i8*, i32 }
          cleanup, !dbg !5637
  call void @llvm.dbg.value(metadata %class.StringAccum* %5, metadata !5625, metadata !DIExpression()) #13, !dbg !5638
  %140 = load i32, i32* %47, align 4, !dbg !5640, !tbaa !5547
  %141 = icmp sgt i32 %140, 0, !dbg !5641
  br i1 %141, label %142, label %145, !dbg !5642

142:                                              ; preds = %138
  %143 = load i8*, i8** %45, align 8, !dbg !5643, !tbaa !5552
  %144 = getelementptr inbounds i8, i8* %143, i64 -12, !dbg !5643
  call void @_ZdaPv(i8* nonnull %144) #16, !dbg !5643
  br label %145, !dbg !5643

145:                                              ; preds = %138, %142
  call void @llvm.lifetime.end.p0i8(i64 16, i8* nonnull %44) #13, !dbg !5636
  resume { i8*, i32 } %139, !dbg !5644

146:                                              ; preds = %3
  call void @llvm.dbg.value(metadata %class.String* %0, metadata !5645, metadata !DIExpression()), !dbg !5648
  call void @llvm.dbg.value(metadata %class.String* %0, metadata !5650, metadata !DIExpression()), !dbg !5656
  call void @llvm.dbg.value(metadata i8* @_ZN6String9null_dataE, metadata !5653, metadata !DIExpression()), !dbg !5656
  call void @llvm.dbg.value(metadata i32 0, metadata !5654, metadata !DIExpression()), !dbg !5656
  call void @llvm.dbg.value(metadata %"struct.String::memo_t"* null, metadata !5655, metadata !DIExpression()), !dbg !5656
  %147 = getelementptr inbounds %class.String, %class.String* %0, i64 0, i32 0, i32 0, !dbg !5659
  store i8* @_ZN6String9null_dataE, i8** %147, align 8, !dbg !5660, !tbaa !5661
  %148 = getelementptr inbounds %class.String, %class.String* %0, i64 0, i32 0, i32 1, !dbg !5664
  store i32 0, i32* %148, align 8, !dbg !5665, !tbaa !5666
  %149 = getelementptr inbounds %class.String, %class.String* %0, i64 0, i32 0, i32 2, !dbg !5667
  store %"struct.String::memo_t"* null, %"struct.String::memo_t"** %149, align 8, !dbg !5669, !tbaa !5670
  br label %150, !dbg !5671

150:                                              ; preds = %146, %137, %42, %41
  ret void, !dbg !5644
}

declare void @_ZN12BandwidthArg7unparseEj(%class.String* sret, i32) local_unnamed_addr #2

declare void @_ZN6StringC1Ej(%class.String*, i32) unnamed_addr #2

declare void @_ZN11StringAccum11take_stringEv(%class.String* sret, %class.StringAccum*) local_unnamed_addr #2

; Function Attrs: sspstrong uwtable
define dso_local void @_ZN12RatedUnqueue12add_handlersEv(%class.RatedUnqueue* %0) unnamed_addr #0 align 2 personality i8* bitcast (i32 (...)* @__gxx_personality_v0 to i8*) !dbg !5672 {
  %2 = alloca %class.String, align 8
  %3 = alloca %class.String, align 8
  %4 = alloca %class.String, align 8
  call void @llvm.dbg.value(metadata %class.RatedUnqueue* %0, metadata !5674, metadata !DIExpression()), !dbg !5675
  %5 = bitcast %class.RatedUnqueue* %0 to %class.Element*, !dbg !5676
  tail call void @_ZN7Element16add_read_handlerEPKcPF6StringPS_PvEij(%class.Element* %5, i8* getelementptr inbounds ([6 x i8], [6 x i8]* @.str.9, i64 0, i64 0), void (%class.String*, %class.Element*, i8*)* nonnull @_ZN12RatedUnqueue12read_handlerEP7ElementPv, i32 0, i32 0), !dbg !5676
  tail call void @_ZN7Element16add_read_handlerEPKcPF6StringPS_PvEij(%class.Element* %5, i8* getelementptr inbounds ([5 x i8], [5 x i8]* @.str.10, i64 0, i64 0), void (%class.String*, %class.Element*, i8*)* nonnull @_ZN12RatedUnqueue12read_handlerEP7ElementPv, i32 1, i32 0), !dbg !5677
  %6 = bitcast %class.String* %2 to i8*, !dbg !5678
  call void @llvm.lifetime.start.p0i8(i64 24, i8* nonnull %6) #13, !dbg !5678
  call void @llvm.dbg.value(metadata %class.String* %2, metadata !5679, metadata !DIExpression()), !dbg !5683
  call void @llvm.dbg.value(metadata i8* getelementptr inbounds ([5 x i8], [5 x i8]* @.str.10, i64 0, i64 0), metadata !5682, metadata !DIExpression()), !dbg !5683
  call void @llvm.dbg.value(metadata %class.String* %2, metadata !5650, metadata !DIExpression()), !dbg !5685
  call void @llvm.dbg.value(metadata i8* getelementptr inbounds ([5 x i8], [5 x i8]* @.str.10, i64 0, i64 0), metadata !5653, metadata !DIExpression()), !dbg !5685
  call void @llvm.dbg.value(metadata i32 4, metadata !5654, metadata !DIExpression()), !dbg !5685
  call void @llvm.dbg.value(metadata %"struct.String::memo_t"* null, metadata !5655, metadata !DIExpression()), !dbg !5685
  %7 = getelementptr inbounds %class.String, %class.String* %2, i64 0, i32 0, i32 0, !dbg !5689
  store i8* getelementptr inbounds ([5 x i8], [5 x i8]* @.str.10, i64 0, i64 0), i8** %7, align 8, !dbg !5690, !tbaa !5661
  %8 = getelementptr inbounds %class.String, %class.String* %2, i64 0, i32 0, i32 1, !dbg !5691
  store i32 4, i32* %8, align 8, !dbg !5692, !tbaa !5666
  %9 = getelementptr inbounds %class.String, %class.String* %2, i64 0, i32 0, i32 2, !dbg !5693
  store %"struct.String::memo_t"* null, %"struct.String::memo_t"** %9, align 8, !dbg !5694, !tbaa !5670
  invoke void @_ZN7Element17add_write_handlerERK6StringPFiS2_PS_PvP12ErrorHandlerEPKvj(%class.Element* %5, %class.String* nonnull dereferenceable(24) %2, i32 (%class.String*, %class.Element*, i8*, %class.ErrorHandler*)* nonnull @_ZN7Element27reconfigure_keyword_handlerERK6StringPS_PvP12ErrorHandler, i8* getelementptr inbounds ([7 x i8], [7 x i8]* @.str.11, i64 0, i64 0), i32 0)
          to label %10 unwind label %75, !dbg !5695

10:                                               ; preds = %1
  call void @llvm.dbg.value(metadata %class.String* %2, metadata !5696, metadata !DIExpression()) #13, !dbg !5699
  call void @llvm.dbg.value(metadata %class.String* %2, metadata !5701, metadata !DIExpression()) #13, !dbg !5704
  %11 = load %"struct.String::memo_t"*, %"struct.String::memo_t"** %9, align 8, !dbg !5707, !tbaa !5670
  %12 = icmp eq %"struct.String::memo_t"* %11, null, !dbg !5709
  br i1 %12, label %27, label %13, !dbg !5710

13:                                               ; preds = %10
  %14 = getelementptr inbounds %"struct.String::memo_t", %"struct.String::memo_t"* %11, i64 0, i32 0, !dbg !5711
  %15 = load volatile i32, i32* %14, align 4, !dbg !5711, !tbaa !5713
  %16 = icmp eq i32 %15, 0, !dbg !5711
  br i1 %16, label %17, label %18, !dbg !5711

17:                                               ; preds = %13
  call void @__assert_fail(i8* getelementptr inbounds ([18 x i8], [18 x i8]* @.str.20, i64 0, i64 0), i8* getelementptr inbounds ([29 x i8], [29 x i8]* @.str.21, i64 0, i64 0), i32 273, i8* getelementptr inbounds ([27 x i8], [27 x i8]* @__PRETTY_FUNCTION__._ZNK6String5derefEv, i64 0, i64 0)) #15, !dbg !5711
  unreachable, !dbg !5711

18:                                               ; preds = %13
  call void @llvm.dbg.value(metadata i32* %14, metadata !5715, metadata !DIExpression()) #13, !dbg !5718
  %19 = load volatile i32, i32* %14, align 4, !dbg !5721, !tbaa !4396
  %20 = add i32 %19, -1, !dbg !5721
  store volatile i32 %20, i32* %14, align 4, !dbg !5721, !tbaa !4396
  %21 = icmp eq i32 %20, 0, !dbg !5722
  br i1 %21, label %22, label %23, !dbg !5723

22:                                               ; preds = %18
  invoke void @_ZN6String11delete_memoEPNS_6memo_tE(%"struct.String::memo_t"* nonnull %11)
          to label %23 unwind label %24, !dbg !5724

23:                                               ; preds = %22, %18
  store %"struct.String::memo_t"* null, %"struct.String::memo_t"** %9, align 8, !dbg !5725, !tbaa !5670
  br label %27, !dbg !5726

24:                                               ; preds = %22
  %25 = landingpad { i8*, i32 }
          catch i8* null, !dbg !5727
  %26 = extractvalue { i8*, i32 } %25, 0, !dbg !5727
  call void @__clang_call_terminate(i8* %26) #15, !dbg !5727
  unreachable, !dbg !5727

27:                                               ; preds = %10, %23
  call void @llvm.lifetime.end.p0i8(i64 24, i8* nonnull %6) #13, !dbg !5695
  %28 = getelementptr inbounds %class.RatedUnqueue, %class.RatedUnqueue* %0, i64 0, i32 9, !dbg !5728
  call void @_ZN7Element17add_data_handlersEPKciPb(%class.Element* %5, i8* getelementptr inbounds ([7 x i8], [7 x i8]* @.str.12, i64 0, i64 0), i32 16387, i8* nonnull %28), !dbg !5729
  %29 = getelementptr inbounds %class.RatedUnqueue, %class.RatedUnqueue* %0, i64 0, i32 2, !dbg !5730
  %30 = bitcast %class.String* %3 to i8*, !dbg !5731
  call void @llvm.lifetime.start.p0i8(i64 24, i8* nonnull %30) #13, !dbg !5731
  call void @llvm.dbg.value(metadata %class.String* %3, metadata !5645, metadata !DIExpression()), !dbg !5732
  call void @llvm.dbg.value(metadata %class.String* %3, metadata !5650, metadata !DIExpression()), !dbg !5734
  call void @llvm.dbg.value(metadata i8* @_ZN6String9null_dataE, metadata !5653, metadata !DIExpression()), !dbg !5734
  call void @llvm.dbg.value(metadata i32 0, metadata !5654, metadata !DIExpression()), !dbg !5734
  call void @llvm.dbg.value(metadata %"struct.String::memo_t"* null, metadata !5655, metadata !DIExpression()), !dbg !5734
  %31 = getelementptr inbounds %class.String, %class.String* %3, i64 0, i32 0, i32 0, !dbg !5736
  store i8* @_ZN6String9null_dataE, i8** %31, align 8, !dbg !5737, !tbaa !5661
  %32 = getelementptr inbounds %class.String, %class.String* %3, i64 0, i32 0, i32 1, !dbg !5738
  store i32 0, i32* %32, align 8, !dbg !5739, !tbaa !5666
  %33 = getelementptr inbounds %class.String, %class.String* %3, i64 0, i32 0, i32 2, !dbg !5740
  store %"struct.String::memo_t"* null, %"struct.String::memo_t"** %33, align 8, !dbg !5741, !tbaa !5670
  call void @llvm.dbg.value(metadata %class.Element* %5, metadata !5742, metadata !DIExpression()), !dbg !5751
  call void @llvm.dbg.value(metadata %class.Task* %29, metadata !5749, metadata !DIExpression()), !dbg !5751
  call void @llvm.dbg.value(metadata %class.String* %3, metadata !5750, metadata !DIExpression()), !dbg !5751
  invoke void @_ZN7Element17add_task_handlersEP4TaskP14NotifierSignaliRK6String(%class.Element* %5, %class.Task* nonnull %29, %class.NotifierSignal* null, i32 6, %class.String* nonnull dereferenceable(24) %3)
          to label %34 unwind label %96, !dbg !5753

34:                                               ; preds = %27
  call void @llvm.dbg.value(metadata %class.String* %3, metadata !5696, metadata !DIExpression()) #13, !dbg !5754
  call void @llvm.dbg.value(metadata %class.String* %3, metadata !5701, metadata !DIExpression()) #13, !dbg !5756
  %35 = load %"struct.String::memo_t"*, %"struct.String::memo_t"** %33, align 8, !dbg !5758, !tbaa !5670
  %36 = icmp eq %"struct.String::memo_t"* %35, null, !dbg !5759
  br i1 %36, label %51, label %37, !dbg !5760

37:                                               ; preds = %34
  %38 = getelementptr inbounds %"struct.String::memo_t", %"struct.String::memo_t"* %35, i64 0, i32 0, !dbg !5761
  %39 = load volatile i32, i32* %38, align 4, !dbg !5761, !tbaa !5713
  %40 = icmp eq i32 %39, 0, !dbg !5761
  br i1 %40, label %41, label %42, !dbg !5761

41:                                               ; preds = %37
  call void @__assert_fail(i8* getelementptr inbounds ([18 x i8], [18 x i8]* @.str.20, i64 0, i64 0), i8* getelementptr inbounds ([29 x i8], [29 x i8]* @.str.21, i64 0, i64 0), i32 273, i8* getelementptr inbounds ([27 x i8], [27 x i8]* @__PRETTY_FUNCTION__._ZNK6String5derefEv, i64 0, i64 0)) #15, !dbg !5761
  unreachable, !dbg !5761

42:                                               ; preds = %37
  call void @llvm.dbg.value(metadata i32* %38, metadata !5715, metadata !DIExpression()) #13, !dbg !5762
  %43 = load volatile i32, i32* %38, align 4, !dbg !5764, !tbaa !4396
  %44 = add i32 %43, -1, !dbg !5764
  store volatile i32 %44, i32* %38, align 4, !dbg !5764, !tbaa !4396
  %45 = icmp eq i32 %44, 0, !dbg !5765
  br i1 %45, label %46, label %47, !dbg !5766

46:                                               ; preds = %42
  invoke void @_ZN6String11delete_memoEPNS_6memo_tE(%"struct.String::memo_t"* nonnull %35)
          to label %47 unwind label %48, !dbg !5767

47:                                               ; preds = %46, %42
  store %"struct.String::memo_t"* null, %"struct.String::memo_t"** %33, align 8, !dbg !5768, !tbaa !5670
  br label %51, !dbg !5769

48:                                               ; preds = %46
  %49 = landingpad { i8*, i32 }
          catch i8* null, !dbg !5770
  %50 = extractvalue { i8*, i32 } %49, 0, !dbg !5770
  call void @__clang_call_terminate(i8* %50) #15, !dbg !5770
  unreachable, !dbg !5770

51:                                               ; preds = %34, %47
  call void @llvm.lifetime.end.p0i8(i64 24, i8* nonnull %30) #13, !dbg !5731
  call void @_ZN7Element16add_read_handlerEPKcPF6StringPS_PvEij(%class.Element* %5, i8* getelementptr inbounds ([7 x i8], [7 x i8]* @.str.13, i64 0, i64 0), void (%class.String*, %class.Element*, i8*)* nonnull @_ZN12RatedUnqueue12read_handlerEP7ElementPv, i32 1, i32 0), !dbg !5771
  %52 = bitcast %class.String* %4 to i8*, !dbg !5772
  call void @llvm.lifetime.start.p0i8(i64 24, i8* nonnull %52) #13, !dbg !5772
  call void @llvm.dbg.value(metadata %class.String* %4, metadata !5679, metadata !DIExpression()), !dbg !5773
  call void @llvm.dbg.value(metadata i8* getelementptr inbounds ([7 x i8], [7 x i8]* @.str.13, i64 0, i64 0), metadata !5682, metadata !DIExpression()), !dbg !5773
  call void @llvm.dbg.value(metadata %class.String* %4, metadata !5650, metadata !DIExpression()), !dbg !5775
  call void @llvm.dbg.value(metadata i8* getelementptr inbounds ([7 x i8], [7 x i8]* @.str.13, i64 0, i64 0), metadata !5653, metadata !DIExpression()), !dbg !5775
  call void @llvm.dbg.value(metadata i32 6, metadata !5654, metadata !DIExpression()), !dbg !5775
  call void @llvm.dbg.value(metadata %"struct.String::memo_t"* null, metadata !5655, metadata !DIExpression()), !dbg !5775
  %53 = getelementptr inbounds %class.String, %class.String* %4, i64 0, i32 0, i32 0, !dbg !5777
  store i8* getelementptr inbounds ([7 x i8], [7 x i8]* @.str.13, i64 0, i64 0), i8** %53, align 8, !dbg !5778, !tbaa !5661
  %54 = getelementptr inbounds %class.String, %class.String* %4, i64 0, i32 0, i32 1, !dbg !5779
  store i32 6, i32* %54, align 8, !dbg !5780, !tbaa !5666
  %55 = getelementptr inbounds %class.String, %class.String* %4, i64 0, i32 0, i32 2, !dbg !5781
  store %"struct.String::memo_t"* null, %"struct.String::memo_t"** %55, align 8, !dbg !5782, !tbaa !5670
  %56 = invoke i32 @_ZN7Element17set_handler_flagsERK6Stringii(%class.Element* %5, %class.String* nonnull dereferenceable(24) %4, i32 0, i32 2048)
          to label %57 unwind label %117, !dbg !5783

57:                                               ; preds = %51
  call void @llvm.dbg.value(metadata %class.String* %4, metadata !5696, metadata !DIExpression()) #13, !dbg !5784
  call void @llvm.dbg.value(metadata %class.String* %4, metadata !5701, metadata !DIExpression()) #13, !dbg !5786
  %58 = load %"struct.String::memo_t"*, %"struct.String::memo_t"** %55, align 8, !dbg !5788, !tbaa !5670
  %59 = icmp eq %"struct.String::memo_t"* %58, null, !dbg !5789
  br i1 %59, label %74, label %60, !dbg !5790

60:                                               ; preds = %57
  %61 = getelementptr inbounds %"struct.String::memo_t", %"struct.String::memo_t"* %58, i64 0, i32 0, !dbg !5791
  %62 = load volatile i32, i32* %61, align 4, !dbg !5791, !tbaa !5713
  %63 = icmp eq i32 %62, 0, !dbg !5791
  br i1 %63, label %64, label %65, !dbg !5791

64:                                               ; preds = %60
  call void @__assert_fail(i8* getelementptr inbounds ([18 x i8], [18 x i8]* @.str.20, i64 0, i64 0), i8* getelementptr inbounds ([29 x i8], [29 x i8]* @.str.21, i64 0, i64 0), i32 273, i8* getelementptr inbounds ([27 x i8], [27 x i8]* @__PRETTY_FUNCTION__._ZNK6String5derefEv, i64 0, i64 0)) #15, !dbg !5791
  unreachable, !dbg !5791

65:                                               ; preds = %60
  call void @llvm.dbg.value(metadata i32* %61, metadata !5715, metadata !DIExpression()) #13, !dbg !5792
  %66 = load volatile i32, i32* %61, align 4, !dbg !5794, !tbaa !4396
  %67 = add i32 %66, -1, !dbg !5794
  store volatile i32 %67, i32* %61, align 4, !dbg !5794, !tbaa !4396
  %68 = icmp eq i32 %67, 0, !dbg !5795
  br i1 %68, label %69, label %70, !dbg !5796

69:                                               ; preds = %65
  invoke void @_ZN6String11delete_memoEPNS_6memo_tE(%"struct.String::memo_t"* nonnull %58)
          to label %70 unwind label %71, !dbg !5797

70:                                               ; preds = %69, %65
  store %"struct.String::memo_t"* null, %"struct.String::memo_t"** %55, align 8, !dbg !5798, !tbaa !5670
  br label %74, !dbg !5799

71:                                               ; preds = %69
  %72 = landingpad { i8*, i32 }
          catch i8* null, !dbg !5800
  %73 = extractvalue { i8*, i32 } %72, 0, !dbg !5800
  call void @__clang_call_terminate(i8* %73) #15, !dbg !5800
  unreachable, !dbg !5800

74:                                               ; preds = %57, %70
  call void @llvm.lifetime.end.p0i8(i64 24, i8* nonnull %52) #13, !dbg !5783
  ret void, !dbg !5801

75:                                               ; preds = %1
  %76 = landingpad { i8*, i32 }
          cleanup, !dbg !5801
  %77 = extractvalue { i8*, i32 } %76, 0, !dbg !5801
  %78 = extractvalue { i8*, i32 } %76, 1, !dbg !5801
  call void @llvm.dbg.value(metadata %class.String* %2, metadata !5696, metadata !DIExpression()) #13, !dbg !5802
  call void @llvm.dbg.value(metadata %class.String* %2, metadata !5701, metadata !DIExpression()) #13, !dbg !5804
  %79 = load %"struct.String::memo_t"*, %"struct.String::memo_t"** %9, align 8, !dbg !5806, !tbaa !5670
  %80 = icmp eq %"struct.String::memo_t"* %79, null, !dbg !5807
  br i1 %80, label %95, label %81, !dbg !5808

81:                                               ; preds = %75
  %82 = getelementptr inbounds %"struct.String::memo_t", %"struct.String::memo_t"* %79, i64 0, i32 0, !dbg !5809
  %83 = load volatile i32, i32* %82, align 4, !dbg !5809, !tbaa !5713
  %84 = icmp eq i32 %83, 0, !dbg !5809
  br i1 %84, label %85, label %86, !dbg !5809

85:                                               ; preds = %81
  call void @__assert_fail(i8* getelementptr inbounds ([18 x i8], [18 x i8]* @.str.20, i64 0, i64 0), i8* getelementptr inbounds ([29 x i8], [29 x i8]* @.str.21, i64 0, i64 0), i32 273, i8* getelementptr inbounds ([27 x i8], [27 x i8]* @__PRETTY_FUNCTION__._ZNK6String5derefEv, i64 0, i64 0)) #15, !dbg !5809
  unreachable, !dbg !5809

86:                                               ; preds = %81
  call void @llvm.dbg.value(metadata i32* %82, metadata !5715, metadata !DIExpression()) #13, !dbg !5810
  %87 = load volatile i32, i32* %82, align 4, !dbg !5812, !tbaa !4396
  %88 = add i32 %87, -1, !dbg !5812
  store volatile i32 %88, i32* %82, align 4, !dbg !5812, !tbaa !4396
  %89 = icmp eq i32 %88, 0, !dbg !5813
  br i1 %89, label %90, label %91, !dbg !5814

90:                                               ; preds = %86
  invoke void @_ZN6String11delete_memoEPNS_6memo_tE(%"struct.String::memo_t"* nonnull %79)
          to label %91 unwind label %92, !dbg !5815

91:                                               ; preds = %90, %86
  store %"struct.String::memo_t"* null, %"struct.String::memo_t"** %9, align 8, !dbg !5816, !tbaa !5670
  br label %95, !dbg !5817

92:                                               ; preds = %90
  %93 = landingpad { i8*, i32 }
          catch i8* null, !dbg !5818
  %94 = extractvalue { i8*, i32 } %93, 0, !dbg !5818
  call void @__clang_call_terminate(i8* %94) #15, !dbg !5818
  unreachable, !dbg !5818

95:                                               ; preds = %75, %91
  call void @llvm.lifetime.end.p0i8(i64 24, i8* nonnull %6) #13, !dbg !5695
  br label %138, !dbg !5695

96:                                               ; preds = %27
  %97 = landingpad { i8*, i32 }
          cleanup, !dbg !5801
  %98 = extractvalue { i8*, i32 } %97, 0, !dbg !5801
  %99 = extractvalue { i8*, i32 } %97, 1, !dbg !5801
  call void @llvm.dbg.value(metadata %class.String* %3, metadata !5696, metadata !DIExpression()) #13, !dbg !5819
  call void @llvm.dbg.value(metadata %class.String* %3, metadata !5701, metadata !DIExpression()) #13, !dbg !5821
  %100 = load %"struct.String::memo_t"*, %"struct.String::memo_t"** %33, align 8, !dbg !5823, !tbaa !5670
  %101 = icmp eq %"struct.String::memo_t"* %100, null, !dbg !5824
  br i1 %101, label %116, label %102, !dbg !5825

102:                                              ; preds = %96
  %103 = getelementptr inbounds %"struct.String::memo_t", %"struct.String::memo_t"* %100, i64 0, i32 0, !dbg !5826
  %104 = load volatile i32, i32* %103, align 4, !dbg !5826, !tbaa !5713
  %105 = icmp eq i32 %104, 0, !dbg !5826
  br i1 %105, label %106, label %107, !dbg !5826

106:                                              ; preds = %102
  call void @__assert_fail(i8* getelementptr inbounds ([18 x i8], [18 x i8]* @.str.20, i64 0, i64 0), i8* getelementptr inbounds ([29 x i8], [29 x i8]* @.str.21, i64 0, i64 0), i32 273, i8* getelementptr inbounds ([27 x i8], [27 x i8]* @__PRETTY_FUNCTION__._ZNK6String5derefEv, i64 0, i64 0)) #15, !dbg !5826
  unreachable, !dbg !5826

107:                                              ; preds = %102
  call void @llvm.dbg.value(metadata i32* %103, metadata !5715, metadata !DIExpression()) #13, !dbg !5827
  %108 = load volatile i32, i32* %103, align 4, !dbg !5829, !tbaa !4396
  %109 = add i32 %108, -1, !dbg !5829
  store volatile i32 %109, i32* %103, align 4, !dbg !5829, !tbaa !4396
  %110 = icmp eq i32 %109, 0, !dbg !5830
  br i1 %110, label %111, label %112, !dbg !5831

111:                                              ; preds = %107
  invoke void @_ZN6String11delete_memoEPNS_6memo_tE(%"struct.String::memo_t"* nonnull %100)
          to label %112 unwind label %113, !dbg !5832

112:                                              ; preds = %111, %107
  store %"struct.String::memo_t"* null, %"struct.String::memo_t"** %33, align 8, !dbg !5833, !tbaa !5670
  br label %116, !dbg !5834

113:                                              ; preds = %111
  %114 = landingpad { i8*, i32 }
          catch i8* null, !dbg !5835
  %115 = extractvalue { i8*, i32 } %114, 0, !dbg !5835
  call void @__clang_call_terminate(i8* %115) #15, !dbg !5835
  unreachable, !dbg !5835

116:                                              ; preds = %96, %112
  call void @llvm.lifetime.end.p0i8(i64 24, i8* nonnull %30) #13, !dbg !5731
  br label %138, !dbg !5731

117:                                              ; preds = %51
  %118 = landingpad { i8*, i32 }
          cleanup, !dbg !5801
  %119 = extractvalue { i8*, i32 } %118, 0, !dbg !5801
  %120 = extractvalue { i8*, i32 } %118, 1, !dbg !5801
  call void @llvm.dbg.value(metadata %class.String* %4, metadata !5696, metadata !DIExpression()) #13, !dbg !5836
  call void @llvm.dbg.value(metadata %class.String* %4, metadata !5701, metadata !DIExpression()) #13, !dbg !5838
  %121 = load %"struct.String::memo_t"*, %"struct.String::memo_t"** %55, align 8, !dbg !5840, !tbaa !5670
  %122 = icmp eq %"struct.String::memo_t"* %121, null, !dbg !5841
  br i1 %122, label %137, label %123, !dbg !5842

123:                                              ; preds = %117
  %124 = getelementptr inbounds %"struct.String::memo_t", %"struct.String::memo_t"* %121, i64 0, i32 0, !dbg !5843
  %125 = load volatile i32, i32* %124, align 4, !dbg !5843, !tbaa !5713
  %126 = icmp eq i32 %125, 0, !dbg !5843
  br i1 %126, label %127, label %128, !dbg !5843

127:                                              ; preds = %123
  call void @__assert_fail(i8* getelementptr inbounds ([18 x i8], [18 x i8]* @.str.20, i64 0, i64 0), i8* getelementptr inbounds ([29 x i8], [29 x i8]* @.str.21, i64 0, i64 0), i32 273, i8* getelementptr inbounds ([27 x i8], [27 x i8]* @__PRETTY_FUNCTION__._ZNK6String5derefEv, i64 0, i64 0)) #15, !dbg !5843
  unreachable, !dbg !5843

128:                                              ; preds = %123
  call void @llvm.dbg.value(metadata i32* %124, metadata !5715, metadata !DIExpression()) #13, !dbg !5844
  %129 = load volatile i32, i32* %124, align 4, !dbg !5846, !tbaa !4396
  %130 = add i32 %129, -1, !dbg !5846
  store volatile i32 %130, i32* %124, align 4, !dbg !5846, !tbaa !4396
  %131 = icmp eq i32 %130, 0, !dbg !5847
  br i1 %131, label %132, label %133, !dbg !5848

132:                                              ; preds = %128
  invoke void @_ZN6String11delete_memoEPNS_6memo_tE(%"struct.String::memo_t"* nonnull %121)
          to label %133 unwind label %134, !dbg !5849

133:                                              ; preds = %132, %128
  store %"struct.String::memo_t"* null, %"struct.String::memo_t"** %55, align 8, !dbg !5850, !tbaa !5670
  br label %137, !dbg !5851

134:                                              ; preds = %132
  %135 = landingpad { i8*, i32 }
          catch i8* null, !dbg !5852
  %136 = extractvalue { i8*, i32 } %135, 0, !dbg !5852
  call void @__clang_call_terminate(i8* %136) #15, !dbg !5852
  unreachable, !dbg !5852

137:                                              ; preds = %117, %133
  call void @llvm.lifetime.end.p0i8(i64 24, i8* nonnull %52) #13, !dbg !5783
  br label %138, !dbg !5783

138:                                              ; preds = %137, %116, %95
  %139 = phi i8* [ %119, %137 ], [ %98, %116 ], [ %77, %95 ], !dbg !5801
  %140 = phi i32 [ %120, %137 ], [ %99, %116 ], [ %78, %95 ], !dbg !5801
  %141 = insertvalue { i8*, i32 } undef, i8* %139, 0, !dbg !5695
  %142 = insertvalue { i8*, i32 } %141, i32 %140, 1, !dbg !5695
  resume { i8*, i32 } %142, !dbg !5695
}

declare void @_ZN7Element16add_read_handlerEPKcPF6StringPS_PvEij(%class.Element*, i8*, void (%class.String*, %class.Element*, i8*)*, i32, i32) local_unnamed_addr #2

declare void @_ZN7Element17add_write_handlerERK6StringPFiS2_PS_PvP12ErrorHandlerEPKvj(%class.Element*, %class.String* dereferenceable(24), i32 (%class.String*, %class.Element*, i8*, %class.ErrorHandler*)*, i8*, i32) local_unnamed_addr #2

declare i32 @_ZN7Element27reconfigure_keyword_handlerERK6StringPS_PvP12ErrorHandler(%class.String* dereferenceable(24), %class.Element*, i8*, %class.ErrorHandler*) #2

declare void @_ZN7Element17add_data_handlersEPKciPb(%class.Element*, i8*, i32, i8*) local_unnamed_addr #2

declare i32 @_ZN7Element17set_handler_flagsERK6Stringii(%class.Element*, %class.String* dereferenceable(24), i32, i32) local_unnamed_addr #2

; Function Attrs: inlinehint nounwind sspstrong uwtable
define linkonce_odr dso_local void @_ZN12RatedUnqueueD2Ev(%class.RatedUnqueue* %0) unnamed_addr #7 comdat align 2 personality i32 (...)* @__gxx_personality_v0 !dbg !5853 {
  call void @llvm.dbg.value(metadata %class.RatedUnqueue* %0, metadata !5856, metadata !DIExpression()), !dbg !5857
  %2 = getelementptr %class.RatedUnqueue, %class.RatedUnqueue* %0, i64 0, i32 0, i32 0, !dbg !5858
  store i32 (...)** bitcast (i8** getelementptr inbounds ({ [29 x i8*] }, { [29 x i8*] }* @_ZTV12RatedUnqueue, i64 0, inrange i32 0, i64 2) to i32 (...)**), i32 (...)*** %2, align 8, !dbg !5858, !tbaa !4255
  call void @llvm.dbg.value(metadata %class.RatedUnqueue* %0, metadata !4998, metadata !DIExpression(DW_OP_plus_uconst, 248, DW_OP_stack_value)) #13, !dbg !5859
  %3 = getelementptr inbounds %class.RatedUnqueue, %class.RatedUnqueue* %0, i64 0, i32 4, i32 1, !dbg !5862
  %4 = load i32, i32* %3, align 8, !dbg !5862, !tbaa !4334
  %5 = icmp eq i32 %4, 0, !dbg !5862
  br i1 %5, label %6, label %13, !dbg !5863, !prof !4980, !misexpect !4986

6:                                                ; preds = %1
  %7 = getelementptr inbounds %class.RatedUnqueue, %class.RatedUnqueue* %0, i64 0, i32 4, !dbg !5864
  call void @llvm.dbg.value(metadata %class.NotifierSignal* %7, metadata !4998, metadata !DIExpression()) #13, !dbg !5859
  %8 = bitcast %class.NotifierSignal* %7 to %"struct.NotifierSignal::vmpair"**, !dbg !5865
  %9 = load %"struct.NotifierSignal::vmpair"*, %"struct.NotifierSignal::vmpair"** %8, align 8, !dbg !5865, !tbaa !4318
  %10 = icmp eq %"struct.NotifierSignal::vmpair"* %9, null, !dbg !5866
  br i1 %10, label %13, label %11, !dbg !5866

11:                                               ; preds = %6
  %12 = bitcast %"struct.NotifierSignal::vmpair"* %9 to i8*, !dbg !5866
  tail call void @_ZdaPv(i8* %12) #16, !dbg !5866
  br label %13, !dbg !5866

13:                                               ; preds = %1, %6, %11
  %14 = getelementptr inbounds %class.RatedUnqueue, %class.RatedUnqueue* %0, i64 0, i32 3, !dbg !5864
  call void @llvm.dbg.value(metadata %class.Timer* %14, metadata !5867, metadata !DIExpression()) #13, !dbg !5870
  call void @llvm.dbg.value(metadata %class.Timer* %14, metadata !5872, metadata !DIExpression()) #13, !dbg !5876
  %15 = getelementptr inbounds %class.Timer, %class.Timer* %14, i64 0, i32 0, !dbg !5880
  %16 = load i32, i32* %15, align 8, !dbg !5880, !tbaa !5881
  %17 = icmp eq i32 %16, 0, !dbg !5882
  br i1 %17, label %22, label %18, !dbg !5883

18:                                               ; preds = %13
  invoke void @_ZN5Timer10unscheduleEv(%class.Timer* nonnull %14)
          to label %22 unwind label %19, !dbg !5884

19:                                               ; preds = %18
  %20 = landingpad { i8*, i32 }
          catch i8* null, !dbg !5885
  %21 = extractvalue { i8*, i32 } %20, 0, !dbg !5885
  tail call void @__clang_call_terminate(i8* %21) #15, !dbg !5885
  unreachable, !dbg !5885

22:                                               ; preds = %13, %18
  %23 = getelementptr inbounds %class.RatedUnqueue, %class.RatedUnqueue* %0, i64 0, i32 2, !dbg !5864
  tail call void @_ZN4TaskD1Ev(%class.Task* nonnull %23) #13, !dbg !5864
  %24 = bitcast %class.RatedUnqueue* %0 to %class.Element*, !dbg !5864
  tail call void @_ZN7ElementD2Ev(%class.Element* %24) #13, !dbg !5864
  ret void, !dbg !5858
}

; Function Attrs: inlinehint nounwind sspstrong uwtable
define linkonce_odr dso_local void @_ZN12RatedUnqueueD0Ev(%class.RatedUnqueue* %0) unnamed_addr #7 comdat align 2 personality i32 (...)* @__gxx_personality_v0 !dbg !5886 {
  call void @llvm.dbg.value(metadata %class.RatedUnqueue* %0, metadata !5888, metadata !DIExpression()), !dbg !5889
  call void @llvm.dbg.value(metadata %class.RatedUnqueue* %0, metadata !5856, metadata !DIExpression()) #13, !dbg !5890
  %2 = getelementptr %class.RatedUnqueue, %class.RatedUnqueue* %0, i64 0, i32 0, i32 0, !dbg !5892
  store i32 (...)** bitcast (i8** getelementptr inbounds ({ [29 x i8*] }, { [29 x i8*] }* @_ZTV12RatedUnqueue, i64 0, inrange i32 0, i64 2) to i32 (...)**), i32 (...)*** %2, align 8, !dbg !5892, !tbaa !4255
  call void @llvm.dbg.value(metadata %class.RatedUnqueue* %0, metadata !4998, metadata !DIExpression(DW_OP_plus_uconst, 248, DW_OP_stack_value)) #13, !dbg !5893
  %3 = getelementptr inbounds %class.RatedUnqueue, %class.RatedUnqueue* %0, i64 0, i32 4, i32 1, !dbg !5895
  %4 = load i32, i32* %3, align 8, !dbg !5895, !tbaa !4334
  %5 = icmp eq i32 %4, 0, !dbg !5895
  br i1 %5, label %6, label %13, !dbg !5896, !prof !4980, !misexpect !4986

6:                                                ; preds = %1
  %7 = getelementptr inbounds %class.RatedUnqueue, %class.RatedUnqueue* %0, i64 0, i32 4, !dbg !5897
  call void @llvm.dbg.value(metadata %class.NotifierSignal* %7, metadata !4998, metadata !DIExpression()) #13, !dbg !5893
  %8 = bitcast %class.NotifierSignal* %7 to %"struct.NotifierSignal::vmpair"**, !dbg !5898
  %9 = load %"struct.NotifierSignal::vmpair"*, %"struct.NotifierSignal::vmpair"** %8, align 8, !dbg !5898, !tbaa !4318
  %10 = icmp eq %"struct.NotifierSignal::vmpair"* %9, null, !dbg !5899
  br i1 %10, label %13, label %11, !dbg !5899

11:                                               ; preds = %6
  %12 = bitcast %"struct.NotifierSignal::vmpair"* %9 to i8*, !dbg !5899
  tail call void @_ZdaPv(i8* %12) #16, !dbg !5899
  br label %13, !dbg !5899

13:                                               ; preds = %11, %6, %1
  %14 = getelementptr inbounds %class.RatedUnqueue, %class.RatedUnqueue* %0, i64 0, i32 3, !dbg !5897
  call void @llvm.dbg.value(metadata %class.Timer* %14, metadata !5867, metadata !DIExpression()) #13, !dbg !5900
  call void @llvm.dbg.value(metadata %class.Timer* %14, metadata !5872, metadata !DIExpression()) #13, !dbg !5902
  %15 = getelementptr inbounds %class.Timer, %class.Timer* %14, i64 0, i32 0, !dbg !5904
  %16 = load i32, i32* %15, align 8, !dbg !5904, !tbaa !5881
  %17 = icmp eq i32 %16, 0, !dbg !5905
  br i1 %17, label %22, label %18, !dbg !5906

18:                                               ; preds = %13
  invoke void @_ZN5Timer10unscheduleEv(%class.Timer* nonnull %14)
          to label %22 unwind label %19, !dbg !5907

19:                                               ; preds = %18
  %20 = landingpad { i8*, i32 }
          catch i8* null, !dbg !5908
  %21 = extractvalue { i8*, i32 } %20, 0, !dbg !5908
  tail call void @__clang_call_terminate(i8* %21) #15, !dbg !5908
  unreachable, !dbg !5908

22:                                               ; preds = %13, %18
  %23 = getelementptr inbounds %class.RatedUnqueue, %class.RatedUnqueue* %0, i64 0, i32 2, !dbg !5897
  tail call void @_ZN4TaskD1Ev(%class.Task* nonnull %23) #13, !dbg !5897
  %24 = bitcast %class.RatedUnqueue* %0 to %class.Element*, !dbg !5897
  tail call void @_ZN7ElementD2Ev(%class.Element* %24) #13, !dbg !5897
  %25 = bitcast %class.RatedUnqueue* %0 to i8*, !dbg !5909
  tail call void @_ZdlPv(i8* %25) #16, !dbg !5909
  ret void, !dbg !5909
}

declare void @_ZN7Element4pushEiP6Packet(%class.Element*, i32, %class.Packet*) unnamed_addr #2

declare %class.Packet* @_ZN7Element4pullEi(%class.Element*, i32) unnamed_addr #2

declare %class.Packet* @_ZN7Element13simple_actionEP6Packet(%class.Element*, %class.Packet*) unnamed_addr #2

declare void @_ZN7Element9run_timerEP5Timer(%class.Element*, %class.Timer*) unnamed_addr #2

declare void @_ZN7Element8selectedEii(%class.Element*, i32, i32) unnamed_addr #2

declare void @_ZN7Element8selectedEi(%class.Element*, i32) unnamed_addr #2

; Function Attrs: nounwind sspstrong uwtable
define linkonce_odr dso_local i8* @_ZNK12RatedUnqueue10class_nameEv(%class.RatedUnqueue* %0) unnamed_addr #8 comdat align 2 !dbg !5910 {
  call void @llvm.dbg.value(metadata %class.RatedUnqueue* %0, metadata !5912, metadata !DIExpression()), !dbg !5913
  ret i8* getelementptr inbounds ([13 x i8], [13 x i8]* @.str.22, i64 0, i64 0), !dbg !5914
}

; Function Attrs: nounwind sspstrong uwtable
define linkonce_odr dso_local i8* @_ZNK12RatedUnqueue10port_countEv(%class.RatedUnqueue* %0) unnamed_addr #8 comdat align 2 !dbg !5915 {
  call void @llvm.dbg.value(metadata %class.RatedUnqueue* %0, metadata !5917, metadata !DIExpression()), !dbg !5918
  ret i8* getelementptr inbounds ([0 x i8], [0 x i8]* @_ZN7Element9PORTS_1_1E, i64 0, i64 0), !dbg !5919
}

; Function Attrs: nounwind sspstrong uwtable
define linkonce_odr dso_local i8* @_ZNK12RatedUnqueue10processingEv(%class.RatedUnqueue* %0) unnamed_addr #8 comdat align 2 !dbg !5920 {
  call void @llvm.dbg.value(metadata %class.RatedUnqueue* %0, metadata !5922, metadata !DIExpression()), !dbg !5923
  ret i8* getelementptr inbounds ([0 x i8], [0 x i8]* @_ZN7Element12PULL_TO_PUSHE, i64 0, i64 0), !dbg !5924
}

declare i8* @_ZNK7Element9flow_codeEv(%class.Element*) unnamed_addr #2

declare i8* @_ZNK7Element5flagsEv(%class.Element*) unnamed_addr #2

declare i8* @_ZN7Element4castEPKc(%class.Element*, i8*) unnamed_addr #2

declare i8* @_ZN7Element9port_castEbiPKc(%class.Element*, i1 zeroext, i32, i8*) unnamed_addr #2

declare i32 @_ZNK7Element15configure_phaseEv(%class.Element*) unnamed_addr #2

declare void @_ZN7Element10take_stateEPS_P12ErrorHandler(%class.Element*, %class.Element*, %class.ErrorHandler*) unnamed_addr #2

declare %class.Element* @_ZNK7Element15hotswap_elementEv(%class.Element*) unnamed_addr #2

declare void @_ZN7Element7cleanupENS_12CleanupStageE(%class.Element*, i32) unnamed_addr #2

declare void @_ZNK7Element11declarationEv(%class.String* sret, %class.Element*) unnamed_addr #2

; Function Attrs: nounwind sspstrong uwtable
define linkonce_odr dso_local zeroext i1 @_ZNK12RatedUnqueue20can_live_reconfigureEv(%class.RatedUnqueue* %0) unnamed_addr #8 comdat align 2 !dbg !5925 {
  call void @llvm.dbg.value(metadata %class.RatedUnqueue* %0, metadata !5927, metadata !DIExpression()), !dbg !5928
  ret i1 true, !dbg !5929
}

declare i32 @_ZN7Element16live_reconfigureER6VectorI6StringEP12ErrorHandler(%class.Element*, %class.Vector.7* dereferenceable(16), %class.ErrorHandler*) unnamed_addr #2

declare i32 @_ZN7Element5llrpcEjPv(%class.Element*, i32, i8*) unnamed_addr #2

; Function Attrs: noinline noreturn nounwind
define linkonce_odr hidden void @__clang_call_terminate(i8* %0) local_unnamed_addr #9 comdat {
  %2 = tail call i8* @__cxa_begin_catch(i8* %0) #13
  tail call void @_ZSt9terminatev() #15
  unreachable
}

declare i8* @__cxa_begin_catch(i8*) local_unnamed_addr

declare void @_ZSt9terminatev() local_unnamed_addr

declare void @_ZN5Timer10unscheduleEv(%class.Timer*) local_unnamed_addr #2

declare void @_ZN12ScheduleInfo15initialize_taskEP7ElementP4TaskbP12ErrorHandler(%class.Element*, %class.Task*, i1 zeroext, %class.ErrorHandler*) local_unnamed_addr #2

declare void @_ZN8Notifier21upstream_empty_signalEP7ElementiPFvPvPS_ES2_(%class.NotifierSignal* sret, %class.Element*, i32, void (i8*, %class.Notifier*)*, i8*) local_unnamed_addr #2

; Function Attrs: nobuiltin nounwind
declare void @_ZdaPv(i8*) local_unnamed_addr #10

declare void @_ZN14NotifierSignal14hard_assign_vmERKS_(%class.NotifierSignal*, %class.NotifierSignal* dereferenceable(16)) local_unnamed_addr #2

; Function Attrs: noinline nounwind optnone sspstrong uwtable
define linkonce_odr dso_local dereferenceable(16) %"class.Element::Port"* @_ZNK7Element4portEbi(%class.Element* %0, i1 zeroext %1, i32 %2) local_unnamed_addr #6 comdat align 2 !dbg !5930 {
  %4 = alloca %class.Element*, align 8
  %5 = alloca i8, align 1
  %6 = alloca i32, align 4
  store %class.Element* %0, %class.Element** %4, align 8, !tbaa !5399
  call void @llvm.dbg.declare(metadata %class.Element** %4, metadata !5935, metadata !DIExpression()), !dbg !5938
  %7 = zext i1 %1 to i8
  store i8 %7, i8* %5, align 1, !tbaa !5939
  call void @llvm.dbg.declare(metadata i8* %5, metadata !5936, metadata !DIExpression()), !dbg !5940
  store i32 %2, i32* %6, align 4, !tbaa !4396
  call void @llvm.dbg.declare(metadata i32* %6, metadata !5937, metadata !DIExpression()), !dbg !5941
  %8 = load %class.Element*, %class.Element** %4, align 8
  %9 = load i32, i32* %6, align 4, !dbg !5942, !tbaa !4396
  %10 = getelementptr inbounds %class.Element, %class.Element* %8, i32 0, i32 3, !dbg !5942
  %11 = load i8, i8* %5, align 1, !dbg !5942, !tbaa !5939, !range !4484
  %12 = trunc i8 %11 to i1, !dbg !5942
  %13 = zext i1 %12 to i64, !dbg !5942
  %14 = getelementptr inbounds [2 x i32], [2 x i32]* %10, i64 0, i64 %13, !dbg !5942
  %15 = load i32, i32* %14, align 4, !dbg !5942, !tbaa !4396
  %16 = icmp ult i32 %9, %15, !dbg !5942
  br i1 %16, label %17, label %18, !dbg !5942

17:                                               ; preds = %3
  br label %19, !dbg !5942

18:                                               ; preds = %3
  call void @__assert_fail(i8* getelementptr inbounds ([47 x i8], [47 x i8]* @.str.14, i64 0, i64 0), i8* getelementptr inbounds ([30 x i8], [30 x i8]* @.str.15, i64 0, i64 0), i32 437, i8* getelementptr inbounds ([52 x i8], [52 x i8]* @__PRETTY_FUNCTION__._ZNK7Element4portEbi, i64 0, i64 0)) #15, !dbg !5942
  unreachable, !dbg !5942

19:                                               ; preds = %17
  %20 = getelementptr inbounds %class.Element, %class.Element* %8, i32 0, i32 1, !dbg !5943
  %21 = load i8, i8* %5, align 1, !dbg !5944, !tbaa !5939, !range !4484
  %22 = trunc i8 %21 to i1, !dbg !5944
  %23 = zext i1 %22 to i64, !dbg !5943
  %24 = getelementptr inbounds [2 x %"class.Element::Port"*], [2 x %"class.Element::Port"*]* %20, i64 0, i64 %23, !dbg !5943
  %25 = load %"class.Element::Port"*, %"class.Element::Port"** %24, align 8, !dbg !5943, !tbaa !5399
  %26 = load i32, i32* %6, align 4, !dbg !5945, !tbaa !4396
  %27 = sext i32 %26 to i64, !dbg !5943
  %28 = getelementptr inbounds %"class.Element::Port", %"class.Element::Port"* %25, i64 %27, !dbg !5943
  ret %"class.Element::Port"* %28, !dbg !5946
}

; Function Attrs: noreturn nounwind
declare void @__assert_fail(i8*, i8*, i32, i8*) local_unnamed_addr #11

; Function Attrs: inlinehint sspstrong uwtable
define linkonce_odr dso_local zeroext i1 @_ZNK14NotifierSignal6activeEv(%class.NotifierSignal* %0) #12 comdat align 2 !dbg !5275 {
  call void @llvm.dbg.value(metadata %class.NotifierSignal* %0, metadata !5274, metadata !DIExpression()), !dbg !5947
  tail call void asm sideeffect "", "~{memory},~{dirflag},~{fpsr},~{flags}"() #13, !dbg !5948, !srcloc !5289
  %2 = getelementptr inbounds %class.NotifierSignal, %class.NotifierSignal* %0, i64 0, i32 1, !dbg !5951
  %3 = load i32, i32* %2, align 8, !dbg !5951, !tbaa !4334
  %4 = icmp eq i32 %3, 0, !dbg !5951
  br i1 %4, label %12, label %5, !dbg !5952, !prof !4980, !misexpect !4981

5:                                                ; preds = %1
  %6 = getelementptr inbounds %class.NotifierSignal, %class.NotifierSignal* %0, i64 0, i32 0, i32 0, !dbg !5953
  %7 = load %class.atomic_uint32_t*, %class.atomic_uint32_t** %6, align 8, !dbg !5953, !tbaa !4318
  call void @llvm.dbg.value(metadata %class.atomic_uint32_t* %7, metadata !5306, metadata !DIExpression()), !dbg !5954
  call void @llvm.dbg.value(metadata %class.atomic_uint32_t* %7, metadata !5312, metadata !DIExpression()), !dbg !5956
  %8 = getelementptr inbounds %class.atomic_uint32_t, %class.atomic_uint32_t* %7, i64 0, i32 0, !dbg !5958
  %9 = load i32, i32* %8, align 4, !dbg !5958, !tbaa !5318
  %10 = and i32 %9, %3, !dbg !5959
  %11 = icmp ne i32 %10, 0, !dbg !5960
  ret i1 %11, !dbg !5961

12:                                               ; preds = %1
  %13 = bitcast %class.NotifierSignal* %0 to %"struct.NotifierSignal::vmpair"**, !dbg !5962
  %14 = load %"struct.NotifierSignal::vmpair"*, %"struct.NotifierSignal::vmpair"** %13, align 8, !dbg !5962, !tbaa !4318
  call void @llvm.dbg.value(metadata %"struct.NotifierSignal::vmpair"* %14, metadata !5277, metadata !DIExpression()), !dbg !5963
  %15 = getelementptr inbounds %"struct.NotifierSignal::vmpair", %"struct.NotifierSignal::vmpair"* %14, i64 0, i32 1, !dbg !5964
  %16 = load i32, i32* %15, align 8, !dbg !5964, !tbaa !5296
  %17 = icmp eq i32 %16, 0, !dbg !5965
  br i1 %17, label %32, label %23, !dbg !5966

18:                                               ; preds = %23
  %19 = getelementptr inbounds %"struct.NotifierSignal::vmpair", %"struct.NotifierSignal::vmpair"* %25, i64 1, !dbg !5967
  call void @llvm.dbg.value(metadata %"struct.NotifierSignal::vmpair"* %19, metadata !5277, metadata !DIExpression()), !dbg !5963
  call void @llvm.dbg.value(metadata %"struct.NotifierSignal::vmpair"* %19, metadata !5277, metadata !DIExpression()), !dbg !5963
  %20 = getelementptr inbounds %"struct.NotifierSignal::vmpair", %"struct.NotifierSignal::vmpair"* %25, i64 1, i32 1, !dbg !5964
  %21 = load i32, i32* %20, align 8, !dbg !5964, !tbaa !5296
  %22 = icmp eq i32 %21, 0, !dbg !5965
  br i1 %22, label %32, label %23, !dbg !5966, !llvm.loop !5968

23:                                               ; preds = %12, %18
  %24 = phi i32 [ %21, %18 ], [ %16, %12 ]
  %25 = phi %"struct.NotifierSignal::vmpair"* [ %19, %18 ], [ %14, %12 ]
  call void @llvm.dbg.value(metadata %"struct.NotifierSignal::vmpair"* %25, metadata !5277, metadata !DIExpression()), !dbg !5963
  %26 = getelementptr inbounds %"struct.NotifierSignal::vmpair", %"struct.NotifierSignal::vmpair"* %25, i64 0, i32 0, !dbg !5970
  %27 = load %class.atomic_uint32_t*, %class.atomic_uint32_t** %26, align 8, !dbg !5970, !tbaa !5305
  call void @llvm.dbg.value(metadata %class.atomic_uint32_t* %27, metadata !5306, metadata !DIExpression()), !dbg !5971
  call void @llvm.dbg.value(metadata %class.atomic_uint32_t* %27, metadata !5312, metadata !DIExpression()), !dbg !5973
  %28 = getelementptr inbounds %class.atomic_uint32_t, %class.atomic_uint32_t* %27, i64 0, i32 0, !dbg !5975
  %29 = load i32, i32* %28, align 4, !dbg !5975, !tbaa !5318
  %30 = and i32 %29, %24, !dbg !5976
  %31 = icmp eq i32 %30, 0, !dbg !5977
  call void @llvm.dbg.value(metadata %"struct.NotifierSignal::vmpair"* %25, metadata !5277, metadata !DIExpression(DW_OP_plus_uconst, 16, DW_OP_stack_value)), !dbg !5963
  br i1 %31, label %18, label %32, !dbg !5978

32:                                               ; preds = %23, %18, %12
  %33 = phi i1 [ false, %12 ], [ false, %18 ], [ true, %23 ]
  ret i1 %33
}

; Function Attrs: argmemonly nounwind willreturn
declare void @llvm.memcpy.p0i8.p0i8.i64(i8* noalias nocapture writeonly, i8* noalias nocapture readonly, i64, i1 immarg) #4

declare void @_ZN11StringAccum11hard_appendEPKci(%class.StringAccum*, i8*, i32) local_unnamed_addr #2

declare !dbg !3298 dereferenceable(16) %class.StringAccum* @_ZlsR11StringAccumm(%class.StringAccum* dereferenceable(16), i64) local_unnamed_addr #2

declare void @_ZN6String11delete_memoEPNS_6memo_tE(%"struct.String::memo_t"*) local_unnamed_addr #2

declare void @_ZN7Element17add_task_handlersEP4TaskP14NotifierSignaliRK6String(%class.Element*, %class.Task*, %class.NotifierSignal*, i32, %class.String* dereferenceable(24)) local_unnamed_addr #2

; Function Attrs: nobuiltin nounwind
declare void @_ZdlPv(i8*) local_unnamed_addr #10

; Function Attrs: noinline optnone sspstrong uwtable
define linkonce_odr dso_local void @_Z14args_base_readI12BandwidthArgjEvP4ArgsPKciT_RT0_(%class.Args* %0, i8* %1, i32 %2, i32 %3, i32* dereferenceable(4) %4) local_unnamed_addr #5 comdat !dbg !5979 {
  %6 = alloca %class.BandwidthArg, align 4
  %7 = alloca %class.Args*, align 8
  %8 = alloca i8*, align 8
  %9 = alloca i32, align 4
  %10 = alloca i32*, align 8
  %11 = alloca %class.BandwidthArg, align 4
  %12 = getelementptr inbounds %class.BandwidthArg, %class.BandwidthArg* %6, i32 0, i32 0
  store i32 %3, i32* %12, align 4
  store %class.Args* %0, %class.Args** %7, align 8, !tbaa !5399
  call void @llvm.dbg.declare(metadata %class.Args** %7, metadata !5981, metadata !DIExpression()), !dbg !5986
  store i8* %1, i8** %8, align 8, !tbaa !5399
  call void @llvm.dbg.declare(metadata i8** %8, metadata !5982, metadata !DIExpression()), !dbg !5987
  store i32 %2, i32* %9, align 4, !tbaa !4396
  call void @llvm.dbg.declare(metadata i32* %9, metadata !5983, metadata !DIExpression()), !dbg !5988
  call void @llvm.dbg.declare(metadata %class.BandwidthArg* %6, metadata !5984, metadata !DIExpression()), !dbg !5989
  store i32* %4, i32** %10, align 8, !tbaa !5399
  call void @llvm.dbg.declare(metadata i32** %10, metadata !5985, metadata !DIExpression()), !dbg !5990
  %13 = load %class.Args*, %class.Args** %7, align 8, !dbg !5991, !tbaa !5399
  %14 = load i8*, i8** %8, align 8, !dbg !5992, !tbaa !5399
  %15 = load i32, i32* %9, align 4, !dbg !5993, !tbaa !4396
  %16 = bitcast %class.BandwidthArg* %11 to i8*, !dbg !5994
  %17 = bitcast %class.BandwidthArg* %6 to i8*, !dbg !5994
  call void @llvm.memcpy.p0i8.p0i8.i64(i8* align 4 %16, i8* align 4 %17, i64 4, i1 false), !dbg !5994
  %18 = load i32*, i32** %10, align 8, !dbg !5995, !tbaa !5399
  %19 = getelementptr inbounds %class.BandwidthArg, %class.BandwidthArg* %11, i32 0, i32 0, !dbg !5996
  %20 = load i32, i32* %19, align 4, !dbg !5996
  call void @_ZN4Args9base_readI12BandwidthArgjEEvPKciT_RT0_(%class.Args* %13, i8* %14, i32 %15, i32 %20, i32* dereferenceable(4) %18), !dbg !5996
  ret void, !dbg !5997
}

; Function Attrs: sspstrong uwtable
define linkonce_odr dso_local void @_ZN4Args9base_readI12BandwidthArgjEEvPKciT_RT0_(%class.Args* %0, i8* %1, i32 %2, i32 %3, i32* dereferenceable(4) %4) local_unnamed_addr #0 comdat align 2 personality i8* bitcast (i32 (...)* @__gxx_personality_v0 to i8*) !dbg !5998 {
  %6 = alloca %class.BandwidthArg, align 4
  call void @llvm.dbg.declare(metadata %class.BandwidthArg* %6, metadata !6013, metadata !DIExpression()), !dbg !6027
  %7 = alloca %"struct.Args::Slot"*, align 8
  %8 = alloca %class.String, align 8
  call void @llvm.dbg.value(metadata i32 %3, metadata !6006, metadata !DIExpression()), !dbg !6029
  call void @llvm.dbg.value(metadata %class.Args* %0, metadata !6003, metadata !DIExpression()), !dbg !6029
  call void @llvm.dbg.value(metadata i8* %1, metadata !6004, metadata !DIExpression()), !dbg !6029
  call void @llvm.dbg.value(metadata i32 %2, metadata !6005, metadata !DIExpression()), !dbg !6029
  call void @llvm.dbg.value(metadata i32* %4, metadata !6007, metadata !DIExpression()), !dbg !6029
  %9 = bitcast %"struct.Args::Slot"** %7 to i8*, !dbg !6030
  call void @llvm.lifetime.start.p0i8(i64 8, i8* nonnull %9) #13, !dbg !6030
  %10 = bitcast %class.String* %8 to i8*, !dbg !6031
  call void @llvm.lifetime.start.p0i8(i64 24, i8* nonnull %10) #13, !dbg !6031
  call void @llvm.dbg.declare(metadata %class.String* %8, metadata !6009, metadata !DIExpression()), !dbg !6032
  call void @llvm.dbg.value(metadata %"struct.Args::Slot"** %7, metadata !6008, metadata !DIExpression(DW_OP_deref)), !dbg !6029
  call void @_ZN4Args4findEPKciRPNS_4SlotE(%class.String* nonnull sret %8, %class.Args* %0, i8* %1, i32 %2, %"struct.Args::Slot"** nonnull dereferenceable(8) %7), !dbg !6033
  call void @llvm.dbg.value(metadata %class.String* %8, metadata !6034, metadata !DIExpression()), !dbg !6037
  %11 = getelementptr inbounds %class.String, %class.String* %8, i64 0, i32 0, i32 1, !dbg !6039
  %12 = load i32, i32* %11, align 8, !dbg !6039, !tbaa !5666
  %13 = icmp eq i32 %12, 0, !dbg !6040
  %14 = select i1 %13, { i64, i64 } zeroinitializer, { i64, i64 } { i64 ptrtoint (i32 (%class.String*)* @_ZNK6String6lengthEv to i64), i64 0 }, !dbg !6041
  %15 = extractvalue { i64, i64 } %14, 0, !dbg !6032
  %16 = icmp eq i64 %15, 0, !dbg !6032
  br i1 %16, label %52, label %17, !dbg !6031

17:                                               ; preds = %5
  call void @llvm.dbg.value(metadata i32* %4, metadata !6042, metadata !DIExpression()), !dbg !6049
  call void @llvm.dbg.value(metadata %class.Args* %0, metadata !6048, metadata !DIExpression()), !dbg !6049
  call void @llvm.dbg.value(metadata %class.Args* %0, metadata !6051, metadata !DIExpression()), !dbg !6058
  call void @llvm.dbg.value(metadata i32* %4, metadata !6057, metadata !DIExpression()), !dbg !6058
  %18 = bitcast i32* %4 to i8*, !dbg !6060
  %19 = invoke i8* @_ZN4Args11simple_slotEPvm(%class.Args* nonnull %0, i8* nonnull %18, i64 4)
          to label %20 unwind label %32, !dbg !6062

20:                                               ; preds = %17
  call void @llvm.dbg.value(metadata i8* %19, metadata !6011, metadata !DIExpression()), !dbg !6063
  %21 = icmp eq i8* %19, null, !dbg !6064
  br i1 %21, label %29, label %22, !dbg !6065

22:                                               ; preds = %20
  %23 = bitcast i8* %19 to i32*, !dbg !6066
  call void @llvm.dbg.value(metadata i32* %23, metadata !6011, metadata !DIExpression()), !dbg !6063
  %24 = bitcast %class.BandwidthArg* %6 to i8*
  call void @llvm.lifetime.start.p0i8(i64 4, i8* nonnull %24)
  %25 = getelementptr inbounds %class.BandwidthArg, %class.BandwidthArg* %6, i64 0, i32 0
  store i32 %3, i32* %25, align 4
  call void @llvm.dbg.value(metadata %class.String* %8, metadata !6024, metadata !DIExpression()), !dbg !6067
  call void @llvm.dbg.value(metadata i32* %23, metadata !6025, metadata !DIExpression()), !dbg !6067
  call void @llvm.dbg.value(metadata %class.Args* %0, metadata !6026, metadata !DIExpression()), !dbg !6067
  %26 = bitcast %class.Args* %0 to %class.ArgContext*, !dbg !6068
  %27 = invoke zeroext i1 @_ZN12BandwidthArg5parseERK6StringRjRK10ArgContext(%class.BandwidthArg* nonnull %6, %class.String* nonnull dereferenceable(24) %8, i32* nonnull dereferenceable(4) %23, %class.ArgContext* nonnull dereferenceable(32) %26)
          to label %28 unwind label %32, !dbg !6069

28:                                               ; preds = %22
  call void @llvm.lifetime.end.p0i8(i64 4, i8* nonnull %24), !dbg !6070
  br label %29, !dbg !6070

29:                                               ; preds = %28, %20
  %30 = phi i1 [ false, %20 ], [ %27, %28 ], !dbg !6063
  %31 = load %"struct.Args::Slot"*, %"struct.Args::Slot"** %7, align 8, !dbg !6071, !tbaa !5399
  call void @llvm.dbg.value(metadata %"struct.Args::Slot"* %31, metadata !6008, metadata !DIExpression()), !dbg !6029
  invoke void @_ZN4Args9postparseEbPNS_4SlotE(%class.Args* nonnull %0, i1 zeroext %30, %"struct.Args::Slot"* %31)
          to label %52 unwind label %32, !dbg !6072

32:                                               ; preds = %22, %17, %29
  %33 = landingpad { i8*, i32 }
          cleanup, !dbg !6073
  call void @llvm.dbg.value(metadata %class.String* %8, metadata !5696, metadata !DIExpression()) #13, !dbg !6074
  call void @llvm.dbg.value(metadata %class.String* %8, metadata !5701, metadata !DIExpression()) #13, !dbg !6076
  %34 = getelementptr inbounds %class.String, %class.String* %8, i64 0, i32 0, i32 2, !dbg !6078
  %35 = load %"struct.String::memo_t"*, %"struct.String::memo_t"** %34, align 8, !dbg !6078, !tbaa !5670
  %36 = icmp eq %"struct.String::memo_t"* %35, null, !dbg !6079
  br i1 %36, label %51, label %37, !dbg !6080

37:                                               ; preds = %32
  %38 = getelementptr inbounds %"struct.String::memo_t", %"struct.String::memo_t"* %35, i64 0, i32 0, !dbg !6081
  %39 = load volatile i32, i32* %38, align 4, !dbg !6081, !tbaa !5713
  %40 = icmp eq i32 %39, 0, !dbg !6081
  br i1 %40, label %41, label %42, !dbg !6081

41:                                               ; preds = %37
  call void @__assert_fail(i8* getelementptr inbounds ([18 x i8], [18 x i8]* @.str.20, i64 0, i64 0), i8* getelementptr inbounds ([29 x i8], [29 x i8]* @.str.21, i64 0, i64 0), i32 273, i8* getelementptr inbounds ([27 x i8], [27 x i8]* @__PRETTY_FUNCTION__._ZNK6String5derefEv, i64 0, i64 0)) #15, !dbg !6081
  unreachable, !dbg !6081

42:                                               ; preds = %37
  call void @llvm.dbg.value(metadata i32* %38, metadata !5715, metadata !DIExpression()) #13, !dbg !6082
  %43 = load volatile i32, i32* %38, align 4, !dbg !6084, !tbaa !4396
  %44 = add i32 %43, -1, !dbg !6084
  store volatile i32 %44, i32* %38, align 4, !dbg !6084, !tbaa !4396
  %45 = icmp eq i32 %44, 0, !dbg !6085
  br i1 %45, label %46, label %47, !dbg !6086

46:                                               ; preds = %42
  invoke void @_ZN6String11delete_memoEPNS_6memo_tE(%"struct.String::memo_t"* nonnull %35)
          to label %47 unwind label %48, !dbg !6087

47:                                               ; preds = %46, %42
  store %"struct.String::memo_t"* null, %"struct.String::memo_t"** %34, align 8, !dbg !6088, !tbaa !5670
  br label %51, !dbg !6089

48:                                               ; preds = %46
  %49 = landingpad { i8*, i32 }
          catch i8* null, !dbg !6090
  %50 = extractvalue { i8*, i32 } %49, 0, !dbg !6090
  call void @__clang_call_terminate(i8* %50) #15, !dbg !6090
  unreachable, !dbg !6090

51:                                               ; preds = %32, %47
  call void @llvm.lifetime.end.p0i8(i64 24, i8* nonnull %10) #13, !dbg !6031
  call void @llvm.lifetime.end.p0i8(i64 8, i8* nonnull %9) #13, !dbg !6091
  resume { i8*, i32 } %33, !dbg !6091

52:                                               ; preds = %29, %5
  call void @llvm.dbg.value(metadata %class.String* %8, metadata !5696, metadata !DIExpression()) #13, !dbg !6092
  call void @llvm.dbg.value(metadata %class.String* %8, metadata !5701, metadata !DIExpression()) #13, !dbg !6094
  %53 = getelementptr inbounds %class.String, %class.String* %8, i64 0, i32 0, i32 2, !dbg !6096
  %54 = load %"struct.String::memo_t"*, %"struct.String::memo_t"** %53, align 8, !dbg !6096, !tbaa !5670
  %55 = icmp eq %"struct.String::memo_t"* %54, null, !dbg !6097
  br i1 %55, label %70, label %56, !dbg !6098

56:                                               ; preds = %52
  %57 = getelementptr inbounds %"struct.String::memo_t", %"struct.String::memo_t"* %54, i64 0, i32 0, !dbg !6099
  %58 = load volatile i32, i32* %57, align 4, !dbg !6099, !tbaa !5713
  %59 = icmp eq i32 %58, 0, !dbg !6099
  br i1 %59, label %60, label %61, !dbg !6099

60:                                               ; preds = %56
  call void @__assert_fail(i8* getelementptr inbounds ([18 x i8], [18 x i8]* @.str.20, i64 0, i64 0), i8* getelementptr inbounds ([29 x i8], [29 x i8]* @.str.21, i64 0, i64 0), i32 273, i8* getelementptr inbounds ([27 x i8], [27 x i8]* @__PRETTY_FUNCTION__._ZNK6String5derefEv, i64 0, i64 0)) #15, !dbg !6099
  unreachable, !dbg !6099

61:                                               ; preds = %56
  call void @llvm.dbg.value(metadata i32* %57, metadata !5715, metadata !DIExpression()) #13, !dbg !6100
  %62 = load volatile i32, i32* %57, align 4, !dbg !6102, !tbaa !4396
  %63 = add i32 %62, -1, !dbg !6102
  store volatile i32 %63, i32* %57, align 4, !dbg !6102, !tbaa !4396
  %64 = icmp eq i32 %63, 0, !dbg !6103
  br i1 %64, label %65, label %66, !dbg !6104

65:                                               ; preds = %61
  invoke void @_ZN6String11delete_memoEPNS_6memo_tE(%"struct.String::memo_t"* nonnull %54)
          to label %66 unwind label %67, !dbg !6105

66:                                               ; preds = %65, %61
  store %"struct.String::memo_t"* null, %"struct.String::memo_t"** %53, align 8, !dbg !6106, !tbaa !5670
  br label %70, !dbg !6107

67:                                               ; preds = %65
  %68 = landingpad { i8*, i32 }
          catch i8* null, !dbg !6108
  %69 = extractvalue { i8*, i32 } %68, 0, !dbg !6108
  call void @__clang_call_terminate(i8* %69) #15, !dbg !6108
  unreachable, !dbg !6108

70:                                               ; preds = %52, %66
  call void @llvm.lifetime.end.p0i8(i64 24, i8* nonnull %10) #13, !dbg !6031
  call void @llvm.lifetime.end.p0i8(i64 8, i8* nonnull %9) #13, !dbg !6091
  ret void, !dbg !6091
}

declare void @_ZN4Args4findEPKciRPNS_4SlotE(%class.String* sret, %class.Args*, i8*, i32, %"struct.Args::Slot"** dereferenceable(8)) local_unnamed_addr #2

declare void @_ZN4Args9postparseEbPNS_4SlotE(%class.Args*, i1 zeroext, %"struct.Args::Slot"*) local_unnamed_addr #2

; Function Attrs: inlinehint nounwind sspstrong uwtable
define linkonce_odr dso_local i32 @_ZNK6String6lengthEv(%class.String* %0) #7 comdat align 2 !dbg !6109 {
  call void @llvm.dbg.value(metadata %class.String* %0, metadata !6111, metadata !DIExpression()), !dbg !6112
  %2 = getelementptr inbounds %class.String, %class.String* %0, i64 0, i32 0, i32 1, !dbg !6113
  %3 = load i32, i32* %2, align 8, !dbg !6113, !tbaa !5666
  ret i32 %3, !dbg !6114
}

declare i8* @_ZN4Args11simple_slotEPvm(%class.Args*, i8*, i64) local_unnamed_addr #2

declare zeroext i1 @_ZN12BandwidthArg5parseERK6StringRjRK10ArgContext(%class.BandwidthArg*, %class.String* dereferenceable(24), i32* dereferenceable(4), %class.ArgContext* dereferenceable(32)) local_unnamed_addr #2

; Function Attrs: noinline optnone sspstrong uwtable
define linkonce_odr dso_local void @_Z14args_base_readIjEvP4ArgsPKciRT_(%class.Args* %0, i8* %1, i32 %2, i32* dereferenceable(4) %3) local_unnamed_addr #5 comdat !dbg !6115 {
  %5 = alloca %class.Args*, align 8
  %6 = alloca i8*, align 8
  %7 = alloca i32, align 4
  %8 = alloca i32*, align 8
  store %class.Args* %0, %class.Args** %5, align 8, !tbaa !5399
  call void @llvm.dbg.declare(metadata %class.Args** %5, metadata !6117, metadata !DIExpression()), !dbg !6121
  store i8* %1, i8** %6, align 8, !tbaa !5399
  call void @llvm.dbg.declare(metadata i8** %6, metadata !6118, metadata !DIExpression()), !dbg !6122
  store i32 %2, i32* %7, align 4, !tbaa !4396
  call void @llvm.dbg.declare(metadata i32* %7, metadata !6119, metadata !DIExpression()), !dbg !6123
  store i32* %3, i32** %8, align 8, !tbaa !5399
  call void @llvm.dbg.declare(metadata i32** %8, metadata !6120, metadata !DIExpression()), !dbg !6124
  %9 = load %class.Args*, %class.Args** %5, align 8, !dbg !6125, !tbaa !5399
  %10 = load i8*, i8** %6, align 8, !dbg !6126, !tbaa !5399
  %11 = load i32, i32* %7, align 4, !dbg !6127, !tbaa !4396
  %12 = load i32*, i32** %8, align 8, !dbg !6128, !tbaa !5399
  call void @_ZN4Args9base_readIjEEvPKciRT_(%class.Args* %9, i8* %10, i32 %11, i32* dereferenceable(4) %12), !dbg !6129
  ret void, !dbg !6130
}

; Function Attrs: sspstrong uwtable
define linkonce_odr dso_local void @_ZN4Args9base_readIjEEvPKciRT_(%class.Args* %0, i8* %1, i32 %2, i32* dereferenceable(4) %3) local_unnamed_addr #0 comdat align 2 personality i8* bitcast (i32 (...)* @__gxx_personality_v0 to i8*) !dbg !6131 {
  %5 = alloca [1 x i32], align 4
  call void @llvm.dbg.declare(metadata [1 x i32]* %5, metadata !6145, metadata !DIExpression()), !dbg !6183
  %6 = alloca i64, align 8
  %7 = alloca %"struct.Args::Slot"*, align 8
  %8 = alloca %class.String, align 8
  call void @llvm.dbg.value(metadata %class.Args* %0, metadata !6136, metadata !DIExpression()), !dbg !6211
  call void @llvm.dbg.value(metadata i8* %1, metadata !6137, metadata !DIExpression()), !dbg !6211
  call void @llvm.dbg.value(metadata i32 %2, metadata !6138, metadata !DIExpression()), !dbg !6211
  call void @llvm.dbg.value(metadata i32* %3, metadata !6139, metadata !DIExpression()), !dbg !6211
  %9 = bitcast %"struct.Args::Slot"** %7 to i8*, !dbg !6212
  call void @llvm.lifetime.start.p0i8(i64 8, i8* nonnull %9) #13, !dbg !6212
  %10 = bitcast %class.String* %8 to i8*, !dbg !6213
  call void @llvm.lifetime.start.p0i8(i64 24, i8* nonnull %10) #13, !dbg !6213
  call void @llvm.dbg.declare(metadata %class.String* %8, metadata !6141, metadata !DIExpression()), !dbg !6214
  call void @llvm.dbg.value(metadata %"struct.Args::Slot"** %7, metadata !6140, metadata !DIExpression(DW_OP_deref)), !dbg !6211
  call void @_ZN4Args4findEPKciRPNS_4SlotE(%class.String* nonnull sret %8, %class.Args* %0, i8* %1, i32 %2, %"struct.Args::Slot"** nonnull dereferenceable(8) %7), !dbg !6215
  call void @llvm.dbg.value(metadata %class.String* %8, metadata !6034, metadata !DIExpression()), !dbg !6216
  %11 = getelementptr inbounds %class.String, %class.String* %8, i64 0, i32 0, i32 1, !dbg !6218
  %12 = load i32, i32* %11, align 8, !dbg !6218, !tbaa !5666
  %13 = icmp eq i32 %12, 0, !dbg !6219
  %14 = select i1 %13, { i64, i64 } zeroinitializer, { i64, i64 } { i64 ptrtoint (i32 (%class.String*)* @_ZNK6String6lengthEv to i64), i64 0 }, !dbg !6220
  %15 = extractvalue { i64, i64 } %14, 0, !dbg !6214
  %16 = icmp eq i64 %15, 0, !dbg !6214
  br i1 %16, label %77, label %17, !dbg !6213

17:                                               ; preds = %4
  call void @llvm.dbg.value(metadata i32* %3, metadata !6221, metadata !DIExpression()), !dbg !6226
  call void @llvm.dbg.value(metadata %class.Args* %0, metadata !6225, metadata !DIExpression()), !dbg !6226
  call void @llvm.dbg.value(metadata %class.Args* %0, metadata !6051, metadata !DIExpression()), !dbg !6228
  call void @llvm.dbg.value(metadata i32* %3, metadata !6057, metadata !DIExpression()), !dbg !6228
  %18 = bitcast i32* %3 to i8*, !dbg !6230
  %19 = invoke i8* @_ZN4Args11simple_slotEPvm(%class.Args* nonnull %0, i8* nonnull %18, i64 4)
          to label %20 unwind label %57, !dbg !6231

20:                                               ; preds = %17
  %21 = bitcast i8* %19 to i32*, !dbg !6232
  call void @llvm.dbg.value(metadata i32* %21, metadata !6143, metadata !DIExpression()), !dbg !6233
  %22 = icmp eq i8* %19, null, !dbg !6234
  br i1 %22, label %54, label %23, !dbg !6235

23:                                               ; preds = %20
  %24 = bitcast i64* %6 to i8*, !dbg !6236
  call void @llvm.lifetime.start.p0i8(i64 8, i8* nonnull %24), !dbg !6236
  call void @llvm.dbg.value(metadata i64 0, metadata !6206, metadata !DIExpression()), !dbg !6236
  store i64 0, i64* %6, align 8
  call void @llvm.dbg.value(metadata %class.String* %8, metadata !6207, metadata !DIExpression()), !dbg !6236
  call void @llvm.dbg.value(metadata i32* %21, metadata !6208, metadata !DIExpression()), !dbg !6236
  call void @llvm.dbg.value(metadata %class.Args* %0, metadata !6209, metadata !DIExpression()), !dbg !6236
  %25 = bitcast i64* %6 to %class.IntArg*, !dbg !6237
  %26 = bitcast %class.Args* %0 to %class.ArgContext*, !dbg !6238
  call void @llvm.dbg.value(metadata %class.IntArg* %25, metadata !6189, metadata !DIExpression()), !dbg !6239
  call void @llvm.dbg.value(metadata %class.String* %8, metadata !6190, metadata !DIExpression()), !dbg !6239
  call void @llvm.dbg.value(metadata i32* %21, metadata !6191, metadata !DIExpression()), !dbg !6239
  call void @llvm.dbg.value(metadata %class.ArgContext* %26, metadata !6192, metadata !DIExpression()), !dbg !6239
  call void @llvm.dbg.value(metadata %class.IntArg* %25, metadata !6173, metadata !DIExpression()), !dbg !6240
  call void @llvm.dbg.value(metadata %class.String* %8, metadata !6175, metadata !DIExpression()), !dbg !6240
  call void @llvm.dbg.value(metadata %class.ArgContext* %26, metadata !6177, metadata !DIExpression()), !dbg !6240
  call void @llvm.dbg.value(metadata i8 0, metadata !6178, metadata !DIExpression()), !dbg !6240
  call void @llvm.dbg.value(metadata i32 1, metadata !6179, metadata !DIExpression()), !dbg !6240
  %27 = bitcast [1 x i32]* %5 to i8*, !dbg !6241
  call void @llvm.lifetime.start.p0i8(i64 4, i8* nonnull %27) #13, !dbg !6241
  call void @llvm.dbg.value(metadata %class.String* %8, metadata !6242, metadata !DIExpression()), !dbg !6245
  %28 = getelementptr inbounds %class.String, %class.String* %8, i64 0, i32 0, i32 0, !dbg !6248
  %29 = load i8*, i8** %28, align 8, !dbg !6248, !tbaa !5661
  call void @llvm.dbg.value(metadata %class.String* %8, metadata !6249, metadata !DIExpression()), !dbg !6252
  %30 = load i32, i32* %11, align 8, !dbg !6254, !tbaa !5666
  %31 = sext i32 %30 to i64, !dbg !6255
  %32 = getelementptr inbounds i8, i8* %29, i64 %31, !dbg !6255
  %33 = getelementptr inbounds [1 x i32], [1 x i32]* %5, i64 0, i64 0, !dbg !6256
  call void @llvm.dbg.value(metadata i64* %6, metadata !6206, metadata !DIExpression(DW_OP_deref)), !dbg !6236
  %34 = invoke i8* @_ZN6IntArg5parseEPKcS1_biPji(%class.IntArg* nonnull %25, i8* %29, i8* %32, i1 zeroext false, i32 4, i32* nonnull %33, i32 1)
          to label %35 unwind label %57, !dbg !6257

35:                                               ; preds = %23
  call void @llvm.dbg.value(metadata %class.String* %8, metadata !6249, metadata !DIExpression()), !dbg !6258
  %36 = load i8*, i8** %28, align 8, !dbg !6260, !tbaa !5661
  %37 = load i32, i32* %11, align 8, !dbg !6261, !tbaa !5666
  %38 = sext i32 %37 to i64, !dbg !6262
  %39 = getelementptr inbounds i8, i8* %36, i64 %38, !dbg !6262
  %40 = icmp eq i8* %34, %39, !dbg !6263
  %41 = getelementptr inbounds %class.IntArg, %class.IntArg* %25, i64 0, i32 1, !dbg !6240
  br i1 %40, label %43, label %42, !dbg !6264

42:                                               ; preds = %35
  store i32 22, i32* %41, align 4, !dbg !6265, !tbaa !6266
  br label %45, !dbg !6268

43:                                               ; preds = %35
  %44 = load i32, i32* %41, align 4, !dbg !6270, !tbaa !6266
  switch i32 %44, label %45 [
    i32 0, label %47
    i32 34, label %47
  ], !dbg !6268

45:                                               ; preds = %43, %42
  invoke void (%class.ArgContext*, i8*, ...) @_ZNK10ArgContext5errorEPKcz(%class.ArgContext* nonnull %26, i8* getelementptr inbounds ([15 x i8], [15 x i8]* @.str.23, i64 0, i64 0))
          to label %46 unwind label %57, !dbg !6271

46:                                               ; preds = %45
  call void @llvm.lifetime.end.p0i8(i64 4, i8* nonnull %27) #13, !dbg !6273
  br label %52, !dbg !6274

47:                                               ; preds = %43, %43
  call void @llvm.dbg.value(metadata i32* %33, metadata !6275, metadata !DIExpression()), !dbg !6284
  call void @llvm.dbg.value(metadata i32* %33, metadata !6286, metadata !DIExpression()), !dbg !6295
  %48 = load i32, i32* %33, align 4, !dbg !6297, !tbaa !4396
  call void @llvm.lifetime.end.p0i8(i64 4, i8* nonnull %27) #13, !dbg !6273
  switch i32 %44, label %52 [
    i32 34, label %49
    i32 0, label %51
  ], !dbg !6298

49:                                               ; preds = %47
  %50 = zext i32 %48 to i64, !dbg !6299
  call void @llvm.dbg.value(metadata i64* %6, metadata !6206, metadata !DIExpression(DW_OP_deref)), !dbg !6236
  invoke void @_ZN6IntArg11range_errorERK10ArgContextbx(%class.IntArg* nonnull %25, %class.ArgContext* nonnull dereferenceable(32) %26, i1 zeroext false, i64 %50)
          to label %52 unwind label %57, !dbg !6302

51:                                               ; preds = %47
  store i32 %48, i32* %21, align 4, !dbg !6303, !tbaa !4396
  br label %52, !dbg !6305

52:                                               ; preds = %49, %46, %47, %51
  %53 = phi i1 [ true, %51 ], [ false, %47 ], [ false, %46 ], [ false, %49 ], !dbg !6306
  call void @llvm.lifetime.end.p0i8(i64 8, i8* nonnull %24), !dbg !6307
  br label %54, !dbg !6307

54:                                               ; preds = %52, %20
  %55 = phi i1 [ false, %20 ], [ %53, %52 ], !dbg !6233
  %56 = load %"struct.Args::Slot"*, %"struct.Args::Slot"** %7, align 8, !dbg !6308, !tbaa !5399
  call void @llvm.dbg.value(metadata %"struct.Args::Slot"* %56, metadata !6140, metadata !DIExpression()), !dbg !6211
  invoke void @_ZN4Args9postparseEbPNS_4SlotE(%class.Args* nonnull %0, i1 zeroext %55, %"struct.Args::Slot"* %56)
          to label %77 unwind label %57, !dbg !6309

57:                                               ; preds = %49, %45, %23, %17, %54
  %58 = landingpad { i8*, i32 }
          cleanup, !dbg !6310
  call void @llvm.dbg.value(metadata %class.String* %8, metadata !5696, metadata !DIExpression()) #13, !dbg !6311
  call void @llvm.dbg.value(metadata %class.String* %8, metadata !5701, metadata !DIExpression()) #13, !dbg !6313
  %59 = getelementptr inbounds %class.String, %class.String* %8, i64 0, i32 0, i32 2, !dbg !6315
  %60 = load %"struct.String::memo_t"*, %"struct.String::memo_t"** %59, align 8, !dbg !6315, !tbaa !5670
  %61 = icmp eq %"struct.String::memo_t"* %60, null, !dbg !6316
  br i1 %61, label %76, label %62, !dbg !6317

62:                                               ; preds = %57
  %63 = getelementptr inbounds %"struct.String::memo_t", %"struct.String::memo_t"* %60, i64 0, i32 0, !dbg !6318
  %64 = load volatile i32, i32* %63, align 4, !dbg !6318, !tbaa !5713
  %65 = icmp eq i32 %64, 0, !dbg !6318
  br i1 %65, label %66, label %67, !dbg !6318

66:                                               ; preds = %62
  call void @__assert_fail(i8* getelementptr inbounds ([18 x i8], [18 x i8]* @.str.20, i64 0, i64 0), i8* getelementptr inbounds ([29 x i8], [29 x i8]* @.str.21, i64 0, i64 0), i32 273, i8* getelementptr inbounds ([27 x i8], [27 x i8]* @__PRETTY_FUNCTION__._ZNK6String5derefEv, i64 0, i64 0)) #15, !dbg !6318
  unreachable, !dbg !6318

67:                                               ; preds = %62
  call void @llvm.dbg.value(metadata i32* %63, metadata !5715, metadata !DIExpression()) #13, !dbg !6319
  %68 = load volatile i32, i32* %63, align 4, !dbg !6321, !tbaa !4396
  %69 = add i32 %68, -1, !dbg !6321
  store volatile i32 %69, i32* %63, align 4, !dbg !6321, !tbaa !4396
  %70 = icmp eq i32 %69, 0, !dbg !6322
  br i1 %70, label %71, label %72, !dbg !6323

71:                                               ; preds = %67
  invoke void @_ZN6String11delete_memoEPNS_6memo_tE(%"struct.String::memo_t"* nonnull %60)
          to label %72 unwind label %73, !dbg !6324

72:                                               ; preds = %71, %67
  store %"struct.String::memo_t"* null, %"struct.String::memo_t"** %59, align 8, !dbg !6325, !tbaa !5670
  br label %76, !dbg !6326

73:                                               ; preds = %71
  %74 = landingpad { i8*, i32 }
          catch i8* null, !dbg !6327
  %75 = extractvalue { i8*, i32 } %74, 0, !dbg !6327
  call void @__clang_call_terminate(i8* %75) #15, !dbg !6327
  unreachable, !dbg !6327

76:                                               ; preds = %57, %72
  call void @llvm.lifetime.end.p0i8(i64 24, i8* nonnull %10) #13, !dbg !6213
  call void @llvm.lifetime.end.p0i8(i64 8, i8* nonnull %9) #13, !dbg !6328
  resume { i8*, i32 } %58, !dbg !6328

77:                                               ; preds = %54, %4
  call void @llvm.dbg.value(metadata %class.String* %8, metadata !5696, metadata !DIExpression()) #13, !dbg !6329
  call void @llvm.dbg.value(metadata %class.String* %8, metadata !5701, metadata !DIExpression()) #13, !dbg !6331
  %78 = getelementptr inbounds %class.String, %class.String* %8, i64 0, i32 0, i32 2, !dbg !6333
  %79 = load %"struct.String::memo_t"*, %"struct.String::memo_t"** %78, align 8, !dbg !6333, !tbaa !5670
  %80 = icmp eq %"struct.String::memo_t"* %79, null, !dbg !6334
  br i1 %80, label %95, label %81, !dbg !6335

81:                                               ; preds = %77
  %82 = getelementptr inbounds %"struct.String::memo_t", %"struct.String::memo_t"* %79, i64 0, i32 0, !dbg !6336
  %83 = load volatile i32, i32* %82, align 4, !dbg !6336, !tbaa !5713
  %84 = icmp eq i32 %83, 0, !dbg !6336
  br i1 %84, label %85, label %86, !dbg !6336

85:                                               ; preds = %81
  call void @__assert_fail(i8* getelementptr inbounds ([18 x i8], [18 x i8]* @.str.20, i64 0, i64 0), i8* getelementptr inbounds ([29 x i8], [29 x i8]* @.str.21, i64 0, i64 0), i32 273, i8* getelementptr inbounds ([27 x i8], [27 x i8]* @__PRETTY_FUNCTION__._ZNK6String5derefEv, i64 0, i64 0)) #15, !dbg !6336
  unreachable, !dbg !6336

86:                                               ; preds = %81
  call void @llvm.dbg.value(metadata i32* %82, metadata !5715, metadata !DIExpression()) #13, !dbg !6337
  %87 = load volatile i32, i32* %82, align 4, !dbg !6339, !tbaa !4396
  %88 = add i32 %87, -1, !dbg !6339
  store volatile i32 %88, i32* %82, align 4, !dbg !6339, !tbaa !4396
  %89 = icmp eq i32 %88, 0, !dbg !6340
  br i1 %89, label %90, label %91, !dbg !6341

90:                                               ; preds = %86
  invoke void @_ZN6String11delete_memoEPNS_6memo_tE(%"struct.String::memo_t"* nonnull %79)
          to label %91 unwind label %92, !dbg !6342

91:                                               ; preds = %90, %86
  store %"struct.String::memo_t"* null, %"struct.String::memo_t"** %78, align 8, !dbg !6343, !tbaa !5670
  br label %95, !dbg !6344

92:                                               ; preds = %90
  %93 = landingpad { i8*, i32 }
          catch i8* null, !dbg !6345
  %94 = extractvalue { i8*, i32 } %93, 0, !dbg !6345
  call void @__clang_call_terminate(i8* %94) #15, !dbg !6345
  unreachable, !dbg !6345

95:                                               ; preds = %77, %91
  call void @llvm.lifetime.end.p0i8(i64 24, i8* nonnull %10) #13, !dbg !6213
  call void @llvm.lifetime.end.p0i8(i64 8, i8* nonnull %9) #13, !dbg !6328
  ret void, !dbg !6328
}

declare void @_ZN6IntArg11range_errorERK10ArgContextbx(%class.IntArg*, %class.ArgContext* dereferenceable(32), i1 zeroext, i64) local_unnamed_addr #2

declare i8* @_ZN6IntArg5parseEPKcS1_biPji(%class.IntArg*, i8*, i8*, i1 zeroext, i32, i32*, i32) local_unnamed_addr #2

declare void @_ZNK10ArgContext5errorEPKcz(%class.ArgContext*, i8*, ...) local_unnamed_addr #2

; Function Attrs: noinline optnone sspstrong uwtable
define linkonce_odr dso_local void @_Z14args_base_readI10SecondsArgjEvP4ArgsPKciT_RT0_(%class.Args* %0, i8* %1, i32 %2, i64 %3, i32* dereferenceable(4) %4) local_unnamed_addr #5 comdat !dbg !6346 {
  %6 = alloca %class.SecondsArg, align 4
  %7 = alloca %class.Args*, align 8
  %8 = alloca i8*, align 8
  %9 = alloca i32, align 4
  %10 = alloca i32*, align 8
  %11 = alloca %class.SecondsArg, align 4
  %12 = bitcast %class.SecondsArg* %6 to i64*
  store i64 %3, i64* %12, align 4
  store %class.Args* %0, %class.Args** %7, align 8, !tbaa !5399
  call void @llvm.dbg.declare(metadata %class.Args** %7, metadata !6348, metadata !DIExpression()), !dbg !6353
  store i8* %1, i8** %8, align 8, !tbaa !5399
  call void @llvm.dbg.declare(metadata i8** %8, metadata !6349, metadata !DIExpression()), !dbg !6354
  store i32 %2, i32* %9, align 4, !tbaa !4396
  call void @llvm.dbg.declare(metadata i32* %9, metadata !6350, metadata !DIExpression()), !dbg !6355
  call void @llvm.dbg.declare(metadata %class.SecondsArg* %6, metadata !6351, metadata !DIExpression()), !dbg !6356
  store i32* %4, i32** %10, align 8, !tbaa !5399
  call void @llvm.dbg.declare(metadata i32** %10, metadata !6352, metadata !DIExpression()), !dbg !6357
  %13 = load %class.Args*, %class.Args** %7, align 8, !dbg !6358, !tbaa !5399
  %14 = load i8*, i8** %8, align 8, !dbg !6359, !tbaa !5399
  %15 = load i32, i32* %9, align 4, !dbg !6360, !tbaa !4396
  %16 = bitcast %class.SecondsArg* %11 to i8*, !dbg !6361
  %17 = bitcast %class.SecondsArg* %6 to i8*, !dbg !6361
  call void @llvm.memcpy.p0i8.p0i8.i64(i8* align 4 %16, i8* align 4 %17, i64 8, i1 false), !dbg !6361
  %18 = load i32*, i32** %10, align 8, !dbg !6362, !tbaa !5399
  %19 = bitcast %class.SecondsArg* %11 to i64*, !dbg !6363
  %20 = load i64, i64* %19, align 4, !dbg !6363
  call void @_ZN4Args9base_readI10SecondsArgjEEvPKciT_RT0_(%class.Args* %13, i8* %14, i32 %15, i64 %20, i32* dereferenceable(4) %18), !dbg !6363
  ret void, !dbg !6364
}

; Function Attrs: sspstrong uwtable
define linkonce_odr dso_local void @_ZN4Args9base_readI10SecondsArgjEEvPKciT_RT0_(%class.Args* %0, i8* %1, i32 %2, i64 %3, i32* dereferenceable(4) %4) local_unnamed_addr #0 comdat align 2 personality i8* bitcast (i32 (...)* @__gxx_personality_v0 to i8*) !dbg !6365 {
  %6 = alloca i64, align 8
  %7 = alloca %"struct.Args::Slot"*, align 8
  %8 = alloca %class.String, align 8
  call void @llvm.dbg.value(metadata i64 %3, metadata !6373, metadata !DIExpression()), !dbg !6380
  call void @llvm.dbg.value(metadata %class.Args* %0, metadata !6370, metadata !DIExpression()), !dbg !6380
  call void @llvm.dbg.value(metadata i8* %1, metadata !6371, metadata !DIExpression()), !dbg !6380
  call void @llvm.dbg.value(metadata i32 %2, metadata !6372, metadata !DIExpression()), !dbg !6380
  call void @llvm.dbg.value(metadata i32* %4, metadata !6374, metadata !DIExpression()), !dbg !6380
  %9 = bitcast %"struct.Args::Slot"** %7 to i8*, !dbg !6381
  call void @llvm.lifetime.start.p0i8(i64 8, i8* nonnull %9) #13, !dbg !6381
  %10 = bitcast %class.String* %8 to i8*, !dbg !6382
  call void @llvm.lifetime.start.p0i8(i64 24, i8* nonnull %10) #13, !dbg !6382
  call void @llvm.dbg.declare(metadata %class.String* %8, metadata !6376, metadata !DIExpression()), !dbg !6383
  call void @llvm.dbg.value(metadata %"struct.Args::Slot"** %7, metadata !6375, metadata !DIExpression(DW_OP_deref)), !dbg !6380
  call void @_ZN4Args4findEPKciRPNS_4SlotE(%class.String* nonnull sret %8, %class.Args* %0, i8* %1, i32 %2, %"struct.Args::Slot"** nonnull dereferenceable(8) %7), !dbg !6384
  call void @llvm.dbg.value(metadata %class.String* %8, metadata !6034, metadata !DIExpression()), !dbg !6385
  %11 = getelementptr inbounds %class.String, %class.String* %8, i64 0, i32 0, i32 1, !dbg !6387
  %12 = load i32, i32* %11, align 8, !dbg !6387, !tbaa !5666
  %13 = icmp eq i32 %12, 0, !dbg !6388
  %14 = select i1 %13, { i64, i64 } zeroinitializer, { i64, i64 } { i64 ptrtoint (i32 (%class.String*)* @_ZNK6String6lengthEv to i64), i64 0 }, !dbg !6389
  %15 = extractvalue { i64, i64 } %14, 0, !dbg !6383
  %16 = icmp eq i64 %15, 0, !dbg !6383
  br i1 %16, label %52, label %17, !dbg !6382

17:                                               ; preds = %5
  call void @llvm.dbg.value(metadata i32* %4, metadata !6390, metadata !DIExpression()), !dbg !6397
  call void @llvm.dbg.value(metadata %class.Args* %0, metadata !6396, metadata !DIExpression()), !dbg !6397
  call void @llvm.dbg.value(metadata %class.Args* %0, metadata !6051, metadata !DIExpression()), !dbg !6399
  call void @llvm.dbg.value(metadata i32* %4, metadata !6057, metadata !DIExpression()), !dbg !6399
  %18 = bitcast i32* %4 to i8*, !dbg !6401
  %19 = invoke i8* @_ZN4Args11simple_slotEPvm(%class.Args* nonnull %0, i8* nonnull %18, i64 4)
          to label %20 unwind label %32, !dbg !6402

20:                                               ; preds = %17
  call void @llvm.dbg.value(metadata i8* %19, metadata !6378, metadata !DIExpression()), !dbg !6403
  %21 = icmp eq i8* %19, null, !dbg !6404
  br i1 %21, label %29, label %22, !dbg !6405

22:                                               ; preds = %20
  %23 = bitcast i8* %19 to i32*, !dbg !6406
  call void @llvm.dbg.value(metadata i32* %23, metadata !6378, metadata !DIExpression()), !dbg !6403
  %24 = bitcast i64* %6 to i8*
  call void @llvm.lifetime.start.p0i8(i64 8, i8* nonnull %24)
  %25 = bitcast i64* %6 to %class.SecondsArg*
  store i64 %3, i64* %6, align 8
  call void @llvm.dbg.declare(metadata %class.SecondsArg* %25, metadata !6407, metadata !DIExpression()), !dbg !6416
  call void @llvm.dbg.value(metadata %class.String* %8, metadata !6413, metadata !DIExpression()), !dbg !6418
  call void @llvm.dbg.value(metadata i32* %23, metadata !6414, metadata !DIExpression()), !dbg !6418
  call void @llvm.dbg.value(metadata %class.Args* %0, metadata !6415, metadata !DIExpression()), !dbg !6418
  %26 = bitcast %class.Args* %0 to %class.ArgContext*, !dbg !6419
  %27 = invoke zeroext i1 @_ZN10SecondsArg5parseERK6StringRjRK10ArgContext(%class.SecondsArg* nonnull %25, %class.String* nonnull dereferenceable(24) %8, i32* nonnull dereferenceable(4) %23, %class.ArgContext* nonnull dereferenceable(32) %26)
          to label %28 unwind label %32, !dbg !6420

28:                                               ; preds = %22
  call void @llvm.lifetime.end.p0i8(i64 8, i8* nonnull %24), !dbg !6421
  br label %29, !dbg !6421

29:                                               ; preds = %28, %20
  %30 = phi i1 [ false, %20 ], [ %27, %28 ], !dbg !6403
  %31 = load %"struct.Args::Slot"*, %"struct.Args::Slot"** %7, align 8, !dbg !6422, !tbaa !5399
  call void @llvm.dbg.value(metadata %"struct.Args::Slot"* %31, metadata !6375, metadata !DIExpression()), !dbg !6380
  invoke void @_ZN4Args9postparseEbPNS_4SlotE(%class.Args* nonnull %0, i1 zeroext %30, %"struct.Args::Slot"* %31)
          to label %52 unwind label %32, !dbg !6423

32:                                               ; preds = %22, %17, %29
  %33 = landingpad { i8*, i32 }
          cleanup, !dbg !6424
  call void @llvm.dbg.value(metadata %class.String* %8, metadata !5696, metadata !DIExpression()) #13, !dbg !6425
  call void @llvm.dbg.value(metadata %class.String* %8, metadata !5701, metadata !DIExpression()) #13, !dbg !6427
  %34 = getelementptr inbounds %class.String, %class.String* %8, i64 0, i32 0, i32 2, !dbg !6429
  %35 = load %"struct.String::memo_t"*, %"struct.String::memo_t"** %34, align 8, !dbg !6429, !tbaa !5670
  %36 = icmp eq %"struct.String::memo_t"* %35, null, !dbg !6430
  br i1 %36, label %51, label %37, !dbg !6431

37:                                               ; preds = %32
  %38 = getelementptr inbounds %"struct.String::memo_t", %"struct.String::memo_t"* %35, i64 0, i32 0, !dbg !6432
  %39 = load volatile i32, i32* %38, align 4, !dbg !6432, !tbaa !5713
  %40 = icmp eq i32 %39, 0, !dbg !6432
  br i1 %40, label %41, label %42, !dbg !6432

41:                                               ; preds = %37
  call void @__assert_fail(i8* getelementptr inbounds ([18 x i8], [18 x i8]* @.str.20, i64 0, i64 0), i8* getelementptr inbounds ([29 x i8], [29 x i8]* @.str.21, i64 0, i64 0), i32 273, i8* getelementptr inbounds ([27 x i8], [27 x i8]* @__PRETTY_FUNCTION__._ZNK6String5derefEv, i64 0, i64 0)) #15, !dbg !6432
  unreachable, !dbg !6432

42:                                               ; preds = %37
  call void @llvm.dbg.value(metadata i32* %38, metadata !5715, metadata !DIExpression()) #13, !dbg !6433
  %43 = load volatile i32, i32* %38, align 4, !dbg !6435, !tbaa !4396
  %44 = add i32 %43, -1, !dbg !6435
  store volatile i32 %44, i32* %38, align 4, !dbg !6435, !tbaa !4396
  %45 = icmp eq i32 %44, 0, !dbg !6436
  br i1 %45, label %46, label %47, !dbg !6437

46:                                               ; preds = %42
  invoke void @_ZN6String11delete_memoEPNS_6memo_tE(%"struct.String::memo_t"* nonnull %35)
          to label %47 unwind label %48, !dbg !6438

47:                                               ; preds = %46, %42
  store %"struct.String::memo_t"* null, %"struct.String::memo_t"** %34, align 8, !dbg !6439, !tbaa !5670
  br label %51, !dbg !6440

48:                                               ; preds = %46
  %49 = landingpad { i8*, i32 }
          catch i8* null, !dbg !6441
  %50 = extractvalue { i8*, i32 } %49, 0, !dbg !6441
  call void @__clang_call_terminate(i8* %50) #15, !dbg !6441
  unreachable, !dbg !6441

51:                                               ; preds = %32, %47
  call void @llvm.lifetime.end.p0i8(i64 24, i8* nonnull %10) #13, !dbg !6382
  call void @llvm.lifetime.end.p0i8(i64 8, i8* nonnull %9) #13, !dbg !6442
  resume { i8*, i32 } %33, !dbg !6442

52:                                               ; preds = %29, %5
  call void @llvm.dbg.value(metadata %class.String* %8, metadata !5696, metadata !DIExpression()) #13, !dbg !6443
  call void @llvm.dbg.value(metadata %class.String* %8, metadata !5701, metadata !DIExpression()) #13, !dbg !6445
  %53 = getelementptr inbounds %class.String, %class.String* %8, i64 0, i32 0, i32 2, !dbg !6447
  %54 = load %"struct.String::memo_t"*, %"struct.String::memo_t"** %53, align 8, !dbg !6447, !tbaa !5670
  %55 = icmp eq %"struct.String::memo_t"* %54, null, !dbg !6448
  br i1 %55, label %70, label %56, !dbg !6449

56:                                               ; preds = %52
  %57 = getelementptr inbounds %"struct.String::memo_t", %"struct.String::memo_t"* %54, i64 0, i32 0, !dbg !6450
  %58 = load volatile i32, i32* %57, align 4, !dbg !6450, !tbaa !5713
  %59 = icmp eq i32 %58, 0, !dbg !6450
  br i1 %59, label %60, label %61, !dbg !6450

60:                                               ; preds = %56
  call void @__assert_fail(i8* getelementptr inbounds ([18 x i8], [18 x i8]* @.str.20, i64 0, i64 0), i8* getelementptr inbounds ([29 x i8], [29 x i8]* @.str.21, i64 0, i64 0), i32 273, i8* getelementptr inbounds ([27 x i8], [27 x i8]* @__PRETTY_FUNCTION__._ZNK6String5derefEv, i64 0, i64 0)) #15, !dbg !6450
  unreachable, !dbg !6450

61:                                               ; preds = %56
  call void @llvm.dbg.value(metadata i32* %57, metadata !5715, metadata !DIExpression()) #13, !dbg !6451
  %62 = load volatile i32, i32* %57, align 4, !dbg !6453, !tbaa !4396
  %63 = add i32 %62, -1, !dbg !6453
  store volatile i32 %63, i32* %57, align 4, !dbg !6453, !tbaa !4396
  %64 = icmp eq i32 %63, 0, !dbg !6454
  br i1 %64, label %65, label %66, !dbg !6455

65:                                               ; preds = %61
  invoke void @_ZN6String11delete_memoEPNS_6memo_tE(%"struct.String::memo_t"* nonnull %54)
          to label %66 unwind label %67, !dbg !6456

66:                                               ; preds = %65, %61
  store %"struct.String::memo_t"* null, %"struct.String::memo_t"** %53, align 8, !dbg !6457, !tbaa !5670
  br label %70, !dbg !6458

67:                                               ; preds = %65
  %68 = landingpad { i8*, i32 }
          catch i8* null, !dbg !6459
  %69 = extractvalue { i8*, i32 } %68, 0, !dbg !6459
  call void @__clang_call_terminate(i8* %69) #15, !dbg !6459
  unreachable, !dbg !6459

70:                                               ; preds = %52, %66
  call void @llvm.lifetime.end.p0i8(i64 24, i8* nonnull %10) #13, !dbg !6382
  call void @llvm.lifetime.end.p0i8(i64 8, i8* nonnull %9) #13, !dbg !6442
  ret void, !dbg !6442
}

declare zeroext i1 @_ZN10SecondsArg5parseERK6StringRjRK10ArgContext(%class.SecondsArg*, %class.String* dereferenceable(24), i32* dereferenceable(4), %class.ArgContext* dereferenceable(32)) local_unnamed_addr #2

; Function Attrs: nounwind readnone speculatable willreturn
declare i32 @llvm.ctlz.i32(i32, i1 immarg) #1

declare !dbg !3610 i32 @_Z13click_jiffiesv() local_unnamed_addr #2

; Function Attrs: nounwind readnone speculatable willreturn
declare void @llvm.dbg.value(metadata, metadata, metadata) #1

; Function Attrs: nounwind readnone speculatable willreturn
declare i32 @llvm.usub.sat.i32(i32, i32) #1

; Function Attrs: nounwind readnone speculatable willreturn
declare i32 @llvm.uadd.sat.i32(i32, i32) #1

attributes #0 = { sspstrong uwtable "correctly-rounded-divide-sqrt-fp-math"="false" "disable-tail-calls"="false" "frame-pointer"="none" "less-precise-fpmad"="false" "min-legal-vector-width"="0" "no-infs-fp-math"="false" "no-jump-tables"="false" "no-nans-fp-math"="false" "no-signed-zeros-fp-math"="false" "no-trapping-math"="false" "stack-protector-buffer-size"="8" "target-cpu"="x86-64" "target-features"="+cx8,+fxsr,+mmx,+sse,+sse2,+x87" "unsafe-fp-math"="false" "use-soft-float"="false" }
attributes #1 = { nounwind readnone speculatable willreturn }
attributes #2 = { "correctly-rounded-divide-sqrt-fp-math"="false" "disable-tail-calls"="false" "frame-pointer"="none" "less-precise-fpmad"="false" "no-infs-fp-math"="false" "no-nans-fp-math"="false" "no-signed-zeros-fp-math"="false" "no-trapping-math"="false" "stack-protector-buffer-size"="8" "target-cpu"="x86-64" "target-features"="+cx8,+fxsr,+mmx,+sse,+sse2,+x87" "unsafe-fp-math"="false" "use-soft-float"="false" }
attributes #3 = { nounwind "correctly-rounded-divide-sqrt-fp-math"="false" "disable-tail-calls"="false" "frame-pointer"="none" "less-precise-fpmad"="false" "no-infs-fp-math"="false" "no-nans-fp-math"="false" "no-signed-zeros-fp-math"="false" "no-trapping-math"="false" "stack-protector-buffer-size"="8" "target-cpu"="x86-64" "target-features"="+cx8,+fxsr,+mmx,+sse,+sse2,+x87" "unsafe-fp-math"="false" "use-soft-float"="false" }
attributes #4 = { argmemonly nounwind willreturn }
attributes #5 = { noinline optnone sspstrong uwtable "correctly-rounded-divide-sqrt-fp-math"="false" "disable-tail-calls"="false" "frame-pointer"="none" "less-precise-fpmad"="false" "min-legal-vector-width"="0" "no-infs-fp-math"="false" "no-jump-tables"="false" "no-nans-fp-math"="false" "no-signed-zeros-fp-math"="false" "no-trapping-math"="false" "stack-protector-buffer-size"="8" "target-cpu"="x86-64" "target-features"="+cx8,+fxsr,+mmx,+sse,+sse2,+x87" "unsafe-fp-math"="false" "use-soft-float"="false" }
attributes #6 = { noinline nounwind optnone sspstrong uwtable "correctly-rounded-divide-sqrt-fp-math"="false" "disable-tail-calls"="false" "frame-pointer"="none" "less-precise-fpmad"="false" "min-legal-vector-width"="0" "no-infs-fp-math"="false" "no-jump-tables"="false" "no-nans-fp-math"="false" "no-signed-zeros-fp-math"="false" "no-trapping-math"="false" "stack-protector-buffer-size"="8" "target-cpu"="x86-64" "target-features"="+cx8,+fxsr,+mmx,+sse,+sse2,+x87" "unsafe-fp-math"="false" "use-soft-float"="false" }
attributes #7 = { inlinehint nounwind sspstrong uwtable "correctly-rounded-divide-sqrt-fp-math"="false" "disable-tail-calls"="false" "frame-pointer"="none" "less-precise-fpmad"="false" "min-legal-vector-width"="0" "no-infs-fp-math"="false" "no-jump-tables"="false" "no-nans-fp-math"="false" "no-signed-zeros-fp-math"="false" "no-trapping-math"="false" "stack-protector-buffer-size"="8" "target-cpu"="x86-64" "target-features"="+cx8,+fxsr,+mmx,+sse,+sse2,+x87" "unsafe-fp-math"="false" "use-soft-float"="false" }
attributes #8 = { nounwind sspstrong uwtable "correctly-rounded-divide-sqrt-fp-math"="false" "disable-tail-calls"="false" "frame-pointer"="none" "less-precise-fpmad"="false" "min-legal-vector-width"="0" "no-infs-fp-math"="false" "no-jump-tables"="false" "no-nans-fp-math"="false" "no-signed-zeros-fp-math"="false" "no-trapping-math"="false" "stack-protector-buffer-size"="8" "target-cpu"="x86-64" "target-features"="+cx8,+fxsr,+mmx,+sse,+sse2,+x87" "unsafe-fp-math"="false" "use-soft-float"="false" }
attributes #9 = { noinline noreturn nounwind }
attributes #10 = { nobuiltin nounwind "correctly-rounded-divide-sqrt-fp-math"="false" "disable-tail-calls"="false" "frame-pointer"="none" "less-precise-fpmad"="false" "no-infs-fp-math"="false" "no-nans-fp-math"="false" "no-signed-zeros-fp-math"="false" "no-trapping-math"="false" "stack-protector-buffer-size"="8" "target-cpu"="x86-64" "target-features"="+cx8,+fxsr,+mmx,+sse,+sse2,+x87" "unsafe-fp-math"="false" "use-soft-float"="false" }
attributes #11 = { noreturn nounwind "correctly-rounded-divide-sqrt-fp-math"="false" "disable-tail-calls"="false" "frame-pointer"="none" "less-precise-fpmad"="false" "no-infs-fp-math"="false" "no-nans-fp-math"="false" "no-signed-zeros-fp-math"="false" "no-trapping-math"="false" "stack-protector-buffer-size"="8" "target-cpu"="x86-64" "target-features"="+cx8,+fxsr,+mmx,+sse,+sse2,+x87" "unsafe-fp-math"="false" "use-soft-float"="false" }
attributes #12 = { inlinehint sspstrong uwtable "correctly-rounded-divide-sqrt-fp-math"="false" "disable-tail-calls"="false" "frame-pointer"="none" "less-precise-fpmad"="false" "min-legal-vector-width"="0" "no-infs-fp-math"="false" "no-jump-tables"="false" "no-nans-fp-math"="false" "no-signed-zeros-fp-math"="false" "no-trapping-math"="false" "stack-protector-buffer-size"="8" "target-cpu"="x86-64" "target-features"="+cx8,+fxsr,+mmx,+sse,+sse2,+x87" "unsafe-fp-math"="false" "use-soft-float"="false" }
attributes #13 = { nounwind }
attributes #14 = { nounwind readnone }
attributes #15 = { noreturn nounwind }
attributes #16 = { builtin nounwind }

!llvm.dbg.cu = !{!0}
!llvm.module.flags = !{!4243, !4244, !4245, !4246, !4247}
!llvm.ident = !{!4248}

!0 = distinct !DICompileUnit(language: DW_LANG_C_plus_plus_14, file: !1, producer: "clang version 10.0.0 ", isOptimized: true, runtimeVersion: 0, emissionKind: FullDebug, enums: !2, retainedTypes: !3232, imports: !3623, splitDebugInlining: false, nameTableKind: None)
!1 = !DIFile(filename: "../elements/standard/ratedunqueue.cc", directory: "/home/john/projects/click/ir-dir")
!2 = !{!3, !538, !2324, !2876, !2880, !2982, !2988, !2999, !3156, !3163, !3166, !3175, !3227, !3231}
!3 = !DICompositeType(tag: DW_TAG_enumeration_type, name: "warp_class_type", scope: !5, file: !4, line: 571, baseType: !26, size: 32, elements: !533, identifier: "_ZTSN9Timestamp15warp_class_typeE")
!4 = !DIFile(filename: "../dummy_inc/click/timestamp.hh", directory: "/home/john/projects/click/ir-dir")
!5 = distinct !DICompositeType(tag: DW_TAG_class_type, name: "Timestamp", file: !4, line: 122, size: 64, flags: DIFlagTypePassByValue | DIFlagNonTrivial, elements: !6, identifier: "_ZTS9Timestamp")
!6 = !{!7, !16, !20, !27, !31, !35, !38, !42, !54, !65, !70, !79, !91, !95, !96, !99, !100, !101, !102, !105, !108, !109, !110, !111, !114, !115, !118, !121, !125, !126, !127, !130, !131, !132, !137, !141, !144, !147, !150, !153, !154, !155, !156, !157, !160, !161, !164, !165, !166, !167, !168, !169, !170, !173, !174, !175, !176, !177, !178, !179, !180, !181, !481, !482, !485, !486, !487, !488, !489, !490, !491, !494, !497, !501, !502, !505, !508, !509, !510, !511, !512, !513, !514, !517, !521, !524, !527, !530}
!7 = !DIDerivedType(tag: DW_TAG_member, name: "_t", scope: !5, file: !4, line: 672, baseType: !8, size: 64)
!8 = distinct !DICompositeType(tag: DW_TAG_union_type, name: "rep_t", scope: !5, file: !4, line: 539, size: 64, flags: DIFlagTypePassByValue, elements: !9, identifier: "_ZTSN9Timestamp5rep_tE")
!9 = !{!10}
!10 = !DIDerivedType(tag: DW_TAG_member, name: "x", scope: !8, file: !4, line: 541, baseType: !11, size: 64)
!11 = !DIDerivedType(tag: DW_TAG_typedef, name: "int64_t", file: !12, line: 27, baseType: !13)
!12 = !DIFile(filename: "/usr/include/bits/stdint-intn.h", directory: "")
!13 = !DIDerivedType(tag: DW_TAG_typedef, name: "__int64_t", file: !14, line: 44, baseType: !15)
!14 = !DIFile(filename: "/usr/include/bits/types.h", directory: "")
!15 = !DIBasicType(name: "long int", size: 64, encoding: DW_ATE_signed)
!16 = !DISubprogram(name: "Timestamp", scope: !5, file: !4, line: 174, type: !17, scopeLine: 174, flags: DIFlagPublic | DIFlagPrototyped, spFlags: DISPFlagOptimized)
!17 = !DISubroutineType(types: !18)
!18 = !{null, !19}
!19 = !DIDerivedType(tag: DW_TAG_pointer_type, baseType: !5, size: 64, flags: DIFlagArtificial | DIFlagObjectPointer)
!20 = !DISubprogram(name: "Timestamp", scope: !5, file: !4, line: 187, type: !21, scopeLine: 187, flags: DIFlagPublic | DIFlagExplicit | DIFlagPrototyped, spFlags: DISPFlagOptimized)
!21 = !DISubroutineType(types: !22)
!22 = !{null, !19, !15, !23}
!23 = !DIDerivedType(tag: DW_TAG_typedef, name: "uint32_t", file: !24, line: 26, baseType: !25)
!24 = !DIFile(filename: "/usr/include/bits/stdint-uintn.h", directory: "")
!25 = !DIDerivedType(tag: DW_TAG_typedef, name: "__uint32_t", file: !14, line: 42, baseType: !26)
!26 = !DIBasicType(name: "unsigned int", size: 32, encoding: DW_ATE_unsigned)
!27 = !DISubprogram(name: "Timestamp", scope: !5, file: !4, line: 191, type: !28, scopeLine: 191, flags: DIFlagPublic | DIFlagExplicit | DIFlagPrototyped, spFlags: DISPFlagOptimized)
!28 = !DISubroutineType(types: !29)
!29 = !{null, !19, !30, !23}
!30 = !DIBasicType(name: "int", size: 32, encoding: DW_ATE_signed)
!31 = !DISubprogram(name: "Timestamp", scope: !5, file: !4, line: 195, type: !32, scopeLine: 195, flags: DIFlagPublic | DIFlagExplicit | DIFlagPrototyped, spFlags: DISPFlagOptimized)
!32 = !DISubroutineType(types: !33)
!33 = !{null, !19, !34, !23}
!34 = !DIBasicType(name: "long unsigned int", size: 64, encoding: DW_ATE_unsigned)
!35 = !DISubprogram(name: "Timestamp", scope: !5, file: !4, line: 199, type: !36, scopeLine: 199, flags: DIFlagPublic | DIFlagExplicit | DIFlagPrototyped, spFlags: DISPFlagOptimized)
!36 = !DISubroutineType(types: !37)
!37 = !{null, !19, !26, !23}
!38 = !DISubprogram(name: "Timestamp", scope: !5, file: !4, line: 203, type: !39, scopeLine: 203, flags: DIFlagPublic | DIFlagExplicit | DIFlagPrototyped, spFlags: DISPFlagOptimized)
!39 = !DISubroutineType(types: !40)
!40 = !{null, !19, !41}
!41 = !DIBasicType(name: "double", size: 64, encoding: DW_ATE_float)
!42 = !DISubprogram(name: "Timestamp", scope: !5, file: !4, line: 206, type: !43, scopeLine: 206, flags: DIFlagPublic | DIFlagPrototyped, spFlags: DISPFlagOptimized)
!43 = !DISubroutineType(types: !44)
!44 = !{null, !19, !45}
!45 = !DIDerivedType(tag: DW_TAG_reference_type, baseType: !46, size: 64)
!46 = !DIDerivedType(tag: DW_TAG_const_type, baseType: !47)
!47 = distinct !DICompositeType(tag: DW_TAG_structure_type, name: "timeval", file: !48, line: 8, size: 128, flags: DIFlagTypePassByValue, elements: !49, identifier: "_ZTS7timeval")
!48 = !DIFile(filename: "/usr/include/bits/types/struct_timeval.h", directory: "")
!49 = !{!50, !52}
!50 = !DIDerivedType(tag: DW_TAG_member, name: "tv_sec", scope: !47, file: !48, line: 10, baseType: !51, size: 64)
!51 = !DIDerivedType(tag: DW_TAG_typedef, name: "__time_t", file: !14, line: 160, baseType: !15)
!52 = !DIDerivedType(tag: DW_TAG_member, name: "tv_usec", scope: !47, file: !48, line: 11, baseType: !53, size: 64, offset: 64)
!53 = !DIDerivedType(tag: DW_TAG_typedef, name: "__suseconds_t", file: !14, line: 162, baseType: !15)
!54 = !DISubprogram(name: "Timestamp", scope: !5, file: !4, line: 208, type: !55, scopeLine: 208, flags: DIFlagPublic | DIFlagPrototyped, spFlags: DISPFlagOptimized)
!55 = !DISubroutineType(types: !56)
!56 = !{null, !19, !57}
!57 = !DIDerivedType(tag: DW_TAG_reference_type, baseType: !58, size: 64)
!58 = !DIDerivedType(tag: DW_TAG_const_type, baseType: !59)
!59 = distinct !DICompositeType(tag: DW_TAG_structure_type, name: "timespec", file: !60, line: 10, size: 128, flags: DIFlagTypePassByValue, elements: !61, identifier: "_ZTS8timespec")
!60 = !DIFile(filename: "/usr/include/bits/types/struct_timespec.h", directory: "")
!61 = !{!62, !63}
!62 = !DIDerivedType(tag: DW_TAG_member, name: "tv_sec", scope: !59, file: !60, line: 12, baseType: !51, size: 64)
!63 = !DIDerivedType(tag: DW_TAG_member, name: "tv_nsec", scope: !59, file: !60, line: 16, baseType: !64, size: 64, offset: 64)
!64 = !DIDerivedType(tag: DW_TAG_typedef, name: "__syscall_slong_t", file: !14, line: 196, baseType: !15)
!65 = !DISubprogram(name: "Timestamp", scope: !5, file: !4, line: 212, type: !66, scopeLine: 212, flags: DIFlagPublic | DIFlagPrototyped, spFlags: DISPFlagOptimized)
!66 = !DISubroutineType(types: !67)
!67 = !{null, !19, !68}
!68 = !DIDerivedType(tag: DW_TAG_reference_type, baseType: !69, size: 64)
!69 = !DIDerivedType(tag: DW_TAG_const_type, baseType: !8)
!70 = !DISubprogram(name: "Timestamp", scope: !5, file: !4, line: 217, type: !71, scopeLine: 217, flags: DIFlagPublic | DIFlagPrototyped, spFlags: DISPFlagOptimized)
!71 = !DISubroutineType(types: !72)
!72 = !{null, !19, !73}
!73 = !DIDerivedType(tag: DW_TAG_reference_type, baseType: !74, size: 64)
!74 = !DIDerivedType(tag: DW_TAG_const_type, baseType: !75)
!75 = !DIDerivedType(tag: DW_TAG_typedef, name: "uninitialized_t", scope: !5, file: !4, line: 168, baseType: !76)
!76 = distinct !DICompositeType(tag: DW_TAG_structure_type, name: "uninitialized_type", file: !77, line: 317, size: 8, flags: DIFlagTypePassByValue, elements: !78, identifier: "_ZTS18uninitialized_type")
!77 = !DIFile(filename: "../dummy_inc/click/config.h", directory: "/home/john/projects/click/ir-dir")
!78 = !{}
!79 = !DISubprogram(name: "operator int (Timestamp::*)() const", linkageName: "_ZNK9TimestampcvMS_KFivEEv", scope: !5, file: !4, line: 222, type: !80, scopeLine: 222, flags: DIFlagPublic | DIFlagPrototyped, spFlags: DISPFlagOptimized)
!80 = !DISubroutineType(types: !81)
!81 = !{!82, !89}
!82 = !DIDerivedType(tag: DW_TAG_typedef, name: "unspecified_bool_type", scope: !5, file: !4, line: 221, baseType: !83)
!83 = !DIDerivedType(tag: DW_TAG_ptr_to_member_type, baseType: !84, size: 128, extraData: !5)
!84 = !DISubroutineType(types: !85)
!85 = !{!86, !89}
!86 = !DIDerivedType(tag: DW_TAG_typedef, name: "seconds_type", scope: !5, file: !4, line: 125, baseType: !87)
!87 = !DIDerivedType(tag: DW_TAG_typedef, name: "int32_t", file: !12, line: 26, baseType: !88)
!88 = !DIDerivedType(tag: DW_TAG_typedef, name: "__int32_t", file: !14, line: 41, baseType: !30)
!89 = !DIDerivedType(tag: DW_TAG_pointer_type, baseType: !90, size: 64, flags: DIFlagArtificial | DIFlagObjectPointer)
!90 = !DIDerivedType(tag: DW_TAG_const_type, baseType: !5)
!91 = !DISubprogram(name: "is_negative", linkageName: "_ZNK9Timestamp11is_negativeEv", scope: !5, file: !4, line: 225, type: !92, scopeLine: 225, flags: DIFlagPublic | DIFlagPrototyped, spFlags: DISPFlagOptimized)
!92 = !DISubroutineType(types: !93)
!93 = !{!94, !89}
!94 = !DIBasicType(name: "bool", size: 8, encoding: DW_ATE_boolean)
!95 = !DISubprogram(name: "sec", linkageName: "_ZNK9Timestamp3secEv", scope: !5, file: !4, line: 233, type: !84, scopeLine: 233, flags: DIFlagPublic | DIFlagPrototyped, spFlags: DISPFlagOptimized)
!96 = !DISubprogram(name: "subsec", linkageName: "_ZNK9Timestamp6subsecEv", scope: !5, file: !4, line: 234, type: !97, scopeLine: 234, flags: DIFlagPublic | DIFlagPrototyped, spFlags: DISPFlagOptimized)
!97 = !DISubroutineType(types: !98)
!98 = !{!23, !89}
!99 = !DISubprogram(name: "msec", linkageName: "_ZNK9Timestamp4msecEv", scope: !5, file: !4, line: 235, type: !97, scopeLine: 235, flags: DIFlagPublic | DIFlagPrototyped, spFlags: DISPFlagOptimized)
!100 = !DISubprogram(name: "usec", linkageName: "_ZNK9Timestamp4usecEv", scope: !5, file: !4, line: 236, type: !97, scopeLine: 236, flags: DIFlagPublic | DIFlagPrototyped, spFlags: DISPFlagOptimized)
!101 = !DISubprogram(name: "nsec", linkageName: "_ZNK9Timestamp4nsecEv", scope: !5, file: !4, line: 237, type: !97, scopeLine: 237, flags: DIFlagPublic | DIFlagPrototyped, spFlags: DISPFlagOptimized)
!102 = !DISubprogram(name: "set_sec", linkageName: "_ZN9Timestamp7set_secEi", scope: !5, file: !4, line: 239, type: !103, scopeLine: 239, flags: DIFlagPublic | DIFlagPrototyped, spFlags: DISPFlagOptimized)
!103 = !DISubroutineType(types: !104)
!104 = !{null, !19, !86}
!105 = !DISubprogram(name: "set_subsec", linkageName: "_ZN9Timestamp10set_subsecEj", scope: !5, file: !4, line: 240, type: !106, scopeLine: 240, flags: DIFlagPublic | DIFlagPrototyped, spFlags: DISPFlagOptimized)
!106 = !DISubroutineType(types: !107)
!107 = !{null, !19, !23}
!108 = !DISubprogram(name: "msec1", linkageName: "_ZNK9Timestamp5msec1Ev", scope: !5, file: !4, line: 242, type: !84, scopeLine: 242, flags: DIFlagPublic | DIFlagPrototyped, spFlags: DISPFlagOptimized)
!109 = !DISubprogram(name: "usec1", linkageName: "_ZNK9Timestamp5usec1Ev", scope: !5, file: !4, line: 243, type: !84, scopeLine: 243, flags: DIFlagPublic | DIFlagPrototyped, spFlags: DISPFlagOptimized)
!110 = !DISubprogram(name: "nsec1", linkageName: "_ZNK9Timestamp5nsec1Ev", scope: !5, file: !4, line: 244, type: !84, scopeLine: 244, flags: DIFlagPublic | DIFlagPrototyped, spFlags: DISPFlagOptimized)
!111 = !DISubprogram(name: "timeval", linkageName: "_ZNK9Timestamp7timevalEv", scope: !5, file: !4, line: 250, type: !112, scopeLine: 250, flags: DIFlagPublic | DIFlagPrototyped, spFlags: DISPFlagOptimized)
!112 = !DISubroutineType(types: !113)
!113 = !{!47, !89}
!114 = !DISubprogram(name: "timeval_ceil", linkageName: "_ZNK9Timestamp12timeval_ceilEv", scope: !5, file: !4, line: 251, type: !112, scopeLine: 251, flags: DIFlagPublic | DIFlagPrototyped, spFlags: DISPFlagOptimized)
!115 = !DISubprogram(name: "timespec", linkageName: "_ZNK9Timestamp8timespecEv", scope: !5, file: !4, line: 257, type: !116, scopeLine: 257, flags: DIFlagPublic | DIFlagPrototyped, spFlags: DISPFlagOptimized)
!116 = !DISubroutineType(types: !117)
!117 = !{!59, !89}
!118 = !DISubprogram(name: "doubleval", linkageName: "_ZNK9Timestamp9doublevalEv", scope: !5, file: !4, line: 262, type: !119, scopeLine: 262, flags: DIFlagPublic | DIFlagPrototyped, spFlags: DISPFlagOptimized)
!119 = !DISubroutineType(types: !120)
!120 = !{!41, !89}
!121 = !DISubprogram(name: "msecval", linkageName: "_ZNK9Timestamp7msecvalEv", scope: !5, file: !4, line: 265, type: !122, scopeLine: 265, flags: DIFlagPublic | DIFlagPrototyped, spFlags: DISPFlagOptimized)
!122 = !DISubroutineType(types: !123)
!123 = !{!124, !89}
!124 = !DIDerivedType(tag: DW_TAG_typedef, name: "value_type", scope: !5, file: !4, line: 128, baseType: !11)
!125 = !DISubprogram(name: "usecval", linkageName: "_ZNK9Timestamp7usecvalEv", scope: !5, file: !4, line: 273, type: !122, scopeLine: 273, flags: DIFlagPublic | DIFlagPrototyped, spFlags: DISPFlagOptimized)
!126 = !DISubprogram(name: "nsecval", linkageName: "_ZNK9Timestamp7nsecvalEv", scope: !5, file: !4, line: 281, type: !122, scopeLine: 281, flags: DIFlagPublic | DIFlagPrototyped, spFlags: DISPFlagOptimized)
!127 = !DISubprogram(name: "msec_ceil", linkageName: "_ZNK9Timestamp9msec_ceilEv", scope: !5, file: !4, line: 290, type: !128, scopeLine: 290, flags: DIFlagPublic | DIFlagPrototyped, spFlags: DISPFlagOptimized)
!128 = !DISubroutineType(types: !129)
!129 = !{!5, !89}
!130 = !DISubprogram(name: "usec_ceil", linkageName: "_ZNK9Timestamp9usec_ceilEv", scope: !5, file: !4, line: 295, type: !128, scopeLine: 295, flags: DIFlagPublic | DIFlagPrototyped, spFlags: DISPFlagOptimized)
!131 = !DISubprogram(name: "nsec_ceil", linkageName: "_ZNK9Timestamp9nsec_ceilEv", scope: !5, file: !4, line: 304, type: !128, scopeLine: 304, flags: DIFlagPublic | DIFlagPrototyped, spFlags: DISPFlagOptimized)
!132 = !DISubprogram(name: "make_jiffies", linkageName: "_ZN9Timestamp12make_jiffiesEj", scope: !5, file: !4, line: 310, type: !133, scopeLine: 310, flags: DIFlagPublic | DIFlagPrototyped | DIFlagStaticMember, spFlags: DISPFlagOptimized)
!133 = !DISubroutineType(types: !134)
!134 = !{!5, !135}
!135 = !DIDerivedType(tag: DW_TAG_typedef, name: "click_jiffies_t", file: !136, line: 477, baseType: !26)
!136 = !DIFile(filename: "../dummy_inc/click/glue.hh", directory: "/home/john/projects/click/ir-dir")
!137 = !DISubprogram(name: "make_jiffies", linkageName: "_ZN9Timestamp12make_jiffiesEi", scope: !5, file: !4, line: 312, type: !138, scopeLine: 312, flags: DIFlagPublic | DIFlagPrototyped | DIFlagStaticMember, spFlags: DISPFlagOptimized)
!138 = !DISubroutineType(types: !139)
!139 = !{!5, !140}
!140 = !DIDerivedType(tag: DW_TAG_typedef, name: "click_jiffies_difference_t", file: !136, line: 478, baseType: !30)
!141 = !DISubprogram(name: "jiffies", linkageName: "_ZNK9Timestamp7jiffiesEv", scope: !5, file: !4, line: 314, type: !142, scopeLine: 314, flags: DIFlagPublic | DIFlagPrototyped, spFlags: DISPFlagOptimized)
!142 = !DISubroutineType(types: !143)
!143 = !{!135, !89}
!144 = !DISubprogram(name: "make_sec", linkageName: "_ZN9Timestamp8make_secEi", scope: !5, file: !4, line: 318, type: !145, scopeLine: 318, flags: DIFlagPublic | DIFlagPrototyped | DIFlagStaticMember, spFlags: DISPFlagOptimized)
!145 = !DISubroutineType(types: !146)
!146 = !{!5, !86}
!147 = !DISubprogram(name: "make_msec", linkageName: "_ZN9Timestamp9make_msecEij", scope: !5, file: !4, line: 324, type: !148, scopeLine: 324, flags: DIFlagPublic | DIFlagPrototyped | DIFlagStaticMember, spFlags: DISPFlagOptimized)
!148 = !DISubroutineType(types: !149)
!149 = !{!5, !86, !23}
!150 = !DISubprogram(name: "make_msec", linkageName: "_ZN9Timestamp9make_msecEl", scope: !5, file: !4, line: 328, type: !151, scopeLine: 328, flags: DIFlagPublic | DIFlagPrototyped | DIFlagStaticMember, spFlags: DISPFlagOptimized)
!151 = !DISubroutineType(types: !152)
!152 = !{!5, !124}
!153 = !DISubprogram(name: "make_usec", linkageName: "_ZN9Timestamp9make_usecEij", scope: !5, file: !4, line: 341, type: !148, scopeLine: 341, flags: DIFlagPublic | DIFlagPrototyped | DIFlagStaticMember, spFlags: DISPFlagOptimized)
!154 = !DISubprogram(name: "make_usec", linkageName: "_ZN9Timestamp9make_usecEl", scope: !5, file: !4, line: 345, type: !151, scopeLine: 345, flags: DIFlagPublic | DIFlagPrototyped | DIFlagStaticMember, spFlags: DISPFlagOptimized)
!155 = !DISubprogram(name: "make_nsec", linkageName: "_ZN9Timestamp9make_nsecEij", scope: !5, file: !4, line: 358, type: !148, scopeLine: 358, flags: DIFlagPublic | DIFlagPrototyped | DIFlagStaticMember, spFlags: DISPFlagOptimized)
!156 = !DISubprogram(name: "make_nsec", linkageName: "_ZN9Timestamp9make_nsecEl", scope: !5, file: !4, line: 362, type: !151, scopeLine: 362, flags: DIFlagPublic | DIFlagPrototyped | DIFlagStaticMember, spFlags: DISPFlagOptimized)
!157 = !DISubprogram(name: "epsilon", linkageName: "_ZN9Timestamp7epsilonEv", scope: !5, file: !4, line: 375, type: !158, scopeLine: 375, flags: DIFlagPublic | DIFlagPrototyped | DIFlagStaticMember, spFlags: DISPFlagOptimized)
!158 = !DISubroutineType(types: !159)
!159 = !{!5}
!160 = !DISubprogram(name: "clear", linkageName: "_ZN9Timestamp5clearEv", scope: !5, file: !4, line: 380, type: !17, scopeLine: 380, flags: DIFlagPublic | DIFlagPrototyped, spFlags: DISPFlagOptimized)
!161 = !DISubprogram(name: "assign", linkageName: "_ZN9Timestamp6assignEij", scope: !5, file: !4, line: 388, type: !162, scopeLine: 388, flags: DIFlagPublic | DIFlagPrototyped, spFlags: DISPFlagOptimized)
!162 = !DISubroutineType(types: !163)
!163 = !{null, !19, !86, !23}
!164 = !DISubprogram(name: "assign_usec", linkageName: "_ZN9Timestamp11assign_usecEij", scope: !5, file: !4, line: 397, type: !162, scopeLine: 397, flags: DIFlagPublic | DIFlagPrototyped, spFlags: DISPFlagOptimized)
!165 = !DISubprogram(name: "assign_nsec", linkageName: "_ZN9Timestamp11assign_nsecEij", scope: !5, file: !4, line: 401, type: !162, scopeLine: 401, flags: DIFlagPublic | DIFlagPrototyped, spFlags: DISPFlagOptimized)
!166 = !DISubprogram(name: "set", linkageName: "_ZN9Timestamp3setEij", scope: !5, file: !4, line: 408, type: !162, scopeLine: 408, flags: DIFlagPublic | DIFlagPrototyped, spFlags: DISPFlagOptimized)
