; ModuleID = '../elements/etherswitch/spantree.cc'
source_filename = "../elements/etherswitch/spantree.cc"
target datalayout = "e-m:e-p270:32:32-p271:32:32-p272:64:64-i64:64-f80:128-n8:16:32:64-S128"
target triple = "x86_64-pc-linux-gnu"

%class.EtherSpanTree = type { %class.Element.base, %class.Suppressor*, %class.Suppressor*, %class.EtherSwitch*, %class.Timestamp*, i8, i64, i16, i16, [6 x i8], %class.BridgeMessage, %class.Vector, %class.Timer }
%class.Element.base = type <{ i32 (...)**, [2 x %"class.Element::Port"*], [4 x %"class.Element::Port"], [2 x i32], %class.Router*, i32 }>
%"class.Element::Port" = type <{ %class.Element*, i32, [4 x i8] }>
%class.Element = type <{ i32 (...)**, [2 x %"class.Element::Port"*], [4 x %"class.Element::Port"], [2 x i32], %class.Router*, i32, [4 x i8] }>
%class.Router = type opaque
%class.Suppressor = type { %class.Element.base, %class.Bitvector }
%class.Bitvector = type { i32, i32*, [2 x i32] }
%class.EtherSwitch = type opaque
%class.Timestamp = type { %"union.Timestamp::rep_t" }
%"union.Timestamp::rep_t" = type { i64 }
%class.BridgeMessage = type { i32, i32, i32, i64, i64, i32, i16, i8, %class.Timestamp }
%class.Vector = type { %class.vector_memory }
%class.vector_memory = type { %struct.char_array*, i32, i32 }
%struct.char_array = type { [72 x i8] }
%class.Timer = type { i32, %class.Timestamp, %union.anon, i8*, %class.Element*, %class.RouterThread* }
%union.anon = type { void (%class.Timer*, i8*)* }
%class.RouterThread = type opaque
%class.Packet = type { %class.atomic_uint32_t, %class.Packet*, i8*, i8*, i8*, i8*, %"struct.Packet::AllAnno", void (i8*, i64, i8*)*, i8* }
%class.atomic_uint32_t = type { i32 }
%"struct.Packet::AllAnno" = type { %"union.Packet::Anno", i8*, i8*, i8*, i32, [8 x i8], %class.Packet*, %class.Packet* }
%"union.Packet::Anno" = type { [6 x i64] }
%class.Vector.0 = type { %class.vector_memory.1 }
%class.vector_memory.1 = type { %class.String*, i32, i32 }
%class.String = type { %"struct.String::rep_t" }
%"struct.String::rep_t" = type { i8*, i32, %"struct.String::memo_t"* }
%"struct.String::memo_t" = type { i32, i32, i32, [8 x i8] }
%class.ErrorHandler = type <{ i32 (...)**, i32, [4 x i8] }>
%"struct.EtherSpanTree::PortInfo" = type { i32, %class.Timestamp, i8, %class.BridgeMessage }
%class.Args = type { %class.ArgContext.base, i8, i8, i8, %class.Vector.0*, %class.Vector.2, %"struct.Args::Slot"*, [48 x i8] }
%class.ArgContext.base = type <{ %class.Element*, %class.ErrorHandler*, i8*, i8 }>
%class.Vector.2 = type { %class.vector_memory.3 }
%class.vector_memory.3 = type { %struct.char_array.4*, i32, i32 }
%struct.char_array.4 = type opaque
%"struct.Args::Slot" = type { i32 (...)**, %"struct.Args::Slot"* }
%"class.Bitvector::Bit" = type <{ i32*, i32, [4 x i8] }>
%"struct.BridgeMessage::wire" = type <{ [6 x i8], [6 x i8], i16, i16, i8, i16, i8, i8, i8, i64, i32, i64, i16, i16, i16, i16, i16, [8 x i8] }>
%class.WritablePacket = type { %class.Packet }
%class.Task = type opaque
%class.EtherAddressArg = type { i32 }
%class.EtherAddress = type { [3 x i16] }
%class.ElementCastArg = type { i8* }
%class.ArgContext = type <{ %class.Element*, %class.ErrorHandler*, i8*, i8, [7 x i8] }>

$_ZNK7Element6outputEi = comdat any

$_ZNK7Element4Port4pushEP6Packet = comdat any

$_ZNK13EtherSpanTree10class_nameEv = comdat any

$_ZNK13EtherSpanTree10port_countEv = comdat any

$_ZNK13EtherSpanTree10processingEv = comdat any

$__clang_call_terminate = comdat any

$_ZNK6String6lengthEv = comdat any

$_ZN9Timestamp10assign_nowEv = comdat any

$_ZNK7Element4portEbi = comdat any

$_ZN13vector_memoryI18sized_array_memoryILm72EEE6resizeEiPK10char_arrayILm72EE = comdat any

$_Z14args_base_readI15EtherAddressArgA6_hEvP4ArgsPKciT_RT0_ = comdat any

$_ZN4Args9base_readI15EtherAddressArgA6_hEEvPKciT_RT0_ = comdat any

$_Z14args_base_readI14ElementCastArgP10SuppressorEvP4ArgsPKciT_RT0_ = comdat any

$_ZN4Args9base_readI14ElementCastArgP10SuppressorEEvPKciT_RT0_ = comdat any

$_Z14args_base_readI14ElementCastArgP11EtherSwitchEvP4ArgsPKciT_RT0_ = comdat any

$_ZN4Args9base_readI14ElementCastArgP11EtherSwitchEEvPKciT_RT0_ = comdat any

@_ZTV13EtherSpanTree = dso_local unnamed_addr constant { [29 x i8*] } { [29 x i8*] [i8* null, i8* bitcast ({ i8*, i8*, i8* }* @_ZTI13EtherSpanTree to i8*), i8* bitcast (void (%class.EtherSpanTree*)* @_ZN13EtherSpanTreeD2Ev to i8*), i8* bitcast (void (%class.EtherSpanTree*)* @_ZN13EtherSpanTreeD0Ev to i8*), i8* bitcast (void (%class.EtherSpanTree*, i32, %class.Packet*)* @_ZN13EtherSpanTree4pushEiP6Packet to i8*), i8* bitcast (%class.Packet* (%class.Element*, i32)* @_ZN7Element4pullEi to i8*), i8* bitcast (%class.Packet* (%class.Element*, %class.Packet*)* @_ZN7Element13simple_actionEP6Packet to i8*), i8* bitcast (i1 (%class.Element*, %class.Task*)* @_ZN7Element8run_taskEP4Task to i8*), i8* bitcast (void (%class.Element*, %class.Timer*)* @_ZN7Element9run_timerEP5Timer to i8*), i8* bitcast (void (%class.Element*, i32, i32)* @_ZN7Element8selectedEii to i8*), i8* bitcast (void (%class.Element*, i32)* @_ZN7Element8selectedEi to i8*), i8* bitcast (i8* (%class.EtherSpanTree*)* @_ZNK13EtherSpanTree10class_nameEv to i8*), i8* bitcast (i8* (%class.EtherSpanTree*)* @_ZNK13EtherSpanTree10port_countEv to i8*), i8* bitcast (i8* (%class.EtherSpanTree*)* @_ZNK13EtherSpanTree10processingEv to i8*), i8* bitcast (i8* (%class.Element*)* @_ZNK7Element9flow_codeEv to i8*), i8* bitcast (i8* (%class.Element*)* @_ZNK7Element5flagsEv to i8*), i8* bitcast (i8* (%class.Element*, i8*)* @_ZN7Element4castEPKc to i8*), i8* bitcast (i8* (%class.Element*, i1, i32, i8*)* @_ZN7Element9port_castEbiPKc to i8*), i8* bitcast (i32 (%class.Element*)* @_ZNK7Element15configure_phaseEv to i8*), i8* bitcast (i32 (%class.EtherSpanTree*, %class.Vector.0*, %class.ErrorHandler*)* @_ZN13EtherSpanTree9configureER6VectorI6StringEP12ErrorHandler to i8*), i8* bitcast (void (%class.EtherSpanTree*)* @_ZN13EtherSpanTree12add_handlersEv to i8*), i8* bitcast (i32 (%class.EtherSpanTree*, %class.ErrorHandler*)* @_ZN13EtherSpanTree10initializeEP12ErrorHandler to i8*), i8* bitcast (void (%class.Element*, %class.Element*, %class.ErrorHandler*)* @_ZN7Element10take_stateEPS_P12ErrorHandler to i8*), i8* bitcast (%class.Element* (%class.Element*)* @_ZNK7Element15hotswap_elementEv to i8*), i8* bitcast (void (%class.Element*, i32)* @_ZN7Element7cleanupENS_12CleanupStageE to i8*), i8* bitcast (void (%class.String*, %class.Element*)* @_ZNK7Element11declarationEv to i8*), i8* bitcast (i1 (%class.Element*)* @_ZNK7Element20can_live_reconfigureEv to i8*), i8* bitcast (i32 (%class.Element*, %class.Vector.0*, %class.ErrorHandler*)* @_ZN7Element16live_reconfigureER6VectorI6StringEP12ErrorHandler to i8*), i8* bitcast (i32 (%class.Element*, i32, i8*)* @_ZN7Element5llrpcEjPv to i8*)] }, align 8
@.str = private unnamed_addr constant [5 x i8] c"ADDR\00", align 1
@.str.1 = private unnamed_addr constant [17 x i8] c"INPUT_SUPPRESSOR\00", align 1
@.str.2 = private unnamed_addr constant [11 x i8] c"Suppressor\00", align 1
@.str.3 = private unnamed_addr constant [18 x i8] c"OUTPUT_SUPPRESSOR\00", align 1
@.str.4 = private unnamed_addr constant [7 x i8] c"SWITCH\00", align 1
@.str.5 = private unnamed_addr constant [12 x i8] c"EtherSwitch\00", align 1
@.str.6 = private unnamed_addr constant [1 x i8] zeroinitializer, align 1
@.str.7 = private unnamed_addr constant [2 x i8] c"\0A\00", align 1
@.str.8 = private unnamed_addr constant [5 x i8] c"msgs\00", align 1
@.str.9 = private unnamed_addr constant [28 x i8] c"Expiring message on port %d\00", align 1
@.str.10 = private unnamed_addr constant [16 x i8] c"state != LISTEN\00", align 1
@.str.11 = private unnamed_addr constant [36 x i8] c"../elements/etherswitch/spantree.cc\00", align 1
@__PRETTY_FUNCTION__._ZN13EtherSpanTree9set_stateEiNS_9PortStateE = private unnamed_addr constant [61 x i8] c"bool EtherSpanTree::set_state(int, EtherSpanTree::PortState)\00", align 1
@.str.12 = private unnamed_addr constant [15 x i8] c"state != LEARN\00", align 1
@.str.13 = private unnamed_addr constant [44 x i8] c"Setting send_tc_msg: BLOCK -> FORWARD on %d\00", align 1
@.str.14 = private unnamed_addr constant [44 x i8] c"Setting send_tc_msg: FORWARD -> BLOCK on %d\00", align 1
@.str.15 = private unnamed_addr constant [31 x i8] c"Changing port %d from %d to %d\00", align 1
@_ZTVN10__cxxabiv120__si_class_type_infoE = external global i8*
@_ZTS13EtherSpanTree = dso_local constant [16 x i8] c"13EtherSpanTree\00", align 1
@_ZTI7Element = external constant i8*
@_ZTI13EtherSpanTree = dso_local constant { i8*, i8*, i8* } { i8* bitcast (i8** getelementptr inbounds (i8*, i8** @_ZTVN10__cxxabiv120__si_class_type_infoE, i64 2) to i8*), i8* getelementptr inbounds ([16 x i8], [16 x i8]* @_ZTS13EtherSpanTree, i32 0, i32 0), i8* bitcast (i8** @_ZTI7Element to i8*) }, align 8
@_ZN6String9null_dataE = external constant i8, align 1
@.str.16 = private unnamed_addr constant [18 x i8] c"_r.memo->refcount\00", align 1
@.str.17 = private unnamed_addr constant [29 x i8] c"../dummy_inc/click/string.hh\00", align 1
@__PRETTY_FUNCTION__._ZNK6String5derefEv = private unnamed_addr constant [27 x i8] c"void String::deref() const\00", align 1
@.str.18 = private unnamed_addr constant [20 x i8] c"i >= 0 && i <= _max\00", align 1
@.str.19 = private unnamed_addr constant [32 x i8] c"../dummy_inc/click/bitvector.hh\00", align 1
@__PRETTY_FUNCTION__._ZN9BitvectorixEi = private unnamed_addr constant [42 x i8] c"Bitvector::Bit Bitvector::operator[](int)\00", align 1
@.str.20 = private unnamed_addr constant [47 x i8] c"(unsigned) port < (unsigned) _nports[isoutput]\00", align 1
@.str.21 = private unnamed_addr constant [30 x i8] c"../dummy_inc/click/element.hh\00", align 1
@__PRETTY_FUNCTION__._ZNK7Element4portEbi = private unnamed_addr constant [52 x i8] c"const Element::Port &Element::port(bool, int) const\00", align 1
@.str.22 = private unnamed_addr constant [8 x i8] c"_e && p\00", align 1
@__PRETTY_FUNCTION__._ZNK7Element4Port4pushEP6Packet = private unnamed_addr constant [41 x i8] c"void Element::Port::push(Packet *) const\00", align 1
@.str.23 = private unnamed_addr constant [14 x i8] c"EtherSpanTree\00", align 1
@.str.24 = private unnamed_addr constant [4 x i8] c"-/=\00", align 1
@_ZN7Element4PUSHE = external constant [0 x i8], align 1
@.str.25 = private unnamed_addr constant [7 x i8] c"n >= 0\00", align 1
@.str.26 = private unnamed_addr constant [29 x i8] c"../dummy_inc/click/vector.cc\00", align 1
@__PRETTY_FUNCTION__._ZN13vector_memoryI18sized_array_memoryILm72EEE6resizeEiPK10char_arrayILm72EE = private unnamed_addr constant [137 x i8] c"void vector_memory<sized_array_memory<72> >::resize(vector_memory::size_type, const vector_memory::type *) [AM = sized_array_memory<72>]\00", align 1

@_ZN13EtherSpanTreeC1Ev = dso_local unnamed_addr alias void (%class.EtherSpanTree*), void (%class.EtherSpanTree*)* @_ZN13EtherSpanTreeC2Ev
@_ZN13EtherSpanTreeD1Ev = dso_local unnamed_addr alias void (%class.EtherSpanTree*), void (%class.EtherSpanTree*)* @_ZN13EtherSpanTreeD2Ev

; Function Attrs: sspstrong uwtable
define dso_local void @_ZN13EtherSpanTreeC2Ev(%class.EtherSpanTree* %0) unnamed_addr #0 align 2 personality i8* bitcast (i32 (...)* @__gxx_personality_v0 to i8*) !dbg !3053 {
  call void @llvm.dbg.value(metadata %class.EtherSpanTree* %0, metadata !3055, metadata !DIExpression()), !dbg !3056
  %2 = bitcast %class.EtherSpanTree* %0 to %class.Element*, !dbg !3057
  tail call void @_ZN7ElementC2Ev(%class.Element* %2), !dbg !3058
  %3 = getelementptr %class.EtherSpanTree, %class.EtherSpanTree* %0, i64 0, i32 0, i32 0, !dbg !3057
  store i32 (...)** bitcast (i8** getelementptr inbounds ({ [29 x i8*] }, { [29 x i8*] }* @_ZTV13EtherSpanTree, i64 0, inrange i32 0, i64 2) to i32 (...)**), i32 (...)*** %3, align 8, !dbg !3057, !tbaa !3059
  %4 = getelementptr inbounds %class.EtherSpanTree, %class.EtherSpanTree* %0, i64 0, i32 1, !dbg !3062
  %5 = getelementptr inbounds %class.EtherSpanTree, %class.EtherSpanTree* %0, i64 0, i32 4, !dbg !3063
  store %class.Timestamp* null, %class.Timestamp** %5, align 8, !dbg !3063, !tbaa !3064
  %6 = getelementptr inbounds %class.EtherSpanTree, %class.EtherSpanTree* %0, i64 0, i32 7, !dbg !3077
  %7 = bitcast %class.Suppressor** %4 to i8*, !dbg !3077
  call void @llvm.memset.p0i8.i64(i8* nonnull align 8 dereferenceable(16) %7, i8 0, i64 16, i1 false), !dbg !3078
  store i16 -8531, i16* %6, align 8, !dbg !3077, !tbaa !3079
  %8 = getelementptr inbounds %class.EtherSpanTree, %class.EtherSpanTree* %0, i64 0, i32 8, !dbg !3080
  store i16 300, i16* %8, align 2, !dbg !3080, !tbaa !3081
  %9 = getelementptr inbounds %class.EtherSpanTree, %class.EtherSpanTree* %0, i64 0, i32 10, !dbg !3058
  call void @llvm.dbg.value(metadata %class.BridgeMessage* %9, metadata !3082, metadata !DIExpression()), !dbg !3086
  call void @llvm.dbg.value(metadata %class.BridgeMessage* %9, metadata !3088, metadata !DIExpression(DW_OP_plus_uconst, 40, DW_OP_stack_value)), !dbg !3091
  call void @llvm.dbg.value(metadata %class.BridgeMessage* %9, metadata !3093, metadata !DIExpression(DW_OP_plus_uconst, 40, DW_OP_stack_value)), !dbg !3098
  call void @llvm.dbg.value(metadata i32 0, metadata !3096, metadata !DIExpression()), !dbg !3098
  call void @llvm.dbg.value(metadata i32 0, metadata !3097, metadata !DIExpression()), !dbg !3098
  %10 = getelementptr inbounds %class.EtherSpanTree, %class.EtherSpanTree* %0, i64 0, i32 10, i32 8, i32 0, i32 0, !dbg !3101
  store i64 0, i64* %10, align 8, !dbg !3102, !tbaa !3103
  invoke void @_ZN13BridgeMessage6expireEv(%class.BridgeMessage* nonnull %9)
          to label %11 unwind label %17, !dbg !3104

11:                                               ; preds = %1
  %12 = getelementptr inbounds %class.EtherSpanTree, %class.EtherSpanTree* %0, i64 0, i32 11, !dbg !3058
  call void @llvm.dbg.value(metadata %class.Vector* %12, metadata !3106, metadata !DIExpression()), !dbg !3110
  call void @llvm.dbg.value(metadata %class.Vector* %12, metadata !3112, metadata !DIExpression()) #13, !dbg !3116
  %13 = bitcast %class.Vector* %12 to i8*, !dbg !3118
  tail call void @llvm.memset.p0i8.i64(i8* nonnull align 8 dereferenceable(16) %13, i8 0, i64 16, i1 false) #13, !dbg !3119
  %14 = getelementptr inbounds %class.EtherSpanTree, %class.EtherSpanTree* %0, i64 0, i32 12, !dbg !3120
  %15 = bitcast %class.EtherSpanTree* %0 to i8*, !dbg !3121
  invoke void @_ZN5TimerC1EPFvPS_PvES1_(%class.Timer* nonnull %14, void (%class.Timer*, i8*)* nonnull @_ZN13EtherSpanTree10hello_hookEP5TimerPv, i8* %15)
          to label %16 unwind label %21, !dbg !3120

16:                                               ; preds = %11
  ret void, !dbg !3122

17:                                               ; preds = %1
  %18 = landingpad { i8*, i32 }
          cleanup, !dbg !3122
  %19 = extractvalue { i8*, i32 } %18, 0, !dbg !3122
  %20 = extractvalue { i8*, i32 } %18, 1, !dbg !3122
  br label %29, !dbg !3122

21:                                               ; preds = %11
  %22 = landingpad { i8*, i32 }
          cleanup, !dbg !3122
  %23 = extractvalue { i8*, i32 } %22, 0, !dbg !3122
  %24 = extractvalue { i8*, i32 } %22, 1, !dbg !3122
  call void @llvm.dbg.value(metadata %class.Vector* %12, metadata !3123, metadata !DIExpression()) #13, !dbg !3127
  call void @llvm.dbg.value(metadata %class.Vector* %12, metadata !3130, metadata !DIExpression()) #13, !dbg !3134
  %25 = bitcast %class.Vector* %12 to i8**, !dbg !3137
  %26 = load i8*, i8** %25, align 8, !dbg !3139, !tbaa !3140
  %27 = icmp eq i8* %26, null, !dbg !3139
  br i1 %27, label %29, label %28, !dbg !3139

28:                                               ; preds = %21
  tail call void @_ZdaPv(i8* nonnull %26) #14, !dbg !3139
  br label %29, !dbg !3139

29:                                               ; preds = %28, %21, %17
  %30 = phi i8* [ %19, %17 ], [ %23, %21 ], [ %23, %28 ], !dbg !3122
  %31 = phi i32 [ %20, %17 ], [ %24, %21 ], [ %24, %28 ], !dbg !3122
  tail call void @_ZN7ElementD2Ev(%class.Element* %2) #13, !dbg !3141
  %32 = insertvalue { i8*, i32 } undef, i8* %30, 0, !dbg !3141
  %33 = insertvalue { i8*, i32 } %32, i32 %31, 1, !dbg !3141
  resume { i8*, i32 } %33, !dbg !3141
}

; Function Attrs: nounwind readnone speculatable willreturn
declare void @llvm.dbg.declare(metadata, metadata, metadata) #1

declare void @_ZN7ElementC2Ev(%class.Element*) unnamed_addr #2

declare i32 @__gxx_personality_v0(...)

; Function Attrs: sspstrong uwtable
define dso_local void @_ZN13EtherSpanTree10hello_hookEP5TimerPv(%class.Timer* nocapture readnone %0, i8* %1) #0 align 2 !dbg !3142 {
  %3 = alloca %class.Timestamp, align 8
  call void @llvm.dbg.value(metadata %class.Timer* undef, metadata !3144, metadata !DIExpression()), !dbg !3152
  call void @llvm.dbg.value(metadata i8* %1, metadata !3145, metadata !DIExpression()), !dbg !3152
  %4 = bitcast i8* %1 to %class.EtherSpanTree*, !dbg !3153
  call void @llvm.dbg.value(metadata %class.EtherSpanTree* %4, metadata !3146, metadata !DIExpression()), !dbg !3152
  tail call void @_ZN13EtherSpanTree8periodicEv(%class.EtherSpanTree* %4), !dbg !3154
  call void @llvm.dbg.value(metadata i32 0, metadata !3147, metadata !DIExpression()), !dbg !3155
  %5 = bitcast i8* %1 to %class.Element*, !dbg !3156
  call void @llvm.dbg.value(metadata %class.Element* %5, metadata !3157, metadata !DIExpression()), !dbg !3164
  %6 = getelementptr inbounds i8, i8* %1, i64 92, !dbg !3166
  %7 = bitcast i8* %6 to i32*, !dbg !3166
  %8 = load i32, i32* %7, align 4, !dbg !3166, !tbaa !3167
  %9 = icmp sgt i32 %8, 0, !dbg !3168
  br i1 %9, label %21, label %10, !dbg !3169

10:                                               ; preds = %27, %2
  %11 = getelementptr inbounds i8, i8* %1, i64 240, !dbg !3170
  %12 = bitcast i8* %11 to %class.Timer*, !dbg !3170
  %13 = getelementptr inbounds i8, i8* %1, i64 180, !dbg !3171
  %14 = bitcast i8* %13 to i32*, !dbg !3171
  %15 = load i32, i32* %14, align 4, !dbg !3171, !tbaa !3172
  %16 = mul i32 %15, 1000, !dbg !3173
  call void @llvm.dbg.value(metadata %class.Timer* %12, metadata !3174, metadata !DIExpression()), !dbg !3178
  call void @llvm.dbg.value(metadata i32 %16, metadata !3177, metadata !DIExpression()), !dbg !3178
  %17 = bitcast %class.Timestamp* %3 to i8*, !dbg !3180
  call void @llvm.lifetime.start.p0i8(i64 8, i8* nonnull %17) #13, !dbg !3180
  %18 = zext i32 %16 to i64, !dbg !3181
  call void @llvm.dbg.value(metadata i64 %18, metadata !3182, metadata !DIExpression()), !dbg !3186
  %19 = mul nuw nsw i64 %18, 1000000, !dbg !3188
  call void @llvm.dbg.value(metadata i64 %19, metadata !3185, metadata !DIExpression()), !dbg !3186
  %20 = getelementptr inbounds %class.Timestamp, %class.Timestamp* %3, i64 0, i32 0, i32 0, !dbg !3180
  store i64 %19, i64* %20, align 8, !dbg !3180
  call void @_ZN5Timer14schedule_afterERK9Timestamp(%class.Timer* nonnull %12, %class.Timestamp* nonnull dereferenceable(8) %3), !dbg !3189
  call void @llvm.lifetime.end.p0i8(i64 8, i8* nonnull %17) #13, !dbg !3189
  ret void, !dbg !3190

21:                                               ; preds = %2, %27
  %22 = phi i32 [ %28, %27 ], [ 0, %2 ]
  call void @llvm.dbg.value(metadata i32 %22, metadata !3147, metadata !DIExpression()), !dbg !3155
  %23 = tail call %class.Packet* @_ZN13EtherSpanTree15generate_packetEi(%class.EtherSpanTree* nonnull %4, i32 %22), !dbg !3191
  call void @llvm.dbg.value(metadata %class.Packet* %23, metadata !3149, metadata !DIExpression()), !dbg !3192
  %24 = icmp eq %class.Packet* %23, null, !dbg !3193
  br i1 %24, label %27, label %25, !dbg !3195

25:                                               ; preds = %21
  %26 = tail call dereferenceable(16) %"class.Element::Port"* @_ZNK7Element6outputEi(%class.Element* %5, i32 %22), !dbg !3196
  tail call void @_ZNK7Element4Port4pushEP6Packet(%"class.Element::Port"* nonnull %26, %class.Packet* nonnull %23), !dbg !3197
  br label %27, !dbg !3198

27:                                               ; preds = %21, %25
  %28 = add nuw nsw i32 %22, 1, !dbg !3199
  call void @llvm.dbg.value(metadata i32 %28, metadata !3147, metadata !DIExpression()), !dbg !3155
  call void @llvm.dbg.value(metadata %class.Element* %5, metadata !3157, metadata !DIExpression()), !dbg !3164
  %29 = load i32, i32* %7, align 4, !dbg !3166, !tbaa !3167
  %30 = icmp slt i32 %28, %29, !dbg !3168
  br i1 %30, label %21, label %10, !dbg !3169, !llvm.loop !3200
}

declare void @_ZN5TimerC1EPFvPS_PvES1_(%class.Timer*, void (%class.Timer*, i8*)*, i8*) unnamed_addr #2

; Function Attrs: nounwind
declare void @_ZN7ElementD2Ev(%class.Element*) unnamed_addr #3

; Function Attrs: nounwind sspstrong uwtable
define dso_local void @_ZN13EtherSpanTreeD2Ev(%class.EtherSpanTree* %0) unnamed_addr #4 align 2 personality i32 (...)* @__gxx_personality_v0 !dbg !3202 {
  call void @llvm.dbg.value(metadata %class.EtherSpanTree* %0, metadata !3204, metadata !DIExpression()), !dbg !3205
  %2 = getelementptr %class.EtherSpanTree, %class.EtherSpanTree* %0, i64 0, i32 0, i32 0, !dbg !3206
  store i32 (...)** bitcast (i8** getelementptr inbounds ({ [29 x i8*] }, { [29 x i8*] }* @_ZTV13EtherSpanTree, i64 0, inrange i32 0, i64 2) to i32 (...)**), i32 (...)*** %2, align 8, !dbg !3206, !tbaa !3059
  %3 = getelementptr inbounds %class.EtherSpanTree, %class.EtherSpanTree* %0, i64 0, i32 12, !dbg !3207
  call void @llvm.dbg.value(metadata %class.Timer* %3, metadata !3209, metadata !DIExpression()) #13, !dbg !3212
  call void @llvm.dbg.value(metadata %class.Timer* %3, metadata !3214, metadata !DIExpression()) #13, !dbg !3218
  %4 = getelementptr inbounds %class.Timer, %class.Timer* %3, i64 0, i32 0, !dbg !3222
  %5 = load i32, i32* %4, align 8, !dbg !3222, !tbaa !3223
  %6 = icmp eq i32 %5, 0, !dbg !3224
  br i1 %6, label %11, label %7, !dbg !3225

7:                                                ; preds = %1
  invoke void @_ZN5Timer10unscheduleEv(%class.Timer* nonnull %3)
          to label %11 unwind label %8, !dbg !3226

8:                                                ; preds = %7
  %9 = landingpad { i8*, i32 }
          catch i8* null, !dbg !3227
  %10 = extractvalue { i8*, i32 } %9, 0, !dbg !3227
  tail call void @__clang_call_terminate(i8* %10) #15, !dbg !3227
  unreachable, !dbg !3227

11:                                               ; preds = %1, %7
  %12 = getelementptr inbounds %class.EtherSpanTree, %class.EtherSpanTree* %0, i64 0, i32 11, !dbg !3207
  call void @llvm.dbg.value(metadata %class.Vector* %12, metadata !3123, metadata !DIExpression()) #13, !dbg !3228
  call void @llvm.dbg.value(metadata %class.Vector* %12, metadata !3130, metadata !DIExpression()) #13, !dbg !3230
  %13 = bitcast %class.Vector* %12 to i8**, !dbg !3232
  %14 = load i8*, i8** %13, align 8, !dbg !3233, !tbaa !3140
  %15 = icmp eq i8* %14, null, !dbg !3233
  br i1 %15, label %17, label %16, !dbg !3233

16:                                               ; preds = %11
  tail call void @_ZdaPv(i8* nonnull %14) #14, !dbg !3233
  br label %17, !dbg !3233

17:                                               ; preds = %11, %16
  %18 = bitcast %class.EtherSpanTree* %0 to %class.Element*, !dbg !3207
  tail call void @_ZN7ElementD2Ev(%class.Element* %18) #13, !dbg !3207
  ret void, !dbg !3234
}

; Function Attrs: nounwind sspstrong uwtable
define dso_local void @_ZN13EtherSpanTreeD0Ev(%class.EtherSpanTree* %0) unnamed_addr #4 align 2 personality i32 (...)* @__gxx_personality_v0 !dbg !3235 {
  call void @llvm.dbg.value(metadata %class.EtherSpanTree* %0, metadata !3237, metadata !DIExpression()), !dbg !3238
  call void @llvm.dbg.value(metadata %class.EtherSpanTree* %0, metadata !3204, metadata !DIExpression()) #13, !dbg !3239
  %2 = getelementptr %class.EtherSpanTree, %class.EtherSpanTree* %0, i64 0, i32 0, i32 0, !dbg !3241
  store i32 (...)** bitcast (i8** getelementptr inbounds ({ [29 x i8*] }, { [29 x i8*] }* @_ZTV13EtherSpanTree, i64 0, inrange i32 0, i64 2) to i32 (...)**), i32 (...)*** %2, align 8, !dbg !3241, !tbaa !3059
  %3 = getelementptr inbounds %class.EtherSpanTree, %class.EtherSpanTree* %0, i64 0, i32 12, !dbg !3242
  call void @llvm.dbg.value(metadata %class.Timer* %3, metadata !3209, metadata !DIExpression()) #13, !dbg !3243
  call void @llvm.dbg.value(metadata %class.Timer* %3, metadata !3214, metadata !DIExpression()) #13, !dbg !3245
  %4 = getelementptr inbounds %class.Timer, %class.Timer* %3, i64 0, i32 0, !dbg !3247
  %5 = load i32, i32* %4, align 8, !dbg !3247, !tbaa !3223
  %6 = icmp eq i32 %5, 0, !dbg !3248
  br i1 %6, label %11, label %7, !dbg !3249

7:                                                ; preds = %1
  invoke void @_ZN5Timer10unscheduleEv(%class.Timer* nonnull %3)
          to label %11 unwind label %8, !dbg !3250

8:                                                ; preds = %7
  %9 = landingpad { i8*, i32 }
          catch i8* null, !dbg !3251
  %10 = extractvalue { i8*, i32 } %9, 0, !dbg !3251
  tail call void @__clang_call_terminate(i8* %10) #15, !dbg !3251
  unreachable, !dbg !3251

11:                                               ; preds = %7, %1
  %12 = getelementptr inbounds %class.EtherSpanTree, %class.EtherSpanTree* %0, i64 0, i32 11, !dbg !3242
  call void @llvm.dbg.value(metadata %class.Vector* %12, metadata !3123, metadata !DIExpression()) #13, !dbg !3252
  call void @llvm.dbg.value(metadata %class.Vector* %12, metadata !3130, metadata !DIExpression()) #13, !dbg !3254
  %13 = bitcast %class.Vector* %12 to i8**, !dbg !3256
  %14 = load i8*, i8** %13, align 8, !dbg !3257, !tbaa !3140
  %15 = icmp eq i8* %14, null, !dbg !3257
  br i1 %15, label %17, label %16, !dbg !3257

16:                                               ; preds = %11
  tail call void @_ZdaPv(i8* nonnull %14) #14, !dbg !3257
  br label %17, !dbg !3257

17:                                               ; preds = %11, %16
  %18 = bitcast %class.EtherSpanTree* %0 to %class.Element*, !dbg !3242
  tail call void @_ZN7ElementD2Ev(%class.Element* %18) #13, !dbg !3242
  %19 = bitcast %class.EtherSpanTree* %0 to i8*, !dbg !3258
  tail call void @_ZdlPv(i8* %19) #14, !dbg !3258
  ret void, !dbg !3259
}

; Function Attrs: nobuiltin nounwind
declare void @_ZdlPv(i8*) local_unnamed_addr #5

; Function Attrs: sspstrong uwtable
define dso_local i32 @_ZN13EtherSpanTree9configureER6VectorI6StringEP12ErrorHandler(%class.EtherSpanTree* %0, %class.Vector.0* dereferenceable(16) %1, %class.ErrorHandler* %2) unnamed_addr #0 align 2 personality i8* bitcast (i32 (...)* @__gxx_personality_v0 to i8*) !dbg !3260 {
  %4 = alloca %"struct.EtherSpanTree::PortInfo", align 8
  %5 = alloca %class.Args, align 8
  call void @llvm.dbg.value(metadata %class.EtherSpanTree* %0, metadata !3262, metadata !DIExpression()), !dbg !3265
  call void @llvm.dbg.value(metadata %class.Vector.0* %1, metadata !3263, metadata !DIExpression()), !dbg !3265
  call void @llvm.dbg.value(metadata %class.ErrorHandler* %2, metadata !3264, metadata !DIExpression()), !dbg !3265
  %6 = bitcast %class.EtherSpanTree* %0 to %class.Element*, !dbg !3266
  call void @llvm.dbg.value(metadata %class.Element* %6, metadata !3157, metadata !DIExpression()), !dbg !3267
  %7 = getelementptr inbounds %class.EtherSpanTree, %class.EtherSpanTree* %0, i64 0, i32 0, i32 3, i64 1, !dbg !3269
  %8 = load i32, i32* %7, align 4, !dbg !3269, !tbaa !3167
  %9 = bitcast %"struct.EtherSpanTree::PortInfo"* %4 to i8*, !dbg !3270
  call void @llvm.lifetime.start.p0i8(i64 72, i8* nonnull %9) #13, !dbg !3270
  call void @llvm.dbg.value(metadata %"struct.EtherSpanTree::PortInfo"* %4, metadata !3271, metadata !DIExpression()), !dbg !3274
  call void @llvm.dbg.value(metadata %"struct.EtherSpanTree::PortInfo"* %4, metadata !3088, metadata !DIExpression(DW_OP_plus_uconst, 8, DW_OP_stack_value)), !dbg !3276
  call void @llvm.dbg.value(metadata %"struct.EtherSpanTree::PortInfo"* %4, metadata !3093, metadata !DIExpression(DW_OP_plus_uconst, 8, DW_OP_stack_value)), !dbg !3278
  call void @llvm.dbg.value(metadata i32 0, metadata !3096, metadata !DIExpression()), !dbg !3278
  call void @llvm.dbg.value(metadata i32 0, metadata !3097, metadata !DIExpression()), !dbg !3278
  %10 = getelementptr inbounds %"struct.EtherSpanTree::PortInfo", %"struct.EtherSpanTree::PortInfo"* %4, i64 0, i32 1, i32 0, i32 0, !dbg !3280
  store i64 0, i64* %10, align 8, !dbg !3281, !tbaa !3103
  %11 = getelementptr inbounds %"struct.EtherSpanTree::PortInfo", %"struct.EtherSpanTree::PortInfo"* %4, i64 0, i32 3, !dbg !3282
  call void @llvm.dbg.value(metadata %class.BridgeMessage* %11, metadata !3082, metadata !DIExpression()), !dbg !3283
  call void @llvm.dbg.value(metadata %class.BridgeMessage* %11, metadata !3088, metadata !DIExpression(DW_OP_plus_uconst, 40, DW_OP_stack_value)), !dbg !3285
  call void @llvm.dbg.value(metadata %class.BridgeMessage* %11, metadata !3093, metadata !DIExpression(DW_OP_plus_uconst, 40, DW_OP_stack_value)), !dbg !3287
  call void @llvm.dbg.value(metadata i32 0, metadata !3096, metadata !DIExpression()), !dbg !3287
  call void @llvm.dbg.value(metadata i32 0, metadata !3097, metadata !DIExpression()), !dbg !3287
  %12 = getelementptr inbounds %"struct.EtherSpanTree::PortInfo", %"struct.EtherSpanTree::PortInfo"* %4, i64 0, i32 3, i32 8, i32 0, i32 0, !dbg !3289
  store i64 0, i64* %12, align 8, !dbg !3290, !tbaa !3103
  call void @_ZN13BridgeMessage6expireEv(%class.BridgeMessage* nonnull %11), !dbg !3291
  %13 = getelementptr inbounds %"struct.EtherSpanTree::PortInfo", %"struct.EtherSpanTree::PortInfo"* %4, i64 0, i32 0, !dbg !3292
  store i32 0, i32* %13, align 8, !dbg !3294, !tbaa !3295
  %14 = getelementptr inbounds %"struct.EtherSpanTree::PortInfo", %"struct.EtherSpanTree::PortInfo"* %4, i64 0, i32 2, !dbg !3298
  store i8 0, i8* %14, align 8, !dbg !3299, !tbaa !3300
  call void @llvm.dbg.value(metadata %class.EtherSpanTree* %0, metadata !3301, metadata !DIExpression(DW_OP_plus_uconst, 224, DW_OP_stack_value)), !dbg !3306
  call void @llvm.dbg.value(metadata i32 %8, metadata !3304, metadata !DIExpression()), !dbg !3306
  call void @llvm.dbg.value(metadata %"struct.EtherSpanTree::PortInfo"* %4, metadata !3305, metadata !DIExpression()), !dbg !3306
  %15 = getelementptr inbounds %class.EtherSpanTree, %class.EtherSpanTree* %0, i64 0, i32 11, i32 0, !dbg !3308
  call void @llvm.dbg.value(metadata %"struct.EtherSpanTree::PortInfo"* %4, metadata !3309, metadata !DIExpression()), !dbg !3315
  %16 = bitcast %"struct.EtherSpanTree::PortInfo"* %4 to %struct.char_array*, !dbg !3317
  call void @_ZN13vector_memoryI18sized_array_memoryILm72EEE6resizeEiPK10char_arrayILm72EE(%class.vector_memory* nonnull %15, i32 %8, %struct.char_array* nonnull %16), !dbg !3318
  call void @llvm.lifetime.end.p0i8(i64 72, i8* nonnull %9) #13, !dbg !3319
  %17 = bitcast %class.Args* %5 to i8*, !dbg !3320
  call void @llvm.lifetime.start.p0i8(i64 112, i8* nonnull %17) #13, !dbg !3320
  call void @_ZN4ArgsC1ERK6VectorI6StringEPK7ElementP12ErrorHandler(%class.Args* nonnull %5, %class.Vector.0* nonnull dereferenceable(16) %1, %class.Element* %6, %class.ErrorHandler* %2), !dbg !3320
  %18 = getelementptr inbounds %class.EtherSpanTree, %class.EtherSpanTree* %0, i64 0, i32 9, !dbg !3322
  call void @llvm.dbg.value(metadata i32 0, metadata !3323, metadata !DIExpression()), !dbg !3332
  call void @llvm.dbg.value(metadata %class.Args* %5, metadata !3329, metadata !DIExpression()), !dbg !3332
  call void @llvm.dbg.value(metadata i8* getelementptr inbounds ([5 x i8], [5 x i8]* @.str, i64 0, i64 0), metadata !3330, metadata !DIExpression()), !dbg !3332
  call void @llvm.dbg.value(metadata [6 x i8]* %18, metadata !3331, metadata !DIExpression()), !dbg !3332
  call void @llvm.dbg.value(metadata i32 0, metadata !3334, metadata !DIExpression()), !dbg !3344
  call void @llvm.dbg.value(metadata %class.Args* %5, metadata !3340, metadata !DIExpression()), !dbg !3344
  call void @llvm.dbg.value(metadata i8* getelementptr inbounds ([5 x i8], [5 x i8]* @.str, i64 0, i64 0), metadata !3341, metadata !DIExpression()), !dbg !3344
  call void @llvm.dbg.value(metadata i32 3, metadata !3342, metadata !DIExpression()), !dbg !3344
  call void @llvm.dbg.value(metadata [6 x i8]* %18, metadata !3343, metadata !DIExpression()), !dbg !3344
  invoke void @_Z14args_base_readI15EtherAddressArgA6_hEvP4ArgsPKciT_RT0_(%class.Args* nonnull %5, i8* getelementptr inbounds ([5 x i8], [5 x i8]* @.str, i64 0, i64 0), i32 3, i32 0, [6 x i8]* nonnull dereferenceable(6) %18)
          to label %19 unwind label %29, !dbg !3346

19:                                               ; preds = %3
  %20 = getelementptr inbounds %class.EtherSpanTree, %class.EtherSpanTree* %0, i64 0, i32 1, !dbg !3347
  call void @llvm.dbg.value(metadata i8* getelementptr inbounds ([11 x i8], [11 x i8]* @.str.2, i64 0, i64 0), metadata !3348, metadata !DIExpression()), !dbg !3357
  call void @llvm.dbg.value(metadata %class.Args* %5, metadata !3354, metadata !DIExpression()), !dbg !3357
  call void @llvm.dbg.value(metadata i8* getelementptr inbounds ([17 x i8], [17 x i8]* @.str.1, i64 0, i64 0), metadata !3355, metadata !DIExpression()), !dbg !3357
  call void @llvm.dbg.value(metadata %class.Suppressor** %20, metadata !3356, metadata !DIExpression()), !dbg !3357
  call void @llvm.dbg.value(metadata i8* getelementptr inbounds ([11 x i8], [11 x i8]* @.str.2, i64 0, i64 0), metadata !3359, metadata !DIExpression()), !dbg !3369
  call void @llvm.dbg.value(metadata %class.Args* %5, metadata !3365, metadata !DIExpression()), !dbg !3369
  call void @llvm.dbg.value(metadata i8* getelementptr inbounds ([17 x i8], [17 x i8]* @.str.1, i64 0, i64 0), metadata !3366, metadata !DIExpression()), !dbg !3369
  call void @llvm.dbg.value(metadata i32 3, metadata !3367, metadata !DIExpression()), !dbg !3369
  call void @llvm.dbg.value(metadata %class.Suppressor** %20, metadata !3368, metadata !DIExpression()), !dbg !3369
  invoke void @_Z14args_base_readI14ElementCastArgP10SuppressorEvP4ArgsPKciT_RT0_(%class.Args* nonnull %5, i8* getelementptr inbounds ([17 x i8], [17 x i8]* @.str.1, i64 0, i64 0), i32 3, i8* getelementptr inbounds ([11 x i8], [11 x i8]* @.str.2, i64 0, i64 0), %class.Suppressor** nonnull dereferenceable(8) %20)
          to label %21 unwind label %29, !dbg !3371

21:                                               ; preds = %19
  %22 = getelementptr inbounds %class.EtherSpanTree, %class.EtherSpanTree* %0, i64 0, i32 2, !dbg !3372
  call void @llvm.dbg.value(metadata i8* getelementptr inbounds ([11 x i8], [11 x i8]* @.str.2, i64 0, i64 0), metadata !3348, metadata !DIExpression()), !dbg !3373
  call void @llvm.dbg.value(metadata %class.Args* %5, metadata !3354, metadata !DIExpression()), !dbg !3373
  call void @llvm.dbg.value(metadata i8* getelementptr inbounds ([18 x i8], [18 x i8]* @.str.3, i64 0, i64 0), metadata !3355, metadata !DIExpression()), !dbg !3373
  call void @llvm.dbg.value(metadata %class.Suppressor** %22, metadata !3356, metadata !DIExpression()), !dbg !3373
  call void @llvm.dbg.value(metadata i8* getelementptr inbounds ([11 x i8], [11 x i8]* @.str.2, i64 0, i64 0), metadata !3359, metadata !DIExpression()), !dbg !3375
  call void @llvm.dbg.value(metadata %class.Args* %5, metadata !3365, metadata !DIExpression()), !dbg !3375
  call void @llvm.dbg.value(metadata i8* getelementptr inbounds ([18 x i8], [18 x i8]* @.str.3, i64 0, i64 0), metadata !3366, metadata !DIExpression()), !dbg !3375
  call void @llvm.dbg.value(metadata i32 3, metadata !3367, metadata !DIExpression()), !dbg !3375
  call void @llvm.dbg.value(metadata %class.Suppressor** %22, metadata !3368, metadata !DIExpression()), !dbg !3375
  invoke void @_Z14args_base_readI14ElementCastArgP10SuppressorEvP4ArgsPKciT_RT0_(%class.Args* nonnull %5, i8* getelementptr inbounds ([18 x i8], [18 x i8]* @.str.3, i64 0, i64 0), i32 3, i8* getelementptr inbounds ([11 x i8], [11 x i8]* @.str.2, i64 0, i64 0), %class.Suppressor** nonnull dereferenceable(8) %22)
          to label %23 unwind label %29, !dbg !3377

23:                                               ; preds = %21
  %24 = getelementptr inbounds %class.EtherSpanTree, %class.EtherSpanTree* %0, i64 0, i32 3, !dbg !3378
  call void @llvm.dbg.value(metadata i8* getelementptr inbounds ([12 x i8], [12 x i8]* @.str.5, i64 0, i64 0), metadata !3379, metadata !DIExpression()), !dbg !3388
  call void @llvm.dbg.value(metadata %class.Args* %5, metadata !3385, metadata !DIExpression()), !dbg !3388
  call void @llvm.dbg.value(metadata i8* getelementptr inbounds ([7 x i8], [7 x i8]* @.str.4, i64 0, i64 0), metadata !3386, metadata !DIExpression()), !dbg !3388
  call void @llvm.dbg.value(metadata %class.EtherSwitch** %24, metadata !3387, metadata !DIExpression()), !dbg !3388
  call void @llvm.dbg.value(metadata i8* getelementptr inbounds ([12 x i8], [12 x i8]* @.str.5, i64 0, i64 0), metadata !3390, metadata !DIExpression()), !dbg !3400
  call void @llvm.dbg.value(metadata %class.Args* %5, metadata !3396, metadata !DIExpression()), !dbg !3400
  call void @llvm.dbg.value(metadata i8* getelementptr inbounds ([7 x i8], [7 x i8]* @.str.4, i64 0, i64 0), metadata !3397, metadata !DIExpression()), !dbg !3400
  call void @llvm.dbg.value(metadata i32 3, metadata !3398, metadata !DIExpression()), !dbg !3400
  call void @llvm.dbg.value(metadata %class.EtherSwitch** %24, metadata !3399, metadata !DIExpression()), !dbg !3400
  invoke void @_Z14args_base_readI14ElementCastArgP11EtherSwitchEvP4ArgsPKciT_RT0_(%class.Args* nonnull %5, i8* getelementptr inbounds ([7 x i8], [7 x i8]* @.str.4, i64 0, i64 0), i32 3, i8* getelementptr inbounds ([12 x i8], [12 x i8]* @.str.5, i64 0, i64 0), %class.EtherSwitch** nonnull dereferenceable(8) %24)
          to label %25 unwind label %29, !dbg !3402

25:                                               ; preds = %23
  %26 = invoke i32 @_ZN4Args8completeEv(%class.Args* nonnull %5)
          to label %27 unwind label %29, !dbg !3403

27:                                               ; preds = %25
  %28 = icmp slt i32 %26, 0, !dbg !3404
  call void @_ZN4ArgsD1Ev(%class.Args* nonnull %5) #13, !dbg !3320
  call void @llvm.lifetime.end.p0i8(i64 112, i8* nonnull %17) #13, !dbg !3320
  br i1 %28, label %35, label %31, !dbg !3405

29:                                               ; preds = %19, %3, %21, %23, %25
  %30 = landingpad { i8*, i32 }
          cleanup, !dbg !3406
  call void @_ZN4ArgsD1Ev(%class.Args* nonnull %5) #13, !dbg !3320
  call void @llvm.lifetime.end.p0i8(i64 112, i8* nonnull %17) #13, !dbg !3320
  resume { i8*, i32 } %30, !dbg !3320

31:                                               ; preds = %27
  %32 = getelementptr inbounds %class.EtherSpanTree, %class.EtherSpanTree* %0, i64 0, i32 6, !dbg !3407
  %33 = bitcast i64* %32 to i8*, !dbg !3408
  %34 = getelementptr inbounds [6 x i8], [6 x i8]* %18, i64 0, i64 0, !dbg !3408
  call void @llvm.memcpy.p0i8.p0i8.i64(i8* nonnull align 8 dereferenceable(6) %33, i8* nonnull align 4 dereferenceable(6) %34, i64 6, i1 false), !dbg !3408
  br label %35, !dbg !3409

35:                                               ; preds = %27, %31
  %36 = phi i32 [ 0, %31 ], [ -1, %27 ], !dbg !3265
  ret i32 %36, !dbg !3410
}

; Function Attrs: argmemonly nounwind willreturn
declare void @llvm.lifetime.start.p0i8(i64 immarg, i8* nocapture) #6

; Function Attrs: argmemonly nounwind willreturn
declare void @llvm.lifetime.end.p0i8(i64 immarg, i8* nocapture) #6

declare void @_ZN4ArgsC1ERK6VectorI6StringEPK7ElementP12ErrorHandler(%class.Args*, %class.Vector.0* dereferenceable(16), %class.Element*, %class.ErrorHandler*) unnamed_addr #2

declare i32 @_ZN4Args8completeEv(%class.Args*) local_unnamed_addr #2

; Function Attrs: nounwind
declare void @_ZN4ArgsD1Ev(%class.Args*) unnamed_addr #3

; Function Attrs: argmemonly nounwind willreturn
declare void @llvm.memcpy.p0i8.p0i8.i64(i8* noalias nocapture writeonly, i8* noalias nocapture readonly, i64, i1 immarg) #6

; Function Attrs: sspstrong uwtable
define dso_local i32 @_ZN13EtherSpanTree10initializeEP12ErrorHandler(%class.EtherSpanTree* %0, %class.ErrorHandler* nocapture readnone %1) unnamed_addr #0 align 2 !dbg !3411 {
  %3 = alloca %class.Timestamp, align 8
  call void @llvm.dbg.value(metadata %class.EtherSpanTree* %0, metadata !3413, metadata !DIExpression()), !dbg !3417
  call void @llvm.dbg.value(metadata %class.ErrorHandler* undef, metadata !3414, metadata !DIExpression()), !dbg !3417
  call void @llvm.dbg.value(metadata i32 0, metadata !3415, metadata !DIExpression()), !dbg !3418
  call void @llvm.dbg.value(metadata %class.EtherSpanTree* %0, metadata !3419, metadata !DIExpression(DW_OP_plus_uconst, 224, DW_OP_stack_value)), !dbg !3423
  %4 = getelementptr inbounds %class.EtherSpanTree, %class.EtherSpanTree* %0, i64 0, i32 11, i32 0, i32 1, !dbg !3426
  %5 = load i32, i32* %4, align 8, !dbg !3426, !tbaa !3427
  %6 = icmp sgt i32 %5, 0, !dbg !3428
  br i1 %6, label %25, label %7, !dbg !3429

7:                                                ; preds = %25, %2
  %8 = getelementptr inbounds %class.EtherSpanTree, %class.EtherSpanTree* %0, i64 0, i32 10, !dbg !3430
  %9 = getelementptr inbounds %class.EtherSpanTree, %class.EtherSpanTree* %0, i64 0, i32 7, !dbg !3431
  %10 = load i16, i16* %9, align 8, !dbg !3431, !tbaa !3079
  %11 = zext i16 %10 to i64, !dbg !3431
  %12 = shl nuw i64 %11, 48, !dbg !3432
  %13 = getelementptr inbounds %class.EtherSpanTree, %class.EtherSpanTree* %0, i64 0, i32 6, !dbg !3433
  %14 = load i64, i64* %13, align 8, !dbg !3433, !tbaa !3434
  %15 = or i64 %12, %14, !dbg !3435
  tail call void @_ZN13BridgeMessage5resetEm(%class.BridgeMessage* nonnull %8, i64 %15), !dbg !3436
  %16 = getelementptr inbounds %class.EtherSpanTree, %class.EtherSpanTree* %0, i64 0, i32 12, !dbg !3437
  %17 = bitcast %class.EtherSpanTree* %0 to %class.Element*, !dbg !3438
  tail call void @_ZN5Timer10initializeEP7Elementb(%class.Timer* nonnull %16, %class.Element* %17, i1 zeroext false), !dbg !3439
  %18 = getelementptr inbounds %class.EtherSpanTree, %class.EtherSpanTree* %0, i64 0, i32 10, i32 1, !dbg !3440
  %19 = load i32, i32* %18, align 4, !dbg !3440, !tbaa !3172
  %20 = mul i32 %19, 1000, !dbg !3441
  call void @llvm.dbg.value(metadata %class.Timer* %16, metadata !3174, metadata !DIExpression()), !dbg !3442
  call void @llvm.dbg.value(metadata i32 %20, metadata !3177, metadata !DIExpression()), !dbg !3442
  %21 = bitcast %class.Timestamp* %3 to i8*, !dbg !3444
  call void @llvm.lifetime.start.p0i8(i64 8, i8* nonnull %21) #13, !dbg !3444
  %22 = zext i32 %20 to i64, !dbg !3445
  call void @llvm.dbg.value(metadata i64 %22, metadata !3182, metadata !DIExpression()), !dbg !3446
  %23 = mul nuw nsw i64 %22, 1000000, !dbg !3448
  call void @llvm.dbg.value(metadata i64 %23, metadata !3185, metadata !DIExpression()), !dbg !3446
  %24 = getelementptr inbounds %class.Timestamp, %class.Timestamp* %3, i64 0, i32 0, i32 0, !dbg !3444
  store i64 %23, i64* %24, align 8, !dbg !3444
  call void @_ZN5Timer14schedule_afterERK9Timestamp(%class.Timer* nonnull %16, %class.Timestamp* nonnull dereferenceable(8) %3), !dbg !3449
  call void @llvm.lifetime.end.p0i8(i64 8, i8* nonnull %21) #13, !dbg !3449
  ret i32 0, !dbg !3450

25:                                               ; preds = %2, %25
  %26 = phi i32 [ %28, %25 ], [ 0, %2 ]
  call void @llvm.dbg.value(metadata i32 %26, metadata !3415, metadata !DIExpression()), !dbg !3418
  %27 = tail call zeroext i1 @_ZN13EtherSpanTree9set_stateEiNS_9PortStateE(%class.EtherSpanTree* nonnull %0, i32 %26, i32 3), !dbg !3451
  %28 = add nuw nsw i32 %26, 1, !dbg !3453
  call void @llvm.dbg.value(metadata i32 %28, metadata !3415, metadata !DIExpression()), !dbg !3418
  call void @llvm.dbg.value(metadata %class.EtherSpanTree* %0, metadata !3419, metadata !DIExpression(DW_OP_plus_uconst, 224, DW_OP_stack_value)), !dbg !3423
  %29 = load i32, i32* %4, align 8, !dbg !3426, !tbaa !3427
  %30 = icmp slt i32 %28, %29, !dbg !3428
  br i1 %30, label %25, label %7, !dbg !3429, !llvm.loop !3454
}

; Function Attrs: sspstrong uwtable
define dso_local zeroext i1 @_ZN13EtherSpanTree9set_stateEiNS_9PortStateE(%class.EtherSpanTree* %0, i32 %1, i32 %2) local_unnamed_addr #0 align 2 !dbg !3456 {
  %4 = alloca %class.Timestamp, align 8
  call void @llvm.dbg.declare(metadata %class.Timestamp* %4, metadata !3461, metadata !DIExpression()), !dbg !3464
  call void @llvm.dbg.value(metadata %class.EtherSpanTree* %0, metadata !3458, metadata !DIExpression()), !dbg !3466
  call void @llvm.dbg.value(metadata i32 %1, metadata !3459, metadata !DIExpression()), !dbg !3466
  call void @llvm.dbg.value(metadata i32 %2, metadata !3460, metadata !DIExpression()), !dbg !3466
  switch i32 %2, label %7 [
    i32 1, label %5
    i32 2, label %6
  ], !dbg !3467

5:                                                ; preds = %3
  tail call void @__assert_fail(i8* getelementptr inbounds ([16 x i8], [16 x i8]* @.str.10, i64 0, i64 0), i8* getelementptr inbounds ([36 x i8], [36 x i8]* @.str.11, i64 0, i64 0), i32 159, i8* getelementptr inbounds ([61 x i8], [61 x i8]* @__PRETTY_FUNCTION__._ZN13EtherSpanTree9set_stateEiNS_9PortStateE, i64 0, i64 0)) #15, !dbg !3467
  unreachable, !dbg !3467

6:                                                ; preds = %3
  tail call void @__assert_fail(i8* getelementptr inbounds ([15 x i8], [15 x i8]* @.str.12, i64 0, i64 0), i8* getelementptr inbounds ([36 x i8], [36 x i8]* @.str.11, i64 0, i64 0), i32 160, i8* getelementptr inbounds ([61 x i8], [61 x i8]* @__PRETTY_FUNCTION__._ZN13EtherSpanTree9set_stateEiNS_9PortStateE, i64 0, i64 0)) #15, !dbg !3468
  unreachable, !dbg !3468

7:                                                ; preds = %3
  %8 = getelementptr inbounds %class.EtherSpanTree, %class.EtherSpanTree* %0, i64 0, i32 11, !dbg !3469
  %9 = tail call dereferenceable(72) %"struct.EtherSpanTree::PortInfo"* @_ZN6VectorIN13EtherSpanTree8PortInfoEEixEi(%class.Vector* nonnull %8, i32 %1), !dbg !3469
  %10 = getelementptr inbounds %"struct.EtherSpanTree::PortInfo", %"struct.EtherSpanTree::PortInfo"* %9, i64 0, i32 0, !dbg !3471
  %11 = load i32, i32* %10, align 8, !dbg !3471, !tbaa !3295
  %12 = icmp eq i32 %11, %2, !dbg !3472
  br i1 %12, label %136, label %13, !dbg !3473

13:                                               ; preds = %7
  %14 = icmp eq i32 %2, 3, !dbg !3474
  br i1 %14, label %15, label %27, !dbg !3476

15:                                               ; preds = %13
  %16 = tail call dereferenceable(72) %"struct.EtherSpanTree::PortInfo"* @_ZN6VectorIN13EtherSpanTree8PortInfoEEixEi(%class.Vector* nonnull %8, i32 %1), !dbg !3477
  %17 = getelementptr inbounds %"struct.EtherSpanTree::PortInfo", %"struct.EtherSpanTree::PortInfo"* %16, i64 0, i32 0, !dbg !3480
  %18 = load i32, i32* %17, align 8, !dbg !3480, !tbaa !3295
  %19 = icmp eq i32 %18, 0, !dbg !3481
  br i1 %19, label %20, label %22, !dbg !3482

20:                                               ; preds = %15
  tail call void (i8*, ...) @click_chatter(i8* getelementptr inbounds ([44 x i8], [44 x i8]* @.str.13, i64 0, i64 0), i32 %1), !dbg !3483
  %21 = getelementptr inbounds %class.EtherSpanTree, %class.EtherSpanTree* %0, i64 0, i32 5, !dbg !3485
  store i8 1, i8* %21, align 8, !dbg !3486, !tbaa !3487
  br label %22, !dbg !3488

22:                                               ; preds = %20, %15
  %23 = tail call dereferenceable(72) %"struct.EtherSpanTree::PortInfo"* @_ZN6VectorIN13EtherSpanTree8PortInfoEEixEi(%class.Vector* nonnull %8, i32 %1), !dbg !3489
  %24 = getelementptr inbounds %"struct.EtherSpanTree::PortInfo", %"struct.EtherSpanTree::PortInfo"* %23, i64 0, i32 0, !dbg !3490
  %25 = load i32, i32* %24, align 8, !dbg !3490, !tbaa !3295
  %26 = add nsw i32 %25, 1, !dbg !3491
  call void @llvm.dbg.value(metadata i32 %26, metadata !3460, metadata !DIExpression()), !dbg !3466
  br label %29, !dbg !3492

27:                                               ; preds = %13
  tail call void (i8*, ...) @click_chatter(i8* getelementptr inbounds ([44 x i8], [44 x i8]* @.str.14, i64 0, i64 0), i32 %1), !dbg !3493
  %28 = getelementptr inbounds %class.EtherSpanTree, %class.EtherSpanTree* %0, i64 0, i32 5, !dbg !3495
  store i8 1, i8* %28, align 8, !dbg !3496, !tbaa !3487
  br label %29

29:                                               ; preds = %27, %22
  %30 = phi i32 [ %26, %22 ], [ %2, %27 ]
  call void @llvm.dbg.value(metadata i32 %30, metadata !3460, metadata !DIExpression()), !dbg !3466
  %31 = tail call dereferenceable(72) %"struct.EtherSpanTree::PortInfo"* @_ZN6VectorIN13EtherSpanTree8PortInfoEEixEi(%class.Vector* nonnull %8, i32 %1), !dbg !3497
  %32 = getelementptr inbounds %"struct.EtherSpanTree::PortInfo", %"struct.EtherSpanTree::PortInfo"* %31, i64 0, i32 0, !dbg !3498
  %33 = load i32, i32* %32, align 8, !dbg !3498, !tbaa !3295
  tail call void (i8*, ...) @click_chatter(i8* getelementptr inbounds ([31 x i8], [31 x i8]* @.str.15, i64 0, i64 0), i32 %1, i32 %33, i32 %30), !dbg !3499
  %34 = tail call dereferenceable(72) %"struct.EtherSpanTree::PortInfo"* @_ZN6VectorIN13EtherSpanTree8PortInfoEEixEi(%class.Vector* nonnull %8, i32 %1), !dbg !3500
  %35 = getelementptr inbounds %"struct.EtherSpanTree::PortInfo", %"struct.EtherSpanTree::PortInfo"* %34, i64 0, i32 0, !dbg !3501
  store i32 %30, i32* %35, align 8, !dbg !3502, !tbaa !3295
  %36 = bitcast %class.Timestamp* %4 to i8*, !dbg !3503
  call void @llvm.lifetime.start.p0i8(i64 8, i8* nonnull %36), !dbg !3503
  call void @_ZN9Timestamp10assign_nowEv(%class.Timestamp* nonnull %4), !dbg !3503
  %37 = getelementptr inbounds %class.Timestamp, %class.Timestamp* %4, i64 0, i32 0, i32 0, !dbg !3504
  %38 = load i64, i64* %37, align 8, !dbg !3504
  call void @llvm.lifetime.end.p0i8(i64 8, i8* nonnull %36), !dbg !3504
  %39 = call dereferenceable(72) %"struct.EtherSpanTree::PortInfo"* @_ZN6VectorIN13EtherSpanTree8PortInfoEEixEi(%class.Vector* nonnull %8, i32 %1), !dbg !3505
  %40 = getelementptr inbounds %"struct.EtherSpanTree::PortInfo", %"struct.EtherSpanTree::PortInfo"* %39, i64 0, i32 1, i32 0, i32 0, !dbg !3506
  store i64 %38, i64* %40, align 8, !dbg !3506, !tbaa.struct !3507
  switch i32 %30, label %136 [
    i32 0, label %41
    i32 1, label %41
    i32 2, label %72
    i32 3, label %104
  ], !dbg !3509

41:                                               ; preds = %29, %29
  %42 = getelementptr inbounds %class.EtherSpanTree, %class.EtherSpanTree* %0, i64 0, i32 1, !dbg !3510
  %43 = load %class.Suppressor*, %class.Suppressor** %42, align 8, !dbg !3510, !tbaa !3512
  call void @llvm.dbg.value(metadata %class.Suppressor* %43, metadata !3513, metadata !DIExpression()), !dbg !3521
  call void @llvm.dbg.value(metadata i32 %1, metadata !3520, metadata !DIExpression()), !dbg !3521
  call void @llvm.dbg.value(metadata %class.Suppressor* %43, metadata !3523, metadata !DIExpression(DW_OP_plus_uconst, 112, DW_OP_stack_value)), !dbg !3528
  call void @llvm.dbg.value(metadata i32 %1, metadata !3526, metadata !DIExpression()), !dbg !3528
  %44 = icmp sgt i32 %1, -1, !dbg !3530
  br i1 %44, label %45, label %49, !dbg !3530

45:                                               ; preds = %41
  call void @llvm.dbg.value(metadata %class.Suppressor* %43, metadata !3523, metadata !DIExpression(DW_OP_plus_uconst, 112, DW_OP_stack_value)), !dbg !3528
  %46 = getelementptr inbounds %class.Suppressor, %class.Suppressor* %43, i64 0, i32 1, i32 0, !dbg !3530
  %47 = load i32, i32* %46, align 8, !dbg !3530, !tbaa !3531
  %48 = icmp slt i32 %47, %1, !dbg !3530
  br i1 %48, label %49, label %50, !dbg !3530

49:                                               ; preds = %45, %41
  call void @__assert_fail(i8* getelementptr inbounds ([20 x i8], [20 x i8]* @.str.18, i64 0, i64 0), i8* getelementptr inbounds ([32 x i8], [32 x i8]* @.str.19, i64 0, i64 0), i32 196, i8* getelementptr inbounds ([42 x i8], [42 x i8]* @__PRETTY_FUNCTION__._ZN9BitvectorixEi, i64 0, i64 0)) #15, !dbg !3530
  unreachable, !dbg !3530

50:                                               ; preds = %45
  %51 = getelementptr inbounds %class.Suppressor, %class.Suppressor* %43, i64 0, i32 1, i32 1, !dbg !3533
  %52 = load i32*, i32** %51, align 8, !dbg !3533, !tbaa !3534
  %53 = lshr i32 %1, 5, !dbg !3535
  %54 = zext i32 %53 to i64, !dbg !3533
  %55 = getelementptr inbounds i32, i32* %52, i64 %54, !dbg !3533
  %56 = and i32 %1, 31, !dbg !3536
  call void @llvm.dbg.value(metadata %"class.Bitvector::Bit"* undef, metadata !3537, metadata !DIExpression()), !dbg !3543
  call void @llvm.dbg.value(metadata i32* %55, metadata !3540, metadata !DIExpression()), !dbg !3543
  call void @llvm.dbg.value(metadata i32 %56, metadata !3541, metadata !DIExpression()), !dbg !3543
  %57 = shl nuw i32 1, %56, !dbg !3545
  call void @llvm.dbg.value(metadata %"class.Bitvector::Bit"* undef, metadata !3546, metadata !DIExpression()), !dbg !3550
  call void @llvm.dbg.value(metadata i1 true, metadata !3549, metadata !DIExpression()), !dbg !3550
  %58 = load i32, i32* %55, align 4, !dbg !3552, !tbaa !3167
  %59 = or i32 %58, %57, !dbg !3552
  store i32 %59, i32* %55, align 4, !dbg !3552, !tbaa !3167
  %60 = getelementptr inbounds %class.EtherSpanTree, %class.EtherSpanTree* %0, i64 0, i32 2, !dbg !3554
  %61 = load %class.Suppressor*, %class.Suppressor** %60, align 8, !dbg !3554, !tbaa !3555
  call void @llvm.dbg.value(metadata %class.Suppressor* %61, metadata !3513, metadata !DIExpression()), !dbg !3556
  call void @llvm.dbg.value(metadata i32 %1, metadata !3520, metadata !DIExpression()), !dbg !3556
  call void @llvm.dbg.value(metadata %class.Suppressor* %61, metadata !3523, metadata !DIExpression(DW_OP_plus_uconst, 112, DW_OP_stack_value)), !dbg !3558
  call void @llvm.dbg.value(metadata i32 %1, metadata !3526, metadata !DIExpression()), !dbg !3558
  call void @llvm.dbg.value(metadata %class.Suppressor* %61, metadata !3523, metadata !DIExpression(DW_OP_plus_uconst, 112, DW_OP_stack_value)), !dbg !3558
  %62 = getelementptr inbounds %class.Suppressor, %class.Suppressor* %61, i64 0, i32 1, i32 0, !dbg !3560
  %63 = load i32, i32* %62, align 8, !dbg !3560, !tbaa !3531
  %64 = icmp slt i32 %63, %1, !dbg !3560
  br i1 %64, label %65, label %66, !dbg !3560

65:                                               ; preds = %50
  call void @__assert_fail(i8* getelementptr inbounds ([20 x i8], [20 x i8]* @.str.18, i64 0, i64 0), i8* getelementptr inbounds ([32 x i8], [32 x i8]* @.str.19, i64 0, i64 0), i32 196, i8* getelementptr inbounds ([42 x i8], [42 x i8]* @__PRETTY_FUNCTION__._ZN9BitvectorixEi, i64 0, i64 0)) #15, !dbg !3560
  unreachable, !dbg !3560

66:                                               ; preds = %50
  %67 = getelementptr inbounds %class.Suppressor, %class.Suppressor* %61, i64 0, i32 1, i32 1, !dbg !3561
  %68 = load i32*, i32** %67, align 8, !dbg !3561, !tbaa !3534
  %69 = getelementptr inbounds i32, i32* %68, i64 %54, !dbg !3561
  call void @llvm.dbg.value(metadata %"class.Bitvector::Bit"* undef, metadata !3537, metadata !DIExpression()), !dbg !3562
  call void @llvm.dbg.value(metadata i32* %69, metadata !3540, metadata !DIExpression()), !dbg !3562
  call void @llvm.dbg.value(metadata i32 %56, metadata !3541, metadata !DIExpression()), !dbg !3562
  call void @llvm.dbg.value(metadata %"class.Bitvector::Bit"* undef, metadata !3546, metadata !DIExpression()), !dbg !3564
  call void @llvm.dbg.value(metadata i1 true, metadata !3549, metadata !DIExpression()), !dbg !3564
  %70 = load i32, i32* %69, align 4, !dbg !3566, !tbaa !3167
  %71 = or i32 %70, %57, !dbg !3566
  store i32 %71, i32* %69, align 4, !dbg !3566, !tbaa !3167
  br label %136, !dbg !3567

72:                                               ; preds = %29
  %73 = getelementptr inbounds %class.EtherSpanTree, %class.EtherSpanTree* %0, i64 0, i32 1, !dbg !3568
  %74 = load %class.Suppressor*, %class.Suppressor** %73, align 8, !dbg !3568, !tbaa !3512
  call void @llvm.dbg.value(metadata %class.Suppressor* %74, metadata !3569, metadata !DIExpression()), !dbg !3574
  call void @llvm.dbg.value(metadata i32 %1, metadata !3573, metadata !DIExpression()), !dbg !3574
  call void @llvm.dbg.value(metadata %class.Suppressor* %74, metadata !3523, metadata !DIExpression(DW_OP_plus_uconst, 112, DW_OP_stack_value)), !dbg !3576
  call void @llvm.dbg.value(metadata i32 %1, metadata !3526, metadata !DIExpression()), !dbg !3576
  %75 = icmp sgt i32 %1, -1, !dbg !3578
  br i1 %75, label %76, label %80, !dbg !3578

76:                                               ; preds = %72
  call void @llvm.dbg.value(metadata %class.Suppressor* %74, metadata !3523, metadata !DIExpression(DW_OP_plus_uconst, 112, DW_OP_stack_value)), !dbg !3576
  %77 = getelementptr inbounds %class.Suppressor, %class.Suppressor* %74, i64 0, i32 1, i32 0, !dbg !3578
  %78 = load i32, i32* %77, align 8, !dbg !3578, !tbaa !3531
  %79 = icmp slt i32 %78, %1, !dbg !3578
  br i1 %79, label %80, label %81, !dbg !3578

80:                                               ; preds = %76, %72
  call void @__assert_fail(i8* getelementptr inbounds ([20 x i8], [20 x i8]* @.str.18, i64 0, i64 0), i8* getelementptr inbounds ([32 x i8], [32 x i8]* @.str.19, i64 0, i64 0), i32 196, i8* getelementptr inbounds ([42 x i8], [42 x i8]* @__PRETTY_FUNCTION__._ZN9BitvectorixEi, i64 0, i64 0)) #15, !dbg !3578
  unreachable, !dbg !3578

81:                                               ; preds = %76
  %82 = getelementptr inbounds %class.Suppressor, %class.Suppressor* %74, i64 0, i32 1, i32 1, !dbg !3579
  %83 = load i32*, i32** %82, align 8, !dbg !3579, !tbaa !3534
  %84 = lshr i32 %1, 5, !dbg !3580
  %85 = zext i32 %84 to i64, !dbg !3579
  %86 = getelementptr inbounds i32, i32* %83, i64 %85, !dbg !3579
  %87 = and i32 %1, 31, !dbg !3581
  call void @llvm.dbg.value(metadata %"class.Bitvector::Bit"* undef, metadata !3537, metadata !DIExpression()), !dbg !3582
  call void @llvm.dbg.value(metadata i32* %86, metadata !3540, metadata !DIExpression()), !dbg !3582
  call void @llvm.dbg.value(metadata i32 %87, metadata !3541, metadata !DIExpression()), !dbg !3582
  %88 = shl nuw i32 1, %87, !dbg !3584
  call void @llvm.dbg.value(metadata %"class.Bitvector::Bit"* undef, metadata !3546, metadata !DIExpression()), !dbg !3585
  call void @llvm.dbg.value(metadata i1 false, metadata !3549, metadata !DIExpression()), !dbg !3585
  %89 = xor i32 %88, -1, !dbg !3587
  %90 = load i32, i32* %86, align 4, !dbg !3588, !tbaa !3167
  %91 = and i32 %90, %89, !dbg !3588
  store i32 %91, i32* %86, align 4, !dbg !3588, !tbaa !3167
  %92 = getelementptr inbounds %class.EtherSpanTree, %class.EtherSpanTree* %0, i64 0, i32 2, !dbg !3589
  %93 = load %class.Suppressor*, %class.Suppressor** %92, align 8, !dbg !3589, !tbaa !3555
  call void @llvm.dbg.value(metadata %class.Suppressor* %93, metadata !3513, metadata !DIExpression()), !dbg !3590
  call void @llvm.dbg.value(metadata i32 %1, metadata !3520, metadata !DIExpression()), !dbg !3590
  call void @llvm.dbg.value(metadata %class.Suppressor* %93, metadata !3523, metadata !DIExpression(DW_OP_plus_uconst, 112, DW_OP_stack_value)), !dbg !3592
  call void @llvm.dbg.value(metadata i32 %1, metadata !3526, metadata !DIExpression()), !dbg !3592
  call void @llvm.dbg.value(metadata %class.Suppressor* %93, metadata !3523, metadata !DIExpression(DW_OP_plus_uconst, 112, DW_OP_stack_value)), !dbg !3592
  %94 = getelementptr inbounds %class.Suppressor, %class.Suppressor* %93, i64 0, i32 1, i32 0, !dbg !3594
  %95 = load i32, i32* %94, align 8, !dbg !3594, !tbaa !3531
  %96 = icmp slt i32 %95, %1, !dbg !3594
  br i1 %96, label %97, label %98, !dbg !3594

97:                                               ; preds = %81
  call void @__assert_fail(i8* getelementptr inbounds ([20 x i8], [20 x i8]* @.str.18, i64 0, i64 0), i8* getelementptr inbounds ([32 x i8], [32 x i8]* @.str.19, i64 0, i64 0), i32 196, i8* getelementptr inbounds ([42 x i8], [42 x i8]* @__PRETTY_FUNCTION__._ZN9BitvectorixEi, i64 0, i64 0)) #15, !dbg !3594
  unreachable, !dbg !3594

98:                                               ; preds = %81
  %99 = getelementptr inbounds %class.Suppressor, %class.Suppressor* %93, i64 0, i32 1, i32 1, !dbg !3595
  %100 = load i32*, i32** %99, align 8, !dbg !3595, !tbaa !3534
  %101 = getelementptr inbounds i32, i32* %100, i64 %85, !dbg !3595
  call void @llvm.dbg.value(metadata %"class.Bitvector::Bit"* undef, metadata !3537, metadata !DIExpression()), !dbg !3596
  call void @llvm.dbg.value(metadata i32* %101, metadata !3540, metadata !DIExpression()), !dbg !3596
  call void @llvm.dbg.value(metadata i32 %87, metadata !3541, metadata !DIExpression()), !dbg !3596
  call void @llvm.dbg.value(metadata %"class.Bitvector::Bit"* undef, metadata !3546, metadata !DIExpression()), !dbg !3598
  call void @llvm.dbg.value(metadata i1 true, metadata !3549, metadata !DIExpression()), !dbg !3598
  %102 = load i32, i32* %101, align 4, !dbg !3600, !tbaa !3167
  %103 = or i32 %102, %88, !dbg !3600
  store i32 %103, i32* %101, align 4, !dbg !3600, !tbaa !3167
  br label %136, !dbg !3601

104:                                              ; preds = %29
  %105 = getelementptr inbounds %class.EtherSpanTree, %class.EtherSpanTree* %0, i64 0, i32 1, !dbg !3602
  %106 = load %class.Suppressor*, %class.Suppressor** %105, align 8, !dbg !3602, !tbaa !3512
  call void @llvm.dbg.value(metadata %class.Suppressor* %106, metadata !3569, metadata !DIExpression()), !dbg !3603
  call void @llvm.dbg.value(metadata i32 %1, metadata !3573, metadata !DIExpression()), !dbg !3603
  call void @llvm.dbg.value(metadata %class.Suppressor* %106, metadata !3523, metadata !DIExpression(DW_OP_plus_uconst, 112, DW_OP_stack_value)), !dbg !3605
  call void @llvm.dbg.value(metadata i32 %1, metadata !3526, metadata !DIExpression()), !dbg !3605
  %107 = icmp sgt i32 %1, -1, !dbg !3607
  br i1 %107, label %108, label %112, !dbg !3607

108:                                              ; preds = %104
  call void @llvm.dbg.value(metadata %class.Suppressor* %106, metadata !3523, metadata !DIExpression(DW_OP_plus_uconst, 112, DW_OP_stack_value)), !dbg !3605
  %109 = getelementptr inbounds %class.Suppressor, %class.Suppressor* %106, i64 0, i32 1, i32 0, !dbg !3607
  %110 = load i32, i32* %109, align 8, !dbg !3607, !tbaa !3531
  %111 = icmp slt i32 %110, %1, !dbg !3607
  br i1 %111, label %112, label %113, !dbg !3607

112:                                              ; preds = %108, %104
  call void @__assert_fail(i8* getelementptr inbounds ([20 x i8], [20 x i8]* @.str.18, i64 0, i64 0), i8* getelementptr inbounds ([32 x i8], [32 x i8]* @.str.19, i64 0, i64 0), i32 196, i8* getelementptr inbounds ([42 x i8], [42 x i8]* @__PRETTY_FUNCTION__._ZN9BitvectorixEi, i64 0, i64 0)) #15, !dbg !3607
  unreachable, !dbg !3607

113:                                              ; preds = %108
  %114 = getelementptr inbounds %class.Suppressor, %class.Suppressor* %106, i64 0, i32 1, i32 1, !dbg !3608
  %115 = load i32*, i32** %114, align 8, !dbg !3608, !tbaa !3534
  %116 = lshr i32 %1, 5, !dbg !3609
  %117 = zext i32 %116 to i64, !dbg !3608
  %118 = getelementptr inbounds i32, i32* %115, i64 %117, !dbg !3608
  %119 = and i32 %1, 31, !dbg !3610
  call void @llvm.dbg.value(metadata %"class.Bitvector::Bit"* undef, metadata !3537, metadata !DIExpression()), !dbg !3611
  call void @llvm.dbg.value(metadata i32* %118, metadata !3540, metadata !DIExpression()), !dbg !3611
  call void @llvm.dbg.value(metadata i32 %119, metadata !3541, metadata !DIExpression()), !dbg !3611
  %120 = shl nuw i32 1, %119, !dbg !3613
  call void @llvm.dbg.value(metadata %"class.Bitvector::Bit"* undef, metadata !3546, metadata !DIExpression()), !dbg !3614
  call void @llvm.dbg.value(metadata i1 false, metadata !3549, metadata !DIExpression()), !dbg !3614
  %121 = xor i32 %120, -1, !dbg !3616
  %122 = load i32, i32* %118, align 4, !dbg !3617, !tbaa !3167
  %123 = and i32 %122, %121, !dbg !3617
  store i32 %123, i32* %118, align 4, !dbg !3617, !tbaa !3167
  %124 = getelementptr inbounds %class.EtherSpanTree, %class.EtherSpanTree* %0, i64 0, i32 2, !dbg !3618
  %125 = load %class.Suppressor*, %class.Suppressor** %124, align 8, !dbg !3618, !tbaa !3555
  call void @llvm.dbg.value(metadata %class.Suppressor* %125, metadata !3569, metadata !DIExpression()), !dbg !3619
  call void @llvm.dbg.value(metadata i32 %1, metadata !3573, metadata !DIExpression()), !dbg !3619
  call void @llvm.dbg.value(metadata %class.Suppressor* %125, metadata !3523, metadata !DIExpression(DW_OP_plus_uconst, 112, DW_OP_stack_value)), !dbg !3621
  call void @llvm.dbg.value(metadata i32 %1, metadata !3526, metadata !DIExpression()), !dbg !3621
  call void @llvm.dbg.value(metadata %class.Suppressor* %125, metadata !3523, metadata !DIExpression(DW_OP_plus_uconst, 112, DW_OP_stack_value)), !dbg !3621
  %126 = getelementptr inbounds %class.Suppressor, %class.Suppressor* %125, i64 0, i32 1, i32 0, !dbg !3623
  %127 = load i32, i32* %126, align 8, !dbg !3623, !tbaa !3531
  %128 = icmp slt i32 %127, %1, !dbg !3623
  br i1 %128, label %129, label %130, !dbg !3623

129:                                              ; preds = %113
  call void @__assert_fail(i8* getelementptr inbounds ([20 x i8], [20 x i8]* @.str.18, i64 0, i64 0), i8* getelementptr inbounds ([32 x i8], [32 x i8]* @.str.19, i64 0, i64 0), i32 196, i8* getelementptr inbounds ([42 x i8], [42 x i8]* @__PRETTY_FUNCTION__._ZN9BitvectorixEi, i64 0, i64 0)) #15, !dbg !3623
  unreachable, !dbg !3623

130:                                              ; preds = %113
  %131 = getelementptr inbounds %class.Suppressor, %class.Suppressor* %125, i64 0, i32 1, i32 1, !dbg !3624
  %132 = load i32*, i32** %131, align 8, !dbg !3624, !tbaa !3534
  %133 = getelementptr inbounds i32, i32* %132, i64 %117, !dbg !3624
  call void @llvm.dbg.value(metadata %"class.Bitvector::Bit"* undef, metadata !3537, metadata !DIExpression()), !dbg !3625
  call void @llvm.dbg.value(metadata i32* %133, metadata !3540, metadata !DIExpression()), !dbg !3625
  call void @llvm.dbg.value(metadata i32 %119, metadata !3541, metadata !DIExpression()), !dbg !3625
  call void @llvm.dbg.value(metadata %"class.Bitvector::Bit"* undef, metadata !3546, metadata !DIExpression()), !dbg !3627
  call void @llvm.dbg.value(metadata i1 false, metadata !3549, metadata !DIExpression()), !dbg !3627
  %134 = load i32, i32* %133, align 4, !dbg !3629, !tbaa !3167
  %135 = and i32 %134, %121, !dbg !3629
  store i32 %135, i32* %133, align 4, !dbg !3629, !tbaa !3167
  br label %136, !dbg !3630

136:                                              ; preds = %66, %98, %130, %29, %7
  %137 = phi i1 [ false, %7 ], [ true, %29 ], [ true, %130 ], [ true, %98 ], [ true, %66 ], !dbg !3466
  ret i1 %137, !dbg !3631
}

declare void @_ZN13BridgeMessage5resetEm(%class.BridgeMessage*, i64) local_unnamed_addr #2

declare void @_ZN5Timer10initializeEP7Elementb(%class.Timer*, %class.Element*, i1 zeroext) local_unnamed_addr #2

; Function Attrs: sspstrong uwtable
define dso_local void @_ZN13EtherSpanTree9read_msgsEP7ElementPv(%class.String* noalias sret %0, %class.Element* %1, i8* nocapture readnone %2) #0 align 2 personality i8* bitcast (i32 (...)* @__gxx_personality_v0 to i8*) !dbg !3632 {
  %4 = alloca %class.String, align 8
  %5 = alloca %class.String, align 8
  %6 = alloca %class.String, align 8
  %7 = alloca %class.String, align 8
  call void @llvm.dbg.value(metadata i8* undef, metadata !3637, metadata !DIExpression(DW_OP_deref)), !dbg !3640
  call void @llvm.dbg.value(metadata %class.Element* %1, metadata !3634, metadata !DIExpression()), !dbg !3640
  call void @llvm.dbg.value(metadata i8* undef, metadata !3635, metadata !DIExpression()), !dbg !3640
  call void @llvm.dbg.value(metadata %class.Element* %1, metadata !3636, metadata !DIExpression()), !dbg !3640
  call void @llvm.dbg.value(metadata %class.String* %0, metadata !3641, metadata !DIExpression()), !dbg !3644
  call void @llvm.dbg.value(metadata %class.String* %0, metadata !3646, metadata !DIExpression()), !dbg !3652
  call void @llvm.dbg.value(metadata i8* @_ZN6String9null_dataE, metadata !3649, metadata !DIExpression()), !dbg !3652
  call void @llvm.dbg.value(metadata i32 0, metadata !3650, metadata !DIExpression()), !dbg !3652
  call void @llvm.dbg.value(metadata %"struct.String::memo_t"* null, metadata !3651, metadata !DIExpression()), !dbg !3652
  %8 = getelementptr inbounds %class.String, %class.String* %0, i64 0, i32 0, i32 0, !dbg !3655
  store i8* @_ZN6String9null_dataE, i8** %8, align 8, !dbg !3656, !tbaa !3657
  %9 = getelementptr inbounds %class.String, %class.String* %0, i64 0, i32 0, i32 1, !dbg !3660
  store i32 0, i32* %9, align 8, !dbg !3661, !tbaa !3662
  %10 = getelementptr inbounds %class.String, %class.String* %0, i64 0, i32 0, i32 2, !dbg !3663
  store %"struct.String::memo_t"* null, %"struct.String::memo_t"** %10, align 8, !dbg !3665, !tbaa !3666
  call void @llvm.dbg.value(metadata i32 0, metadata !3638, metadata !DIExpression()), !dbg !3667
  call void @llvm.dbg.value(metadata %class.Element* %1, metadata !3419, metadata !DIExpression(DW_OP_plus_uconst, 224, DW_OP_stack_value)), !dbg !3668
  %11 = getelementptr inbounds %class.Element, %class.Element* %1, i64 2, i32 1, !dbg !3671
  %12 = bitcast [2 x %"class.Element::Port"*]* %11 to i32*, !dbg !3671
  %13 = load i32, i32* %12, align 8, !dbg !3671, !tbaa !3427
  %14 = icmp sgt i32 %13, 0, !dbg !3672
  br i1 %14, label %15, label %24, !dbg !3673

15:                                               ; preds = %3
  %16 = getelementptr inbounds %class.Element, %class.Element* %1, i64 2, !dbg !3674
  %17 = bitcast %class.Element* %16 to %class.Vector*, !dbg !3674
  %18 = getelementptr inbounds %class.String, %class.String* %5, i64 0, i32 0, i32 0, !dbg !3675
  %19 = getelementptr inbounds %class.String, %class.String* %5, i64 0, i32 0, i32 1, !dbg !3675
  %20 = getelementptr inbounds %class.String, %class.String* %5, i64 0, i32 0, i32 2, !dbg !3685
  %21 = getelementptr inbounds %class.String, %class.String* %4, i64 0, i32 0, i32 0, !dbg !3686
  %22 = getelementptr inbounds %class.String, %class.String* %4, i64 0, i32 0, i32 1, !dbg !3686
  %23 = getelementptr inbounds %class.String, %class.String* %4, i64 0, i32 0, i32 2, !dbg !3686
  br label %30, !dbg !3673

24:                                               ; preds = %89, %3
  call void @llvm.dbg.value(metadata %class.String* %7, metadata !3681, metadata !DIExpression()), !dbg !3699
  call void @llvm.dbg.value(metadata i8* getelementptr inbounds ([1 x i8], [1 x i8]* @.str.6, i64 0, i64 0), metadata !3682, metadata !DIExpression()), !dbg !3699
  call void @llvm.dbg.value(metadata %class.String* %7, metadata !3646, metadata !DIExpression()), !dbg !3701
  call void @llvm.dbg.value(metadata i8* getelementptr inbounds ([1 x i8], [1 x i8]* @.str.6, i64 0, i64 0), metadata !3649, metadata !DIExpression()), !dbg !3701
  call void @llvm.dbg.value(metadata i32 0, metadata !3650, metadata !DIExpression()), !dbg !3701
  call void @llvm.dbg.value(metadata %"struct.String::memo_t"* null, metadata !3651, metadata !DIExpression()), !dbg !3701
  %25 = getelementptr inbounds %class.String, %class.String* %7, i64 0, i32 0, i32 0, !dbg !3703
  store i8* getelementptr inbounds ([1 x i8], [1 x i8]* @.str.6, i64 0, i64 0), i8** %25, align 8, !dbg !3704, !tbaa !3657
  %26 = getelementptr inbounds %class.String, %class.String* %7, i64 0, i32 0, i32 1, !dbg !3705
  store i32 0, i32* %26, align 8, !dbg !3706, !tbaa !3662
  %27 = getelementptr inbounds %class.String, %class.String* %7, i64 0, i32 0, i32 2, !dbg !3707
  store %"struct.String::memo_t"* null, %"struct.String::memo_t"** %27, align 8, !dbg !3708, !tbaa !3666
  %28 = getelementptr inbounds %class.Element, %class.Element* %1, i64 1, i32 2, i64 2, i32 1, !dbg !3709
  %29 = bitcast i32* %28 to %class.BridgeMessage*, !dbg !3709
  invoke void @_ZNK13BridgeMessage1sE6String(%class.String* nonnull sret %6, %class.BridgeMessage* nonnull %29, %class.String* nonnull %7)
          to label %161 unwind label %219, !dbg !3710

30:                                               ; preds = %15, %89
  %31 = phi i32 [ 0, %15 ], [ %90, %89 ]
  call void @llvm.dbg.value(metadata i32 %31, metadata !3638, metadata !DIExpression()), !dbg !3667
  call void @llvm.dbg.value(metadata %class.Element* %16, metadata !3419, metadata !DIExpression()), !dbg !3668
  call void @llvm.dbg.value(metadata %class.Vector* %17, metadata !3419, metadata !DIExpression()), !dbg !3668
  %32 = invoke dereferenceable(72) %"struct.EtherSpanTree::PortInfo"* @_ZN6VectorIN13EtherSpanTree8PortInfoEEixEi(%class.Vector* nonnull %17, i32 %31)
          to label %33 unwind label %93, !dbg !3711

33:                                               ; preds = %30
  call void @llvm.dbg.value(metadata %class.String* %5, metadata !3681, metadata !DIExpression()), !dbg !3712
  call void @llvm.dbg.value(metadata i8* getelementptr inbounds ([1 x i8], [1 x i8]* @.str.6, i64 0, i64 0), metadata !3682, metadata !DIExpression()), !dbg !3712
  call void @llvm.dbg.value(metadata %class.String* %5, metadata !3646, metadata !DIExpression()), !dbg !3675
  call void @llvm.dbg.value(metadata i8* getelementptr inbounds ([1 x i8], [1 x i8]* @.str.6, i64 0, i64 0), metadata !3649, metadata !DIExpression()), !dbg !3675
  call void @llvm.dbg.value(metadata i32 0, metadata !3650, metadata !DIExpression()), !dbg !3675
  call void @llvm.dbg.value(metadata %"struct.String::memo_t"* null, metadata !3651, metadata !DIExpression()), !dbg !3675
  store i8* getelementptr inbounds ([1 x i8], [1 x i8]* @.str.6, i64 0, i64 0), i8** %18, align 8, !dbg !3713, !tbaa !3657
  store i32 0, i32* %19, align 8, !dbg !3714, !tbaa !3662
  store %"struct.String::memo_t"* null, %"struct.String::memo_t"** %20, align 8, !dbg !3715, !tbaa !3666
  %34 = getelementptr inbounds %"struct.EtherSpanTree::PortInfo", %"struct.EtherSpanTree::PortInfo"* %32, i64 0, i32 3, !dbg !3716
  invoke void @_ZNK13BridgeMessage1sE6String(%class.String* nonnull sret %4, %class.BridgeMessage* nonnull %34, %class.String* nonnull %5)
          to label %35 unwind label %97, !dbg !3717

35:                                               ; preds = %33
  call void @llvm.dbg.declare(metadata %class.String* %4, metadata !3696, metadata !DIExpression()), !dbg !3718
  call void @llvm.dbg.value(metadata i8* getelementptr inbounds ([2 x i8], [2 x i8]* @.str.7, i64 0, i64 0), metadata !3697, metadata !DIExpression()), !dbg !3719
  call void @llvm.dbg.value(metadata %class.String* %4, metadata !3720, metadata !DIExpression()), !dbg !3724
  call void @llvm.dbg.value(metadata i8* getelementptr inbounds ([2 x i8], [2 x i8]* @.str.7, i64 0, i64 0), metadata !3723, metadata !DIExpression()), !dbg !3724
  invoke void @_ZN6String6appendEPKciPNS_6memo_tE(%class.String* nonnull %4, i8* nonnull getelementptr inbounds ([2 x i8], [2 x i8]* @.str.7, i64 0, i64 0), i32 1, %"struct.String::memo_t"* nonnull inttoptr (i64 1 to %"struct.String::memo_t"*))
          to label %36 unwind label %101, !dbg !3726

36:                                               ; preds = %35
  call void @llvm.dbg.value(metadata %class.String* undef, metadata !3689, metadata !DIExpression()) #13, !dbg !3686
  call void @llvm.dbg.value(metadata %class.String* %4, metadata !3690, metadata !DIExpression()) #13, !dbg !3686
  %37 = load i8*, i8** %21, align 8, !dbg !3728, !tbaa.struct !3729
  %38 = load i32, i32* %22, align 8, !dbg !3728, !tbaa.struct !3729
  %39 = load %"struct.String::memo_t"*, %"struct.String::memo_t"** %23, align 8, !dbg !3728, !tbaa.struct !3729
  store %"struct.String::memo_t"* null, %"struct.String::memo_t"** %23, align 8, !dbg !3731, !tbaa !3666, !noalias !3733
  call void @llvm.dbg.value(metadata %class.String* %0, metadata !3736, metadata !DIExpression()), !dbg !3740
  call void @llvm.dbg.value(metadata %class.String* undef, metadata !3739, metadata !DIExpression()), !dbg !3740
  invoke void @_ZN6String6appendEPKciPNS_6memo_tE(%class.String* %0, i8* %37, i32 %38, %"struct.String::memo_t"* %39)
          to label %40 unwind label %105, !dbg !3742

40:                                               ; preds = %36
  call void @llvm.dbg.value(metadata %class.String* undef, metadata !3743, metadata !DIExpression()) #13, !dbg !3746
  call void @llvm.dbg.value(metadata %class.String* undef, metadata !3748, metadata !DIExpression()) #13, !dbg !3751
  %41 = icmp eq %"struct.String::memo_t"* %39, null, !dbg !3754
  br i1 %41, label %55, label %42, !dbg !3756

42:                                               ; preds = %40
  %43 = getelementptr inbounds %"struct.String::memo_t", %"struct.String::memo_t"* %39, i64 0, i32 0, !dbg !3757
  %44 = load volatile i32, i32* %43, align 4, !dbg !3757, !tbaa !3759
  %45 = icmp eq i32 %44, 0, !dbg !3757
  br i1 %45, label %46, label %47, !dbg !3757

46:                                               ; preds = %42
  call void @__assert_fail(i8* getelementptr inbounds ([18 x i8], [18 x i8]* @.str.16, i64 0, i64 0), i8* getelementptr inbounds ([29 x i8], [29 x i8]* @.str.17, i64 0, i64 0), i32 273, i8* getelementptr inbounds ([27 x i8], [27 x i8]* @__PRETTY_FUNCTION__._ZNK6String5derefEv, i64 0, i64 0)) #15, !dbg !3757
  unreachable, !dbg !3757

47:                                               ; preds = %42
  call void @llvm.dbg.value(metadata i32* %43, metadata !3761, metadata !DIExpression()) #13, !dbg !3764
  %48 = load volatile i32, i32* %43, align 4, !dbg !3767, !tbaa !3167
  %49 = add i32 %48, -1, !dbg !3767
  store volatile i32 %49, i32* %43, align 4, !dbg !3767, !tbaa !3167
  %50 = icmp eq i32 %49, 0, !dbg !3768
  br i1 %50, label %51, label %55, !dbg !3769

51:                                               ; preds = %47
  invoke void @_ZN6String11delete_memoEPNS_6memo_tE(%"struct.String::memo_t"* nonnull %39)
          to label %55 unwind label %52, !dbg !3770

52:                                               ; preds = %51
  %53 = landingpad { i8*, i32 }
          catch i8* null, !dbg !3771
  %54 = extractvalue { i8*, i32 } %53, 0, !dbg !3771
  call void @__clang_call_terminate(i8* %54) #15, !dbg !3771
  unreachable, !dbg !3771

55:                                               ; preds = %47, %51, %40
  call void @llvm.dbg.value(metadata %class.String* %4, metadata !3743, metadata !DIExpression()) #13, !dbg !3772
  call void @llvm.dbg.value(metadata %class.String* %4, metadata !3748, metadata !DIExpression()) #13, !dbg !3774
  %56 = load %"struct.String::memo_t"*, %"struct.String::memo_t"** %23, align 8, !dbg !3776, !tbaa !3666
  %57 = icmp eq %"struct.String::memo_t"* %56, null, !dbg !3777
  br i1 %57, label %72, label %58, !dbg !3778

58:                                               ; preds = %55
  %59 = getelementptr inbounds %"struct.String::memo_t", %"struct.String::memo_t"* %56, i64 0, i32 0, !dbg !3779
  %60 = load volatile i32, i32* %59, align 4, !dbg !3779, !tbaa !3759
  %61 = icmp eq i32 %60, 0, !dbg !3779
  br i1 %61, label %62, label %63, !dbg !3779

62:                                               ; preds = %58
  call void @__assert_fail(i8* getelementptr inbounds ([18 x i8], [18 x i8]* @.str.16, i64 0, i64 0), i8* getelementptr inbounds ([29 x i8], [29 x i8]* @.str.17, i64 0, i64 0), i32 273, i8* getelementptr inbounds ([27 x i8], [27 x i8]* @__PRETTY_FUNCTION__._ZNK6String5derefEv, i64 0, i64 0)) #15, !dbg !3779
  unreachable, !dbg !3779

63:                                               ; preds = %58
  call void @llvm.dbg.value(metadata i32* %59, metadata !3761, metadata !DIExpression()) #13, !dbg !3780
  %64 = load volatile i32, i32* %59, align 4, !dbg !3782, !tbaa !3167
  %65 = add i32 %64, -1, !dbg !3782
  store volatile i32 %65, i32* %59, align 4, !dbg !3782, !tbaa !3167
  %66 = icmp eq i32 %65, 0, !dbg !3783
  br i1 %66, label %67, label %68, !dbg !3784

67:                                               ; preds = %63
  invoke void @_ZN6String11delete_memoEPNS_6memo_tE(%"struct.String::memo_t"* nonnull %56)
          to label %68 unwind label %69, !dbg !3785

68:                                               ; preds = %67, %63
  store %"struct.String::memo_t"* null, %"struct.String::memo_t"** %23, align 8, !dbg !3786, !tbaa !3666
  br label %72, !dbg !3787

69:                                               ; preds = %67
  %70 = landingpad { i8*, i32 }
          catch i8* null, !dbg !3788
  %71 = extractvalue { i8*, i32 } %70, 0, !dbg !3788
  call void @__clang_call_terminate(i8* %71) #15, !dbg !3788
  unreachable, !dbg !3788

72:                                               ; preds = %55, %68
  call void @llvm.dbg.value(metadata %class.String* %5, metadata !3743, metadata !DIExpression()) #13, !dbg !3789
  call void @llvm.dbg.value(metadata %class.String* %5, metadata !3748, metadata !DIExpression()) #13, !dbg !3791
  %73 = load %"struct.String::memo_t"*, %"struct.String::memo_t"** %20, align 8, !dbg !3793, !tbaa !3666
  %74 = icmp eq %"struct.String::memo_t"* %73, null, !dbg !3794
  br i1 %74, label %89, label %75, !dbg !3795

75:                                               ; preds = %72
  %76 = getelementptr inbounds %"struct.String::memo_t", %"struct.String::memo_t"* %73, i64 0, i32 0, !dbg !3796
  %77 = load volatile i32, i32* %76, align 4, !dbg !3796, !tbaa !3759
  %78 = icmp eq i32 %77, 0, !dbg !3796
  br i1 %78, label %79, label %80, !dbg !3796

79:                                               ; preds = %75
  call void @__assert_fail(i8* getelementptr inbounds ([18 x i8], [18 x i8]* @.str.16, i64 0, i64 0), i8* getelementptr inbounds ([29 x i8], [29 x i8]* @.str.17, i64 0, i64 0), i32 273, i8* getelementptr inbounds ([27 x i8], [27 x i8]* @__PRETTY_FUNCTION__._ZNK6String5derefEv, i64 0, i64 0)) #15, !dbg !3796
  unreachable, !dbg !3796

80:                                               ; preds = %75
  call void @llvm.dbg.value(metadata i32* %76, metadata !3761, metadata !DIExpression()) #13, !dbg !3797
  %81 = load volatile i32, i32* %76, align 4, !dbg !3799, !tbaa !3167
  %82 = add i32 %81, -1, !dbg !3799
  store volatile i32 %82, i32* %76, align 4, !dbg !3799, !tbaa !3167
  %83 = icmp eq i32 %82, 0, !dbg !3800
  br i1 %83, label %84, label %85, !dbg !3801

84:                                               ; preds = %80
  invoke void @_ZN6String11delete_memoEPNS_6memo_tE(%"struct.String::memo_t"* nonnull %73)
          to label %85 unwind label %86, !dbg !3802

85:                                               ; preds = %84, %80
  store %"struct.String::memo_t"* null, %"struct.String::memo_t"** %20, align 8, !dbg !3803, !tbaa !3666
  br label %89, !dbg !3804

86:                                               ; preds = %84
  %87 = landingpad { i8*, i32 }
          catch i8* null, !dbg !3805
  %88 = extractvalue { i8*, i32 } %87, 0, !dbg !3805
  call void @__clang_call_terminate(i8* %88) #15, !dbg !3805
  unreachable, !dbg !3805

89:                                               ; preds = %72, %85
  %90 = add nuw nsw i32 %31, 1, !dbg !3806
  call void @llvm.dbg.value(metadata i32 %90, metadata !3638, metadata !DIExpression()), !dbg !3667
  call void @llvm.dbg.value(metadata %class.Element* %1, metadata !3419, metadata !DIExpression(DW_OP_plus_uconst, 224, DW_OP_stack_value)), !dbg !3668
  %91 = load i32, i32* %12, align 8, !dbg !3671, !tbaa !3427
  %92 = icmp slt i32 %90, %91, !dbg !3672
  br i1 %92, label %30, label %24, !dbg !3673, !llvm.loop !3807

93:                                               ; preds = %30
  %94 = landingpad { i8*, i32 }
          cleanup, !dbg !3809
  %95 = extractvalue { i8*, i32 } %94, 0, !dbg !3809
  %96 = extractvalue { i8*, i32 } %94, 1, !dbg !3809
  br label %284, !dbg !3809

97:                                               ; preds = %33
  %98 = landingpad { i8*, i32 }
          cleanup, !dbg !3809
  %99 = extractvalue { i8*, i32 } %98, 0, !dbg !3809
  %100 = extractvalue { i8*, i32 } %98, 1, !dbg !3809
  br label %142, !dbg !3809

101:                                              ; preds = %35
  %102 = landingpad { i8*, i32 }
          cleanup, !dbg !3809
  %103 = extractvalue { i8*, i32 } %102, 0, !dbg !3809
  %104 = extractvalue { i8*, i32 } %102, 1, !dbg !3809
  br label %123, !dbg !3809

105:                                              ; preds = %36
  %106 = landingpad { i8*, i32 }
          cleanup, !dbg !3809
  %107 = extractvalue { i8*, i32 } %106, 0, !dbg !3809
  %108 = extractvalue { i8*, i32 } %106, 1, !dbg !3809
  call void @llvm.dbg.value(metadata %class.String* undef, metadata !3743, metadata !DIExpression()) #13, !dbg !3810
  call void @llvm.dbg.value(metadata %class.String* undef, metadata !3748, metadata !DIExpression()) #13, !dbg !3812
  %109 = icmp eq %"struct.String::memo_t"* %39, null, !dbg !3814
  br i1 %109, label %123, label %110, !dbg !3815

110:                                              ; preds = %105
  %111 = getelementptr inbounds %"struct.String::memo_t", %"struct.String::memo_t"* %39, i64 0, i32 0, !dbg !3816
  %112 = load volatile i32, i32* %111, align 4, !dbg !3816, !tbaa !3759
  %113 = icmp eq i32 %112, 0, !dbg !3816
  br i1 %113, label %114, label %115, !dbg !3816

114:                                              ; preds = %110
  call void @__assert_fail(i8* getelementptr inbounds ([18 x i8], [18 x i8]* @.str.16, i64 0, i64 0), i8* getelementptr inbounds ([29 x i8], [29 x i8]* @.str.17, i64 0, i64 0), i32 273, i8* getelementptr inbounds ([27 x i8], [27 x i8]* @__PRETTY_FUNCTION__._ZNK6String5derefEv, i64 0, i64 0)) #15, !dbg !3816
  unreachable, !dbg !3816

115:                                              ; preds = %110
  call void @llvm.dbg.value(metadata i32* %111, metadata !3761, metadata !DIExpression()) #13, !dbg !3817
  %116 = load volatile i32, i32* %111, align 4, !dbg !3819, !tbaa !3167
  %117 = add i32 %116, -1, !dbg !3819
  store volatile i32 %117, i32* %111, align 4, !dbg !3819, !tbaa !3167
  %118 = icmp eq i32 %117, 0, !dbg !3820
  br i1 %118, label %119, label %123, !dbg !3821

119:                                              ; preds = %115
  invoke void @_ZN6String11delete_memoEPNS_6memo_tE(%"struct.String::memo_t"* nonnull %39)
          to label %123 unwind label %120, !dbg !3822

120:                                              ; preds = %119
  %121 = landingpad { i8*, i32 }
          catch i8* null, !dbg !3823
  %122 = extractvalue { i8*, i32 } %121, 0, !dbg !3823
  call void @__clang_call_terminate(i8* %122) #15, !dbg !3823
  unreachable, !dbg !3823

123:                                              ; preds = %105, %119, %115, %101
  %124 = phi i8* [ %103, %101 ], [ %107, %115 ], [ %107, %119 ], [ %107, %105 ], !dbg !3809
  %125 = phi i32 [ %104, %101 ], [ %108, %115 ], [ %108, %119 ], [ %108, %105 ], !dbg !3809
  call void @llvm.dbg.value(metadata %class.String* %4, metadata !3743, metadata !DIExpression()) #13, !dbg !3824
  call void @llvm.dbg.value(metadata %class.String* %4, metadata !3748, metadata !DIExpression()) #13, !dbg !3826
  %126 = load %"struct.String::memo_t"*, %"struct.String::memo_t"** %23, align 8, !dbg !3828, !tbaa !3666
  %127 = icmp eq %"struct.String::memo_t"* %126, null, !dbg !3829
  br i1 %127, label %142, label %128, !dbg !3830

128:                                              ; preds = %123
  %129 = getelementptr inbounds %"struct.String::memo_t", %"struct.String::memo_t"* %126, i64 0, i32 0, !dbg !3831
  %130 = load volatile i32, i32* %129, align 4, !dbg !3831, !tbaa !3759
  %131 = icmp eq i32 %130, 0, !dbg !3831
  br i1 %131, label %132, label %133, !dbg !3831

132:                                              ; preds = %128
  call void @__assert_fail(i8* getelementptr inbounds ([18 x i8], [18 x i8]* @.str.16, i64 0, i64 0), i8* getelementptr inbounds ([29 x i8], [29 x i8]* @.str.17, i64 0, i64 0), i32 273, i8* getelementptr inbounds ([27 x i8], [27 x i8]* @__PRETTY_FUNCTION__._ZNK6String5derefEv, i64 0, i64 0)) #15, !dbg !3831
  unreachable, !dbg !3831

133:                                              ; preds = %128
  call void @llvm.dbg.value(metadata i32* %129, metadata !3761, metadata !DIExpression()) #13, !dbg !3832
  %134 = load volatile i32, i32* %129, align 4, !dbg !3834, !tbaa !3167
  %135 = add i32 %134, -1, !dbg !3834
  store volatile i32 %135, i32* %129, align 4, !dbg !3834, !tbaa !3167
  %136 = icmp eq i32 %135, 0, !dbg !3835
  br i1 %136, label %137, label %138, !dbg !3836

137:                                              ; preds = %133
  invoke void @_ZN6String11delete_memoEPNS_6memo_tE(%"struct.String::memo_t"* nonnull %126)
          to label %138 unwind label %139, !dbg !3837

138:                                              ; preds = %137, %133
  store %"struct.String::memo_t"* null, %"struct.String::memo_t"** %23, align 8, !dbg !3838, !tbaa !3666
  br label %142, !dbg !3839

139:                                              ; preds = %137
  %140 = landingpad { i8*, i32 }
          catch i8* null, !dbg !3840
  %141 = extractvalue { i8*, i32 } %140, 0, !dbg !3840
  call void @__clang_call_terminate(i8* %141) #15, !dbg !3840
  unreachable, !dbg !3840

142:                                              ; preds = %138, %123, %97
  %143 = phi i8* [ %99, %97 ], [ %124, %123 ], [ %124, %138 ], !dbg !3809
  %144 = phi i32 [ %100, %97 ], [ %125, %123 ], [ %125, %138 ], !dbg !3809
  call void @llvm.dbg.value(metadata %class.String* %5, metadata !3743, metadata !DIExpression()) #13, !dbg !3841
  call void @llvm.dbg.value(metadata %class.String* %5, metadata !3748, metadata !DIExpression()) #13, !dbg !3843
  %145 = load %"struct.String::memo_t"*, %"struct.String::memo_t"** %20, align 8, !dbg !3845, !tbaa !3666
  %146 = icmp eq %"struct.String::memo_t"* %145, null, !dbg !3846
  br i1 %146, label %284, label %147, !dbg !3847

147:                                              ; preds = %142
  %148 = getelementptr inbounds %"struct.String::memo_t", %"struct.String::memo_t"* %145, i64 0, i32 0, !dbg !3848
  %149 = load volatile i32, i32* %148, align 4, !dbg !3848, !tbaa !3759
  %150 = icmp eq i32 %149, 0, !dbg !3848
  br i1 %150, label %151, label %152, !dbg !3848

151:                                              ; preds = %147
  call void @__assert_fail(i8* getelementptr inbounds ([18 x i8], [18 x i8]* @.str.16, i64 0, i64 0), i8* getelementptr inbounds ([29 x i8], [29 x i8]* @.str.17, i64 0, i64 0), i32 273, i8* getelementptr inbounds ([27 x i8], [27 x i8]* @__PRETTY_FUNCTION__._ZNK6String5derefEv, i64 0, i64 0)) #15, !dbg !3848
  unreachable, !dbg !3848

152:                                              ; preds = %147
  call void @llvm.dbg.value(metadata i32* %148, metadata !3761, metadata !DIExpression()) #13, !dbg !3849
  %153 = load volatile i32, i32* %148, align 4, !dbg !3851, !tbaa !3167
  %154 = add i32 %153, -1, !dbg !3851
  store volatile i32 %154, i32* %148, align 4, !dbg !3851, !tbaa !3167
  %155 = icmp eq i32 %154, 0, !dbg !3852
  br i1 %155, label %156, label %157, !dbg !3853

156:                                              ; preds = %152
  invoke void @_ZN6String11delete_memoEPNS_6memo_tE(%"struct.String::memo_t"* nonnull %145)
          to label %157 unwind label %158, !dbg !3854

157:                                              ; preds = %156, %152
  store %"struct.String::memo_t"* null, %"struct.String::memo_t"** %20, align 8, !dbg !3855, !tbaa !3666
  br label %284, !dbg !3856

158:                                              ; preds = %156
  %159 = landingpad { i8*, i32 }
          catch i8* null, !dbg !3857
  %160 = extractvalue { i8*, i32 } %159, 0, !dbg !3857
  call void @__clang_call_terminate(i8* %160) #15, !dbg !3857
  unreachable, !dbg !3857

161:                                              ; preds = %24
  call void @llvm.dbg.declare(metadata %class.String* %6, metadata !3696, metadata !DIExpression()), !dbg !3858
  call void @llvm.dbg.value(metadata i8* getelementptr inbounds ([2 x i8], [2 x i8]* @.str.7, i64 0, i64 0), metadata !3697, metadata !DIExpression()), !dbg !3860
  call void @llvm.dbg.value(metadata %class.String* %6, metadata !3720, metadata !DIExpression()), !dbg !3861
  call void @llvm.dbg.value(metadata i8* getelementptr inbounds ([2 x i8], [2 x i8]* @.str.7, i64 0, i64 0), metadata !3723, metadata !DIExpression()), !dbg !3861
  invoke void @_ZN6String6appendEPKciPNS_6memo_tE(%class.String* nonnull %6, i8* nonnull getelementptr inbounds ([2 x i8], [2 x i8]* @.str.7, i64 0, i64 0), i32 1, %"struct.String::memo_t"* nonnull inttoptr (i64 1 to %"struct.String::memo_t"*))
          to label %162 unwind label %223, !dbg !3863

162:                                              ; preds = %161
  call void @llvm.dbg.value(metadata %class.String* undef, metadata !3689, metadata !DIExpression()) #13, !dbg !3864
  call void @llvm.dbg.value(metadata %class.String* %6, metadata !3690, metadata !DIExpression()) #13, !dbg !3864
  %163 = getelementptr inbounds %class.String, %class.String* %6, i64 0, i32 0, i32 0, !dbg !3866
  %164 = load i8*, i8** %163, align 8, !dbg !3866, !tbaa.struct !3729
  %165 = getelementptr inbounds %class.String, %class.String* %6, i64 0, i32 0, i32 1, !dbg !3866
  %166 = load i32, i32* %165, align 8, !dbg !3866, !tbaa.struct !3729
  %167 = getelementptr inbounds %class.String, %class.String* %6, i64 0, i32 0, i32 2, !dbg !3866
  %168 = load %"struct.String::memo_t"*, %"struct.String::memo_t"** %167, align 8, !dbg !3866, !tbaa.struct !3729
  store %"struct.String::memo_t"* null, %"struct.String::memo_t"** %167, align 8, !dbg !3867, !tbaa !3666, !noalias !3868
  call void @llvm.dbg.value(metadata %class.String* %0, metadata !3736, metadata !DIExpression()), !dbg !3871
  call void @llvm.dbg.value(metadata %class.String* undef, metadata !3739, metadata !DIExpression()), !dbg !3871
  invoke void @_ZN6String6appendEPKciPNS_6memo_tE(%class.String* %0, i8* %164, i32 %166, %"struct.String::memo_t"* %168)
          to label %169 unwind label %227, !dbg !3873

169:                                              ; preds = %162
  call void @llvm.dbg.value(metadata %class.String* undef, metadata !3743, metadata !DIExpression()) #13, !dbg !3874
  call void @llvm.dbg.value(metadata %class.String* undef, metadata !3748, metadata !DIExpression()) #13, !dbg !3876
  %170 = icmp eq %"struct.String::memo_t"* %168, null, !dbg !3878
  br i1 %170, label %184, label %171, !dbg !3879

171:                                              ; preds = %169
  %172 = getelementptr inbounds %"struct.String::memo_t", %"struct.String::memo_t"* %168, i64 0, i32 0, !dbg !3880
  %173 = load volatile i32, i32* %172, align 4, !dbg !3880, !tbaa !3759
  %174 = icmp eq i32 %173, 0, !dbg !3880
  br i1 %174, label %175, label %176, !dbg !3880

175:                                              ; preds = %171
  call void @__assert_fail(i8* getelementptr inbounds ([18 x i8], [18 x i8]* @.str.16, i64 0, i64 0), i8* getelementptr inbounds ([29 x i8], [29 x i8]* @.str.17, i64 0, i64 0), i32 273, i8* getelementptr inbounds ([27 x i8], [27 x i8]* @__PRETTY_FUNCTION__._ZNK6String5derefEv, i64 0, i64 0)) #15, !dbg !3880
  unreachable, !dbg !3880

176:                                              ; preds = %171
  call void @llvm.dbg.value(metadata i32* %172, metadata !3761, metadata !DIExpression()) #13, !dbg !3881
  %177 = load volatile i32, i32* %172, align 4, !dbg !3883, !tbaa !3167
  %178 = add i32 %177, -1, !dbg !3883
  store volatile i32 %178, i32* %172, align 4, !dbg !3883, !tbaa !3167
  %179 = icmp eq i32 %178, 0, !dbg !3884
  br i1 %179, label %180, label %184, !dbg !3885

180:                                              ; preds = %176
  invoke void @_ZN6String11delete_memoEPNS_6memo_tE(%"struct.String::memo_t"* nonnull %168)
          to label %184 unwind label %181, !dbg !3886

181:                                              ; preds = %180
  %182 = landingpad { i8*, i32 }
          catch i8* null, !dbg !3887
  %183 = extractvalue { i8*, i32 } %182, 0, !dbg !3887
  call void @__clang_call_terminate(i8* %183) #15, !dbg !3887
  unreachable, !dbg !3887

184:                                              ; preds = %176, %180, %169
  call void @llvm.dbg.value(metadata %class.String* %6, metadata !3743, metadata !DIExpression()) #13, !dbg !3888
  call void @llvm.dbg.value(metadata %class.String* %6, metadata !3748, metadata !DIExpression()) #13, !dbg !3890
  %185 = load %"struct.String::memo_t"*, %"struct.String::memo_t"** %167, align 8, !dbg !3892, !tbaa !3666
  %186 = icmp eq %"struct.String::memo_t"* %185, null, !dbg !3893
  br i1 %186, label %201, label %187, !dbg !3894

187:                                              ; preds = %184
  %188 = getelementptr inbounds %"struct.String::memo_t", %"struct.String::memo_t"* %185, i64 0, i32 0, !dbg !3895
  %189 = load volatile i32, i32* %188, align 4, !dbg !3895, !tbaa !3759
  %190 = icmp eq i32 %189, 0, !dbg !3895
  br i1 %190, label %191, label %192, !dbg !3895

191:                                              ; preds = %187
  call void @__assert_fail(i8* getelementptr inbounds ([18 x i8], [18 x i8]* @.str.16, i64 0, i64 0), i8* getelementptr inbounds ([29 x i8], [29 x i8]* @.str.17, i64 0, i64 0), i32 273, i8* getelementptr inbounds ([27 x i8], [27 x i8]* @__PRETTY_FUNCTION__._ZNK6String5derefEv, i64 0, i64 0)) #15, !dbg !3895
  unreachable, !dbg !3895

192:                                              ; preds = %187
  call void @llvm.dbg.value(metadata i32* %188, metadata !3761, metadata !DIExpression()) #13, !dbg !3896
  %193 = load volatile i32, i32* %188, align 4, !dbg !3898, !tbaa !3167
  %194 = add i32 %193, -1, !dbg !3898
  store volatile i32 %194, i32* %188, align 4, !dbg !3898, !tbaa !3167
  %195 = icmp eq i32 %194, 0, !dbg !3899
  br i1 %195, label %196, label %197, !dbg !3900

196:                                              ; preds = %192
  invoke void @_ZN6String11delete_memoEPNS_6memo_tE(%"struct.String::memo_t"* nonnull %185)
          to label %197 unwind label %198, !dbg !3901

197:                                              ; preds = %196, %192
  store %"struct.String::memo_t"* null, %"struct.String::memo_t"** %167, align 8, !dbg !3902, !tbaa !3666
  br label %201, !dbg !3903

198:                                              ; preds = %196
  %199 = landingpad { i8*, i32 }
          catch i8* null, !dbg !3904
  %200 = extractvalue { i8*, i32 } %199, 0, !dbg !3904
  call void @__clang_call_terminate(i8* %200) #15, !dbg !3904
  unreachable, !dbg !3904

201:                                              ; preds = %184, %197
  call void @llvm.dbg.value(metadata %class.String* %7, metadata !3743, metadata !DIExpression()) #13, !dbg !3905
  call void @llvm.dbg.value(metadata %class.String* %7, metadata !3748, metadata !DIExpression()) #13, !dbg !3907
  %202 = load %"struct.String::memo_t"*, %"struct.String::memo_t"** %27, align 8, !dbg !3909, !tbaa !3666
  %203 = icmp eq %"struct.String::memo_t"* %202, null, !dbg !3910
  br i1 %203, label %218, label %204, !dbg !3911

204:                                              ; preds = %201
  %205 = getelementptr inbounds %"struct.String::memo_t", %"struct.String::memo_t"* %202, i64 0, i32 0, !dbg !3912
  %206 = load volatile i32, i32* %205, align 4, !dbg !3912, !tbaa !3759
  %207 = icmp eq i32 %206, 0, !dbg !3912
  br i1 %207, label %208, label %209, !dbg !3912

208:                                              ; preds = %204
  call void @__assert_fail(i8* getelementptr inbounds ([18 x i8], [18 x i8]* @.str.16, i64 0, i64 0), i8* getelementptr inbounds ([29 x i8], [29 x i8]* @.str.17, i64 0, i64 0), i32 273, i8* getelementptr inbounds ([27 x i8], [27 x i8]* @__PRETTY_FUNCTION__._ZNK6String5derefEv, i64 0, i64 0)) #15, !dbg !3912
  unreachable, !dbg !3912

209:                                              ; preds = %204
  call void @llvm.dbg.value(metadata i32* %205, metadata !3761, metadata !DIExpression()) #13, !dbg !3913
  %210 = load volatile i32, i32* %205, align 4, !dbg !3915, !tbaa !3167
  %211 = add i32 %210, -1, !dbg !3915
  store volatile i32 %211, i32* %205, align 4, !dbg !3915, !tbaa !3167
  %212 = icmp eq i32 %211, 0, !dbg !3916
  br i1 %212, label %213, label %214, !dbg !3917

213:                                              ; preds = %209
  invoke void @_ZN6String11delete_memoEPNS_6memo_tE(%"struct.String::memo_t"* nonnull %202)
          to label %214 unwind label %215, !dbg !3918

214:                                              ; preds = %213, %209
  store %"struct.String::memo_t"* null, %"struct.String::memo_t"** %27, align 8, !dbg !3919, !tbaa !3666
  br label %218, !dbg !3920

215:                                              ; preds = %213
  %216 = landingpad { i8*, i32 }
          catch i8* null, !dbg !3921
  %217 = extractvalue { i8*, i32 } %216, 0, !dbg !3921
  call void @__clang_call_terminate(i8* %217) #15, !dbg !3921
  unreachable, !dbg !3921

218:                                              ; preds = %201, %214
  ret void, !dbg !3922

219:                                              ; preds = %24
  %220 = landingpad { i8*, i32 }
          cleanup, !dbg !3922
  %221 = extractvalue { i8*, i32 } %220, 0, !dbg !3922
  %222 = extractvalue { i8*, i32 } %220, 1, !dbg !3922
  br label %265, !dbg !3922

223:                                              ; preds = %161
  %224 = landingpad { i8*, i32 }
          cleanup, !dbg !3922
  %225 = extractvalue { i8*, i32 } %224, 0, !dbg !3922
  %226 = extractvalue { i8*, i32 } %224, 1, !dbg !3922
  br label %245, !dbg !3922

227:                                              ; preds = %162
  %228 = landingpad { i8*, i32 }
          cleanup, !dbg !3922
  %229 = extractvalue { i8*, i32 } %228, 0, !dbg !3922
  %230 = extractvalue { i8*, i32 } %228, 1, !dbg !3922
  call void @llvm.dbg.value(metadata %class.String* undef, metadata !3743, metadata !DIExpression()) #13, !dbg !3923
  call void @llvm.dbg.value(metadata %class.String* undef, metadata !3748, metadata !DIExpression()) #13, !dbg !3925
  %231 = icmp eq %"struct.String::memo_t"* %168, null, !dbg !3927
  br i1 %231, label %245, label %232, !dbg !3928

232:                                              ; preds = %227
  %233 = getelementptr inbounds %"struct.String::memo_t", %"struct.String::memo_t"* %168, i64 0, i32 0, !dbg !3929
  %234 = load volatile i32, i32* %233, align 4, !dbg !3929, !tbaa !3759
  %235 = icmp eq i32 %234, 0, !dbg !3929
  br i1 %235, label %236, label %237, !dbg !3929

236:                                              ; preds = %232
  call void @__assert_fail(i8* getelementptr inbounds ([18 x i8], [18 x i8]* @.str.16, i64 0, i64 0), i8* getelementptr inbounds ([29 x i8], [29 x i8]* @.str.17, i64 0, i64 0), i32 273, i8* getelementptr inbounds ([27 x i8], [27 x i8]* @__PRETTY_FUNCTION__._ZNK6String5derefEv, i64 0, i64 0)) #15, !dbg !3929
  unreachable, !dbg !3929

237:                                              ; preds = %232
  call void @llvm.dbg.value(metadata i32* %233, metadata !3761, metadata !DIExpression()) #13, !dbg !3930
  %238 = load volatile i32, i32* %233, align 4, !dbg !3932, !tbaa !3167
  %239 = add i32 %238, -1, !dbg !3932
  store volatile i32 %239, i32* %233, align 4, !dbg !3932, !tbaa !3167
  %240 = icmp eq i32 %239, 0, !dbg !3933
  br i1 %240, label %241, label %245, !dbg !3934

241:                                              ; preds = %237
  invoke void @_ZN6String11delete_memoEPNS_6memo_tE(%"struct.String::memo_t"* nonnull %168)
          to label %245 unwind label %242, !dbg !3935

242:                                              ; preds = %241
  %243 = landingpad { i8*, i32 }
          catch i8* null, !dbg !3936
  %244 = extractvalue { i8*, i32 } %243, 0, !dbg !3936
  call void @__clang_call_terminate(i8* %244) #15, !dbg !3936
  unreachable, !dbg !3936

245:                                              ; preds = %227, %241, %237, %223
  %246 = phi i8* [ %225, %223 ], [ %229, %237 ], [ %229, %241 ], [ %229, %227 ], !dbg !3922
  %247 = phi i32 [ %226, %223 ], [ %230, %237 ], [ %230, %241 ], [ %230, %227 ], !dbg !3922
  call void @llvm.dbg.value(metadata %class.String* %6, metadata !3743, metadata !DIExpression()) #13, !dbg !3937
  call void @llvm.dbg.value(metadata %class.String* %6, metadata !3748, metadata !DIExpression()) #13, !dbg !3939
  %248 = getelementptr inbounds %class.String, %class.String* %6, i64 0, i32 0, i32 2, !dbg !3941
  %249 = load %"struct.String::memo_t"*, %"struct.String::memo_t"** %248, align 8, !dbg !3941, !tbaa !3666
  %250 = icmp eq %"struct.String::memo_t"* %249, null, !dbg !3942
  br i1 %250, label %265, label %251, !dbg !3943

251:                                              ; preds = %245
  %252 = getelementptr inbounds %"struct.String::memo_t", %"struct.String::memo_t"* %249, i64 0, i32 0, !dbg !3944
  %253 = load volatile i32, i32* %252, align 4, !dbg !3944, !tbaa !3759
  %254 = icmp eq i32 %253, 0, !dbg !3944
  br i1 %254, label %255, label %256, !dbg !3944

255:                                              ; preds = %251
  call void @__assert_fail(i8* getelementptr inbounds ([18 x i8], [18 x i8]* @.str.16, i64 0, i64 0), i8* getelementptr inbounds ([29 x i8], [29 x i8]* @.str.17, i64 0, i64 0), i32 273, i8* getelementptr inbounds ([27 x i8], [27 x i8]* @__PRETTY_FUNCTION__._ZNK6String5derefEv, i64 0, i64 0)) #15, !dbg !3944
  unreachable, !dbg !3944

256:                                              ; preds = %251
  call void @llvm.dbg.value(metadata i32* %252, metadata !3761, metadata !DIExpression()) #13, !dbg !3945
  %257 = load volatile i32, i32* %252, align 4, !dbg !3947, !tbaa !3167
  %258 = add i32 %257, -1, !dbg !3947
  store volatile i32 %258, i32* %252, align 4, !dbg !3947, !tbaa !3167
  %259 = icmp eq i32 %258, 0, !dbg !3948
  br i1 %259, label %260, label %261, !dbg !3949

260:                                              ; preds = %256
  invoke void @_ZN6String11delete_memoEPNS_6memo_tE(%"struct.String::memo_t"* nonnull %249)
          to label %261 unwind label %262, !dbg !3950

261:                                              ; preds = %260, %256
  store %"struct.String::memo_t"* null, %"struct.String::memo_t"** %248, align 8, !dbg !3951, !tbaa !3666
  br label %265, !dbg !3952

262:                                              ; preds = %260
  %263 = landingpad { i8*, i32 }
          catch i8* null, !dbg !3953
  %264 = extractvalue { i8*, i32 } %263, 0, !dbg !3953
  call void @__clang_call_terminate(i8* %264) #15, !dbg !3953
  unreachable, !dbg !3953

265:                                              ; preds = %261, %245, %219
  %266 = phi i8* [ %221, %219 ], [ %246, %245 ], [ %246, %261 ], !dbg !3922
  %267 = phi i32 [ %222, %219 ], [ %247, %245 ], [ %247, %261 ], !dbg !3922
  call void @llvm.dbg.value(metadata %class.String* %7, metadata !3743, metadata !DIExpression()) #13, !dbg !3954
  call void @llvm.dbg.value(metadata %class.String* %7, metadata !3748, metadata !DIExpression()) #13, !dbg !3956
  %268 = load %"struct.String::memo_t"*, %"struct.String::memo_t"** %27, align 8, !dbg !3958, !tbaa !3666
  %269 = icmp eq %"struct.String::memo_t"* %268, null, !dbg !3959
  br i1 %269, label %284, label %270, !dbg !3960

270:                                              ; preds = %265
  %271 = getelementptr inbounds %"struct.String::memo_t", %"struct.String::memo_t"* %268, i64 0, i32 0, !dbg !3961
  %272 = load volatile i32, i32* %271, align 4, !dbg !3961, !tbaa !3759
  %273 = icmp eq i32 %272, 0, !dbg !3961
  br i1 %273, label %274, label %275, !dbg !3961

274:                                              ; preds = %270
  call void @__assert_fail(i8* getelementptr inbounds ([18 x i8], [18 x i8]* @.str.16, i64 0, i64 0), i8* getelementptr inbounds ([29 x i8], [29 x i8]* @.str.17, i64 0, i64 0), i32 273, i8* getelementptr inbounds ([27 x i8], [27 x i8]* @__PRETTY_FUNCTION__._ZNK6String5derefEv, i64 0, i64 0)) #15, !dbg !3961
  unreachable, !dbg !3961

275:                                              ; preds = %270
  call void @llvm.dbg.value(metadata i32* %271, metadata !3761, metadata !DIExpression()) #13, !dbg !3962
  %276 = load volatile i32, i32* %271, align 4, !dbg !3964, !tbaa !3167
  %277 = add i32 %276, -1, !dbg !3964
  store volatile i32 %277, i32* %271, align 4, !dbg !3964, !tbaa !3167
  %278 = icmp eq i32 %277, 0, !dbg !3965
  br i1 %278, label %279, label %280, !dbg !3966

279:                                              ; preds = %275
  invoke void @_ZN6String11delete_memoEPNS_6memo_tE(%"struct.String::memo_t"* nonnull %268)
          to label %280 unwind label %281, !dbg !3967

280:                                              ; preds = %279, %275
  store %"struct.String::memo_t"* null, %"struct.String::memo_t"** %27, align 8, !dbg !3968, !tbaa !3666
  br label %284, !dbg !3969

281:                                              ; preds = %279
  %282 = landingpad { i8*, i32 }
          catch i8* null, !dbg !3970
  %283 = extractvalue { i8*, i32 } %282, 0, !dbg !3970
  call void @__clang_call_terminate(i8* %283) #15, !dbg !3970
  unreachable, !dbg !3970

284:                                              ; preds = %265, %280, %93, %142, %157
  %285 = phi i8* [ %95, %93 ], [ %143, %142 ], [ %143, %157 ], [ %266, %265 ], [ %266, %280 ], !dbg !3640
  %286 = phi i32 [ %96, %93 ], [ %144, %142 ], [ %144, %157 ], [ %267, %265 ], [ %267, %280 ], !dbg !3640
  call void @llvm.dbg.value(metadata %class.String* %0, metadata !3743, metadata !DIExpression()) #13, !dbg !3971
  call void @llvm.dbg.value(metadata %class.String* %0, metadata !3748, metadata !DIExpression()) #13, !dbg !3973
  %287 = load %"struct.String::memo_t"*, %"struct.String::memo_t"** %10, align 8, !dbg !3975, !tbaa !3666
  %288 = icmp eq %"struct.String::memo_t"* %287, null, !dbg !3976
  br i1 %288, label %303, label %289, !dbg !3977

289:                                              ; preds = %284
  %290 = getelementptr inbounds %"struct.String::memo_t", %"struct.String::memo_t"* %287, i64 0, i32 0, !dbg !3978
  %291 = load volatile i32, i32* %290, align 4, !dbg !3978, !tbaa !3759
  %292 = icmp eq i32 %291, 0, !dbg !3978
  br i1 %292, label %293, label %294, !dbg !3978

293:                                              ; preds = %289
  call void @__assert_fail(i8* getelementptr inbounds ([18 x i8], [18 x i8]* @.str.16, i64 0, i64 0), i8* getelementptr inbounds ([29 x i8], [29 x i8]* @.str.17, i64 0, i64 0), i32 273, i8* getelementptr inbounds ([27 x i8], [27 x i8]* @__PRETTY_FUNCTION__._ZNK6String5derefEv, i64 0, i64 0)) #15, !dbg !3978
  unreachable, !dbg !3978

294:                                              ; preds = %289
  call void @llvm.dbg.value(metadata i32* %290, metadata !3761, metadata !DIExpression()) #13, !dbg !3979
  %295 = load volatile i32, i32* %290, align 4, !dbg !3981, !tbaa !3167
  %296 = add i32 %295, -1, !dbg !3981
  store volatile i32 %296, i32* %290, align 4, !dbg !3981, !tbaa !3167
  %297 = icmp eq i32 %296, 0, !dbg !3982
  br i1 %297, label %298, label %299, !dbg !3983

298:                                              ; preds = %294
  invoke void @_ZN6String11delete_memoEPNS_6memo_tE(%"struct.String::memo_t"* nonnull %287)
          to label %299 unwind label %300, !dbg !3984

299:                                              ; preds = %298, %294
  store %"struct.String::memo_t"* null, %"struct.String::memo_t"** %10, align 8, !dbg !3985, !tbaa !3666
  br label %303, !dbg !3986

300:                                              ; preds = %298
  %301 = landingpad { i8*, i32 }
          catch i8* null, !dbg !3987
  %302 = extractvalue { i8*, i32 } %301, 0, !dbg !3987
  call void @__clang_call_terminate(i8* %302) #15, !dbg !3987
  unreachable, !dbg !3987

303:                                              ; preds = %284, %299
  %304 = insertvalue { i8*, i32 } undef, i8* %285, 0, !dbg !3922
  %305 = insertvalue { i8*, i32 } %304, i32 %286, 1, !dbg !3922
  resume { i8*, i32 } %305, !dbg !3922
}

declare dereferenceable(72) %"struct.EtherSpanTree::PortInfo"* @_ZN6VectorIN13EtherSpanTree8PortInfoEEixEi(%class.Vector*, i32) local_unnamed_addr #2

declare void @_ZNK13BridgeMessage1sE6String(%class.String* sret, %class.BridgeMessage*, %class.String*) local_unnamed_addr #2

; Function Attrs: sspstrong uwtable
define dso_local void @_ZN13EtherSpanTree12add_handlersEv(%class.EtherSpanTree* %0) unnamed_addr #0 align 2 !dbg !3988 {
  call void @llvm.dbg.value(metadata %class.EtherSpanTree* %0, metadata !3990, metadata !DIExpression()), !dbg !3991
  %2 = bitcast %class.EtherSpanTree* %0 to %class.Element*, !dbg !3992
  tail call void @_ZN7Element16add_read_handlerEPKcPF6StringPS_PvEij(%class.Element* %2, i8* getelementptr inbounds ([5 x i8], [5 x i8]* @.str.8, i64 0, i64 0), void (%class.String*, %class.Element*, i8*)* nonnull @_ZN13EtherSpanTree9read_msgsEP7ElementPv, i32 0, i32 0), !dbg !3992
  ret void, !dbg !3993
}

declare void @_ZN7Element16add_read_handlerEPKcPF6StringPS_PvEij(%class.Element*, i8*, void (%class.String*, %class.Element*, i8*)*, i32, i32) local_unnamed_addr #2

; Function Attrs: sspstrong uwtable
define dso_local void @_ZN13EtherSpanTree8periodicEv(%class.EtherSpanTree* %0) local_unnamed_addr #0 align 2 !dbg !3994 {
  %2 = alloca %class.Timestamp, align 8
  call void @llvm.dbg.declare(metadata %class.Timestamp* %2, metadata !3461, metadata !DIExpression()), !dbg !4000
  %3 = alloca %class.Timestamp, align 8
  call void @llvm.dbg.declare(metadata %class.Timestamp* %3, metadata !4005, metadata !DIExpression()), !dbg !4010
  %4 = alloca %class.Timestamp, align 8
  call void @llvm.dbg.declare(metadata %class.Timestamp* %4, metadata !3461, metadata !DIExpression()), !dbg !4011
  call void @llvm.dbg.value(metadata %class.EtherSpanTree* %0, metadata !3996, metadata !DIExpression()), !dbg !4013
  %5 = bitcast %class.Timestamp* %4 to i8*, !dbg !4014
  call void @llvm.lifetime.start.p0i8(i64 8, i8* nonnull %5), !dbg !4014
  call void @_ZN9Timestamp10assign_nowEv(%class.Timestamp* nonnull %4), !dbg !4014
  %6 = getelementptr inbounds %class.Timestamp, %class.Timestamp* %4, i64 0, i32 0, i32 0, !dbg !4015
  %7 = load i64, i64* %6, align 8, !dbg !4015
  call void @llvm.lifetime.end.p0i8(i64 8, i8* nonnull %5), !dbg !4015
  %8 = getelementptr inbounds %class.EtherSpanTree, %class.EtherSpanTree* %0, i64 0, i32 10, i32 2, !dbg !4016
  %9 = load i32, i32* %8, align 8, !dbg !4016, !tbaa !4017
  call void @llvm.dbg.value(metadata %class.Timestamp* undef, metadata !4018, metadata !DIExpression()), !dbg !4023
  call void @llvm.dbg.value(metadata i32 %9, metadata !4021, metadata !DIExpression()), !dbg !4023
  call void @llvm.dbg.value(metadata i32 0, metadata !4022, metadata !DIExpression()), !dbg !4023
  call void @llvm.dbg.value(metadata %class.Timestamp* undef, metadata !3093, metadata !DIExpression()), !dbg !4025
  call void @llvm.dbg.value(metadata i32 %9, metadata !3096, metadata !DIExpression()), !dbg !4025
  call void @llvm.dbg.value(metadata i32 0, metadata !3097, metadata !DIExpression()), !dbg !4025
  %10 = sext i32 %9 to i64, !dbg !4028
  call void @llvm.dbg.value(metadata i64 %7, metadata !4029, metadata !DIExpression()), !dbg !4035
  call void @llvm.dbg.value(metadata %class.Timestamp* undef, metadata !4034, metadata !DIExpression()), !dbg !4035
  call void @llvm.dbg.value(metadata %class.Timestamp* undef, metadata !4037, metadata !DIExpression()), !dbg !4043
  call void @llvm.dbg.value(metadata %class.Timestamp* undef, metadata !4042, metadata !DIExpression()), !dbg !4043
  %11 = mul nsw i64 %10, -1000000000, !dbg !4045
  %12 = add i64 %11, %7, !dbg !4045
  call void @llvm.dbg.value(metadata i64 %12, metadata !4029, metadata !DIExpression()), !dbg !4035
  call void @llvm.dbg.value(metadata i64 %12, metadata !3997, metadata !DIExpression()), !dbg !4013
  call void @llvm.dbg.value(metadata i32 0, metadata !3998, metadata !DIExpression()), !dbg !4046
  %13 = getelementptr inbounds %class.EtherSpanTree, %class.EtherSpanTree* %0, i64 0, i32 11, !dbg !4047
  call void @llvm.dbg.value(metadata %class.Vector* %13, metadata !3419, metadata !DIExpression()), !dbg !4049
  %14 = getelementptr inbounds %class.EtherSpanTree, %class.EtherSpanTree* %0, i64 0, i32 11, i32 0, i32 1, !dbg !4051
  %15 = load i32, i32* %14, align 8, !dbg !4051, !tbaa !3427
  %16 = icmp sgt i32 %15, 0, !dbg !4052
  br i1 %16, label %41, label %17, !dbg !4053

17:                                               ; preds = %59, %1
  call void @llvm.dbg.value(metadata %class.EtherSpanTree* %0, metadata !4004, metadata !DIExpression()), !dbg !4054
  %18 = bitcast %class.Timestamp* %3 to i8*, !dbg !4055
  call void @llvm.lifetime.start.p0i8(i64 8, i8* nonnull %18) #13, !dbg !4055
  %19 = bitcast %class.Timestamp* %2 to i8*, !dbg !4056
  call void @llvm.lifetime.start.p0i8(i64 8, i8* nonnull %19), !dbg !4056
  call void @_ZN9Timestamp10assign_nowEv(%class.Timestamp* nonnull %2), !dbg !4056
  %20 = getelementptr inbounds %class.Timestamp, %class.Timestamp* %2, i64 0, i32 0, i32 0, !dbg !4057
  %21 = load i64, i64* %20, align 8, !dbg !4057
  call void @llvm.lifetime.end.p0i8(i64 8, i8* nonnull %19), !dbg !4057
  %22 = getelementptr inbounds %class.EtherSpanTree, %class.EtherSpanTree* %0, i64 0, i32 10, i32 0, !dbg !4058
  %23 = load i32, i32* %22, align 8, !dbg !4058, !tbaa !4059
  call void @llvm.dbg.value(metadata %class.Timestamp* undef, metadata !4018, metadata !DIExpression()), !dbg !4060
  call void @llvm.dbg.value(metadata i32 %23, metadata !4021, metadata !DIExpression()), !dbg !4060
  call void @llvm.dbg.value(metadata i32 0, metadata !4022, metadata !DIExpression()), !dbg !4060
  call void @llvm.dbg.value(metadata %class.Timestamp* undef, metadata !3093, metadata !DIExpression()), !dbg !4062
  call void @llvm.dbg.value(metadata i32 %23, metadata !3096, metadata !DIExpression()), !dbg !4062
  call void @llvm.dbg.value(metadata i32 0, metadata !3097, metadata !DIExpression()), !dbg !4062
  %24 = sext i32 %23 to i64, !dbg !4064
  call void @llvm.dbg.value(metadata i64 %21, metadata !4029, metadata !DIExpression()), !dbg !4065
  call void @llvm.dbg.value(metadata %class.Timestamp* undef, metadata !4034, metadata !DIExpression()), !dbg !4065
  call void @llvm.dbg.value(metadata %class.Timestamp* undef, metadata !4037, metadata !DIExpression()), !dbg !4067
  call void @llvm.dbg.value(metadata %class.Timestamp* undef, metadata !4042, metadata !DIExpression()), !dbg !4067
  %25 = mul nsw i64 %24, -1000000000, !dbg !4069
  %26 = add i64 %25, %21, !dbg !4069
  call void @llvm.dbg.value(metadata i64 %26, metadata !4029, metadata !DIExpression()), !dbg !4065
  %27 = getelementptr inbounds %class.Timestamp, %class.Timestamp* %3, i64 0, i32 0, i32 0, !dbg !4070
  store i64 %26, i64* %27, align 8, !dbg !4070
  call void @llvm.dbg.value(metadata i8 0, metadata !4006, metadata !DIExpression()), !dbg !4054
  call void @llvm.dbg.value(metadata i32 0, metadata !4007, metadata !DIExpression()), !dbg !4071
  call void @llvm.dbg.value(metadata %class.EtherSpanTree* %0, metadata !3419, metadata !DIExpression(DW_OP_plus_uconst, 224, DW_OP_stack_value)), !dbg !4072
  %28 = load i32, i32* %14, align 8, !dbg !4075, !tbaa !3427
  %29 = icmp sgt i32 %28, 0, !dbg !4076
  br i1 %29, label %30, label %40, !dbg !4077

30:                                               ; preds = %17, %36
  %31 = phi i32 [ %37, %36 ], [ 0, %17 ]
  call void @llvm.dbg.value(metadata i32 %31, metadata !4007, metadata !DIExpression()), !dbg !4071
  call void @llvm.dbg.value(metadata i8 undef, metadata !4006, metadata !DIExpression()), !dbg !4054
  call void @llvm.dbg.value(metadata %class.Vector* %13, metadata !3419, metadata !DIExpression()), !dbg !4072
  %32 = call dereferenceable(72) %"struct.EtherSpanTree::PortInfo"* @_ZN6VectorIN13EtherSpanTree8PortInfoEEixEi(%class.Vector* nonnull %13, i32 %31), !dbg !4078
  %33 = getelementptr inbounds %"struct.EtherSpanTree::PortInfo", %"struct.EtherSpanTree::PortInfo"* %32, i64 0, i32 3, !dbg !4081
  %34 = call zeroext i1 @_ZN13BridgeMessage6expireERK9Timestamp(%class.BridgeMessage* nonnull %33, %class.Timestamp* nonnull dereferenceable(8) %3), !dbg !4082
  br i1 %34, label %35, label %36, !dbg !4083

35:                                               ; preds = %30
  call void @llvm.dbg.value(metadata i8 1, metadata !4006, metadata !DIExpression()), !dbg !4054
  call void (i8*, ...) @click_chatter(i8* getelementptr inbounds ([28 x i8], [28 x i8]* @.str.9, i64 0, i64 0), i32 %31), !dbg !4084
  br label %36, !dbg !4086

36:                                               ; preds = %35, %30
  call void @llvm.dbg.value(metadata i8 undef, metadata !4006, metadata !DIExpression()), !dbg !4054
  %37 = add nuw nsw i32 %31, 1, !dbg !4087
  call void @llvm.dbg.value(metadata i32 %37, metadata !4007, metadata !DIExpression()), !dbg !4071
  call void @llvm.dbg.value(metadata %class.EtherSpanTree* %0, metadata !3419, metadata !DIExpression(DW_OP_plus_uconst, 224, DW_OP_stack_value)), !dbg !4072
  %38 = load i32, i32* %14, align 8, !dbg !4075, !tbaa !3427
  %39 = icmp slt i32 %37, %38, !dbg !4076
  br i1 %39, label %30, label %40, !dbg !4077, !llvm.loop !4088

40:                                               ; preds = %36, %17
  call void @llvm.dbg.value(metadata i8 undef, metadata !4006, metadata !DIExpression()), !dbg !4054
  call void @llvm.lifetime.end.p0i8(i64 8, i8* nonnull %18) #13, !dbg !4090
  call void @_ZN13EtherSpanTree9find_treeEv(%class.EtherSpanTree* nonnull %0), !dbg !4091
  ret void, !dbg !4092

41:                                               ; preds = %1, %59
  %42 = phi i32 [ %60, %59 ], [ 0, %1 ]
  call void @llvm.dbg.value(metadata i32 %42, metadata !3998, metadata !DIExpression()), !dbg !4046
  %43 = call dereferenceable(72) %"struct.EtherSpanTree::PortInfo"* @_ZN6VectorIN13EtherSpanTree8PortInfoEEixEi(%class.Vector* nonnull %13, i32 %42), !dbg !4093
  %44 = getelementptr inbounds %"struct.EtherSpanTree::PortInfo", %"struct.EtherSpanTree::PortInfo"* %43, i64 0, i32 0, !dbg !4096
  %45 = load i32, i32* %44, align 8, !dbg !4096, !tbaa !3295
  %46 = icmp eq i32 %45, 1, !dbg !4097
  br i1 %46, label %52, label %47, !dbg !4098

47:                                               ; preds = %41
  %48 = call dereferenceable(72) %"struct.EtherSpanTree::PortInfo"* @_ZN6VectorIN13EtherSpanTree8PortInfoEEixEi(%class.Vector* nonnull %13, i32 %42), !dbg !4099
  %49 = getelementptr inbounds %"struct.EtherSpanTree::PortInfo", %"struct.EtherSpanTree::PortInfo"* %48, i64 0, i32 0, !dbg !4100
  %50 = load i32, i32* %49, align 8, !dbg !4100, !tbaa !3295
  %51 = icmp eq i32 %50, 2, !dbg !4101
  br i1 %51, label %52, label %59, !dbg !4102

52:                                               ; preds = %47, %41
  %53 = call dereferenceable(72) %"struct.EtherSpanTree::PortInfo"* @_ZN6VectorIN13EtherSpanTree8PortInfoEEixEi(%class.Vector* nonnull %13, i32 %42), !dbg !4103
  call void @llvm.dbg.value(metadata %"struct.EtherSpanTree::PortInfo"* %53, metadata !4105, metadata !DIExpression(DW_OP_plus_uconst, 8, DW_OP_stack_value)), !dbg !4111
  call void @llvm.dbg.value(metadata %class.Timestamp* undef, metadata !4110, metadata !DIExpression()), !dbg !4111
  %54 = getelementptr inbounds %"struct.EtherSpanTree::PortInfo", %"struct.EtherSpanTree::PortInfo"* %53, i64 0, i32 1, i32 0, i32 0, !dbg !4113
  %55 = load i64, i64* %54, align 8, !dbg !4113, !tbaa !3103
  %56 = icmp slt i64 %55, %12, !dbg !4114
  br i1 %56, label %57, label %59, !dbg !4115

57:                                               ; preds = %52
  %58 = call zeroext i1 @_ZN13EtherSpanTree9set_stateEiNS_9PortStateE(%class.EtherSpanTree* nonnull %0, i32 %42, i32 3), !dbg !4116
  br label %59, !dbg !4118

59:                                               ; preds = %47, %57, %52
  %60 = add nuw nsw i32 %42, 1, !dbg !4119
  call void @llvm.dbg.value(metadata i32 %60, metadata !3998, metadata !DIExpression()), !dbg !4046
  call void @llvm.dbg.value(metadata %class.Vector* %13, metadata !3419, metadata !DIExpression()), !dbg !4049
  %61 = load i32, i32* %14, align 8, !dbg !4051, !tbaa !3427
  %62 = icmp slt i32 %60, %61, !dbg !4052
  br i1 %62, label %41, label %17, !dbg !4053, !llvm.loop !4120
}

; Function Attrs: sspstrong uwtable
define dso_local zeroext i1 @_ZN13EtherSpanTree6expireEv(%class.EtherSpanTree* %0) local_unnamed_addr #0 align 2 !dbg !4002 {
  %2 = alloca %class.Timestamp, align 8
  call void @llvm.dbg.declare(metadata %class.Timestamp* %2, metadata !3461, metadata !DIExpression()), !dbg !4122
  %3 = alloca %class.Timestamp, align 8
  call void @llvm.dbg.value(metadata %class.EtherSpanTree* %0, metadata !4004, metadata !DIExpression()), !dbg !4124
  %4 = bitcast %class.Timestamp* %3 to i8*, !dbg !4125
  call void @llvm.lifetime.start.p0i8(i64 8, i8* nonnull %4) #13, !dbg !4125
  call void @llvm.dbg.declare(metadata %class.Timestamp* %3, metadata !4005, metadata !DIExpression()), !dbg !4126
  %5 = bitcast %class.Timestamp* %2 to i8*, !dbg !4127
  call void @llvm.lifetime.start.p0i8(i64 8, i8* nonnull %5), !dbg !4127
  call void @_ZN9Timestamp10assign_nowEv(%class.Timestamp* nonnull %2), !dbg !4127
  %6 = getelementptr inbounds %class.Timestamp, %class.Timestamp* %2, i64 0, i32 0, i32 0, !dbg !4128
  %7 = load i64, i64* %6, align 8, !dbg !4128
  call void @llvm.lifetime.end.p0i8(i64 8, i8* nonnull %5), !dbg !4128
  %8 = getelementptr inbounds %class.EtherSpanTree, %class.EtherSpanTree* %0, i64 0, i32 10, i32 0, !dbg !4129
  %9 = load i32, i32* %8, align 8, !dbg !4129, !tbaa !4059
  call void @llvm.dbg.value(metadata %class.Timestamp* undef, metadata !4018, metadata !DIExpression()), !dbg !4130
  call void @llvm.dbg.value(metadata i32 %9, metadata !4021, metadata !DIExpression()), !dbg !4130
  call void @llvm.dbg.value(metadata i32 0, metadata !4022, metadata !DIExpression()), !dbg !4130
  call void @llvm.dbg.value(metadata %class.Timestamp* undef, metadata !3093, metadata !DIExpression()), !dbg !4132
  call void @llvm.dbg.value(metadata i32 %9, metadata !3096, metadata !DIExpression()), !dbg !4132
  call void @llvm.dbg.value(metadata i32 0, metadata !3097, metadata !DIExpression()), !dbg !4132
  %10 = sext i32 %9 to i64, !dbg !4134
  call void @llvm.dbg.value(metadata i64 %7, metadata !4029, metadata !DIExpression()), !dbg !4135
  call void @llvm.dbg.value(metadata %class.Timestamp* undef, metadata !4034, metadata !DIExpression()), !dbg !4135
  call void @llvm.dbg.value(metadata %class.Timestamp* undef, metadata !4037, metadata !DIExpression()), !dbg !4137
  call void @llvm.dbg.value(metadata %class.Timestamp* undef, metadata !4042, metadata !DIExpression()), !dbg !4137
  %11 = mul nsw i64 %10, -1000000000, !dbg !4139
  %12 = add i64 %11, %7, !dbg !4139
  call void @llvm.dbg.value(metadata i64 %12, metadata !4029, metadata !DIExpression()), !dbg !4135
  %13 = getelementptr inbounds %class.Timestamp, %class.Timestamp* %3, i64 0, i32 0, i32 0, !dbg !4140
  store i64 %12, i64* %13, align 8, !dbg !4140
  call void @llvm.dbg.value(metadata i8 0, metadata !4006, metadata !DIExpression()), !dbg !4124
  call void @llvm.dbg.value(metadata i32 0, metadata !4007, metadata !DIExpression()), !dbg !4141
  call void @llvm.dbg.value(metadata %class.EtherSpanTree* %0, metadata !3419, metadata !DIExpression(DW_OP_plus_uconst, 224, DW_OP_stack_value)), !dbg !4142
  %14 = getelementptr inbounds %class.EtherSpanTree, %class.EtherSpanTree* %0, i64 0, i32 11, i32 0, i32 1, !dbg !4144
  %15 = load i32, i32* %14, align 8, !dbg !4144, !tbaa !3427
  %16 = icmp sgt i32 %15, 0, !dbg !4145
  br i1 %16, label %17, label %19, !dbg !4146

17:                                               ; preds = %1
  %18 = getelementptr inbounds %class.EtherSpanTree, %class.EtherSpanTree* %0, i64 0, i32 11, !dbg !4147
  br label %23, !dbg !4146

19:                                               ; preds = %30, %1
  %20 = phi i8 [ 0, %1 ], [ %31, %30 ], !dbg !4124
  call void @llvm.dbg.value(metadata i8 %20, metadata !4006, metadata !DIExpression()), !dbg !4124
  %21 = and i8 %20, 1, !dbg !4148
  %22 = icmp ne i8 %21, 0, !dbg !4148
  call void @llvm.lifetime.end.p0i8(i64 8, i8* nonnull %4) #13, !dbg !4149
  ret i1 %22, !dbg !4150

23:                                               ; preds = %17, %30
  %24 = phi i32 [ 0, %17 ], [ %32, %30 ]
  %25 = phi i8 [ 0, %17 ], [ %31, %30 ]
  call void @llvm.dbg.value(metadata i32 %24, metadata !4007, metadata !DIExpression()), !dbg !4141
  call void @llvm.dbg.value(metadata i8 %25, metadata !4006, metadata !DIExpression()), !dbg !4124
  call void @llvm.dbg.value(metadata %class.Vector* %18, metadata !3419, metadata !DIExpression()), !dbg !4142
  %26 = call dereferenceable(72) %"struct.EtherSpanTree::PortInfo"* @_ZN6VectorIN13EtherSpanTree8PortInfoEEixEi(%class.Vector* nonnull %18, i32 %24), !dbg !4151
  %27 = getelementptr inbounds %"struct.EtherSpanTree::PortInfo", %"struct.EtherSpanTree::PortInfo"* %26, i64 0, i32 3, !dbg !4152
  %28 = call zeroext i1 @_ZN13BridgeMessage6expireERK9Timestamp(%class.BridgeMessage* nonnull %27, %class.Timestamp* nonnull dereferenceable(8) %3), !dbg !4153
  br i1 %28, label %29, label %30, !dbg !4154

29:                                               ; preds = %23
  call void @llvm.dbg.value(metadata i8 1, metadata !4006, metadata !DIExpression()), !dbg !4124
  call void (i8*, ...) @click_chatter(i8* getelementptr inbounds ([28 x i8], [28 x i8]* @.str.9, i64 0, i64 0), i32 %24), !dbg !4155
  br label %30, !dbg !4156

30:                                               ; preds = %23, %29
  %31 = phi i8 [ 1, %29 ], [ %25, %23 ], !dbg !4124
  call void @llvm.dbg.value(metadata i8 %31, metadata !4006, metadata !DIExpression()), !dbg !4124
  %32 = add nuw nsw i32 %24, 1, !dbg !4157
  call void @llvm.dbg.value(metadata i32 %32, metadata !4007, metadata !DIExpression()), !dbg !4141
  call void @llvm.dbg.value(metadata %class.EtherSpanTree* %0, metadata !3419, metadata !DIExpression(DW_OP_plus_uconst, 224, DW_OP_stack_value)), !dbg !4142
  %33 = load i32, i32* %14, align 8, !dbg !4144, !tbaa !3427
  %34 = icmp slt i32 %32, %33, !dbg !4145
  br i1 %34, label %23, label %19, !dbg !4146, !llvm.loop !4158
}

; Function Attrs: sspstrong uwtable
define dso_local void @_ZN13EtherSpanTree9find_treeEv(%class.EtherSpanTree* %0) local_unnamed_addr #0 align 2 !dbg !4160 {
  call void @llvm.dbg.value(metadata %class.EtherSpanTree* %0, metadata !4162, metadata !DIExpression()), !dbg !4172
  call void @llvm.dbg.value(metadata i32 -1, metadata !4163, metadata !DIExpression()), !dbg !4172
  %2 = getelementptr inbounds %class.EtherSpanTree, %class.EtherSpanTree* %0, i64 0, i32 7, !dbg !4173
  %3 = load i16, i16* %2, align 8, !dbg !4173, !tbaa !3079
  %4 = zext i16 %3 to i64, !dbg !4173
  %5 = shl nuw i64 %4, 48, !dbg !4174
  %6 = getelementptr inbounds %class.EtherSpanTree, %class.EtherSpanTree* %0, i64 0, i32 6, !dbg !4175
  %7 = load i64, i64* %6, align 8, !dbg !4175, !tbaa !3434
  %8 = or i64 %5, %7, !dbg !4176
  call void @llvm.dbg.value(metadata i64 %8, metadata !4164, metadata !DIExpression()), !dbg !4172
  %9 = getelementptr inbounds %class.EtherSpanTree, %class.EtherSpanTree* %0, i64 0, i32 10, !dbg !4177
  tail call void @_ZN13BridgeMessage5resetEm(%class.BridgeMessage* nonnull %9, i64 %8), !dbg !4178
  call void @llvm.dbg.value(metadata i32 0, metadata !4165, metadata !DIExpression()), !dbg !4179
  call void @llvm.dbg.value(metadata i32 -1, metadata !4163, metadata !DIExpression()), !dbg !4172
  %10 = getelementptr inbounds %class.EtherSpanTree, %class.EtherSpanTree* %0, i64 0, i32 11, !dbg !4180
  call void @llvm.dbg.value(metadata %class.Vector* %10, metadata !3419, metadata !DIExpression()), !dbg !4182
  %11 = getelementptr inbounds %class.EtherSpanTree, %class.EtherSpanTree* %0, i64 0, i32 11, i32 0, i32 1, !dbg !4184
  %12 = load i32, i32* %11, align 8, !dbg !4184, !tbaa !3427
  %13 = icmp sgt i32 %12, 0, !dbg !4185
  br i1 %13, label %14, label %42, !dbg !4186

14:                                               ; preds = %1
  %15 = bitcast %class.BridgeMessage* %9 to i8*, !dbg !4187
  br label %18, !dbg !4186

16:                                               ; preds = %33
  call void @llvm.dbg.value(metadata i32 %34, metadata !4163, metadata !DIExpression()), !dbg !4172
  call void @llvm.dbg.value(metadata i32 %34, metadata !4163, metadata !DIExpression()), !dbg !4172
  call void @llvm.dbg.value(metadata i32 %34, metadata !4163, metadata !DIExpression()), !dbg !4172
  call void @llvm.dbg.value(metadata i32 %34, metadata !4163, metadata !DIExpression()), !dbg !4172
  call void @llvm.dbg.value(metadata i32 %34, metadata !4163, metadata !DIExpression()), !dbg !4172
  call void @llvm.dbg.value(metadata i32 0, metadata !4167, metadata !DIExpression()), !dbg !4191
  call void @llvm.dbg.value(metadata %class.Vector* %10, metadata !3419, metadata !DIExpression()), !dbg !4192
  %17 = icmp sgt i32 %40, 0, !dbg !4194
  br i1 %17, label %43, label %42, !dbg !4195

18:                                               ; preds = %14, %33
  %19 = phi i32 [ -1, %14 ], [ %34, %33 ]
  %20 = phi i32 [ 0, %14 ], [ %39, %33 ]
  call void @llvm.dbg.value(metadata i32 %19, metadata !4163, metadata !DIExpression()), !dbg !4172
  call void @llvm.dbg.value(metadata i32 %20, metadata !4165, metadata !DIExpression()), !dbg !4179
  %21 = tail call dereferenceable(72) %"struct.EtherSpanTree::PortInfo"* @_ZN6VectorIN13EtherSpanTree8PortInfoEEixEi(%class.Vector* nonnull %10, i32 %20), !dbg !4196
  %22 = getelementptr inbounds %"struct.EtherSpanTree::PortInfo", %"struct.EtherSpanTree::PortInfo"* %21, i64 0, i32 3, i32 5, !dbg !4197
  %23 = load i32, i32* %22, align 8, !dbg !4198, !tbaa !4199
  %24 = add i32 %23, 1, !dbg !4198
  store i32 %24, i32* %22, align 8, !dbg !4198, !tbaa !4199
  %25 = tail call dereferenceable(72) %"struct.EtherSpanTree::PortInfo"* @_ZN6VectorIN13EtherSpanTree8PortInfoEEixEi(%class.Vector* nonnull %10, i32 %20), !dbg !4200
  %26 = getelementptr inbounds %"struct.EtherSpanTree::PortInfo", %"struct.EtherSpanTree::PortInfo"* %25, i64 0, i32 3, !dbg !4201
  %27 = tail call i32 @_ZNK13BridgeMessage7compareEPKS_(%class.BridgeMessage* nonnull %9, %class.BridgeMessage* nonnull %26), !dbg !4202
  %28 = icmp slt i32 %27, 0, !dbg !4203
  br i1 %28, label %29, label %33, !dbg !4204

29:                                               ; preds = %18
  %30 = tail call dereferenceable(72) %"struct.EtherSpanTree::PortInfo"* @_ZN6VectorIN13EtherSpanTree8PortInfoEEixEi(%class.Vector* nonnull %10, i32 %20), !dbg !4205
  %31 = getelementptr inbounds %"struct.EtherSpanTree::PortInfo", %"struct.EtherSpanTree::PortInfo"* %30, i64 0, i32 3, !dbg !4206
  %32 = bitcast %class.BridgeMessage* %31 to i8*, !dbg !4207
  tail call void @llvm.memcpy.p0i8.p0i8.i64(i8* nonnull align 8 dereferenceable(48) %15, i8* nonnull align 8 dereferenceable(48) %32, i64 48, i1 false), !dbg !4207, !tbaa.struct !4208
  call void @llvm.dbg.value(metadata i32 %20, metadata !4163, metadata !DIExpression()), !dbg !4172
  br label %33, !dbg !4211

33:                                               ; preds = %29, %18
  %34 = phi i32 [ %20, %29 ], [ %19, %18 ], !dbg !4172
  call void @llvm.dbg.value(metadata i32 %34, metadata !4163, metadata !DIExpression()), !dbg !4172
  %35 = tail call dereferenceable(72) %"struct.EtherSpanTree::PortInfo"* @_ZN6VectorIN13EtherSpanTree8PortInfoEEixEi(%class.Vector* nonnull %10, i32 %20), !dbg !4212
  %36 = getelementptr inbounds %"struct.EtherSpanTree::PortInfo", %"struct.EtherSpanTree::PortInfo"* %35, i64 0, i32 3, i32 5, !dbg !4213
  %37 = load i32, i32* %36, align 8, !dbg !4214, !tbaa !4199
  %38 = add i32 %37, -1, !dbg !4214
  store i32 %38, i32* %36, align 8, !dbg !4214, !tbaa !4199
  %39 = add nuw nsw i32 %20, 1, !dbg !4215
  call void @llvm.dbg.value(metadata i32 %39, metadata !4165, metadata !DIExpression()), !dbg !4179
  call void @llvm.dbg.value(metadata %class.Vector* %10, metadata !3419, metadata !DIExpression()), !dbg !4182
  %40 = load i32, i32* %11, align 8, !dbg !4184, !tbaa !3427
  %41 = icmp slt i32 %39, %40, !dbg !4185
  br i1 %41, label %18, label %16, !dbg !4186, !llvm.loop !4216

42:                                               ; preds = %67, %1, %16
  ret void, !dbg !4218

43:                                               ; preds = %16, %67
  %44 = phi i32 [ %68, %67 ], [ 0, %16 ]
  call void @llvm.dbg.value(metadata i32 %44, metadata !4167, metadata !DIExpression()), !dbg !4191
  %45 = icmp eq i32 %44, %34, !dbg !4219
  %46 = tail call dereferenceable(72) %"struct.EtherSpanTree::PortInfo"* @_ZN6VectorIN13EtherSpanTree8PortInfoEEixEi(%class.Vector* nonnull %10, i32 %44), !dbg !4221
  br i1 %45, label %47, label %53, !dbg !4222

47:                                               ; preds = %43
  %48 = getelementptr inbounds %"struct.EtherSpanTree::PortInfo", %"struct.EtherSpanTree::PortInfo"* %46, i64 0, i32 0, !dbg !4223
  %49 = load i32, i32* %48, align 8, !dbg !4223, !tbaa !3295
  %50 = icmp eq i32 %49, 0, !dbg !4226
  br i1 %50, label %51, label %67, !dbg !4227

51:                                               ; preds = %47
  %52 = tail call zeroext i1 @_ZN13EtherSpanTree9set_stateEiNS_9PortStateE(%class.EtherSpanTree* nonnull %0, i32 %34, i32 3), !dbg !4228
  br label %67, !dbg !4228

53:                                               ; preds = %43
  %54 = getelementptr inbounds %"struct.EtherSpanTree::PortInfo", %"struct.EtherSpanTree::PortInfo"* %46, i64 0, i32 3, !dbg !4229
  %55 = trunc i32 %44 to i16, !dbg !4230
  %56 = tail call i32 @_ZNK13BridgeMessage7compareEPKS_mt(%class.BridgeMessage* nonnull %9, %class.BridgeMessage* nonnull %54, i64 %8, i16 zeroext %55), !dbg !4231
  call void @llvm.dbg.value(metadata i32 %56, metadata !4169, metadata !DIExpression()), !dbg !4221
  %57 = icmp slt i32 %56, 0, !dbg !4232
  br i1 %57, label %58, label %60, !dbg !4234

58:                                               ; preds = %53
  %59 = tail call zeroext i1 @_ZN13EtherSpanTree9set_stateEiNS_9PortStateE(%class.EtherSpanTree* nonnull %0, i32 %44, i32 0), !dbg !4235
  br label %67, !dbg !4235

60:                                               ; preds = %53
  %61 = tail call dereferenceable(72) %"struct.EtherSpanTree::PortInfo"* @_ZN6VectorIN13EtherSpanTree8PortInfoEEixEi(%class.Vector* nonnull %10, i32 %44), !dbg !4236
  %62 = getelementptr inbounds %"struct.EtherSpanTree::PortInfo", %"struct.EtherSpanTree::PortInfo"* %61, i64 0, i32 0, !dbg !4238
  %63 = load i32, i32* %62, align 8, !dbg !4238, !tbaa !3295
  %64 = icmp eq i32 %63, 0, !dbg !4239
  br i1 %64, label %65, label %67, !dbg !4240

65:                                               ; preds = %60
  %66 = tail call zeroext i1 @_ZN13EtherSpanTree9set_stateEiNS_9PortStateE(%class.EtherSpanTree* nonnull %0, i32 %44, i32 3), !dbg !4241
  br label %67, !dbg !4241

67:                                               ; preds = %58, %65, %60, %47, %51
  %68 = add nuw nsw i32 %44, 1, !dbg !4242
  call void @llvm.dbg.value(metadata i32 %68, metadata !4167, metadata !DIExpression()), !dbg !4191
  call void @llvm.dbg.value(metadata %class.Vector* %10, metadata !3419, metadata !DIExpression()), !dbg !4192
  %69 = load i32, i32* %11, align 8, !dbg !4243, !tbaa !3427
  %70 = icmp slt i32 %68, %69, !dbg !4194
  br i1 %70, label %43, label %42, !dbg !4195, !llvm.loop !4244
}

declare zeroext i1 @_ZN13BridgeMessage6expireERK9Timestamp(%class.BridgeMessage*, %class.Timestamp* dereferenceable(8)) local_unnamed_addr #2

declare !dbg !2025 void @click_chatter(i8*, ...) local_unnamed_addr #2

declare i32 @_ZNK13BridgeMessage7compareEPKS_(%class.BridgeMessage*, %class.BridgeMessage*) local_unnamed_addr #2

declare i32 @_ZNK13BridgeMessage7compareEPKS_mt(%class.BridgeMessage*, %class.BridgeMessage*, i64, i16 zeroext) local_unnamed_addr #2

; Function Attrs: noreturn nounwind
declare void @__assert_fail(i8*, i8*, i32, i8*) local_unnamed_addr #7

; Function Attrs: sspstrong uwtable
define dso_local void @_ZN13EtherSpanTree4pushEiP6Packet(%class.EtherSpanTree* %0, i32 %1, %class.Packet* %2) unnamed_addr #0 align 2 !dbg !4246 {
  call void @llvm.dbg.value(metadata %class.EtherSpanTree* %0, metadata !4248, metadata !DIExpression()), !dbg !4253
  call void @llvm.dbg.value(metadata i32 %1, metadata !4249, metadata !DIExpression()), !dbg !4253
  call void @llvm.dbg.value(metadata %class.Packet* %2, metadata !4250, metadata !DIExpression()), !dbg !4253
  %4 = tail call i8* @_ZNK6Packet4dataEv(%class.Packet* %2), !dbg !4254
  %5 = bitcast i8* %4 to %"struct.BridgeMessage::wire"*, !dbg !4255
  call void @llvm.dbg.value(metadata %"struct.BridgeMessage::wire"* %5, metadata !4251, metadata !DIExpression()), !dbg !4253
  %6 = getelementptr inbounds %class.EtherSpanTree, %class.EtherSpanTree* %0, i64 0, i32 11, !dbg !4256
  %7 = tail call dereferenceable(72) %"struct.EtherSpanTree::PortInfo"* @_ZN6VectorIN13EtherSpanTree8PortInfoEEixEi(%class.Vector* nonnull %6, i32 %1), !dbg !4256
  %8 = getelementptr inbounds %"struct.EtherSpanTree::PortInfo", %"struct.EtherSpanTree::PortInfo"* %7, i64 0, i32 3, !dbg !4257
  %9 = tail call i32 @_ZNK13BridgeMessage7compareEPKNS_4wireE(%class.BridgeMessage* nonnull %8, %"struct.BridgeMessage::wire"* %5), !dbg !4258
  call void @llvm.dbg.value(metadata i32 %9, metadata !4252, metadata !DIExpression()), !dbg !4253
  %10 = icmp slt i32 %9, 1, !dbg !4259
  br i1 %10, label %11, label %21, !dbg !4261

11:                                               ; preds = %3
  %12 = tail call dereferenceable(72) %"struct.EtherSpanTree::PortInfo"* @_ZN6VectorIN13EtherSpanTree8PortInfoEEixEi(%class.Vector* nonnull %6, i32 %1), !dbg !4262
  %13 = getelementptr inbounds %"struct.EtherSpanTree::PortInfo", %"struct.EtherSpanTree::PortInfo"* %12, i64 0, i32 3, !dbg !4264
  tail call void @_ZN13BridgeMessage9from_wireEPKNS_4wireE(%class.BridgeMessage* nonnull %13, %"struct.BridgeMessage::wire"* %5), !dbg !4265
  %14 = getelementptr inbounds i8, i8* %4, i64 21, !dbg !4266
  %15 = load i8, i8* %14, align 1, !dbg !4266
  %16 = lshr i8 %15, 7, !dbg !4267
  %17 = xor i8 %16, 1, !dbg !4267
  %18 = getelementptr inbounds %class.EtherSpanTree, %class.EtherSpanTree* %0, i64 0, i32 5, !dbg !4268
  %19 = load i8, i8* %18, align 8, !dbg !4269, !tbaa !3487, !range !4270
  %20 = and i8 %17, %19, !dbg !4269
  store i8 %20, i8* %18, align 8, !dbg !4269, !tbaa !3487
  br label %21, !dbg !4271

21:                                               ; preds = %11, %3
  tail call void @_ZN13EtherSpanTree9find_treeEv(%class.EtherSpanTree* %0), !dbg !4272
  tail call void @_ZN6Packet4killEv(%class.Packet* %2), !dbg !4273
  ret void, !dbg !4274
}

declare i8* @_ZNK6Packet4dataEv(%class.Packet*) local_unnamed_addr #2

declare i32 @_ZNK13BridgeMessage7compareEPKNS_4wireE(%class.BridgeMessage*, %"struct.BridgeMessage::wire"*) local_unnamed_addr #2

declare void @_ZN13BridgeMessage9from_wireEPKNS_4wireE(%class.BridgeMessage*, %"struct.BridgeMessage::wire"*) local_unnamed_addr #2

declare void @_ZN6Packet4killEv(%class.Packet*) local_unnamed_addr #2

; Function Attrs: sspstrong uwtable
define dso_local %class.Packet* @_ZN13EtherSpanTree15generate_packetEi(%class.EtherSpanTree* %0, i32 %1) local_unnamed_addr #0 align 2 !dbg !4275 {
  %3 = alloca %class.Timestamp, align 8
  call void @llvm.dbg.declare(metadata %class.Timestamp* %3, metadata !3461, metadata !DIExpression()), !dbg !4287
  call void @llvm.dbg.value(metadata %class.EtherSpanTree* %0, metadata !4277, metadata !DIExpression()), !dbg !4289
  call void @llvm.dbg.value(metadata i32 %1, metadata !4278, metadata !DIExpression()), !dbg !4289
  %4 = getelementptr inbounds %class.EtherSpanTree, %class.EtherSpanTree* %0, i64 0, i32 10, !dbg !4290
  %5 = getelementptr inbounds %class.EtherSpanTree, %class.EtherSpanTree* %0, i64 0, i32 11, !dbg !4291
  %6 = tail call dereferenceable(72) %"struct.EtherSpanTree::PortInfo"* @_ZN6VectorIN13EtherSpanTree8PortInfoEEixEi(%class.Vector* nonnull %5, i32 %1), !dbg !4291
  %7 = getelementptr inbounds %"struct.EtherSpanTree::PortInfo", %"struct.EtherSpanTree::PortInfo"* %6, i64 0, i32 3, !dbg !4292
  %8 = tail call i32 @_ZNK13BridgeMessage7compareEPKS_(%class.BridgeMessage* nonnull %4, %class.BridgeMessage* nonnull %7), !dbg !4293
  call void @llvm.dbg.value(metadata i32 %8, metadata !4279, metadata !DIExpression()), !dbg !4289
  %9 = icmp slt i32 %8, 0, !dbg !4294
  br i1 %9, label %87, label %10, !dbg !4296

10:                                               ; preds = %2
  %11 = icmp eq i32 %8, 0, !dbg !4297
  br i1 %11, label %12, label %16, !dbg !4299

12:                                               ; preds = %10
  %13 = getelementptr inbounds %class.EtherSpanTree, %class.EtherSpanTree* %0, i64 0, i32 5, !dbg !4300
  %14 = load i8, i8* %13, align 8, !dbg !4300, !tbaa !3487, !range !4270
  %15 = icmp eq i8 %14, 0, !dbg !4300
  br i1 %15, label %87, label %16, !dbg !4301

16:                                               ; preds = %12, %10
  call void @llvm.dbg.value(metadata i32 60, metadata !4302, metadata !DIExpression()), !dbg !4305
  %17 = tail call %class.WritablePacket* @_ZN6Packet4makeEjPKvjj(i32 28, i8* null, i32 60, i32 0), !dbg !4307
  call void @llvm.dbg.value(metadata %class.WritablePacket* %17, metadata !4280, metadata !DIExpression()), !dbg !4289
  %18 = tail call i8* @_ZNK14WritablePacket4dataEv(%class.WritablePacket* %17), !dbg !4308
  %19 = bitcast i8* %18 to %"struct.BridgeMessage::wire"*, !dbg !4309
  call void @llvm.dbg.value(metadata %"struct.BridgeMessage::wire"* %19, metadata !4281, metadata !DIExpression()), !dbg !4289
  br i1 %11, label %20, label %21, !dbg !4310

20:                                               ; preds = %16
  tail call void @_ZN13BridgeMessage8fill_tcmEPNS_4wireE(%"struct.BridgeMessage::wire"* %19), !dbg !4311
  br label %83, !dbg !4313

21:                                               ; preds = %16
  tail call void @_ZNK13BridgeMessage7to_wireEPNS_4wireE(%class.BridgeMessage* nonnull %4, %"struct.BridgeMessage::wire"* %19), !dbg !4314
  %22 = getelementptr inbounds %class.EtherSpanTree, %class.EtherSpanTree* %0, i64 0, i32 7, !dbg !4315
  %23 = load i16, i16* %22, align 8, !dbg !4315, !tbaa !3079
  %24 = zext i16 %23 to i64, !dbg !4315
  %25 = shl nuw i64 %24, 48, !dbg !4316
  %26 = getelementptr inbounds %class.EtherSpanTree, %class.EtherSpanTree* %0, i64 0, i32 6, !dbg !4317
  %27 = load i64, i64* %26, align 8, !dbg !4317, !tbaa !3434
  %28 = or i64 %25, %27, !dbg !4318
  call void @llvm.dbg.value(metadata i64 %28, metadata !4319, metadata !DIExpression()), !dbg !4327
  %29 = lshr i64 %28, 32, !dbg !4329
  %30 = trunc i64 %29 to i32, !dbg !4330
  call void @llvm.dbg.value(metadata i32 %30, metadata !4325, metadata !DIExpression()), !dbg !4327
  %31 = trunc i64 %27 to i32, !dbg !4331
  call void @llvm.dbg.value(metadata i32 %31, metadata !4326, metadata !DIExpression()), !dbg !4327
  call void @llvm.dbg.value(metadata i32 %31, metadata !4332, metadata !DIExpression()) #13, !dbg !4338
  %32 = tail call i32 @llvm.bswap.i32(i32 %31) #13, !dbg !4340
  %33 = zext i32 %32 to i64, !dbg !4341
  %34 = shl nuw i64 %33, 32, !dbg !4342
  call void @llvm.dbg.value(metadata i32 %30, metadata !4332, metadata !DIExpression()) #13, !dbg !4343
  %35 = tail call i32 @llvm.bswap.i32(i32 %30) #13, !dbg !4345
  %36 = zext i32 %35 to i64, !dbg !4346
  %37 = or i64 %34, %36, !dbg !4347
  %38 = getelementptr inbounds i8, i8* %18, i64 34, !dbg !4348
  %39 = bitcast i8* %38 to i64*, !dbg !4348
  store i64 %37, i64* %39, align 1, !dbg !4349, !tbaa !4350
  %40 = trunc i32 %1 to i16, !dbg !4352
  %41 = tail call i16 @llvm.bswap.i16(i16 %40) #13
  %42 = getelementptr inbounds i8, i8* %18, i64 42, !dbg !4353
  %43 = bitcast i8* %42 to i16*, !dbg !4353
  store i16 %41, i16* %43, align 1, !dbg !4354, !tbaa !4355
  %44 = getelementptr inbounds %class.EtherSpanTree, %class.EtherSpanTree* %0, i64 0, i32 4, !dbg !4356
  %45 = load %class.Timestamp*, %class.Timestamp** %44, align 8, !dbg !4356, !tbaa !3064
  %46 = icmp eq %class.Timestamp* %45, null, !dbg !4356
  br i1 %46, label %72, label %47, !dbg !4357

47:                                               ; preds = %21
  %48 = bitcast %class.Timestamp* %3 to i8*, !dbg !4358
  call void @llvm.lifetime.start.p0i8(i64 8, i8* nonnull %48), !dbg !4358
  call void @_ZN9Timestamp10assign_nowEv(%class.Timestamp* nonnull %3), !dbg !4358
  %49 = getelementptr inbounds %class.Timestamp, %class.Timestamp* %3, i64 0, i32 0, i32 0, !dbg !4359
  %50 = load i64, i64* %49, align 8, !dbg !4359
  call void @llvm.lifetime.end.p0i8(i64 8, i8* nonnull %48), !dbg !4359
  %51 = getelementptr inbounds %class.EtherSpanTree, %class.EtherSpanTree* %0, i64 0, i32 10, i32 2, !dbg !4360
  %52 = load i32, i32* %51, align 8, !dbg !4360, !tbaa !4017
  %53 = getelementptr inbounds %class.BridgeMessage, %class.BridgeMessage* %4, i64 0, i32 0, !dbg !4361
  %54 = load i32, i32* %53, align 8, !dbg !4361, !tbaa !4059
  %55 = add i32 %54, %52, !dbg !4362
  call void @llvm.dbg.value(metadata %class.Timestamp* undef, metadata !4018, metadata !DIExpression()), !dbg !4363
  call void @llvm.dbg.value(metadata i32 %55, metadata !4021, metadata !DIExpression()), !dbg !4363
  call void @llvm.dbg.value(metadata i32 0, metadata !4022, metadata !DIExpression()), !dbg !4363
  call void @llvm.dbg.value(metadata %class.Timestamp* undef, metadata !3093, metadata !DIExpression()), !dbg !4365
  call void @llvm.dbg.value(metadata i32 %55, metadata !3096, metadata !DIExpression()), !dbg !4365
  call void @llvm.dbg.value(metadata i32 0, metadata !3097, metadata !DIExpression()), !dbg !4365
  %56 = sext i32 %55 to i64, !dbg !4367
  call void @llvm.dbg.value(metadata i64 %50, metadata !4029, metadata !DIExpression()), !dbg !4368
  call void @llvm.dbg.value(metadata %class.Timestamp* undef, metadata !4034, metadata !DIExpression()), !dbg !4368
  call void @llvm.dbg.value(metadata %class.Timestamp* undef, metadata !4037, metadata !DIExpression()), !dbg !4370
  call void @llvm.dbg.value(metadata %class.Timestamp* undef, metadata !4042, metadata !DIExpression()), !dbg !4370
  %57 = mul nsw i64 %56, -1000000000, !dbg !4372
  %58 = add i64 %57, %50, !dbg !4372
  call void @llvm.dbg.value(metadata i64 %58, metadata !4029, metadata !DIExpression()), !dbg !4368
  call void @llvm.dbg.value(metadata i64 %58, metadata !4282, metadata !DIExpression()), !dbg !4373
  %59 = load %class.Timestamp*, %class.Timestamp** %44, align 8, !dbg !4374, !tbaa !3064
  call void @llvm.dbg.value(metadata %class.Timestamp* %59, metadata !4105, metadata !DIExpression()), !dbg !4376
  call void @llvm.dbg.value(metadata %class.Timestamp* undef, metadata !4110, metadata !DIExpression()), !dbg !4376
  %60 = getelementptr inbounds %class.Timestamp, %class.Timestamp* %59, i64 0, i32 0, i32 0, !dbg !4378
  %61 = load i64, i64* %60, align 8, !dbg !4378, !tbaa !3103
  %62 = icmp slt i64 %61, %58, !dbg !4379
  br i1 %62, label %63, label %68, !dbg !4380

63:                                               ; preds = %47
  %64 = icmp eq %class.Timestamp* %59, null, !dbg !4381
  br i1 %64, label %67, label %65, !dbg !4381

65:                                               ; preds = %63
  %66 = bitcast %class.Timestamp* %59 to i8*, !dbg !4381
  call void @_ZdlPv(i8* %66) #14, !dbg !4381
  br label %67, !dbg !4381

67:                                               ; preds = %65, %63
  store %class.Timestamp* null, %class.Timestamp** %44, align 8, !dbg !4383, !tbaa !3064
  br label %72, !dbg !4384

68:                                               ; preds = %47
  %69 = getelementptr inbounds i8, i8* %18, i64 21, !dbg !4385
  %70 = load i8, i8* %69, align 1, !dbg !4387
  %71 = or i8 %70, 1, !dbg !4387
  store i8 %71, i8* %69, align 1, !dbg !4387
  br label %72

72:                                               ; preds = %67, %68, %21
  %73 = call dereferenceable(72) %"struct.EtherSpanTree::PortInfo"* @_ZN6VectorIN13EtherSpanTree8PortInfoEEixEi(%class.Vector* nonnull %5, i32 %1), !dbg !4388
  %74 = getelementptr inbounds %"struct.EtherSpanTree::PortInfo", %"struct.EtherSpanTree::PortInfo"* %73, i64 0, i32 2, !dbg !4390
  %75 = load i8, i8* %74, align 8, !dbg !4390, !tbaa !3300, !range !4270
  %76 = icmp eq i8 %75, 0, !dbg !4390
  br i1 %76, label %83, label %77, !dbg !4391

77:                                               ; preds = %72
  %78 = call dereferenceable(72) %"struct.EtherSpanTree::PortInfo"* @_ZN6VectorIN13EtherSpanTree8PortInfoEEixEi(%class.Vector* nonnull %5, i32 %1), !dbg !4392
  %79 = getelementptr inbounds %"struct.EtherSpanTree::PortInfo", %"struct.EtherSpanTree::PortInfo"* %78, i64 0, i32 2, !dbg !4394
  store i8 0, i8* %79, align 8, !dbg !4395, !tbaa !3300
  %80 = getelementptr inbounds i8, i8* %18, i64 21, !dbg !4396
  %81 = load i8, i8* %80, align 1, !dbg !4397
  %82 = or i8 %81, -128, !dbg !4397
  store i8 %82, i8* %80, align 1, !dbg !4397
  br label %83, !dbg !4398

83:                                               ; preds = %72, %77, %20
  %84 = getelementptr inbounds i8, i8* %18, i64 6, !dbg !4399
  %85 = getelementptr inbounds %class.EtherSpanTree, %class.EtherSpanTree* %0, i64 0, i32 9, i64 0, !dbg !4400
  call void @llvm.memcpy.p0i8.p0i8.i64(i8* nonnull align 1 dereferenceable(6) %84, i8* nonnull align 4 dereferenceable(6) %85, i64 6, i1 false), !dbg !4400
  %86 = getelementptr %class.WritablePacket, %class.WritablePacket* %17, i64 0, i32 0, !dbg !4401
  br label %87

87:                                               ; preds = %12, %2, %83
  %88 = phi %class.Packet* [ %86, %83 ], [ null, %2 ], [ null, %12 ], !dbg !4289
  ret %class.Packet* %88, !dbg !4402
}

; Function Attrs: noinline optnone sspstrong uwtable
define linkonce_odr dso_local dereferenceable(16) %"class.Element::Port"* @_ZNK7Element6outputEi(%class.Element* %0, i32 %1) local_unnamed_addr #8 comdat align 2 !dbg !4403 {
  %3 = alloca %class.Element*, align 8
  %4 = alloca i32, align 4
  store %class.Element* %0, %class.Element** %3, align 8, !tbaa !3730
  call void @llvm.dbg.declare(metadata %class.Element** %3, metadata !4440, metadata !DIExpression()), !dbg !4442
  store i32 %1, i32* %4, align 4, !tbaa !3167
  call void @llvm.dbg.declare(metadata i32* %4, metadata !4441, metadata !DIExpression()), !dbg !4443
  %5 = load %class.Element*, %class.Element** %3, align 8
  %6 = load i32, i32* %4, align 4, !dbg !4444, !tbaa !3167
  %7 = call dereferenceable(16) %"class.Element::Port"* @_ZNK7Element4portEbi(%class.Element* %5, i1 zeroext true, i32 %6), !dbg !4445
  ret %"class.Element::Port"* %7, !dbg !4446
}

; Function Attrs: noinline optnone sspstrong uwtable
define linkonce_odr dso_local void @_ZNK7Element4Port4pushEP6Packet(%"class.Element::Port"* %0, %class.Packet* %1) local_unnamed_addr #8 comdat align 2 !dbg !4447 {
  %3 = alloca %"class.Element::Port"*, align 8
  %4 = alloca %class.Packet*, align 8
  store %"class.Element::Port"* %0, %"class.Element::Port"** %3, align 8, !tbaa !3730
  call void @llvm.dbg.declare(metadata %"class.Element::Port"** %3, metadata !4449, metadata !DIExpression()), !dbg !4452
  store %class.Packet* %1, %class.Packet** %4, align 8, !tbaa !3730
  call void @llvm.dbg.declare(metadata %class.Packet** %4, metadata !4451, metadata !DIExpression()), !dbg !4453
  %5 = load %"class.Element::Port"*, %"class.Element::Port"** %3, align 8
  %6 = getelementptr inbounds %"class.Element::Port", %"class.Element::Port"* %5, i32 0, i32 0, !dbg !4454
  %7 = load %class.Element*, %class.Element** %6, align 8, !dbg !4454, !tbaa !4455
  %8 = icmp ne %class.Element* %7, null, !dbg !4454
  br i1 %8, label %9, label %12, !dbg !4454

9:                                                ; preds = %2
  %10 = load %class.Packet*, %class.Packet** %4, align 8, !dbg !4454, !tbaa !3730
  %11 = icmp ne %class.Packet* %10, null, !dbg !4454
  br label %12

12:                                               ; preds = %9, %2
  %13 = phi i1 [ false, %2 ], [ %11, %9 ], !dbg !4452
  br i1 %13, label %14, label %15, !dbg !4454

14:                                               ; preds = %12
  br label %16, !dbg !4454

15:                                               ; preds = %12
  call void @__assert_fail(i8* getelementptr inbounds ([8 x i8], [8 x i8]* @.str.22, i64 0, i64 0), i8* getelementptr inbounds ([30 x i8], [30 x i8]* @.str.21, i64 0, i64 0), i32 611, i8* getelementptr inbounds ([41 x i8], [41 x i8]* @__PRETTY_FUNCTION__._ZNK7Element4Port4pushEP6Packet, i64 0, i64 0)) #15, !dbg !4454
  unreachable, !dbg !4454

16:                                               ; preds = %14
  %17 = getelementptr inbounds %"class.Element::Port", %"class.Element::Port"* %5, i32 0, i32 0, !dbg !4457
  %18 = load %class.Element*, %class.Element** %17, align 8, !dbg !4457, !tbaa !4455
  %19 = getelementptr inbounds %"class.Element::Port", %"class.Element::Port"* %5, i32 0, i32 1, !dbg !4458
  %20 = load i32, i32* %19, align 8, !dbg !4458, !tbaa !4459
  %21 = load %class.Packet*, %class.Packet** %4, align 8, !dbg !4460, !tbaa !3730
  %22 = bitcast %class.Element* %18 to void (%class.Element*, i32, %class.Packet*)***, !dbg !4461
  %23 = load void (%class.Element*, i32, %class.Packet*)**, void (%class.Element*, i32, %class.Packet*)*** %22, align 8, !dbg !4461, !tbaa !3059
  %24 = getelementptr inbounds void (%class.Element*, i32, %class.Packet*)*, void (%class.Element*, i32, %class.Packet*)** %23, i64 2, !dbg !4461
  %25 = load void (%class.Element*, i32, %class.Packet*)*, void (%class.Element*, i32, %class.Packet*)** %24, align 8, !dbg !4461
  call void %25(%class.Element* %18, i32 %20, %class.Packet* %21), !dbg !4461
  ret void, !dbg !4462
}

declare i8* @_ZNK14WritablePacket4dataEv(%class.WritablePacket*) local_unnamed_addr #2

declare void @_ZN13BridgeMessage8fill_tcmEPNS_4wireE(%"struct.BridgeMessage::wire"*) local_unnamed_addr #2

declare void @_ZNK13BridgeMessage7to_wireEPNS_4wireE(%class.BridgeMessage*, %"struct.BridgeMessage::wire"*) local_unnamed_addr #2

declare %class.Packet* @_ZN7Element4pullEi(%class.Element*, i32) unnamed_addr #2

declare %class.Packet* @_ZN7Element13simple_actionEP6Packet(%class.Element*, %class.Packet*) unnamed_addr #2

declare zeroext i1 @_ZN7Element8run_taskEP4Task(%class.Element*, %class.Task*) unnamed_addr #2

declare void @_ZN7Element9run_timerEP5Timer(%class.Element*, %class.Timer*) unnamed_addr #2

declare void @_ZN7Element8selectedEii(%class.Element*, i32, i32) unnamed_addr #2

declare void @_ZN7Element8selectedEi(%class.Element*, i32) unnamed_addr #2

; Function Attrs: nounwind sspstrong uwtable
define linkonce_odr dso_local i8* @_ZNK13EtherSpanTree10class_nameEv(%class.EtherSpanTree* %0) unnamed_addr #4 comdat align 2 !dbg !4463 {
  call void @llvm.dbg.value(metadata %class.EtherSpanTree* %0, metadata !4465, metadata !DIExpression()), !dbg !4467
  ret i8* getelementptr inbounds ([14 x i8], [14 x i8]* @.str.23, i64 0, i64 0), !dbg !4468
}

; Function Attrs: nounwind sspstrong uwtable
define linkonce_odr dso_local i8* @_ZNK13EtherSpanTree10port_countEv(%class.EtherSpanTree* %0) unnamed_addr #4 comdat align 2 !dbg !4469 {
  call void @llvm.dbg.value(metadata %class.EtherSpanTree* %0, metadata !4471, metadata !DIExpression()), !dbg !4472
  ret i8* getelementptr inbounds ([4 x i8], [4 x i8]* @.str.24, i64 0, i64 0), !dbg !4473
}

; Function Attrs: nounwind sspstrong uwtable
define linkonce_odr dso_local i8* @_ZNK13EtherSpanTree10processingEv(%class.EtherSpanTree* %0) unnamed_addr #4 comdat align 2 !dbg !4474 {
  call void @llvm.dbg.value(metadata %class.EtherSpanTree* %0, metadata !4476, metadata !DIExpression()), !dbg !4477
  ret i8* getelementptr inbounds ([0 x i8], [0 x i8]* @_ZN7Element4PUSHE, i64 0, i64 0), !dbg !4478
}

declare i8* @_ZNK7Element9flow_codeEv(%class.Element*) unnamed_addr #2

declare i8* @_ZNK7Element5flagsEv(%class.Element*) unnamed_addr #2

declare i8* @_ZN7Element4castEPKc(%class.Element*, i8*) unnamed_addr #2

declare i8* @_ZN7Element9port_castEbiPKc(%class.Element*, i1 zeroext, i32, i8*) unnamed_addr #2

declare i32 @_ZNK7Element15configure_phaseEv(%class.Element*) unnamed_addr #2

declare void @_ZN7Element10take_stateEPS_P12ErrorHandler(%class.Element*, %class.Element*, %class.ErrorHandler*) unnamed_addr #2

declare %class.Element* @_ZNK7Element15hotswap_elementEv(%class.Element*) unnamed_addr #2

declare void @_ZN7Element7cleanupENS_12CleanupStageE(%class.Element*, i32) unnamed_addr #2

declare void @_ZNK7Element11declarationEv(%class.String* sret, %class.Element*) unnamed_addr #2

declare zeroext i1 @_ZNK7Element20can_live_reconfigureEv(%class.Element*) unnamed_addr #2

declare i32 @_ZN7Element16live_reconfigureER6VectorI6StringEP12ErrorHandler(%class.Element*, %class.Vector.0* dereferenceable(16), %class.ErrorHandler*) unnamed_addr #2

declare i32 @_ZN7Element5llrpcEjPv(%class.Element*, i32, i8*) unnamed_addr #2

declare void @_ZN13BridgeMessage6expireEv(%class.BridgeMessage*) local_unnamed_addr #2

; Function Attrs: noinline noreturn nounwind
define linkonce_odr hidden void @__clang_call_terminate(i8* %0) local_unnamed_addr #9 comdat {
  %2 = tail call i8* @__cxa_begin_catch(i8* %0) #13
  tail call void @_ZSt9terminatev() #15
  unreachable
}

declare i8* @__cxa_begin_catch(i8*) local_unnamed_addr

declare void @_ZSt9terminatev() local_unnamed_addr

; Function Attrs: nobuiltin nounwind
declare void @_ZdaPv(i8*) local_unnamed_addr #5

declare void @_ZN5Timer10unscheduleEv(%class.Timer*) local_unnamed_addr #2

declare void @_ZN5Timer14schedule_afterERK9Timestamp(%class.Timer*, %class.Timestamp* dereferenceable(8)) local_unnamed_addr #2

declare void @_ZN6String6appendEPKciPNS_6memo_tE(%class.String*, i8*, i32, %"struct.String::memo_t"*) local_unnamed_addr #2

; Function Attrs: inlinehint nounwind sspstrong uwtable
define linkonce_odr dso_local i32 @_ZNK6String6lengthEv(%class.String* %0) #10 comdat align 2 !dbg !4479 {
  call void @llvm.dbg.value(metadata %class.String* %0, metadata !4481, metadata !DIExpression()), !dbg !4482
  %2 = getelementptr inbounds %class.String, %class.String* %0, i64 0, i32 0, i32 1, !dbg !4483
  %3 = load i32, i32* %2, align 8, !dbg !4483, !tbaa !3662
  ret i32 %3, !dbg !4484
}

declare void @_ZN6String11delete_memoEPNS_6memo_tE(%"struct.String::memo_t"*) local_unnamed_addr #2

; Function Attrs: noinline optnone sspstrong uwtable
define linkonce_odr dso_local void @_ZN9Timestamp10assign_nowEv(%class.Timestamp* %0) local_unnamed_addr #8 comdat align 2 !dbg !4485 {
  %2 = alloca %class.Timestamp*, align 8
  store %class.Timestamp* %0, %class.Timestamp** %2, align 8, !tbaa !3730
  call void @llvm.dbg.declare(metadata %class.Timestamp** %2, metadata !4487, metadata !DIExpression()), !dbg !4488
  %3 = load %class.Timestamp*, %class.Timestamp** %2, align 8
  call void @_ZN9Timestamp10assign_nowEbbb(%class.Timestamp* %3, i1 zeroext false, i1 zeroext false, i1 zeroext false), !dbg !4489
  ret void, !dbg !4490
}

declare void @_ZN9Timestamp10assign_nowEbbb(%class.Timestamp*, i1 zeroext, i1 zeroext, i1 zeroext) local_unnamed_addr #2

; Function Attrs: noinline nounwind optnone sspstrong uwtable
define linkonce_odr dso_local dereferenceable(16) %"class.Element::Port"* @_ZNK7Element4portEbi(%class.Element* %0, i1 zeroext %1, i32 %2) local_unnamed_addr #11 comdat align 2 !dbg !4491 {
  %4 = alloca %class.Element*, align 8
  %5 = alloca i8, align 1
  %6 = alloca i32, align 4
  store %class.Element* %0, %class.Element** %4, align 8, !tbaa !3730
  call void @llvm.dbg.declare(metadata %class.Element** %4, metadata !4496, metadata !DIExpression()), !dbg !4499
  %7 = zext i1 %1 to i8
  store i8 %7, i8* %5, align 1, !tbaa !4210
  call void @llvm.dbg.declare(metadata i8* %5, metadata !4497, metadata !DIExpression()), !dbg !4500
  store i32 %2, i32* %6, align 4, !tbaa !3167
  call void @llvm.dbg.declare(metadata i32* %6, metadata !4498, metadata !DIExpression()), !dbg !4501
  %8 = load %class.Element*, %class.Element** %4, align 8
  %9 = load i32, i32* %6, align 4, !dbg !4502, !tbaa !3167
  %10 = getelementptr inbounds %class.Element, %class.Element* %8, i32 0, i32 3, !dbg !4502
  %11 = load i8, i8* %5, align 1, !dbg !4502, !tbaa !4210, !range !4270
  %12 = trunc i8 %11 to i1, !dbg !4502
  %13 = zext i1 %12 to i64, !dbg !4502
  %14 = getelementptr inbounds [2 x i32], [2 x i32]* %10, i64 0, i64 %13, !dbg !4502
  %15 = load i32, i32* %14, align 4, !dbg !4502, !tbaa !3167
  %16 = icmp ult i32 %9, %15, !dbg !4502
  br i1 %16, label %17, label %18, !dbg !4502

17:                                               ; preds = %3
  br label %19, !dbg !4502

18:                                               ; preds = %3
  call void @__assert_fail(i8* getelementptr inbounds ([47 x i8], [47 x i8]* @.str.20, i64 0, i64 0), i8* getelementptr inbounds ([30 x i8], [30 x i8]* @.str.21, i64 0, i64 0), i32 437, i8* getelementptr inbounds ([52 x i8], [52 x i8]* @__PRETTY_FUNCTION__._ZNK7Element4portEbi, i64 0, i64 0)) #15, !dbg !4502
  unreachable, !dbg !4502

19:                                               ; preds = %17
  %20 = getelementptr inbounds %class.Element, %class.Element* %8, i32 0, i32 1, !dbg !4503
  %21 = load i8, i8* %5, align 1, !dbg !4504, !tbaa !4210, !range !4270
  %22 = trunc i8 %21 to i1, !dbg !4504
  %23 = zext i1 %22 to i64, !dbg !4503
  %24 = getelementptr inbounds [2 x %"class.Element::Port"*], [2 x %"class.Element::Port"*]* %20, i64 0, i64 %23, !dbg !4503
  %25 = load %"class.Element::Port"*, %"class.Element::Port"** %24, align 8, !dbg !4503, !tbaa !3730
  %26 = load i32, i32* %6, align 4, !dbg !4505, !tbaa !3167
  %27 = sext i32 %26 to i64, !dbg !4503
  %28 = getelementptr inbounds %"class.Element::Port", %"class.Element::Port"* %25, i64 %27, !dbg !4503
  ret %"class.Element::Port"* %28, !dbg !4506
}

declare %class.WritablePacket* @_ZN6Packet4makeEjPKvjj(i32, i8*, i32, i32) local_unnamed_addr #2

; Function Attrs: sspstrong uwtable
define linkonce_odr dso_local void @_ZN13vector_memoryI18sized_array_memoryILm72EEE6resizeEiPK10char_arrayILm72EE(%class.vector_memory* %0, i32 %1, %struct.char_array* %2) local_unnamed_addr #0 comdat align 2 !dbg !4507 {
  %4 = alloca %struct.char_array, align 1
  call void @llvm.dbg.value(metadata %class.vector_memory* %0, metadata !4509, metadata !DIExpression()), !dbg !4515
  call void @llvm.dbg.value(metadata i32 %1, metadata !4510, metadata !DIExpression()), !dbg !4515
  call void @llvm.dbg.value(metadata %struct.char_array* %2, metadata !4511, metadata !DIExpression()), !dbg !4515
  call void @llvm.dbg.value(metadata %class.vector_memory* %0, metadata !4516, metadata !DIExpression()), !dbg !4521
  call void @llvm.dbg.value(metadata %struct.char_array* %2, metadata !4519, metadata !DIExpression()), !dbg !4521
  %5 = ptrtoint %struct.char_array* %2 to i64, !dbg !4523
  %6 = bitcast %class.vector_memory* %0 to i64*, !dbg !4524
  %7 = load i64, i64* %6, align 8, !dbg !4524, !tbaa !3140
  %8 = sub i64 %5, %7, !dbg !4525
  %9 = getelementptr inbounds %class.vector_memory, %class.vector_memory* %0, i64 0, i32 1, !dbg !4526
  %10 = load i32, i32* %9, align 8, !dbg !4526, !tbaa !4527
  %11 = sext i32 %10 to i64, !dbg !4526
  %12 = mul nsw i64 %11, 72, !dbg !4528
  %13 = icmp ult i64 %8, %12, !dbg !4529
  %14 = inttoptr i64 %7 to i8*, !dbg !4530
  %15 = inttoptr i64 %7 to %struct.char_array*, !dbg !4530
  br i1 %13, label %16, label %19, !dbg !4530, !prof !4531, !misexpect !4532

16:                                               ; preds = %3
  %17 = getelementptr inbounds %struct.char_array, %struct.char_array* %4, i64 0, i32 0, i64 0, !dbg !4533
  call void @llvm.lifetime.start.p0i8(i64 72, i8* nonnull %17) #13, !dbg !4533
  call void @llvm.dbg.declare(metadata %struct.char_array* %4, metadata !4512, metadata !DIExpression()), !dbg !4534
  %18 = getelementptr %struct.char_array, %struct.char_array* %2, i64 0, i32 0, i64 0, !dbg !4534
  call void @llvm.memcpy.p0i8.p0i8.i64(i8* nonnull align 1 dereferenceable(72) %17, i8* nonnull align 1 dereferenceable(72) %18, i64 72, i1 false), !dbg !4534, !tbaa.struct !4535
  call void @_ZN13vector_memoryI18sized_array_memoryILm72EEE6resizeEiPK10char_arrayILm72EE(%class.vector_memory* nonnull %0, i32 %1, %struct.char_array* nonnull %4), !dbg !4536
  call void @llvm.lifetime.end.p0i8(i64 72, i8* nonnull %17) #13, !dbg !4537
  br label %85

19:                                               ; preds = %3
  %20 = getelementptr inbounds %class.vector_memory, %class.vector_memory* %0, i64 0, i32 2, !dbg !4538
  %21 = load i32, i32* %20, align 4, !dbg !4538, !tbaa !4540
  %22 = icmp slt i32 %21, %1, !dbg !4541
  br i1 %22, label %23, label %42, !dbg !4542

23:                                               ; preds = %19
  call void @llvm.dbg.value(metadata %class.vector_memory* %0, metadata !4543, metadata !DIExpression()), !dbg !4554
  call void @llvm.dbg.value(metadata i32 %1, metadata !4546, metadata !DIExpression()), !dbg !4554
  call void @llvm.dbg.value(metadata %struct.char_array* null, metadata !4547, metadata !DIExpression()), !dbg !4554
  %24 = icmp slt i32 %1, 0, !dbg !4556
  %25 = icmp sgt i32 %21, 0, !dbg !4558
  %26 = shl nsw i32 %21, 1, !dbg !4558
  %27 = select i1 %25, i32 %26, i32 4, !dbg !4558
  %28 = select i1 %24, i32 %27, i32 %1, !dbg !4558
  call void @llvm.dbg.value(metadata i32 %28, metadata !4546, metadata !DIExpression()), !dbg !4554
  %29 = icmp sgt i32 %28, %21, !dbg !4559
  br i1 %29, label %30, label %42, !dbg !4560

30:                                               ; preds = %23
  %31 = sext i32 %28 to i64, !dbg !4561
  %32 = mul nsw i64 %31, 72, !dbg !4561
  %33 = tail call i8* @_Znam(i64 %32) #16, !dbg !4561
  call void @llvm.dbg.value(metadata i8* %33, metadata !4551, metadata !DIExpression()), !dbg !4562
  call void @llvm.dbg.value(metadata i8* %33, metadata !4551, metadata !DIExpression()), !dbg !4562
  %34 = bitcast %class.vector_memory* %0 to i8**, !dbg !4563
  call void @llvm.dbg.value(metadata i8* %33, metadata !4564, metadata !DIExpression()) #13, !dbg !4569
  call void @llvm.dbg.value(metadata i8* %14, metadata !4567, metadata !DIExpression()) #13, !dbg !4569
  call void @llvm.dbg.value(metadata i32 %10, metadata !4568, metadata !DIExpression(DW_OP_LLVM_convert, 32, DW_ATE_signed, DW_OP_LLVM_convert, 64, DW_ATE_signed, DW_OP_stack_value)) #13, !dbg !4569
  %35 = icmp eq i32 %10, 0, !dbg !4571
  br i1 %35, label %37, label %36, !dbg !4573

36:                                               ; preds = %30
  call void @llvm.dbg.value(metadata i64 %11, metadata !4568, metadata !DIExpression()) #13, !dbg !4569
  tail call void @llvm.memmove.p0i8.p0i8.i64(i8* nonnull align 1 %33, i8* align 1 %14, i64 %12, i1 false) #13, !dbg !4574
  br label %37, !dbg !4574

37:                                               ; preds = %36, %30
  %38 = icmp eq i64 %7, 0, !dbg !4575
  br i1 %38, label %40, label %39, !dbg !4575

39:                                               ; preds = %37
  tail call void @_ZdaPv(i8* nonnull %14) #14, !dbg !4575
  br label %40, !dbg !4575

40:                                               ; preds = %39, %37
  store i8* %33, i8** %34, align 8, !dbg !4576, !tbaa !3140
  store i32 %28, i32* %20, align 4, !dbg !4577, !tbaa !4540
  %41 = bitcast i8* %33 to %struct.char_array*
  br label %42

42:                                               ; preds = %40, %23, %19
  %43 = phi %struct.char_array* [ %41, %40 ], [ %15, %23 ], [ %15, %19 ]
  %44 = icmp sgt i32 %1, -1, !dbg !4578
  br i1 %44, label %46, label %45, !dbg !4578

45:                                               ; preds = %42
  tail call void @__assert_fail(i8* getelementptr inbounds ([7 x i8], [7 x i8]* @.str.25, i64 0, i64 0), i8* getelementptr inbounds ([29 x i8], [29 x i8]* @.str.26, i64 0, i64 0), i32 134, i8* getelementptr inbounds ([137 x i8], [137 x i8]* @__PRETTY_FUNCTION__._ZN13vector_memoryI18sized_array_memoryILm72EEE6resizeEiPK10char_arrayILm72EE, i64 0, i64 0)) #15, !dbg !4578
  unreachable, !dbg !4578

46:                                               ; preds = %42
  %47 = load i32, i32* %9, align 8, !dbg !4580, !tbaa !4527
  %48 = icmp slt i32 %47, %1, !dbg !4582
  br i1 %48, label %49, label %84, !dbg !4584

49:                                               ; preds = %46
  %50 = sub nsw i32 %1, %47, !dbg !4585
  %51 = getelementptr %struct.char_array, %struct.char_array* %2, i64 0, i32 0, i64 0, !dbg !4587
  call void @llvm.dbg.value(metadata i8* undef, metadata !4588, metadata !DIExpression()) #13, !dbg !4593
  call void @llvm.dbg.value(metadata i32 %50, metadata !4591, metadata !DIExpression(DW_OP_LLVM_convert, 32, DW_ATE_signed, DW_OP_LLVM_convert, 64, DW_ATE_signed, DW_OP_stack_value)) #13, !dbg !4593
  call void @llvm.dbg.value(metadata i8* %51, metadata !4592, metadata !DIExpression()) #13, !dbg !4593
  %52 = icmp eq i32 %50, 0, !dbg !4595
  br i1 %52, label %84, label %53, !dbg !4598

53:                                               ; preds = %49
  %54 = sext i32 %50 to i64, !dbg !4599
  call void @llvm.dbg.value(metadata i64 %54, metadata !4591, metadata !DIExpression()) #13, !dbg !4593
  %55 = sext i32 %47 to i64, !dbg !4600
  %56 = getelementptr inbounds %struct.char_array, %struct.char_array* %43, i64 %55, i32 0, i64 0, !dbg !4601
  call void @llvm.dbg.value(metadata i8* %56, metadata !4588, metadata !DIExpression()) #13, !dbg !4593
  %57 = sext i32 %1 to i64, !dbg !4598
  %58 = xor i32 %47, -1, !dbg !4598
  %59 = sext i32 %58 to i64, !dbg !4598
  %60 = add nsw i64 %59, %57, !dbg !4598
  %61 = and i64 %54, 3, !dbg !4598
  %62 = icmp eq i64 %61, 0, !dbg !4598
  br i1 %62, label %71, label %63, !dbg !4598

63:                                               ; preds = %53, %63
  %64 = phi i8* [ %68, %63 ], [ %56, %53 ]
  %65 = phi i64 [ %67, %63 ], [ %54, %53 ]
  %66 = phi i64 [ %69, %63 ], [ %61, %53 ]
  call void @llvm.dbg.value(metadata i8* %64, metadata !4588, metadata !DIExpression()) #13, !dbg !4593
  call void @llvm.dbg.value(metadata i64 %65, metadata !4591, metadata !DIExpression()) #13, !dbg !4593
  tail call void @llvm.memcpy.p0i8.p0i8.i64(i8* nonnull align 1 dereferenceable(72) %64, i8* nonnull align 1 dereferenceable(72) %51, i64 72, i1 false) #13, !dbg !4602
  %67 = add i64 %65, -1, !dbg !4603
  call void @llvm.dbg.value(metadata i64 %67, metadata !4591, metadata !DIExpression()) #13, !dbg !4593
  %68 = getelementptr inbounds i8, i8* %64, i64 72, !dbg !4604
  call void @llvm.dbg.value(metadata i8* %68, metadata !4588, metadata !DIExpression()) #13, !dbg !4593
  %69 = add i64 %66, -1, !dbg !4598
  %70 = icmp eq i64 %69, 0, !dbg !4598
  br i1 %70, label %71, label %63, !dbg !4598, !llvm.loop !4605

71:                                               ; preds = %63, %53
  %72 = phi i8* [ %56, %53 ], [ %68, %63 ]
  %73 = phi i64 [ %54, %53 ], [ %67, %63 ]
  %74 = icmp ult i64 %60, 3, !dbg !4598
  br i1 %74, label %84, label %75, !dbg !4598

75:                                               ; preds = %71, %75
  %76 = phi i8* [ %82, %75 ], [ %72, %71 ]
  %77 = phi i64 [ %81, %75 ], [ %73, %71 ]
  call void @llvm.dbg.value(metadata i8* %76, metadata !4588, metadata !DIExpression()) #13, !dbg !4593
  call void @llvm.dbg.value(metadata i64 %77, metadata !4591, metadata !DIExpression()) #13, !dbg !4593
  tail call void @llvm.memcpy.p0i8.p0i8.i64(i8* nonnull align 1 dereferenceable(72) %76, i8* nonnull align 1 dereferenceable(72) %51, i64 72, i1 false) #13, !dbg !4602
  call void @llvm.dbg.value(metadata i64 %77, metadata !4591, metadata !DIExpression(DW_OP_constu, 1, DW_OP_minus, DW_OP_stack_value)) #13, !dbg !4593
  %78 = getelementptr inbounds i8, i8* %76, i64 72, !dbg !4604
  call void @llvm.dbg.value(metadata i8* %78, metadata !4588, metadata !DIExpression()) #13, !dbg !4593
  tail call void @llvm.memcpy.p0i8.p0i8.i64(i8* nonnull align 1 dereferenceable(72) %78, i8* nonnull align 1 dereferenceable(72) %51, i64 72, i1 false) #13, !dbg !4602
  call void @llvm.dbg.value(metadata i64 %77, metadata !4591, metadata !DIExpression(DW_OP_constu, 2, DW_OP_minus, DW_OP_stack_value)) #13, !dbg !4593
  %79 = getelementptr inbounds i8, i8* %76, i64 144, !dbg !4604
  call void @llvm.dbg.value(metadata i8* %79, metadata !4588, metadata !DIExpression()) #13, !dbg !4593
  tail call void @llvm.memcpy.p0i8.p0i8.i64(i8* nonnull align 1 dereferenceable(72) %79, i8* nonnull align 1 dereferenceable(72) %51, i64 72, i1 false) #13, !dbg !4602
  call void @llvm.dbg.value(metadata i64 %77, metadata !4591, metadata !DIExpression(DW_OP_constu, 3, DW_OP_minus, DW_OP_stack_value)) #13, !dbg !4593
  %80 = getelementptr inbounds i8, i8* %76, i64 216, !dbg !4604
  call void @llvm.dbg.value(metadata i8* %80, metadata !4588, metadata !DIExpression()) #13, !dbg !4593
  tail call void @llvm.memcpy.p0i8.p0i8.i64(i8* nonnull align 1 dereferenceable(72) %80, i8* nonnull align 1 dereferenceable(72) %51, i64 72, i1 false) #13, !dbg !4602
  %81 = add i64 %77, -4, !dbg !4603
  call void @llvm.dbg.value(metadata i64 %81, metadata !4591, metadata !DIExpression()) #13, !dbg !4593
  %82 = getelementptr inbounds i8, i8* %76, i64 288, !dbg !4604
  call void @llvm.dbg.value(metadata i8* %82, metadata !4588, metadata !DIExpression()) #13, !dbg !4593
  %83 = icmp eq i64 %81, 0, !dbg !4595
  br i1 %83, label %84, label %75, !dbg !4598, !llvm.loop !4607

84:                                               ; preds = %71, %75, %49, %46
  store i32 %1, i32* %9, align 8, !dbg !4609, !tbaa !4527
  br label %85, !dbg !4610

85:                                               ; preds = %16, %84
  ret void, !dbg !4611
}

; Function Attrs: nobuiltin nofree
declare noalias nonnull i8* @_Znam(i64) local_unnamed_addr #12

; Function Attrs: argmemonly nounwind willreturn
declare void @llvm.memmove.p0i8.p0i8.i64(i8* nocapture, i8* nocapture readonly, i64, i1 immarg) #6

; Function Attrs: noinline optnone sspstrong uwtable
define linkonce_odr dso_local void @_Z14args_base_readI15EtherAddressArgA6_hEvP4ArgsPKciT_RT0_(%class.Args* %0, i8* %1, i32 %2, i32 %3, [6 x i8]* dereferenceable(6) %4) local_unnamed_addr #8 comdat !dbg !4612 {
  %6 = alloca %class.EtherAddressArg, align 4
  %7 = alloca %class.Args*, align 8
  %8 = alloca i8*, align 8
  %9 = alloca i32, align 4
  %10 = alloca [6 x i8]*, align 8
  %11 = alloca %class.EtherAddressArg, align 4
  %12 = getelementptr inbounds %class.EtherAddressArg, %class.EtherAddressArg* %6, i32 0, i32 0
  store i32 %3, i32* %12, align 4
  store %class.Args* %0, %class.Args** %7, align 8, !tbaa !3730
  call void @llvm.dbg.declare(metadata %class.Args** %7, metadata !4614, metadata !DIExpression()), !dbg !4619
  store i8* %1, i8** %8, align 8, !tbaa !3730
  call void @llvm.dbg.declare(metadata i8** %8, metadata !4615, metadata !DIExpression()), !dbg !4620
  store i32 %2, i32* %9, align 4, !tbaa !3167
  call void @llvm.dbg.declare(metadata i32* %9, metadata !4616, metadata !DIExpression()), !dbg !4621
  call void @llvm.dbg.declare(metadata %class.EtherAddressArg* %6, metadata !4617, metadata !DIExpression()), !dbg !4622
  store [6 x i8]* %4, [6 x i8]** %10, align 8, !tbaa !3730
  call void @llvm.dbg.declare(metadata [6 x i8]** %10, metadata !4618, metadata !DIExpression()), !dbg !4623
  %13 = load %class.Args*, %class.Args** %7, align 8, !dbg !4624, !tbaa !3730
  %14 = load i8*, i8** %8, align 8, !dbg !4625, !tbaa !3730
  %15 = load i32, i32* %9, align 4, !dbg !4626, !tbaa !3167
  %16 = bitcast %class.EtherAddressArg* %11 to i8*, !dbg !4627
  %17 = bitcast %class.EtherAddressArg* %6 to i8*, !dbg !4627
  call void @llvm.memcpy.p0i8.p0i8.i64(i8* align 4 %16, i8* align 4 %17, i64 4, i1 false), !dbg !4627, !tbaa.struct !4628
  %18 = load [6 x i8]*, [6 x i8]** %10, align 8, !dbg !4629, !tbaa !3730
  %19 = getelementptr inbounds %class.EtherAddressArg, %class.EtherAddressArg* %11, i32 0, i32 0, !dbg !4630
  %20 = load i32, i32* %19, align 4, !dbg !4630
  call void @_ZN4Args9base_readI15EtherAddressArgA6_hEEvPKciT_RT0_(%class.Args* %13, i8* %14, i32 %15, i32 %20, [6 x i8]* dereferenceable(6) %18), !dbg !4630
  ret void, !dbg !4631
}

; Function Attrs: sspstrong uwtable
define linkonce_odr dso_local void @_ZN4Args9base_readI15EtherAddressArgA6_hEEvPKciT_RT0_(%class.Args* %0, i8* %1, i32 %2, i32 %3, [6 x i8]* dereferenceable(6) %4) local_unnamed_addr #0 comdat align 2 personality i8* bitcast (i32 (...)* @__gxx_personality_v0 to i8*) !dbg !4632 {
  %6 = alloca %"struct.Args::Slot"*, align 8
  %7 = alloca %class.String, align 8
  call void @llvm.dbg.value(metadata i32 %3, metadata !4640, metadata !DIExpression()), !dbg !4648
  call void @llvm.dbg.value(metadata %class.Args* %0, metadata !4637, metadata !DIExpression()), !dbg !4648
  call void @llvm.dbg.value(metadata i8* %1, metadata !4638, metadata !DIExpression()), !dbg !4648
  call void @llvm.dbg.value(metadata i32 %2, metadata !4639, metadata !DIExpression()), !dbg !4648
  call void @llvm.dbg.value(metadata [6 x i8]* %4, metadata !4641, metadata !DIExpression()), !dbg !4648
  %8 = bitcast %"struct.Args::Slot"** %6 to i8*, !dbg !4649
  call void @llvm.lifetime.start.p0i8(i64 8, i8* nonnull %8) #13, !dbg !4649
  %9 = bitcast %class.String* %7 to i8*, !dbg !4650
  call void @llvm.lifetime.start.p0i8(i64 24, i8* nonnull %9) #13, !dbg !4650
  call void @llvm.dbg.declare(metadata %class.String* %7, metadata !4643, metadata !DIExpression()), !dbg !4651
  call void @llvm.dbg.value(metadata %"struct.Args::Slot"** %6, metadata !4642, metadata !DIExpression(DW_OP_deref)), !dbg !4648
  call void @_ZN4Args4findEPKciRPNS_4SlotE(%class.String* nonnull sret %7, %class.Args* %0, i8* %1, i32 %2, %"struct.Args::Slot"** nonnull dereferenceable(8) %6), !dbg !4652
  call void @llvm.dbg.value(metadata %class.String* %7, metadata !4653, metadata !DIExpression()), !dbg !4656
  %10 = getelementptr inbounds %class.String, %class.String* %7, i64 0, i32 0, i32 1, !dbg !4658
  %11 = load i32, i32* %10, align 8, !dbg !4658, !tbaa !3662
  %12 = icmp eq i32 %11, 0, !dbg !4659
  %13 = select i1 %12, { i64, i64 } zeroinitializer, { i64, i64 } { i64 ptrtoint (i32 (%class.String*)* @_ZNK6String6lengthEv to i64), i64 0 }, !dbg !4660
  %14 = extractvalue { i64, i64 } %13, 0, !dbg !4651
  %15 = icmp eq i64 %14, 0, !dbg !4651
  br i1 %15, label %41, label %16, !dbg !4650

16:                                               ; preds = %5
  call void @llvm.dbg.value(metadata [6 x i8]* %4, metadata !4645, metadata !DIExpression()), !dbg !4661
  call void @llvm.dbg.value(metadata i32 %3, metadata !4662, metadata !DIExpression()), !dbg !4676
  call void @llvm.dbg.value(metadata %class.String* %7, metadata !4673, metadata !DIExpression()), !dbg !4676
  call void @llvm.dbg.value(metadata [6 x i8]* %4, metadata !4674, metadata !DIExpression()), !dbg !4676
  call void @llvm.dbg.value(metadata %class.Args* %0, metadata !4675, metadata !DIExpression()), !dbg !4676
  call void @llvm.dbg.value(metadata %class.EtherAddressArg* undef, metadata !4678, metadata !DIExpression()), !dbg !4685
  call void @llvm.dbg.value(metadata %class.String* %7, metadata !4681, metadata !DIExpression()), !dbg !4685
  call void @llvm.dbg.value(metadata [6 x i8]* %4, metadata !4682, metadata !DIExpression()), !dbg !4685
  call void @llvm.dbg.value(metadata %class.Args* %0, metadata !4683, metadata !DIExpression()), !dbg !4685
  %17 = bitcast [6 x i8]* %4 to %class.EtherAddress*, !dbg !4687
  call void @llvm.dbg.value(metadata %class.EtherAddressArg* undef, metadata !4688, metadata !DIExpression()), !dbg !4694
  call void @llvm.dbg.value(metadata %class.String* %7, metadata !4691, metadata !DIExpression()), !dbg !4694
  call void @llvm.dbg.value(metadata %class.EtherAddress* %17, metadata !4692, metadata !DIExpression()), !dbg !4694
  call void @llvm.dbg.value(metadata %class.Args* %0, metadata !4693, metadata !DIExpression()), !dbg !4694
  %18 = invoke zeroext i1 @_ZN15EtherAddressArg12direct_parseERK6StringR12EtherAddressR4Argsi(%class.String* nonnull dereferenceable(24) %7, %class.EtherAddress* nonnull dereferenceable(6) %17, %class.Args* nonnull dereferenceable(112) %0, i32 %3)
          to label %19 unwind label %21, !dbg !4696

19:                                               ; preds = %16
  %20 = load %"struct.Args::Slot"*, %"struct.Args::Slot"** %6, align 8, !dbg !4697, !tbaa !3730
  call void @llvm.dbg.value(metadata %"struct.Args::Slot"* %20, metadata !4642, metadata !DIExpression()), !dbg !4648
  invoke void @_ZN4Args9postparseEbPNS_4SlotE(%class.Args* nonnull %0, i1 zeroext %18, %"struct.Args::Slot"* %20)
          to label %41 unwind label %21, !dbg !4698

21:                                               ; preds = %16, %19
  %22 = landingpad { i8*, i32 }
          cleanup, !dbg !4699
  call void @llvm.dbg.value(metadata %class.String* %7, metadata !3743, metadata !DIExpression()) #13, !dbg !4700
  call void @llvm.dbg.value(metadata %class.String* %7, metadata !3748, metadata !DIExpression()) #13, !dbg !4702
  %23 = getelementptr inbounds %class.String, %class.String* %7, i64 0, i32 0, i32 2, !dbg !4704
  %24 = load %"struct.String::memo_t"*, %"struct.String::memo_t"** %23, align 8, !dbg !4704, !tbaa !3666
  %25 = icmp eq %"struct.String::memo_t"* %24, null, !dbg !4705
  br i1 %25, label %40, label %26, !dbg !4706

26:                                               ; preds = %21
  %27 = getelementptr inbounds %"struct.String::memo_t", %"struct.String::memo_t"* %24, i64 0, i32 0, !dbg !4707
  %28 = load volatile i32, i32* %27, align 4, !dbg !4707, !tbaa !3759
  %29 = icmp eq i32 %28, 0, !dbg !4707
  br i1 %29, label %30, label %31, !dbg !4707

30:                                               ; preds = %26
  call void @__assert_fail(i8* getelementptr inbounds ([18 x i8], [18 x i8]* @.str.16, i64 0, i64 0), i8* getelementptr inbounds ([29 x i8], [29 x i8]* @.str.17, i64 0, i64 0), i32 273, i8* getelementptr inbounds ([27 x i8], [27 x i8]* @__PRETTY_FUNCTION__._ZNK6String5derefEv, i64 0, i64 0)) #15, !dbg !4707
  unreachable, !dbg !4707

31:                                               ; preds = %26
  call void @llvm.dbg.value(metadata i32* %27, metadata !3761, metadata !DIExpression()) #13, !dbg !4708
  %32 = load volatile i32, i32* %27, align 4, !dbg !4710, !tbaa !3167
  %33 = add i32 %32, -1, !dbg !4710
  store volatile i32 %33, i32* %27, align 4, !dbg !4710, !tbaa !3167
  %34 = icmp eq i32 %33, 0, !dbg !4711
  br i1 %34, label %35, label %36, !dbg !4712

35:                                               ; preds = %31
  invoke void @_ZN6String11delete_memoEPNS_6memo_tE(%"struct.String::memo_t"* nonnull %24)
          to label %36 unwind label %37, !dbg !4713

36:                                               ; preds = %35, %31
  store %"struct.String::memo_t"* null, %"struct.String::memo_t"** %23, align 8, !dbg !4714, !tbaa !3666
  br label %40, !dbg !4715

37:                                               ; preds = %35
  %38 = landingpad { i8*, i32 }
          catch i8* null, !dbg !4716
  %39 = extractvalue { i8*, i32 } %38, 0, !dbg !4716
  call void @__clang_call_terminate(i8* %39) #15, !dbg !4716
  unreachable, !dbg !4716

40:                                               ; preds = %21, %36
  call void @llvm.lifetime.end.p0i8(i64 24, i8* nonnull %9) #13, !dbg !4650
  call void @llvm.lifetime.end.p0i8(i64 8, i8* nonnull %8) #13, !dbg !4717
  resume { i8*, i32 } %22, !dbg !4717

41:                                               ; preds = %19, %5
  call void @llvm.dbg.value(metadata %class.String* %7, metadata !3743, metadata !DIExpression()) #13, !dbg !4718
  call void @llvm.dbg.value(metadata %class.String* %7, metadata !3748, metadata !DIExpression()) #13, !dbg !4720
  %42 = getelementptr inbounds %class.String, %class.String* %7, i64 0, i32 0, i32 2, !dbg !4722
  %43 = load %"struct.String::memo_t"*, %"struct.String::memo_t"** %42, align 8, !dbg !4722, !tbaa !3666
  %44 = icmp eq %"struct.String::memo_t"* %43, null, !dbg !4723
  br i1 %44, label %59, label %45, !dbg !4724

45:                                               ; preds = %41
  %46 = getelementptr inbounds %"struct.String::memo_t", %"struct.String::memo_t"* %43, i64 0, i32 0, !dbg !4725
  %47 = load volatile i32, i32* %46, align 4, !dbg !4725, !tbaa !3759
  %48 = icmp eq i32 %47, 0, !dbg !4725
  br i1 %48, label %49, label %50, !dbg !4725

49:                                               ; preds = %45
  call void @__assert_fail(i8* getelementptr inbounds ([18 x i8], [18 x i8]* @.str.16, i64 0, i64 0), i8* getelementptr inbounds ([29 x i8], [29 x i8]* @.str.17, i64 0, i64 0), i32 273, i8* getelementptr inbounds ([27 x i8], [27 x i8]* @__PRETTY_FUNCTION__._ZNK6String5derefEv, i64 0, i64 0)) #15, !dbg !4725
  unreachable, !dbg !4725

50:                                               ; preds = %45
  call void @llvm.dbg.value(metadata i32* %46, metadata !3761, metadata !DIExpression()) #13, !dbg !4726
  %51 = load volatile i32, i32* %46, align 4, !dbg !4728, !tbaa !3167
  %52 = add i32 %51, -1, !dbg !4728
  store volatile i32 %52, i32* %46, align 4, !dbg !4728, !tbaa !3167
  %53 = icmp eq i32 %52, 0, !dbg !4729
  br i1 %53, label %54, label %55, !dbg !4730

54:                                               ; preds = %50
  invoke void @_ZN6String11delete_memoEPNS_6memo_tE(%"struct.String::memo_t"* nonnull %43)
          to label %55 unwind label %56, !dbg !4731

55:                                               ; preds = %54, %50
  store %"struct.String::memo_t"* null, %"struct.String::memo_t"** %42, align 8, !dbg !4732, !tbaa !3666
  br label %59, !dbg !4733

56:                                               ; preds = %54
  %57 = landingpad { i8*, i32 }
          catch i8* null, !dbg !4734
  %58 = extractvalue { i8*, i32 } %57, 0, !dbg !4734
  call void @__clang_call_terminate(i8* %58) #15, !dbg !4734
  unreachable, !dbg !4734

59:                                               ; preds = %41, %55
  call void @llvm.lifetime.end.p0i8(i64 24, i8* nonnull %9) #13, !dbg !4650
  call void @llvm.lifetime.end.p0i8(i64 8, i8* nonnull %8) #13, !dbg !4717
  ret void, !dbg !4717
}

declare void @_ZN4Args4findEPKciRPNS_4SlotE(%class.String* sret, %class.Args*, i8*, i32, %"struct.Args::Slot"** dereferenceable(8)) local_unnamed_addr #2

declare void @_ZN4Args9postparseEbPNS_4SlotE(%class.Args*, i1 zeroext, %"struct.Args::Slot"*) local_unnamed_addr #2

declare zeroext i1 @_ZN15EtherAddressArg12direct_parseERK6StringR12EtherAddressR4Argsi(%class.String* dereferenceable(24), %class.EtherAddress* dereferenceable(6), %class.Args* dereferenceable(112), i32) local_unnamed_addr #2

; Function Attrs: noinline optnone sspstrong uwtable
define linkonce_odr dso_local void @_Z14args_base_readI14ElementCastArgP10SuppressorEvP4ArgsPKciT_RT0_(%class.Args* %0, i8* %1, i32 %2, i8* %3, %class.Suppressor** dereferenceable(8) %4) local_unnamed_addr #8 comdat !dbg !4735 {
  %6 = alloca %class.ElementCastArg, align 8
  %7 = alloca %class.Args*, align 8
  %8 = alloca i8*, align 8
  %9 = alloca i32, align 4
  %10 = alloca %class.Suppressor**, align 8
  %11 = alloca %class.ElementCastArg, align 8
  %12 = getelementptr inbounds %class.ElementCastArg, %class.ElementCastArg* %6, i32 0, i32 0
  store i8* %3, i8** %12, align 8
  store %class.Args* %0, %class.Args** %7, align 8, !tbaa !3730
  call void @llvm.dbg.declare(metadata %class.Args** %7, metadata !4737, metadata !DIExpression()), !dbg !4742
  store i8* %1, i8** %8, align 8, !tbaa !3730
  call void @llvm.dbg.declare(metadata i8** %8, metadata !4738, metadata !DIExpression()), !dbg !4743
  store i32 %2, i32* %9, align 4, !tbaa !3167
  call void @llvm.dbg.declare(metadata i32* %9, metadata !4739, metadata !DIExpression()), !dbg !4744
  call void @llvm.dbg.declare(metadata %class.ElementCastArg* %6, metadata !4740, metadata !DIExpression()), !dbg !4745
  store %class.Suppressor** %4, %class.Suppressor*** %10, align 8, !tbaa !3730
  call void @llvm.dbg.declare(metadata %class.Suppressor*** %10, metadata !4741, metadata !DIExpression()), !dbg !4746
  %13 = load %class.Args*, %class.Args** %7, align 8, !dbg !4747, !tbaa !3730
  %14 = load i8*, i8** %8, align 8, !dbg !4748, !tbaa !3730
  %15 = load i32, i32* %9, align 4, !dbg !4749, !tbaa !3167
  %16 = bitcast %class.ElementCastArg* %11 to i8*, !dbg !4750
  %17 = bitcast %class.ElementCastArg* %6 to i8*, !dbg !4750
  call void @llvm.memcpy.p0i8.p0i8.i64(i8* align 8 %16, i8* align 8 %17, i64 8, i1 false), !dbg !4750, !tbaa.struct !4751
  %18 = load %class.Suppressor**, %class.Suppressor*** %10, align 8, !dbg !4752, !tbaa !3730
  %19 = getelementptr inbounds %class.ElementCastArg, %class.ElementCastArg* %11, i32 0, i32 0, !dbg !4753
  %20 = load i8*, i8** %19, align 8, !dbg !4753
  call void @_ZN4Args9base_readI14ElementCastArgP10SuppressorEEvPKciT_RT0_(%class.Args* %13, i8* %14, i32 %15, i8* %20, %class.Suppressor** dereferenceable(8) %18), !dbg !4753
  ret void, !dbg !4754
}

; Function Attrs: sspstrong uwtable
define linkonce_odr dso_local void @_ZN4Args9base_readI14ElementCastArgP10SuppressorEEvPKciT_RT0_(%class.Args* %0, i8* %1, i32 %2, i8* %3, %class.Suppressor** dereferenceable(8) %4) local_unnamed_addr #0 comdat align 2 personality i8* bitcast (i32 (...)* @__gxx_personality_v0 to i8*) !dbg !4755 {
  %6 = alloca %class.ElementCastArg, align 8
  call void @llvm.dbg.declare(metadata %class.ElementCastArg* %6, metadata !4770, metadata !DIExpression()), !dbg !4783
  %7 = alloca %"struct.Args::Slot"*, align 8
  %8 = alloca %class.String, align 8
  call void @llvm.dbg.value(metadata i8* %3, metadata !4763, metadata !DIExpression()), !dbg !4785
  call void @llvm.dbg.value(metadata %class.Args* %0, metadata !4760, metadata !DIExpression()), !dbg !4785
  call void @llvm.dbg.value(metadata i8* %1, metadata !4761, metadata !DIExpression()), !dbg !4785
  call void @llvm.dbg.value(metadata i32 %2, metadata !4762, metadata !DIExpression()), !dbg !4785
  call void @llvm.dbg.value(metadata %class.Suppressor** %4, metadata !4764, metadata !DIExpression()), !dbg !4785
  %9 = bitcast %"struct.Args::Slot"** %7 to i8*, !dbg !4786
  call void @llvm.lifetime.start.p0i8(i64 8, i8* nonnull %9) #13, !dbg !4786
  %10 = bitcast %class.String* %8 to i8*, !dbg !4787
  call void @llvm.lifetime.start.p0i8(i64 24, i8* nonnull %10) #13, !dbg !4787
  call void @llvm.dbg.declare(metadata %class.String* %8, metadata !4766, metadata !DIExpression()), !dbg !4788
  call void @llvm.dbg.value(metadata %"struct.Args::Slot"** %7, metadata !4765, metadata !DIExpression(DW_OP_deref)), !dbg !4785
  call void @_ZN4Args4findEPKciRPNS_4SlotE(%class.String* nonnull sret %8, %class.Args* %0, i8* %1, i32 %2, %"struct.Args::Slot"** nonnull dereferenceable(8) %7), !dbg !4789
  call void @llvm.dbg.value(metadata %class.String* %8, metadata !4653, metadata !DIExpression()), !dbg !4790
  %11 = getelementptr inbounds %class.String, %class.String* %8, i64 0, i32 0, i32 1, !dbg !4792
  %12 = load i32, i32* %11, align 8, !dbg !4792, !tbaa !3662
  %13 = icmp eq i32 %12, 0, !dbg !4793
  %14 = select i1 %13, { i64, i64 } zeroinitializer, { i64, i64 } { i64 ptrtoint (i32 (%class.String*)* @_ZNK6String6lengthEv to i64), i64 0 }, !dbg !4794
  %15 = extractvalue { i64, i64 } %14, 0, !dbg !4788
  %16 = icmp eq i64 %15, 0, !dbg !4788
  br i1 %16, label %52, label %17, !dbg !4787

17:                                               ; preds = %5
  call void @llvm.dbg.value(metadata %class.Suppressor** %4, metadata !4795, metadata !DIExpression()), !dbg !4802
  call void @llvm.dbg.value(metadata %class.Args* %0, metadata !4801, metadata !DIExpression()), !dbg !4802
  call void @llvm.dbg.value(metadata %class.Args* %0, metadata !4804, metadata !DIExpression()), !dbg !4812
  call void @llvm.dbg.value(metadata %class.Suppressor** %4, metadata !4811, metadata !DIExpression()), !dbg !4812
  %18 = bitcast %class.Suppressor** %4 to i8*, !dbg !4814
  %19 = invoke i8* @_ZN4Args11simple_slotEPvm(%class.Args* nonnull %0, i8* nonnull %18, i64 8)
          to label %20 unwind label %32, !dbg !4816

20:                                               ; preds = %17
  call void @llvm.dbg.value(metadata i8* %19, metadata !4768, metadata !DIExpression()), !dbg !4817
  %21 = icmp eq i8* %19, null, !dbg !4818
  br i1 %21, label %29, label %22, !dbg !4819

22:                                               ; preds = %20
  call void @llvm.dbg.value(metadata i8* %19, metadata !4768, metadata !DIExpression()), !dbg !4817
  %23 = bitcast %class.ElementCastArg* %6 to i8*
  call void @llvm.lifetime.start.p0i8(i64 8, i8* nonnull %23)
  %24 = getelementptr inbounds %class.ElementCastArg, %class.ElementCastArg* %6, i64 0, i32 0
  store i8* %3, i8** %24, align 8
  call void @llvm.dbg.value(metadata %class.String* %8, metadata !4780, metadata !DIExpression()), !dbg !4820
  call void @llvm.dbg.value(metadata i8* %19, metadata !4781, metadata !DIExpression()), !dbg !4820
  call void @llvm.dbg.value(metadata %class.Args* %0, metadata !4782, metadata !DIExpression()), !dbg !4820
  %25 = bitcast %class.Args* %0 to %class.ArgContext*, !dbg !4821
  call void @llvm.dbg.value(metadata %class.ElementCastArg* %6, metadata !4822, metadata !DIExpression()), !dbg !4834
  call void @llvm.dbg.value(metadata %class.String* %8, metadata !4830, metadata !DIExpression()), !dbg !4834
  call void @llvm.dbg.value(metadata i8* %19, metadata !4831, metadata !DIExpression()), !dbg !4834
  call void @llvm.dbg.value(metadata %class.ArgContext* %25, metadata !4832, metadata !DIExpression()), !dbg !4834
  %26 = bitcast i8* %19 to %class.Element**, !dbg !4836
  %27 = invoke zeroext i1 @_ZN14ElementCastArg5parseERK6StringRP7ElementRK10ArgContext(%class.ElementCastArg* nonnull %6, %class.String* nonnull dereferenceable(24) %8, %class.Element** nonnull dereferenceable(8) %26, %class.ArgContext* nonnull dereferenceable(32) %25)
          to label %28 unwind label %32, !dbg !4837

28:                                               ; preds = %22
  call void @llvm.lifetime.end.p0i8(i64 8, i8* nonnull %23), !dbg !4838
  br label %29, !dbg !4838

29:                                               ; preds = %28, %20
  %30 = phi i1 [ false, %20 ], [ %27, %28 ], !dbg !4817
  %31 = load %"struct.Args::Slot"*, %"struct.Args::Slot"** %7, align 8, !dbg !4839, !tbaa !3730
  call void @llvm.dbg.value(metadata %"struct.Args::Slot"* %31, metadata !4765, metadata !DIExpression()), !dbg !4785
  invoke void @_ZN4Args9postparseEbPNS_4SlotE(%class.Args* nonnull %0, i1 zeroext %30, %"struct.Args::Slot"* %31)
          to label %52 unwind label %32, !dbg !4840

32:                                               ; preds = %22, %17, %29
  %33 = landingpad { i8*, i32 }
          cleanup, !dbg !4841
  call void @llvm.dbg.value(metadata %class.String* %8, metadata !3743, metadata !DIExpression()) #13, !dbg !4842
  call void @llvm.dbg.value(metadata %class.String* %8, metadata !3748, metadata !DIExpression()) #13, !dbg !4844
  %34 = getelementptr inbounds %class.String, %class.String* %8, i64 0, i32 0, i32 2, !dbg !4846
  %35 = load %"struct.String::memo_t"*, %"struct.String::memo_t"** %34, align 8, !dbg !4846, !tbaa !3666
  %36 = icmp eq %"struct.String::memo_t"* %35, null, !dbg !4847
  br i1 %36, label %51, label %37, !dbg !4848

37:                                               ; preds = %32
  %38 = getelementptr inbounds %"struct.String::memo_t", %"struct.String::memo_t"* %35, i64 0, i32 0, !dbg !4849
  %39 = load volatile i32, i32* %38, align 4, !dbg !4849, !tbaa !3759
  %40 = icmp eq i32 %39, 0, !dbg !4849
  br i1 %40, label %41, label %42, !dbg !4849

41:                                               ; preds = %37
  call void @__assert_fail(i8* getelementptr inbounds ([18 x i8], [18 x i8]* @.str.16, i64 0, i64 0), i8* getelementptr inbounds ([29 x i8], [29 x i8]* @.str.17, i64 0, i64 0), i32 273, i8* getelementptr inbounds ([27 x i8], [27 x i8]* @__PRETTY_FUNCTION__._ZNK6String5derefEv, i64 0, i64 0)) #15, !dbg !4849
  unreachable, !dbg !4849

42:                                               ; preds = %37
  call void @llvm.dbg.value(metadata i32* %38, metadata !3761, metadata !DIExpression()) #13, !dbg !4850
  %43 = load volatile i32, i32* %38, align 4, !dbg !4852, !tbaa !3167
  %44 = add i32 %43, -1, !dbg !4852
  store volatile i32 %44, i32* %38, align 4, !dbg !4852, !tbaa !3167
  %45 = icmp eq i32 %44, 0, !dbg !4853
  br i1 %45, label %46, label %47, !dbg !4854

46:                                               ; preds = %42
  invoke void @_ZN6String11delete_memoEPNS_6memo_tE(%"struct.String::memo_t"* nonnull %35)
          to label %47 unwind label %48, !dbg !4855

47:                                               ; preds = %46, %42
  store %"struct.String::memo_t"* null, %"struct.String::memo_t"** %34, align 8, !dbg !4856, !tbaa !3666
  br label %51, !dbg !4857

48:                                               ; preds = %46
  %49 = landingpad { i8*, i32 }
          catch i8* null, !dbg !4858
  %50 = extractvalue { i8*, i32 } %49, 0, !dbg !4858
  call void @__clang_call_terminate(i8* %50) #15, !dbg !4858
  unreachable, !dbg !4858

51:                                               ; preds = %32, %47
  call void @llvm.lifetime.end.p0i8(i64 24, i8* nonnull %10) #13, !dbg !4787
  call void @llvm.lifetime.end.p0i8(i64 8, i8* nonnull %9) #13, !dbg !4859
  resume { i8*, i32 } %33, !dbg !4859

52:                                               ; preds = %29, %5
  call void @llvm.dbg.value(metadata %class.String* %8, metadata !3743, metadata !DIExpression()) #13, !dbg !4860
  call void @llvm.dbg.value(metadata %class.String* %8, metadata !3748, metadata !DIExpression()) #13, !dbg !4862
  %53 = getelementptr inbounds %class.String, %class.String* %8, i64 0, i32 0, i32 2, !dbg !4864
  %54 = load %"struct.String::memo_t"*, %"struct.String::memo_t"** %53, align 8, !dbg !4864, !tbaa !3666
  %55 = icmp eq %"struct.String::memo_t"* %54, null, !dbg !4865
  br i1 %55, label %70, label %56, !dbg !4866

56:                                               ; preds = %52
  %57 = getelementptr inbounds %"struct.String::memo_t", %"struct.String::memo_t"* %54, i64 0, i32 0, !dbg !4867
  %58 = load volatile i32, i32* %57, align 4, !dbg !4867, !tbaa !3759
  %59 = icmp eq i32 %58, 0, !dbg !4867
  br i1 %59, label %60, label %61, !dbg !4867

60:                                               ; preds = %56
  call void @__assert_fail(i8* getelementptr inbounds ([18 x i8], [18 x i8]* @.str.16, i64 0, i64 0), i8* getelementptr inbounds ([29 x i8], [29 x i8]* @.str.17, i64 0, i64 0), i32 273, i8* getelementptr inbounds ([27 x i8], [27 x i8]* @__PRETTY_FUNCTION__._ZNK6String5derefEv, i64 0, i64 0)) #15, !dbg !4867
  unreachable, !dbg !4867

61:                                               ; preds = %56
  call void @llvm.dbg.value(metadata i32* %57, metadata !3761, metadata !DIExpression()) #13, !dbg !4868
  %62 = load volatile i32, i32* %57, align 4, !dbg !4870, !tbaa !3167
  %63 = add i32 %62, -1, !dbg !4870
  store volatile i32 %63, i32* %57, align 4, !dbg !4870, !tbaa !3167
  %64 = icmp eq i32 %63, 0, !dbg !4871
  br i1 %64, label %65, label %66, !dbg !4872

65:                                               ; preds = %61
  invoke void @_ZN6String11delete_memoEPNS_6memo_tE(%"struct.String::memo_t"* nonnull %54)
          to label %66 unwind label %67, !dbg !4873

66:                                               ; preds = %65, %61
  store %"struct.String::memo_t"* null, %"struct.String::memo_t"** %53, align 8, !dbg !4874, !tbaa !3666
  br label %70, !dbg !4875

67:                                               ; preds = %65
  %68 = landingpad { i8*, i32 }
          catch i8* null, !dbg !4876
  %69 = extractvalue { i8*, i32 } %68, 0, !dbg !4876
  call void @__clang_call_terminate(i8* %69) #15, !dbg !4876
  unreachable, !dbg !4876

70:                                               ; preds = %52, %66
  call void @llvm.lifetime.end.p0i8(i64 24, i8* nonnull %10) #13, !dbg !4787
  call void @llvm.lifetime.end.p0i8(i64 8, i8* nonnull %9) #13, !dbg !4859
  ret void, !dbg !4859
}

declare i8* @_ZN4Args11simple_slotEPvm(%class.Args*, i8*, i64) local_unnamed_addr #2

declare zeroext i1 @_ZN14ElementCastArg5parseERK6StringRP7ElementRK10ArgContext(%class.ElementCastArg*, %class.String* dereferenceable(24), %class.Element** dereferenceable(8), %class.ArgContext* dereferenceable(32)) local_unnamed_addr #2

; Function Attrs: noinline optnone sspstrong uwtable
define linkonce_odr dso_local void @_Z14args_base_readI14ElementCastArgP11EtherSwitchEvP4ArgsPKciT_RT0_(%class.Args* %0, i8* %1, i32 %2, i8* %3, %class.EtherSwitch** dereferenceable(8) %4) local_unnamed_addr #8 comdat !dbg !4877 {
  %6 = alloca %class.ElementCastArg, align 8
  %7 = alloca %class.Args*, align 8
  %8 = alloca i8*, align 8
  %9 = alloca i32, align 4
  %10 = alloca %class.EtherSwitch**, align 8
  %11 = alloca %class.ElementCastArg, align 8
  %12 = getelementptr inbounds %class.ElementCastArg, %class.ElementCastArg* %6, i32 0, i32 0
  store i8* %3, i8** %12, align 8
  store %class.Args* %0, %class.Args** %7, align 8, !tbaa !3730
  call void @llvm.dbg.declare(metadata %class.Args** %7, metadata !4879, metadata !DIExpression()), !dbg !4884
  store i8* %1, i8** %8, align 8, !tbaa !3730
  call void @llvm.dbg.declare(metadata i8** %8, metadata !4880, metadata !DIExpression()), !dbg !4885
  store i32 %2, i32* %9, align 4, !tbaa !3167
  call void @llvm.dbg.declare(metadata i32* %9, metadata !4881, metadata !DIExpression()), !dbg !4886
  call void @llvm.dbg.declare(metadata %class.ElementCastArg* %6, metadata !4882, metadata !DIExpression()), !dbg !4887
  store %class.EtherSwitch** %4, %class.EtherSwitch*** %10, align 8, !tbaa !3730
  call void @llvm.dbg.declare(metadata %class.EtherSwitch*** %10, metadata !4883, metadata !DIExpression()), !dbg !4888
  %13 = load %class.Args*, %class.Args** %7, align 8, !dbg !4889, !tbaa !3730
  %14 = load i8*, i8** %8, align 8, !dbg !4890, !tbaa !3730
  %15 = load i32, i32* %9, align 4, !dbg !4891, !tbaa !3167
  %16 = bitcast %class.ElementCastArg* %11 to i8*, !dbg !4892
  %17 = bitcast %class.ElementCastArg* %6 to i8*, !dbg !4892
  call void @llvm.memcpy.p0i8.p0i8.i64(i8* align 8 %16, i8* align 8 %17, i64 8, i1 false), !dbg !4892, !tbaa.struct !4751
  %18 = load %class.EtherSwitch**, %class.EtherSwitch*** %10, align 8, !dbg !4893, !tbaa !3730
  %19 = getelementptr inbounds %class.ElementCastArg, %class.ElementCastArg* %11, i32 0, i32 0, !dbg !4894
  %20 = load i8*, i8** %19, align 8, !dbg !4894
  call void @_ZN4Args9base_readI14ElementCastArgP11EtherSwitchEEvPKciT_RT0_(%class.Args* %13, i8* %14, i32 %15, i8* %20, %class.EtherSwitch** dereferenceable(8) %18), !dbg !4894
  ret void, !dbg !4895
}

; Function Attrs: sspstrong uwtable
define linkonce_odr dso_local void @_ZN4Args9base_readI14ElementCastArgP11EtherSwitchEEvPKciT_RT0_(%class.Args* %0, i8* %1, i32 %2, i8* %3, %class.EtherSwitch** dereferenceable(8) %4) local_unnamed_addr #0 comdat align 2 personality i8* bitcast (i32 (...)* @__gxx_personality_v0 to i8*) !dbg !4896 {
  %6 = alloca %class.ElementCastArg, align 8
  call void @llvm.dbg.declare(metadata %class.ElementCastArg* %6, metadata !4911, metadata !DIExpression()), !dbg !4921
  %7 = alloca %"struct.Args::Slot"*, align 8
  %8 = alloca %class.String, align 8
  call void @llvm.dbg.value(metadata i8* %3, metadata !4904, metadata !DIExpression()), !dbg !4923
  call void @llvm.dbg.value(metadata %class.Args* %0, metadata !4901, metadata !DIExpression()), !dbg !4923
  call void @llvm.dbg.value(metadata i8* %1, metadata !4902, metadata !DIExpression()), !dbg !4923
  call void @llvm.dbg.value(metadata i32 %2, metadata !4903, metadata !DIExpression()), !dbg !4923
  call void @llvm.dbg.value(metadata %class.EtherSwitch** %4, metadata !4905, metadata !DIExpression()), !dbg !4923
  %9 = bitcast %"struct.Args::Slot"** %7 to i8*, !dbg !4924
  call void @llvm.lifetime.start.p0i8(i64 8, i8* nonnull %9) #13, !dbg !4924
  %10 = bitcast %class.String* %8 to i8*, !dbg !4925
  call void @llvm.lifetime.start.p0i8(i64 24, i8* nonnull %10) #13, !dbg !4925
  call void @llvm.dbg.declare(metadata %class.String* %8, metadata !4907, metadata !DIExpression()), !dbg !4926
  call void @llvm.dbg.value(metadata %"struct.Args::Slot"** %7, metadata !4906, metadata !DIExpression(DW_OP_deref)), !dbg !4923
  call void @_ZN4Args4findEPKciRPNS_4SlotE(%class.String* nonnull sret %8, %class.Args* %0, i8* %1, i32 %2, %"struct.Args::Slot"** nonnull dereferenceable(8) %7), !dbg !4927
  call void @llvm.dbg.value(metadata %class.String* %8, metadata !4653, metadata !DIExpression()), !dbg !4928
  %11 = getelementptr inbounds %class.String, %class.String* %8, i64 0, i32 0, i32 1, !dbg !4930
  %12 = load i32, i32* %11, align 8, !dbg !4930, !tbaa !3662
  %13 = icmp eq i32 %12, 0, !dbg !4931
  %14 = select i1 %13, { i64, i64 } zeroinitializer, { i64, i64 } { i64 ptrtoint (i32 (%class.String*)* @_ZNK6String6lengthEv to i64), i64 0 }, !dbg !4932
  %15 = extractvalue { i64, i64 } %14, 0, !dbg !4926
  %16 = icmp eq i64 %15, 0, !dbg !4926
  br i1 %16, label %52, label %17, !dbg !4925

17:                                               ; preds = %5
  call void @llvm.dbg.value(metadata %class.EtherSwitch** %4, metadata !4933, metadata !DIExpression()), !dbg !4940
  call void @llvm.dbg.value(metadata %class.Args* %0, metadata !4939, metadata !DIExpression()), !dbg !4940
  call void @llvm.dbg.value(metadata %class.Args* %0, metadata !4942, metadata !DIExpression()), !dbg !4950
  call void @llvm.dbg.value(metadata %class.EtherSwitch** %4, metadata !4949, metadata !DIExpression()), !dbg !4950
  %18 = bitcast %class.EtherSwitch** %4 to i8*, !dbg !4952
  %19 = invoke i8* @_ZN4Args11simple_slotEPvm(%class.Args* nonnull %0, i8* nonnull %18, i64 8)
          to label %20 unwind label %32, !dbg !4954

20:                                               ; preds = %17
  call void @llvm.dbg.value(metadata i8* %19, metadata !4909, metadata !DIExpression()), !dbg !4955
  %21 = icmp eq i8* %19, null, !dbg !4956
  br i1 %21, label %29, label %22, !dbg !4957

22:                                               ; preds = %20
  call void @llvm.dbg.value(metadata i8* %19, metadata !4909, metadata !DIExpression()), !dbg !4955
  %23 = bitcast %class.ElementCastArg* %6 to i8*
  call void @llvm.lifetime.start.p0i8(i64 8, i8* nonnull %23)
  %24 = getelementptr inbounds %class.ElementCastArg, %class.ElementCastArg* %6, i64 0, i32 0
  store i8* %3, i8** %24, align 8
  call void @llvm.dbg.value(metadata %class.String* %8, metadata !4918, metadata !DIExpression()), !dbg !4958
  call void @llvm.dbg.value(metadata i8* %19, metadata !4919, metadata !DIExpression()), !dbg !4958
  call void @llvm.dbg.value(metadata %class.Args* %0, metadata !4920, metadata !DIExpression()), !dbg !4958
  %25 = bitcast %class.Args* %0 to %class.ArgContext*, !dbg !4959
  call void @llvm.dbg.value(metadata %class.ElementCastArg* %6, metadata !4960, metadata !DIExpression()), !dbg !4971
  call void @llvm.dbg.value(metadata %class.String* %8, metadata !4968, metadata !DIExpression()), !dbg !4971
  call void @llvm.dbg.value(metadata i8* %19, metadata !4969, metadata !DIExpression()), !dbg !4971
  call void @llvm.dbg.value(metadata %class.ArgContext* %25, metadata !4970, metadata !DIExpression()), !dbg !4971
  %26 = bitcast i8* %19 to %class.Element**, !dbg !4973
  %27 = invoke zeroext i1 @_ZN14ElementCastArg5parseERK6StringRP7ElementRK10ArgContext(%class.ElementCastArg* nonnull %6, %class.String* nonnull dereferenceable(24) %8, %class.Element** nonnull dereferenceable(8) %26, %class.ArgContext* nonnull dereferenceable(32) %25)
          to label %28 unwind label %32, !dbg !4974

28:                                               ; preds = %22
  call void @llvm.lifetime.end.p0i8(i64 8, i8* nonnull %23), !dbg !4975
  br label %29, !dbg !4975

29:                                               ; preds = %28, %20
  %30 = phi i1 [ false, %20 ], [ %27, %28 ], !dbg !4955
  %31 = load %"struct.Args::Slot"*, %"struct.Args::Slot"** %7, align 8, !dbg !4976, !tbaa !3730
  call void @llvm.dbg.value(metadata %"struct.Args::Slot"* %31, metadata !4906, metadata !DIExpression()), !dbg !4923
  invoke void @_ZN4Args9postparseEbPNS_4SlotE(%class.Args* nonnull %0, i1 zeroext %30, %"struct.Args::Slot"* %31)
          to label %52 unwind label %32, !dbg !4977

32:                                               ; preds = %22, %17, %29
  %33 = landingpad { i8*, i32 }
          cleanup, !dbg !4978
  call void @llvm.dbg.value(metadata %class.String* %8, metadata !3743, metadata !DIExpression()) #13, !dbg !4979
  call void @llvm.dbg.value(metadata %class.String* %8, metadata !3748, metadata !DIExpression()) #13, !dbg !4981
  %34 = getelementptr inbounds %class.String, %class.String* %8, i64 0, i32 0, i32 2, !dbg !4983
  %35 = load %"struct.String::memo_t"*, %"struct.String::memo_t"** %34, align 8, !dbg !4983, !tbaa !3666
  %36 = icmp eq %"struct.String::memo_t"* %35, null, !dbg !4984
  br i1 %36, label %51, label %37, !dbg !4985

37:                                               ; preds = %32
  %38 = getelementptr inbounds %"struct.String::memo_t", %"struct.String::memo_t"* %35, i64 0, i32 0, !dbg !4986
  %39 = load volatile i32, i32* %38, align 4, !dbg !4986, !tbaa !3759
  %40 = icmp eq i32 %39, 0, !dbg !4986
  br i1 %40, label %41, label %42, !dbg !4986

41:                                               ; preds = %37
  call void @__assert_fail(i8* getelementptr inbounds ([18 x i8], [18 x i8]* @.str.16, i64 0, i64 0), i8* getelementptr inbounds ([29 x i8], [29 x i8]* @.str.17, i64 0, i64 0), i32 273, i8* getelementptr inbounds ([27 x i8], [27 x i8]* @__PRETTY_FUNCTION__._ZNK6String5derefEv, i64 0, i64 0)) #15, !dbg !4986
  unreachable, !dbg !4986

42:                                               ; preds = %37
  call void @llvm.dbg.value(metadata i32* %38, metadata !3761, metadata !DIExpression()) #13, !dbg !4987
  %43 = load volatile i32, i32* %38, align 4, !dbg !4989, !tbaa !3167
  %44 = add i32 %43, -1, !dbg !4989
  store volatile i32 %44, i32* %38, align 4, !dbg !4989, !tbaa !3167
  %45 = icmp eq i32 %44, 0, !dbg !4990
  br i1 %45, label %46, label %47, !dbg !4991

46:                                               ; preds = %42
  invoke void @_ZN6String11delete_memoEPNS_6memo_tE(%"struct.String::memo_t"* nonnull %35)
          to label %47 unwind label %48, !dbg !4992

47:                                               ; preds = %46, %42
  store %"struct.String::memo_t"* null, %"struct.String::memo_t"** %34, align 8, !dbg !4993, !tbaa !3666
  br label %51, !dbg !4994

48:                                               ; preds = %46
  %49 = landingpad { i8*, i32 }
          catch i8* null, !dbg !4995
  %50 = extractvalue { i8*, i32 } %49, 0, !dbg !4995
  call void @__clang_call_terminate(i8* %50) #15, !dbg !4995
  unreachable, !dbg !4995

51:                                               ; preds = %32, %47
  call void @llvm.lifetime.end.p0i8(i64 24, i8* nonnull %10) #13, !dbg !4925
  call void @llvm.lifetime.end.p0i8(i64 8, i8* nonnull %9) #13, !dbg !4996
  resume { i8*, i32 } %33, !dbg !4996

52:                                               ; preds = %29, %5
  call void @llvm.dbg.value(metadata %class.String* %8, metadata !3743, metadata !DIExpression()) #13, !dbg !4997
  call void @llvm.dbg.value(metadata %class.String* %8, metadata !3748, metadata !DIExpression()) #13, !dbg !4999
  %53 = getelementptr inbounds %class.String, %class.String* %8, i64 0, i32 0, i32 2, !dbg !5001
  %54 = load %"struct.String::memo_t"*, %"struct.String::memo_t"** %53, align 8, !dbg !5001, !tbaa !3666
  %55 = icmp eq %"struct.String::memo_t"* %54, null, !dbg !5002
  br i1 %55, label %70, label %56, !dbg !5003

56:                                               ; preds = %52
  %57 = getelementptr inbounds %"struct.String::memo_t", %"struct.String::memo_t"* %54, i64 0, i32 0, !dbg !5004
  %58 = load volatile i32, i32* %57, align 4, !dbg !5004, !tbaa !3759
  %59 = icmp eq i32 %58, 0, !dbg !5004
  br i1 %59, label %60, label %61, !dbg !5004

60:                                               ; preds = %56
  call void @__assert_fail(i8* getelementptr inbounds ([18 x i8], [18 x i8]* @.str.16, i64 0, i64 0), i8* getelementptr inbounds ([29 x i8], [29 x i8]* @.str.17, i64 0, i64 0), i32 273, i8* getelementptr inbounds ([27 x i8], [27 x i8]* @__PRETTY_FUNCTION__._ZNK6String5derefEv, i64 0, i64 0)) #15, !dbg !5004
  unreachable, !dbg !5004

61:                                               ; preds = %56
  call void @llvm.dbg.value(metadata i32* %57, metadata !3761, metadata !DIExpression()) #13, !dbg !5005
  %62 = load volatile i32, i32* %57, align 4, !dbg !5007, !tbaa !3167
  %63 = add i32 %62, -1, !dbg !5007
  store volatile i32 %63, i32* %57, align 4, !dbg !5007, !tbaa !3167
  %64 = icmp eq i32 %63, 0, !dbg !5008
  br i1 %64, label %65, label %66, !dbg !5009

65:                                               ; preds = %61
  invoke void @_ZN6String11delete_memoEPNS_6memo_tE(%"struct.String::memo_t"* nonnull %54)
          to label %66 unwind label %67, !dbg !5010

66:                                               ; preds = %65, %61
  store %"struct.String::memo_t"* null, %"struct.String::memo_t"** %53, align 8, !dbg !5011, !tbaa !3666
  br label %70, !dbg !5012

67:                                               ; preds = %65
  %68 = landingpad { i8*, i32 }
          catch i8* null, !dbg !5013
  %69 = extractvalue { i8*, i32 } %68, 0, !dbg !5013
  call void @__clang_call_terminate(i8* %69) #15, !dbg !5013
  unreachable, !dbg !5013

70:                                               ; preds = %52, %66
  call void @llvm.lifetime.end.p0i8(i64 24, i8* nonnull %10) #13, !dbg !4925
  call void @llvm.lifetime.end.p0i8(i64 8, i8* nonnull %9) #13, !dbg !4996
  ret void, !dbg !4996
}

; Function Attrs: nounwind readnone speculatable willreturn
declare void @llvm.dbg.value(metadata, metadata, metadata) #1

; Function Attrs: nounwind readnone speculatable willreturn
declare i16 @llvm.bswap.i16(i16) #1

; Function Attrs: nounwind readnone speculatable willreturn
declare i32 @llvm.bswap.i32(i32) #1

; Function Attrs: argmemonly nounwind willreturn
declare void @llvm.memset.p0i8.i64(i8* nocapture writeonly, i8, i64, i1 immarg) #6

attributes #0 = { sspstrong uwtable "correctly-rounded-divide-sqrt-fp-math"="false" "disable-tail-calls"="false" "frame-pointer"="none" "less-precise-fpmad"="false" "min-legal-vector-width"="0" "no-infs-fp-math"="false" "no-jump-tables"="false" "no-nans-fp-math"="false" "no-signed-zeros-fp-math"="false" "no-trapping-math"="false" "stack-protector-buffer-size"="8" "target-cpu"="x86-64" "target-features"="+cx8,+fxsr,+mmx,+sse,+sse2,+x87" "unsafe-fp-math"="false" "use-soft-float"="false" }
attributes #1 = { nounwind readnone speculatable willreturn }
attributes #2 = { "correctly-rounded-divide-sqrt-fp-math"="false" "disable-tail-calls"="false" "frame-pointer"="none" "less-precise-fpmad"="false" "no-infs-fp-math"="false" "no-nans-fp-math"="false" "no-signed-zeros-fp-math"="false" "no-trapping-math"="false" "stack-protector-buffer-size"="8" "target-cpu"="x86-64" "target-features"="+cx8,+fxsr,+mmx,+sse,+sse2,+x87" "unsafe-fp-math"="false" "use-soft-float"="false" }
attributes #3 = { nounwind "correctly-rounded-divide-sqrt-fp-math"="false" "disable-tail-calls"="false" "frame-pointer"="none" "less-precise-fpmad"="false" "no-infs-fp-math"="false" "no-nans-fp-math"="false" "no-signed-zeros-fp-math"="false" "no-trapping-math"="false" "stack-protector-buffer-size"="8" "target-cpu"="x86-64" "target-features"="+cx8,+fxsr,+mmx,+sse,+sse2,+x87" "unsafe-fp-math"="false" "use-soft-float"="false" }
attributes #4 = { nounwind sspstrong uwtable "correctly-rounded-divide-sqrt-fp-math"="false" "disable-tail-calls"="false" "frame-pointer"="none" "less-precise-fpmad"="false" "min-legal-vector-width"="0" "no-infs-fp-math"="false" "no-jump-tables"="false" "no-nans-fp-math"="false" "no-signed-zeros-fp-math"="false" "no-trapping-math"="false" "stack-protector-buffer-size"="8" "target-cpu"="x86-64" "target-features"="+cx8,+fxsr,+mmx,+sse,+sse2,+x87" "unsafe-fp-math"="false" "use-soft-float"="false" }
attributes #5 = { nobuiltin nounwind "correctly-rounded-divide-sqrt-fp-math"="false" "disable-tail-calls"="false" "frame-pointer"="none" "less-precise-fpmad"="false" "no-infs-fp-math"="false" "no-nans-fp-math"="false" "no-signed-zeros-fp-math"="false" "no-trapping-math"="false" "stack-protector-buffer-size"="8" "target-cpu"="x86-64" "target-features"="+cx8,+fxsr,+mmx,+sse,+sse2,+x87" "unsafe-fp-math"="false" "use-soft-float"="false" }
attributes #6 = { argmemonly nounwind willreturn }
attributes #7 = { noreturn nounwind "correctly-rounded-divide-sqrt-fp-math"="false" "disable-tail-calls"="false" "frame-pointer"="none" "less-precise-fpmad"="false" "no-infs-fp-math"="false" "no-nans-fp-math"="false" "no-signed-zeros-fp-math"="false" "no-trapping-math"="false" "stack-protector-buffer-size"="8" "target-cpu"="x86-64" "target-features"="+cx8,+fxsr,+mmx,+sse,+sse2,+x87" "unsafe-fp-math"="false" "use-soft-float"="false" }
attributes #8 = { noinline optnone sspstrong uwtable "correctly-rounded-divide-sqrt-fp-math"="false" "disable-tail-calls"="false" "frame-pointer"="none" "less-precise-fpmad"="false" "min-legal-vector-width"="0" "no-infs-fp-math"="false" "no-jump-tables"="false" "no-nans-fp-math"="false" "no-signed-zeros-fp-math"="false" "no-trapping-math"="false" "stack-protector-buffer-size"="8" "target-cpu"="x86-64" "target-features"="+cx8,+fxsr,+mmx,+sse,+sse2,+x87" "unsafe-fp-math"="false" "use-soft-float"="false" }
attributes #9 = { noinline noreturn nounwind }
attributes #10 = { inlinehint nounwind sspstrong uwtable "correctly-rounded-divide-sqrt-fp-math"="false" "disable-tail-calls"="false" "frame-pointer"="none" "less-precise-fpmad"="false" "min-legal-vector-width"="0" "no-infs-fp-math"="false" "no-jump-tables"="false" "no-nans-fp-math"="false" "no-signed-zeros-fp-math"="false" "no-trapping-math"="false" "stack-protector-buffer-size"="8" "target-cpu"="x86-64" "target-features"="+cx8,+fxsr,+mmx,+sse,+sse2,+x87" "unsafe-fp-math"="false" "use-soft-float"="false" }
attributes #11 = { noinline nounwind optnone sspstrong uwtable "correctly-rounded-divide-sqrt-fp-math"="false" "disable-tail-calls"="false" "frame-pointer"="none" "less-precise-fpmad"="false" "min-legal-vector-width"="0" "no-infs-fp-math"="false" "no-jump-tables"="false" "no-nans-fp-math"="false" "no-signed-zeros-fp-math"="false" "no-trapping-math"="false" "stack-protector-buffer-size"="8" "target-cpu"="x86-64" "target-features"="+cx8,+fxsr,+mmx,+sse,+sse2,+x87" "unsafe-fp-math"="false" "use-soft-float"="false" }
attributes #12 = { nobuiltin nofree "correctly-rounded-divide-sqrt-fp-math"="false" "disable-tail-calls"="false" "frame-pointer"="none" "less-precise-fpmad"="false" "no-infs-fp-math"="false" "no-nans-fp-math"="false" "no-signed-zeros-fp-math"="false" "no-trapping-math"="false" "stack-protector-buffer-size"="8" "target-cpu"="x86-64" "target-features"="+cx8,+fxsr,+mmx,+sse,+sse2,+x87" "unsafe-fp-math"="false" "use-soft-float"="false" }
attributes #13 = { nounwind }
attributes #14 = { builtin nounwind }
attributes #15 = { noreturn nounwind }
attributes #16 = { builtin }

!llvm.dbg.cu = !{!0}
!llvm.module.flags = !{!3047, !3048, !3049, !3050, !3051}
!llvm.ident = !{!3052}

!0 = distinct !DICompileUnit(language: DW_LANG_C_plus_plus_14, file: !1, producer: "clang version 10.0.0 ", isOptimized: true, runtimeVersion: 0, emissionKind: FullDebug, enums: !2, retainedTypes: !1971, imports: !2427, splitDebugInlining: false, nameTableKind: None)
!1 = !DIFile(filename: "../elements/etherswitch/spantree.cc", directory: "/home/john/projects/click/ir-dir")
!2 = !{!3, !513, !1298, !1827, !1838, !1967}
!3 = !DICompositeType(tag: DW_TAG_enumeration_type, name: "PortState", scope: !5, file: !4, line: 101, baseType: !42, size: 32, elements: !1822, identifier: "_ZTSN13EtherSpanTree9PortStateE")
!4 = !DIFile(filename: "../elements/etherswitch/spantree.hh", directory: "/home/john/projects/click/ir-dir")
!5 = distinct !DICompositeType(tag: DW_TAG_class_type, name: "EtherSpanTree", file: !4, line: 57, size: 2304, flags: DIFlagTypePassByReference | DIFlagNonTrivial, elements: !6, vtableHolder: !8)
!6 = !{!7, !10, !14, !15, !18, !555, !556, !557, !561, !562, !568, !649, !867, !981, !985, !986, !991, !992, !993, !1187, !1190, !1193, !1194, !1195, !1198, !1199, !1200, !1815, !1818, !1821}
!7 = !DIDerivedType(tag: DW_TAG_inheritance, scope: !5, baseType: !8, flags: DIFlagPublic, extraData: i32 0)
!8 = !DICompositeType(tag: DW_TAG_class_type, name: "Element", file: !9, line: 29, flags: DIFlagFwdDecl, identifier: "_ZTS7Element")
!9 = !DIFile(filename: "../dummy_inc/click/element.hh", directory: "/home/john/projects/click/ir-dir")
!10 = !DIDerivedType(tag: DW_TAG_member, name: "_input_sup", scope: !5, file: !4, line: 84, baseType: !11, size: 64, offset: 896)
!11 = !DIDerivedType(tag: DW_TAG_pointer_type, baseType: !12, size: 64)
!12 = !DICompositeType(tag: DW_TAG_class_type, name: "Suppressor", file: !13, line: 27, flags: DIFlagFwdDecl, identifier: "_ZTS10Suppressor")
!13 = !DIFile(filename: "../elements/standard/suppressor.hh", directory: "/home/john/projects/click/ir-dir")
!14 = !DIDerivedType(tag: DW_TAG_member, name: "_output_sup", scope: !5, file: !4, line: 85, baseType: !11, size: 64, offset: 960)
!15 = !DIDerivedType(tag: DW_TAG_member, name: "_switch", scope: !5, file: !4, line: 86, baseType: !16, size: 64, offset: 1024)
!16 = !DIDerivedType(tag: DW_TAG_pointer_type, baseType: !17, size: 64)
!17 = !DICompositeType(tag: DW_TAG_class_type, name: "EtherSwitch", file: !4, line: 8, flags: DIFlagFwdDecl, identifier: "_ZTS11EtherSwitch")
!18 = !DIDerivedType(tag: DW_TAG_member, name: "_topology_change", scope: !5, file: !4, line: 87, baseType: !19, size: 64, offset: 1088)
!19 = !DIDerivedType(tag: DW_TAG_pointer_type, baseType: !20, size: 64)
!20 = distinct !DICompositeType(tag: DW_TAG_class_type, name: "Timestamp", file: !21, line: 122, size: 64, flags: DIFlagTypePassByValue | DIFlagNonTrivial, elements: !22, identifier: "_ZTS9Timestamp")
!21 = !DIFile(filename: "../dummy_inc/click/timestamp.hh", directory: "/home/john/projects/click/ir-dir")
!22 = !{!23, !32, !36, !43, !47, !51, !54, !58, !70, !81, !86, !95, !107, !111, !112, !115, !116, !117, !118, !121, !124, !125, !126, !127, !130, !131, !134, !137, !141, !142, !143, !146, !147, !148, !153, !157, !160, !163, !166, !169, !170, !171, !172, !173, !176, !177, !180, !181, !182, !183, !184, !185, !186, !189, !190, !191, !192, !193, !194, !195, !196, !197, !497, !498, !501, !502, !503, !504, !505, !506, !507, !510, !519, !523, !524, !527, !530, !531, !532, !533, !534, !535, !536, !539, !543, !546, !549, !552}
!23 = !DIDerivedType(tag: DW_TAG_member, name: "_t", scope: !20, file: !21, line: 672, baseType: !24, size: 64)
!24 = distinct !DICompositeType(tag: DW_TAG_union_type, name: "rep_t", scope: !20, file: !21, line: 539, size: 64, flags: DIFlagTypePassByValue, elements: !25, identifier: "_ZTSN9Timestamp5rep_tE")
!25 = !{!26}
!26 = !DIDerivedType(tag: DW_TAG_member, name: "x", scope: !24, file: !21, line: 541, baseType: !27, size: 64)
!27 = !DIDerivedType(tag: DW_TAG_typedef, name: "int64_t", file: !28, line: 27, baseType: !29)
!28 = !DIFile(filename: "/usr/include/bits/stdint-intn.h", directory: "")
!29 = !DIDerivedType(tag: DW_TAG_typedef, name: "__int64_t", file: !30, line: 44, baseType: !31)
!30 = !DIFile(filename: "/usr/include/bits/types.h", directory: "")
!31 = !DIBasicType(name: "long int", size: 64, encoding: DW_ATE_signed)
!32 = !DISubprogram(name: "Timestamp", scope: !20, file: !21, line: 174, type: !33, scopeLine: 174, flags: DIFlagPublic | DIFlagPrototyped, spFlags: DISPFlagOptimized)
!33 = !DISubroutineType(types: !34)
!34 = !{null, !35}
!35 = !DIDerivedType(tag: DW_TAG_pointer_type, baseType: !20, size: 64, flags: DIFlagArtificial | DIFlagObjectPointer)
!36 = !DISubprogram(name: "Timestamp", scope: !20, file: !21, line: 187, type: !37, scopeLine: 187, flags: DIFlagPublic | DIFlagExplicit | DIFlagPrototyped, spFlags: DISPFlagOptimized)
!37 = !DISubroutineType(types: !38)
!38 = !{null, !35, !31, !39}
!39 = !DIDerivedType(tag: DW_TAG_typedef, name: "uint32_t", file: !40, line: 26, baseType: !41)
!40 = !DIFile(filename: "/usr/include/bits/stdint-uintn.h", directory: "")
!41 = !DIDerivedType(tag: DW_TAG_typedef, name: "__uint32_t", file: !30, line: 42, baseType: !42)
!42 = !DIBasicType(name: "unsigned int", size: 32, encoding: DW_ATE_unsigned)
!43 = !DISubprogram(name: "Timestamp", scope: !20, file: !21, line: 191, type: !44, scopeLine: 191, flags: DIFlagPublic | DIFlagExplicit | DIFlagPrototyped, spFlags: DISPFlagOptimized)
!44 = !DISubroutineType(types: !45)
!45 = !{null, !35, !46, !39}
!46 = !DIBasicType(name: "int", size: 32, encoding: DW_ATE_signed)
!47 = !DISubprogram(name: "Timestamp", scope: !20, file: !21, line: 195, type: !48, scopeLine: 195, flags: DIFlagPublic | DIFlagExplicit | DIFlagPrototyped, spFlags: DISPFlagOptimized)
!48 = !DISubroutineType(types: !49)
!49 = !{null, !35, !50, !39}
!50 = !DIBasicType(name: "long unsigned int", size: 64, encoding: DW_ATE_unsigned)
!51 = !DISubprogram(name: "Timestamp", scope: !20, file: !21, line: 199, type: !52, scopeLine: 199, flags: DIFlagPublic | DIFlagExplicit | DIFlagPrototyped, spFlags: DISPFlagOptimized)
!52 = !DISubroutineType(types: !53)
!53 = !{null, !35, !42, !39}
!54 = !DISubprogram(name: "Timestamp", scope: !20, file: !21, line: 203, type: !55, scopeLine: 203, flags: DIFlagPublic | DIFlagExplicit | DIFlagPrototyped, spFlags: DISPFlagOptimized)
!55 = !DISubroutineType(types: !56)
!56 = !{null, !35, !57}
!57 = !DIBasicType(name: "double", size: 64, encoding: DW_ATE_float)
!58 = !DISubprogram(name: "Timestamp", scope: !20, file: !21, line: 206, type: !59, scopeLine: 206, flags: DIFlagPublic | DIFlagPrototyped, spFlags: DISPFlagOptimized)
!59 = !DISubroutineType(types: !60)
!60 = !{null, !35, !61}
!61 = !DIDerivedType(tag: DW_TAG_reference_type, baseType: !62, size: 64)
!62 = !DIDerivedType(tag: DW_TAG_const_type, baseType: !63)
!63 = distinct !DICompositeType(tag: DW_TAG_structure_type, name: "timeval", file: !64, line: 8, size: 128, flags: DIFlagTypePassByValue, elements: !65, identifier: "_ZTS7timeval")
!64 = !DIFile(filename: "/usr/include/bits/types/struct_timeval.h", directory: "")
!65 = !{!66, !68}
!66 = !DIDerivedType(tag: DW_TAG_member, name: "tv_sec", scope: !63, file: !64, line: 10, baseType: !67, size: 64)
!67 = !DIDerivedType(tag: DW_TAG_typedef, name: "__time_t", file: !30, line: 160, baseType: !31)
!68 = !DIDerivedType(tag: DW_TAG_member, name: "tv_usec", scope: !63, file: !64, line: 11, baseType: !69, size: 64, offset: 64)
!69 = !DIDerivedType(tag: DW_TAG_typedef, name: "__suseconds_t", file: !30, line: 162, baseType: !31)
!70 = !DISubprogram(name: "Timestamp", scope: !20, file: !21, line: 208, type: !71, scopeLine: 208, flags: DIFlagPublic | DIFlagPrototyped, spFlags: DISPFlagOptimized)
!71 = !DISubroutineType(types: !72)
!72 = !{null, !35, !73}
!73 = !DIDerivedType(tag: DW_TAG_reference_type, baseType: !74, size: 64)
!74 = !DIDerivedType(tag: DW_TAG_const_type, baseType: !75)
!75 = distinct !DICompositeType(tag: DW_TAG_structure_type, name: "timespec", file: !76, line: 10, size: 128, flags: DIFlagTypePassByValue, elements: !77, identifier: "_ZTS8timespec")
!76 = !DIFile(filename: "/usr/include/bits/types/struct_timespec.h", directory: "")
!77 = !{!78, !79}
!78 = !DIDerivedType(tag: DW_TAG_member, name: "tv_sec", scope: !75, file: !76, line: 12, baseType: !67, size: 64)
!79 = !DIDerivedType(tag: DW_TAG_member, name: "tv_nsec", scope: !75, file: !76, line: 16, baseType: !80, size: 64, offset: 64)
!80 = !DIDerivedType(tag: DW_TAG_typedef, name: "__syscall_slong_t", file: !30, line: 196, baseType: !31)
!81 = !DISubprogram(name: "Timestamp", scope: !20, file: !21, line: 212, type: !82, scopeLine: 212, flags: DIFlagPublic | DIFlagPrototyped, spFlags: DISPFlagOptimized)
!82 = !DISubroutineType(types: !83)
!83 = !{null, !35, !84}
!84 = !DIDerivedType(tag: DW_TAG_reference_type, baseType: !85, size: 64)
!85 = !DIDerivedType(tag: DW_TAG_const_type, baseType: !24)
!86 = !DISubprogram(name: "Timestamp", scope: !20, file: !21, line: 217, type: !87, scopeLine: 217, flags: DIFlagPublic | DIFlagPrototyped, spFlags: DISPFlagOptimized)
!87 = !DISubroutineType(types: !88)
!88 = !{null, !35, !89}
!89 = !DIDerivedType(tag: DW_TAG_reference_type, baseType: !90, size: 64)
!90 = !DIDerivedType(tag: DW_TAG_const_type, baseType: !91)
!91 = !DIDerivedType(tag: DW_TAG_typedef, name: "uninitialized_t", scope: !20, file: !21, line: 168, baseType: !92)
!92 = distinct !DICompositeType(tag: DW_TAG_structure_type, name: "uninitialized_type", file: !93, line: 317, size: 8, flags: DIFlagTypePassByValue, elements: !94, identifier: "_ZTS18uninitialized_type")
!93 = !DIFile(filename: "../dummy_inc/click/config.h", directory: "/home/john/projects/click/ir-dir")
!94 = !{}
!95 = !DISubprogram(name: "operator int (Timestamp::*)() const", linkageName: "_ZNK9TimestampcvMS_KFivEEv", scope: !20, file: !21, line: 222, type: !96, scopeLine: 222, flags: DIFlagPublic | DIFlagPrototyped, spFlags: DISPFlagOptimized)
!96 = !DISubroutineType(types: !97)
!97 = !{!98, !105}
!98 = !DIDerivedType(tag: DW_TAG_typedef, name: "unspecified_bool_type", scope: !20, file: !21, line: 221, baseType: !99)
!99 = !DIDerivedType(tag: DW_TAG_ptr_to_member_type, baseType: !100, size: 128, extraData: !20)
!100 = !DISubroutineType(types: !101)
!101 = !{!102, !105}
!102 = !DIDerivedType(tag: DW_TAG_typedef, name: "seconds_type", scope: !20, file: !21, line: 125, baseType: !103)
!103 = !DIDerivedType(tag: DW_TAG_typedef, name: "int32_t", file: !28, line: 26, baseType: !104)
!104 = !DIDerivedType(tag: DW_TAG_typedef, name: "__int32_t", file: !30, line: 41, baseType: !46)
!105 = !DIDerivedType(tag: DW_TAG_pointer_type, baseType: !106, size: 64, flags: DIFlagArtificial | DIFlagObjectPointer)
!106 = !DIDerivedType(tag: DW_TAG_const_type, baseType: !20)
!107 = !DISubprogram(name: "is_negative", linkageName: "_ZNK9Timestamp11is_negativeEv", scope: !20, file: !21, line: 225, type: !108, scopeLine: 225, flags: DIFlagPublic | DIFlagPrototyped, spFlags: DISPFlagOptimized)
!108 = !DISubroutineType(types: !109)
!109 = !{!110, !105}
!110 = !DIBasicType(name: "bool", size: 8, encoding: DW_ATE_boolean)
!111 = !DISubprogram(name: "sec", linkageName: "_ZNK9Timestamp3secEv", scope: !20, file: !21, line: 233, type: !100, scopeLine: 233, flags: DIFlagPublic | DIFlagPrototyped, spFlags: DISPFlagOptimized)
!112 = !DISubprogram(name: "subsec", linkageName: "_ZNK9Timestamp6subsecEv", scope: !20, file: !21, line: 234, type: !113, scopeLine: 234, flags: DIFlagPublic | DIFlagPrototyped, spFlags: DISPFlagOptimized)
!113 = !DISubroutineType(types: !114)
!114 = !{!39, !105}
!115 = !DISubprogram(name: "msec", linkageName: "_ZNK9Timestamp4msecEv", scope: !20, file: !21, line: 235, type: !113, scopeLine: 235, flags: DIFlagPublic | DIFlagPrototyped, spFlags: DISPFlagOptimized)
!116 = !DISubprogram(name: "usec", linkageName: "_ZNK9Timestamp4usecEv", scope: !20, file: !21, line: 236, type: !113, scopeLine: 236, flags: DIFlagPublic | DIFlagPrototyped, spFlags: DISPFlagOptimized)
!117 = !DISubprogram(name: "nsec", linkageName: "_ZNK9Timestamp4nsecEv", scope: !20, file: !21, line: 237, type: !113, scopeLine: 237, flags: DIFlagPublic | DIFlagPrototyped, spFlags: DISPFlagOptimized)
!118 = !DISubprogram(name: "set_sec", linkageName: "_ZN9Timestamp7set_secEi", scope: !20, file: !21, line: 239, type: !119, scopeLine: 239, flags: DIFlagPublic | DIFlagPrototyped, spFlags: DISPFlagOptimized)
!119 = !DISubroutineType(types: !120)
!120 = !{null, !35, !102}
!121 = !DISubprogram(name: "set_subsec", linkageName: "_ZN9Timestamp10set_subsecEj", scope: !20, file: !21, line: 240, type: !122, scopeLine: 240, flags: DIFlagPublic | DIFlagPrototyped, spFlags: DISPFlagOptimized)
!122 = !DISubroutineType(types: !123)
!123 = !{null, !35, !39}
!124 = !DISubprogram(name: "msec1", linkageName: "_ZNK9Timestamp5msec1Ev", scope: !20, file: !21, line: 242, type: !100, scopeLine: 242, flags: DIFlagPublic | DIFlagPrototyped, spFlags: DISPFlagOptimized)
!125 = !DISubprogram(name: "usec1", linkageName: "_ZNK9Timestamp5usec1Ev", scope: !20, file: !21, line: 243, type: !100, scopeLine: 243, flags: DIFlagPublic | DIFlagPrototyped, spFlags: DISPFlagOptimized)
!126 = !DISubprogram(name: "nsec1", linkageName: "_ZNK9Timestamp5nsec1Ev", scope: !20, file: !21, line: 244, type: !100, scopeLine: 244, flags: DIFlagPublic | DIFlagPrototyped, spFlags: DISPFlagOptimized)
!127 = !DISubprogram(name: "timeval", linkageName: "_ZNK9Timestamp7timevalEv", scope: !20, file: !21, line: 250, type: !128, scopeLine: 250, flags: DIFlagPublic | DIFlagPrototyped, spFlags: DISPFlagOptimized)
!128 = !DISubroutineType(types: !129)
!129 = !{!63, !105}
!130 = !DISubprogram(name: "timeval_ceil", linkageName: "_ZNK9Timestamp12timeval_ceilEv", scope: !20, file: !21, line: 251, type: !128, scopeLine: 251, flags: DIFlagPublic | DIFlagPrototyped, spFlags: DISPFlagOptimized)
!131 = !DISubprogram(name: "timespec", linkageName: "_ZNK9Timestamp8timespecEv", scope: !20, file: !21, line: 257, type: !132, scopeLine: 257, flags: DIFlagPublic | DIFlagPrototyped, spFlags: DISPFlagOptimized)
!132 = !DISubroutineType(types: !133)
!133 = !{!75, !105}
!134 = !DISubprogram(name: "doubleval", linkageName: "_ZNK9Timestamp9doublevalEv", scope: !20, file: !21, line: 262, type: !135, scopeLine: 262, flags: DIFlagPublic | DIFlagPrototyped, spFlags: DISPFlagOptimized)
!135 = !DISubroutineType(types: !136)
!136 = !{!57, !105}
!137 = !DISubprogram(name: "msecval", linkageName: "_ZNK9Timestamp7msecvalEv", scope: !20, file: !21, line: 265, type: !138, scopeLine: 265, flags: DIFlagPublic | DIFlagPrototyped, spFlags: DISPFlagOptimized)
!138 = !DISubroutineType(types: !139)
!139 = !{!140, !105}
!140 = !DIDerivedType(tag: DW_TAG_typedef, name: "value_type", scope: !20, file: !21, line: 128, baseType: !27)
!141 = !DISubprogram(name: "usecval", linkageName: "_ZNK9Timestamp7usecvalEv", scope: !20, file: !21, line: 273, type: !138, scopeLine: 273, flags: DIFlagPublic | DIFlagPrototyped, spFlags: DISPFlagOptimized)
!142 = !DISubprogram(name: "nsecval", linkageName: "_ZNK9Timestamp7nsecvalEv", scope: !20, file: !21, line: 281, type: !138, scopeLine: 281, flags: DIFlagPublic | DIFlagPrototyped, spFlags: DISPFlagOptimized)
!143 = !DISubprogram(name: "msec_ceil", linkageName: "_ZNK9Timestamp9msec_ceilEv", scope: !20, file: !21, line: 290, type: !144, scopeLine: 290, flags: DIFlagPublic | DIFlagPrototyped, spFlags: DISPFlagOptimized)
!144 = !DISubroutineType(types: !145)
!145 = !{!20, !105}
!146 = !DISubprogram(name: "usec_ceil", linkageName: "_ZNK9Timestamp9usec_ceilEv", scope: !20, file: !21, line: 295, type: !144, scopeLine: 295, flags: DIFlagPublic | DIFlagPrototyped, spFlags: DISPFlagOptimized)
!147 = !DISubprogram(name: "nsec_ceil", linkageName: "_ZNK9Timestamp9nsec_ceilEv", scope: !20, file: !21, line: 304, type: !144, scopeLine: 304, flags: DIFlagPublic | DIFlagPrototyped, spFlags: DISPFlagOptimized)
!148 = !DISubprogram(name: "make_jiffies", linkageName: "_ZN9Timestamp12make_jiffiesEj", scope: !20, file: !21, line: 310, type: !149, scopeLine: 310, flags: DIFlagPublic | DIFlagPrototyped | DIFlagStaticMember, spFlags: DISPFlagOptimized)
!149 = !DISubroutineType(types: !150)
!150 = !{!20, !151}
!151 = !DIDerivedType(tag: DW_TAG_typedef, name: "click_jiffies_t", file: !152, line: 477, baseType: !42)
!152 = !DIFile(filename: "../dummy_inc/click/glue.hh", directory: "/home/john/projects/click/ir-dir")
!153 = !DISubprogram(name: "make_jiffies", linkageName: "_ZN9Timestamp12make_jiffiesEi", scope: !20, file: !21, line: 312, type: !154, scopeLine: 312, flags: DIFlagPublic | DIFlagPrototyped | DIFlagStaticMember, spFlags: DISPFlagOptimized)
!154 = !DISubroutineType(types: !155)
!155 = !{!20, !156}
!156 = !DIDerivedType(tag: DW_TAG_typedef, name: "click_jiffies_difference_t", file: !152, line: 478, baseType: !46)
!157 = !DISubprogram(name: "jiffies", linkageName: "_ZNK9Timestamp7jiffiesEv", scope: !20, file: !21, line: 314, type: !158, scopeLine: 314, flags: DIFlagPublic | DIFlagPrototyped, spFlags: DISPFlagOptimized)
!158 = !DISubroutineType(types: !159)
!159 = !{!151, !105}
!160 = !DISubprogram(name: "make_sec", linkageName: "_ZN9Timestamp8make_secEi", scope: !20, file: !21, line: 318, type: !161, scopeLine: 318, flags: DIFlagPublic | DIFlagPrototyped | DIFlagStaticMember, spFlags: DISPFlagOptimized)
!161 = !DISubroutineType(types: !162)
!162 = !{!20, !102}
!163 = !DISubprogram(name: "make_msec", linkageName: "_ZN9Timestamp9make_msecEij", scope: !20, file: !21, line: 324, type: !164, scopeLine: 324, flags: DIFlagPublic | DIFlagPrototyped | DIFlagStaticMember, spFlags: DISPFlagOptimized)
!164 = !DISubroutineType(types: !165)
!165 = !{!20, !102, !39}
!166 = !DISubprogram(name: "make_msec", linkageName: "_ZN9Timestamp9make_msecEl", scope: !20, file: !21, line: 328, type: !167, scopeLine: 328, flags: DIFlagPublic | DIFlagPrototyped | DIFlagStaticMember, spFlags: DISPFlagOptimized)
!167 = !DISubroutineType(types: !168)
!168 = !{!20, !140}
!169 = !DISubprogram(name: "make_usec", linkageName: "_ZN9Timestamp9make_usecEij", scope: !20, file: !21, line: 341, type: !164, scopeLine: 341, flags: DIFlagPublic | DIFlagPrototyped | DIFlagStaticMember, spFlags: DISPFlagOptimized)
!170 = !DISubprogram(name: "make_usec", linkageName: "_ZN9Timestamp9make_usecEl", scope: !20, file: !21, line: 345, type: !167, scopeLine: 345, flags: DIFlagPublic | DIFlagPrototyped | DIFlagStaticMember, spFlags: DISPFlagOptimized)
!171 = !DISubprogram(name: "make_nsec", linkageName: "_ZN9Timestamp9make_nsecEij", scope: !20, file: !21, line: 358, type: !164, scopeLine: 358, flags: DIFlagPublic | DIFlagPrototyped | DIFlagStaticMember, spFlags: DISPFlagOptimized)
!172 = !DISubprogram(name: "make_nsec", linkageName: "_ZN9Timestamp9make_nsecEl", scope: !20, file: !21, line: 362, type: !167, scopeLine: 362, flags: DIFlagPublic | DIFlagPrototyped | DIFlagStaticMember, spFlags: DISPFlagOptimized)
!173 = !DISubprogram(name: "epsilon", linkageName: "_ZN9Timestamp7epsilonEv", scope: !20, file: !21, line: 375, type: !174, scopeLine: 375, flags: DIFlagPublic | DIFlagPrototyped | DIFlagStaticMember, spFlags: DISPFlagOptimized)
!174 = !DISubroutineType(types: !175)
!175 = !{!20}
!176 = !DISubprogram(name: "clear", linkageName: "_ZN9Timestamp5clearEv", scope: !20, file: !21, line: 380, type: !33, scopeLine: 380, flags: DIFlagPublic | DIFlagPrototyped, spFlags: DISPFlagOptimized)
!177 = !DISubprogram(name: "assign", linkageName: "_ZN9Timestamp6assignEij", scope: !20, file: !21, line: 388, type: !178, scopeLine: 388, flags: DIFlagPublic | DIFlagPrototyped, spFlags: DISPFlagOptimized)
!178 = !DISubroutineType(types: !179)
!179 = !{null, !35, !102, !39}
!180 = !DISubprogram(name: "assign_usec", linkageName: "_ZN9Timestamp11assign_usecEij", scope: !20, file: !21, line: 397, type: !178, scopeLine: 397, flags: DIFlagPublic | DIFlagPrototyped, spFlags: DISPFlagOptimized)
!181 = !DISubprogram(name: "assign_nsec", linkageName: "_ZN9Timestamp11assign_nsecEij", scope: !20, file: !21, line: 401, type: !178, scopeLine: 401, flags: DIFlagPublic | DIFlagPrototyped, spFlags: DISPFlagOptimized)
!182 = !DISubprogram(name: "set", linkageName: "_ZN9Timestamp3setEij", scope: !20, file: !21, line: 408, type: !178, scopeLine: 408, flags: DIFlagPublic | DIFlagPrototyped, spFlags: DISPFlagOptimized)
!183 = !DISubprogram(name: "set_usec", linkageName: "_ZN9Timestamp8set_usecEij", scope: !20, file: !21, line: 411, type: !178, scopeLine: 411, flags: DIFlagPublic | DIFlagPrototyped, spFlags: DISPFlagOptimized)
!184 = !DISubprogram(name: "set_nsec", linkageName: "_ZN9Timestamp8set_nsecEij", scope: !20, file: !21, line: 414, type: !178, scopeLine: 414, flags: DIFlagPublic | DIFlagPrototyped, spFlags: DISPFlagOptimized)
!185 = !DISubprogram(name: "set_now", linkageName: "_ZN9Timestamp7set_nowEv", scope: !20, file: !21, line: 417, type: !33, scopeLine: 417, flags: DIFlagPublic | DIFlagPrototyped, spFlags: DISPFlagOptimized)
!186 = !DISubprogram(name: "set_timeval_ioctl", linkageName: "_ZN9Timestamp17set_timeval_ioctlEii", scope: !20, file: !21, line: 420, type: !187, scopeLine: 420, flags: DIFlagPublic | DIFlagPrototyped, spFlags: DISPFlagOptimized)
!187 = !DISubroutineType(types: !188)
!188 = !{!46, !35, !46, !46}
!189 = !DISubprogram(name: "now", linkageName: "_ZN9Timestamp3nowEv", scope: !20, file: !21, line: 432, type: !174, scopeLine: 432, flags: DIFlagPublic | DIFlagPrototyped | DIFlagStaticMember, spFlags: DISPFlagOptimized)
!190 = !DISubprogram(name: "assign_now", linkageName: "_ZN9Timestamp10assign_nowEv", scope: !20, file: !21, line: 438, type: !33, scopeLine: 438, flags: DIFlagPublic | DIFlagPrototyped, spFlags: DISPFlagOptimized)
!191 = !DISubprogram(name: "recent", linkageName: "_ZN9Timestamp6recentEv", scope: !20, file: !21, line: 446, type: !174, scopeLine: 446, flags: DIFlagPublic | DIFlagPrototyped | DIFlagStaticMember, spFlags: DISPFlagOptimized)
!192 = !DISubprogram(name: "assign_recent", linkageName: "_ZN9Timestamp13assign_recentEv", scope: !20, file: !21, line: 452, type: !33, scopeLine: 452, flags: DIFlagPublic | DIFlagPrototyped, spFlags: DISPFlagOptimized)
!193 = !DISubprogram(name: "now_steady", linkageName: "_ZN9Timestamp10now_steadyEv", scope: !20, file: !21, line: 466, type: !174, scopeLine: 466, flags: DIFlagPublic | DIFlagPrototyped | DIFlagStaticMember, spFlags: DISPFlagOptimized)
!194 = !DISubprogram(name: "assign_now_steady", linkageName: "_ZN9Timestamp17assign_now_steadyEv", scope: !20, file: !21, line: 472, type: !33, scopeLine: 472, flags: DIFlagPublic | DIFlagPrototyped, spFlags: DISPFlagOptimized)
!195 = !DISubprogram(name: "recent_steady", linkageName: "_ZN9Timestamp13recent_steadyEv", scope: !20, file: !21, line: 481, type: !174, scopeLine: 481, flags: DIFlagPublic | DIFlagPrototyped | DIFlagStaticMember, spFlags: DISPFlagOptimized)
!196 = !DISubprogram(name: "assign_recent_steady", linkageName: "_ZN9Timestamp20assign_recent_steadyEv", scope: !20, file: !21, line: 487, type: !33, scopeLine: 487, flags: DIFlagPublic | DIFlagPrototyped, spFlags: DISPFlagOptimized)
!197 = !DISubprogram(name: "unparse", linkageName: "_ZNK9Timestamp7unparseEv", scope: !20, file: !21, line: 496, type: !198, scopeLine: 496, flags: DIFlagPublic | DIFlagPrototyped, spFlags: DISPFlagOptimized)
!198 = !DISubroutineType(types: !199)
!199 = !{!200, !105}
!200 = distinct !DICompositeType(tag: DW_TAG_class_type, name: "String", file: !201, line: 19, size: 192, flags: DIFlagTypePassByReference | DIFlagNonTrivial, elements: !202, identifier: "_ZTS6String")
!201 = !DIFile(filename: "../dummy_inc/click/string.hh", directory: "/home/john/projects/click/ir-dir")
!202 = !{!203, !209, !227, !228, !232, !236, !238, !239, !243, !248, !252, !255, !258, !264, !267, !270, !273, !276, !279, !282, !285, !288, !291, !295, !299, !302, !303, !306, !309, !310, !313, !316, !319, !323, !329, !333, !336, !337, !342, !345, !346, !350, !351, !354, !355, !358, !359, !362, !365, !368, !371, !374, !377, !380, !383, !386, !389, !392, !395, !396, !397, !398, !401, !404, !405, !406, !407, !408, !409, !410, !414, !417, !420, !423, !424, !425, !426, !427, !428, !431, !435, !436, !437, !438, !441, !442, !443, !444, !445, !446, !449, !450, !451, !452, !455, !458, !459, !462, !465, !468, !471, !474, !477, !480, !481, !482, !483, !486, !489, !492, !493, !494}
!203 = !DIDerivedType(tag: DW_TAG_member, name: "bool_data", scope: !200, file: !201, line: 184, baseType: !204, flags: DIFlagPublic | DIFlagStaticMember)
!204 = !DICompositeType(tag: DW_TAG_array_type, baseType: !205, size: 88, elements: !207)
!205 = !DIDerivedType(tag: DW_TAG_const_type, baseType: !206)
!206 = !DIBasicType(name: "char", size: 8, encoding: DW_ATE_signed_char)
!207 = !{!208}
!208 = !DISubrange(count: 11)
!209 = !DIDerivedType(tag: DW_TAG_member, name: "_r", scope: !200, file: !201, line: 211, baseType: !210, size: 192)
!210 = distinct !DICompositeType(tag: DW_TAG_structure_type, name: "rep_t", scope: !200, file: !201, line: 204, size: 192, flags: DIFlagTypePassByValue, elements: !211, identifier: "_ZTSN6String5rep_tE")
!211 = !{!212, !214, !215}
!212 = !DIDerivedType(tag: DW_TAG_member, name: "data", scope: !210, file: !201, line: 205, baseType: !213, size: 64)
!213 = !DIDerivedType(tag: DW_TAG_pointer_type, baseType: !205, size: 64)
!214 = !DIDerivedType(tag: DW_TAG_member, name: "length", scope: !210, file: !201, line: 206, baseType: !46, size: 32, offset: 64)
!215 = !DIDerivedType(tag: DW_TAG_member, name: "memo", scope: !210, file: !201, line: 207, baseType: !216, size: 64, offset: 128)
!216 = !DIDerivedType(tag: DW_TAG_pointer_type, baseType: !217, size: 64)
!217 = distinct !DICompositeType(tag: DW_TAG_structure_type, name: "memo_t", scope: !200, file: !201, line: 189, size: 160, flags: DIFlagTypePassByValue, elements: !218, identifier: "_ZTSN6String6memo_tE")
!218 = !{!219, !221, !222, !223}
!219 = !DIDerivedType(tag: DW_TAG_member, name: "refcount", scope: !217, file: !201, line: 190, baseType: !220, size: 32)
!220 = !DIDerivedType(tag: DW_TAG_volatile_type, baseType: !39)
!221 = !DIDerivedType(tag: DW_TAG_member, name: "capacity", scope: !217, file: !201, line: 191, baseType: !39, size: 32, offset: 32)
!222 = !DIDerivedType(tag: DW_TAG_member, name: "dirty", scope: !217, file: !201, line: 192, baseType: !220, size: 32, offset: 64)
!223 = !DIDerivedType(tag: DW_TAG_member, name: "real_data", scope: !217, file: !201, line: 197, baseType: !224, size: 64, offset: 96)
!224 = !DICompositeType(tag: DW_TAG_array_type, baseType: !206, size: 64, elements: !225)
!225 = !{!226}
!226 = !DISubrange(count: 8)
!227 = !DIDerivedType(tag: DW_TAG_member, name: "null_data", scope: !200, file: !201, line: 292, baseType: !205, flags: DIFlagStaticMember)
!228 = !DIDerivedType(tag: DW_TAG_member, name: "oom_data", scope: !200, file: !201, line: 293, baseType: !229, flags: DIFlagStaticMember)
!229 = !DICompositeType(tag: DW_TAG_array_type, baseType: !205, size: 120, elements: !230)
!230 = !{!231}
!231 = !DISubrange(count: 15)
!232 = !DIDerivedType(tag: DW_TAG_member, name: "int_data", scope: !200, file: !201, line: 294, baseType: !233, flags: DIFlagStaticMember)
