; ModuleID = '../elements/ip6/lookupip6route.cc'
source_filename = "../elements/ip6/lookupip6route.cc"
target datalayout = "e-m:e-p270:32:32-p271:32:32-p272:64:64-i64:64-f80:128-n8:16:32:64-S128"
target triple = "x86_64-pc-linux-gnu"

%class.ArgContext = type <{ %class.Element*, %class.ErrorHandler*, i8*, i8, [7 x i8] }>
%class.Element = type <{ i32 (...)**, [2 x %"class.Element::Port"*], [4 x %"class.Element::Port"], [2 x i32], %class.Router*, i32, [4 x i8] }>
%"class.Element::Port" = type <{ %class.Element*, i32, [4 x i8] }>
%class.Router = type opaque
%class.ErrorHandler = type <{ i32 (...)**, i32, [4 x i8] }>
%class.LookupIP6Route = type <{ %class.IP6RouteTable.base, [4 x i8], %class.IP6Table, %class.IP6Address, %class.IP6Address, i32, [4 x i8] }>
%class.IP6RouteTable.base = type { %class.Element.base }
%class.Element.base = type <{ i32 (...)**, [2 x %"class.Element::Port"*], [4 x %"class.Element::Port"], [2 x i32], %class.Router*, i32 }>
%class.IP6Table = type { %class.Vector }
%class.Vector = type { %class.vector_memory }
%class.vector_memory = type { %struct.char_array*, i32, i32 }
%struct.char_array = type opaque
%class.IP6Address = type { %struct.in6_addr }
%struct.in6_addr = type { %union.anon }
%union.anon = type { [4 x i32] }
%class.Vector.0 = type { %class.vector_memory.1 }
%class.vector_memory.1 = type { %class.String*, i32, i32 }
%class.String = type { %"struct.String::rep_t" }
%"struct.String::rep_t" = type { i8*, i32, %"struct.String::memo_t"* }
%"struct.String::memo_t" = type { i32, i32, i32, [8 x i8] }
%class.IntArg = type { i32, i32 }
%class.Packet = type { %class.atomic_uint32_t, %class.Packet*, i8*, i8*, i8*, i8*, %"struct.Packet::AllAnno", void (i8*, i64, i8*)*, i8* }
%class.atomic_uint32_t = type { i32 }
%"struct.Packet::AllAnno" = type { %"union.Packet::Anno", i8*, i8*, i8*, i32, [8 x i8], %class.Packet*, %class.Packet* }
%"union.Packet::Anno" = type { [6 x i64] }
%class.Task = type opaque
%class.Timer = type opaque
%class.IP6RouteTable = type { %class.Element.base, [4 x i8] }

$_ZNK7Element6outputEi = comdat any

$_ZNK7Element4Port4pushEP6Packet = comdat any

$_ZNK14LookupIP6Route10class_nameEv = comdat any

$_ZNK14LookupIP6Route10port_countEv = comdat any

$_ZNK14LookupIP6Route10processingEv = comdat any

$_ZN14LookupIP6Route11dump_routesEv = comdat any

$__clang_call_terminate = comdat any

$_ZNK10IP6Address8hashcodeEv = comdat any

$_ZNK7Element4portEbi = comdat any

@_ZTV14LookupIP6Route = dso_local unnamed_addr constant { [32 x i8*] } { [32 x i8*] [i8* null, i8* bitcast ({ i8*, i8*, i8* }* @_ZTI14LookupIP6Route to i8*), i8* bitcast (void (%class.LookupIP6Route*)* @_ZN14LookupIP6RouteD2Ev to i8*), i8* bitcast (void (%class.LookupIP6Route*)* @_ZN14LookupIP6RouteD0Ev to i8*), i8* bitcast (void (%class.LookupIP6Route*, i32, %class.Packet*)* @_ZN14LookupIP6Route4pushEiP6Packet to i8*), i8* bitcast (%class.Packet* (%class.Element*, i32)* @_ZN7Element4pullEi to i8*), i8* bitcast (%class.Packet* (%class.Element*, %class.Packet*)* @_ZN7Element13simple_actionEP6Packet to i8*), i8* bitcast (i1 (%class.Element*, %class.Task*)* @_ZN7Element8run_taskEP4Task to i8*), i8* bitcast (void (%class.Element*, %class.Timer*)* @_ZN7Element9run_timerEP5Timer to i8*), i8* bitcast (void (%class.Element*, i32, i32)* @_ZN7Element8selectedEii to i8*), i8* bitcast (void (%class.Element*, i32)* @_ZN7Element8selectedEi to i8*), i8* bitcast (i8* (%class.LookupIP6Route*)* @_ZNK14LookupIP6Route10class_nameEv to i8*), i8* bitcast (i8* (%class.LookupIP6Route*)* @_ZNK14LookupIP6Route10port_countEv to i8*), i8* bitcast (i8* (%class.LookupIP6Route*)* @_ZNK14LookupIP6Route10processingEv to i8*), i8* bitcast (i8* (%class.Element*)* @_ZNK7Element9flow_codeEv to i8*), i8* bitcast (i8* (%class.Element*)* @_ZNK7Element5flagsEv to i8*), i8* bitcast (i8* (%class.IP6RouteTable*, i8*)* @_ZN13IP6RouteTable4castEPKc to i8*), i8* bitcast (i8* (%class.Element*, i1, i32, i8*)* @_ZN7Element9port_castEbiPKc to i8*), i8* bitcast (i32 (%class.Element*)* @_ZNK7Element15configure_phaseEv to i8*), i8* bitcast (i32 (%class.LookupIP6Route*, %class.Vector.0*, %class.ErrorHandler*)* @_ZN14LookupIP6Route9configureER6VectorI6StringEP12ErrorHandler to i8*), i8* bitcast (void (%class.LookupIP6Route*)* @_ZN14LookupIP6Route12add_handlersEv to i8*), i8* bitcast (i32 (%class.LookupIP6Route*, %class.ErrorHandler*)* @_ZN14LookupIP6Route10initializeEP12ErrorHandler to i8*), i8* bitcast (void (%class.Element*, %class.Element*, %class.ErrorHandler*)* @_ZN7Element10take_stateEPS_P12ErrorHandler to i8*), i8* bitcast (%class.Element* (%class.Element*)* @_ZNK7Element15hotswap_elementEv to i8*), i8* bitcast (void (%class.Element*, i32)* @_ZN7Element7cleanupENS_12CleanupStageE to i8*), i8* bitcast (void (%class.String*, %class.Element*)* @_ZNK7Element11declarationEv to i8*), i8* bitcast (i1 (%class.Element*)* @_ZNK7Element20can_live_reconfigureEv to i8*), i8* bitcast (i32 (%class.Element*, %class.Vector.0*, %class.ErrorHandler*)* @_ZN7Element16live_reconfigureER6VectorI6StringEP12ErrorHandler to i8*), i8* bitcast (i32 (%class.Element*, i32, i8*)* @_ZN7Element5llrpcEjPv to i8*), i8* bitcast (i32 (%class.LookupIP6Route*, i64, i64, i64, i64, %class.IP6Address*, i32, %class.ErrorHandler*)* @_ZN14LookupIP6Route9add_routeE10IP6AddressS0_S0_iP12ErrorHandler to i8*), i8* bitcast (i32 (%class.LookupIP6Route*, i64, i64, i64, i64, %class.ErrorHandler*)* @_ZN14LookupIP6Route12remove_routeE10IP6AddressS0_P12ErrorHandler to i8*), i8* bitcast (void (%class.String*, %class.LookupIP6Route*)* @_ZN14LookupIP6Route11dump_routesEv to i8*)] }, align 8
@blank_args = external global %class.ArgContext, align 8
@.str = private unnamed_addr constant [4 x i8] c"::0\00", align 1
@.str.1 = private unnamed_addr constant [45 x i8] c"argument %d should be DADDR/MASK [GW] OUTPUT\00", align 1
@.str.2 = private unnamed_addr constant [10 x i8] c"no routes\00", align 1
@.str.3 = private unnamed_addr constant [29 x i8] c"need %d or more output ports\00", align 1
@.str.4 = private unnamed_addr constant [25 x i8] c"port number out of range\00", align 1
@.str.5 = private unnamed_addr constant [4 x i8] c"add\00", align 1
@.str.6 = private unnamed_addr constant [7 x i8] c"remove\00", align 1
@.str.7 = private unnamed_addr constant [5 x i8] c"ctrl\00", align 1
@.str.8 = private unnamed_addr constant [6 x i8] c"table\00", align 1
@_ZTVN10__cxxabiv120__si_class_type_infoE = external global i8*
@_ZTS14LookupIP6Route = dso_local constant [17 x i8] c"14LookupIP6Route\00", align 1
@_ZTI13IP6RouteTable = external constant i8*
@_ZTI14LookupIP6Route = dso_local constant { i8*, i8*, i8* } { i8* bitcast (i8** getelementptr inbounds (i8*, i8** @_ZTVN10__cxxabiv120__si_class_type_infoE, i64 2) to i8*), i8* getelementptr inbounds ([17 x i8], [17 x i8]* @_ZTS14LookupIP6Route, i32 0, i32 0), i8* bitcast (i8** @_ZTI13IP6RouteTable to i8*) }, align 8
@.str.9 = private unnamed_addr constant [18 x i8] c"_r.memo->refcount\00", align 1
@.str.10 = private unnamed_addr constant [29 x i8] c"../dummy_inc/click/string.hh\00", align 1
@__PRETTY_FUNCTION__._ZNK6String5derefEv = private unnamed_addr constant [27 x i8] c"void String::deref() const\00", align 1
@.str.11 = private unnamed_addr constant [47 x i8] c"(unsigned) port < (unsigned) _nports[isoutput]\00", align 1
@.str.12 = private unnamed_addr constant [30 x i8] c"../dummy_inc/click/element.hh\00", align 1
@__PRETTY_FUNCTION__._ZNK7Element4portEbi = private unnamed_addr constant [52 x i8] c"const Element::Port &Element::port(bool, int) const\00", align 1
@.str.13 = private unnamed_addr constant [8 x i8] c"_e && p\00", align 1
@__PRETTY_FUNCTION__._ZNK7Element4Port4pushEP6Packet = private unnamed_addr constant [41 x i8] c"void Element::Port::push(Packet *) const\00", align 1
@.str.14 = private unnamed_addr constant [15 x i8] c"LookupIP6Route\00", align 1
@.str.15 = private unnamed_addr constant [4 x i8] c"1/-\00", align 1
@_ZN7Element4PUSHE = external constant [0 x i8], align 1
@.str.16 = private unnamed_addr constant [15 x i8] c"invalid number\00", align 1

@_ZN14LookupIP6RouteC1Ev = dso_local unnamed_addr alias void (%class.LookupIP6Route*), void (%class.LookupIP6Route*)* @_ZN14LookupIP6RouteC2Ev
@_ZN14LookupIP6RouteD1Ev = dso_local unnamed_addr alias void (%class.LookupIP6Route*), void (%class.LookupIP6Route*)* @_ZN14LookupIP6RouteD2Ev

; Function Attrs: sspstrong uwtable
define dso_local void @_ZN14LookupIP6RouteC2Ev(%class.LookupIP6Route* %0) unnamed_addr #0 align 2 personality i8* bitcast (i32 (...)* @__gxx_personality_v0 to i8*) !dbg !2307 {
  call void @llvm.dbg.value(metadata %class.LookupIP6Route* %0, metadata !2569, metadata !DIExpression()), !dbg !2571
  call void @llvm.dbg.value(metadata %class.LookupIP6Route* %0, metadata !2572, metadata !DIExpression()), !dbg !2580
  %2 = bitcast %class.LookupIP6Route* %0 to %class.Element*, !dbg !2582
  tail call void @_ZN7ElementC2Ev(%class.Element* %2), !dbg !2582
  %3 = getelementptr %class.LookupIP6Route, %class.LookupIP6Route* %0, i64 0, i32 0, i32 0, i32 0, !dbg !2583
  store i32 (...)** bitcast (i8** getelementptr inbounds ({ [32 x i8*] }, { [32 x i8*] }* @_ZTV14LookupIP6Route, i64 0, inrange i32 0, i64 2) to i32 (...)**), i32 (...)*** %3, align 8, !dbg !2583, !tbaa !2584
  %4 = getelementptr inbounds %class.LookupIP6Route, %class.LookupIP6Route* %0, i64 0, i32 2, !dbg !2587
  invoke void @_ZN8IP6TableC1Ev(%class.IP6Table* nonnull %4)
          to label %5 unwind label %8, !dbg !2587

5:                                                ; preds = %1
  %6 = getelementptr inbounds %class.LookupIP6Route, %class.LookupIP6Route* %0, i64 0, i32 3, !dbg !2587
  call void @llvm.dbg.value(metadata %class.IP6Address* %6, metadata !2588, metadata !DIExpression()) #12, !dbg !2591
  call void @llvm.dbg.value(metadata %class.LookupIP6Route* %0, metadata !2588, metadata !DIExpression(DW_OP_plus_uconst, 144, DW_OP_stack_value)) #12, !dbg !2593
  %7 = bitcast %class.IP6Address* %6 to i8*, !dbg !2595
  call void @llvm.memset.p0i8.i64(i8* nonnull align 4 dereferenceable(32) %7, i8 0, i64 32, i1 false), !dbg !2596
  ret void, !dbg !2595

8:                                                ; preds = %1
  %9 = landingpad { i8*, i32 }
          cleanup, !dbg !2595
  tail call void @_ZN7ElementD2Ev(%class.Element* %2) #12, !dbg !2598
  resume { i8*, i32 } %9, !dbg !2598
}

; Function Attrs: nounwind readnone speculatable willreturn
declare void @llvm.dbg.declare(metadata, metadata, metadata) #1

declare void @_ZN8IP6TableC1Ev(%class.IP6Table*) unnamed_addr #2

declare i32 @__gxx_personality_v0(...)

; Function Attrs: nounwind
declare void @_ZN8IP6TableD1Ev(%class.IP6Table*) unnamed_addr #3

; Function Attrs: nounwind
declare void @_ZN7ElementD2Ev(%class.Element*) unnamed_addr #3

; Function Attrs: nounwind sspstrong uwtable
define dso_local void @_ZN14LookupIP6RouteD2Ev(%class.LookupIP6Route* %0) unnamed_addr #4 align 2 !dbg !2600 {
  call void @llvm.dbg.value(metadata %class.LookupIP6Route* %0, metadata !2602, metadata !DIExpression()), !dbg !2603
  %2 = getelementptr %class.LookupIP6Route, %class.LookupIP6Route* %0, i64 0, i32 0, i32 0, i32 0, !dbg !2604
  store i32 (...)** bitcast (i8** getelementptr inbounds ({ [32 x i8*] }, { [32 x i8*] }* @_ZTV14LookupIP6Route, i64 0, inrange i32 0, i64 2) to i32 (...)**), i32 (...)*** %2, align 8, !dbg !2604, !tbaa !2584
  %3 = getelementptr inbounds %class.LookupIP6Route, %class.LookupIP6Route* %0, i64 0, i32 2, !dbg !2605
  tail call void @_ZN8IP6TableD1Ev(%class.IP6Table* nonnull %3) #12, !dbg !2605
  %4 = bitcast %class.LookupIP6Route* %0 to %class.Element*, !dbg !2605
  tail call void @_ZN7ElementD2Ev(%class.Element* %4) #12, !dbg !2605
  ret void, !dbg !2607
}

; Function Attrs: nounwind sspstrong uwtable
define dso_local void @_ZN14LookupIP6RouteD0Ev(%class.LookupIP6Route* %0) unnamed_addr #4 align 2 !dbg !2608 {
  call void @llvm.dbg.value(metadata %class.LookupIP6Route* %0, metadata !2610, metadata !DIExpression()), !dbg !2611
  call void @llvm.dbg.value(metadata %class.LookupIP6Route* %0, metadata !2602, metadata !DIExpression()) #12, !dbg !2612
  %2 = getelementptr %class.LookupIP6Route, %class.LookupIP6Route* %0, i64 0, i32 0, i32 0, i32 0, !dbg !2614
  store i32 (...)** bitcast (i8** getelementptr inbounds ({ [32 x i8*] }, { [32 x i8*] }* @_ZTV14LookupIP6Route, i64 0, inrange i32 0, i64 2) to i32 (...)**), i32 (...)*** %2, align 8, !dbg !2614, !tbaa !2584
  %3 = getelementptr inbounds %class.LookupIP6Route, %class.LookupIP6Route* %0, i64 0, i32 2, !dbg !2615
  tail call void @_ZN8IP6TableD1Ev(%class.IP6Table* nonnull %3) #12, !dbg !2615
  %4 = bitcast %class.LookupIP6Route* %0 to %class.Element*, !dbg !2615
  tail call void @_ZN7ElementD2Ev(%class.Element* %4) #12, !dbg !2615
  %5 = bitcast %class.LookupIP6Route* %0 to i8*, !dbg !2616
  tail call void @_ZdlPv(i8* %5) #13, !dbg !2616
  ret void, !dbg !2617
}

; Function Attrs: nobuiltin nounwind
declare void @_ZdlPv(i8*) local_unnamed_addr #5

; Function Attrs: sspstrong uwtable
define dso_local i32 @_ZN14LookupIP6Route9configureER6VectorI6StringEP12ErrorHandler(%class.LookupIP6Route* %0, %class.Vector.0* dereferenceable(16) %1, %class.ErrorHandler* %2) unnamed_addr #0 align 2 personality i8* bitcast (i32 (...)* @__gxx_personality_v0 to i8*) !dbg !2618 {
  %4 = alloca [1 x i32], align 4
  call void @llvm.dbg.declare(metadata [1 x i32]* %4, metadata !1658, metadata !DIExpression()), !dbg !2634
  %5 = alloca %class.IP6Address, align 4
  %6 = alloca %class.IP6Address, align 4
  %7 = alloca %class.IP6Address, align 4
  %8 = alloca %class.Vector.0, align 8
  %9 = alloca %class.IntArg, align 4
  %10 = alloca %class.IP6Address, align 4
  %11 = alloca %class.String, align 8
  call void @llvm.dbg.value(metadata %class.LookupIP6Route* %0, metadata !2620, metadata !DIExpression()), !dbg !2647
  call void @llvm.dbg.value(metadata %class.Vector.0* %1, metadata !2621, metadata !DIExpression()), !dbg !2647
  call void @llvm.dbg.value(metadata %class.ErrorHandler* %2, metadata !2622, metadata !DIExpression()), !dbg !2647
  call void @llvm.dbg.value(metadata i32 -1, metadata !2623, metadata !DIExpression()), !dbg !2647
  %12 = getelementptr inbounds %class.LookupIP6Route, %class.LookupIP6Route* %0, i64 0, i32 2, !dbg !2648
  call void @llvm.dbg.value(metadata %class.IP6Table* %12, metadata !2649, metadata !DIExpression()), !dbg !2653
  call void @llvm.dbg.value(metadata %class.IP6Table* %12, metadata !2655, metadata !DIExpression()), !dbg !2659
  call void @llvm.dbg.value(metadata %class.IP6Table* %12, metadata !2661, metadata !DIExpression()), !dbg !2665
  %13 = getelementptr inbounds %class.LookupIP6Route, %class.LookupIP6Route* %0, i64 0, i32 2, i32 0, i32 0, i32 1, !dbg !2667
  store i32 0, i32* %13, align 8, !dbg !2668, !tbaa !2669
  call void @llvm.dbg.value(metadata i32 0, metadata !2624, metadata !DIExpression()), !dbg !2674
  call void @llvm.dbg.value(metadata i32 -1, metadata !2623, metadata !DIExpression()), !dbg !2647
  call void @llvm.dbg.value(metadata %class.Vector.0* %1, metadata !2675, metadata !DIExpression()), !dbg !2679
  %14 = getelementptr inbounds %class.Vector.0, %class.Vector.0* %1, i64 0, i32 0, i32 1, !dbg !2681
  %15 = load i32, i32* %14, align 8, !dbg !2681, !tbaa !2682
  %16 = icmp sgt i32 %15, 0, !dbg !2685
  br i1 %16, label %17, label %36, !dbg !2686

17:                                               ; preds = %3
  %18 = bitcast %class.IP6Address* %5 to i8*, !dbg !2687
  %19 = bitcast %class.IP6Address* %6 to i8*, !dbg !2687
  %20 = bitcast %class.IP6Address* %7 to i8*, !dbg !2687
  %21 = bitcast %class.Vector.0* %8 to i8*, !dbg !2687
  %22 = bitcast %class.IntArg* %9 to i8*, !dbg !2688
  %23 = getelementptr inbounds %class.Vector.0, %class.Vector.0* %8, i64 0, i32 0, i32 1, !dbg !2689
  %24 = bitcast %class.LookupIP6Route* %0 to %class.Element*, !dbg !2688
  %25 = getelementptr inbounds %class.IntArg, %class.IntArg* %9, i64 0, i32 0, !dbg !2691
  %26 = bitcast [1 x i32]* %4 to i8*, !dbg !2697
  %27 = getelementptr inbounds [1 x i32], [1 x i32]* %4, i64 0, i64 0, !dbg !2698
  %28 = getelementptr inbounds %class.IntArg, %class.IntArg* %9, i64 0, i32 1, !dbg !2697
  %29 = bitcast %class.IP6Address* %10 to i8*, !dbg !2700
  %30 = bitcast %class.String* %11 to i8*, !dbg !2700
  %31 = getelementptr inbounds %class.String, %class.String* %11, i64 0, i32 0, i32 0, !dbg !2704
  %32 = getelementptr inbounds %class.String, %class.String* %11, i64 0, i32 0, i32 1, !dbg !2704
  %33 = getelementptr inbounds %class.String, %class.String* %11, i64 0, i32 0, i32 2, !dbg !2719
  %34 = getelementptr inbounds %class.Vector.0, %class.Vector.0* %8, i64 0, i32 0, i32 0, !dbg !2721
  %35 = bitcast %class.Vector.0* %8 to i8**, !dbg !2721
  br label %41, !dbg !2686

36:                                               ; preds = %187, %3
  %37 = phi i32 [ -1, %3 ], [ %152, %187 ], !dbg !2647
  call void @llvm.dbg.value(metadata i32 %37, metadata !2623, metadata !DIExpression()), !dbg !2647
  call void @llvm.dbg.value(metadata %class.ErrorHandler* %2, metadata !2736, metadata !DIExpression()), !dbg !2745
  %38 = getelementptr inbounds %class.ErrorHandler, %class.ErrorHandler* %2, i64 0, i32 1, !dbg !2748
  %39 = load i32, i32* %38, align 8, !dbg !2748, !tbaa !2749
  %40 = icmp eq i32 %39, 0, !dbg !2751
  br i1 %40, label %231, label %242, !dbg !2752

41:                                               ; preds = %17, %187
  %42 = phi i32 [ 0, %17 ], [ %188, %187 ]
  %43 = phi i32 [ -1, %17 ], [ %152, %187 ]
  call void @llvm.dbg.value(metadata i32 %42, metadata !2624, metadata !DIExpression()), !dbg !2674
  call void @llvm.dbg.value(metadata i32 %43, metadata !2623, metadata !DIExpression()), !dbg !2647
  call void @llvm.lifetime.start.p0i8(i64 16, i8* nonnull %18) #12, !dbg !2753
  call void @llvm.dbg.declare(metadata %class.IP6Address* %5, metadata !2626, metadata !DIExpression()), !dbg !2754
  call void @llvm.dbg.value(metadata %class.IP6Address* %5, metadata !2588, metadata !DIExpression()) #12, !dbg !2755
  call void @llvm.memset.p0i8.i64(i8* nonnull align 4 dereferenceable(16) %18, i8 0, i64 16, i1 false) #12, !dbg !2757
  call void @llvm.lifetime.start.p0i8(i64 16, i8* nonnull %19) #12, !dbg !2753
  call void @llvm.dbg.declare(metadata %class.IP6Address* %6, metadata !2629, metadata !DIExpression()), !dbg !2758
  call void @llvm.dbg.value(metadata %class.IP6Address* %6, metadata !2588, metadata !DIExpression()) #12, !dbg !2759
  call void @llvm.memset.p0i8.i64(i8* nonnull align 4 dereferenceable(16) %19, i8 0, i64 16, i1 false) #12, !dbg !2761
  call void @llvm.lifetime.start.p0i8(i64 16, i8* nonnull %20) #12, !dbg !2753
  call void @llvm.dbg.declare(metadata %class.IP6Address* %7, metadata !2630, metadata !DIExpression()), !dbg !2762
  call void @llvm.dbg.value(metadata %class.IP6Address* %7, metadata !2588, metadata !DIExpression()) #12, !dbg !2763
  call void @llvm.memset.p0i8.i64(i8* nonnull align 4 dereferenceable(16) %20, i8 0, i64 16, i1 false) #12, !dbg !2765
  call void @llvm.dbg.value(metadata i8 0, metadata !2632, metadata !DIExpression()), !dbg !2687
  call void @llvm.lifetime.start.p0i8(i64 16, i8* nonnull %21) #12, !dbg !2766
  call void @llvm.dbg.declare(metadata %class.Vector.0* %8, metadata !2633, metadata !DIExpression()), !dbg !2767
  call void @llvm.dbg.value(metadata %class.Vector.0* %8, metadata !2768, metadata !DIExpression()), !dbg !2771
  call void @llvm.dbg.value(metadata %class.Vector.0* %8, metadata !2773, metadata !DIExpression()) #12, !dbg !2776
  call void @llvm.memset.p0i8.i64(i8* nonnull align 8 dereferenceable(16) %21, i8 0, i64 16, i1 false) #12, !dbg !2778
  %44 = invoke dereferenceable(24) %class.String* @_ZN6VectorI6StringEixEi(%class.Vector.0* nonnull %1, i32 %42)
          to label %45 unwind label %90, !dbg !2779

45:                                               ; preds = %41
  invoke void @_Z11cp_spacevecRK6StringR6VectorIS_E(%class.String* nonnull dereferenceable(24) %44, %class.Vector.0* nonnull dereferenceable(16) %8)
          to label %46 unwind label %90, !dbg !2780

46:                                               ; preds = %45
  call void @llvm.lifetime.start.p0i8(i64 8, i8* nonnull %22) #12, !dbg !2781
  call void @llvm.dbg.value(metadata %class.Vector.0* %8, metadata !2675, metadata !DIExpression()), !dbg !2689
  %47 = load i32, i32* %23, align 8, !dbg !2782, !tbaa !2682
  %48 = and i32 %47, -2, !dbg !2783
  %49 = icmp eq i32 %48, 2, !dbg !2783
  br i1 %49, label %50, label %139, !dbg !2783

50:                                               ; preds = %46
  %51 = invoke dereferenceable(24) %class.String* @_ZN6VectorI6StringEixEi(%class.Vector.0* nonnull %8, i32 0)
          to label %52 unwind label %90, !dbg !2784

52:                                               ; preds = %50
  %53 = invoke zeroext i1 @_Z13cp_ip6_prefixRK6StringPhS2_bPK7Element(%class.String* nonnull dereferenceable(24) %51, i8* nonnull %18, i8* nonnull %19, i1 zeroext true, %class.Element* %24)
          to label %54 unwind label %90, !dbg !2785

54:                                               ; preds = %52
  br i1 %53, label %55, label %138, !dbg !2786

55:                                               ; preds = %54
  call void @llvm.dbg.value(metadata %class.IntArg* %9, metadata !2694, metadata !DIExpression()), !dbg !2691
  call void @llvm.dbg.value(metadata i32 0, metadata !2695, metadata !DIExpression()), !dbg !2691
  store i32 0, i32* %25, align 4, !dbg !2787, !tbaa !2788
  call void @llvm.dbg.value(metadata %class.Vector.0* %8, metadata !2790, metadata !DIExpression()), !dbg !2793
  %56 = load i32, i32* %23, align 8, !dbg !2795, !tbaa !2682
  %57 = add nsw i32 %56, -1, !dbg !2796
  %58 = invoke dereferenceable(24) %class.String* @_ZN6VectorI6StringEixEi(%class.Vector.0* nonnull %8, i32 %57)
          to label %59 unwind label %94, !dbg !2797

59:                                               ; preds = %55
  call void @llvm.dbg.value(metadata %class.IntArg* %9, metadata !2640, metadata !DIExpression()), !dbg !2798
  call void @llvm.dbg.value(metadata %class.String* %58, metadata !2641, metadata !DIExpression()), !dbg !2798
  call void @llvm.dbg.value(metadata %class.ArgContext* @blank_args, metadata !2643, metadata !DIExpression()), !dbg !2798
  call void @llvm.dbg.value(metadata %class.IntArg* %9, metadata !1650, metadata !DIExpression()), !dbg !2697
  call void @llvm.dbg.value(metadata %class.String* %58, metadata !1652, metadata !DIExpression()), !dbg !2697
  call void @llvm.dbg.value(metadata %class.ArgContext* @blank_args, metadata !1654, metadata !DIExpression()), !dbg !2697
  call void @llvm.dbg.value(metadata i8 1, metadata !1655, metadata !DIExpression()), !dbg !2697
  call void @llvm.dbg.value(metadata i32 1, metadata !1656, metadata !DIExpression()), !dbg !2697
  call void @llvm.lifetime.start.p0i8(i64 4, i8* nonnull %26) #12, !dbg !2799
  call void @llvm.dbg.value(metadata %class.String* %58, metadata !2800, metadata !DIExpression()), !dbg !2803
  %60 = getelementptr inbounds %class.String, %class.String* %58, i64 0, i32 0, i32 0, !dbg !2805
  %61 = load i8*, i8** %60, align 8, !dbg !2805, !tbaa !2806
  call void @llvm.dbg.value(metadata %class.String* %58, metadata !2809, metadata !DIExpression()), !dbg !2812
  %62 = getelementptr inbounds %class.String, %class.String* %58, i64 0, i32 0, i32 1, !dbg !2814
  %63 = load i32, i32* %62, align 8, !dbg !2814, !tbaa !2815
  %64 = sext i32 %63 to i64, !dbg !2816
  %65 = getelementptr inbounds i8, i8* %61, i64 %64, !dbg !2816
  %66 = invoke i8* @_ZN6IntArg5parseEPKcS1_biPji(%class.IntArg* nonnull %9, i8* %61, i8* %65, i1 zeroext true, i32 4, i32* nonnull %27, i32 1)
          to label %67 unwind label %94, !dbg !2817

67:                                               ; preds = %59
  call void @llvm.dbg.value(metadata %class.String* %58, metadata !2809, metadata !DIExpression()), !dbg !2818
  %68 = load i8*, i8** %60, align 8, !dbg !2820, !tbaa !2806
  %69 = load i32, i32* %62, align 8, !dbg !2821, !tbaa !2815
  %70 = sext i32 %69 to i64, !dbg !2822
  %71 = getelementptr inbounds i8, i8* %68, i64 %70, !dbg !2822
  %72 = icmp eq i8* %66, %71, !dbg !2823
  br i1 %72, label %74, label %73, !dbg !2824

73:                                               ; preds = %67
  store i32 22, i32* %28, align 4, !dbg !2825, !tbaa !2826
  br label %76, !dbg !2827

74:                                               ; preds = %67
  %75 = load i32, i32* %28, align 4, !dbg !2829, !tbaa !2826
  switch i32 %75, label %76 [
    i32 0, label %78
    i32 34, label %78
  ], !dbg !2827

76:                                               ; preds = %74, %73
  invoke void (%class.ArgContext*, i8*, ...) @_ZNK10ArgContext5errorEPKcz(%class.ArgContext* nonnull @blank_args, i8* getelementptr inbounds ([15 x i8], [15 x i8]* @.str.16, i64 0, i64 0))
          to label %77 unwind label %94, !dbg !2830

77:                                               ; preds = %76
  call void @llvm.lifetime.end.p0i8(i64 4, i8* nonnull %26) #12, !dbg !2832
  br label %82, !dbg !2833

78:                                               ; preds = %74, %74
  call void @llvm.dbg.value(metadata i32* %27, metadata !2834, metadata !DIExpression()), !dbg !2846
  call void @llvm.dbg.value(metadata i32* %27, metadata !2848, metadata !DIExpression()), !dbg !2857
  %79 = load i32, i32* %27, align 4, !dbg !2859, !tbaa !2860
  call void @llvm.lifetime.end.p0i8(i64 4, i8* nonnull %26) #12, !dbg !2832
  switch i32 %75, label %82 [
    i32 34, label %80
    i32 0, label %83
  ], !dbg !2861

80:                                               ; preds = %78
  %81 = sext i32 %79 to i64, !dbg !2862
  invoke void @_ZN6IntArg11range_errorERK10ArgContextbx(%class.IntArg* nonnull %9, %class.ArgContext* nonnull dereferenceable(32) @blank_args, i1 zeroext true, i64 %81)
          to label %82 unwind label %94, !dbg !2865

82:                                               ; preds = %78, %77, %80
  call void @llvm.lifetime.end.p0i8(i64 8, i8* nonnull %22) #12, !dbg !2866
  br label %148, !dbg !2867

83:                                               ; preds = %78
  call void @llvm.lifetime.end.p0i8(i64 8, i8* nonnull %22) #12, !dbg !2866
  call void @llvm.dbg.value(metadata %class.Vector.0* %8, metadata !2675, metadata !DIExpression()), !dbg !2868
  %84 = load i32, i32* %23, align 8, !dbg !2870, !tbaa !2682
  %85 = icmp eq i32 %84, 3, !dbg !2871
  br i1 %85, label %86, label %98, !dbg !2872

86:                                               ; preds = %83
  %87 = invoke dereferenceable(24) %class.String* @_ZN6VectorI6StringEixEi(%class.Vector.0* nonnull %8, i32 1)
          to label %88 unwind label %90, !dbg !2873

88:                                               ; preds = %86
  %89 = invoke zeroext i1 @_Z14cp_ip6_addressRK6StringPhPK7Element(%class.String* nonnull dereferenceable(24) %87, i8* nonnull %20, %class.Element* %24)
          to label %140 unwind label %90, !dbg !2874

90:                                               ; preds = %148, %144, %88, %86, %52, %50, %45, %41
  %91 = landingpad { i8*, i32 }
          cleanup, !dbg !2875
  %92 = extractvalue { i8*, i32 } %91, 0, !dbg !2875
  %93 = extractvalue { i8*, i32 } %91, 1, !dbg !2875
  br label %191, !dbg !2875

94:                                               ; preds = %80, %76, %59, %55
  %95 = landingpad { i8*, i32 }
          cleanup, !dbg !2876
  %96 = extractvalue { i8*, i32 } %95, 0, !dbg !2876
  %97 = extractvalue { i8*, i32 } %95, 1, !dbg !2876
  call void @llvm.lifetime.end.p0i8(i64 8, i8* nonnull %22) #12, !dbg !2866
  br label %191, !dbg !2866

98:                                               ; preds = %83
  call void @llvm.lifetime.start.p0i8(i64 16, i8* nonnull %29) #12, !dbg !2877
  call void @llvm.lifetime.start.p0i8(i64 24, i8* nonnull %30) #12, !dbg !2878
  call void @llvm.dbg.value(metadata %class.String* %11, metadata !2716, metadata !DIExpression()), !dbg !2879
  call void @llvm.dbg.value(metadata i8* getelementptr inbounds ([4 x i8], [4 x i8]* @.str, i64 0, i64 0), metadata !2717, metadata !DIExpression()), !dbg !2879
  call void @llvm.dbg.value(metadata %class.String* %11, metadata !2707, metadata !DIExpression()), !dbg !2704
  call void @llvm.dbg.value(metadata i8* getelementptr inbounds ([4 x i8], [4 x i8]* @.str, i64 0, i64 0), metadata !2708, metadata !DIExpression()), !dbg !2704
  call void @llvm.dbg.value(metadata i32 3, metadata !2709, metadata !DIExpression()), !dbg !2704
  call void @llvm.dbg.value(metadata %"struct.String::memo_t"* null, metadata !2710, metadata !DIExpression()), !dbg !2704
  store i8* getelementptr inbounds ([4 x i8], [4 x i8]* @.str, i64 0, i64 0), i8** %31, align 8, !dbg !2880, !tbaa !2806
  store i32 3, i32* %32, align 8, !dbg !2881, !tbaa !2815
  store %"struct.String::memo_t"* null, %"struct.String::memo_t"** %33, align 8, !dbg !2882, !tbaa !2883
  invoke void @_ZN10IP6AddressC1ERK6String(%class.IP6Address* nonnull %10, %class.String* nonnull dereferenceable(24) %11)
          to label %99 unwind label %117, !dbg !2877

99:                                               ; preds = %98
  call void @llvm.memcpy.p0i8.p0i8.i64(i8* nonnull align 4 dereferenceable(16) %20, i8* nonnull align 4 dereferenceable(16) %29, i64 16, i1 false), !dbg !2884, !tbaa.struct !2885
  call void @llvm.dbg.value(metadata %class.String* %11, metadata !2887, metadata !DIExpression()) #12, !dbg !2890
  call void @llvm.dbg.value(metadata %class.String* %11, metadata !2892, metadata !DIExpression()) #12, !dbg !2895
  %100 = load %"struct.String::memo_t"*, %"struct.String::memo_t"** %33, align 8, !dbg !2898, !tbaa !2883
  %101 = icmp eq %"struct.String::memo_t"* %100, null, !dbg !2900
  br i1 %101, label %116, label %102, !dbg !2901

102:                                              ; preds = %99
  %103 = getelementptr inbounds %"struct.String::memo_t", %"struct.String::memo_t"* %100, i64 0, i32 0, !dbg !2902
  %104 = load volatile i32, i32* %103, align 4, !dbg !2902, !tbaa !2904
  %105 = icmp eq i32 %104, 0, !dbg !2902
  br i1 %105, label %106, label %107, !dbg !2902

106:                                              ; preds = %102
  call void @__assert_fail(i8* getelementptr inbounds ([18 x i8], [18 x i8]* @.str.9, i64 0, i64 0), i8* getelementptr inbounds ([29 x i8], [29 x i8]* @.str.10, i64 0, i64 0), i32 273, i8* getelementptr inbounds ([27 x i8], [27 x i8]* @__PRETTY_FUNCTION__._ZNK6String5derefEv, i64 0, i64 0)) #14, !dbg !2902
  unreachable, !dbg !2902

107:                                              ; preds = %102
  call void @llvm.dbg.value(metadata i32* %103, metadata !2906, metadata !DIExpression()) #12, !dbg !2909
  %108 = load volatile i32, i32* %103, align 4, !dbg !2912, !tbaa !2860
  %109 = add i32 %108, -1, !dbg !2912
  store volatile i32 %109, i32* %103, align 4, !dbg !2912, !tbaa !2860
  %110 = icmp eq i32 %109, 0, !dbg !2913
  br i1 %110, label %111, label %112, !dbg !2914

111:                                              ; preds = %107
  invoke void @_ZN6String11delete_memoEPNS_6memo_tE(%"struct.String::memo_t"* nonnull %100)
          to label %112 unwind label %113, !dbg !2915

112:                                              ; preds = %111, %107
  store %"struct.String::memo_t"* null, %"struct.String::memo_t"** %33, align 8, !dbg !2916, !tbaa !2883
  br label %116, !dbg !2917

113:                                              ; preds = %111
  %114 = landingpad { i8*, i32 }
          catch i8* null, !dbg !2918
  %115 = extractvalue { i8*, i32 } %114, 0, !dbg !2918
  call void @__clang_call_terminate(i8* %115) #14, !dbg !2918
  unreachable, !dbg !2918

116:                                              ; preds = %99, %112
  call void @llvm.lifetime.end.p0i8(i64 24, i8* nonnull %30) #12, !dbg !2919
  call void @llvm.lifetime.end.p0i8(i64 16, i8* nonnull %29) #12, !dbg !2919
  call void @llvm.dbg.value(metadata i8 1, metadata !2632, metadata !DIExpression()), !dbg !2687
  br label %140

117:                                              ; preds = %98
  %118 = landingpad { i8*, i32 }
          cleanup, !dbg !2920
  %119 = extractvalue { i8*, i32 } %118, 0, !dbg !2920
  %120 = extractvalue { i8*, i32 } %118, 1, !dbg !2920
  call void @llvm.dbg.value(metadata %class.String* %11, metadata !2887, metadata !DIExpression()) #12, !dbg !2921
  call void @llvm.dbg.value(metadata %class.String* %11, metadata !2892, metadata !DIExpression()) #12, !dbg !2923
  %121 = load %"struct.String::memo_t"*, %"struct.String::memo_t"** %33, align 8, !dbg !2925, !tbaa !2883
  %122 = icmp eq %"struct.String::memo_t"* %121, null, !dbg !2926
  br i1 %122, label %137, label %123, !dbg !2927

123:                                              ; preds = %117
  %124 = getelementptr inbounds %"struct.String::memo_t", %"struct.String::memo_t"* %121, i64 0, i32 0, !dbg !2928
  %125 = load volatile i32, i32* %124, align 4, !dbg !2928, !tbaa !2904
  %126 = icmp eq i32 %125, 0, !dbg !2928
  br i1 %126, label %127, label %128, !dbg !2928

127:                                              ; preds = %123
  call void @__assert_fail(i8* getelementptr inbounds ([18 x i8], [18 x i8]* @.str.9, i64 0, i64 0), i8* getelementptr inbounds ([29 x i8], [29 x i8]* @.str.10, i64 0, i64 0), i32 273, i8* getelementptr inbounds ([27 x i8], [27 x i8]* @__PRETTY_FUNCTION__._ZNK6String5derefEv, i64 0, i64 0)) #14, !dbg !2928
  unreachable, !dbg !2928

128:                                              ; preds = %123
  call void @llvm.dbg.value(metadata i32* %124, metadata !2906, metadata !DIExpression()) #12, !dbg !2929
  %129 = load volatile i32, i32* %124, align 4, !dbg !2931, !tbaa !2860
  %130 = add i32 %129, -1, !dbg !2931
  store volatile i32 %130, i32* %124, align 4, !dbg !2931, !tbaa !2860
  %131 = icmp eq i32 %130, 0, !dbg !2932
  br i1 %131, label %132, label %133, !dbg !2933

132:                                              ; preds = %128
  invoke void @_ZN6String11delete_memoEPNS_6memo_tE(%"struct.String::memo_t"* nonnull %121)
          to label %133 unwind label %134, !dbg !2934

133:                                              ; preds = %132, %128
  store %"struct.String::memo_t"* null, %"struct.String::memo_t"** %33, align 8, !dbg !2935, !tbaa !2883
  br label %137, !dbg !2936

134:                                              ; preds = %132
  %135 = landingpad { i8*, i32 }
          catch i8* null, !dbg !2937
  %136 = extractvalue { i8*, i32 } %135, 0, !dbg !2937
  call void @__clang_call_terminate(i8* %136) #14, !dbg !2937
  unreachable, !dbg !2937

137:                                              ; preds = %133, %117
  call void @llvm.lifetime.end.p0i8(i64 24, i8* nonnull %30) #12, !dbg !2919
  call void @llvm.lifetime.end.p0i8(i64 16, i8* nonnull %29) #12, !dbg !2919
  br label %191, !dbg !2919

138:                                              ; preds = %54
  call void @llvm.lifetime.end.p0i8(i64 8, i8* nonnull %22) #12, !dbg !2866
  br label %148, !dbg !2867

139:                                              ; preds = %46
  call void @llvm.lifetime.end.p0i8(i64 8, i8* nonnull %22) #12, !dbg !2866
  br label %148, !dbg !2867

140:                                              ; preds = %88, %116
  %141 = phi i1 [ true, %116 ], [ %89, %88 ], !dbg !2687
  call void @llvm.dbg.value(metadata i8 undef, metadata !2632, metadata !DIExpression()), !dbg !2687
  call void @llvm.dbg.value(metadata i32 %79, metadata !2631, metadata !DIExpression()), !dbg !2687
  %142 = icmp sgt i32 %79, -1, !dbg !2938
  %143 = and i1 %142, %141, !dbg !2940
  br i1 %143, label %144, label %148, !dbg !2940

144:                                              ; preds = %140
  invoke void @_ZN8IP6Table3addERK10IP6AddressS2_S2_i(%class.IP6Table* nonnull %12, %class.IP6Address* nonnull dereferenceable(16) %5, %class.IP6Address* nonnull dereferenceable(16) %6, %class.IP6Address* nonnull dereferenceable(16) %7, i32 %79)
          to label %145 unwind label %90, !dbg !2941

145:                                              ; preds = %144
  call void @llvm.dbg.value(metadata i32 %79, metadata !2631, metadata !DIExpression()), !dbg !2687
  %146 = icmp sgt i32 %79, %43, !dbg !2943
  %147 = select i1 %146, i32 %79, i32 %43, !dbg !2945
  br label %151, !dbg !2945

148:                                              ; preds = %82, %139, %138, %140
  %149 = add nuw nsw i32 %42, 1, !dbg !2946
  %150 = invoke i32 (%class.ErrorHandler*, i8*, ...) @_ZN12ErrorHandler5errorEPKcz(%class.ErrorHandler* %2, i8* getelementptr inbounds ([45 x i8], [45 x i8]* @.str.1, i64 0, i64 0), i32 %149)
          to label %151 unwind label %90, !dbg !2948

151:                                              ; preds = %145, %148
  %152 = phi i32 [ %43, %148 ], [ %147, %145 ], !dbg !2647
  call void @llvm.dbg.value(metadata i32 %152, metadata !2623, metadata !DIExpression()), !dbg !2647
  call void @llvm.dbg.value(metadata %class.Vector.0* %8, metadata !2733, metadata !DIExpression()) #12, !dbg !2949
  call void @llvm.dbg.value(metadata %class.Vector.0* %8, metadata !2726, metadata !DIExpression()) #12, !dbg !2950
  %153 = load %class.String*, %class.String** %34, align 8, !dbg !2951, !tbaa !2952
  %154 = load i32, i32* %23, align 8, !dbg !2953, !tbaa !2954
  %155 = sext i32 %154 to i64, !dbg !2953
  call void @llvm.dbg.value(metadata %class.String* %153, metadata !2955, metadata !DIExpression()) #12, !dbg !2961
  call void @llvm.dbg.value(metadata i64 %155, metadata !2958, metadata !DIExpression()) #12, !dbg !2961
  call void @llvm.dbg.value(metadata i64 0, metadata !2959, metadata !DIExpression()) #12, !dbg !2963
  %156 = icmp eq i32 %154, 0, !dbg !2964
  br i1 %156, label %157, label %159, !dbg !2966

157:                                              ; preds = %151
  %158 = bitcast %class.String* %153 to i8*, !dbg !2966
  br label %183, !dbg !2966

159:                                              ; preds = %151, %178
  %160 = phi i64 [ %179, %178 ], [ 0, %151 ]
  call void @llvm.dbg.value(metadata i64 %160, metadata !2959, metadata !DIExpression()) #12, !dbg !2963
  call void @llvm.dbg.value(metadata %class.String* undef, metadata !2887, metadata !DIExpression()) #12, !dbg !2967
  call void @llvm.dbg.value(metadata %class.String* undef, metadata !2892, metadata !DIExpression()) #12, !dbg !2969
  %161 = getelementptr inbounds %class.String, %class.String* %153, i64 %160, i32 0, i32 2, !dbg !2971
  %162 = load %"struct.String::memo_t"*, %"struct.String::memo_t"** %161, align 8, !dbg !2971, !tbaa !2883
  %163 = icmp eq %"struct.String::memo_t"* %162, null, !dbg !2972
  br i1 %163, label %178, label %164, !dbg !2973

164:                                              ; preds = %159
  %165 = getelementptr inbounds %"struct.String::memo_t", %"struct.String::memo_t"* %162, i64 0, i32 0, !dbg !2974
  %166 = load volatile i32, i32* %165, align 4, !dbg !2974, !tbaa !2904
  %167 = icmp eq i32 %166, 0, !dbg !2974
  br i1 %167, label %168, label %169, !dbg !2974

168:                                              ; preds = %164
  call void @__assert_fail(i8* getelementptr inbounds ([18 x i8], [18 x i8]* @.str.9, i64 0, i64 0), i8* getelementptr inbounds ([29 x i8], [29 x i8]* @.str.10, i64 0, i64 0), i32 273, i8* getelementptr inbounds ([27 x i8], [27 x i8]* @__PRETTY_FUNCTION__._ZNK6String5derefEv, i64 0, i64 0)) #14, !dbg !2974
  unreachable, !dbg !2974

169:                                              ; preds = %164
  call void @llvm.dbg.value(metadata i32* %165, metadata !2906, metadata !DIExpression()) #12, !dbg !2975
  %170 = load volatile i32, i32* %165, align 4, !dbg !2977, !tbaa !2860
  %171 = add i32 %170, -1, !dbg !2977
  store volatile i32 %171, i32* %165, align 4, !dbg !2977, !tbaa !2860
  %172 = icmp eq i32 %171, 0, !dbg !2978
  br i1 %172, label %173, label %174, !dbg !2979

173:                                              ; preds = %169
  invoke void @_ZN6String11delete_memoEPNS_6memo_tE(%"struct.String::memo_t"* nonnull %162)
          to label %174 unwind label %175, !dbg !2980

174:                                              ; preds = %173, %169
  store %"struct.String::memo_t"* null, %"struct.String::memo_t"** %161, align 8, !dbg !2981, !tbaa !2883
  br label %178, !dbg !2982

175:                                              ; preds = %173
  %176 = landingpad { i8*, i32 }
          catch i8* null, !dbg !2983
  %177 = extractvalue { i8*, i32 } %176, 0, !dbg !2983
  call void @__clang_call_terminate(i8* %177) #14, !dbg !2983
  unreachable, !dbg !2983

178:                                              ; preds = %174, %159
  %179 = add nuw i64 %160, 1, !dbg !2984
  call void @llvm.dbg.value(metadata i64 %179, metadata !2959, metadata !DIExpression()) #12, !dbg !2963
  %180 = icmp eq i64 %179, %155, !dbg !2964
  br i1 %180, label %181, label %159, !dbg !2966, !llvm.loop !2985

181:                                              ; preds = %178
  %182 = load i8*, i8** %35, align 8, !dbg !2987, !tbaa !2952
  br label %183, !dbg !2987

183:                                              ; preds = %181, %157
  %184 = phi i8* [ %182, %181 ], [ %158, %157 ], !dbg !2987
  %185 = icmp eq i8* %184, null, !dbg !2987
  br i1 %185, label %187, label %186, !dbg !2987

186:                                              ; preds = %183
  call void @_ZdaPv(i8* nonnull %184) #13, !dbg !2987
  br label %187, !dbg !2987

187:                                              ; preds = %183, %186
  call void @llvm.lifetime.end.p0i8(i64 16, i8* nonnull %21) #12, !dbg !2988
  call void @llvm.lifetime.end.p0i8(i64 16, i8* nonnull %20) #12, !dbg !2988
  call void @llvm.lifetime.end.p0i8(i64 16, i8* nonnull %19) #12, !dbg !2988
  call void @llvm.lifetime.end.p0i8(i64 16, i8* nonnull %18) #12, !dbg !2988
  %188 = add nuw nsw i32 %42, 1, !dbg !2989
  call void @llvm.dbg.value(metadata i32 %188, metadata !2624, metadata !DIExpression()), !dbg !2674
  call void @llvm.dbg.value(metadata i32 %152, metadata !2623, metadata !DIExpression()), !dbg !2647
  call void @llvm.dbg.value(metadata %class.Vector.0* %1, metadata !2675, metadata !DIExpression()), !dbg !2679
  %189 = load i32, i32* %14, align 8, !dbg !2681, !tbaa !2682
  %190 = icmp slt i32 %188, %189, !dbg !2685
  br i1 %190, label %41, label %36, !dbg !2686, !llvm.loop !2990

191:                                              ; preds = %137, %94, %90
  %192 = phi i8* [ %92, %90 ], [ %119, %137 ], [ %96, %94 ], !dbg !2687
  %193 = phi i32 [ %93, %90 ], [ %120, %137 ], [ %97, %94 ], !dbg !2687
  call void @llvm.dbg.value(metadata %class.Vector.0* %8, metadata !2733, metadata !DIExpression()) #12, !dbg !2992
  call void @llvm.dbg.value(metadata %class.Vector.0* %8, metadata !2726, metadata !DIExpression()) #12, !dbg !2994
  %194 = load %class.String*, %class.String** %34, align 8, !dbg !2996, !tbaa !2952
  %195 = load i32, i32* %23, align 8, !dbg !2997, !tbaa !2954
  %196 = sext i32 %195 to i64, !dbg !2997
  call void @llvm.dbg.value(metadata %class.String* %194, metadata !2955, metadata !DIExpression()) #12, !dbg !2998
  call void @llvm.dbg.value(metadata i64 %196, metadata !2958, metadata !DIExpression()) #12, !dbg !2998
  call void @llvm.dbg.value(metadata i64 0, metadata !2959, metadata !DIExpression()) #12, !dbg !3000
  %197 = icmp eq i32 %195, 0, !dbg !3001
  br i1 %197, label %198, label %200, !dbg !3002

198:                                              ; preds = %191
  %199 = bitcast %class.String* %194 to i8*, !dbg !3002
  br label %224, !dbg !3002

200:                                              ; preds = %191, %219
  %201 = phi i64 [ %220, %219 ], [ 0, %191 ]
  call void @llvm.dbg.value(metadata i64 %201, metadata !2959, metadata !DIExpression()) #12, !dbg !3000
  call void @llvm.dbg.value(metadata %class.String* undef, metadata !2887, metadata !DIExpression()) #12, !dbg !3003
  call void @llvm.dbg.value(metadata %class.String* undef, metadata !2892, metadata !DIExpression()) #12, !dbg !3005
  %202 = getelementptr inbounds %class.String, %class.String* %194, i64 %201, i32 0, i32 2, !dbg !3007
  %203 = load %"struct.String::memo_t"*, %"struct.String::memo_t"** %202, align 8, !dbg !3007, !tbaa !2883
  %204 = icmp eq %"struct.String::memo_t"* %203, null, !dbg !3008
  br i1 %204, label %219, label %205, !dbg !3009

205:                                              ; preds = %200
  %206 = getelementptr inbounds %"struct.String::memo_t", %"struct.String::memo_t"* %203, i64 0, i32 0, !dbg !3010
  %207 = load volatile i32, i32* %206, align 4, !dbg !3010, !tbaa !2904
  %208 = icmp eq i32 %207, 0, !dbg !3010
  br i1 %208, label %209, label %210, !dbg !3010

209:                                              ; preds = %205
  call void @__assert_fail(i8* getelementptr inbounds ([18 x i8], [18 x i8]* @.str.9, i64 0, i64 0), i8* getelementptr inbounds ([29 x i8], [29 x i8]* @.str.10, i64 0, i64 0), i32 273, i8* getelementptr inbounds ([27 x i8], [27 x i8]* @__PRETTY_FUNCTION__._ZNK6String5derefEv, i64 0, i64 0)) #14, !dbg !3010
  unreachable, !dbg !3010

210:                                              ; preds = %205
  call void @llvm.dbg.value(metadata i32* %206, metadata !2906, metadata !DIExpression()) #12, !dbg !3011
  %211 = load volatile i32, i32* %206, align 4, !dbg !3013, !tbaa !2860
  %212 = add i32 %211, -1, !dbg !3013
  store volatile i32 %212, i32* %206, align 4, !dbg !3013, !tbaa !2860
  %213 = icmp eq i32 %212, 0, !dbg !3014
  br i1 %213, label %214, label %215, !dbg !3015

214:                                              ; preds = %210
  invoke void @_ZN6String11delete_memoEPNS_6memo_tE(%"struct.String::memo_t"* nonnull %203)
          to label %215 unwind label %216, !dbg !3016

215:                                              ; preds = %214, %210
  store %"struct.String::memo_t"* null, %"struct.String::memo_t"** %202, align 8, !dbg !3017, !tbaa !2883
  br label %219, !dbg !3018

216:                                              ; preds = %214
  %217 = landingpad { i8*, i32 }
          catch i8* null, !dbg !3019
  %218 = extractvalue { i8*, i32 } %217, 0, !dbg !3019
  call void @__clang_call_terminate(i8* %218) #14, !dbg !3019
  unreachable, !dbg !3019

219:                                              ; preds = %215, %200
  %220 = add nuw i64 %201, 1, !dbg !3020
  call void @llvm.dbg.value(metadata i64 %220, metadata !2959, metadata !DIExpression()) #12, !dbg !3000
  %221 = icmp eq i64 %220, %196, !dbg !3001
  br i1 %221, label %222, label %200, !dbg !3002, !llvm.loop !3021

222:                                              ; preds = %219
  %223 = load i8*, i8** %35, align 8, !dbg !3023, !tbaa !2952
  br label %224, !dbg !3023

224:                                              ; preds = %222, %198
  %225 = phi i8* [ %223, %222 ], [ %199, %198 ], !dbg !3023
  %226 = icmp eq i8* %225, null, !dbg !3023
  br i1 %226, label %228, label %227, !dbg !3023

227:                                              ; preds = %224
  call void @_ZdaPv(i8* nonnull %225) #13, !dbg !3023
  br label %228, !dbg !3023

228:                                              ; preds = %224, %227
  call void @llvm.lifetime.end.p0i8(i64 16, i8* nonnull %21) #12, !dbg !2988
  call void @llvm.lifetime.end.p0i8(i64 16, i8* nonnull %20) #12, !dbg !2988
  call void @llvm.lifetime.end.p0i8(i64 16, i8* nonnull %19) #12, !dbg !2988
  call void @llvm.lifetime.end.p0i8(i64 16, i8* nonnull %18) #12, !dbg !2988
  %229 = insertvalue { i8*, i32 } undef, i8* %192, 0, !dbg !3024
  %230 = insertvalue { i8*, i32 } %229, i32 %193, 1, !dbg !3024
  resume { i8*, i32 } %230, !dbg !3024

231:                                              ; preds = %36
  %232 = icmp slt i32 %37, 0, !dbg !3025
  br i1 %232, label %233, label %235, !dbg !3027

233:                                              ; preds = %231
  %234 = call i32 (%class.ErrorHandler*, i8*, ...) @_ZN12ErrorHandler7warningEPKcz(%class.ErrorHandler* nonnull %2, i8* getelementptr inbounds ([10 x i8], [10 x i8]* @.str.2, i64 0, i64 0)), !dbg !3028
  br label %235, !dbg !3029

235:                                              ; preds = %233, %231
  call void @llvm.dbg.value(metadata %class.LookupIP6Route* %0, metadata !3030, metadata !DIExpression()), !dbg !3037
  %236 = getelementptr inbounds %class.LookupIP6Route, %class.LookupIP6Route* %0, i64 0, i32 0, i32 0, i32 3, i64 1, !dbg !3040
  %237 = load i32, i32* %236, align 4, !dbg !3040, !tbaa !2860
  %238 = icmp slt i32 %37, %237, !dbg !3041
  br i1 %238, label %242, label %239, !dbg !3042

239:                                              ; preds = %235
  %240 = add nsw i32 %37, 1, !dbg !3043
  %241 = call i32 (%class.ErrorHandler*, i8*, ...) @_ZN12ErrorHandler5errorEPKcz(%class.ErrorHandler* nonnull %2, i8* getelementptr inbounds ([29 x i8], [29 x i8]* @.str.3, i64 0, i64 0), i32 %240), !dbg !3044
  br label %242, !dbg !3045

242:                                              ; preds = %235, %36, %239
  %243 = phi i32 [ %241, %239 ], [ -1, %36 ], [ 0, %235 ], !dbg !2647
  ret i32 %243, !dbg !3024
}

; Function Attrs: argmemonly nounwind willreturn
declare void @llvm.lifetime.start.p0i8(i64 immarg, i8* nocapture) #6

declare !dbg !1173 void @_Z11cp_spacevecRK6StringR6VectorIS_E(%class.String* dereferenceable(24), %class.Vector.0* dereferenceable(16)) local_unnamed_addr #2

declare dereferenceable(24) %class.String* @_ZN6VectorI6StringEixEi(%class.Vector.0*, i32) local_unnamed_addr #2

declare !dbg !1372 zeroext i1 @_Z13cp_ip6_prefixRK6StringPhS2_bPK7Element(%class.String* dereferenceable(24), i8*, i8*, i1 zeroext, %class.Element*) local_unnamed_addr #2

; Function Attrs: argmemonly nounwind willreturn
declare void @llvm.lifetime.end.p0i8(i64 immarg, i8* nocapture) #6

declare !dbg !1379 zeroext i1 @_Z14cp_ip6_addressRK6StringPhPK7Element(%class.String* dereferenceable(24), i8*, %class.Element*) local_unnamed_addr #2

declare void @_ZN10IP6AddressC1ERK6String(%class.IP6Address*, %class.String* dereferenceable(24)) unnamed_addr #2

; Function Attrs: argmemonly nounwind willreturn
declare void @llvm.memcpy.p0i8.p0i8.i64(i8* noalias nocapture writeonly, i8* noalias nocapture readonly, i64, i1 immarg) #6

declare void @_ZN8IP6Table3addERK10IP6AddressS2_S2_i(%class.IP6Table*, %class.IP6Address* dereferenceable(16), %class.IP6Address* dereferenceable(16), %class.IP6Address* dereferenceable(16), i32) local_unnamed_addr #2

declare i32 @_ZN12ErrorHandler5errorEPKcz(%class.ErrorHandler*, i8*, ...) local_unnamed_addr #2

declare i32 @_ZN12ErrorHandler7warningEPKcz(%class.ErrorHandler*, i8*, ...) local_unnamed_addr #2

; Function Attrs: nounwind sspstrong uwtable
define dso_local i32 @_ZN14LookupIP6Route10initializeEP12ErrorHandler(%class.LookupIP6Route* nocapture %0, %class.ErrorHandler* nocapture readnone %1) unnamed_addr #4 align 2 !dbg !3046 {
  call void @llvm.dbg.value(metadata %class.LookupIP6Route* %0, metadata !3048, metadata !DIExpression()), !dbg !3050
  call void @llvm.dbg.value(metadata %class.ErrorHandler* undef, metadata !3049, metadata !DIExpression()), !dbg !3050
  %3 = getelementptr inbounds %class.LookupIP6Route, %class.LookupIP6Route* %0, i64 0, i32 3, !dbg !3051
  %4 = bitcast %class.IP6Address* %3 to i8*, !dbg !3051
  call void @llvm.memset.p0i8.i64(i8* nonnull align 8 dereferenceable(16) %4, i8 0, i64 16, i1 false), !dbg !3051
  ret i32 0, !dbg !3052
}

; Function Attrs: sspstrong uwtable
define dso_local void @_ZN14LookupIP6Route4pushEiP6Packet(%class.LookupIP6Route* %0, i32 %1, %class.Packet* %2) unnamed_addr #0 align 2 personality i8* bitcast (i32 (...)* @__gxx_personality_v0 to i8*) !dbg !3053 {
  %4 = alloca %class.IP6Address, align 4
  %5 = alloca %class.IP6Address, align 4
  %6 = alloca i32, align 4
  %7 = alloca %class.IP6Address, align 4
  %8 = alloca %class.String, align 8
  %9 = alloca [4 x i32], align 4
  call void @llvm.dbg.value(metadata %class.LookupIP6Route* %0, metadata !3055, metadata !DIExpression()), !dbg !3061
  call void @llvm.dbg.value(metadata i32 undef, metadata !3056, metadata !DIExpression()), !dbg !3061
  call void @llvm.dbg.value(metadata %class.Packet* %2, metadata !3057, metadata !DIExpression()), !dbg !3061
  %10 = bitcast %class.IP6Address* %4 to i8*, !dbg !3062
  call void @llvm.lifetime.start.p0i8(i64 16, i8* nonnull %10) #12, !dbg !3062
  call void @llvm.dbg.declare(metadata %class.IP6Address* %4, metadata !3058, metadata !DIExpression()), !dbg !3063
  call void @llvm.dbg.value(metadata %class.Packet* %2, metadata !3064, metadata !DIExpression()), !dbg !3069
  call void @llvm.dbg.value(metadata %class.Packet* %2, metadata !3071, metadata !DIExpression()), !dbg !3074
  %11 = tail call %"union.Packet::Anno"* @_ZN6Packet5xannoEv(%class.Packet* %2), !dbg !3076
  %12 = bitcast %"union.Packet::Anno"* %11 to i8*, !dbg !3077
  call void @llvm.memcpy.p0i8.p0i8.i64(i8* nonnull align 4 dereferenceable(16) %10, i8* nonnull align 4 dereferenceable(16) %12, i64 16, i1 false), !dbg !3077, !tbaa.struct !2885
  %13 = bitcast %class.IP6Address* %5 to i8*, !dbg !3078
  call void @llvm.lifetime.start.p0i8(i64 16, i8* nonnull %13) #12, !dbg !3078
  call void @llvm.dbg.declare(metadata %class.IP6Address* %5, metadata !3059, metadata !DIExpression()), !dbg !3079
  call void @llvm.dbg.value(metadata %class.IP6Address* %5, metadata !2588, metadata !DIExpression()) #12, !dbg !3080
  call void @llvm.memset.p0i8.i64(i8* nonnull align 4 dereferenceable(16) %13, i8 0, i64 16, i1 false) #12, !dbg !3082
  %14 = bitcast i32* %6 to i8*, !dbg !3083
  call void @llvm.lifetime.start.p0i8(i64 4, i8* nonnull %14) #12, !dbg !3083
  call void @llvm.dbg.value(metadata i32 -1, metadata !3060, metadata !DIExpression()), !dbg !3061
  store i32 -1, i32* %6, align 4, !dbg !3084, !tbaa !2860
  call void @llvm.dbg.value(metadata %class.IP6Address* %4, metadata !3085, metadata !DIExpression()), !dbg !3090
  call void @llvm.dbg.value(metadata %class.IP6Address* %4, metadata !3093, metadata !DIExpression()), !dbg !3096
  %15 = getelementptr inbounds %class.IP6Address, %class.IP6Address* %4, i64 0, i32 0, i32 0, i32 0, i64 0, !dbg !3098
  call void @llvm.dbg.value(metadata i32* %15, metadata !3088, metadata !DIExpression()), !dbg !3090
  %16 = load i32, i32* %15, align 4, !dbg !3099, !tbaa !2860
  %17 = icmp eq i32 %16, 0, !dbg !3099
  br i1 %17, label %18, label %31, !dbg !3100

18:                                               ; preds = %3
  %19 = getelementptr inbounds %class.IP6Address, %class.IP6Address* %4, i64 0, i32 0, i32 0, i32 0, i64 1, !dbg !3101
  %20 = load i32, i32* %19, align 4, !dbg !3101, !tbaa !2860
  %21 = icmp eq i32 %20, 0, !dbg !3101
  br i1 %21, label %22, label %31, !dbg !3102

22:                                               ; preds = %18
  %23 = getelementptr inbounds %class.IP6Address, %class.IP6Address* %4, i64 0, i32 0, i32 0, i32 0, i64 2, !dbg !3103
  %24 = load i32, i32* %23, align 4, !dbg !3103, !tbaa !2860
  %25 = icmp eq i32 %24, 0, !dbg !3103
  br i1 %25, label %26, label %31, !dbg !3104

26:                                               ; preds = %22
  %27 = getelementptr inbounds %class.IP6Address, %class.IP6Address* %4, i64 0, i32 0, i32 0, i32 0, i64 3, !dbg !3105
  %28 = load i32, i32* %27, align 4, !dbg !3105, !tbaa !2860
  %29 = icmp eq i32 %28, 0, !dbg !3105
  %30 = select i1 %29, { i64, i64 } zeroinitializer, { i64, i64 } { i64 ptrtoint (i32 (%class.IP6Address*)* @_ZNK10IP6Address8hashcodeEv to i64), i64 0 }, !dbg !3104
  br label %31, !dbg !3104

31:                                               ; preds = %3, %18, %22, %26
  %32 = phi { i64, i64 } [ { i64 ptrtoint (i32 (%class.IP6Address*)* @_ZNK10IP6Address8hashcodeEv to i64), i64 0 }, %22 ], [ { i64 ptrtoint (i32 (%class.IP6Address*)* @_ZNK10IP6Address8hashcodeEv to i64), i64 0 }, %18 ], [ { i64 ptrtoint (i32 (%class.IP6Address*)* @_ZNK10IP6Address8hashcodeEv to i64), i64 0 }, %3 ], [ %30, %26 ]
  %33 = extractvalue { i64, i64 } %32, 0, !dbg !3106
  %34 = icmp eq i64 %33, 0, !dbg !3106
  br i1 %34, label %88, label %35, !dbg !3107

35:                                               ; preds = %31
  call void @llvm.dbg.value(metadata %class.IP6Address* %4, metadata !3108, metadata !DIExpression()), !dbg !3116
  call void @llvm.dbg.value(metadata %class.LookupIP6Route* %0, metadata !3113, metadata !DIExpression(DW_OP_plus_uconst, 128, DW_OP_stack_value)), !dbg !3116
  call void @llvm.dbg.value(metadata %class.IP6Address* %4, metadata !3093, metadata !DIExpression()), !dbg !3120
  call void @llvm.dbg.value(metadata i32* %15, metadata !3114, metadata !DIExpression()), !dbg !3116
  call void @llvm.dbg.value(metadata %class.LookupIP6Route* %0, metadata !3093, metadata !DIExpression(DW_OP_plus_uconst, 128, DW_OP_stack_value)), !dbg !3122
  %36 = getelementptr inbounds %class.LookupIP6Route, %class.LookupIP6Route* %0, i64 0, i32 3, i32 0, i32 0, i32 0, i64 0, !dbg !3124
  call void @llvm.dbg.value(metadata i32* %36, metadata !3115, metadata !DIExpression()), !dbg !3116
  %37 = load i32, i32* %36, align 4, !dbg !3125, !tbaa !2860
  %38 = icmp eq i32 %16, %37, !dbg !3126
  br i1 %38, label %39, label %88, !dbg !3127

39:                                               ; preds = %35
  %40 = getelementptr inbounds %class.IP6Address, %class.IP6Address* %4, i64 0, i32 0, i32 0, i32 0, i64 1, !dbg !3128
  %41 = load i32, i32* %40, align 4, !dbg !3128, !tbaa !2860
  %42 = getelementptr inbounds %class.LookupIP6Route, %class.LookupIP6Route* %0, i64 0, i32 3, i32 0, i32 0, i32 0, i64 1, !dbg !3129
  %43 = load i32, i32* %42, align 4, !dbg !3129, !tbaa !2860
  %44 = icmp eq i32 %41, %43, !dbg !3130
  br i1 %44, label %45, label %88, !dbg !3131

45:                                               ; preds = %39
  %46 = getelementptr inbounds %class.IP6Address, %class.IP6Address* %4, i64 0, i32 0, i32 0, i32 0, i64 2, !dbg !3132
  %47 = load i32, i32* %46, align 4, !dbg !3132, !tbaa !2860
  %48 = getelementptr inbounds %class.LookupIP6Route, %class.LookupIP6Route* %0, i64 0, i32 3, i32 0, i32 0, i32 0, i64 2, !dbg !3133
  %49 = load i32, i32* %48, align 4, !dbg !3133, !tbaa !2860
  %50 = icmp eq i32 %47, %49, !dbg !3134
  br i1 %50, label %51, label %88, !dbg !3135

51:                                               ; preds = %45
  %52 = getelementptr inbounds %class.IP6Address, %class.IP6Address* %4, i64 0, i32 0, i32 0, i32 0, i64 3, !dbg !3136
  %53 = load i32, i32* %52, align 4, !dbg !3136, !tbaa !2860
  %54 = getelementptr inbounds %class.LookupIP6Route, %class.LookupIP6Route* %0, i64 0, i32 3, i32 0, i32 0, i32 0, i64 3, !dbg !3137
  %55 = load i32, i32* %54, align 4, !dbg !3137, !tbaa !2860
  %56 = icmp eq i32 %53, %55, !dbg !3138
  br i1 %56, label %57, label %88, !dbg !3139

57:                                               ; preds = %51
  %58 = getelementptr inbounds %class.LookupIP6Route, %class.LookupIP6Route* %0, i64 0, i32 4, !dbg !3140
  call void @llvm.dbg.value(metadata %class.IP6Address* %58, metadata !3085, metadata !DIExpression()), !dbg !3143
  call void @llvm.dbg.value(metadata %class.IP6Address* %58, metadata !3093, metadata !DIExpression()), !dbg !3145
  %59 = getelementptr %class.IP6Address, %class.IP6Address* %58, i64 0, i32 0, i32 0, i32 0, i64 0, !dbg !3147
  call void @llvm.dbg.value(metadata i32* %59, metadata !3088, metadata !DIExpression()), !dbg !3143
  %60 = load i32, i32* %59, align 4, !dbg !3148, !tbaa !2860
  %61 = icmp eq i32 %60, 0, !dbg !3148
  br i1 %61, label %62, label %75, !dbg !3149

62:                                               ; preds = %57
  %63 = getelementptr inbounds %class.LookupIP6Route, %class.LookupIP6Route* %0, i64 0, i32 4, i32 0, i32 0, i32 0, i64 1, !dbg !3150
  %64 = load i32, i32* %63, align 4, !dbg !3150, !tbaa !2860
  %65 = icmp eq i32 %64, 0, !dbg !3150
  br i1 %65, label %66, label %75, !dbg !3151

66:                                               ; preds = %62
  %67 = getelementptr inbounds %class.LookupIP6Route, %class.LookupIP6Route* %0, i64 0, i32 4, i32 0, i32 0, i32 0, i64 2, !dbg !3152
  %68 = load i32, i32* %67, align 4, !dbg !3152, !tbaa !2860
  %69 = icmp eq i32 %68, 0, !dbg !3152
  br i1 %69, label %70, label %75, !dbg !3153

70:                                               ; preds = %66
  %71 = getelementptr inbounds %class.LookupIP6Route, %class.LookupIP6Route* %0, i64 0, i32 4, i32 0, i32 0, i32 0, i64 3, !dbg !3154
  %72 = load i32, i32* %71, align 4, !dbg !3154, !tbaa !2860
  %73 = icmp eq i32 %72, 0, !dbg !3154
  %74 = select i1 %73, { i64, i64 } zeroinitializer, { i64, i64 } { i64 ptrtoint (i32 (%class.IP6Address*)* @_ZNK10IP6Address8hashcodeEv to i64), i64 0 }, !dbg !3153
  br label %75, !dbg !3153

75:                                               ; preds = %57, %62, %66, %70
  %76 = phi { i64, i64 } [ { i64 ptrtoint (i32 (%class.IP6Address*)* @_ZNK10IP6Address8hashcodeEv to i64), i64 0 }, %66 ], [ { i64 ptrtoint (i32 (%class.IP6Address*)* @_ZNK10IP6Address8hashcodeEv to i64), i64 0 }, %62 ], [ { i64 ptrtoint (i32 (%class.IP6Address*)* @_ZNK10IP6Address8hashcodeEv to i64), i64 0 }, %57 ], [ %74, %70 ]
  %77 = extractvalue { i64, i64 } %76, 0, !dbg !3140
  %78 = icmp eq i64 %77, 0, !dbg !3140
  br i1 %78, label %83, label %79, !dbg !3155

79:                                               ; preds = %75
  call void @llvm.dbg.value(metadata %class.Packet* %2, metadata !3156, metadata !DIExpression()), !dbg !3162
  call void @llvm.dbg.value(metadata %class.IP6Address* %58, metadata !3161, metadata !DIExpression()), !dbg !3162
  call void @llvm.dbg.value(metadata %class.Packet* %2, metadata !3071, metadata !DIExpression()), !dbg !3165
  %80 = tail call %"union.Packet::Anno"* @_ZN6Packet5xannoEv(%class.Packet* %2), !dbg !3167
  %81 = bitcast %"union.Packet::Anno"* %80 to i8*, !dbg !3167
  call void @llvm.dbg.value(metadata %class.IP6Address* %58, metadata !3168, metadata !DIExpression()), !dbg !3171
  %82 = bitcast %class.IP6Address* %58 to i8*, !dbg !3173
  tail call void @llvm.memcpy.p0i8.p0i8.i64(i8* nonnull align 1 dereferenceable(16) %81, i8* nonnull align 1 dereferenceable(16) %82, i64 16, i1 false), !dbg !3174
  br label %83, !dbg !3175

83:                                               ; preds = %75, %79
  %84 = bitcast %class.LookupIP6Route* %0 to %class.Element*, !dbg !3176
  %85 = getelementptr inbounds %class.LookupIP6Route, %class.LookupIP6Route* %0, i64 0, i32 5, !dbg !3177
  %86 = load i32, i32* %85, align 8, !dbg !3177, !tbaa !3178
  %87 = tail call dereferenceable(16) %"class.Element::Port"* @_ZNK7Element6outputEi(%class.Element* %84, i32 %86), !dbg !3176
  tail call void @_ZNK7Element4Port4pushEP6Packet(%"class.Element::Port"* nonnull %87, %class.Packet* %2), !dbg !3184
  br label %174, !dbg !3185

88:                                               ; preds = %35, %39, %45, %31, %51
  %89 = getelementptr inbounds %class.LookupIP6Route, %class.LookupIP6Route* %0, i64 0, i32 2, !dbg !3186
  call void @llvm.dbg.value(metadata i32* %6, metadata !3060, metadata !DIExpression(DW_OP_deref)), !dbg !3061
  %90 = call zeroext i1 @_ZNK8IP6Table6lookupERK10IP6AddressRS0_Ri(%class.IP6Table* nonnull %89, %class.IP6Address* nonnull dereferenceable(16) %4, %class.IP6Address* nonnull dereferenceable(16) %5, i32* nonnull dereferenceable(4) %6), !dbg !3188
  br i1 %90, label %91, label %173, !dbg !3189

91:                                               ; preds = %88
  %92 = getelementptr inbounds %class.LookupIP6Route, %class.LookupIP6Route* %0, i64 0, i32 3, !dbg !3190
  %93 = bitcast %class.IP6Address* %92 to i8*, !dbg !3192
  call void @llvm.memcpy.p0i8.p0i8.i64(i8* nonnull align 8 dereferenceable(16) %93, i8* nonnull align 4 dereferenceable(16) %10, i64 16, i1 false), !dbg !3192, !tbaa.struct !2885
  %94 = getelementptr inbounds %class.LookupIP6Route, %class.LookupIP6Route* %0, i64 0, i32 4, !dbg !3193
  %95 = bitcast %class.IP6Address* %94 to i8*, !dbg !3194
  call void @llvm.memcpy.p0i8.p0i8.i64(i8* nonnull align 8 dereferenceable(16) %95, i8* nonnull align 4 dereferenceable(16) %13, i64 16, i1 false), !dbg !3194, !tbaa.struct !2885
  %96 = load i32, i32* %6, align 4, !dbg !3195, !tbaa !2860
  call void @llvm.dbg.value(metadata i32 %96, metadata !3060, metadata !DIExpression()), !dbg !3061
  %97 = getelementptr inbounds %class.LookupIP6Route, %class.LookupIP6Route* %0, i64 0, i32 5, !dbg !3196
  store i32 %96, i32* %97, align 8, !dbg !3197, !tbaa !3178
  %98 = bitcast %class.IP6Address* %7 to i8*, !dbg !3198
  call void @llvm.lifetime.start.p0i8(i64 16, i8* nonnull %98) #12, !dbg !3198
  %99 = bitcast %class.String* %8 to i8*, !dbg !3200
  call void @llvm.lifetime.start.p0i8(i64 24, i8* nonnull %99) #12, !dbg !3200
  call void @llvm.dbg.value(metadata %class.String* %8, metadata !2716, metadata !DIExpression()), !dbg !3201
  call void @llvm.dbg.value(metadata i8* getelementptr inbounds ([4 x i8], [4 x i8]* @.str, i64 0, i64 0), metadata !2717, metadata !DIExpression()), !dbg !3201
  call void @llvm.dbg.value(metadata %class.String* %8, metadata !2707, metadata !DIExpression()), !dbg !3203
  call void @llvm.dbg.value(metadata i8* getelementptr inbounds ([4 x i8], [4 x i8]* @.str, i64 0, i64 0), metadata !2708, metadata !DIExpression()), !dbg !3203
  call void @llvm.dbg.value(metadata i32 3, metadata !2709, metadata !DIExpression()), !dbg !3203
  call void @llvm.dbg.value(metadata %"struct.String::memo_t"* null, metadata !2710, metadata !DIExpression()), !dbg !3203
  %100 = getelementptr inbounds %class.String, %class.String* %8, i64 0, i32 0, i32 0, !dbg !3205
  store i8* getelementptr inbounds ([4 x i8], [4 x i8]* @.str, i64 0, i64 0), i8** %100, align 8, !dbg !3206, !tbaa !2806
  %101 = getelementptr inbounds %class.String, %class.String* %8, i64 0, i32 0, i32 1, !dbg !3207
  store i32 3, i32* %101, align 8, !dbg !3208, !tbaa !2815
  %102 = getelementptr inbounds %class.String, %class.String* %8, i64 0, i32 0, i32 2, !dbg !3209
  store %"struct.String::memo_t"* null, %"struct.String::memo_t"** %102, align 8, !dbg !3210, !tbaa !2883
  invoke void @_ZN10IP6AddressC1ERK6String(%class.IP6Address* nonnull %7, %class.String* nonnull dereferenceable(24) %8)
          to label %103 unwind label %150, !dbg !3198

103:                                              ; preds = %91
  call void @llvm.dbg.value(metadata %class.IP6Address* %5, metadata !3211, metadata !DIExpression()), !dbg !3217
  call void @llvm.dbg.value(metadata %class.IP6Address* %7, metadata !3214, metadata !DIExpression()), !dbg !3217
  call void @llvm.dbg.value(metadata %class.IP6Address* %5, metadata !3093, metadata !DIExpression()), !dbg !3219
  %104 = getelementptr inbounds %class.IP6Address, %class.IP6Address* %5, i64 0, i32 0, i32 0, i32 0, i64 0, !dbg !3221
  call void @llvm.dbg.value(metadata i32* %104, metadata !3215, metadata !DIExpression()), !dbg !3217
  call void @llvm.dbg.value(metadata %class.IP6Address* %7, metadata !3093, metadata !DIExpression()), !dbg !3222
  %105 = getelementptr inbounds %class.IP6Address, %class.IP6Address* %7, i64 0, i32 0, i32 0, i32 0, i64 0, !dbg !3224
  call void @llvm.dbg.value(metadata i32* %105, metadata !3216, metadata !DIExpression()), !dbg !3217
  %106 = load i32, i32* %104, align 4, !dbg !3225, !tbaa !2860
  %107 = load i32, i32* %105, align 4, !dbg !3226, !tbaa !2860
  %108 = icmp eq i32 %106, %107, !dbg !3227
  br i1 %108, label %109, label %127, !dbg !3228

109:                                              ; preds = %103
  %110 = getelementptr inbounds %class.IP6Address, %class.IP6Address* %5, i64 0, i32 0, i32 0, i32 0, i64 1, !dbg !3229
  %111 = load i32, i32* %110, align 4, !dbg !3229, !tbaa !2860
  %112 = getelementptr inbounds %class.IP6Address, %class.IP6Address* %7, i64 0, i32 0, i32 0, i32 0, i64 1, !dbg !3230
  %113 = load i32, i32* %112, align 4, !dbg !3230, !tbaa !2860
  %114 = icmp eq i32 %111, %113, !dbg !3231
  br i1 %114, label %115, label %127, !dbg !3232

115:                                              ; preds = %109
  %116 = getelementptr inbounds %class.IP6Address, %class.IP6Address* %5, i64 0, i32 0, i32 0, i32 0, i64 2, !dbg !3233
  %117 = load i32, i32* %116, align 4, !dbg !3233, !tbaa !2860
  %118 = getelementptr inbounds %class.IP6Address, %class.IP6Address* %7, i64 0, i32 0, i32 0, i32 0, i64 2, !dbg !3234
  %119 = load i32, i32* %118, align 4, !dbg !3234, !tbaa !2860
  %120 = icmp eq i32 %117, %119, !dbg !3235
  br i1 %120, label %121, label %127, !dbg !3236

121:                                              ; preds = %115
  %122 = getelementptr inbounds %class.IP6Address, %class.IP6Address* %5, i64 0, i32 0, i32 0, i32 0, i64 3, !dbg !3237
  %123 = load i32, i32* %122, align 4, !dbg !3237, !tbaa !2860
  %124 = getelementptr inbounds %class.IP6Address, %class.IP6Address* %7, i64 0, i32 0, i32 0, i32 0, i64 3, !dbg !3238
  %125 = load i32, i32* %124, align 4, !dbg !3238, !tbaa !2860
  %126 = icmp ne i32 %123, %125, !dbg !3239
  br label %127, !dbg !3236

127:                                              ; preds = %103, %109, %115, %121
  %128 = phi i1 [ true, %115 ], [ true, %109 ], [ true, %103 ], [ %126, %121 ]
  call void @llvm.dbg.value(metadata %class.String* %8, metadata !2887, metadata !DIExpression()) #12, !dbg !3240
  call void @llvm.dbg.value(metadata %class.String* %8, metadata !2892, metadata !DIExpression()) #12, !dbg !3242
  %129 = load %"struct.String::memo_t"*, %"struct.String::memo_t"** %102, align 8, !dbg !3244, !tbaa !2883
  %130 = icmp eq %"struct.String::memo_t"* %129, null, !dbg !3245
  br i1 %130, label %145, label %131, !dbg !3246

131:                                              ; preds = %127
  %132 = getelementptr inbounds %"struct.String::memo_t", %"struct.String::memo_t"* %129, i64 0, i32 0, !dbg !3247
  %133 = load volatile i32, i32* %132, align 4, !dbg !3247, !tbaa !2904
  %134 = icmp eq i32 %133, 0, !dbg !3247
  br i1 %134, label %135, label %136, !dbg !3247

135:                                              ; preds = %131
  call void @__assert_fail(i8* getelementptr inbounds ([18 x i8], [18 x i8]* @.str.9, i64 0, i64 0), i8* getelementptr inbounds ([29 x i8], [29 x i8]* @.str.10, i64 0, i64 0), i32 273, i8* getelementptr inbounds ([27 x i8], [27 x i8]* @__PRETTY_FUNCTION__._ZNK6String5derefEv, i64 0, i64 0)) #14, !dbg !3247
  unreachable, !dbg !3247

136:                                              ; preds = %131
  call void @llvm.dbg.value(metadata i32* %132, metadata !2906, metadata !DIExpression()) #12, !dbg !3248
  %137 = load volatile i32, i32* %132, align 4, !dbg !3250, !tbaa !2860
  %138 = add i32 %137, -1, !dbg !3250
  store volatile i32 %138, i32* %132, align 4, !dbg !3250, !tbaa !2860
  %139 = icmp eq i32 %138, 0, !dbg !3251
  br i1 %139, label %140, label %141, !dbg !3252

140:                                              ; preds = %136
  invoke void @_ZN6String11delete_memoEPNS_6memo_tE(%"struct.String::memo_t"* nonnull %129)
          to label %141 unwind label %142, !dbg !3253

141:                                              ; preds = %140, %136
  store %"struct.String::memo_t"* null, %"struct.String::memo_t"** %102, align 8, !dbg !3254, !tbaa !2883
  br label %145, !dbg !3255

142:                                              ; preds = %140
  %143 = landingpad { i8*, i32 }
          catch i8* null, !dbg !3256
  %144 = extractvalue { i8*, i32 } %143, 0, !dbg !3256
  call void @__clang_call_terminate(i8* %144) #14, !dbg !3256
  unreachable, !dbg !3256

145:                                              ; preds = %127, %141
  call void @llvm.lifetime.end.p0i8(i64 24, i8* nonnull %99) #12, !dbg !3257
  call void @llvm.lifetime.end.p0i8(i64 16, i8* nonnull %98) #12, !dbg !3257
  br i1 %128, label %146, label %169, !dbg !3258

146:                                              ; preds = %145
  %147 = bitcast [4 x i32]* %9 to i8*, !dbg !3259
  call void @llvm.lifetime.start.p0i8(i64 16, i8* nonnull %147), !dbg !3259
  call void @llvm.memcpy.p0i8.p0i8.i64(i8* nonnull align 4 dereferenceable(16) %147, i8* nonnull align 4 dereferenceable(16) %13, i64 16, i1 false), !dbg !3259, !tbaa.struct !2885
  call void @llvm.dbg.value(metadata %class.Packet* %2, metadata !3156, metadata !DIExpression()), !dbg !3261
  call void @llvm.dbg.value(metadata %class.IP6Address* undef, metadata !3161, metadata !DIExpression()), !dbg !3261
  call void @llvm.dbg.value(metadata %class.Packet* %2, metadata !3071, metadata !DIExpression()), !dbg !3263
  %148 = call %"union.Packet::Anno"* @_ZN6Packet5xannoEv(%class.Packet* %2), !dbg !3265
  call void @llvm.dbg.value(metadata %class.IP6Address* undef, metadata !3168, metadata !DIExpression()), !dbg !3266
  %149 = bitcast %"union.Packet::Anno"* %148 to i8*, !dbg !3268
  call void @llvm.memcpy.p0i8.p0i8.i64(i8* nonnull align 1 dereferenceable(16) %149, i8* nonnull align 4 dereferenceable(16) %147, i64 16, i1 false), !dbg !3268
  call void @llvm.lifetime.end.p0i8(i64 16, i8* nonnull %147), !dbg !3269
  br label %169, !dbg !3270

150:                                              ; preds = %91
  %151 = landingpad { i8*, i32 }
          cleanup, !dbg !3271
  call void @llvm.dbg.value(metadata %class.String* %8, metadata !2887, metadata !DIExpression()) #12, !dbg !3272
  call void @llvm.dbg.value(metadata %class.String* %8, metadata !2892, metadata !DIExpression()) #12, !dbg !3274
  %152 = load %"struct.String::memo_t"*, %"struct.String::memo_t"** %102, align 8, !dbg !3276, !tbaa !2883
  %153 = icmp eq %"struct.String::memo_t"* %152, null, !dbg !3277
  br i1 %153, label %168, label %154, !dbg !3278

154:                                              ; preds = %150
  %155 = getelementptr inbounds %"struct.String::memo_t", %"struct.String::memo_t"* %152, i64 0, i32 0, !dbg !3279
  %156 = load volatile i32, i32* %155, align 4, !dbg !3279, !tbaa !2904
  %157 = icmp eq i32 %156, 0, !dbg !3279
  br i1 %157, label %158, label %159, !dbg !3279

158:                                              ; preds = %154
  call void @__assert_fail(i8* getelementptr inbounds ([18 x i8], [18 x i8]* @.str.9, i64 0, i64 0), i8* getelementptr inbounds ([29 x i8], [29 x i8]* @.str.10, i64 0, i64 0), i32 273, i8* getelementptr inbounds ([27 x i8], [27 x i8]* @__PRETTY_FUNCTION__._ZNK6String5derefEv, i64 0, i64 0)) #14, !dbg !3279
  unreachable, !dbg !3279

159:                                              ; preds = %154
  call void @llvm.dbg.value(metadata i32* %155, metadata !2906, metadata !DIExpression()) #12, !dbg !3280
  %160 = load volatile i32, i32* %155, align 4, !dbg !3282, !tbaa !2860
  %161 = add i32 %160, -1, !dbg !3282
  store volatile i32 %161, i32* %155, align 4, !dbg !3282, !tbaa !2860
  %162 = icmp eq i32 %161, 0, !dbg !3283
  br i1 %162, label %163, label %164, !dbg !3284

163:                                              ; preds = %159
  invoke void @_ZN6String11delete_memoEPNS_6memo_tE(%"struct.String::memo_t"* nonnull %152)
          to label %164 unwind label %165, !dbg !3285

164:                                              ; preds = %163, %159
  store %"struct.String::memo_t"* null, %"struct.String::memo_t"** %102, align 8, !dbg !3286, !tbaa !2883
  br label %168, !dbg !3287

165:                                              ; preds = %163
  %166 = landingpad { i8*, i32 }
          catch i8* null, !dbg !3288
  %167 = extractvalue { i8*, i32 } %166, 0, !dbg !3288
  call void @__clang_call_terminate(i8* %167) #14, !dbg !3288
  unreachable, !dbg !3288

168:                                              ; preds = %150, %164
  call void @llvm.lifetime.end.p0i8(i64 24, i8* nonnull %99) #12, !dbg !3257
  call void @llvm.lifetime.end.p0i8(i64 16, i8* nonnull %98) #12, !dbg !3257
  call void @llvm.lifetime.end.p0i8(i64 4, i8* nonnull %14) #12, !dbg !3289
  call void @llvm.lifetime.end.p0i8(i64 16, i8* nonnull %13) #12, !dbg !3289
  call void @llvm.lifetime.end.p0i8(i64 16, i8* nonnull %10) #12, !dbg !3289
  resume { i8*, i32 } %151, !dbg !3289

169:                                              ; preds = %146, %145
  %170 = bitcast %class.LookupIP6Route* %0 to %class.Element*, !dbg !3290
  %171 = load i32, i32* %6, align 4, !dbg !3291, !tbaa !2860
  call void @llvm.dbg.value(metadata i32 %171, metadata !3060, metadata !DIExpression()), !dbg !3061
  %172 = call dereferenceable(16) %"class.Element::Port"* @_ZNK7Element6outputEi(%class.Element* %170, i32 %171), !dbg !3290
  call void @_ZNK7Element4Port4pushEP6Packet(%"class.Element::Port"* nonnull %172, %class.Packet* %2), !dbg !3292
  br label %174, !dbg !3293

173:                                              ; preds = %88
  call void @_ZN6Packet4killEv(%class.Packet* %2), !dbg !3294
  br label %174

174:                                              ; preds = %169, %173, %83
  call void @llvm.lifetime.end.p0i8(i64 4, i8* nonnull %14) #12, !dbg !3289
  call void @llvm.lifetime.end.p0i8(i64 16, i8* nonnull %13) #12, !dbg !3289
  call void @llvm.lifetime.end.p0i8(i64 16, i8* nonnull %10) #12, !dbg !3289
  ret void, !dbg !3289
}

; Function Attrs: noinline optnone sspstrong uwtable
define linkonce_odr dso_local dereferenceable(16) %"class.Element::Port"* @_ZNK7Element6outputEi(%class.Element* %0, i32 %1) local_unnamed_addr #7 comdat align 2 !dbg !3296 {
  %3 = alloca %class.Element*, align 8
  %4 = alloca i32, align 4
  store %class.Element* %0, %class.Element** %3, align 8, !tbaa !3336
  call void @llvm.dbg.declare(metadata %class.Element** %3, metadata !3334, metadata !DIExpression()), !dbg !3337
  store i32 %1, i32* %4, align 4, !tbaa !2860
  call void @llvm.dbg.declare(metadata i32* %4, metadata !3335, metadata !DIExpression()), !dbg !3338
  %5 = load %class.Element*, %class.Element** %3, align 8
  %6 = load i32, i32* %4, align 4, !dbg !3339, !tbaa !2860
  %7 = call dereferenceable(16) %"class.Element::Port"* @_ZNK7Element4portEbi(%class.Element* %5, i1 zeroext true, i32 %6), !dbg !3340
  ret %"class.Element::Port"* %7, !dbg !3341
}

; Function Attrs: noinline optnone sspstrong uwtable
define linkonce_odr dso_local void @_ZNK7Element4Port4pushEP6Packet(%"class.Element::Port"* %0, %class.Packet* %1) local_unnamed_addr #7 comdat align 2 !dbg !3342 {
  %3 = alloca %"class.Element::Port"*, align 8
  %4 = alloca %class.Packet*, align 8
  store %"class.Element::Port"* %0, %"class.Element::Port"** %3, align 8, !tbaa !3336
  call void @llvm.dbg.declare(metadata %"class.Element::Port"** %3, metadata !3344, metadata !DIExpression()), !dbg !3347
  store %class.Packet* %1, %class.Packet** %4, align 8, !tbaa !3336
  call void @llvm.dbg.declare(metadata %class.Packet** %4, metadata !3346, metadata !DIExpression()), !dbg !3348
  %5 = load %"class.Element::Port"*, %"class.Element::Port"** %3, align 8
  %6 = getelementptr inbounds %"class.Element::Port", %"class.Element::Port"* %5, i32 0, i32 0, !dbg !3349
  %7 = load %class.Element*, %class.Element** %6, align 8, !dbg !3349, !tbaa !3350
  %8 = icmp ne %class.Element* %7, null, !dbg !3349
  br i1 %8, label %9, label %12, !dbg !3349

9:                                                ; preds = %2
  %10 = load %class.Packet*, %class.Packet** %4, align 8, !dbg !3349, !tbaa !3336
  %11 = icmp ne %class.Packet* %10, null, !dbg !3349
  br label %12

12:                                               ; preds = %9, %2
  %13 = phi i1 [ false, %2 ], [ %11, %9 ], !dbg !3347
  br i1 %13, label %14, label %15, !dbg !3349

14:                                               ; preds = %12
  br label %16, !dbg !3349

15:                                               ; preds = %12
  call void @__assert_fail(i8* getelementptr inbounds ([8 x i8], [8 x i8]* @.str.13, i64 0, i64 0), i8* getelementptr inbounds ([30 x i8], [30 x i8]* @.str.12, i64 0, i64 0), i32 611, i8* getelementptr inbounds ([41 x i8], [41 x i8]* @__PRETTY_FUNCTION__._ZNK7Element4Port4pushEP6Packet, i64 0, i64 0)) #14, !dbg !3349
  unreachable, !dbg !3349

16:                                               ; preds = %14
  %17 = getelementptr inbounds %"class.Element::Port", %"class.Element::Port"* %5, i32 0, i32 0, !dbg !3352
  %18 = load %class.Element*, %class.Element** %17, align 8, !dbg !3352, !tbaa !3350
  %19 = getelementptr inbounds %"class.Element::Port", %"class.Element::Port"* %5, i32 0, i32 1, !dbg !3353
  %20 = load i32, i32* %19, align 8, !dbg !3353, !tbaa !3354
  %21 = load %class.Packet*, %class.Packet** %4, align 8, !dbg !3355, !tbaa !3336
  %22 = bitcast %class.Element* %18 to void (%class.Element*, i32, %class.Packet*)***, !dbg !3356
  %23 = load void (%class.Element*, i32, %class.Packet*)**, void (%class.Element*, i32, %class.Packet*)*** %22, align 8, !dbg !3356, !tbaa !2584
  %24 = getelementptr inbounds void (%class.Element*, i32, %class.Packet*)*, void (%class.Element*, i32, %class.Packet*)** %23, i64 2, !dbg !3356
  %25 = load void (%class.Element*, i32, %class.Packet*)*, void (%class.Element*, i32, %class.Packet*)** %24, align 8, !dbg !3356
  call void %25(%class.Element* %18, i32 %20, %class.Packet* %21), !dbg !3356
  ret void, !dbg !3357
}

declare zeroext i1 @_ZNK8IP6Table6lookupERK10IP6AddressRS0_Ri(%class.IP6Table*, %class.IP6Address* dereferenceable(16), %class.IP6Address* dereferenceable(16), i32* dereferenceable(4)) local_unnamed_addr #2

declare void @_ZN6Packet4killEv(%class.Packet*) local_unnamed_addr #2

; Function Attrs: sspstrong uwtable
define dso_local i32 @_ZN14LookupIP6Route9add_routeE10IP6AddressS0_S0_iP12ErrorHandler(%class.LookupIP6Route* %0, i64 %1, i64 %2, i64 %3, i64 %4, %class.IP6Address* byval(%class.IP6Address) align 8 %5, i32 %6, %class.ErrorHandler* %7) unnamed_addr #0 align 2 !dbg !3358 {
  %9 = alloca { i64, i64 }, align 8
  %10 = bitcast { i64, i64 }* %9 to %class.IP6Address*
  %11 = alloca { i64, i64 }, align 8
  %12 = bitcast { i64, i64 }* %11 to %class.IP6Address*
  %13 = getelementptr inbounds { i64, i64 }, { i64, i64 }* %9, i64 0, i32 0
  store i64 %1, i64* %13, align 8
  %14 = getelementptr inbounds { i64, i64 }, { i64, i64 }* %9, i64 0, i32 1
  store i64 %2, i64* %14, align 8
  %15 = getelementptr inbounds { i64, i64 }, { i64, i64 }* %11, i64 0, i32 0
  store i64 %3, i64* %15, align 8
  %16 = getelementptr inbounds { i64, i64 }, { i64, i64 }* %11, i64 0, i32 1
  store i64 %4, i64* %16, align 8
  call void @llvm.dbg.value(metadata %class.LookupIP6Route* %0, metadata !3360, metadata !DIExpression()), !dbg !3366
  call void @llvm.dbg.declare(metadata %class.IP6Address* %10, metadata !3361, metadata !DIExpression()), !dbg !3367
  call void @llvm.dbg.declare(metadata %class.IP6Address* %12, metadata !3362, metadata !DIExpression()), !dbg !3368
  call void @llvm.dbg.declare(metadata %class.IP6Address* %5, metadata !3363, metadata !DIExpression()), !dbg !3369
  call void @llvm.dbg.value(metadata i32 %6, metadata !3364, metadata !DIExpression()), !dbg !3366
  call void @llvm.dbg.value(metadata %class.ErrorHandler* %7, metadata !3365, metadata !DIExpression()), !dbg !3366
  %17 = icmp slt i32 %6, 0, !dbg !3370
  br i1 %17, label %18, label %24, !dbg !3372

18:                                               ; preds = %8
  call void @llvm.dbg.value(metadata %class.LookupIP6Route* %0, metadata !3030, metadata !DIExpression()), !dbg !3373
  %19 = getelementptr inbounds %class.LookupIP6Route, %class.LookupIP6Route* %0, i64 0, i32 0, i32 0, i32 3, i64 1, !dbg !3375
  %20 = load i32, i32* %19, align 4, !dbg !3375, !tbaa !2860
  %21 = icmp sgt i32 %20, %6, !dbg !3376
  br i1 %21, label %24, label %22, !dbg !3377

22:                                               ; preds = %18
  %23 = tail call i32 (%class.ErrorHandler*, i8*, ...) @_ZN12ErrorHandler5errorEPKcz(%class.ErrorHandler* %7, i8* getelementptr inbounds ([25 x i8], [25 x i8]* @.str.4, i64 0, i64 0)), !dbg !3378
  br label %26, !dbg !3379

24:                                               ; preds = %18, %8
  %25 = getelementptr inbounds %class.LookupIP6Route, %class.LookupIP6Route* %0, i64 0, i32 2, !dbg !3380
  call void @_ZN8IP6Table3addERK10IP6AddressS2_S2_i(%class.IP6Table* nonnull %25, %class.IP6Address* nonnull dereferenceable(16) %10, %class.IP6Address* nonnull dereferenceable(16) %12, %class.IP6Address* nonnull dereferenceable(16) %5, i32 %6), !dbg !3381
  br label %26, !dbg !3382

26:                                               ; preds = %24, %22
  %27 = phi i32 [ %23, %22 ], [ 0, %24 ], !dbg !3366
  ret i32 %27, !dbg !3383
}

; Function Attrs: sspstrong uwtable
define dso_local i32 @_ZN14LookupIP6Route12remove_routeE10IP6AddressS0_P12ErrorHandler(%class.LookupIP6Route* %0, i64 %1, i64 %2, i64 %3, i64 %4, %class.ErrorHandler* nocapture readnone %5) unnamed_addr #0 align 2 !dbg !3384 {
  %7 = alloca { i64, i64 }, align 8
  %8 = bitcast { i64, i64 }* %7 to %class.IP6Address*
  %9 = alloca { i64, i64 }, align 8
  %10 = bitcast { i64, i64 }* %9 to %class.IP6Address*
  %11 = getelementptr inbounds { i64, i64 }, { i64, i64 }* %7, i64 0, i32 0
  store i64 %1, i64* %11, align 8
  %12 = getelementptr inbounds { i64, i64 }, { i64, i64 }* %7, i64 0, i32 1
  store i64 %2, i64* %12, align 8
  %13 = getelementptr inbounds { i64, i64 }, { i64, i64 }* %9, i64 0, i32 0
  store i64 %3, i64* %13, align 8
  %14 = getelementptr inbounds { i64, i64 }, { i64, i64 }* %9, i64 0, i32 1
  store i64 %4, i64* %14, align 8
  call void @llvm.dbg.value(metadata %class.LookupIP6Route* %0, metadata !3386, metadata !DIExpression()), !dbg !3390
  call void @llvm.dbg.declare(metadata %class.IP6Address* %8, metadata !3387, metadata !DIExpression()), !dbg !3391
  call void @llvm.dbg.declare(metadata %class.IP6Address* %10, metadata !3388, metadata !DIExpression()), !dbg !3392
  call void @llvm.dbg.value(metadata %class.ErrorHandler* undef, metadata !3389, metadata !DIExpression()), !dbg !3390
  %15 = getelementptr inbounds %class.LookupIP6Route, %class.LookupIP6Route* %0, i64 0, i32 2, !dbg !3393
  call void @_ZN8IP6Table3delERK10IP6AddressS2_(%class.IP6Table* nonnull %15, %class.IP6Address* nonnull dereferenceable(16) %8, %class.IP6Address* nonnull dereferenceable(16) %10), !dbg !3394
  ret i32 0, !dbg !3395
}

declare void @_ZN8IP6Table3delERK10IP6AddressS2_(%class.IP6Table*, %class.IP6Address* dereferenceable(16), %class.IP6Address* dereferenceable(16)) local_unnamed_addr #2

; Function Attrs: sspstrong uwtable
define dso_local void @_ZN14LookupIP6Route12add_handlersEv(%class.LookupIP6Route* %0) unnamed_addr #0 align 2 !dbg !3396 {
  call void @llvm.dbg.value(metadata %class.LookupIP6Route* %0, metadata !3398, metadata !DIExpression()), !dbg !3399
  %2 = bitcast %class.LookupIP6Route* %0 to %class.Element*, !dbg !3400
  tail call void @_ZN7Element17add_write_handlerEPKcPFiRK6StringPS_PvP12ErrorHandlerEij(%class.Element* %2, i8* getelementptr inbounds ([4 x i8], [4 x i8]* @.str.5, i64 0, i64 0), i32 (%class.String*, %class.Element*, i8*, %class.ErrorHandler*)* nonnull @_ZN13IP6RouteTable17add_route_handlerERK6StringP7ElementPvP12ErrorHandler, i32 0, i32 0), !dbg !3400
  tail call void @_ZN7Element17add_write_handlerEPKcPFiRK6StringPS_PvP12ErrorHandlerEij(%class.Element* %2, i8* getelementptr inbounds ([7 x i8], [7 x i8]* @.str.6, i64 0, i64 0), i32 (%class.String*, %class.Element*, i8*, %class.ErrorHandler*)* nonnull @_ZN13IP6RouteTable20remove_route_handlerERK6StringP7ElementPvP12ErrorHandler, i32 0, i32 0), !dbg !3401
  tail call void @_ZN7Element17add_write_handlerEPKcPFiRK6StringPS_PvP12ErrorHandlerEij(%class.Element* %2, i8* getelementptr inbounds ([5 x i8], [5 x i8]* @.str.7, i64 0, i64 0), i32 (%class.String*, %class.Element*, i8*, %class.ErrorHandler*)* nonnull @_ZN13IP6RouteTable12ctrl_handlerERK6StringP7ElementPvP12ErrorHandler, i32 0, i32 0), !dbg !3402
  tail call void @_ZN7Element16add_read_handlerEPKcPF6StringPS_PvEij(%class.Element* %2, i8* getelementptr inbounds ([6 x i8], [6 x i8]* @.str.8, i64 0, i64 0), void (%class.String*, %class.Element*, i8*)* nonnull @_ZN13IP6RouteTable13table_handlerEP7ElementPv, i32 0, i32 0), !dbg !3403
  ret void, !dbg !3404
}

declare void @_ZN7Element17add_write_handlerEPKcPFiRK6StringPS_PvP12ErrorHandlerEij(%class.Element*, i8*, i32 (%class.String*, %class.Element*, i8*, %class.ErrorHandler*)*, i32, i32) local_unnamed_addr #2

declare i32 @_ZN13IP6RouteTable17add_route_handlerERK6StringP7ElementPvP12ErrorHandler(%class.String* dereferenceable(24), %class.Element*, i8*, %class.ErrorHandler*) #2

declare i32 @_ZN13IP6RouteTable20remove_route_handlerERK6StringP7ElementPvP12ErrorHandler(%class.String* dereferenceable(24), %class.Element*, i8*, %class.ErrorHandler*) #2

declare i32 @_ZN13IP6RouteTable12ctrl_handlerERK6StringP7ElementPvP12ErrorHandler(%class.String* dereferenceable(24), %class.Element*, i8*, %class.ErrorHandler*) #2

declare void @_ZN7Element16add_read_handlerEPKcPF6StringPS_PvEij(%class.Element*, i8*, void (%class.String*, %class.Element*, i8*)*, i32, i32) local_unnamed_addr #2

declare void @_ZN13IP6RouteTable13table_handlerEP7ElementPv(%class.String* sret, %class.Element*, i8*) #2

declare %class.Packet* @_ZN7Element4pullEi(%class.Element*, i32) unnamed_addr #2

declare %class.Packet* @_ZN7Element13simple_actionEP6Packet(%class.Element*, %class.Packet*) unnamed_addr #2

declare zeroext i1 @_ZN7Element8run_taskEP4Task(%class.Element*, %class.Task*) unnamed_addr #2

declare void @_ZN7Element9run_timerEP5Timer(%class.Element*, %class.Timer*) unnamed_addr #2

declare void @_ZN7Element8selectedEii(%class.Element*, i32, i32) unnamed_addr #2

declare void @_ZN7Element8selectedEi(%class.Element*, i32) unnamed_addr #2

; Function Attrs: nounwind sspstrong uwtable
define linkonce_odr dso_local i8* @_ZNK14LookupIP6Route10class_nameEv(%class.LookupIP6Route* %0) unnamed_addr #4 comdat align 2 !dbg !3405 {
  call void @llvm.dbg.value(metadata %class.LookupIP6Route* %0, metadata !3407, metadata !DIExpression()), !dbg !3409
  ret i8* getelementptr inbounds ([15 x i8], [15 x i8]* @.str.14, i64 0, i64 0), !dbg !3410
}

; Function Attrs: nounwind sspstrong uwtable
define linkonce_odr dso_local i8* @_ZNK14LookupIP6Route10port_countEv(%class.LookupIP6Route* %0) unnamed_addr #4 comdat align 2 !dbg !3411 {
  call void @llvm.dbg.value(metadata %class.LookupIP6Route* %0, metadata !3413, metadata !DIExpression()), !dbg !3414
  ret i8* getelementptr inbounds ([4 x i8], [4 x i8]* @.str.15, i64 0, i64 0), !dbg !3415
}

; Function Attrs: nounwind sspstrong uwtable
define linkonce_odr dso_local i8* @_ZNK14LookupIP6Route10processingEv(%class.LookupIP6Route* %0) unnamed_addr #4 comdat align 2 !dbg !3416 {
  call void @llvm.dbg.value(metadata %class.LookupIP6Route* %0, metadata !3418, metadata !DIExpression()), !dbg !3419
  ret i8* getelementptr inbounds ([0 x i8], [0 x i8]* @_ZN7Element4PUSHE, i64 0, i64 0), !dbg !3420
}

declare i8* @_ZNK7Element9flow_codeEv(%class.Element*) unnamed_addr #2

declare i8* @_ZNK7Element5flagsEv(%class.Element*) unnamed_addr #2

declare i8* @_ZN13IP6RouteTable4castEPKc(%class.IP6RouteTable*, i8*) unnamed_addr #2

declare i8* @_ZN7Element9port_castEbiPKc(%class.Element*, i1 zeroext, i32, i8*) unnamed_addr #2

declare i32 @_ZNK7Element15configure_phaseEv(%class.Element*) unnamed_addr #2

declare void @_ZN7Element10take_stateEPS_P12ErrorHandler(%class.Element*, %class.Element*, %class.ErrorHandler*) unnamed_addr #2

declare %class.Element* @_ZNK7Element15hotswap_elementEv(%class.Element*) unnamed_addr #2

declare void @_ZN7Element7cleanupENS_12CleanupStageE(%class.Element*, i32) unnamed_addr #2

declare void @_ZNK7Element11declarationEv(%class.String* sret, %class.Element*) unnamed_addr #2

declare zeroext i1 @_ZNK7Element20can_live_reconfigureEv(%class.Element*) unnamed_addr #2

declare i32 @_ZN7Element16live_reconfigureER6VectorI6StringEP12ErrorHandler(%class.Element*, %class.Vector.0* dereferenceable(16), %class.ErrorHandler*) unnamed_addr #2

declare i32 @_ZN7Element5llrpcEjPv(%class.Element*, i32, i8*) unnamed_addr #2

; Function Attrs: sspstrong uwtable
define linkonce_odr dso_local void @_ZN14LookupIP6Route11dump_routesEv(%class.String* noalias sret %0, %class.LookupIP6Route* %1) unnamed_addr #0 comdat align 2 !dbg !3421 {
  call void @llvm.dbg.value(metadata %class.LookupIP6Route* %1, metadata !3423, metadata !DIExpression()), !dbg !3424
  %3 = getelementptr inbounds %class.LookupIP6Route, %class.LookupIP6Route* %1, i64 0, i32 2, !dbg !3425
  tail call void @_ZN8IP6Table4dumpEv(%class.String* sret %0, %class.IP6Table* nonnull %3), !dbg !3426
  ret void, !dbg !3427
}

declare void @_ZN7ElementC2Ev(%class.Element*) unnamed_addr #2

; Function Attrs: argmemonly nounwind willreturn
declare void @llvm.memset.p0i8.i64(i8* nocapture writeonly, i8, i64, i1 immarg) #6

; Function Attrs: noinline noreturn nounwind
define linkonce_odr hidden void @__clang_call_terminate(i8* %0) local_unnamed_addr #8 comdat {
  %2 = tail call i8* @__cxa_begin_catch(i8* %0) #12
  tail call void @_ZSt9terminatev() #14
  unreachable
}

declare i8* @__cxa_begin_catch(i8*) local_unnamed_addr

declare void @_ZSt9terminatev() local_unnamed_addr

; Function Attrs: noreturn nounwind
declare void @__assert_fail(i8*, i8*, i32, i8*) local_unnamed_addr #9

declare void @_ZN6String11delete_memoEPNS_6memo_tE(%"struct.String::memo_t"*) local_unnamed_addr #2

; Function Attrs: nobuiltin nounwind
declare void @_ZdaPv(i8*) local_unnamed_addr #5

declare %"union.Packet::Anno"* @_ZN6Packet5xannoEv(%class.Packet*) local_unnamed_addr #2

; Function Attrs: inlinehint nounwind sspstrong uwtable
define linkonce_odr dso_local i32 @_ZNK10IP6Address8hashcodeEv(%class.IP6Address* %0) #10 comdat align 2 !dbg !3428 {
  call void @llvm.dbg.value(metadata %class.IP6Address* %0, metadata !3430, metadata !DIExpression()), !dbg !3431
  %2 = getelementptr inbounds %class.IP6Address, %class.IP6Address* %0, i64 0, i32 0, i32 0, i32 0, i64 2, !dbg !3432
  %3 = load i32, i32* %2, align 4, !dbg !3432, !tbaa !2860
  %4 = shl i32 %3, 1, !dbg !3433
  %5 = getelementptr inbounds %class.IP6Address, %class.IP6Address* %0, i64 0, i32 0, i32 0, i32 0, i64 3, !dbg !3434
  %6 = load i32, i32* %5, align 4, !dbg !3434, !tbaa !2860
  %7 = add i32 %4, %6, !dbg !3435
  ret i32 %7, !dbg !3436
}

; Function Attrs: noinline nounwind optnone sspstrong uwtable
define linkonce_odr dso_local dereferenceable(16) %"class.Element::Port"* @_ZNK7Element4portEbi(%class.Element* %0, i1 zeroext %1, i32 %2) local_unnamed_addr #11 comdat align 2 !dbg !3437 {
  %4 = alloca %class.Element*, align 8
  %5 = alloca i8, align 1
  %6 = alloca i32, align 4
  store %class.Element* %0, %class.Element** %4, align 8, !tbaa !3336
  call void @llvm.dbg.declare(metadata %class.Element** %4, metadata !3442, metadata !DIExpression()), !dbg !3445
  %7 = zext i1 %1 to i8
  store i8 %7, i8* %5, align 1, !tbaa !3446
  call void @llvm.dbg.declare(metadata i8* %5, metadata !3443, metadata !DIExpression()), !dbg !3448
  store i32 %2, i32* %6, align 4, !tbaa !2860
  call void @llvm.dbg.declare(metadata i32* %6, metadata !3444, metadata !DIExpression()), !dbg !3449
  %8 = load %class.Element*, %class.Element** %4, align 8
  %9 = load i32, i32* %6, align 4, !dbg !3450, !tbaa !2860
  %10 = getelementptr inbounds %class.Element, %class.Element* %8, i32 0, i32 3, !dbg !3450
  %11 = load i8, i8* %5, align 1, !dbg !3450, !tbaa !3446, !range !3451
  %12 = trunc i8 %11 to i1, !dbg !3450
  %13 = zext i1 %12 to i64, !dbg !3450
  %14 = getelementptr inbounds [2 x i32], [2 x i32]* %10, i64 0, i64 %13, !dbg !3450
  %15 = load i32, i32* %14, align 4, !dbg !3450, !tbaa !2860
  %16 = icmp ult i32 %9, %15, !dbg !3450
  br i1 %16, label %17, label %18, !dbg !3450

17:                                               ; preds = %3
  br label %19, !dbg !3450

18:                                               ; preds = %3
  call void @__assert_fail(i8* getelementptr inbounds ([47 x i8], [47 x i8]* @.str.11, i64 0, i64 0), i8* getelementptr inbounds ([30 x i8], [30 x i8]* @.str.12, i64 0, i64 0), i32 437, i8* getelementptr inbounds ([52 x i8], [52 x i8]* @__PRETTY_FUNCTION__._ZNK7Element4portEbi, i64 0, i64 0)) #14, !dbg !3450
  unreachable, !dbg !3450

19:                                               ; preds = %17
  %20 = getelementptr inbounds %class.Element, %class.Element* %8, i32 0, i32 1, !dbg !3452
  %21 = load i8, i8* %5, align 1, !dbg !3453, !tbaa !3446, !range !3451
  %22 = trunc i8 %21 to i1, !dbg !3453
  %23 = zext i1 %22 to i64, !dbg !3452
  %24 = getelementptr inbounds [2 x %"class.Element::Port"*], [2 x %"class.Element::Port"*]* %20, i64 0, i64 %23, !dbg !3452
  %25 = load %"class.Element::Port"*, %"class.Element::Port"** %24, align 8, !dbg !3452, !tbaa !3336
  %26 = load i32, i32* %6, align 4, !dbg !3454, !tbaa !2860
  %27 = sext i32 %26 to i64, !dbg !3452
  %28 = getelementptr inbounds %"class.Element::Port", %"class.Element::Port"* %25, i64 %27, !dbg !3452
  ret %"class.Element::Port"* %28, !dbg !3455
}

declare void @_ZN8IP6Table4dumpEv(%class.String* sret, %class.IP6Table*) local_unnamed_addr #2

declare void @_ZN6IntArg11range_errorERK10ArgContextbx(%class.IntArg*, %class.ArgContext* dereferenceable(32), i1 zeroext, i64) local_unnamed_addr #2

declare i8* @_ZN6IntArg5parseEPKcS1_biPji(%class.IntArg*, i8*, i8*, i1 zeroext, i32, i32*, i32) local_unnamed_addr #2

declare void @_ZNK10ArgContext5errorEPKcz(%class.ArgContext*, i8*, ...) local_unnamed_addr #2

; Function Attrs: nounwind readnone speculatable willreturn
declare void @llvm.dbg.value(metadata, metadata, metadata) #1

attributes #0 = { sspstrong uwtable "correctly-rounded-divide-sqrt-fp-math"="false" "disable-tail-calls"="false" "frame-pointer"="none" "less-precise-fpmad"="false" "min-legal-vector-width"="0" "no-infs-fp-math"="false" "no-jump-tables"="false" "no-nans-fp-math"="false" "no-signed-zeros-fp-math"="false" "no-trapping-math"="false" "stack-protector-buffer-size"="8" "target-cpu"="x86-64" "target-features"="+cx8,+fxsr,+mmx,+sse,+sse2,+x87" "unsafe-fp-math"="false" "use-soft-float"="false" }
attributes #1 = { nounwind readnone speculatable willreturn }
attributes #2 = { "correctly-rounded-divide-sqrt-fp-math"="false" "disable-tail-calls"="false" "frame-pointer"="none" "less-precise-fpmad"="false" "no-infs-fp-math"="false" "no-nans-fp-math"="false" "no-signed-zeros-fp-math"="false" "no-trapping-math"="false" "stack-protector-buffer-size"="8" "target-cpu"="x86-64" "target-features"="+cx8,+fxsr,+mmx,+sse,+sse2,+x87" "unsafe-fp-math"="false" "use-soft-float"="false" }
attributes #3 = { nounwind "correctly-rounded-divide-sqrt-fp-math"="false" "disable-tail-calls"="false" "frame-pointer"="none" "less-precise-fpmad"="false" "no-infs-fp-math"="false" "no-nans-fp-math"="false" "no-signed-zeros-fp-math"="false" "no-trapping-math"="false" "stack-protector-buffer-size"="8" "target-cpu"="x86-64" "target-features"="+cx8,+fxsr,+mmx,+sse,+sse2,+x87" "unsafe-fp-math"="false" "use-soft-float"="false" }
attributes #4 = { nounwind sspstrong uwtable "correctly-rounded-divide-sqrt-fp-math"="false" "disable-tail-calls"="false" "frame-pointer"="none" "less-precise-fpmad"="false" "min-legal-vector-width"="0" "no-infs-fp-math"="false" "no-jump-tables"="false" "no-nans-fp-math"="false" "no-signed-zeros-fp-math"="false" "no-trapping-math"="false" "stack-protector-buffer-size"="8" "target-cpu"="x86-64" "target-features"="+cx8,+fxsr,+mmx,+sse,+sse2,+x87" "unsafe-fp-math"="false" "use-soft-float"="false" }
attributes #5 = { nobuiltin nounwind "correctly-rounded-divide-sqrt-fp-math"="false" "disable-tail-calls"="false" "frame-pointer"="none" "less-precise-fpmad"="false" "no-infs-fp-math"="false" "no-nans-fp-math"="false" "no-signed-zeros-fp-math"="false" "no-trapping-math"="false" "stack-protector-buffer-size"="8" "target-cpu"="x86-64" "target-features"="+cx8,+fxsr,+mmx,+sse,+sse2,+x87" "unsafe-fp-math"="false" "use-soft-float"="false" }
attributes #6 = { argmemonly nounwind willreturn }
attributes #7 = { noinline optnone sspstrong uwtable "correctly-rounded-divide-sqrt-fp-math"="false" "disable-tail-calls"="false" "frame-pointer"="none" "less-precise-fpmad"="false" "min-legal-vector-width"="0" "no-infs-fp-math"="false" "no-jump-tables"="false" "no-nans-fp-math"="false" "no-signed-zeros-fp-math"="false" "no-trapping-math"="false" "stack-protector-buffer-size"="8" "target-cpu"="x86-64" "target-features"="+cx8,+fxsr,+mmx,+sse,+sse2,+x87" "unsafe-fp-math"="false" "use-soft-float"="false" }
attributes #8 = { noinline noreturn nounwind }
attributes #9 = { noreturn nounwind "correctly-rounded-divide-sqrt-fp-math"="false" "disable-tail-calls"="false" "frame-pointer"="none" "less-precise-fpmad"="false" "no-infs-fp-math"="false" "no-nans-fp-math"="false" "no-signed-zeros-fp-math"="false" "no-trapping-math"="false" "stack-protector-buffer-size"="8" "target-cpu"="x86-64" "target-features"="+cx8,+fxsr,+mmx,+sse,+sse2,+x87" "unsafe-fp-math"="false" "use-soft-float"="false" }
attributes #10 = { inlinehint nounwind sspstrong uwtable "correctly-rounded-divide-sqrt-fp-math"="false" "disable-tail-calls"="false" "frame-pointer"="none" "less-precise-fpmad"="false" "min-legal-vector-width"="0" "no-infs-fp-math"="false" "no-jump-tables"="false" "no-nans-fp-math"="false" "no-signed-zeros-fp-math"="false" "no-trapping-math"="false" "stack-protector-buffer-size"="8" "target-cpu"="x86-64" "target-features"="+cx8,+fxsr,+mmx,+sse,+sse2,+x87" "unsafe-fp-math"="false" "use-soft-float"="false" }
attributes #11 = { noinline nounwind optnone sspstrong uwtable "correctly-rounded-divide-sqrt-fp-math"="false" "disable-tail-calls"="false" "frame-pointer"="none" "less-precise-fpmad"="false" "min-legal-vector-width"="0" "no-infs-fp-math"="false" "no-jump-tables"="false" "no-nans-fp-math"="false" "no-signed-zeros-fp-math"="false" "no-trapping-math"="false" "stack-protector-buffer-size"="8" "target-cpu"="x86-64" "target-features"="+cx8,+fxsr,+mmx,+sse,+sse2,+x87" "unsafe-fp-math"="false" "use-soft-float"="false" }
attributes #12 = { nounwind }
attributes #13 = { builtin nounwind }
attributes #14 = { noreturn nounwind }

!llvm.dbg.cu = !{!0}
!llvm.module.flags = !{!2301, !2302, !2303, !2304, !2305}
!llvm.ident = !{!2306}

!0 = distinct !DICompileUnit(language: DW_LANG_C_plus_plus_14, file: !1, producer: "clang version 10.0.0 ", isOptimized: true, runtimeVersion: 0, emissionKind: FullDebug, enums: !2, retainedTypes: !1172, imports: !1678, splitDebugInlining: false, nameTableKind: None)
!1 = !DIFile(filename: "../elements/ip6/lookupip6route.cc", directory: "/home/john/projects/click/ir-dir")
!2 = !{!3, !858, !1163}
!3 = !DICompositeType(tag: DW_TAG_enumeration_type, name: "PacketType", scope: !5, file: !4, line: 368, baseType: !16, size: 32, elements: !1155, identifier: "_ZTSN6Packet10PacketTypeE")
!4 = !DIFile(filename: "../dummy_inc/click/packet.hh", directory: "/home/john/projects/click/ir-dir")
!5 = distinct !DICompositeType(tag: DW_TAG_class_type, name: "Packet", file: !4, line: 35, size: 1344, flags: DIFlagTypePassByReference | DIFlagNonTrivial, elements: !6, identifier: "_ZTS6Packet")
!6 = !{!7, !77, !79, !82, !83, !84, !85, !128, !136, !137, !227, !230, !233, !236, !239, !243, !247, !250, !253, !258, !259, !262, !263, !264, !265, !266, !267, !270, !273, !276, !277, !280, !281, !284, !287, !288, !289, !290, !293, !296, !299, !302, !303, !304, !307, !308, !309, !312, !313, !314, !315, !316, !317, !318, !319, !320, !321, !322, !323, !324, !325, !326, !327, !332, !335, !340, !341, !342, !345, !350, !351, !352, !355, !358, !363, !368, !373, !378, !382, !899, !903, !906, !912, !915, !918, !921, !924, !928, !931, !932, !933, !934, !1024, !1027, !1028, !1031, !1035, !1040, !1044, !1049, !1052, !1055, !1058, !1061, !1067, !1070, !1073, !1076, !1079, !1082, !1085, !1088, !1091, !1094, !1095, !1098, !1102, !1103, !1104, !1105, !1106, !1107, !1108, !1109, !1110, !1111, !1112, !1113, !1114, !1115, !1116, !1117, !1118, !1119, !1120, !1121, !1122, !1123, !1124, !1125, !1126, !1127, !1128, !1129, !1130, !1131, !1132, !1133, !1134, !1135, !1136, !1139, !1140, !1144, !1147, !1150, !1153, !1154}
!7 = !DIDerivedType(tag: DW_TAG_member, name: "_use_count", scope: !5, file: !4, line: 731, baseType: !8, size: 32)
!8 = distinct !DICompositeType(tag: DW_TAG_class_type, name: "atomic_uint32_t", file: !9, line: 52, size: 32, flags: DIFlagTypePassByValue, elements: !10, identifier: "_ZTS15atomic_uint32_t")
!9 = !DIFile(filename: "../dummy_inc/click/atomic.hh", directory: "/home/john/projects/click/ir-dir")
!10 = !{!11, !17, !22, !23, !28, !35, !36, !37, !38, !41, !44, !45, !46, !49, !50, !54, !57, !60, !65, !68, !71, !74}
!11 = !DIDerivedType(tag: DW_TAG_member, name: "_val", scope: !8, file: !9, line: 91, baseType: !12, size: 32)
!12 = !DIDerivedType(tag: DW_TAG_typedef, name: "uint32_t", file: !13, line: 26, baseType: !14)
!13 = !DIFile(filename: "/usr/include/bits/stdint-uintn.h", directory: "")
!14 = !DIDerivedType(tag: DW_TAG_typedef, name: "__uint32_t", file: !15, line: 42, baseType: !16)
!15 = !DIFile(filename: "/usr/include/bits/types.h", directory: "")
!16 = !DIBasicType(name: "unsigned int", size: 32, encoding: DW_ATE_unsigned)
!17 = !DISubprogram(name: "value", linkageName: "_ZNK15atomic_uint32_t5valueEv", scope: !8, file: !9, line: 57, type: !18, scopeLine: 57, flags: DIFlagPublic | DIFlagPrototyped, spFlags: DISPFlagOptimized)
!18 = !DISubroutineType(types: !19)
!19 = !{!12, !20}
!20 = !DIDerivedType(tag: DW_TAG_pointer_type, baseType: !21, size: 64, flags: DIFlagArtificial | DIFlagObjectPointer)
!21 = !DIDerivedType(tag: DW_TAG_const_type, baseType: !8)
!22 = !DISubprogram(name: "operator unsigned int", linkageName: "_ZNK15atomic_uint32_tcvjEv", scope: !8, file: !9, line: 58, type: !18, scopeLine: 58, flags: DIFlagPublic | DIFlagPrototyped, spFlags: DISPFlagOptimized)
!23 = !DISubprogram(name: "operator=", linkageName: "_ZN15atomic_uint32_taSEj", scope: !8, file: !9, line: 60, type: !24, scopeLine: 60, flags: DIFlagPublic | DIFlagPrototyped, spFlags: DISPFlagOptimized)
!24 = !DISubroutineType(types: !25)
!25 = !{!26, !27, !12}
!26 = !DIDerivedType(tag: DW_TAG_reference_type, baseType: !8, size: 64)
!27 = !DIDerivedType(tag: DW_TAG_pointer_type, baseType: !8, size: 64, flags: DIFlagArtificial | DIFlagObjectPointer)
!28 = !DISubprogram(name: "operator+=", linkageName: "_ZN15atomic_uint32_tpLEi", scope: !8, file: !9, line: 62, type: !29, scopeLine: 62, flags: DIFlagPublic | DIFlagPrototyped, spFlags: DISPFlagOptimized)
!29 = !DISubroutineType(types: !30)
!30 = !{!26, !27, !31}
!31 = !DIDerivedType(tag: DW_TAG_typedef, name: "int32_t", file: !32, line: 26, baseType: !33)
!32 = !DIFile(filename: "/usr/include/bits/stdint-intn.h", directory: "")
!33 = !DIDerivedType(tag: DW_TAG_typedef, name: "__int32_t", file: !15, line: 41, baseType: !34)
!34 = !DIBasicType(name: "int", size: 32, encoding: DW_ATE_signed)
!35 = !DISubprogram(name: "operator-=", linkageName: "_ZN15atomic_uint32_tmIEi", scope: !8, file: !9, line: 63, type: !29, scopeLine: 63, flags: DIFlagPublic | DIFlagPrototyped, spFlags: DISPFlagOptimized)
!36 = !DISubprogram(name: "operator|=", linkageName: "_ZN15atomic_uint32_toREj", scope: !8, file: !9, line: 64, type: !24, scopeLine: 64, flags: DIFlagPublic | DIFlagPrototyped, spFlags: DISPFlagOptimized)
!37 = !DISubprogram(name: "operator&=", linkageName: "_ZN15atomic_uint32_taNEj", scope: !8, file: !9, line: 65, type: !24, scopeLine: 65, flags: DIFlagPublic | DIFlagPrototyped, spFlags: DISPFlagOptimized)
!38 = !DISubprogram(name: "operator++", linkageName: "_ZN15atomic_uint32_tppEv", scope: !8, file: !9, line: 67, type: !39, scopeLine: 67, flags: DIFlagPublic | DIFlagPrototyped, spFlags: DISPFlagOptimized)
!39 = !DISubroutineType(types: !40)
!40 = !{null, !27}
!41 = !DISubprogram(name: "operator++", linkageName: "_ZN15atomic_uint32_tppEi", scope: !8, file: !9, line: 68, type: !42, scopeLine: 68, flags: DIFlagPublic | DIFlagPrototyped, spFlags: DISPFlagOptimized)
!42 = !DISubroutineType(types: !43)
!43 = !{null, !27, !34}
!44 = !DISubprogram(name: "operator--", linkageName: "_ZN15atomic_uint32_tmmEv", scope: !8, file: !9, line: 69, type: !39, scopeLine: 69, flags: DIFlagPublic | DIFlagPrototyped, spFlags: DISPFlagOptimized)
!45 = !DISubprogram(name: "operator--", linkageName: "_ZN15atomic_uint32_tmmEi", scope: !8, file: !9, line: 70, type: !42, scopeLine: 70, flags: DIFlagPublic | DIFlagPrototyped, spFlags: DISPFlagOptimized)
!46 = !DISubprogram(name: "swap", linkageName: "_ZN15atomic_uint32_t4swapEj", scope: !8, file: !9, line: 72, type: !47, scopeLine: 72, flags: DIFlagPublic | DIFlagPrototyped, spFlags: DISPFlagOptimized)
!47 = !DISubroutineType(types: !48)
!48 = !{!12, !27, !12}
!49 = !DISubprogram(name: "fetch_and_add", linkageName: "_ZN15atomic_uint32_t13fetch_and_addEj", scope: !8, file: !9, line: 73, type: !47, scopeLine: 73, flags: DIFlagPublic | DIFlagPrototyped, spFlags: DISPFlagOptimized)
!50 = !DISubprogram(name: "dec_and_test", linkageName: "_ZN15atomic_uint32_t12dec_and_testEv", scope: !8, file: !9, line: 74, type: !51, scopeLine: 74, flags: DIFlagPublic | DIFlagPrototyped, spFlags: DISPFlagOptimized)
!51 = !DISubroutineType(types: !52)
!52 = !{!53, !27}
!53 = !DIBasicType(name: "bool", size: 8, encoding: DW_ATE_boolean)
!54 = !DISubprogram(name: "compare_swap", linkageName: "_ZN15atomic_uint32_t12compare_swapEjj", scope: !8, file: !9, line: 75, type: !55, scopeLine: 75, flags: DIFlagPublic | DIFlagPrototyped, spFlags: DISPFlagOptimized)
!55 = !DISubroutineType(types: !56)
!56 = !{!12, !27, !12, !12}
!57 = !DISubprogram(name: "compare_and_swap", linkageName: "_ZN15atomic_uint32_t16compare_and_swapEjj", scope: !8, file: !9, line: 76, type: !58, scopeLine: 76, flags: DIFlagPublic | DIFlagPrototyped, spFlags: DISPFlagOptimized)
!58 = !DISubroutineType(types: !59)
!59 = !{!53, !27, !12, !12}
!60 = !DISubprogram(name: "swap", linkageName: "_ZN15atomic_uint32_t4swapERVjj", scope: !8, file: !9, line: 78, type: !61, scopeLine: 78, flags: DIFlagPublic | DIFlagPrototyped | DIFlagStaticMember, spFlags: DISPFlagOptimized)
!61 = !DISubroutineType(types: !62)
!62 = !{!12, !63, !12}
!63 = !DIDerivedType(tag: DW_TAG_reference_type, baseType: !64, size: 64)
!64 = !DIDerivedType(tag: DW_TAG_volatile_type, baseType: !12)
!65 = !DISubprogram(name: "inc", linkageName: "_ZN15atomic_uint32_t3incERVj", scope: !8, file: !9, line: 79, type: !66, scopeLine: 79, flags: DIFlagPublic | DIFlagPrototyped | DIFlagStaticMember, spFlags: DISPFlagOptimized)
!66 = !DISubroutineType(types: !67)
!67 = !{null, !63}
!68 = !DISubprogram(name: "dec_and_test", linkageName: "_ZN15atomic_uint32_t12dec_and_testERVj", scope: !8, file: !9, line: 80, type: !69, scopeLine: 80, flags: DIFlagPublic | DIFlagPrototyped | DIFlagStaticMember, spFlags: DISPFlagOptimized)
!69 = !DISubroutineType(types: !70)
!70 = !{!53, !63}
!71 = !DISubprogram(name: "compare_swap", linkageName: "_ZN15atomic_uint32_t12compare_swapERVjjj", scope: !8, file: !9, line: 81, type: !72, scopeLine: 81, flags: DIFlagPublic | DIFlagPrototyped | DIFlagStaticMember, spFlags: DISPFlagOptimized)
!72 = !DISubroutineType(types: !73)
!73 = !{!12, !63, !12, !12}
!74 = !DISubprogram(name: "compare_and_swap", linkageName: "_ZN15atomic_uint32_t16compare_and_swapERVjjj", scope: !8, file: !9, line: 82, type: !75, scopeLine: 82, flags: DIFlagPublic | DIFlagPrototyped | DIFlagStaticMember, spFlags: DISPFlagOptimized)
!75 = !DISubroutineType(types: !76)
!76 = !{!53, !63, !12, !12}
!77 = !DIDerivedType(tag: DW_TAG_member, name: "_data_packet", scope: !5, file: !4, line: 732, baseType: !78, size: 64, offset: 64)
!78 = !DIDerivedType(tag: DW_TAG_pointer_type, baseType: !5, size: 64)
!79 = !DIDerivedType(tag: DW_TAG_member, name: "_head", scope: !5, file: !4, line: 734, baseType: !80, size: 64, offset: 128)
!80 = !DIDerivedType(tag: DW_TAG_pointer_type, baseType: !81, size: 64)
!81 = !DIBasicType(name: "unsigned char", size: 8, encoding: DW_ATE_unsigned_char)
!82 = !DIDerivedType(tag: DW_TAG_member, name: "_data", scope: !5, file: !4, line: 735, baseType: !80, size: 64, offset: 192)
!83 = !DIDerivedType(tag: DW_TAG_member, name: "_tail", scope: !5, file: !4, line: 736, baseType: !80, size: 64, offset: 256)
!84 = !DIDerivedType(tag: DW_TAG_member, name: "_end", scope: !5, file: !4, line: 737, baseType: !80, size: 64, offset: 320)
!85 = !DIDerivedType(tag: DW_TAG_member, name: "_aa", scope: !5, file: !4, line: 741, baseType: !86, size: 832, offset: 384)
!86 = distinct !DICompositeType(tag: DW_TAG_structure_type, name: "AllAnno", scope: !5, file: !4, line: 716, size: 832, flags: DIFlagTypePassByValue, elements: !87, identifier: "_ZTSN6Packet7AllAnnoE")
!87 = !{!88, !118, !119, !120, !121, !122, !126, !127}
!88 = !DIDerivedType(tag: DW_TAG_member, name: "cb", scope: !86, file: !4, line: 717, baseType: !89, size: 384)
!89 = distinct !DICompositeType(tag: DW_TAG_union_type, name: "Anno", scope: !5, file: !4, line: 702, size: 384, flags: DIFlagTypePassByValue, elements: !90, identifier: "_ZTSN6Packet4AnnoE")
!90 = !{!91, !96, !100, !107, !111}
!91 = !DIDerivedType(tag: DW_TAG_member, name: "c", scope: !89, file: !4, line: 703, baseType: !92, size: 384)
!92 = !DICompositeType(tag: DW_TAG_array_type, baseType: !93, size: 384, elements: !94)
!93 = !DIBasicType(name: "char", size: 8, encoding: DW_ATE_signed_char)
!94 = !{!95}
!95 = !DISubrange(count: 48)
!96 = !DIDerivedType(tag: DW_TAG_member, name: "u8", scope: !89, file: !4, line: 704, baseType: !97, size: 384)
!97 = !DICompositeType(tag: DW_TAG_array_type, baseType: !98, size: 384, elements: !94)
!98 = !DIDerivedType(tag: DW_TAG_typedef, name: "uint8_t", file: !13, line: 24, baseType: !99)
!99 = !DIDerivedType(tag: DW_TAG_typedef, name: "__uint8_t", file: !15, line: 38, baseType: !81)
!100 = !DIDerivedType(tag: DW_TAG_member, name: "u16", scope: !89, file: !4, line: 705, baseType: !101, size: 384)
!101 = !DICompositeType(tag: DW_TAG_array_type, baseType: !102, size: 384, elements: !105)
!102 = !DIDerivedType(tag: DW_TAG_typedef, name: "uint16_t", file: !13, line: 25, baseType: !103)
!103 = !DIDerivedType(tag: DW_TAG_typedef, name: "__uint16_t", file: !15, line: 40, baseType: !104)
!104 = !DIBasicType(name: "unsigned short", size: 16, encoding: DW_ATE_unsigned)
!105 = !{!106}
!106 = !DISubrange(count: 24)
!107 = !DIDerivedType(tag: DW_TAG_member, name: "u32", scope: !89, file: !4, line: 706, baseType: !108, size: 384)
!108 = !DICompositeType(tag: DW_TAG_array_type, baseType: !12, size: 384, elements: !109)
!109 = !{!110}
!110 = !DISubrange(count: 12)
!111 = !DIDerivedType(tag: DW_TAG_member, name: "u64", scope: !89, file: !4, line: 708, baseType: !112, size: 384)
!112 = !DICompositeType(tag: DW_TAG_array_type, baseType: !113, size: 384, elements: !116)
!113 = !DIDerivedType(tag: DW_TAG_typedef, name: "uint64_t", file: !13, line: 27, baseType: !114)
!114 = !DIDerivedType(tag: DW_TAG_typedef, name: "__uint64_t", file: !15, line: 45, baseType: !115)
!115 = !DIBasicType(name: "long unsigned int", size: 64, encoding: DW_ATE_unsigned)
!116 = !{!117}
!117 = !DISubrange(count: 6)
!118 = !DIDerivedType(tag: DW_TAG_member, name: "mac", scope: !86, file: !4, line: 718, baseType: !80, size: 64, offset: 384)
!119 = !DIDerivedType(tag: DW_TAG_member, name: "nh", scope: !86, file: !4, line: 719, baseType: !80, size: 64, offset: 448)
!120 = !DIDerivedType(tag: DW_TAG_member, name: "h", scope: !86, file: !4, line: 720, baseType: !80, size: 64, offset: 512)
!121 = !DIDerivedType(tag: DW_TAG_member, name: "pkt_type", scope: !86, file: !4, line: 721, baseType: !3, size: 32, offset: 576)
!122 = !DIDerivedType(tag: DW_TAG_member, name: "timestamp", scope: !86, file: !4, line: 722, baseType: !123, size: 64, offset: 608)
!123 = !DICompositeType(tag: DW_TAG_array_type, baseType: !93, size: 64, elements: !124)
!124 = !{!125}
!125 = !DISubrange(count: 8)
!126 = !DIDerivedType(tag: DW_TAG_member, name: "next", scope: !86, file: !4, line: 723, baseType: !78, size: 64, offset: 704)
!127 = !DIDerivedType(tag: DW_TAG_member, name: "prev", scope: !86, file: !4, line: 724, baseType: !78, size: 64, offset: 768)
!128 = !DIDerivedType(tag: DW_TAG_member, name: "_destructor", scope: !5, file: !4, line: 746, baseType: !129, size: 64, offset: 1216)
!129 = !DIDerivedType(tag: DW_TAG_typedef, name: "buffer_destructor_type", scope: !5, file: !4, line: 65, baseType: !130)
!130 = !DIDerivedType(tag: DW_TAG_pointer_type, baseType: !131, size: 64)
!131 = !DISubroutineType(types: !132)
!132 = !{null, !80, !133, !135}
!133 = !DIDerivedType(tag: DW_TAG_typedef, name: "size_t", file: !134, line: 46, baseType: !115)
!134 = !DIFile(filename: "/usr/lib/clang/10.0.0/include/stddef.h", directory: "")
!135 = !DIDerivedType(tag: DW_TAG_pointer_type, baseType: null, size: 64)
!136 = !DIDerivedType(tag: DW_TAG_member, name: "_destructor_argument", scope: !5, file: !4, line: 747, baseType: !135, size: 64, offset: 1280)
!137 = !DISubprogram(name: "make", linkageName: "_ZN6Packet4makeEjPKvjj", scope: !5, file: !4, line: 52, type: !138, scopeLine: 52, flags: DIFlagPublic | DIFlagPrototyped | DIFlagStaticMember, spFlags: DISPFlagOptimized)
!138 = !DISubroutineType(types: !139)
!139 = !{!140, !12, !225, !12, !12}
!140 = !DIDerivedType(tag: DW_TAG_pointer_type, baseType: !141, size: 64)
!141 = distinct !DICompositeType(tag: DW_TAG_class_type, name: "WritablePacket", file: !4, line: 778, size: 1344, flags: DIFlagTypePassByReference | DIFlagNonTrivial, elements: !142, identifier: "_ZTS14WritablePacket")
!142 = !{!143, !144, !149, !150, !151, !152, !153, !158, !159, !182, !188, !189, !194, !199, !204, !205, !209, !210, !215, !216, !219, !222}
!143 = !DIDerivedType(tag: DW_TAG_inheritance, scope: !141, baseType: !5, flags: DIFlagPublic, extraData: i32 0)
!144 = !DISubprogram(name: "data", linkageName: "_ZNK14WritablePacket4dataEv", scope: !141, file: !4, line: 780, type: !145, scopeLine: 780, flags: DIFlagPublic | DIFlagPrototyped, spFlags: DISPFlagOptimized)
!145 = !DISubroutineType(types: !146)
!146 = !{!80, !147}
!147 = !DIDerivedType(tag: DW_TAG_pointer_type, baseType: !148, size: 64, flags: DIFlagArtificial | DIFlagObjectPointer)
!148 = !DIDerivedType(tag: DW_TAG_const_type, baseType: !141)
!149 = !DISubprogram(name: "end_data", linkageName: "_ZNK14WritablePacket8end_dataEv", scope: !141, file: !4, line: 781, type: !145, scopeLine: 781, flags: DIFlagPublic | DIFlagPrototyped, spFlags: DISPFlagOptimized)
!150 = !DISubprogram(name: "buffer", linkageName: "_ZNK14WritablePacket6bufferEv", scope: !141, file: !4, line: 782, type: !145, scopeLine: 782, flags: DIFlagPublic | DIFlagPrototyped, spFlags: DISPFlagOptimized)
!151 = !DISubprogram(name: "end_buffer", linkageName: "_ZNK14WritablePacket10end_bufferEv", scope: !141, file: !4, line: 783, type: !145, scopeLine: 783, flags: DIFlagPublic | DIFlagPrototyped, spFlags: DISPFlagOptimized)
!152 = !DISubprogram(name: "mac_header", linkageName: "_ZNK14WritablePacket10mac_headerEv", scope: !141, file: !4, line: 784, type: !145, scopeLine: 784, flags: DIFlagPublic | DIFlagPrototyped, spFlags: DISPFlagOptimized)
!153 = !DISubprogram(name: "ether_header", linkageName: "_ZNK14WritablePacket12ether_headerEv", scope: !141, file: !4, line: 785, type: !154, scopeLine: 785, flags: DIFlagPublic | DIFlagPrototyped, spFlags: DISPFlagOptimized)
!154 = !DISubroutineType(types: !155)
!155 = !{!156, !147}
!156 = !DIDerivedType(tag: DW_TAG_pointer_type, baseType: !157, size: 64)
!157 = !DICompositeType(tag: DW_TAG_structure_type, name: "click_ether", file: !4, line: 24, flags: DIFlagFwdDecl, identifier: "_ZTS11click_ether")
!158 = !DISubprogram(name: "network_header", linkageName: "_ZNK14WritablePacket14network_headerEv", scope: !141, file: !4, line: 786, type: !145, scopeLine: 786, flags: DIFlagPublic | DIFlagPrototyped, spFlags: DISPFlagOptimized)
!159 = !DISubprogram(name: "ip_header", linkageName: "_ZNK14WritablePacket9ip_headerEv", scope: !141, file: !4, line: 787, type: !160, scopeLine: 787, flags: DIFlagPublic | DIFlagPrototyped, spFlags: DISPFlagOptimized)
!160 = !DISubroutineType(types: !161)
!161 = !{!162, !147}
!162 = !DIDerivedType(tag: DW_TAG_pointer_type, baseType: !163, size: 64)
!163 = distinct !DICompositeType(tag: DW_TAG_structure_type, name: "click_ip", file: !164, line: 23, size: 160, flags: DIFlagTypePassByValue, elements: !165, identifier: "_ZTS8click_ip")
!164 = !DIFile(filename: "../dummy_inc/clicknet/ip.h", directory: "/home/john/projects/click/ir-dir")
!165 = !{!166, !167, !168, !169, !170, !171, !172, !173, !174, !175, !181}
!166 = !DIDerivedType(tag: DW_TAG_member, name: "ip_hl", scope: !163, file: !164, line: 28, baseType: !16, size: 4, flags: DIFlagBitField, extraData: i64 0)
!167 = !DIDerivedType(tag: DW_TAG_member, name: "ip_v", scope: !163, file: !164, line: 29, baseType: !16, size: 4, offset: 4, flags: DIFlagBitField, extraData: i64 0)
!168 = !DIDerivedType(tag: DW_TAG_member, name: "ip_tos", scope: !163, file: !164, line: 33, baseType: !98, size: 8, offset: 8)
!169 = !DIDerivedType(tag: DW_TAG_member, name: "ip_len", scope: !163, file: !164, line: 40, baseType: !102, size: 16, offset: 16)
!170 = !DIDerivedType(tag: DW_TAG_member, name: "ip_id", scope: !163, file: !164, line: 41, baseType: !102, size: 16, offset: 32)
!171 = !DIDerivedType(tag: DW_TAG_member, name: "ip_off", scope: !163, file: !164, line: 42, baseType: !102, size: 16, offset: 48)
!172 = !DIDerivedType(tag: DW_TAG_member, name: "ip_ttl", scope: !163, file: !164, line: 47, baseType: !98, size: 8, offset: 64)
!173 = !DIDerivedType(tag: DW_TAG_member, name: "ip_p", scope: !163, file: !164, line: 48, baseType: !98, size: 8, offset: 72)
!174 = !DIDerivedType(tag: DW_TAG_member, name: "ip_sum", scope: !163, file: !164, line: 49, baseType: !102, size: 16, offset: 80)
!175 = !DIDerivedType(tag: DW_TAG_member, name: "ip_src", scope: !163, file: !164, line: 50, baseType: !176, size: 32, offset: 96)
!176 = distinct !DICompositeType(tag: DW_TAG_structure_type, name: "in_addr", file: !177, line: 31, size: 32, flags: DIFlagTypePassByValue, elements: !178, identifier: "_ZTS7in_addr")
!177 = !DIFile(filename: "/usr/include/netinet/in.h", directory: "")
!178 = !{!179}
!179 = !DIDerivedType(tag: DW_TAG_member, name: "s_addr", scope: !176, file: !177, line: 33, baseType: !180, size: 32)
!180 = !DIDerivedType(tag: DW_TAG_typedef, name: "in_addr_t", file: !177, line: 30, baseType: !12)
!181 = !DIDerivedType(tag: DW_TAG_member, name: "ip_dst", scope: !163, file: !164, line: 51, baseType: !176, size: 32, offset: 128)
!182 = !DISubprogram(name: "ip6_header", linkageName: "_ZNK14WritablePacket10ip6_headerEv", scope: !141, file: !4, line: 788, type: !183, scopeLine: 788, flags: DIFlagPublic | DIFlagPrototyped, spFlags: DISPFlagOptimized)
!183 = !DISubroutineType(types: !184)
!184 = !{!185, !147}
!185 = !DIDerivedType(tag: DW_TAG_pointer_type, baseType: !186, size: 64)
!186 = !DICompositeType(tag: DW_TAG_structure_type, name: "click_ip6", file: !187, line: 16, flags: DIFlagFwdDecl, identifier: "_ZTS9click_ip6")
!187 = !DIFile(filename: "../dummy_inc/clicknet/ip6.h", directory: "/home/john/projects/click/ir-dir")
!188 = !DISubprogram(name: "transport_header", linkageName: "_ZNK14WritablePacket16transport_headerEv", scope: !141, file: !4, line: 789, type: !145, scopeLine: 789, flags: DIFlagPublic | DIFlagPrototyped, spFlags: DISPFlagOptimized)
!189 = !DISubprogram(name: "icmp_header", linkageName: "_ZNK14WritablePacket11icmp_headerEv", scope: !141, file: !4, line: 790, type: !190, scopeLine: 790, flags: DIFlagPublic | DIFlagPrototyped, spFlags: DISPFlagOptimized)
!190 = !DISubroutineType(types: !191)
!191 = !{!192, !147}
!192 = !DIDerivedType(tag: DW_TAG_pointer_type, baseType: !193, size: 64)
!193 = !DICompositeType(tag: DW_TAG_structure_type, name: "click_icmp", file: !4, line: 26, flags: DIFlagFwdDecl, identifier: "_ZTS10click_icmp")
!194 = !DISubprogram(name: "tcp_header", linkageName: "_ZNK14WritablePacket10tcp_headerEv", scope: !141, file: !4, line: 791, type: !195, scopeLine: 791, flags: DIFlagPublic | DIFlagPrototyped, spFlags: DISPFlagOptimized)
!195 = !DISubroutineType(types: !196)
!196 = !{!197, !147}
!197 = !DIDerivedType(tag: DW_TAG_pointer_type, baseType: !198, size: 64)
!198 = !DICompositeType(tag: DW_TAG_structure_type, name: "click_tcp", file: !4, line: 28, flags: DIFlagFwdDecl, identifier: "_ZTS9click_tcp")
!199 = !DISubprogram(name: "udp_header", linkageName: "_ZNK14WritablePacket10udp_headerEv", scope: !141, file: !4, line: 792, type: !200, scopeLine: 792, flags: DIFlagPublic | DIFlagPrototyped, spFlags: DISPFlagOptimized)
!200 = !DISubroutineType(types: !201)
!201 = !{!202, !147}
!202 = !DIDerivedType(tag: DW_TAG_pointer_type, baseType: !203, size: 64)
!203 = !DICompositeType(tag: DW_TAG_structure_type, name: "click_udp", file: !4, line: 29, flags: DIFlagFwdDecl, identifier: "_ZTS9click_udp")
!204 = !DISubprogram(name: "buffer_data", linkageName: "_ZNK14WritablePacket11buffer_dataEv", scope: !141, file: !4, line: 795, type: !145, scopeLine: 795, flags: DIFlagPublic | DIFlagPrototyped, spFlags: DISPFlagOptimized)
!205 = !DISubprogram(name: "WritablePacket", scope: !141, file: !4, line: 800, type: !206, scopeLine: 800, flags: DIFlagPrototyped, spFlags: DISPFlagOptimized)
!206 = !DISubroutineType(types: !207)
!207 = !{null, !208}
!208 = !DIDerivedType(tag: DW_TAG_pointer_type, baseType: !141, size: 64, flags: DIFlagArtificial | DIFlagObjectPointer)
!209 = !DISubprogram(name: "initialize", linkageName: "_ZN14WritablePacket10initializeEv", scope: !141, file: !4, line: 802, type: !206, scopeLine: 802, flags: DIFlagPrototyped, spFlags: DISPFlagOptimized)
!210 = !DISubprogram(name: "WritablePacket", scope: !141, file: !4, line: 804, type: !211, scopeLine: 804, flags: DIFlagPrototyped, spFlags: DISPFlagOptimized)
!211 = !DISubroutineType(types: !212)
!212 = !{null, !208, !213}
!213 = !DIDerivedType(tag: DW_TAG_reference_type, baseType: !214, size: 64)
!214 = !DIDerivedType(tag: DW_TAG_const_type, baseType: !5)
!215 = !DISubprogram(name: "~WritablePacket", scope: !141, file: !4, line: 805, type: !206, scopeLine: 805, flags: DIFlagPrototyped, spFlags: DISPFlagOptimized)
!216 = !DISubprogram(name: "pool_allocate", linkageName: "_ZN14WritablePacket13pool_allocateEb", scope: !141, file: !4, line: 808, type: !217, scopeLine: 808, flags: DIFlagPrototyped | DIFlagStaticMember, spFlags: DISPFlagOptimized)
!217 = !DISubroutineType(types: !218)
!218 = !{!140, !53}
!219 = !DISubprogram(name: "pool_allocate", linkageName: "_ZN14WritablePacket13pool_allocateEjjj", scope: !141, file: !4, line: 809, type: !220, scopeLine: 809, flags: DIFlagPrototyped | DIFlagStaticMember, spFlags: DISPFlagOptimized)
!220 = !DISubroutineType(types: !221)
!221 = !{!140, !12, !12, !12}
!222 = !DISubprogram(name: "recycle", linkageName: "_ZN14WritablePacket7recycleEPS_", scope: !141, file: !4, line: 811, type: !223, scopeLine: 811, flags: DIFlagPrototyped | DIFlagStaticMember, spFlags: DISPFlagOptimized)
!223 = !DISubroutineType(types: !224)
!224 = !{null, !140}
!225 = !DIDerivedType(tag: DW_TAG_pointer_type, baseType: !226, size: 64)
!226 = !DIDerivedType(tag: DW_TAG_const_type, baseType: null)
!227 = !DISubprogram(name: "make", linkageName: "_ZN6Packet4makeEPKvj", scope: !5, file: !4, line: 54, type: !228, scopeLine: 54, flags: DIFlagPublic | DIFlagPrototyped | DIFlagStaticMember, spFlags: DISPFlagOptimized)
!228 = !DISubroutineType(types: !229)
!229 = !{!140, !225, !12}
!230 = !DISubprogram(name: "make", linkageName: "_ZN6Packet4makeEj", scope: !5, file: !4, line: 55, type: !231, scopeLine: 55, flags: DIFlagPublic | DIFlagPrototyped | DIFlagStaticMember, spFlags: DISPFlagOptimized)
!231 = !DISubroutineType(types: !232)
!232 = !{!140, !12}
!233 = !DISubprogram(name: "make", linkageName: "_ZN6Packet4makeEPhjPFvS0_mPvES1_ii", scope: !5, file: !4, line: 66, type: !234, scopeLine: 66, flags: DIFlagPublic | DIFlagPrototyped | DIFlagStaticMember, spFlags: DISPFlagOptimized)
!234 = !DISubroutineType(types: !235)
!235 = !{!140, !80, !12, !129, !135, !34, !34}
!236 = !DISubprogram(name: "static_cleanup", linkageName: "_ZN6Packet14static_cleanupEv", scope: !5, file: !4, line: 71, type: !237, scopeLine: 71, flags: DIFlagPublic | DIFlagPrototyped | DIFlagStaticMember, spFlags: DISPFlagOptimized)
!237 = !DISubroutineType(types: !238)
!238 = !{null}
!239 = !DISubprogram(name: "kill", linkageName: "_ZN6Packet4killEv", scope: !5, file: !4, line: 73, type: !240, scopeLine: 73, flags: DIFlagPublic | DIFlagPrototyped, spFlags: DISPFlagOptimized)
!240 = !DISubroutineType(types: !241)
!241 = !{null, !242}
!242 = !DIDerivedType(tag: DW_TAG_pointer_type, baseType: !5, size: 64, flags: DIFlagArtificial | DIFlagObjectPointer)
!243 = !DISubprogram(name: "shared", linkageName: "_ZNK6Packet6sharedEv", scope: !5, file: !4, line: 75, type: !244, scopeLine: 75, flags: DIFlagPublic | DIFlagPrototyped, spFlags: DISPFlagOptimized)
!244 = !DISubroutineType(types: !245)
!245 = !{!53, !246}
!246 = !DIDerivedType(tag: DW_TAG_pointer_type, baseType: !214, size: 64, flags: DIFlagArtificial | DIFlagObjectPointer)
!247 = !DISubprogram(name: "clone", linkageName: "_ZN6Packet5cloneEv", scope: !5, file: !4, line: 76, type: !248, scopeLine: 76, flags: DIFlagPublic | DIFlagPrototyped, spFlags: DISPFlagOptimized)
!248 = !DISubroutineType(types: !249)
!249 = !{!78, !242}
!250 = !DISubprogram(name: "uniqueify", linkageName: "_ZN6Packet9uniqueifyEv", scope: !5, file: !4, line: 77, type: !251, scopeLine: 77, flags: DIFlagPublic | DIFlagPrototyped, spFlags: DISPFlagOptimized)
!251 = !DISubroutineType(types: !252)
!252 = !{!140, !242}
!253 = !DISubprogram(name: "data", linkageName: "_ZNK6Packet4dataEv", scope: !5, file: !4, line: 79, type: !254, scopeLine: 79, flags: DIFlagPublic | DIFlagPrototyped, spFlags: DISPFlagOptimized)
!254 = !DISubroutineType(types: !255)
!255 = !{!256, !246}
!256 = !DIDerivedType(tag: DW_TAG_pointer_type, baseType: !257, size: 64)
!257 = !DIDerivedType(tag: DW_TAG_const_type, baseType: !81)
!258 = !DISubprogram(name: "end_data", linkageName: "_ZNK6Packet8end_dataEv", scope: !5, file: !4, line: 80, type: !254, scopeLine: 80, flags: DIFlagPublic | DIFlagPrototyped, spFlags: DISPFlagOptimized)
!259 = !DISubprogram(name: "length", linkageName: "_ZNK6Packet6lengthEv", scope: !5, file: !4, line: 81, type: !260, scopeLine: 81, flags: DIFlagPublic | DIFlagPrototyped, spFlags: DISPFlagOptimized)
!260 = !DISubroutineType(types: !261)
!261 = !{!12, !246}
!262 = !DISubprogram(name: "headroom", linkageName: "_ZNK6Packet8headroomEv", scope: !5, file: !4, line: 82, type: !260, scopeLine: 82, flags: DIFlagPublic | DIFlagPrototyped, spFlags: DISPFlagOptimized)
!263 = !DISubprogram(name: "tailroom", linkageName: "_ZNK6Packet8tailroomEv", scope: !5, file: !4, line: 83, type: !260, scopeLine: 83, flags: DIFlagPublic | DIFlagPrototyped, spFlags: DISPFlagOptimized)
!264 = !DISubprogram(name: "buffer", linkageName: "_ZNK6Packet6bufferEv", scope: !5, file: !4, line: 84, type: !254, scopeLine: 84, flags: DIFlagPublic | DIFlagPrototyped, spFlags: DISPFlagOptimized)
!265 = !DISubprogram(name: "end_buffer", linkageName: "_ZNK6Packet10end_bufferEv", scope: !5, file: !4, line: 85, type: !254, scopeLine: 85, flags: DIFlagPublic | DIFlagPrototyped, spFlags: DISPFlagOptimized)
!266 = !DISubprogram(name: "buffer_length", linkageName: "_ZNK6Packet13buffer_lengthEv", scope: !5, file: !4, line: 86, type: !260, scopeLine: 86, flags: DIFlagPublic | DIFlagPrototyped, spFlags: DISPFlagOptimized)
!267 = !DISubprogram(name: "buffer_destructor", linkageName: "_ZNK6Packet17buffer_destructorEv", scope: !5, file: !4, line: 97, type: !268, scopeLine: 97, flags: DIFlagPublic | DIFlagPrototyped, spFlags: DISPFlagOptimized)
!268 = !DISubroutineType(types: !269)
!269 = !{!129, !246}
!270 = !DISubprogram(name: "set_buffer_destructor", linkageName: "_ZN6Packet21set_buffer_destructorEPFvPhmPvE", scope: !5, file: !4, line: 101, type: !271, scopeLine: 101, flags: DIFlagPublic | DIFlagPrototyped, spFlags: DISPFlagOptimized)
!271 = !DISubroutineType(types: !272)
!272 = !{null, !242, !129}
!273 = !DISubprogram(name: "destructor_argument", linkageName: "_ZN6Packet19destructor_argumentEv", scope: !5, file: !4, line: 105, type: !274, scopeLine: 105, flags: DIFlagPublic | DIFlagPrototyped, spFlags: DISPFlagOptimized)
!274 = !DISubroutineType(types: !275)
!275 = !{!135, !242}
!276 = !DISubprogram(name: "reset_buffer", linkageName: "_ZN6Packet12reset_bufferEv", scope: !5, file: !4, line: 109, type: !240, scopeLine: 109, flags: DIFlagPublic | DIFlagPrototyped, spFlags: DISPFlagOptimized)
!277 = !DISubprogram(name: "push", linkageName: "_ZN6Packet4pushEj", scope: !5, file: !4, line: 141, type: !278, scopeLine: 141, flags: DIFlagPublic | DIFlagPrototyped, spFlags: DISPFlagOptimized)
!278 = !DISubroutineType(types: !279)
!279 = !{!140, !242, !12}
!280 = !DISubprogram(name: "push_mac_header", linkageName: "_ZN6Packet15push_mac_headerEj", scope: !5, file: !4, line: 152, type: !278, scopeLine: 152, flags: DIFlagPublic | DIFlagPrototyped, spFlags: DISPFlagOptimized)
!281 = !DISubprogram(name: "nonunique_push", linkageName: "_ZN6Packet14nonunique_pushEj", scope: !5, file: !4, line: 171, type: !282, scopeLine: 171, flags: DIFlagPublic | DIFlagPrototyped, spFlags: DISPFlagOptimized)
!282 = !DISubroutineType(types: !283)
!283 = !{!78, !242, !12}
!284 = !DISubprogram(name: "pull", linkageName: "_ZN6Packet4pullEj", scope: !5, file: !4, line: 187, type: !285, scopeLine: 187, flags: DIFlagPublic | DIFlagPrototyped, spFlags: DISPFlagOptimized)
!285 = !DISubroutineType(types: !286)
!286 = !{null, !242, !12}
!287 = !DISubprogram(name: "put", linkageName: "_ZN6Packet3putEj", scope: !5, file: !4, line: 213, type: !278, scopeLine: 213, flags: DIFlagPublic | DIFlagPrototyped, spFlags: DISPFlagOptimized)
!288 = !DISubprogram(name: "nonunique_put", linkageName: "_ZN6Packet13nonunique_putEj", scope: !5, file: !4, line: 230, type: !282, scopeLine: 230, flags: DIFlagPublic | DIFlagPrototyped, spFlags: DISPFlagOptimized)
!289 = !DISubprogram(name: "take", linkageName: "_ZN6Packet4takeEj", scope: !5, file: !4, line: 245, type: !285, scopeLine: 245, flags: DIFlagPublic | DIFlagPrototyped, spFlags: DISPFlagOptimized)
!290 = !DISubprogram(name: "shift_data", linkageName: "_ZN6Packet10shift_dataEib", scope: !5, file: !4, line: 269, type: !291, scopeLine: 269, flags: DIFlagPublic | DIFlagPrototyped, spFlags: DISPFlagOptimized)
!291 = !DISubroutineType(types: !292)
!292 = !{!78, !242, !34, !53}
!293 = !DISubprogram(name: "shrink_data", linkageName: "_ZN6Packet11shrink_dataEPKhj", scope: !5, file: !4, line: 271, type: !294, scopeLine: 271, flags: DIFlagPublic | DIFlagPrototyped, spFlags: DISPFlagOptimized)
!294 = !DISubroutineType(types: !295)
!295 = !{null, !242, !256, !12}
!296 = !DISubprogram(name: "change_headroom_and_length", linkageName: "_ZN6Packet26change_headroom_and_lengthEjj", scope: !5, file: !4, line: 272, type: !297, scopeLine: 272, flags: DIFlagPublic | DIFlagPrototyped, spFlags: DISPFlagOptimized)
!297 = !DISubroutineType(types: !298)
!298 = !{null, !242, !12, !12}
!299 = !DISubprogram(name: "copy", linkageName: "_ZN6Packet4copyEPS_i", scope: !5, file: !4, line: 274, type: !300, scopeLine: 274, flags: DIFlagPublic | DIFlagPrototyped, spFlags: DISPFlagOptimized)
!300 = !DISubroutineType(types: !301)
!301 = !{!53, !242, !78, !34}
!302 = !DISubprogram(name: "has_mac_header", linkageName: "_ZNK6Packet14has_mac_headerEv", scope: !5, file: !4, line: 279, type: !244, scopeLine: 279, flags: DIFlagPublic | DIFlagPrototyped, spFlags: DISPFlagOptimized)
!303 = !DISubprogram(name: "mac_header", linkageName: "_ZNK6Packet10mac_headerEv", scope: !5, file: !4, line: 280, type: !254, scopeLine: 280, flags: DIFlagPublic | DIFlagPrototyped, spFlags: DISPFlagOptimized)
!304 = !DISubprogram(name: "mac_header_offset", linkageName: "_ZNK6Packet17mac_header_offsetEv", scope: !5, file: !4, line: 281, type: !305, scopeLine: 281, flags: DIFlagPublic | DIFlagPrototyped, spFlags: DISPFlagOptimized)
!305 = !DISubroutineType(types: !306)
!306 = !{!34, !246}
!307 = !DISubprogram(name: "mac_header_length", linkageName: "_ZNK6Packet17mac_header_lengthEv", scope: !5, file: !4, line: 282, type: !260, scopeLine: 282, flags: DIFlagPublic | DIFlagPrototyped, spFlags: DISPFlagOptimized)
!308 = !DISubprogram(name: "mac_length", linkageName: "_ZNK6Packet10mac_lengthEv", scope: !5, file: !4, line: 283, type: !305, scopeLine: 283, flags: DIFlagPublic | DIFlagPrototyped, spFlags: DISPFlagOptimized)
!309 = !DISubprogram(name: "set_mac_header", linkageName: "_ZN6Packet14set_mac_headerEPKh", scope: !5, file: !4, line: 284, type: !310, scopeLine: 284, flags: DIFlagPublic | DIFlagPrototyped, spFlags: DISPFlagOptimized)
!310 = !DISubroutineType(types: !311)
!311 = !{null, !242, !256}
!312 = !DISubprogram(name: "set_mac_header", linkageName: "_ZN6Packet14set_mac_headerEPKhj", scope: !5, file: !4, line: 285, type: !294, scopeLine: 285, flags: DIFlagPublic | DIFlagPrototyped, spFlags: DISPFlagOptimized)
!313 = !DISubprogram(name: "clear_mac_header", linkageName: "_ZN6Packet16clear_mac_headerEv", scope: !5, file: !4, line: 286, type: !240, scopeLine: 286, flags: DIFlagPublic | DIFlagPrototyped, spFlags: DISPFlagOptimized)
!314 = !DISubprogram(name: "has_network_header", linkageName: "_ZNK6Packet18has_network_headerEv", scope: !5, file: !4, line: 288, type: !244, scopeLine: 288, flags: DIFlagPublic | DIFlagPrototyped, spFlags: DISPFlagOptimized)
!315 = !DISubprogram(name: "network_header", linkageName: "_ZNK6Packet14network_headerEv", scope: !5, file: !4, line: 289, type: !254, scopeLine: 289, flags: DIFlagPublic | DIFlagPrototyped, spFlags: DISPFlagOptimized)
!316 = !DISubprogram(name: "network_header_offset", linkageName: "_ZNK6Packet21network_header_offsetEv", scope: !5, file: !4, line: 290, type: !305, scopeLine: 290, flags: DIFlagPublic | DIFlagPrototyped, spFlags: DISPFlagOptimized)
!317 = !DISubprogram(name: "network_header_length", linkageName: "_ZNK6Packet21network_header_lengthEv", scope: !5, file: !4, line: 291, type: !260, scopeLine: 291, flags: DIFlagPublic | DIFlagPrototyped, spFlags: DISPFlagOptimized)
!318 = !DISubprogram(name: "network_length", linkageName: "_ZNK6Packet14network_lengthEv", scope: !5, file: !4, line: 292, type: !305, scopeLine: 292, flags: DIFlagPublic | DIFlagPrototyped, spFlags: DISPFlagOptimized)
!319 = !DISubprogram(name: "set_network_header", linkageName: "_ZN6Packet18set_network_headerEPKhj", scope: !5, file: !4, line: 293, type: !294, scopeLine: 293, flags: DIFlagPublic | DIFlagPrototyped, spFlags: DISPFlagOptimized)
!320 = !DISubprogram(name: "set_network_header_length", linkageName: "_ZN6Packet25set_network_header_lengthEj", scope: !5, file: !4, line: 294, type: !285, scopeLine: 294, flags: DIFlagPublic | DIFlagPrototyped, spFlags: DISPFlagOptimized)
!321 = !DISubprogram(name: "clear_network_header", linkageName: "_ZN6Packet20clear_network_headerEv", scope: !5, file: !4, line: 295, type: !240, scopeLine: 295, flags: DIFlagPublic | DIFlagPrototyped, spFlags: DISPFlagOptimized)
!322 = !DISubprogram(name: "has_transport_header", linkageName: "_ZNK6Packet20has_transport_headerEv", scope: !5, file: !4, line: 297, type: !244, scopeLine: 297, flags: DIFlagPublic | DIFlagPrototyped, spFlags: DISPFlagOptimized)
!323 = !DISubprogram(name: "transport_header", linkageName: "_ZNK6Packet16transport_headerEv", scope: !5, file: !4, line: 298, type: !254, scopeLine: 298, flags: DIFlagPublic | DIFlagPrototyped, spFlags: DISPFlagOptimized)
!324 = !DISubprogram(name: "transport_header_offset", linkageName: "_ZNK6Packet23transport_header_offsetEv", scope: !5, file: !4, line: 299, type: !305, scopeLine: 299, flags: DIFlagPublic | DIFlagPrototyped, spFlags: DISPFlagOptimized)
!325 = !DISubprogram(name: "transport_length", linkageName: "_ZNK6Packet16transport_lengthEv", scope: !5, file: !4, line: 300, type: !305, scopeLine: 300, flags: DIFlagPublic | DIFlagPrototyped, spFlags: DISPFlagOptimized)
!326 = !DISubprogram(name: "clear_transport_header", linkageName: "_ZN6Packet22clear_transport_headerEv", scope: !5, file: !4, line: 301, type: !240, scopeLine: 301, flags: DIFlagPublic | DIFlagPrototyped, spFlags: DISPFlagOptimized)
!327 = !DISubprogram(name: "ether_header", linkageName: "_ZNK6Packet12ether_headerEv", scope: !5, file: !4, line: 304, type: !328, scopeLine: 304, flags: DIFlagPublic | DIFlagPrototyped, spFlags: DISPFlagOptimized)
!328 = !DISubroutineType(types: !329)
!329 = !{!330, !246}
!330 = !DIDerivedType(tag: DW_TAG_pointer_type, baseType: !331, size: 64)
!331 = !DIDerivedType(tag: DW_TAG_const_type, baseType: !157)
!332 = !DISubprogram(name: "set_ether_header", linkageName: "_ZN6Packet16set_ether_headerEPK11click_ether", scope: !5, file: !4, line: 305, type: !333, scopeLine: 305, flags: DIFlagPublic | DIFlagPrototyped, spFlags: DISPFlagOptimized)
!333 = !DISubroutineType(types: !334)
!334 = !{null, !242, !330}
!335 = !DISubprogram(name: "ip_header", linkageName: "_ZNK6Packet9ip_headerEv", scope: !5, file: !4, line: 307, type: !336, scopeLine: 307, flags: DIFlagPublic | DIFlagPrototyped, spFlags: DISPFlagOptimized)
!336 = !DISubroutineType(types: !337)
!337 = !{!338, !246}
!338 = !DIDerivedType(tag: DW_TAG_pointer_type, baseType: !339, size: 64)
!339 = !DIDerivedType(tag: DW_TAG_const_type, baseType: !163)
!340 = !DISubprogram(name: "ip_header_offset", linkageName: "_ZNK6Packet16ip_header_offsetEv", scope: !5, file: !4, line: 308, type: !305, scopeLine: 308, flags: DIFlagPublic | DIFlagPrototyped, spFlags: DISPFlagOptimized)
!341 = !DISubprogram(name: "ip_header_length", linkageName: "_ZNK6Packet16ip_header_lengthEv", scope: !5, file: !4, line: 309, type: !260, scopeLine: 309, flags: DIFlagPublic | DIFlagPrototyped, spFlags: DISPFlagOptimized)
!342 = !DISubprogram(name: "set_ip_header", linkageName: "_ZN6Packet13set_ip_headerEPK8click_ipj", scope: !5, file: !4, line: 310, type: !343, scopeLine: 310, flags: DIFlagPublic | DIFlagPrototyped, spFlags: DISPFlagOptimized)
!343 = !DISubroutineType(types: !344)
!344 = !{null, !242, !338, !12}
!345 = !DISubprogram(name: "ip6_header", linkageName: "_ZNK6Packet10ip6_headerEv", scope: !5, file: !4, line: 312, type: !346, scopeLine: 312, flags: DIFlagPublic | DIFlagPrototyped, spFlags: DISPFlagOptimized)
!346 = !DISubroutineType(types: !347)
!347 = !{!348, !246}
!348 = !DIDerivedType(tag: DW_TAG_pointer_type, baseType: !349, size: 64)
!349 = !DIDerivedType(tag: DW_TAG_const_type, baseType: !186)
!350 = !DISubprogram(name: "ip6_header_offset", linkageName: "_ZNK6Packet17ip6_header_offsetEv", scope: !5, file: !4, line: 313, type: !305, scopeLine: 313, flags: DIFlagPublic | DIFlagPrototyped, spFlags: DISPFlagOptimized)
!351 = !DISubprogram(name: "ip6_header_length", linkageName: "_ZNK6Packet17ip6_header_lengthEv", scope: !5, file: !4, line: 314, type: !260, scopeLine: 314, flags: DIFlagPublic | DIFlagPrototyped, spFlags: DISPFlagOptimized)
!352 = !DISubprogram(name: "set_ip6_header", linkageName: "_ZN6Packet14set_ip6_headerEPK9click_ip6", scope: !5, file: !4, line: 315, type: !353, scopeLine: 315, flags: DIFlagPublic | DIFlagPrototyped, spFlags: DISPFlagOptimized)
!353 = !DISubroutineType(types: !354)
!354 = !{null, !242, !348}
!355 = !DISubprogram(name: "set_ip6_header", linkageName: "_ZN6Packet14set_ip6_headerEPK9click_ip6j", scope: !5, file: !4, line: 316, type: !356, scopeLine: 316, flags: DIFlagPublic | DIFlagPrototyped, spFlags: DISPFlagOptimized)
!356 = !DISubroutineType(types: !357)
!357 = !{null, !242, !348, !12}
!358 = !DISubprogram(name: "icmp_header", linkageName: "_ZNK6Packet11icmp_headerEv", scope: !5, file: !4, line: 318, type: !359, scopeLine: 318, flags: DIFlagPublic | DIFlagPrototyped, spFlags: DISPFlagOptimized)
!359 = !DISubroutineType(types: !360)
!360 = !{!361, !246}
!361 = !DIDerivedType(tag: DW_TAG_pointer_type, baseType: !362, size: 64)
!362 = !DIDerivedType(tag: DW_TAG_const_type, baseType: !193)
!363 = !DISubprogram(name: "tcp_header", linkageName: "_ZNK6Packet10tcp_headerEv", scope: !5, file: !4, line: 319, type: !364, scopeLine: 319, flags: DIFlagPublic | DIFlagPrototyped, spFlags: DISPFlagOptimized)
!364 = !DISubroutineType(types: !365)
!365 = !{!366, !246}
!366 = !DIDerivedType(tag: DW_TAG_pointer_type, baseType: !367, size: 64)
!367 = !DIDerivedType(tag: DW_TAG_const_type, baseType: !198)
!368 = !DISubprogram(name: "udp_header", linkageName: "_ZNK6Packet10udp_headerEv", scope: !5, file: !4, line: 320, type: !369, scopeLine: 320, flags: DIFlagPublic | DIFlagPrototyped, spFlags: DISPFlagOptimized)
!369 = !DISubroutineType(types: !370)
!370 = !{!371, !246}
!371 = !DIDerivedType(tag: DW_TAG_pointer_type, baseType: !372, size: 64)
!372 = !DIDerivedType(tag: DW_TAG_const_type, baseType: !203)
!373 = !DISubprogram(name: "xanno", linkageName: "_ZNK6Packet5xannoEv", scope: !5, file: !4, line: 340, type: !374, scopeLine: 340, flags: DIFlagPrototyped, spFlags: DISPFlagOptimized)
!374 = !DISubroutineType(types: !375)
!375 = !{!376, !246}
!376 = !DIDerivedType(tag: DW_TAG_pointer_type, baseType: !377, size: 64)
!377 = !DIDerivedType(tag: DW_TAG_const_type, baseType: !89)
!378 = !DISubprogram(name: "xanno", linkageName: "_ZN6Packet5xannoEv", scope: !5, file: !4, line: 341, type: !379, scopeLine: 341, flags: DIFlagPrototyped, spFlags: DISPFlagOptimized)
!379 = !DISubroutineType(types: !380)
!380 = !{!381, !242}
!381 = !DIDerivedType(tag: DW_TAG_pointer_type, baseType: !89, size: 64)
!382 = !DISubprogram(name: "timestamp_anno", linkageName: "_ZNK6Packet14timestamp_annoEv", scope: !5, file: !4, line: 354, type: !383, scopeLine: 354, flags: DIFlagPublic | DIFlagPrototyped, spFlags: DISPFlagOptimized)
!383 = !DISubroutineType(types: !384)
!384 = !{!385, !246}
!385 = !DIDerivedType(tag: DW_TAG_reference_type, baseType: !386, size: 64)
!386 = !DIDerivedType(tag: DW_TAG_const_type, baseType: !387)
!387 = distinct !DICompositeType(tag: DW_TAG_class_type, name: "Timestamp", file: !388, line: 122, size: 64, flags: DIFlagTypePassByValue | DIFlagNonTrivial, elements: !389, identifier: "_ZTS9Timestamp")
!388 = !DIFile(filename: "../dummy_inc/click/timestamp.hh", directory: "/home/john/projects/click/ir-dir")
!389 = !{!390, !397, !401, !404, !407, !410, !413, !417, !429, !440, !445, !454, !463, !466, !467, !470, !471, !472, !473, !476, !479, !480, !481, !482, !485, !486, !489, !492, !496, !497, !498, !501, !502, !503, !508, !512, !515, !518, !521, !524, !525, !526, !527, !528, !531, !532, !535, !536, !537, !538, !539, !540, !541, !544, !545, !546, !547, !548, !549, !550, !551, !552, !842, !843, !846, !847, !848, !849, !850, !851, !852, !855, !864, !867, !868, !871, !874, !875, !876, !877, !878, !879, !880, !883, !887, !890, !893, !896}
!390 = !DIDerivedType(tag: DW_TAG_member, name: "_t", scope: !387, file: !388, line: 672, baseType: !391, size: 64)
!391 = distinct !DICompositeType(tag: DW_TAG_union_type, name: "rep_t", scope: !387, file: !388, line: 539, size: 64, flags: DIFlagTypePassByValue, elements: !392, identifier: "_ZTSN9Timestamp5rep_tE")
!392 = !{!393}
!393 = !DIDerivedType(tag: DW_TAG_member, name: "x", scope: !391, file: !388, line: 541, baseType: !394, size: 64)
!394 = !DIDerivedType(tag: DW_TAG_typedef, name: "int64_t", file: !32, line: 27, baseType: !395)
!395 = !DIDerivedType(tag: DW_TAG_typedef, name: "__int64_t", file: !15, line: 44, baseType: !396)
!396 = !DIBasicType(name: "long int", size: 64, encoding: DW_ATE_signed)
!397 = !DISubprogram(name: "Timestamp", scope: !387, file: !388, line: 174, type: !398, scopeLine: 174, flags: DIFlagPublic | DIFlagPrototyped, spFlags: DISPFlagOptimized)
!398 = !DISubroutineType(types: !399)
!399 = !{null, !400}
!400 = !DIDerivedType(tag: DW_TAG_pointer_type, baseType: !387, size: 64, flags: DIFlagArtificial | DIFlagObjectPointer)
!401 = !DISubprogram(name: "Timestamp", scope: !387, file: !388, line: 187, type: !402, scopeLine: 187, flags: DIFlagPublic | DIFlagExplicit | DIFlagPrototyped, spFlags: DISPFlagOptimized)
!402 = !DISubroutineType(types: !403)
!403 = !{null, !400, !396, !12}
!404 = !DISubprogram(name: "Timestamp", scope: !387, file: !388, line: 191, type: !405, scopeLine: 191, flags: DIFlagPublic | DIFlagExplicit | DIFlagPrototyped, spFlags: DISPFlagOptimized)
!405 = !DISubroutineType(types: !406)
!406 = !{null, !400, !34, !12}
!407 = !DISubprogram(name: "Timestamp", scope: !387, file: !388, line: 195, type: !408, scopeLine: 195, flags: DIFlagPublic | DIFlagExplicit | DIFlagPrototyped, spFlags: DISPFlagOptimized)
!408 = !DISubroutineType(types: !409)
!409 = !{null, !400, !115, !12}
!410 = !DISubprogram(name: "Timestamp", scope: !387, file: !388, line: 199, type: !411, scopeLine: 199, flags: DIFlagPublic | DIFlagExplicit | DIFlagPrototyped, spFlags: DISPFlagOptimized)
!411 = !DISubroutineType(types: !412)
!412 = !{null, !400, !16, !12}
!413 = !DISubprogram(name: "Timestamp", scope: !387, file: !388, line: 203, type: !414, scopeLine: 203, flags: DIFlagPublic | DIFlagExplicit | DIFlagPrototyped, spFlags: DISPFlagOptimized)
!414 = !DISubroutineType(types: !415)
!415 = !{null, !400, !416}
!416 = !DIBasicType(name: "double", size: 64, encoding: DW_ATE_float)
!417 = !DISubprogram(name: "Timestamp", scope: !387, file: !388, line: 206, type: !418, scopeLine: 206, flags: DIFlagPublic | DIFlagPrototyped, spFlags: DISPFlagOptimized)
!418 = !DISubroutineType(types: !419)
!419 = !{null, !400, !420}
!420 = !DIDerivedType(tag: DW_TAG_reference_type, baseType: !421, size: 64)
!421 = !DIDerivedType(tag: DW_TAG_const_type, baseType: !422)
!422 = distinct !DICompositeType(tag: DW_TAG_structure_type, name: "timeval", file: !423, line: 8, size: 128, flags: DIFlagTypePassByValue, elements: !424, identifier: "_ZTS7timeval")
!423 = !DIFile(filename: "/usr/include/bits/types/struct_timeval.h", directory: "")
!424 = !{!425, !427}
!425 = !DIDerivedType(tag: DW_TAG_member, name: "tv_sec", scope: !422, file: !423, line: 10, baseType: !426, size: 64)
!426 = !DIDerivedType(tag: DW_TAG_typedef, name: "__time_t", file: !15, line: 160, baseType: !396)
!427 = !DIDerivedType(tag: DW_TAG_member, name: "tv_usec", scope: !422, file: !423, line: 11, baseType: !428, size: 64, offset: 64)
!428 = !DIDerivedType(tag: DW_TAG_typedef, name: "__suseconds_t", file: !15, line: 162, baseType: !396)
!429 = !DISubprogram(name: "Timestamp", scope: !387, file: !388, line: 208, type: !430, scopeLine: 208, flags: DIFlagPublic | DIFlagPrototyped, spFlags: DISPFlagOptimized)
!430 = !DISubroutineType(types: !431)
!431 = !{null, !400, !432}
!432 = !DIDerivedType(tag: DW_TAG_reference_type, baseType: !433, size: 64)
!433 = !DIDerivedType(tag: DW_TAG_const_type, baseType: !434)
!434 = distinct !DICompositeType(tag: DW_TAG_structure_type, name: "timespec", file: !435, line: 10, size: 128, flags: DIFlagTypePassByValue, elements: !436, identifier: "_ZTS8timespec")
!435 = !DIFile(filename: "/usr/include/bits/types/struct_timespec.h", directory: "")
!436 = !{!437, !438}
!437 = !DIDerivedType(tag: DW_TAG_member, name: "tv_sec", scope: !434, file: !435, line: 12, baseType: !426, size: 64)
!438 = !DIDerivedType(tag: DW_TAG_member, name: "tv_nsec", scope: !434, file: !435, line: 16, baseType: !439, size: 64, offset: 64)
!439 = !DIDerivedType(tag: DW_TAG_typedef, name: "__syscall_slong_t", file: !15, line: 196, baseType: !396)
!440 = !DISubprogram(name: "Timestamp", scope: !387, file: !388, line: 212, type: !441, scopeLine: 212, flags: DIFlagPublic | DIFlagPrototyped, spFlags: DISPFlagOptimized)
!441 = !DISubroutineType(types: !442)
!442 = !{null, !400, !443}
!443 = !DIDerivedType(tag: DW_TAG_reference_type, baseType: !444, size: 64)
!444 = !DIDerivedType(tag: DW_TAG_const_type, baseType: !391)
!445 = !DISubprogram(name: "Timestamp", scope: !387, file: !388, line: 217, type: !446, scopeLine: 217, flags: DIFlagPublic | DIFlagPrototyped, spFlags: DISPFlagOptimized)
!446 = !DISubroutineType(types: !447)
!447 = !{null, !400, !448}
!448 = !DIDerivedType(tag: DW_TAG_reference_type, baseType: !449, size: 64)
!449 = !DIDerivedType(tag: DW_TAG_const_type, baseType: !450)
!450 = !DIDerivedType(tag: DW_TAG_typedef, name: "uninitialized_t", scope: !387, file: !388, line: 168, baseType: !451)
!451 = distinct !DICompositeType(tag: DW_TAG_structure_type, name: "uninitialized_type", file: !452, line: 317, size: 8, flags: DIFlagTypePassByValue, elements: !453, identifier: "_ZTS18uninitialized_type")
!452 = !DIFile(filename: "../dummy_inc/click/config.h", directory: "/home/john/projects/click/ir-dir")
!453 = !{}
!454 = !DISubprogram(name: "operator int (Timestamp::*)() const", linkageName: "_ZNK9TimestampcvMS_KFivEEv", scope: !387, file: !388, line: 222, type: !455, scopeLine: 222, flags: DIFlagPublic | DIFlagPrototyped, spFlags: DISPFlagOptimized)
!455 = !DISubroutineType(types: !456)
!456 = !{!457, !462}
!457 = !DIDerivedType(tag: DW_TAG_typedef, name: "unspecified_bool_type", scope: !387, file: !388, line: 221, baseType: !458)
!458 = !DIDerivedType(tag: DW_TAG_ptr_to_member_type, baseType: !459, size: 128, extraData: !387)
!459 = !DISubroutineType(types: !460)
!460 = !{!461, !462}
!461 = !DIDerivedType(tag: DW_TAG_typedef, name: "seconds_type", scope: !387, file: !388, line: 125, baseType: !31)
!462 = !DIDerivedType(tag: DW_TAG_pointer_type, baseType: !386, size: 64, flags: DIFlagArtificial | DIFlagObjectPointer)
!463 = !DISubprogram(name: "is_negative", linkageName: "_ZNK9Timestamp11is_negativeEv", scope: !387, file: !388, line: 225, type: !464, scopeLine: 225, flags: DIFlagPublic | DIFlagPrototyped, spFlags: DISPFlagOptimized)
!464 = !DISubroutineType(types: !465)
!465 = !{!53, !462}
!466 = !DISubprogram(name: "sec", linkageName: "_ZNK9Timestamp3secEv", scope: !387, file: !388, line: 233, type: !459, scopeLine: 233, flags: DIFlagPublic | DIFlagPrototyped, spFlags: DISPFlagOptimized)
!467 = !DISubprogram(name: "subsec", linkageName: "_ZNK9Timestamp6subsecEv", scope: !387, file: !388, line: 234, type: !468, scopeLine: 234, flags: DIFlagPublic | DIFlagPrototyped, spFlags: DISPFlagOptimized)
!468 = !DISubroutineType(types: !469)
!469 = !{!12, !462}
!470 = !DISubprogram(name: "msec", linkageName: "_ZNK9Timestamp4msecEv", scope: !387, file: !388, line: 235, type: !468, scopeLine: 235, flags: DIFlagPublic | DIFlagPrototyped, spFlags: DISPFlagOptimized)
!471 = !DISubprogram(name: "usec", linkageName: "_ZNK9Timestamp4usecEv", scope: !387, file: !388, line: 236, type: !468, scopeLine: 236, flags: DIFlagPublic | DIFlagPrototyped, spFlags: DISPFlagOptimized)
!472 = !DISubprogram(name: "nsec", linkageName: "_ZNK9Timestamp4nsecEv", scope: !387, file: !388, line: 237, type: !468, scopeLine: 237, flags: DIFlagPublic | DIFlagPrototyped, spFlags: DISPFlagOptimized)
!473 = !DISubprogram(name: "set_sec", linkageName: "_ZN9Timestamp7set_secEi", scope: !387, file: !388, line: 239, type: !474, scopeLine: 239, flags: DIFlagPublic | DIFlagPrototyped, spFlags: DISPFlagOptimized)
!474 = !DISubroutineType(types: !475)
!475 = !{null, !400, !461}
!476 = !DISubprogram(name: "set_subsec", linkageName: "_ZN9Timestamp10set_subsecEj", scope: !387, file: !388, line: 240, type: !477, scopeLine: 240, flags: DIFlagPublic | DIFlagPrototyped, spFlags: DISPFlagOptimized)
!477 = !DISubroutineType(types: !478)
!478 = !{null, !400, !12}
!479 = !DISubprogram(name: "msec1", linkageName: "_ZNK9Timestamp5msec1Ev", scope: !387, file: !388, line: 242, type: !459, scopeLine: 242, flags: DIFlagPublic | DIFlagPrototyped, spFlags: DISPFlagOptimized)
!480 = !DISubprogram(name: "usec1", linkageName: "_ZNK9Timestamp5usec1Ev", scope: !387, file: !388, line: 243, type: !459, scopeLine: 243, flags: DIFlagPublic | DIFlagPrototyped, spFlags: DISPFlagOptimized)
!481 = !DISubprogram(name: "nsec1", linkageName: "_ZNK9Timestamp5nsec1Ev", scope: !387, file: !388, line: 244, type: !459, scopeLine: 244, flags: DIFlagPublic | DIFlagPrototyped, spFlags: DISPFlagOptimized)
!482 = !DISubprogram(name: "timeval", linkageName: "_ZNK9Timestamp7timevalEv", scope: !387, file: !388, line: 250, type: !483, scopeLine: 250, flags: DIFlagPublic | DIFlagPrototyped, spFlags: DISPFlagOptimized)
!483 = !DISubroutineType(types: !484)
!484 = !{!422, !462}
!485 = !DISubprogram(name: "timeval_ceil", linkageName: "_ZNK9Timestamp12timeval_ceilEv", scope: !387, file: !388, line: 251, type: !483, scopeLine: 251, flags: DIFlagPublic | DIFlagPrototyped, spFlags: DISPFlagOptimized)
!486 = !DISubprogram(name: "timespec", linkageName: "_ZNK9Timestamp8timespecEv", scope: !387, file: !388, line: 257, type: !487, scopeLine: 257, flags: DIFlagPublic | DIFlagPrototyped, spFlags: DISPFlagOptimized)
!487 = !DISubroutineType(types: !488)
!488 = !{!434, !462}
!489 = !DISubprogram(name: "doubleval", linkageName: "_ZNK9Timestamp9doublevalEv", scope: !387, file: !388, line: 262, type: !490, scopeLine: 262, flags: DIFlagPublic | DIFlagPrototyped, spFlags: DISPFlagOptimized)
!490 = !DISubroutineType(types: !491)
!491 = !{!416, !462}
!492 = !DISubprogram(name: "msecval", linkageName: "_ZNK9Timestamp7msecvalEv", scope: !387, file: !388, line: 265, type: !493, scopeLine: 265, flags: DIFlagPublic | DIFlagPrototyped, spFlags: DISPFlagOptimized)
!493 = !DISubroutineType(types: !494)
!494 = !{!495, !462}
!495 = !DIDerivedType(tag: DW_TAG_typedef, name: "value_type", scope: !387, file: !388, line: 128, baseType: !394)
!496 = !DISubprogram(name: "usecval", linkageName: "_ZNK9Timestamp7usecvalEv", scope: !387, file: !388, line: 273, type: !493, scopeLine: 273, flags: DIFlagPublic | DIFlagPrototyped, spFlags: DISPFlagOptimized)
!497 = !DISubprogram(name: "nsecval", linkageName: "_ZNK9Timestamp7nsecvalEv", scope: !387, file: !388, line: 281, type: !493, scopeLine: 281, flags: DIFlagPublic | DIFlagPrototyped, spFlags: DISPFlagOptimized)
!498 = !DISubprogram(name: "msec_ceil", linkageName: "_ZNK9Timestamp9msec_ceilEv", scope: !387, file: !388, line: 290, type: !499, scopeLine: 290, flags: DIFlagPublic | DIFlagPrototyped, spFlags: DISPFlagOptimized)
!499 = !DISubroutineType(types: !500)
!500 = !{!387, !462}
!501 = !DISubprogram(name: "usec_ceil", linkageName: "_ZNK9Timestamp9usec_ceilEv", scope: !387, file: !388, line: 295, type: !499, scopeLine: 295, flags: DIFlagPublic | DIFlagPrototyped, spFlags: DISPFlagOptimized)
!502 = !DISubprogram(name: "nsec_ceil", linkageName: "_ZNK9Timestamp9nsec_ceilEv", scope: !387, file: !388, line: 304, type: !499, scopeLine: 304, flags: DIFlagPublic | DIFlagPrototyped, spFlags: DISPFlagOptimized)
!503 = !DISubprogram(name: "make_jiffies", linkageName: "_ZN9Timestamp12make_jiffiesEj", scope: !387, file: !388, line: 310, type: !504, scopeLine: 310, flags: DIFlagPublic | DIFlagPrototyped | DIFlagStaticMember, spFlags: DISPFlagOptimized)
!504 = !DISubroutineType(types: !505)
!505 = !{!387, !506}
!506 = !DIDerivedType(tag: DW_TAG_typedef, name: "click_jiffies_t", file: !507, line: 477, baseType: !16)
!507 = !DIFile(filename: "../dummy_inc/click/glue.hh", directory: "/home/john/projects/click/ir-dir")
!508 = !DISubprogram(name: "make_jiffies", linkageName: "_ZN9Timestamp12make_jiffiesEi", scope: !387, file: !388, line: 312, type: !509, scopeLine: 312, flags: DIFlagPublic | DIFlagPrototyped | DIFlagStaticMember, spFlags: DISPFlagOptimized)
!509 = !DISubroutineType(types: !510)
!510 = !{!387, !511}
!511 = !DIDerivedType(tag: DW_TAG_typedef, name: "click_jiffies_difference_t", file: !507, line: 478, baseType: !34)
!512 = !DISubprogram(name: "jiffies", linkageName: "_ZNK9Timestamp7jiffiesEv", scope: !387, file: !388, line: 314, type: !513, scopeLine: 314, flags: DIFlagPublic | DIFlagPrototyped, spFlags: DISPFlagOptimized)
!513 = !DISubroutineType(types: !514)
!514 = !{!506, !462}
!515 = !DISubprogram(name: "make_sec", linkageName: "_ZN9Timestamp8make_secEi", scope: !387, file: !388, line: 318, type: !516, scopeLine: 318, flags: DIFlagPublic | DIFlagPrototyped | DIFlagStaticMember, spFlags: DISPFlagOptimized)
!516 = !DISubroutineType(types: !517)
!517 = !{!387, !461}
!518 = !DISubprogram(name: "make_msec", linkageName: "_ZN9Timestamp9make_msecEij", scope: !387, file: !388, line: 324, type: !519, scopeLine: 324, flags: DIFlagPublic | DIFlagPrototyped | DIFlagStaticMember, spFlags: DISPFlagOptimized)
!519 = !DISubroutineType(types: !520)
!520 = !{!387, !461, !12}
!521 = !DISubprogram(name: "make_msec", linkageName: "_ZN9Timestamp9make_msecEl", scope: !387, file: !388, line: 328, type: !522, scopeLine: 328, flags: DIFlagPublic | DIFlagPrototyped | DIFlagStaticMember, spFlags: DISPFlagOptimized)
!522 = !DISubroutineType(types: !523)
!523 = !{!387, !495}
!524 = !DISubprogram(name: "make_usec", linkageName: "_ZN9Timestamp9make_usecEij", scope: !387, file: !388, line: 341, type: !519, scopeLine: 341, flags: DIFlagPublic | DIFlagPrototyped | DIFlagStaticMember, spFlags: DISPFlagOptimized)
!525 = !DISubprogram(name: "make_usec", linkageName: "_ZN9Timestamp9make_usecEl", scope: !387, file: !388, line: 345, type: !522, scopeLine: 345, flags: DIFlagPublic | DIFlagPrototyped | DIFlagStaticMember, spFlags: DISPFlagOptimized)
!526 = !DISubprogram(name: "make_nsec", linkageName: "_ZN9Timestamp9make_nsecEij", scope: !387, file: !388, line: 358, type: !519, scopeLine: 358, flags: DIFlagPublic | DIFlagPrototyped | DIFlagStaticMember, spFlags: DISPFlagOptimized)
!527 = !DISubprogram(name: "make_nsec", linkageName: "_ZN9Timestamp9make_nsecEl", scope: !387, file: !388, line: 362, type: !522, scopeLine: 362, flags: DIFlagPublic | DIFlagPrototyped | DIFlagStaticMember, spFlags: DISPFlagOptimized)
!528 = !DISubprogram(name: "epsilon", linkageName: "_ZN9Timestamp7epsilonEv", scope: !387, file: !388, line: 375, type: !529, scopeLine: 375, flags: DIFlagPublic | DIFlagPrototyped | DIFlagStaticMember, spFlags: DISPFlagOptimized)
!529 = !DISubroutineType(types: !530)
!530 = !{!387}
!531 = !DISubprogram(name: "clear", linkageName: "_ZN9Timestamp5clearEv", scope: !387, file: !388, line: 380, type: !398, scopeLine: 380, flags: DIFlagPublic | DIFlagPrototyped, spFlags: DISPFlagOptimized)
!532 = !DISubprogram(name: "assign", linkageName: "_ZN9Timestamp6assignEij", scope: !387, file: !388, line: 388, type: !533, scopeLine: 388, flags: DIFlagPublic | DIFlagPrototyped, spFlags: DISPFlagOptimized)
!533 = !DISubroutineType(types: !534)
!534 = !{null, !400, !461, !12}
!535 = !DISubprogram(name: "assign_usec", linkageName: "_ZN9Timestamp11assign_usecEij", scope: !387, file: !388, line: 397, type: !533, scopeLine: 397, flags: DIFlagPublic | DIFlagPrototyped, spFlags: DISPFlagOptimized)
!536 = !DISubprogram(name: "assign_nsec", linkageName: "_ZN9Timestamp11assign_nsecEij", scope: !387, file: !388, line: 401, type: !533, scopeLine: 401, flags: DIFlagPublic | DIFlagPrototyped, spFlags: DISPFlagOptimized)
!537 = !DISubprogram(name: "set", linkageName: "_ZN9Timestamp3setEij", scope: !387, file: !388, line: 408, type: !533, scopeLine: 408, flags: DIFlagPublic | DIFlagPrototyped, spFlags: DISPFlagOptimized)
!538 = !DISubprogram(name: "set_usec", linkageName: "_ZN9Timestamp8set_usecEij", scope: !387, file: !388, line: 411, type: !533, scopeLine: 411, flags: DIFlagPublic | DIFlagPrototyped, spFlags: DISPFlagOptimized)
!539 = !DISubprogram(name: "set_nsec", linkageName: "_ZN9Timestamp8set_nsecEij", scope: !387, file: !388, line: 414, type: !533, scopeLine: 414, flags: DIFlagPublic | DIFlagPrototyped, spFlags: DISPFlagOptimized)
!540 = !DISubprogram(name: "set_now", linkageName: "_ZN9Timestamp7set_nowEv", scope: !387, file: !388, line: 417, type: !398, scopeLine: 417, flags: DIFlagPublic | DIFlagPrototyped, spFlags: DISPFlagOptimized)
!541 = !DISubprogram(name: "set_timeval_ioctl", linkageName: "_ZN9Timestamp17set_timeval_ioctlEii", scope: !387, file: !388, line: 420, type: !542, scopeLine: 420, flags: DIFlagPublic | DIFlagPrototyped, spFlags: DISPFlagOptimized)
!542 = !DISubroutineType(types: !543)
!543 = !{!34, !400, !34, !34}
!544 = !DISubprogram(name: "now", linkageName: "_ZN9Timestamp3nowEv", scope: !387, file: !388, line: 432, type: !529, scopeLine: 432, flags: DIFlagPublic | DIFlagPrototyped | DIFlagStaticMember, spFlags: DISPFlagOptimized)
!545 = !DISubprogram(name: "assign_now", linkageName: "_ZN9Timestamp10assign_nowEv", scope: !387, file: !388, line: 438, type: !398, scopeLine: 438, flags: DIFlagPublic | DIFlagPrototyped, spFlags: DISPFlagOptimized)
!546 = !DISubprogram(name: "recent", linkageName: "_ZN9Timestamp6recentEv", scope: !387, file: !388, line: 446, type: !529, scopeLine: 446, flags: DIFlagPublic | DIFlagPrototyped | DIFlagStaticMember, spFlags: DISPFlagOptimized)
!547 = !DISubprogram(name: "assign_recent", linkageName: "_ZN9Timestamp13assign_recentEv", scope: !387, file: !388, line: 452, type: !398, scopeLine: 452, flags: DIFlagPublic | DIFlagPrototyped, spFlags: DISPFlagOptimized)
!548 = !DISubprogram(name: "now_steady", linkageName: "_ZN9Timestamp10now_steadyEv", scope: !387, file: !388, line: 466, type: !529, scopeLine: 466, flags: DIFlagPublic | DIFlagPrototyped | DIFlagStaticMember, spFlags: DISPFlagOptimized)
!549 = !DISubprogram(name: "assign_now_steady", linkageName: "_ZN9Timestamp17assign_now_steadyEv", scope: !387, file: !388, line: 472, type: !398, scopeLine: 472, flags: DIFlagPublic | DIFlagPrototyped, spFlags: DISPFlagOptimized)
!550 = !DISubprogram(name: "recent_steady", linkageName: "_ZN9Timestamp13recent_steadyEv", scope: !387, file: !388, line: 481, type: !529, scopeLine: 481, flags: DIFlagPublic | DIFlagPrototyped | DIFlagStaticMember, spFlags: DISPFlagOptimized)
!551 = !DISubprogram(name: "assign_recent_steady", linkageName: "_ZN9Timestamp20assign_recent_steadyEv", scope: !387, file: !388, line: 487, type: !398, scopeLine: 487, flags: DIFlagPublic | DIFlagPrototyped, spFlags: DISPFlagOptimized)
!552 = !DISubprogram(name: "unparse", linkageName: "_ZNK9Timestamp7unparseEv", scope: !387, file: !388, line: 496, type: !553, scopeLine: 496, flags: DIFlagPublic | DIFlagPrototyped, spFlags: DISPFlagOptimized)
!553 = !DISubroutineType(types: !554)
!554 = !{!555, !462}
!555 = distinct !DICompositeType(tag: DW_TAG_class_type, name: "String", file: !556, line: 19, size: 192, flags: DIFlagTypePassByReference | DIFlagNonTrivial, elements: !557, identifier: "_ZTS6String")
!556 = !DIFile(filename: "../dummy_inc/click/string.hh", directory: "/home/john/projects/click/ir-dir")
!557 = !{!558, !563, !577, !578, !582, !586, !588, !589, !593, !598, !602, !605, !608, !611, !614, !617, !620, !623, !626, !629, !632, !635, !638, !642, !646, !649, !650, !653, !656, !657, !660, !663, !666, !670, !674, !678, !681, !682, !687, !690, !691, !695, !696, !699, !700, !703, !704, !707, !710, !713, !716, !719, !722, !725, !728, !731, !734, !737, !740, !741, !742, !743, !746, !749, !750, !751, !752, !753, !754, !755, !759, !762, !765, !768, !769, !770, !771, !772, !773, !776, !780, !781, !782, !783, !786, !787, !788, !789, !790, !791, !794, !795, !796, !797, !800, !803, !804, !807, !810, !813, !816, !819, !822, !825, !826, !827, !828, !831, !834, !837, !838, !839}
!558 = !DIDerivedType(tag: DW_TAG_member, name: "bool_data", scope: !555, file: !556, line: 184, baseType: !559, flags: DIFlagPublic | DIFlagStaticMember)
!559 = !DICompositeType(tag: DW_TAG_array_type, baseType: !560, size: 88, elements: !561)
!560 = !DIDerivedType(tag: DW_TAG_const_type, baseType: !93)
!561 = !{!562}
!562 = !DISubrange(count: 11)
!563 = !DIDerivedType(tag: DW_TAG_member, name: "_r", scope: !555, file: !556, line: 211, baseType: !564, size: 192)
!564 = distinct !DICompositeType(tag: DW_TAG_structure_type, name: "rep_t", scope: !555, file: !556, line: 204, size: 192, flags: DIFlagTypePassByValue, elements: !565, identifier: "_ZTSN6String5rep_tE")
!565 = !{!566, !568, !569}
!566 = !DIDerivedType(tag: DW_TAG_member, name: "data", scope: !564, file: !556, line: 205, baseType: !567, size: 64)
!567 = !DIDerivedType(tag: DW_TAG_pointer_type, baseType: !560, size: 64)
!568 = !DIDerivedType(tag: DW_TAG_member, name: "length", scope: !564, file: !556, line: 206, baseType: !34, size: 32, offset: 64)
!569 = !DIDerivedType(tag: DW_TAG_member, name: "memo", scope: !564, file: !556, line: 207, baseType: !570, size: 64, offset: 128)
!570 = !DIDerivedType(tag: DW_TAG_pointer_type, baseType: !571, size: 64)
!571 = distinct !DICompositeType(tag: DW_TAG_structure_type, name: "memo_t", scope: !555, file: !556, line: 189, size: 160, flags: DIFlagTypePassByValue, elements: !572, identifier: "_ZTSN6String6memo_tE")
!572 = !{!573, !574, !575, !576}
!573 = !DIDerivedType(tag: DW_TAG_member, name: "refcount", scope: !571, file: !556, line: 190, baseType: !64, size: 32)
!574 = !DIDerivedType(tag: DW_TAG_member, name: "capacity", scope: !571, file: !556, line: 191, baseType: !12, size: 32, offset: 32)
!575 = !DIDerivedType(tag: DW_TAG_member, name: "dirty", scope: !571, file: !556, line: 192, baseType: !64, size: 32, offset: 64)
!576 = !DIDerivedType(tag: DW_TAG_member, name: "real_data", scope: !571, file: !556, line: 197, baseType: !123, size: 64, offset: 96)
!577 = !DIDerivedType(tag: DW_TAG_member, name: "null_data", scope: !555, file: !556, line: 292, baseType: !560, flags: DIFlagStaticMember)
!578 = !DIDerivedType(tag: DW_TAG_member, name: "oom_data", scope: !555, file: !556, line: 293, baseType: !579, flags: DIFlagStaticMember)
!579 = !DICompositeType(tag: DW_TAG_array_type, baseType: !560, size: 120, elements: !580)
!580 = !{!581}
!581 = !DISubrange(count: 15)
!582 = !DIDerivedType(tag: DW_TAG_member, name: "int_data", scope: !555, file: !556, line: 294, baseType: !583, flags: DIFlagStaticMember)
!583 = !DICompositeType(tag: DW_TAG_array_type, baseType: !560, size: 160, elements: !584)
!584 = !{!585}
!585 = !DISubrange(count: 20)
!586 = !DIDerivedType(tag: DW_TAG_member, name: "null_string_rep", scope: !555, file: !556, line: 295, baseType: !587, flags: DIFlagStaticMember)
!587 = !DIDerivedType(tag: DW_TAG_const_type, baseType: !564)
!588 = !DIDerivedType(tag: DW_TAG_member, name: "oom_string_rep", scope: !555, file: !556, line: 296, baseType: !587, flags: DIFlagStaticMember)
!589 = !DISubprogram(name: "String", scope: !555, file: !556, line: 39, type: !590, scopeLine: 39, flags: DIFlagPublic | DIFlagPrototyped, spFlags: DISPFlagOptimized)
!590 = !DISubroutineType(types: !591)
!591 = !{null, !592}
!592 = !DIDerivedType(tag: DW_TAG_pointer_type, baseType: !555, size: 64, flags: DIFlagArtificial | DIFlagObjectPointer)
!593 = !DISubprogram(name: "String", scope: !555, file: !556, line: 40, type: !594, scopeLine: 40, flags: DIFlagPublic | DIFlagPrototyped, spFlags: DISPFlagOptimized)
!594 = !DISubroutineType(types: !595)
!595 = !{null, !592, !596}
!596 = !DIDerivedType(tag: DW_TAG_reference_type, baseType: !597, size: 64)
!597 = !DIDerivedType(tag: DW_TAG_const_type, baseType: !555)
!598 = !DISubprogram(name: "String", scope: !555, file: !556, line: 42, type: !599, scopeLine: 42, flags: DIFlagPublic | DIFlagPrototyped, spFlags: DISPFlagOptimized)
!599 = !DISubroutineType(types: !600)
!600 = !{null, !592, !601}
!601 = !DIDerivedType(tag: DW_TAG_rvalue_reference_type, baseType: !555, size: 64)
!602 = !DISubprogram(name: "String", scope: !555, file: !556, line: 44, type: !603, scopeLine: 44, flags: DIFlagPublic | DIFlagPrototyped, spFlags: DISPFlagOptimized)
!603 = !DISubroutineType(types: !604)
!604 = !{null, !592, !567}
!605 = !DISubprogram(name: "String", scope: !555, file: !556, line: 45, type: !606, scopeLine: 45, flags: DIFlagPublic | DIFlagPrototyped, spFlags: DISPFlagOptimized)
!606 = !DISubroutineType(types: !607)
!607 = !{null, !592, !567, !34}
!608 = !DISubprogram(name: "String", scope: !555, file: !556, line: 46, type: !609, scopeLine: 46, flags: DIFlagPublic | DIFlagPrototyped, spFlags: DISPFlagOptimized)
!609 = !DISubroutineType(types: !610)
!610 = !{null, !592, !256, !34}
!611 = !DISubprogram(name: "String", scope: !555, file: !556, line: 47, type: !612, scopeLine: 47, flags: DIFlagPublic | DIFlagPrototyped, spFlags: DISPFlagOptimized)
!612 = !DISubroutineType(types: !613)
!613 = !{null, !592, !567, !567}
!614 = !DISubprogram(name: "String", scope: !555, file: !556, line: 48, type: !615, scopeLine: 48, flags: DIFlagPublic | DIFlagPrototyped, spFlags: DISPFlagOptimized)
!615 = !DISubroutineType(types: !616)
!616 = !{null, !592, !256, !256}
!617 = !DISubprogram(name: "String", scope: !555, file: !556, line: 49, type: !618, scopeLine: 49, flags: DIFlagPublic | DIFlagExplicit | DIFlagPrototyped, spFlags: DISPFlagOptimized)
!618 = !DISubroutineType(types: !619)
!619 = !{null, !592, !53}
!620 = !DISubprogram(name: "String", scope: !555, file: !556, line: 50, type: !621, scopeLine: 50, flags: DIFlagPublic | DIFlagExplicit | DIFlagPrototyped, spFlags: DISPFlagOptimized)
!621 = !DISubroutineType(types: !622)
!622 = !{null, !592, !93}
!623 = !DISubprogram(name: "String", scope: !555, file: !556, line: 51, type: !624, scopeLine: 51, flags: DIFlagPublic | DIFlagExplicit | DIFlagPrototyped, spFlags: DISPFlagOptimized)
!624 = !DISubroutineType(types: !625)
!625 = !{null, !592, !81}
!626 = !DISubprogram(name: "String", scope: !555, file: !556, line: 52, type: !627, scopeLine: 52, flags: DIFlagPublic | DIFlagExplicit | DIFlagPrototyped, spFlags: DISPFlagOptimized)
!627 = !DISubroutineType(types: !628)
!628 = !{null, !592, !34}
!629 = !DISubprogram(name: "String", scope: !555, file: !556, line: 53, type: !630, scopeLine: 53, flags: DIFlagPublic | DIFlagExplicit | DIFlagPrototyped, spFlags: DISPFlagOptimized)
!630 = !DISubroutineType(types: !631)
!631 = !{null, !592, !16}
!632 = !DISubprogram(name: "String", scope: !555, file: !556, line: 54, type: !633, scopeLine: 54, flags: DIFlagPublic | DIFlagExplicit | DIFlagPrototyped, spFlags: DISPFlagOptimized)
!633 = !DISubroutineType(types: !634)
!634 = !{null, !592, !396}
!635 = !DISubprogram(name: "String", scope: !555, file: !556, line: 55, type: !636, scopeLine: 55, flags: DIFlagPublic | DIFlagExplicit | DIFlagPrototyped, spFlags: DISPFlagOptimized)
!636 = !DISubroutineType(types: !637)
!637 = !{null, !592, !115}
!638 = !DISubprogram(name: "String", scope: !555, file: !556, line: 57, type: !639, scopeLine: 57, flags: DIFlagPublic | DIFlagExplicit | DIFlagPrototyped, spFlags: DISPFlagOptimized)
!639 = !DISubroutineType(types: !640)
!640 = !{null, !592, !641}
!641 = !DIBasicType(name: "long long int", size: 64, encoding: DW_ATE_signed)
!642 = !DISubprogram(name: "String", scope: !555, file: !556, line: 58, type: !643, scopeLine: 58, flags: DIFlagPublic | DIFlagExplicit | DIFlagPrototyped, spFlags: DISPFlagOptimized)
!643 = !DISubroutineType(types: !644)
!644 = !{null, !592, !645}
!645 = !DIBasicType(name: "long long unsigned int", size: 64, encoding: DW_ATE_unsigned)
!646 = !DISubprogram(name: "String", scope: !555, file: !556, line: 65, type: !647, scopeLine: 65, flags: DIFlagPublic | DIFlagExplicit | DIFlagPrototyped, spFlags: DISPFlagOptimized)
!647 = !DISubroutineType(types: !648)
!648 = !{null, !592, !416}
!649 = !DISubprogram(name: "~String", scope: !555, file: !556, line: 67, type: !590, scopeLine: 67, flags: DIFlagPublic | DIFlagPrototyped, spFlags: DISPFlagOptimized)
!650 = !DISubprogram(name: "make_empty", linkageName: "_ZN6String10make_emptyEv", scope: !555, file: !556, line: 69, type: !651, scopeLine: 69, flags: DIFlagPublic | DIFlagPrototyped | DIFlagStaticMember, spFlags: DISPFlagOptimized)
!651 = !DISubroutineType(types: !652)
!652 = !{!596}
!653 = !DISubprogram(name: "make_uninitialized", linkageName: "_ZN6String18make_uninitializedEi", scope: !555, file: !556, line: 70, type: !654, scopeLine: 70, flags: DIFlagPublic | DIFlagPrototyped | DIFlagStaticMember, spFlags: DISPFlagOptimized)
!654 = !DISubroutineType(types: !655)
!655 = !{!555, !34}
!656 = !DISubprogram(name: "make_garbage", linkageName: "_ZN6String12make_garbageEi", scope: !555, file: !556, line: 71, type: !654, scopeLine: 71, flags: DIFlagPublic | DIFlagPrototyped | DIFlagStaticMember, spFlags: DISPFlagOptimized)
!657 = !DISubprogram(name: "make_stable", linkageName: "_ZN6String11make_stableEPKc", scope: !555, file: !556, line: 72, type: !658, scopeLine: 72, flags: DIFlagPublic | DIFlagPrototyped | DIFlagStaticMember, spFlags: DISPFlagOptimized)
!658 = !DISubroutineType(types: !659)
!659 = !{!555, !567}
!660 = !DISubprogram(name: "make_stable", linkageName: "_ZN6String11make_stableEPKci", scope: !555, file: !556, line: 73, type: !661, scopeLine: 73, flags: DIFlagPublic | DIFlagPrototyped | DIFlagStaticMember, spFlags: DISPFlagOptimized)
!661 = !DISubroutineType(types: !662)
!662 = !{!555, !567, !34}
!663 = !DISubprogram(name: "make_stable", linkageName: "_ZN6String11make_stableEPKcS1_", scope: !555, file: !556, line: 74, type: !664, scopeLine: 74, flags: DIFlagPublic | DIFlagPrototyped | DIFlagStaticMember, spFlags: DISPFlagOptimized)
!664 = !DISubroutineType(types: !665)
!665 = !{!555, !567, !567}
!666 = !DISubprogram(name: "make_numeric", linkageName: "_ZN6String12make_numericElib", scope: !555, file: !556, line: 75, type: !667, scopeLine: 75, flags: DIFlagPublic | DIFlagPrototyped | DIFlagStaticMember, spFlags: DISPFlagOptimized)
!667 = !DISubroutineType(types: !668)
!668 = !{!555, !669, !34, !53}
!669 = !DIDerivedType(tag: DW_TAG_typedef, name: "intmax_t", scope: !555, file: !556, line: 27, baseType: !394)
!670 = !DISubprogram(name: "make_numeric", linkageName: "_ZN6String12make_numericEmib", scope: !555, file: !556, line: 76, type: !671, scopeLine: 76, flags: DIFlagPublic | DIFlagPrototyped | DIFlagStaticMember, spFlags: DISPFlagOptimized)
!671 = !DISubroutineType(types: !672)
!672 = !{!555, !673, !34, !53}
!673 = !DIDerivedType(tag: DW_TAG_typedef, name: "uintmax_t", scope: !555, file: !556, line: 28, baseType: !113)
!674 = !DISubprogram(name: "data", linkageName: "_ZNK6String4dataEv", scope: !555, file: !556, line: 78, type: !675, scopeLine: 78, flags: DIFlagPublic | DIFlagPrototyped, spFlags: DISPFlagOptimized)
!675 = !DISubroutineType(types: !676)
!676 = !{!567, !677}
!677 = !DIDerivedType(tag: DW_TAG_pointer_type, baseType: !597, size: 64, flags: DIFlagArtificial | DIFlagObjectPointer)
!678 = !DISubprogram(name: "length", linkageName: "_ZNK6String6lengthEv", scope: !555, file: !556, line: 79, type: !679, scopeLine: 79, flags: DIFlagPublic | DIFlagPrototyped, spFlags: DISPFlagOptimized)
!679 = !DISubroutineType(types: !680)
!680 = !{!34, !677}
!681 = !DISubprogram(name: "c_str", linkageName: "_ZNK6String5c_strEv", scope: !555, file: !556, line: 81, type: !675, scopeLine: 81, flags: DIFlagPublic | DIFlagPrototyped, spFlags: DISPFlagOptimized)
!682 = !DISubprogram(name: "operator int (String::*)() const", linkageName: "_ZNK6StringcvMS_KFivEEv", scope: !555, file: !556, line: 83, type: !683, scopeLine: 83, flags: DIFlagPublic | DIFlagPrototyped, spFlags: DISPFlagOptimized)
!683 = !DISubroutineType(types: !684)
!684 = !{!685, !677}
!685 = !DIDerivedType(tag: DW_TAG_typedef, name: "unspecified_bool_type", scope: !555, file: !556, line: 24, baseType: !686)
!686 = !DIDerivedType(tag: DW_TAG_ptr_to_member_type, baseType: !679, size: 128, extraData: !555)
!687 = !DISubprogram(name: "empty", linkageName: "_ZNK6String5emptyEv", scope: !555, file: !556, line: 84, type: !688, scopeLine: 84, flags: DIFlagPublic | DIFlagPrototyped, spFlags: DISPFlagOptimized)
!688 = !DISubroutineType(types: !689)
!689 = !{!53, !677}
!690 = !DISubprogram(name: "operator!", linkageName: "_ZNK6StringntEv", scope: !555, file: !556, line: 85, type: !688, scopeLine: 85, flags: DIFlagPublic | DIFlagPrototyped, spFlags: DISPFlagOptimized)
!691 = !DISubprogram(name: "begin", linkageName: "_ZNK6String5beginEv", scope: !555, file: !556, line: 87, type: !692, scopeLine: 87, flags: DIFlagPublic | DIFlagPrototyped, spFlags: DISPFlagOptimized)
!692 = !DISubroutineType(types: !693)
!693 = !{!694, !677}
!694 = !DIDerivedType(tag: DW_TAG_typedef, name: "const_iterator", scope: !555, file: !556, line: 21, baseType: !567)
!695 = !DISubprogram(name: "end", linkageName: "_ZNK6String3endEv", scope: !555, file: !556, line: 88, type: !692, scopeLine: 88, flags: DIFlagPublic | DIFlagPrototyped, spFlags: DISPFlagOptimized)
!696 = !DISubprogram(name: "operator[]", linkageName: "_ZNK6StringixEi", scope: !555, file: !556, line: 90, type: !697, scopeLine: 90, flags: DIFlagPublic | DIFlagPrototyped, spFlags: DISPFlagOptimized)
!697 = !DISubroutineType(types: !698)
!698 = !{!93, !677, !34}
!699 = !DISubprogram(name: "at", linkageName: "_ZNK6String2atEi", scope: !555, file: !556, line: 91, type: !697, scopeLine: 91, flags: DIFlagPublic | DIFlagPrototyped, spFlags: DISPFlagOptimized)
!700 = !DISubprogram(name: "front", linkageName: "_ZNK6String5frontEv", scope: !555, file: !556, line: 92, type: !701, scopeLine: 92, flags: DIFlagPublic | DIFlagPrototyped, spFlags: DISPFlagOptimized)
!701 = !DISubroutineType(types: !702)
!702 = !{!93, !677}
!703 = !DISubprogram(name: "back", linkageName: "_ZNK6String4backEv", scope: !555, file: !556, line: 93, type: !701, scopeLine: 93, flags: DIFlagPublic | DIFlagPrototyped, spFlags: DISPFlagOptimized)
!704 = !DISubprogram(name: "hashcode", linkageName: "_ZN6String8hashcodeEPKcS1_", scope: !555, file: !556, line: 95, type: !705, scopeLine: 95, flags: DIFlagPublic | DIFlagPrototyped | DIFlagStaticMember, spFlags: DISPFlagOptimized)
!705 = !DISubroutineType(types: !706)
!706 = !{!12, !567, !567}
!707 = !DISubprogram(name: "hashcode", linkageName: "_ZN6String8hashcodeEPKhS1_", scope: !555, file: !556, line: 96, type: !708, scopeLine: 96, flags: DIFlagPublic | DIFlagPrototyped | DIFlagStaticMember, spFlags: DISPFlagOptimized)
!708 = !DISubroutineType(types: !709)
!709 = !{!12, !256, !256}
!710 = !DISubprogram(name: "hashcode", linkageName: "_ZNK6String8hashcodeEv", scope: !555, file: !556, line: 98, type: !711, scopeLine: 98, flags: DIFlagPublic | DIFlagPrototyped, spFlags: DISPFlagOptimized)
!711 = !DISubroutineType(types: !712)
!712 = !{!12, !677}
!713 = !DISubprogram(name: "substring", linkageName: "_ZNK6String9substringEPKcS1_", scope: !555, file: !556, line: 100, type: !714, scopeLine: 100, flags: DIFlagPublic | DIFlagPrototyped, spFlags: DISPFlagOptimized)
!714 = !DISubroutineType(types: !715)
!715 = !{!555, !677, !567, !567}
!716 = !DISubprogram(name: "substring", linkageName: "_ZNK6String9substringEii", scope: !555, file: !556, line: 101, type: !717, scopeLine: 101, flags: DIFlagPublic | DIFlagPrototyped, spFlags: DISPFlagOptimized)
!717 = !DISubroutineType(types: !718)
!718 = !{!555, !677, !34, !34}
!719 = !DISubprogram(name: "substring", linkageName: "_ZNK6String9substringEi", scope: !555, file: !556, line: 102, type: !720, scopeLine: 102, flags: DIFlagPublic | DIFlagPrototyped, spFlags: DISPFlagOptimized)
!720 = !DISubroutineType(types: !721)
!721 = !{!555, !677, !34}
!722 = !DISubprogram(name: "trim_space", linkageName: "_ZNK6String10trim_spaceEv", scope: !555, file: !556, line: 103, type: !723, scopeLine: 103, flags: DIFlagPublic | DIFlagPrototyped, spFlags: DISPFlagOptimized)
!723 = !DISubroutineType(types: !724)
!724 = !{!555, !677}
!725 = !DISubprogram(name: "equals", linkageName: "_ZNK6String6equalsERKS_", scope: !555, file: !556, line: 105, type: !726, scopeLine: 105, flags: DIFlagPublic | DIFlagPrototyped, spFlags: DISPFlagOptimized)
!726 = !DISubroutineType(types: !727)
!727 = !{!53, !677, !596}
!728 = !DISubprogram(name: "equals", linkageName: "_ZNK6String6equalsEPKci", scope: !555, file: !556, line: 106, type: !729, scopeLine: 106, flags: DIFlagPublic | DIFlagPrototyped, spFlags: DISPFlagOptimized)
!729 = !DISubroutineType(types: !730)
!730 = !{!53, !677, !567, !34}
!731 = !DISubprogram(name: "compare", linkageName: "_ZN6String7compareERKS_S1_", scope: !555, file: !556, line: 107, type: !732, scopeLine: 107, flags: DIFlagPublic | DIFlagPrototyped | DIFlagStaticMember, spFlags: DISPFlagOptimized)
!732 = !DISubroutineType(types: !733)
!733 = !{!34, !596, !596}
!734 = !DISubprogram(name: "compare", linkageName: "_ZNK6String7compareERKS_", scope: !555, file: !556, line: 108, type: !735, scopeLine: 108, flags: DIFlagPublic | DIFlagPrototyped, spFlags: DISPFlagOptimized)
!735 = !DISubroutineType(types: !736)
!736 = !{!34, !677, !596}
!737 = !DISubprogram(name: "compare", linkageName: "_ZNK6String7compareEPKci", scope: !555, file: !556, line: 109, type: !738, scopeLine: 109, flags: DIFlagPublic | DIFlagPrototyped, spFlags: DISPFlagOptimized)
!738 = !DISubroutineType(types: !739)
!739 = !{!34, !677, !567, !34}
!740 = !DISubprogram(name: "starts_with", linkageName: "_ZNK6String11starts_withERKS_", scope: !555, file: !556, line: 110, type: !726, scopeLine: 110, flags: DIFlagPublic | DIFlagPrototyped, spFlags: DISPFlagOptimized)
!741 = !DISubprogram(name: "starts_with", linkageName: "_ZNK6String11starts_withEPKci", scope: !555, file: !556, line: 111, type: !729, scopeLine: 111, flags: DIFlagPublic | DIFlagPrototyped, spFlags: DISPFlagOptimized)
!742 = !DISubprogram(name: "glob_match", linkageName: "_ZNK6String10glob_matchERKS_", scope: !555, file: !556, line: 112, type: !726, scopeLine: 112, flags: DIFlagPublic | DIFlagPrototyped, spFlags: DISPFlagOptimized)
!743 = !DISubprogram(name: "find_left", linkageName: "_ZNK6String9find_leftEci", scope: !555, file: !556, line: 125, type: !744, scopeLine: 125, flags: DIFlagPublic | DIFlagPrototyped, spFlags: DISPFlagOptimized)
!744 = !DISubroutineType(types: !745)
!745 = !{!34, !677, !93, !34}
!746 = !DISubprogram(name: "find_left", linkageName: "_ZNK6String9find_leftERKS_i", scope: !555, file: !556, line: 126, type: !747, scopeLine: 126, flags: DIFlagPublic | DIFlagPrototyped, spFlags: DISPFlagOptimized)
!747 = !DISubroutineType(types: !748)
!748 = !{!34, !677, !596, !34}
!749 = !DISubprogram(name: "find_right", linkageName: "_ZNK6String10find_rightEci", scope: !555, file: !556, line: 127, type: !744, scopeLine: 127, flags: DIFlagPublic | DIFlagPrototyped, spFlags: DISPFlagOptimized)
!750 = !DISubprogram(name: "lower", linkageName: "_ZNK6String5lowerEv", scope: !555, file: !556, line: 129, type: !723, scopeLine: 129, flags: DIFlagPublic | DIFlagPrototyped, spFlags: DISPFlagOptimized)
!751 = !DISubprogram(name: "upper", linkageName: "_ZNK6String5upperEv", scope: !555, file: !556, line: 130, type: !723, scopeLine: 130, flags: DIFlagPublic | DIFlagPrototyped, spFlags: DISPFlagOptimized)
!752 = !DISubprogram(name: "printable", linkageName: "_ZNK6String9printableEv", scope: !555, file: !556, line: 131, type: !723, scopeLine: 131, flags: DIFlagPublic | DIFlagPrototyped, spFlags: DISPFlagOptimized)
!753 = !DISubprogram(name: "quoted_hex", linkageName: "_ZNK6String10quoted_hexEv", scope: !555, file: !556, line: 132, type: !723, scopeLine: 132, flags: DIFlagPublic | DIFlagPrototyped, spFlags: DISPFlagOptimized)
!754 = !DISubprogram(name: "encode_json", linkageName: "_ZNK6String11encode_jsonEv", scope: !555, file: !556, line: 133, type: !723, scopeLine: 133, flags: DIFlagPublic | DIFlagPrototyped, spFlags: DISPFlagOptimized)
!755 = !DISubprogram(name: "operator=", linkageName: "_ZN6StringaSERKS_", scope: !555, file: !556, line: 135, type: !756, scopeLine: 135, flags: DIFlagPublic | DIFlagPrototyped, spFlags: DISPFlagOptimized)
!756 = !DISubroutineType(types: !757)
!757 = !{!758, !592, !596}
!758 = !DIDerivedType(tag: DW_TAG_reference_type, baseType: !555, size: 64)
!759 = !DISubprogram(name: "operator=", linkageName: "_ZN6StringaSEOS_", scope: !555, file: !556, line: 137, type: !760, scopeLine: 137, flags: DIFlagPublic | DIFlagPrototyped, spFlags: DISPFlagOptimized)
!760 = !DISubroutineType(types: !761)
!761 = !{!758, !592, !601}
!762 = !DISubprogram(name: "operator=", linkageName: "_ZN6StringaSEPKc", scope: !555, file: !556, line: 139, type: !763, scopeLine: 139, flags: DIFlagPublic | DIFlagPrototyped, spFlags: DISPFlagOptimized)
!763 = !DISubroutineType(types: !764)
!764 = !{!758, !592, !567}
!765 = !DISubprogram(name: "swap", linkageName: "_ZN6String4swapERS_", scope: !555, file: !556, line: 141, type: !766, scopeLine: 141, flags: DIFlagPublic | DIFlagPrototyped, spFlags: DISPFlagOptimized)
!766 = !DISubroutineType(types: !767)
!767 = !{null, !592, !758}
!768 = !DISubprogram(name: "append", linkageName: "_ZN6String6appendERKS_", scope: !555, file: !556, line: 143, type: !594, scopeLine: 143, flags: DIFlagPublic | DIFlagPrototyped, spFlags: DISPFlagOptimized)
!769 = !DISubprogram(name: "append", linkageName: "_ZN6String6appendEPKc", scope: !555, file: !556, line: 144, type: !603, scopeLine: 144, flags: DIFlagPublic | DIFlagPrototyped, spFlags: DISPFlagOptimized)
!770 = !DISubprogram(name: "append", linkageName: "_ZN6String6appendEPKci", scope: !555, file: !556, line: 145, type: !606, scopeLine: 145, flags: DIFlagPublic | DIFlagPrototyped, spFlags: DISPFlagOptimized)
!771 = !DISubprogram(name: "append", linkageName: "_ZN6String6appendEPKcS1_", scope: !555, file: !556, line: 146, type: !612, scopeLine: 146, flags: DIFlagPublic | DIFlagPrototyped, spFlags: DISPFlagOptimized)
!772 = !DISubprogram(name: "append", linkageName: "_ZN6String6appendEc", scope: !555, file: !556, line: 147, type: !621, scopeLine: 147, flags: DIFlagPublic | DIFlagPrototyped, spFlags: DISPFlagOptimized)
!773 = !DISubprogram(name: "append_fill", linkageName: "_ZN6String11append_fillEii", scope: !555, file: !556, line: 148, type: !774, scopeLine: 148, flags: DIFlagPublic | DIFlagPrototyped, spFlags: DISPFlagOptimized)
!774 = !DISubroutineType(types: !775)
!775 = !{null, !592, !34, !34}
!776 = !DISubprogram(name: "append_uninitialized", linkageName: "_ZN6String20append_uninitializedEi", scope: !555, file: !556, line: 149, type: !777, scopeLine: 149, flags: DIFlagPublic | DIFlagPrototyped, spFlags: DISPFlagOptimized)
!777 = !DISubroutineType(types: !778)
!778 = !{!779, !592, !34}
!779 = !DIDerivedType(tag: DW_TAG_pointer_type, baseType: !93, size: 64)
!780 = !DISubprogram(name: "append_garbage", linkageName: "_ZN6String14append_garbageEi", scope: !555, file: !556, line: 150, type: !777, scopeLine: 150, flags: DIFlagPublic | DIFlagPrototyped, spFlags: DISPFlagOptimized)
!781 = !DISubprogram(name: "operator+=", linkageName: "_ZN6StringpLERKS_", scope: !555, file: !556, line: 152, type: !756, scopeLine: 152, flags: DIFlagPublic | DIFlagPrototyped, spFlags: DISPFlagOptimized)
!782 = !DISubprogram(name: "operator+=", linkageName: "_ZN6StringpLEPKc", scope: !555, file: !556, line: 153, type: !763, scopeLine: 153, flags: DIFlagPublic | DIFlagPrototyped, spFlags: DISPFlagOptimized)
!783 = !DISubprogram(name: "operator+=", linkageName: "_ZN6StringpLEc", scope: !555, file: !556, line: 154, type: !784, scopeLine: 154, flags: DIFlagPublic | DIFlagPrototyped, spFlags: DISPFlagOptimized)
!784 = !DISubroutineType(types: !785)
!785 = !{!758, !592, !93}
!786 = !DISubprogram(name: "is_shared", linkageName: "_ZNK6String9is_sharedEv", scope: !555, file: !556, line: 160, type: !688, scopeLine: 160, flags: DIFlagPublic | DIFlagPrototyped, spFlags: DISPFlagOptimized)
!787 = !DISubprogram(name: "is_stable", linkageName: "_ZNK6String9is_stableEv", scope: !555, file: !556, line: 161, type: !688, scopeLine: 161, flags: DIFlagPublic | DIFlagPrototyped, spFlags: DISPFlagOptimized)
!788 = !DISubprogram(name: "unique", linkageName: "_ZNK6String6uniqueEv", scope: !555, file: !556, line: 163, type: !723, scopeLine: 163, flags: DIFlagPublic | DIFlagPrototyped, spFlags: DISPFlagOptimized)
!789 = !DISubprogram(name: "unshared", linkageName: "_ZNK6String8unsharedEv", scope: !555, file: !556, line: 164, type: !723, scopeLine: 164, flags: DIFlagPublic | DIFlagPrototyped, spFlags: DISPFlagOptimized)
!790 = !DISubprogram(name: "compact", linkageName: "_ZNK6String7compactEv", scope: !555, file: !556, line: 165, type: !723, scopeLine: 165, flags: DIFlagPublic | DIFlagPrototyped, spFlags: DISPFlagOptimized)
!791 = !DISubprogram(name: "mutable_data", linkageName: "_ZN6String12mutable_dataEv", scope: !555, file: !556, line: 167, type: !792, scopeLine: 167, flags: DIFlagPublic | DIFlagPrototyped, spFlags: DISPFlagOptimized)
!792 = !DISubroutineType(types: !793)
!793 = !{!779, !592}
!794 = !DISubprogram(name: "mutable_c_str", linkageName: "_ZN6String13mutable_c_strEv", scope: !555, file: !556, line: 168, type: !792, scopeLine: 168, flags: DIFlagPublic | DIFlagPrototyped, spFlags: DISPFlagOptimized)
!795 = !DISubprogram(name: "make_out_of_memory", linkageName: "_ZN6String18make_out_of_memoryEv", scope: !555, file: !556, line: 170, type: !651, scopeLine: 170, flags: DIFlagPublic | DIFlagPrototyped | DIFlagStaticMember, spFlags: DISPFlagOptimized)
!796 = !DISubprogram(name: "out_of_memory", linkageName: "_ZNK6String13out_of_memoryEv", scope: !555, file: !556, line: 171, type: !688, scopeLine: 171, flags: DIFlagPublic | DIFlagPrototyped, spFlags: DISPFlagOptimized)
!797 = !DISubprogram(name: "out_of_memory_data", linkageName: "_ZN6String18out_of_memory_dataEv", scope: !555, file: !556, line: 172, type: !798, scopeLine: 172, flags: DIFlagPublic | DIFlagPrototyped | DIFlagStaticMember, spFlags: DISPFlagOptimized)
!798 = !DISubroutineType(types: !799)
!799 = !{!567}
!800 = !DISubprogram(name: "out_of_memory_length", linkageName: "_ZN6String20out_of_memory_lengthEv", scope: !555, file: !556, line: 173, type: !801, scopeLine: 173, flags: DIFlagPublic | DIFlagPrototyped | DIFlagStaticMember, spFlags: DISPFlagOptimized)
!801 = !DISubroutineType(types: !802)
!802 = !{!34}
!803 = !DISubprogram(name: "empty_data", linkageName: "_ZN6String10empty_dataEv", scope: !555, file: !556, line: 174, type: !798, scopeLine: 174, flags: DIFlagPublic | DIFlagPrototyped | DIFlagStaticMember, spFlags: DISPFlagOptimized)
!804 = !DISubprogram(name: "skip_utf8_char", linkageName: "_ZN6String14skip_utf8_charEPKcS1_", scope: !555, file: !556, line: 180, type: !805, scopeLine: 180, flags: DIFlagPublic | DIFlagPrototyped | DIFlagStaticMember, spFlags: DISPFlagOptimized)
!805 = !DISubroutineType(types: !806)
!806 = !{!567, !567, !567}
!807 = !DISubprogram(name: "skip_utf8_char", linkageName: "_ZN6String14skip_utf8_charEPKhS1_", scope: !555, file: !556, line: 181, type: !808, scopeLine: 181, flags: DIFlagPublic | DIFlagPrototyped | DIFlagStaticMember, spFlags: DISPFlagOptimized)
!808 = !DISubroutineType(types: !809)
!809 = !{!256, !256, !256}
!810 = !DISubprogram(name: "assign_memo", linkageName: "_ZNK6String11assign_memoEPKciPNS_6memo_tE", scope: !555, file: !556, line: 256, type: !811, scopeLine: 256, flags: DIFlagPrototyped, spFlags: DISPFlagOptimized)
!811 = !DISubroutineType(types: !812)
!812 = !{null, !677, !567, !34, !570}
!813 = !DISubprogram(name: "String", scope: !555, file: !556, line: 263, type: !814, scopeLine: 263, flags: DIFlagPrototyped, spFlags: DISPFlagOptimized)
!814 = !DISubroutineType(types: !815)
!815 = !{null, !592, !567, !34, !570}
!816 = !DISubprogram(name: "assign", linkageName: "_ZNK6String6assignERKS_", scope: !555, file: !556, line: 267, type: !817, scopeLine: 267, flags: DIFlagPrototyped, spFlags: DISPFlagOptimized)
!817 = !DISubroutineType(types: !818)
!818 = !{null, !677, !596}
!819 = !DISubprogram(name: "deref", linkageName: "_ZNK6String5derefEv", scope: !555, file: !556, line: 271, type: !820, scopeLine: 271, flags: DIFlagPrototyped, spFlags: DISPFlagOptimized)
!820 = !DISubroutineType(types: !821)
!821 = !{null, !677}
!822 = !DISubprogram(name: "assign", linkageName: "_ZN6String6assignEPKcib", scope: !555, file: !556, line: 280, type: !823, scopeLine: 280, flags: DIFlagPrototyped, spFlags: DISPFlagOptimized)
!823 = !DISubroutineType(types: !824)
!824 = !{null, !592, !567, !34, !53}
!825 = !DISubprogram(name: "assign_out_of_memory", linkageName: "_ZN6String20assign_out_of_memoryEv", scope: !555, file: !556, line: 281, type: !590, scopeLine: 281, flags: DIFlagPrototyped, spFlags: DISPFlagOptimized)
!826 = !DISubprogram(name: "append", linkageName: "_ZN6String6appendEPKciPNS_6memo_tE", scope: !555, file: !556, line: 282, type: !814, scopeLine: 282, flags: DIFlagPrototyped, spFlags: DISPFlagOptimized)
!827 = !DISubprogram(name: "hard_make_stable", linkageName: "_ZN6String16hard_make_stableEPKci", scope: !555, file: !556, line: 283, type: !661, scopeLine: 283, flags: DIFlagPrototyped | DIFlagStaticMember, spFlags: DISPFlagOptimized)
!828 = !DISubprogram(name: "absent_memo", linkageName: "_ZN6String11absent_memoEv", scope: !555, file: !556, line: 284, type: !829, scopeLine: 284, flags: DIFlagPrototyped | DIFlagStaticMember, spFlags: DISPFlagOptimized)
!829 = !DISubroutineType(types: !830)
!830 = !{!570}
!831 = !DISubprogram(name: "create_memo", linkageName: "_ZN6String11create_memoEPcii", scope: !555, file: !556, line: 287, type: !832, scopeLine: 287, flags: DIFlagPrototyped | DIFlagStaticMember, spFlags: DISPFlagOptimized)
!832 = !DISubroutineType(types: !833)
!833 = !{!570, !779, !34, !34}
!834 = !DISubprogram(name: "delete_memo", linkageName: "_ZN6String11delete_memoEPNS_6memo_tE", scope: !555, file: !556, line: 288, type: !835, scopeLine: 288, flags: DIFlagPrototyped | DIFlagStaticMember, spFlags: DISPFlagOptimized)
!835 = !DISubroutineType(types: !836)
!836 = !{null, !570}
!837 = !DISubprogram(name: "hard_c_str", linkageName: "_ZNK6String10hard_c_strEv", scope: !555, file: !556, line: 289, type: !675, scopeLine: 289, flags: DIFlagPrototyped, spFlags: DISPFlagOptimized)
!838 = !DISubprogram(name: "hard_equals", linkageName: "_ZNK6String11hard_equalsEPKci", scope: !555, file: !556, line: 290, type: !729, scopeLine: 290, flags: DIFlagPrototyped, spFlags: DISPFlagOptimized)
!839 = !DISubprogram(name: "make_claim", linkageName: "_ZN6String10make_claimEPcii", scope: !555, file: !556, line: 299, type: !840, scopeLine: 299, flags: DIFlagPrototyped | DIFlagStaticMember, spFlags: DISPFlagOptimized)
!840 = !DISubroutineType(types: !841)
!841 = !{!555, !779, !34, !34}
!842 = !DISubprogram(name: "unparse_interval", linkageName: "_ZNK9Timestamp16unparse_intervalEv", scope: !387, file: !388, line: 501, type: !553, scopeLine: 501, flags: DIFlagPublic | DIFlagPrototyped, spFlags: DISPFlagOptimized)
!843 = !DISubprogram(name: "msec_to_subsec", linkageName: "_ZN9Timestamp14msec_to_subsecEj", scope: !387, file: !388, line: 510, type: !844, scopeLine: 510, flags: DIFlagPublic | DIFlagPrototyped | DIFlagStaticMember, spFlags: DISPFlagOptimized)
!844 = !DISubroutineType(types: !845)
!845 = !{!12, !12}
!846 = !DISubprogram(name: "usec_to_subsec", linkageName: "_ZN9Timestamp14usec_to_subsecEj", scope: !387, file: !388, line: 514, type: !844, scopeLine: 514, flags: DIFlagPublic | DIFlagPrototyped | DIFlagStaticMember, spFlags: DISPFlagOptimized)
!847 = !DISubprogram(name: "nsec_to_subsec", linkageName: "_ZN9Timestamp14nsec_to_subsecEj", scope: !387, file: !388, line: 518, type: !844, scopeLine: 518, flags: DIFlagPublic | DIFlagPrototyped | DIFlagStaticMember, spFlags: DISPFlagOptimized)
!848 = !DISubprogram(name: "subsec_to_msec", linkageName: "_ZN9Timestamp14subsec_to_msecEj", scope: !387, file: !388, line: 522, type: !844, scopeLine: 522, flags: DIFlagPublic | DIFlagPrototyped | DIFlagStaticMember, spFlags: DISPFlagOptimized)
!849 = !DISubprogram(name: "subsec_to_usec", linkageName: "_ZN9Timestamp14subsec_to_usecEj", scope: !387, file: !388, line: 526, type: !844, scopeLine: 526, flags: DIFlagPublic | DIFlagPrototyped | DIFlagStaticMember, spFlags: DISPFlagOptimized)
!850 = !DISubprogram(name: "subsec_to_nsec", linkageName: "_ZN9Timestamp14subsec_to_nsecEj", scope: !387, file: !388, line: 530, type: !844, scopeLine: 530, flags: DIFlagPublic | DIFlagPrototyped | DIFlagStaticMember, spFlags: DISPFlagOptimized)
!851 = !DISubprogram(name: "warp_class", linkageName: "_ZN9Timestamp10warp_classEv", scope: !387, file: !388, line: 581, type: !801, scopeLine: 581, flags: DIFlagPublic | DIFlagPrototyped | DIFlagStaticMember, spFlags: DISPFlagOptimized)
!852 = !DISubprogram(name: "warp_speed", linkageName: "_ZN9Timestamp10warp_speedEv", scope: !387, file: !388, line: 588, type: !853, scopeLine: 588, flags: DIFlagPublic | DIFlagPrototyped | DIFlagStaticMember, spFlags: DISPFlagOptimized)
!853 = !DISubroutineType(types: !854)
!854 = !{!416}
!855 = !DISubprogram(name: "warp_set_class", linkageName: "_ZN9Timestamp14warp_set_classENS_15warp_class_typeEd", scope: !387, file: !388, line: 621, type: !856, scopeLine: 621, flags: DIFlagPublic | DIFlagPrototyped | DIFlagStaticMember, spFlags: DISPFlagOptimized)
!856 = !DISubroutineType(types: !857)
!857 = !{null, !858, !416}
!858 = !DICompositeType(tag: DW_TAG_enumeration_type, name: "warp_class_type", scope: !387, file: !388, line: 571, baseType: !16, size: 32, elements: !859, identifier: "_ZTSN9Timestamp15warp_class_typeE")
!859 = !{!860, !861, !862, !863}
!860 = !DIEnumerator(name: "warp_none", value: 0, isUnsigned: true)
!861 = !DIEnumerator(name: "warp_linear", value: 1, isUnsigned: true)
!862 = !DIEnumerator(name: "warp_nowait", value: 2, isUnsigned: true)
!863 = !DIEnumerator(name: "warp_simulation", value: 3, isUnsigned: true)
!864 = !DISubprogram(name: "warp_set_now", linkageName: "_ZN9Timestamp12warp_set_nowERKS_S1_", scope: !387, file: !388, line: 628, type: !865, scopeLine: 628, flags: DIFlagPublic | DIFlagPrototyped | DIFlagStaticMember, spFlags: DISPFlagOptimized)
!865 = !DISubroutineType(types: !866)
!866 = !{null, !385, !385}
!867 = !DISubprogram(name: "warp_real_delay", linkageName: "_ZNK9Timestamp15warp_real_delayEv", scope: !387, file: !388, line: 632, type: !499, scopeLine: 632, flags: DIFlagPublic | DIFlagPrototyped, spFlags: DISPFlagOptimized)
!868 = !DISubprogram(name: "warp_jumping", linkageName: "_ZN9Timestamp12warp_jumpingEv", scope: !387, file: !388, line: 635, type: !869, scopeLine: 635, flags: DIFlagPublic | DIFlagPrototyped | DIFlagStaticMember, spFlags: DISPFlagOptimized)
!869 = !DISubroutineType(types: !870)
!870 = !{!53}
!871 = !DISubprogram(name: "warp_jump_steady", linkageName: "_ZN9Timestamp16warp_jump_steadyERKS_", scope: !387, file: !388, line: 640, type: !872, scopeLine: 640, flags: DIFlagPublic | DIFlagPrototyped | DIFlagStaticMember, spFlags: DISPFlagOptimized)
!872 = !DISubroutineType(types: !873)
!873 = !{null, !385}
!874 = !DISubprogram(name: "now_unwarped", linkageName: "_ZN9Timestamp12now_unwarpedEv", scope: !387, file: !388, line: 647, type: !529, scopeLine: 647, flags: DIFlagPublic | DIFlagPrototyped | DIFlagStaticMember, spFlags: DISPFlagOptimized)
!875 = !DISubprogram(name: "assign_now_unwarped", linkageName: "_ZN9Timestamp19assign_now_unwarpedEv", scope: !387, file: !388, line: 653, type: !398, scopeLine: 653, flags: DIFlagPublic | DIFlagPrototyped, spFlags: DISPFlagOptimized)
!876 = !DISubprogram(name: "now_steady_unwarped", linkageName: "_ZN9Timestamp19now_steady_unwarpedEv", scope: !387, file: !388, line: 659, type: !529, scopeLine: 659, flags: DIFlagPublic | DIFlagPrototyped | DIFlagStaticMember, spFlags: DISPFlagOptimized)
!877 = !DISubprogram(name: "assign_now_steady_unwarped", linkageName: "_ZN9Timestamp26assign_now_steady_unwarpedEv", scope: !387, file: !388, line: 666, type: !398, scopeLine: 666, flags: DIFlagPublic | DIFlagPrototyped, spFlags: DISPFlagOptimized)
!878 = !DISubprogram(name: "add_fix", linkageName: "_ZN9Timestamp7add_fixEv", scope: !387, file: !388, line: 674, type: !398, scopeLine: 674, flags: DIFlagPrototyped, spFlags: DISPFlagOptimized)
!879 = !DISubprogram(name: "sub_fix", linkageName: "_ZN9Timestamp7sub_fixEv", scope: !387, file: !388, line: 686, type: !398, scopeLine: 686, flags: DIFlagPrototyped, spFlags: DISPFlagOptimized)
!880 = !DISubprogram(name: "value_div", linkageName: "_ZN9Timestamp9value_divElj", scope: !387, file: !388, line: 698, type: !881, scopeLine: 698, flags: DIFlagPrototyped | DIFlagStaticMember, spFlags: DISPFlagOptimized)
!881 = !DISubroutineType(types: !882)
!882 = !{!495, !495, !12}
!883 = !DISubprogram(name: "value_div_mod", linkageName: "_ZN9Timestamp13value_div_modERiS0_lj", scope: !387, file: !388, line: 702, type: !884, scopeLine: 702, flags: DIFlagPrototyped | DIFlagStaticMember, spFlags: DISPFlagOptimized)
!884 = !DISubroutineType(types: !885)
!885 = !{null, !886, !886, !495, !12}
!886 = !DIDerivedType(tag: DW_TAG_reference_type, baseType: !31, size: 64)
!887 = !DISubprogram(name: "assign_now", linkageName: "_ZN9Timestamp10assign_nowEbbb", scope: !387, file: !388, line: 709, type: !888, scopeLine: 709, flags: DIFlagPrototyped, spFlags: DISPFlagOptimized)
!888 = !DISubroutineType(types: !889)
!889 = !{null, !400, !53, !53, !53}
!890 = !DISubprogram(name: "warp_adjust", linkageName: "_ZN9Timestamp11warp_adjustEbRKS_S1_", scope: !387, file: !388, line: 712, type: !891, scopeLine: 712, flags: DIFlagPrototyped | DIFlagStaticMember, spFlags: DISPFlagOptimized)
!891 = !DISubroutineType(types: !892)
!892 = !{null, !53, !385, !385}
!893 = !DISubprogram(name: "warped", linkageName: "_ZNK9Timestamp6warpedEb", scope: !387, file: !388, line: 713, type: !894, scopeLine: 713, flags: DIFlagPrototyped, spFlags: DISPFlagOptimized)
!894 = !DISubroutineType(types: !895)
!895 = !{!387, !462, !53}
!896 = !DISubprogram(name: "warp", linkageName: "_ZN9Timestamp4warpEbb", scope: !387, file: !388, line: 714, type: !897, scopeLine: 714, flags: DIFlagPrototyped, spFlags: DISPFlagOptimized)
!897 = !DISubroutineType(types: !898)
!898 = !{null, !400, !53, !53}
!899 = !DISubprogram(name: "timestamp_anno", linkageName: "_ZN6Packet14timestamp_annoEv", scope: !5, file: !4, line: 356, type: !900, scopeLine: 356, flags: DIFlagPublic | DIFlagPrototyped, spFlags: DISPFlagOptimized)
!900 = !DISubroutineType(types: !901)
!901 = !{!902, !242}
!902 = !DIDerivedType(tag: DW_TAG_reference_type, baseType: !387, size: 64)
!903 = !DISubprogram(name: "set_timestamp_anno", linkageName: "_ZN6Packet18set_timestamp_annoERK9Timestamp", scope: !5, file: !4, line: 359, type: !904, scopeLine: 359, flags: DIFlagPublic | DIFlagPrototyped, spFlags: DISPFlagOptimized)
!904 = !DISubroutineType(types: !905)
!905 = !{null, !242, !385}
!906 = !DISubprogram(name: "device_anno", linkageName: "_ZNK6Packet11device_annoEv", scope: !5, file: !4, line: 362, type: !907, scopeLine: 362, flags: DIFlagPublic | DIFlagPrototyped, spFlags: DISPFlagOptimized)
!907 = !DISubroutineType(types: !908)
!908 = !{!909, !246}
!909 = !DIDerivedType(tag: DW_TAG_pointer_type, baseType: !910, size: 64)
!910 = !DIDerivedType(tag: DW_TAG_typedef, name: "net_device", file: !507, line: 326, baseType: !911)
!911 = !DICompositeType(tag: DW_TAG_structure_type, name: "device", file: !507, line: 326, flags: DIFlagFwdDecl, identifier: "_ZTS6device")
!912 = !DISubprogram(name: "set_device_anno", linkageName: "_ZN6Packet15set_device_annoEP6device", scope: !5, file: !4, line: 364, type: !913, scopeLine: 364, flags: DIFlagPublic | DIFlagPrototyped, spFlags: DISPFlagOptimized)
!913 = !DISubroutineType(types: !914)
!914 = !{null, !242, !909}
!915 = !DISubprogram(name: "packet_type_anno", linkageName: "_ZNK6Packet16packet_type_annoEv", scope: !5, file: !4, line: 383, type: !916, scopeLine: 383, flags: DIFlagPublic | DIFlagPrototyped, spFlags: DISPFlagOptimized)
!916 = !DISubroutineType(types: !917)
!917 = !{!3, !246}
!918 = !DISubprogram(name: "set_packet_type_anno", linkageName: "_ZN6Packet20set_packet_type_annoENS_10PacketTypeE", scope: !5, file: !4, line: 385, type: !919, scopeLine: 385, flags: DIFlagPublic | DIFlagPrototyped, spFlags: DISPFlagOptimized)
!919 = !DISubroutineType(types: !920)
!920 = !{null, !242, !3}
!921 = !DISubprogram(name: "next", linkageName: "_ZNK6Packet4nextEv", scope: !5, file: !4, line: 410, type: !922, scopeLine: 410, flags: DIFlagPublic | DIFlagPrototyped, spFlags: DISPFlagOptimized)
!922 = !DISubroutineType(types: !923)
!923 = !{!78, !246}
!924 = !DISubprogram(name: "next", linkageName: "_ZN6Packet4nextEv", scope: !5, file: !4, line: 412, type: !925, scopeLine: 412, flags: DIFlagPublic | DIFlagPrototyped, spFlags: DISPFlagOptimized)
!925 = !DISubroutineType(types: !926)
!926 = !{!927, !242}
!927 = !DIDerivedType(tag: DW_TAG_reference_type, baseType: !78, size: 64)
!928 = !DISubprogram(name: "set_next", linkageName: "_ZN6Packet8set_nextEPS_", scope: !5, file: !4, line: 414, type: !929, scopeLine: 414, flags: DIFlagPublic | DIFlagPrototyped, spFlags: DISPFlagOptimized)
!929 = !DISubroutineType(types: !930)
!930 = !{null, !242, !78}
!931 = !DISubprogram(name: "prev", linkageName: "_ZNK6Packet4prevEv", scope: !5, file: !4, line: 417, type: !922, scopeLine: 417, flags: DIFlagPublic | DIFlagPrototyped, spFlags: DISPFlagOptimized)
!932 = !DISubprogram(name: "prev", linkageName: "_ZN6Packet4prevEv", scope: !5, file: !4, line: 419, type: !925, scopeLine: 419, flags: DIFlagPublic | DIFlagPrototyped, spFlags: DISPFlagOptimized)
!933 = !DISubprogram(name: "set_prev", linkageName: "_ZN6Packet8set_prevEPS_", scope: !5, file: !4, line: 421, type: !929, scopeLine: 421, flags: DIFlagPublic | DIFlagPrototyped, spFlags: DISPFlagOptimized)
!934 = !DISubprogram(name: "dst_ip_anno", linkageName: "_ZNK6Packet11dst_ip_annoEv", scope: !5, file: !4, line: 431, type: !935, scopeLine: 431, flags: DIFlagPublic | DIFlagPrototyped, spFlags: DISPFlagOptimized)
!935 = !DISubroutineType(types: !936)
!936 = !{!937, !246}
!937 = distinct !DICompositeType(tag: DW_TAG_class_type, name: "IPAddress", file: !938, line: 15, size: 32, flags: DIFlagTypePassByValue | DIFlagNonTrivial, elements: !939, identifier: "_ZTS9IPAddress")
!938 = !DIFile(filename: "../dummy_inc/click/ipaddress.hh", directory: "/home/john/projects/click/ir-dir")
!939 = !{!940, !941, !945, !948, !951, !954, !957, !960, !963, !966, !971, !974, !977, !982, !985, !986, !987, !988, !991, !992, !995, !998, !999, !1002, !1005, !1008, !1009, !1013, !1014, !1015, !1018, !1019, !1022, !1023}
!940 = !DIDerivedType(tag: DW_TAG_member, name: "_addr", scope: !937, file: !938, line: 152, baseType: !12, size: 32)
!941 = !DISubprogram(name: "IPAddress", scope: !937, file: !938, line: 20, type: !942, scopeLine: 20, flags: DIFlagPublic | DIFlagPrototyped, spFlags: DISPFlagOptimized)
!942 = !DISubroutineType(types: !943)
!943 = !{null, !944}
!944 = !DIDerivedType(tag: DW_TAG_pointer_type, baseType: !937, size: 64, flags: DIFlagArtificial | DIFlagObjectPointer)
!945 = !DISubprogram(name: "IPAddress", scope: !937, file: !938, line: 25, type: !946, scopeLine: 25, flags: DIFlagPublic | DIFlagPrototyped, spFlags: DISPFlagOptimized)
!946 = !DISubroutineType(types: !947)
!947 = !{null, !944, !16}
!948 = !DISubprogram(name: "IPAddress", scope: !937, file: !938, line: 29, type: !949, scopeLine: 29, flags: DIFlagPublic | DIFlagExplicit | DIFlagPrototyped, spFlags: DISPFlagOptimized)
!949 = !DISubroutineType(types: !950)
!950 = !{null, !944, !34}
!951 = !DISubprogram(name: "IPAddress", scope: !937, file: !938, line: 33, type: !952, scopeLine: 33, flags: DIFlagPublic | DIFlagExplicit | DIFlagPrototyped, spFlags: DISPFlagOptimized)
!952 = !DISubroutineType(types: !953)
!953 = !{null, !944, !115}
!954 = !DISubprogram(name: "IPAddress", scope: !937, file: !938, line: 37, type: !955, scopeLine: 37, flags: DIFlagPublic | DIFlagExplicit | DIFlagPrototyped, spFlags: DISPFlagOptimized)
!955 = !DISubroutineType(types: !956)
!956 = !{null, !944, !396}
!957 = !DISubprogram(name: "IPAddress", scope: !937, file: !938, line: 42, type: !958, scopeLine: 42, flags: DIFlagPublic | DIFlagPrototyped, spFlags: DISPFlagOptimized)
!958 = !DISubroutineType(types: !959)
!959 = !{null, !944, !176}
!960 = !DISubprogram(name: "IPAddress", scope: !937, file: !938, line: 50, type: !961, scopeLine: 50, flags: DIFlagPublic | DIFlagExplicit | DIFlagPrototyped, spFlags: DISPFlagOptimized)
!961 = !DISubroutineType(types: !962)
!962 = !{null, !944, !256}
!963 = !DISubprogram(name: "IPAddress", scope: !937, file: !938, line: 63, type: !964, scopeLine: 63, flags: DIFlagPublic | DIFlagExplicit | DIFlagPrototyped, spFlags: DISPFlagOptimized)
!964 = !DISubroutineType(types: !965)
!965 = !{null, !944, !596}
!966 = !DISubprogram(name: "IPAddress", scope: !937, file: !938, line: 66, type: !967, scopeLine: 66, flags: DIFlagPublic | DIFlagPrototyped, spFlags: DISPFlagOptimized)
!967 = !DISubroutineType(types: !968)
!968 = !{null, !944, !969}
!969 = !DIDerivedType(tag: DW_TAG_reference_type, baseType: !970, size: 64)
!970 = !DIDerivedType(tag: DW_TAG_const_type, baseType: !451)
!971 = !DISubprogram(name: "make_prefix", linkageName: "_ZN9IPAddress11make_prefixEi", scope: !937, file: !938, line: 78, type: !972, scopeLine: 78, flags: DIFlagPublic | DIFlagPrototyped | DIFlagStaticMember, spFlags: DISPFlagOptimized)
!972 = !DISubroutineType(types: !973)
!973 = !{!937, !34}
!974 = !DISubprogram(name: "make_broadcast", linkageName: "_ZN9IPAddress14make_broadcastEv", scope: !937, file: !938, line: 81, type: !975, scopeLine: 81, flags: DIFlagPublic | DIFlagPrototyped | DIFlagStaticMember, spFlags: DISPFlagOptimized)
!975 = !DISubroutineType(types: !976)
!976 = !{!937}
!977 = !DISubprogram(name: "empty", linkageName: "_ZNK9IPAddress5emptyEv", scope: !937, file: !938, line: 86, type: !978, scopeLine: 86, flags: DIFlagPublic | DIFlagPrototyped, spFlags: DISPFlagOptimized)
!978 = !DISubroutineType(types: !979)
!979 = !{!53, !980}
!980 = !DIDerivedType(tag: DW_TAG_pointer_type, baseType: !981, size: 64, flags: DIFlagArtificial | DIFlagObjectPointer)
!981 = !DIDerivedType(tag: DW_TAG_const_type, baseType: !937)
!982 = !DISubprogram(name: "addr", linkageName: "_ZNK9IPAddress4addrEv", scope: !937, file: !938, line: 91, type: !983, scopeLine: 91, flags: DIFlagPublic | DIFlagPrototyped, spFlags: DISPFlagOptimized)
!983 = !DISubroutineType(types: !984)
!984 = !{!12, !980}
!985 = !DISubprogram(name: "operator unsigned int", linkageName: "_ZNK9IPAddresscvjEv", scope: !937, file: !938, line: 99, type: !983, scopeLine: 99, flags: DIFlagPublic | DIFlagPrototyped, spFlags: DISPFlagOptimized)
!986 = !DISubprogram(name: "is_multicast", linkageName: "_ZNK9IPAddress12is_multicastEv", scope: !937, file: !938, line: 106, type: !978, scopeLine: 106, flags: DIFlagPublic | DIFlagPrototyped, spFlags: DISPFlagOptimized)
!987 = !DISubprogram(name: "is_link_local", linkageName: "_ZNK9IPAddress13is_link_localEv", scope: !937, file: !938, line: 110, type: !978, scopeLine: 110, flags: DIFlagPublic | DIFlagPrototyped, spFlags: DISPFlagOptimized)
!988 = !DISubprogram(name: "in_addr", linkageName: "_ZNK9IPAddress7in_addrEv", scope: !937, file: !938, line: 114, type: !989, scopeLine: 114, flags: DIFlagPublic | DIFlagPrototyped, spFlags: DISPFlagOptimized)
!989 = !DISubroutineType(types: !990)
!990 = !{!176, !980}
!991 = !DISubprogram(name: "operator in_addr", linkageName: "_ZNK9IPAddresscv7in_addrEv", scope: !937, file: !938, line: 115, type: !989, scopeLine: 115, flags: DIFlagPublic | DIFlagPrototyped, spFlags: DISPFlagOptimized)
!992 = !DISubprogram(name: "data", linkageName: "_ZN9IPAddress4dataEv", scope: !937, file: !938, line: 117, type: !993, scopeLine: 117, flags: DIFlagPublic | DIFlagPrototyped, spFlags: DISPFlagOptimized)
!993 = !DISubroutineType(types: !994)
!994 = !{!80, !944}
!995 = !DISubprogram(name: "data", linkageName: "_ZNK9IPAddress4dataEv", scope: !937, file: !938, line: 118, type: !996, scopeLine: 118, flags: DIFlagPublic | DIFlagPrototyped, spFlags: DISPFlagOptimized)
!996 = !DISubroutineType(types: !997)
!997 = !{!256, !980}
!998 = !DISubprogram(name: "hashcode", linkageName: "_ZNK9IPAddress8hashcodeEv", scope: !937, file: !938, line: 120, type: !983, scopeLine: 120, flags: DIFlagPublic | DIFlagPrototyped, spFlags: DISPFlagOptimized)
!999 = !DISubprogram(name: "mask_to_prefix_len", linkageName: "_ZNK9IPAddress18mask_to_prefix_lenEv", scope: !937, file: !938, line: 122, type: !1000, scopeLine: 122, flags: DIFlagPublic | DIFlagPrototyped, spFlags: DISPFlagOptimized)
!1000 = !DISubroutineType(types: !1001)
!1001 = !{!34, !980}
!1002 = !DISubprogram(name: "matches_prefix", linkageName: "_ZNK9IPAddress14matches_prefixES_S_", scope: !937, file: !938, line: 123, type: !1003, scopeLine: 123, flags: DIFlagPublic | DIFlagPrototyped, spFlags: DISPFlagOptimized)
!1003 = !DISubroutineType(types: !1004)
!1004 = !{!53, !980, !937, !937}
!1005 = !DISubprogram(name: "mask_as_specific", linkageName: "_ZNK9IPAddress16mask_as_specificES_", scope: !937, file: !938, line: 124, type: !1006, scopeLine: 124, flags: DIFlagPublic | DIFlagPrototyped, spFlags: DISPFlagOptimized)
!1006 = !DISubroutineType(types: !1007)
!1007 = !{!53, !980, !937}
!1008 = !DISubprogram(name: "mask_more_specific", linkageName: "_ZNK9IPAddress18mask_more_specificES_", scope: !937, file: !938, line: 125, type: !1006, scopeLine: 125, flags: DIFlagPublic | DIFlagPrototyped, spFlags: DISPFlagOptimized)
!1009 = !DISubprogram(name: "operator&=", linkageName: "_ZN9IPAddressaNES_", scope: !937, file: !938, line: 137, type: !1010, scopeLine: 137, flags: DIFlagPublic | DIFlagPrototyped, spFlags: DISPFlagOptimized)
!1010 = !DISubroutineType(types: !1011)
!1011 = !{!1012, !944, !937}
!1012 = !DIDerivedType(tag: DW_TAG_reference_type, baseType: !937, size: 64)
!1013 = !DISubprogram(name: "operator|=", linkageName: "_ZN9IPAddressoRES_", scope: !937, file: !938, line: 138, type: !1010, scopeLine: 138, flags: DIFlagPublic | DIFlagPrototyped, spFlags: DISPFlagOptimized)
!1014 = !DISubprogram(name: "operator^=", linkageName: "_ZN9IPAddresseOES_", scope: !937, file: !938, line: 139, type: !1010, scopeLine: 139, flags: DIFlagPublic | DIFlagPrototyped, spFlags: DISPFlagOptimized)
!1015 = !DISubprogram(name: "unparse", linkageName: "_ZNK9IPAddress7unparseEv", scope: !937, file: !938, line: 141, type: !1016, scopeLine: 141, flags: DIFlagPublic | DIFlagPrototyped, spFlags: DISPFlagOptimized)
!1016 = !DISubroutineType(types: !1017)
!1017 = !{!555, !980}
!1018 = !DISubprogram(name: "unparse_mask", linkageName: "_ZNK9IPAddress12unparse_maskEv", scope: !937, file: !938, line: 142, type: !1016, scopeLine: 142, flags: DIFlagPublic | DIFlagPrototyped, spFlags: DISPFlagOptimized)
!1019 = !DISubprogram(name: "unparse_with_mask", linkageName: "_ZNK9IPAddress17unparse_with_maskES_", scope: !937, file: !938, line: 143, type: !1020, scopeLine: 143, flags: DIFlagPublic | DIFlagPrototyped, spFlags: DISPFlagOptimized)
!1020 = !DISubroutineType(types: !1021)
!1021 = !{!555, !980, !937}
!1022 = !DISubprogram(name: "s", linkageName: "_ZNK9IPAddress1sEv", scope: !937, file: !938, line: 145, type: !1016, scopeLine: 145, flags: DIFlagPublic | DIFlagPrototyped, spFlags: DISPFlagOptimized)
!1023 = !DISubprogram(name: "operator String", linkageName: "_ZNK9IPAddresscv6StringEv", scope: !937, file: !938, line: 146, type: !1016, scopeLine: 146, flags: DIFlagPublic | DIFlagPrototyped, spFlags: DISPFlagOptimized)
!1024 = !DISubprogram(name: "set_dst_ip_anno", linkageName: "_ZN6Packet15set_dst_ip_annoE9IPAddress", scope: !5, file: !4, line: 436, type: !1025, scopeLine: 436, flags: DIFlagPublic | DIFlagPrototyped, spFlags: DISPFlagOptimized)
!1025 = !DISubroutineType(types: !1026)
!1026 = !{null, !242, !937}
!1027 = !DISubprogram(name: "anno", linkageName: "_ZN6Packet4annoEv", scope: !5, file: !4, line: 441, type: !274, scopeLine: 441, flags: DIFlagPublic | DIFlagPrototyped, spFlags: DISPFlagOptimized)
!1028 = !DISubprogram(name: "anno", linkageName: "_ZNK6Packet4annoEv", scope: !5, file: !4, line: 444, type: !1029, scopeLine: 444, flags: DIFlagPublic | DIFlagPrototyped, spFlags: DISPFlagOptimized)
!1029 = !DISubroutineType(types: !1030)
!1030 = !{!225, !246}
!1031 = !DISubprogram(name: "anno_u8", linkageName: "_ZN6Packet7anno_u8Ev", scope: !5, file: !4, line: 447, type: !1032, scopeLine: 447, flags: DIFlagPublic | DIFlagPrototyped, spFlags: DISPFlagOptimized)
!1032 = !DISubroutineType(types: !1033)
!1033 = !{!1034, !242}
!1034 = !DIDerivedType(tag: DW_TAG_pointer_type, baseType: !98, size: 64)
!1035 = !DISubprogram(name: "anno_u8", linkageName: "_ZNK6Packet7anno_u8Ev", scope: !5, file: !4, line: 450, type: !1036, scopeLine: 450, flags: DIFlagPublic | DIFlagPrototyped, spFlags: DISPFlagOptimized)
!1036 = !DISubroutineType(types: !1037)
!1037 = !{!1038, !246}
!1038 = !DIDerivedType(tag: DW_TAG_pointer_type, baseType: !1039, size: 64)
!1039 = !DIDerivedType(tag: DW_TAG_const_type, baseType: !98)
!1040 = !DISubprogram(name: "anno_u32", linkageName: "_ZN6Packet8anno_u32Ev", scope: !5, file: !4, line: 453, type: !1041, scopeLine: 453, flags: DIFlagPublic | DIFlagPrototyped, spFlags: DISPFlagOptimized)
!1041 = !DISubroutineType(types: !1042)
!1042 = !{!1043, !242}
!1043 = !DIDerivedType(tag: DW_TAG_pointer_type, baseType: !12, size: 64)
!1044 = !DISubprogram(name: "anno_u32", linkageName: "_ZNK6Packet8anno_u32Ev", scope: !5, file: !4, line: 456, type: !1045, scopeLine: 456, flags: DIFlagPublic | DIFlagPrototyped, spFlags: DISPFlagOptimized)
!1045 = !DISubroutineType(types: !1046)
!1046 = !{!1047, !246}
!1047 = !DIDerivedType(tag: DW_TAG_pointer_type, baseType: !1048, size: 64)
!1048 = !DIDerivedType(tag: DW_TAG_const_type, baseType: !12)
!1049 = !DISubprogram(name: "anno_u8", linkageName: "_ZNK6Packet7anno_u8Ei", scope: !5, file: !4, line: 460, type: !1050, scopeLine: 460, flags: DIFlagPublic | DIFlagPrototyped, spFlags: DISPFlagOptimized)
!1050 = !DISubroutineType(types: !1051)
!1051 = !{!98, !246, !34}
!1052 = !DISubprogram(name: "set_anno_u8", linkageName: "_ZN6Packet11set_anno_u8Eih", scope: !5, file: !4, line: 469, type: !1053, scopeLine: 469, flags: DIFlagPublic | DIFlagPrototyped, spFlags: DISPFlagOptimized)
!1053 = !DISubroutineType(types: !1054)
!1054 = !{null, !242, !34, !98}
!1055 = !DISubprogram(name: "anno_u16", linkageName: "_ZNK6Packet8anno_u16Ei", scope: !5, file: !4, line: 479, type: !1056, scopeLine: 479, flags: DIFlagPublic | DIFlagPrototyped, spFlags: DISPFlagOptimized)
!1056 = !DISubroutineType(types: !1057)
!1057 = !{!102, !246, !34}
!1058 = !DISubprogram(name: "set_anno_u16", linkageName: "_ZN6Packet12set_anno_u16Eit", scope: !5, file: !4, line: 494, type: !1059, scopeLine: 494, flags: DIFlagPublic | DIFlagPrototyped, spFlags: DISPFlagOptimized)
!1059 = !DISubroutineType(types: !1060)
!1060 = !{null, !242, !34, !102}
!1061 = !DISubprogram(name: "anno_s16", linkageName: "_ZNK6Packet8anno_s16Ei", scope: !5, file: !4, line: 507, type: !1062, scopeLine: 507, flags: DIFlagPublic | DIFlagPrototyped, spFlags: DISPFlagOptimized)
!1062 = !DISubroutineType(types: !1063)
!1063 = !{!1064, !246, !34}
!1064 = !DIDerivedType(tag: DW_TAG_typedef, name: "int16_t", file: !32, line: 25, baseType: !1065)
!1065 = !DIDerivedType(tag: DW_TAG_typedef, name: "__int16_t", file: !15, line: 39, baseType: !1066)
!1066 = !DIBasicType(name: "short", size: 16, encoding: DW_ATE_signed)
!1067 = !DISubprogram(name: "set_anno_s16", linkageName: "_ZN6Packet12set_anno_s16Eis", scope: !5, file: !4, line: 522, type: !1068, scopeLine: 522, flags: DIFlagPublic | DIFlagPrototyped, spFlags: DISPFlagOptimized)
!1068 = !DISubroutineType(types: !1069)
!1069 = !{null, !242, !34, !1064}
!1070 = !DISubprogram(name: "anno_u32", linkageName: "_ZNK6Packet8anno_u32Ei", scope: !5, file: !4, line: 535, type: !1071, scopeLine: 535, flags: DIFlagPublic | DIFlagPrototyped, spFlags: DISPFlagOptimized)
!1071 = !DISubroutineType(types: !1072)
!1072 = !{!12, !246, !34}
!1073 = !DISubprogram(name: "set_anno_u32", linkageName: "_ZN6Packet12set_anno_u32Eij", scope: !5, file: !4, line: 550, type: !1074, scopeLine: 550, flags: DIFlagPublic | DIFlagPrototyped, spFlags: DISPFlagOptimized)
!1074 = !DISubroutineType(types: !1075)
!1075 = !{null, !242, !34, !12}
!1076 = !DISubprogram(name: "anno_s32", linkageName: "_ZNK6Packet8anno_s32Ei", scope: !5, file: !4, line: 556, type: !1077, scopeLine: 556, flags: DIFlagPublic | DIFlagPrototyped, spFlags: DISPFlagOptimized)
!1077 = !DISubroutineType(types: !1078)
!1078 = !{!31, !246, !34}
!1079 = !DISubprogram(name: "set_anno_s32", linkageName: "_ZN6Packet12set_anno_s32Eii", scope: !5, file: !4, line: 571, type: !1080, scopeLine: 571, flags: DIFlagPublic | DIFlagPrototyped, spFlags: DISPFlagOptimized)
!1080 = !DISubroutineType(types: !1081)
!1081 = !{null, !242, !34, !31}
!1082 = !DISubprogram(name: "anno_u64", linkageName: "_ZNK6Packet8anno_u64Ei", scope: !5, file: !4, line: 585, type: !1083, scopeLine: 585, flags: DIFlagPublic | DIFlagPrototyped, spFlags: DISPFlagOptimized)
!1083 = !DISubroutineType(types: !1084)
!1084 = !{!113, !246, !34}
!1085 = !DISubprogram(name: "set_anno_u64", linkageName: "_ZN6Packet12set_anno_u64Eim", scope: !5, file: !4, line: 600, type: !1086, scopeLine: 600, flags: DIFlagPublic | DIFlagPrototyped, spFlags: DISPFlagOptimized)
!1086 = !DISubroutineType(types: !1087)
!1087 = !{null, !242, !34, !113}
!1088 = !DISubprogram(name: "anno_ptr", linkageName: "_ZNK6Packet8anno_ptrEi", scope: !5, file: !4, line: 614, type: !1089, scopeLine: 614, flags: DIFlagPublic | DIFlagPrototyped, spFlags: DISPFlagOptimized)
!1089 = !DISubroutineType(types: !1090)
!1090 = !{!135, !246, !34}
!1091 = !DISubprogram(name: "set_anno_ptr", linkageName: "_ZN6Packet12set_anno_ptrEiPKv", scope: !5, file: !4, line: 629, type: !1092, scopeLine: 629, flags: DIFlagPublic | DIFlagPrototyped, spFlags: DISPFlagOptimized)
!1092 = !DISubroutineType(types: !1093)
!1093 = !{null, !242, !34, !225}
!1094 = !DISubprogram(name: "data_packet", linkageName: "_ZN6Packet11data_packetEv", scope: !5, file: !4, line: 638, type: !248, scopeLine: 638, flags: DIFlagPublic | DIFlagPrototyped, spFlags: DISPFlagOptimized)
!1095 = !DISubprogram(name: "clear_annotations", linkageName: "_ZN6Packet17clear_annotationsEb", scope: !5, file: !4, line: 643, type: !1096, scopeLine: 643, flags: DIFlagPublic | DIFlagPrototyped, spFlags: DISPFlagOptimized)
!1096 = !DISubroutineType(types: !1097)
!1097 = !{null, !242, !53}
!1098 = !DISubprogram(name: "copy_annotations", linkageName: "_ZN6Packet16copy_annotationsEPKS_", scope: !5, file: !4, line: 644, type: !1099, scopeLine: 644, flags: DIFlagPublic | DIFlagPrototyped, spFlags: DISPFlagOptimized)
!1099 = !DISubroutineType(types: !1100)
!1100 = !{null, !242, !1101}
!1101 = !DIDerivedType(tag: DW_TAG_pointer_type, baseType: !214, size: 64)
!1102 = !DISubprogram(name: "buffer_data", linkageName: "_ZNK6Packet11buffer_dataEv", scope: !5, file: !4, line: 661, type: !254, scopeLine: 661, flags: DIFlagPublic | DIFlagPrototyped, spFlags: DISPFlagOptimized)
!1103 = !DISubprogram(name: "addr_anno", linkageName: "_ZN6Packet9addr_annoEv", scope: !5, file: !4, line: 662, type: !274, scopeLine: 662, flags: DIFlagPublic | DIFlagPrototyped, spFlags: DISPFlagOptimized)
!1104 = !DISubprogram(name: "addr_anno", linkageName: "_ZNK6Packet9addr_annoEv", scope: !5, file: !4, line: 663, type: !1029, scopeLine: 663, flags: DIFlagPublic | DIFlagPrototyped, spFlags: DISPFlagOptimized)
!1105 = !DISubprogram(name: "user_anno", linkageName: "_ZN6Packet9user_annoEv", scope: !5, file: !4, line: 664, type: !274, scopeLine: 664, flags: DIFlagPublic | DIFlagPrototyped, spFlags: DISPFlagOptimized)
!1106 = !DISubprogram(name: "user_anno", linkageName: "_ZNK6Packet9user_annoEv", scope: !5, file: !4, line: 665, type: !1029, scopeLine: 665, flags: DIFlagPublic | DIFlagPrototyped, spFlags: DISPFlagOptimized)
!1107 = !DISubprogram(name: "user_anno_u8", linkageName: "_ZN6Packet12user_anno_u8Ev", scope: !5, file: !4, line: 666, type: !1032, scopeLine: 666, flags: DIFlagPublic | DIFlagPrototyped, spFlags: DISPFlagOptimized)
!1108 = !DISubprogram(name: "user_anno_u8", linkageName: "_ZNK6Packet12user_anno_u8Ev", scope: !5, file: !4, line: 667, type: !1036, scopeLine: 667, flags: DIFlagPublic | DIFlagPrototyped, spFlags: DISPFlagOptimized)
!1109 = !DISubprogram(name: "user_anno_u32", linkageName: "_ZN6Packet13user_anno_u32Ev", scope: !5, file: !4, line: 668, type: !1041, scopeLine: 668, flags: DIFlagPublic | DIFlagPrototyped, spFlags: DISPFlagOptimized)
!1110 = !DISubprogram(name: "user_anno_u32", linkageName: "_ZNK6Packet13user_anno_u32Ev", scope: !5, file: !4, line: 669, type: !1045, scopeLine: 669, flags: DIFlagPublic | DIFlagPrototyped, spFlags: DISPFlagOptimized)
!1111 = !DISubprogram(name: "user_anno_u8", linkageName: "_ZNK6Packet12user_anno_u8Ei", scope: !5, file: !4, line: 670, type: !1050, scopeLine: 670, flags: DIFlagPublic | DIFlagPrototyped, spFlags: DISPFlagOptimized)
!1112 = !DISubprogram(name: "set_user_anno_u8", linkageName: "_ZN6Packet16set_user_anno_u8Eih", scope: !5, file: !4, line: 671, type: !1053, scopeLine: 671, flags: DIFlagPublic | DIFlagPrototyped, spFlags: DISPFlagOptimized)
!1113 = !DISubprogram(name: "user_anno_u16", linkageName: "_ZNK6Packet13user_anno_u16Ei", scope: !5, file: !4, line: 672, type: !1056, scopeLine: 672, flags: DIFlagPublic | DIFlagPrototyped, spFlags: DISPFlagOptimized)
!1114 = !DISubprogram(name: "set_user_anno_u16", linkageName: "_ZN6Packet17set_user_anno_u16Eit", scope: !5, file: !4, line: 673, type: !1059, scopeLine: 673, flags: DIFlagPublic | DIFlagPrototyped, spFlags: DISPFlagOptimized)
!1115 = !DISubprogram(name: "user_anno_u32", linkageName: "_ZNK6Packet13user_anno_u32Ei", scope: !5, file: !4, line: 674, type: !1071, scopeLine: 674, flags: DIFlagPublic | DIFlagPrototyped, spFlags: DISPFlagOptimized)
!1116 = !DISubprogram(name: "set_user_anno_u32", linkageName: "_ZN6Packet17set_user_anno_u32Eij", scope: !5, file: !4, line: 675, type: !1074, scopeLine: 675, flags: DIFlagPublic | DIFlagPrototyped, spFlags: DISPFlagOptimized)
!1117 = !DISubprogram(name: "user_anno_s32", linkageName: "_ZNK6Packet13user_anno_s32Ei", scope: !5, file: !4, line: 676, type: !1077, scopeLine: 676, flags: DIFlagPublic | DIFlagPrototyped, spFlags: DISPFlagOptimized)
!1118 = !DISubprogram(name: "set_user_anno_s32", linkageName: "_ZN6Packet17set_user_anno_s32Eii", scope: !5, file: !4, line: 677, type: !1080, scopeLine: 677, flags: DIFlagPublic | DIFlagPrototyped, spFlags: DISPFlagOptimized)
!1119 = !DISubprogram(name: "user_anno_u64", linkageName: "_ZNK6Packet13user_anno_u64Ei", scope: !5, file: !4, line: 679, type: !1083, scopeLine: 679, flags: DIFlagPublic | DIFlagPrototyped, spFlags: DISPFlagOptimized)
!1120 = !DISubprogram(name: "set_user_anno_u64", linkageName: "_ZN6Packet17set_user_anno_u64Eim", scope: !5, file: !4, line: 680, type: !1086, scopeLine: 680, flags: DIFlagPublic | DIFlagPrototyped, spFlags: DISPFlagOptimized)
!1121 = !DISubprogram(name: "all_user_anno", linkageName: "_ZNK6Packet13all_user_annoEv", scope: !5, file: !4, line: 682, type: !1036, scopeLine: 682, flags: DIFlagPublic | DIFlagPrototyped, spFlags: DISPFlagOptimized)
!1122 = !DISubprogram(name: "all_user_anno", linkageName: "_ZN6Packet13all_user_annoEv", scope: !5, file: !4, line: 683, type: !1032, scopeLine: 683, flags: DIFlagPublic | DIFlagPrototyped, spFlags: DISPFlagOptimized)
!1123 = !DISubprogram(name: "all_user_anno_u", linkageName: "_ZNK6Packet15all_user_anno_uEv", scope: !5, file: !4, line: 684, type: !1045, scopeLine: 684, flags: DIFlagPublic | DIFlagPrototyped, spFlags: DISPFlagOptimized)
!1124 = !DISubprogram(name: "all_user_anno_u", linkageName: "_ZN6Packet15all_user_anno_uEv", scope: !5, file: !4, line: 685, type: !1041, scopeLine: 685, flags: DIFlagPublic | DIFlagPrototyped, spFlags: DISPFlagOptimized)
!1125 = !DISubprogram(name: "user_anno_c", linkageName: "_ZNK6Packet11user_anno_cEi", scope: !5, file: !4, line: 686, type: !1050, scopeLine: 686, flags: DIFlagPublic | DIFlagPrototyped, spFlags: DISPFlagOptimized)
!1126 = !DISubprogram(name: "set_user_anno_c", linkageName: "_ZN6Packet15set_user_anno_cEih", scope: !5, file: !4, line: 687, type: !1053, scopeLine: 687, flags: DIFlagPublic | DIFlagPrototyped, spFlags: DISPFlagOptimized)
!1127 = !DISubprogram(name: "user_anno_s", linkageName: "_ZNK6Packet11user_anno_sEi", scope: !5, file: !4, line: 688, type: !1062, scopeLine: 688, flags: DIFlagPublic | DIFlagPrototyped, spFlags: DISPFlagOptimized)
!1128 = !DISubprogram(name: "set_user_anno_s", linkageName: "_ZN6Packet15set_user_anno_sEis", scope: !5, file: !4, line: 689, type: !1068, scopeLine: 689, flags: DIFlagPublic | DIFlagPrototyped, spFlags: DISPFlagOptimized)
!1129 = !DISubprogram(name: "user_anno_us", linkageName: "_ZNK6Packet12user_anno_usEi", scope: !5, file: !4, line: 690, type: !1056, scopeLine: 690, flags: DIFlagPublic | DIFlagPrototyped, spFlags: DISPFlagOptimized)
!1130 = !DISubprogram(name: "set_user_anno_us", linkageName: "_ZN6Packet16set_user_anno_usEit", scope: !5, file: !4, line: 691, type: !1059, scopeLine: 691, flags: DIFlagPublic | DIFlagPrototyped, spFlags: DISPFlagOptimized)
!1131 = !DISubprogram(name: "user_anno_i", linkageName: "_ZNK6Packet11user_anno_iEi", scope: !5, file: !4, line: 692, type: !1077, scopeLine: 692, flags: DIFlagPublic | DIFlagPrototyped, spFlags: DISPFlagOptimized)
!1132 = !DISubprogram(name: "set_user_anno_i", linkageName: "_ZN6Packet15set_user_anno_iEii", scope: !5, file: !4, line: 693, type: !1080, scopeLine: 693, flags: DIFlagPublic | DIFlagPrototyped, spFlags: DISPFlagOptimized)
!1133 = !DISubprogram(name: "user_anno_u", linkageName: "_ZNK6Packet11user_anno_uEi", scope: !5, file: !4, line: 694, type: !1071, scopeLine: 694, flags: DIFlagPublic | DIFlagPrototyped, spFlags: DISPFlagOptimized)
!1134 = !DISubprogram(name: "set_user_anno_u", linkageName: "_ZN6Packet15set_user_anno_uEij", scope: !5, file: !4, line: 695, type: !1074, scopeLine: 695, flags: DIFlagPublic | DIFlagPrototyped, spFlags: DISPFlagOptimized)
!1135 = !DISubprogram(name: "Packet", scope: !5, file: !4, line: 751, type: !240, scopeLine: 751, flags: DIFlagPrototyped, spFlags: DISPFlagOptimized)
!1136 = !DISubprogram(name: "Packet", scope: !5, file: !4, line: 756, type: !1137, scopeLine: 756, flags: DIFlagPrototyped, spFlags: DISPFlagOptimized)
!1137 = !DISubroutineType(types: !1138)
!1138 = !{null, !242, !213}
!1139 = !DISubprogram(name: "~Packet", scope: !5, file: !4, line: 757, type: !240, scopeLine: 757, flags: DIFlagPrototyped, spFlags: DISPFlagOptimized)
!1140 = !DISubprogram(name: "operator=", linkageName: "_ZN6PacketaSERKS_", scope: !5, file: !4, line: 758, type: !1141, scopeLine: 758, flags: DIFlagPrototyped, spFlags: DISPFlagOptimized)
!1141 = !DISubroutineType(types: !1142)
!1142 = !{!1143, !242, !213}
!1143 = !DIDerivedType(tag: DW_TAG_reference_type, baseType: !5, size: 64)
!1144 = !DISubprogram(name: "alloc_data", linkageName: "_ZN6Packet10alloc_dataEjjj", scope: !5, file: !4, line: 761, type: !1145, scopeLine: 761, flags: DIFlagPrototyped, spFlags: DISPFlagOptimized)
!1145 = !DISubroutineType(types: !1146)
!1146 = !{!53, !242, !12, !12, !12}
!1147 = !DISubprogram(name: "shift_header_annotations", linkageName: "_ZN6Packet24shift_header_annotationsEPKhi", scope: !5, file: !4, line: 768, type: !1148, scopeLine: 768, flags: DIFlagPrototyped, spFlags: DISPFlagOptimized)
!1148 = !DISubroutineType(types: !1149)
!1149 = !{null, !242, !256, !31}
!1150 = !DISubprogram(name: "expensive_uniqueify", linkageName: "_ZN6Packet19expensive_uniqueifyEiib", scope: !5, file: !4, line: 769, type: !1151, scopeLine: 769, flags: DIFlagPrototyped, spFlags: DISPFlagOptimized)
!1151 = !DISubroutineType(types: !1152)
!1152 = !{!140, !242, !31, !31, !53}
!1153 = !DISubprogram(name: "expensive_push", linkageName: "_ZN6Packet14expensive_pushEj", scope: !5, file: !4, line: 770, type: !278, scopeLine: 770, flags: DIFlagPrototyped, spFlags: DISPFlagOptimized)
!1154 = !DISubprogram(name: "expensive_put", linkageName: "_ZN6Packet13expensive_putEj", scope: !5, file: !4, line: 771, type: !278, scopeLine: 771, flags: DIFlagPrototyped, spFlags: DISPFlagOptimized)
!1155 = !{!1156, !1157, !1158, !1159, !1160, !1161, !1162}
!1156 = !DIEnumerator(name: "HOST", value: 0, isUnsigned: true)
!1157 = !DIEnumerator(name: "BROADCAST", value: 1, isUnsigned: true)
!1158 = !DIEnumerator(name: "MULTICAST", value: 2, isUnsigned: true)
!1159 = !DIEnumerator(name: "OTHERHOST", value: 3, isUnsigned: true)
!1160 = !DIEnumerator(name: "OUTGOING", value: 4, isUnsigned: true)
!1161 = !DIEnumerator(name: "LOOPBACK", value: 5, isUnsigned: true)
!1162 = !DIEnumerator(name: "FASTROUTE", value: 6, isUnsigned: true)
!1163 = !DICompositeType(tag: DW_TAG_enumeration_type, scope: !1165, file: !1164, line: 1014, baseType: !16, size: 32, elements: !1166, identifier: "_ZTSN6NumArgUt_E")
!1164 = !DIFile(filename: "../dummy_inc/click/args.hh", directory: "/home/john/projects/click/ir-dir")
!1165 = distinct !DICompositeType(tag: DW_TAG_class_type, name: "NumArg", file: !1164, line: 1013, size: 8, flags: DIFlagTypePassByValue, elements: !453, identifier: "_ZTS6NumArg")
!1166 = !{!1167, !1168, !1169, !1170, !1171}
!1167 = !DIEnumerator(name: "status_ok", value: 0, isUnsigned: true)
!1168 = !DIEnumerator(name: "status_inval", value: 22, isUnsigned: true)
!1169 = !DIEnumerator(name: "status_range", value: 34, isUnsigned: true)
!1170 = !DIEnumerator(name: "status_notsup", value: 95, isUnsigned: true)
!1171 = !DIEnumerator(name: "status_unitless", value: 96, isUnsigned: true)
!1172 = !{!1173, !80, !1372, !1379, !1382, !53, !1034, !1577, !1043, !16, !1578, !34, !1580, !1667}
!1173 = !DISubprogram(name: "cp_spacevec", linkageName: "_Z11cp_spacevecRK6StringR6VectorIS_E", scope: !1174, file: !1174, line: 60, type: !1175, flags: DIFlagPrototyped, spFlags: DISPFlagOptimized, retainedNodes: !453)
!1174 = !DIFile(filename: "../dummy_inc/click/confparse.hh", directory: "/home/john/projects/click/ir-dir")
!1175 = !DISubroutineType(types: !1176)
!1176 = !{null, !596, !1177}
!1177 = !DIDerivedType(tag: DW_TAG_reference_type, baseType: !1178, size: 64)
!1178 = distinct !DICompositeType(tag: DW_TAG_class_type, name: "Vector<String>", file: !1179, line: 111, size: 128, flags: DIFlagTypePassByReference | DIFlagNonTrivial, elements: !1180, templateParams: !1215, identifier: "_ZTS6VectorI6StringE")
!1179 = !DIFile(filename: "../dummy_inc/click/vector.hh", directory: "/home/john/projects/click/ir-dir")
!1180 = !{!1181, !1268, !1272, !1285, !1290, !1294, !1297, !1300, !1303, !1307, !1308, !1313, !1314, !1315, !1316, !1319, !1320, !1323, !1324, !1327, !1330, !1333, !1334, !1335, !1338, !1341, !1342, !1343, !1344, !1345, !1346, !1347, !1350, !1353, !1356, !1357, !1358, !1359, !1362, !1365, !1368, !1369}
!1181 = !DIDerivedType(tag: DW_TAG_member, name: "vm_", scope: !1178, file: !1179, line: 114, baseType: !1182, size: 128)
!1182 = distinct !DICompositeType(tag: DW_TAG_class_type, name: "vector_memory<typed_array_memory<String> >", file: !1179, line: 11, size: 128, flags: DIFlagTypePassByReference | DIFlagNonTrivial, elements: !1183, templateParams: !1266, identifier: "_ZTS13vector_memoryI18typed_array_memoryI6StringEE")
!1183 = !{!1184, !1217, !1219, !1220, !1227, !1231, !1232, !1236, !1239, !1240, !1244, !1245, !1248, !1251, !1254, !1257, !1258, !1259, !1262}
!1184 = !DIDerivedType(tag: DW_TAG_member, name: "l_", scope: !1182, file: !1179, line: 68, baseType: !1185, size: 64, flags: DIFlagPublic)
!1185 = !DIDerivedType(tag: DW_TAG_pointer_type, baseType: !1186, size: 64)
!1186 = !DIDerivedType(tag: DW_TAG_typedef, name: "type", scope: !1182, file: !1179, line: 13, baseType: !1187)
!1187 = !DIDerivedType(tag: DW_TAG_typedef, name: "type", scope: !1189, file: !1188, line: 58, baseType: !555)
!1188 = !DIFile(filename: "../dummy_inc/click/array_memory.hh", directory: "/home/john/projects/click/ir-dir")
!1189 = distinct !DICompositeType(tag: DW_TAG_class_type, name: "typed_array_memory<String>", file: !1188, line: 57, size: 8, flags: DIFlagTypePassByValue, elements: !1190, templateParams: !1215, identifier: "_ZTS18typed_array_memoryI6StringE")
!1190 = !{!1191, !1195, !1199, !1202, !1205, !1208, !1209, !1210, !1213, !1214}
!1191 = !DISubprogram(name: "cast", linkageName: "_ZN18typed_array_memoryI6StringE4castEPS0_", scope: !1189, file: !1188, line: 59, type: !1192, scopeLine: 59, flags: DIFlagPublic | DIFlagPrototyped | DIFlagStaticMember, spFlags: DISPFlagOptimized)
!1192 = !DISubroutineType(types: !1193)
!1193 = !{!1194, !1194}
!1194 = !DIDerivedType(tag: DW_TAG_pointer_type, baseType: !555, size: 64)
!1195 = !DISubprogram(name: "cast", linkageName: "_ZN18typed_array_memoryI6StringE4castEPKS0_", scope: !1189, file: !1188, line: 62, type: !1196, scopeLine: 62, flags: DIFlagPublic | DIFlagPrototyped | DIFlagStaticMember, spFlags: DISPFlagOptimized)
!1196 = !DISubroutineType(types: !1197)
!1197 = !{!1198, !1198}
!1198 = !DIDerivedType(tag: DW_TAG_pointer_type, baseType: !597, size: 64)
!1199 = !DISubprogram(name: "fill", linkageName: "_ZN18typed_array_memoryI6StringE4fillEPS0_mPKS0_", scope: !1189, file: !1188, line: 65, type: !1200, scopeLine: 65, flags: DIFlagPublic | DIFlagPrototyped | DIFlagStaticMember, spFlags: DISPFlagOptimized)
!1200 = !DISubroutineType(types: !1201)
!1201 = !{null, !1194, !133, !1198}
!1202 = !DISubprogram(name: "move_construct", linkageName: "_ZN18typed_array_memoryI6StringE14move_constructEPS0_S2_", scope: !1189, file: !1188, line: 69, type: !1203, scopeLine: 69, flags: DIFlagPublic | DIFlagPrototyped | DIFlagStaticMember, spFlags: DISPFlagOptimized)
!1203 = !DISubroutineType(types: !1204)
!1204 = !{null, !1194, !1194}
!1205 = !DISubprogram(name: "copy", linkageName: "_ZN18typed_array_memoryI6StringE4copyEPS0_PKS0_m", scope: !1189, file: !1188, line: 76, type: !1206, scopeLine: 76, flags: DIFlagPublic | DIFlagPrototyped | DIFlagStaticMember, spFlags: DISPFlagOptimized)
!1206 = !DISubroutineType(types: !1207)
!1207 = !{null, !1194, !1198, !133}
!1208 = !DISubprogram(name: "move", linkageName: "_ZN18typed_array_memoryI6StringE4moveEPS0_PKS0_m", scope: !1189, file: !1188, line: 80, type: !1206, scopeLine: 80, flags: DIFlagPublic | DIFlagPrototyped | DIFlagStaticMember, spFlags: DISPFlagOptimized)
!1209 = !DISubprogram(name: "move_onto", linkageName: "_ZN18typed_array_memoryI6StringE9move_ontoEPS0_PKS0_m", scope: !1189, file: !1188, line: 93, type: !1206, scopeLine: 93, flags: DIFlagPublic | DIFlagPrototyped | DIFlagStaticMember, spFlags: DISPFlagOptimized)
!1210 = !DISubprogram(name: "destroy", linkageName: "_ZN18typed_array_memoryI6StringE7destroyEPS0_m", scope: !1189, file: !1188, line: 106, type: !1211, scopeLine: 106, flags: DIFlagPublic | DIFlagPrototyped | DIFlagStaticMember, spFlags: DISPFlagOptimized)
!1211 = !DISubroutineType(types: !1212)
!1212 = !{null, !1194, !133}
!1213 = !DISubprogram(name: "mark_noaccess", linkageName: "_ZN18typed_array_memoryI6StringE13mark_noaccessEPS0_m", scope: !1189, file: !1188, line: 110, type: !1211, scopeLine: 110, flags: DIFlagPublic | DIFlagPrototyped | DIFlagStaticMember, spFlags: DISPFlagOptimized)
!1214 = !DISubprogram(name: "mark_undefined", linkageName: "_ZN18typed_array_memoryI6StringE14mark_undefinedEPS0_m", scope: !1189, file: !1188, line: 113, type: !1211, scopeLine: 113, flags: DIFlagPublic | DIFlagPrototyped | DIFlagStaticMember, spFlags: DISPFlagOptimized)
!1215 = !{!1216}
!1216 = !DITemplateTypeParameter(name: "T", type: !555)
!1217 = !DIDerivedType(tag: DW_TAG_member, name: "n_", scope: !1182, file: !1179, line: 69, baseType: !1218, size: 32, offset: 64, flags: DIFlagPublic)
!1218 = !DIDerivedType(tag: DW_TAG_typedef, name: "size_type", file: !1179, line: 12, baseType: !34)
!1219 = !DIDerivedType(tag: DW_TAG_member, name: "capacity_", scope: !1182, file: !1179, line: 70, baseType: !1218, size: 32, offset: 96, flags: DIFlagPublic)
!1220 = !DISubprogram(name: "need_argument_copy", linkageName: "_ZNK13vector_memoryI18typed_array_memoryI6StringEE18need_argument_copyEPKS1_", scope: !1182, file: !1179, line: 15, type: !1221, scopeLine: 15, flags: DIFlagPublic | DIFlagPrototyped, spFlags: DISPFlagOptimized)
!1221 = !DISubroutineType(types: !1222)
!1222 = !{!53, !1223, !1225}
!1223 = !DIDerivedType(tag: DW_TAG_pointer_type, baseType: !1224, size: 64, flags: DIFlagArtificial | DIFlagObjectPointer)
!1224 = !DIDerivedType(tag: DW_TAG_const_type, baseType: !1182)
!1225 = !DIDerivedType(tag: DW_TAG_pointer_type, baseType: !1226, size: 64)
!1226 = !DIDerivedType(tag: DW_TAG_const_type, baseType: !1186)
!1227 = !DISubprogram(name: "vector_memory", scope: !1182, file: !1179, line: 20, type: !1228, scopeLine: 20, flags: DIFlagPublic | DIFlagPrototyped, spFlags: DISPFlagOptimized)
!1228 = !DISubroutineType(types: !1229)
!1229 = !{null, !1230}
!1230 = !DIDerivedType(tag: DW_TAG_pointer_type, baseType: !1182, size: 64, flags: DIFlagArtificial | DIFlagObjectPointer)
!1231 = !DISubprogram(name: "~vector_memory", scope: !1182, file: !1179, line: 23, type: !1228, scopeLine: 23, flags: DIFlagPublic | DIFlagPrototyped, spFlags: DISPFlagOptimized)
!1232 = !DISubprogram(name: "assign", linkageName: "_ZN13vector_memoryI18typed_array_memoryI6StringEE6assignERKS3_", scope: !1182, file: !1179, line: 25, type: !1233, scopeLine: 25, flags: DIFlagPublic | DIFlagPrototyped, spFlags: DISPFlagOptimized)
!1233 = !DISubroutineType(types: !1234)
!1234 = !{null, !1230, !1235}
!1235 = !DIDerivedType(tag: DW_TAG_reference_type, baseType: !1224, size: 64)
!1236 = !DISubprogram(name: "assign", linkageName: "_ZN13vector_memoryI18typed_array_memoryI6StringEE6assignEiPKS1_", scope: !1182, file: !1179, line: 26, type: !1237, scopeLine: 26, flags: DIFlagPublic | DIFlagPrototyped, spFlags: DISPFlagOptimized)
!1237 = !DISubroutineType(types: !1238)
!1238 = !{null, !1230, !1218, !1225}
!1239 = !DISubprogram(name: "resize", linkageName: "_ZN13vector_memoryI18typed_array_memoryI6StringEE6resizeEiPKS1_", scope: !1182, file: !1179, line: 27, type: !1237, scopeLine: 27, flags: DIFlagPublic | DIFlagPrototyped, spFlags: DISPFlagOptimized)
!1240 = !DISubprogram(name: "begin", linkageName: "_ZN13vector_memoryI18typed_array_memoryI6StringEE5beginEv", scope: !1182, file: !1179, line: 28, type: !1241, scopeLine: 28, flags: DIFlagPublic | DIFlagPrototyped, spFlags: DISPFlagOptimized)
!1241 = !DISubroutineType(types: !1242)
!1242 = !{!1243, !1230}
!1243 = !DIDerivedType(tag: DW_TAG_typedef, name: "iterator", scope: !1182, file: !1179, line: 14, baseType: !1185)
!1244 = !DISubprogram(name: "end", linkageName: "_ZN13vector_memoryI18typed_array_memoryI6StringEE3endEv", scope: !1182, file: !1179, line: 31, type: !1241, scopeLine: 31, flags: DIFlagPublic | DIFlagPrototyped, spFlags: DISPFlagOptimized)
!1245 = !DISubprogram(name: "insert", linkageName: "_ZN13vector_memoryI18typed_array_memoryI6StringEE6insertEPS1_PKS1_", scope: !1182, file: !1179, line: 34, type: !1246, scopeLine: 34, flags: DIFlagPublic | DIFlagPrototyped, spFlags: DISPFlagOptimized)
!1246 = !DISubroutineType(types: !1247)
!1247 = !{!1243, !1230, !1243, !1225}
!1248 = !DISubprogram(name: "erase", linkageName: "_ZN13vector_memoryI18typed_array_memoryI6StringEE5eraseEPS1_S4_", scope: !1182, file: !1179, line: 35, type: !1249, scopeLine: 35, flags: DIFlagPublic | DIFlagPrototyped, spFlags: DISPFlagOptimized)
!1249 = !DISubroutineType(types: !1250)
!1250 = !{!1243, !1230, !1243, !1243}
!1251 = !DISubprogram(name: "push_back", linkageName: "_ZN13vector_memoryI18typed_array_memoryI6StringEE9push_backEPKS1_", scope: !1182, file: !1179, line: 36, type: !1252, scopeLine: 36, flags: DIFlagPublic | DIFlagPrototyped, spFlags: DISPFlagOptimized)
!1252 = !DISubroutineType(types: !1253)
!1253 = !{null, !1230, !1225}
!1254 = !DISubprogram(name: "move_construct_back", linkageName: "_ZN13vector_memoryI18typed_array_memoryI6StringEE19move_construct_backEPS1_", scope: !1182, file: !1179, line: 45, type: !1255, scopeLine: 45, flags: DIFlagPublic | DIFlagPrototyped, spFlags: DISPFlagOptimized)
!1255 = !DISubroutineType(types: !1256)
!1256 = !{null, !1230, !1185}
!1257 = !DISubprogram(name: "pop_back", linkageName: "_ZN13vector_memoryI18typed_array_memoryI6StringEE8pop_backEv", scope: !1182, file: !1179, line: 54, type: !1228, scopeLine: 54, flags: DIFlagPublic | DIFlagPrototyped, spFlags: DISPFlagOptimized)
!1258 = !DISubprogram(name: "clear", linkageName: "_ZN13vector_memoryI18typed_array_memoryI6StringEE5clearEv", scope: !1182, file: !1179, line: 60, type: !1228, scopeLine: 60, flags: DIFlagPublic | DIFlagPrototyped, spFlags: DISPFlagOptimized)
!1259 = !DISubprogram(name: "reserve_and_push_back", linkageName: "_ZN13vector_memoryI18typed_array_memoryI6StringEE21reserve_and_push_backEiPKS1_", scope: !1182, file: !1179, line: 65, type: !1260, scopeLine: 65, flags: DIFlagPublic | DIFlagPrototyped, spFlags: DISPFlagOptimized)
!1260 = !DISubroutineType(types: !1261)
!1261 = !{!53, !1230, !1218, !1225}
!1262 = !DISubprogram(name: "swap", linkageName: "_ZN13vector_memoryI18typed_array_memoryI6StringEE4swapERS3_", scope: !1182, file: !1179, line: 66, type: !1263, scopeLine: 66, flags: DIFlagPublic | DIFlagPrototyped, spFlags: DISPFlagOptimized)
!1263 = !DISubroutineType(types: !1264)
!1264 = !{null, !1230, !1265}
!1265 = !DIDerivedType(tag: DW_TAG_reference_type, baseType: !1182, size: 64)
!1266 = !{!1267}
!1267 = !DITemplateTypeParameter(name: "AM", type: !1189)
!1268 = !DISubprogram(name: "Vector", scope: !1178, file: !1179, line: 137, type: !1269, scopeLine: 137, flags: DIFlagPublic | DIFlagExplicit | DIFlagPrototyped, spFlags: DISPFlagOptimized)
!1269 = !DISubroutineType(types: !1270)
!1270 = !{null, !1271}
!1271 = !DIDerivedType(tag: DW_TAG_pointer_type, baseType: !1178, size: 64, flags: DIFlagArtificial | DIFlagObjectPointer)
!1272 = !DISubprogram(name: "Vector", scope: !1178, file: !1179, line: 138, type: !1273, scopeLine: 138, flags: DIFlagPublic | DIFlagExplicit | DIFlagPrototyped, spFlags: DISPFlagOptimized)
!1273 = !DISubroutineType(types: !1274)
!1274 = !{null, !1271, !1275, !1276}
!1275 = !DIDerivedType(tag: DW_TAG_typedef, name: "size_type", file: !1179, line: 128, baseType: !34)
!1276 = !DIDerivedType(tag: DW_TAG_typedef, name: "value_argument_type", scope: !1178, file: !1179, line: 125, baseType: !1277)
!1277 = !DIDerivedType(tag: DW_TAG_typedef, name: "type", scope: !1279, file: !1278, line: 150, baseType: !596)
!1278 = !DIFile(filename: "../dummy_inc/click/type_traits.hh", directory: "/home/john/projects/click/ir-dir")
!1279 = distinct !DICompositeType(tag: DW_TAG_structure_type, name: "fast_argument<String, true>", file: !1278, line: 148, size: 8, flags: DIFlagTypePassByValue, elements: !1280, templateParams: !1283, identifier: "_ZTS13fast_argumentI6StringLb1EE")
!1280 = !{!1281}
!1281 = !DIDerivedType(tag: DW_TAG_member, name: "is_reference", scope: !1279, file: !1278, line: 149, baseType: !1282, flags: DIFlagStaticMember, extraData: i1 true)
!1282 = !DIDerivedType(tag: DW_TAG_const_type, baseType: !53)
!1283 = !{!1216, !1284}
!1284 = !DITemplateValueParameter(name: "use_reference", type: !53, value: i8 1)
!1285 = !DISubprogram(name: "Vector", scope: !1178, file: !1179, line: 139, type: !1286, scopeLine: 139, flags: DIFlagPublic | DIFlagPrototyped, spFlags: DISPFlagOptimized)
!1286 = !DISubroutineType(types: !1287)
!1287 = !{null, !1271, !1288}
!1288 = !DIDerivedType(tag: DW_TAG_reference_type, baseType: !1289, size: 64)
!1289 = !DIDerivedType(tag: DW_TAG_const_type, baseType: !1178)
!1290 = !DISubprogram(name: "Vector", scope: !1178, file: !1179, line: 141, type: !1291, scopeLine: 141, flags: DIFlagPublic | DIFlagPrototyped, spFlags: DISPFlagOptimized)
!1291 = !DISubroutineType(types: !1292)
!1292 = !{null, !1271, !1293}
