; ModuleID = '../elements/icmp/icmprewriter.cc'
source_filename = "../elements/icmp/icmprewriter.cc"
target datalayout = "e-m:e-p270:32:32-p271:32:32-p272:64:64-i64:64-f80:128-n8:16:32:64-S128"
target triple = "x86_64-pc-linux-gnu"

%class.ArgContext = type <{ %class.Element*, %class.ErrorHandler*, i8*, i8, [7 x i8] }>
%class.Element = type <{ i32 (...)**, [2 x %"class.Element::Port"*], [4 x %"class.Element::Port"], [2 x i32], %class.Router*, i32, [4 x i8] }>
%"class.Element::Port" = type <{ %class.Element*, i32, [4 x i8] }>
%class.Router = type opaque
%class.ErrorHandler = type <{ i32 (...)**, i32, [4 x i8] }>
%class.ICMPRewriter = type <{ %class.Element.base, [4 x i8], %class.Vector, i32, [4 x i8] }>
%class.Element.base = type <{ i32 (...)**, [2 x %"class.Element::Port"*], [4 x %"class.Element::Port"], [2 x i32], %class.Router*, i32 }>
%class.Vector = type { %class.vector_memory }
%class.vector_memory = type { %struct.char_array*, i32, i32 }
%struct.char_array = type { [16 x i8] }
%class.Vector.0 = type { %class.vector_memory.1 }
%class.vector_memory.1 = type { %class.String*, i32, i32 }
%class.String = type { %"struct.String::rep_t" }
%"struct.String::rep_t" = type { i8*, i32, %"struct.String::memo_t"* }
%"struct.String::memo_t" = type { i32, i32, i32, [8 x i8] }
%class.Args = type { %class.ArgContext.base, i8, i8, i8, %class.Vector.0*, %class.Vector.2, %"struct.Args::Slot"*, [48 x i8] }
%class.ArgContext.base = type <{ %class.Element*, %class.ErrorHandler*, i8*, i8 }>
%class.Vector.2 = type { %class.vector_memory.3 }
%class.vector_memory.3 = type { %struct.char_array.4*, i32, i32 }
%struct.char_array.4 = type opaque
%"struct.Args::Slot" = type { i32 (...)**, %"struct.Args::Slot"* }
%class.IntArg = type { i32, i32 }
%"struct.ICMPRewriter::MapEntry" = type <{ %class.IPRewriterBase*, i32, [4 x i8] }>
%class.IPRewriterBase = type { %class.Element.base, %class.HashContainer, %class.Vector.5, %class.IPRewriterHeap*, [2 x i32], i32, %class.Timer }
%class.HashContainer = type { %class.HashContainer_rep }
%class.HashContainer_rep = type { %class.IPRewriterEntry**, i32, i32, i64, %struct.libdivide_u32_t }
%class.IPRewriterEntry = type { %class.IPFlowID, [3 x i8], i8, %class.IPRewriterEntry* }
%class.IPFlowID = type { %class.IPAddress, %class.IPAddress, i16, i16 }
%class.IPAddress = type { i32 }
%struct.libdivide_u32_t = type { i32, i8 }
%class.Vector.5 = type { %class.vector_memory.6 }
%class.vector_memory.6 = type { %struct.char_array.7*, i32, i32 }
%struct.char_array.7 = type opaque
%class.IPRewriterHeap = type { [2 x %class.Vector.8], i32, i32 }
%class.Vector.8 = type { %class.vector_memory.9 }
%class.vector_memory.9 = type { %struct.char_array.10*, i32, i32 }
%struct.char_array.10 = type { [8 x i8] }
%class.Timer = type { i32, %class.Timestamp, %union.anon, i8*, %class.Element*, %class.RouterThread* }
%class.Timestamp = type { %"union.Timestamp::rep_t" }
%"union.Timestamp::rep_t" = type { i64 }
%union.anon = type { void (%class.Timer*, i8*)* }
%class.RouterThread = type opaque
%class.WritablePacket = type { %class.Packet }
%class.Packet = type { %class.atomic_uint32_t, %class.Packet*, i8*, i8*, i8*, i8*, %"struct.Packet::AllAnno", void (i8*, i64, i8*)*, i8* }
%class.atomic_uint32_t = type { i32 }
%"struct.Packet::AllAnno" = type { %"union.Packet::Anno", i8*, i8*, i8*, i32, [8 x i8], %class.Packet*, %class.Packet* }
%"union.Packet::Anno" = type { [6 x i64] }
%struct.click_ip = type { i8, i8, i16, i16, i16, i8, i8, i16, %struct.in_addr, %struct.in_addr }
%struct.in_addr = type { i32 }
%class.Task = type opaque
%class.AnyArg = type { i8 }
%"struct.Args::SlotT" = type { %"struct.Args::Slot", %class.String*, %class.String }
%class.AnnoArg = type { i32 }

$_ZNK7Element8noutputsEv = comdat any

$_ZNK7Element19checked_output_pushEiP6Packet = comdat any

$_ZNK12ICMPRewriter10class_nameEv = comdat any

$_ZNK12ICMPRewriter10port_countEv = comdat any

$_ZNK12ICMPRewriter10processingEv = comdat any

$__clang_call_terminate = comdat any

$_ZNK7Element4Port4pushEP6Packet = comdat any

$_Z14args_base_readI6AnyArg6StringEvP4ArgsPKciT_RT0_ = comdat any

$_ZN4Args9base_readI6AnyArg6StringEEvPKciT_RT0_ = comdat any

$_ZNK6String6lengthEv = comdat any

$_ZN4Args5SlotTI6StringED2Ev = comdat any

$_ZN4Args5SlotTI6StringED0Ev = comdat any

$_ZN4Args5SlotTI6StringE5storeEv = comdat any

$_Z14args_base_readIbEvP4ArgsPKciRT_ = comdat any

$_ZN4Args9base_readIbEEvPKciRT_ = comdat any

$_Z14args_base_readI7AnnoArgiEvP4ArgsPKciT_RT0_ = comdat any

$_ZN4Args9base_readI7AnnoArgiEEvPKciT_RT0_ = comdat any

$_ZN13vector_memoryI18sized_array_memoryILm16EEE21reserve_and_push_backEiPK10char_arrayILm16EE = comdat any

$_ZTVN4Args5SlotTI6StringEE = comdat any

$_ZTSN4Args5SlotTI6StringEE = comdat any

$_ZTSN4Args4SlotE = comdat any

$_ZTIN4Args4SlotE = comdat any

$_ZTIN4Args5SlotTI6StringEE = comdat any

@_ZTV12ICMPRewriter = dso_local unnamed_addr constant { [29 x i8*] } { [29 x i8*] [i8* null, i8* bitcast ({ i8*, i8*, i8* }* @_ZTI12ICMPRewriter to i8*), i8* bitcast (void (%class.ICMPRewriter*)* @_ZN12ICMPRewriterD2Ev to i8*), i8* bitcast (void (%class.ICMPRewriter*)* @_ZN12ICMPRewriterD0Ev to i8*), i8* bitcast (void (%class.ICMPRewriter*, i32, %class.Packet*)* @_ZN12ICMPRewriter4pushEiP6Packet to i8*), i8* bitcast (%class.Packet* (%class.Element*, i32)* @_ZN7Element4pullEi to i8*), i8* bitcast (%class.Packet* (%class.Element*, %class.Packet*)* @_ZN7Element13simple_actionEP6Packet to i8*), i8* bitcast (i1 (%class.Element*, %class.Task*)* @_ZN7Element8run_taskEP4Task to i8*), i8* bitcast (void (%class.Element*, %class.Timer*)* @_ZN7Element9run_timerEP5Timer to i8*), i8* bitcast (void (%class.Element*, i32, i32)* @_ZN7Element8selectedEii to i8*), i8* bitcast (void (%class.Element*, i32)* @_ZN7Element8selectedEi to i8*), i8* bitcast (i8* (%class.ICMPRewriter*)* @_ZNK12ICMPRewriter10class_nameEv to i8*), i8* bitcast (i8* (%class.ICMPRewriter*)* @_ZNK12ICMPRewriter10port_countEv to i8*), i8* bitcast (i8* (%class.ICMPRewriter*)* @_ZNK12ICMPRewriter10processingEv to i8*), i8* bitcast (i8* (%class.Element*)* @_ZNK7Element9flow_codeEv to i8*), i8* bitcast (i8* (%class.Element*)* @_ZNK7Element5flagsEv to i8*), i8* bitcast (i8* (%class.Element*, i8*)* @_ZN7Element4castEPKc to i8*), i8* bitcast (i8* (%class.Element*, i1, i32, i8*)* @_ZN7Element9port_castEbiPKc to i8*), i8* bitcast (i32 (%class.Element*)* @_ZNK7Element15configure_phaseEv to i8*), i8* bitcast (i32 (%class.ICMPRewriter*, %class.Vector.0*, %class.ErrorHandler*)* @_ZN12ICMPRewriter9configureER6VectorI6StringEP12ErrorHandler to i8*), i8* bitcast (void (%class.Element*)* @_ZN7Element12add_handlersEv to i8*), i8* bitcast (i32 (%class.Element*, %class.ErrorHandler*)* @_ZN7Element10initializeEP12ErrorHandler to i8*), i8* bitcast (void (%class.Element*, %class.Element*, %class.ErrorHandler*)* @_ZN7Element10take_stateEPS_P12ErrorHandler to i8*), i8* bitcast (%class.Element* (%class.Element*)* @_ZNK7Element15hotswap_elementEv to i8*), i8* bitcast (void (%class.Element*, i32)* @_ZN7Element7cleanupENS_12CleanupStageE to i8*), i8* bitcast (void (%class.String*, %class.Element*)* @_ZNK7Element11declarationEv to i8*), i8* bitcast (i1 (%class.Element*)* @_ZNK7Element20can_live_reconfigureEv to i8*), i8* bitcast (i32 (%class.Element*, %class.Vector.0*, %class.ErrorHandler*)* @_ZN7Element16live_reconfigureER6VectorI6StringEP12ErrorHandler to i8*), i8* bitcast (i32 (%class.Element*, i32, i8*)* @_ZN7Element5llrpcEjPv to i8*)] }, align 8
@.str = private unnamed_addr constant [5 x i8] c"MAPS\00", align 1
@.str.1 = private unnamed_addr constant [9 x i8] c"DST_ANNO\00", align 1
@.str.2 = private unnamed_addr constant [11 x i8] c"REPLY_ANNO\00", align 1
@blank_args = external global %class.ArgContext, align 8
@.str.3 = private unnamed_addr constant [22 x i8] c"%s not an IP rewriter\00", align 1
@.str.4 = private unnamed_addr constant [40 x i8] c"%s port offset requires more than %d %s\00", align 1
@.str.5 = private unnamed_addr constant [7 x i8] c"output\00", align 1
@.str.6 = private unnamed_addr constant [8 x i8] c"outputs\00", align 1
@.str.7 = private unnamed_addr constant [15 x i8] c"IPRewriterBase\00", align 1
@.str.8 = private unnamed_addr constant [25 x i8] c"no IP rewriters supplied\00", align 1
@_ZTVN10__cxxabiv120__si_class_type_infoE = external global i8*
@_ZTS12ICMPRewriter = dso_local constant [15 x i8] c"12ICMPRewriter\00", align 1
@_ZTI7Element = external constant i8*
@_ZTI12ICMPRewriter = dso_local constant { i8*, i8*, i8* } { i8* bitcast (i8** getelementptr inbounds (i8*, i8** @_ZTVN10__cxxabiv120__si_class_type_infoE, i64 2) to i8*), i8* getelementptr inbounds ([15 x i8], [15 x i8]* @_ZTS12ICMPRewriter, i32 0, i32 0), i8* bitcast (i8** @_ZTI7Element to i8*) }, align 8
@_ZN6String9null_dataE = external constant i8, align 1
@.str.9 = private unnamed_addr constant [18 x i8] c"_r.memo->refcount\00", align 1
@.str.10 = private unnamed_addr constant [29 x i8] c"../dummy_inc/click/string.hh\00", align 1
@__PRETTY_FUNCTION__._ZNK6String5derefEv = private unnamed_addr constant [27 x i8] c"void String::deref() const\00", align 1
@.str.11 = private unnamed_addr constant [24 x i8] c"i >= 0 && i < anno_size\00", align 1
@.str.12 = private unnamed_addr constant [29 x i8] c"../dummy_inc/click/packet.hh\00", align 1
@__PRETTY_FUNCTION__._ZN6Packet11set_anno_u8Eih = private unnamed_addr constant [39 x i8] c"void Packet::set_anno_u8(int, uint8_t)\00", align 1
@.str.13 = private unnamed_addr constant [8 x i8] c"_e && p\00", align 1
@.str.14 = private unnamed_addr constant [30 x i8] c"../dummy_inc/click/element.hh\00", align 1
@__PRETTY_FUNCTION__._ZNK7Element4Port4pushEP6Packet = private unnamed_addr constant [41 x i8] c"void Element::Port::push(Packet *) const\00", align 1
@.str.15 = private unnamed_addr constant [13 x i8] c"ICMPRewriter\00", align 1
@.str.16 = private unnamed_addr constant [5 x i8] c"1/1-\00", align 1
@_ZN7Element4PUSHE = external constant [0 x i8], align 1
@_ZTVN4Args5SlotTI6StringEE = linkonce_odr dso_local unnamed_addr constant { [5 x i8*] } { [5 x i8*] [i8* null, i8* bitcast ({ i8*, i8*, i8* }* @_ZTIN4Args5SlotTI6StringEE to i8*), i8* bitcast (void (%"struct.Args::SlotT"*)* @_ZN4Args5SlotTI6StringED2Ev to i8*), i8* bitcast (void (%"struct.Args::SlotT"*)* @_ZN4Args5SlotTI6StringED0Ev to i8*), i8* bitcast (void (%"struct.Args::SlotT"*)* @_ZN4Args5SlotTI6StringE5storeEv to i8*)] }, comdat, align 8
@_ZTSN4Args5SlotTI6StringEE = linkonce_odr dso_local constant [23 x i8] c"N4Args5SlotTI6StringEE\00", comdat, align 1
@_ZTVN10__cxxabiv117__class_type_infoE = external global i8*
@_ZTSN4Args4SlotE = linkonce_odr dso_local constant [13 x i8] c"N4Args4SlotE\00", comdat, align 1
@_ZTIN4Args4SlotE = linkonce_odr dso_local constant { i8*, i8* } { i8* bitcast (i8** getelementptr inbounds (i8*, i8** @_ZTVN10__cxxabiv117__class_type_infoE, i64 2) to i8*), i8* getelementptr inbounds ([13 x i8], [13 x i8]* @_ZTSN4Args4SlotE, i32 0, i32 0) }, comdat, align 8
@_ZTIN4Args5SlotTI6StringEE = linkonce_odr dso_local constant { i8*, i8*, i8* } { i8* bitcast (i8** getelementptr inbounds (i8*, i8** @_ZTVN10__cxxabiv120__si_class_type_infoE, i64 2) to i8*), i8* getelementptr inbounds ([23 x i8], [23 x i8]* @_ZTSN4Args5SlotTI6StringEE, i32 0, i32 0), i8* bitcast ({ i8*, i8* }* @_ZTIN4Args4SlotE to i8*) }, comdat, align 8
@.str.18 = private unnamed_addr constant [15 x i8] c"invalid number\00", align 1

@_ZN12ICMPRewriterC1Ev = dso_local unnamed_addr alias void (%class.ICMPRewriter*), void (%class.ICMPRewriter*)* @_ZN12ICMPRewriterC2Ev
@_ZN12ICMPRewriterD1Ev = dso_local unnamed_addr alias void (%class.ICMPRewriter*), void (%class.ICMPRewriter*)* @_ZN12ICMPRewriterD2Ev

; Function Attrs: sspstrong uwtable
define dso_local void @_ZN12ICMPRewriterC2Ev(%class.ICMPRewriter* %0) unnamed_addr #0 align 2 personality i8* bitcast (i32 (...)* @__gxx_personality_v0 to i8*) !dbg !3546 {
  call void @llvm.dbg.value(metadata %class.ICMPRewriter* %0, metadata !3548, metadata !DIExpression()), !dbg !3550
  %2 = bitcast %class.ICMPRewriter* %0 to %class.Element*, !dbg !3551
  tail call void @_ZN7ElementC2Ev(%class.Element* %2), !dbg !3552
  %3 = getelementptr %class.ICMPRewriter, %class.ICMPRewriter* %0, i64 0, i32 0, i32 0, !dbg !3551
  store i32 (...)** bitcast (i8** getelementptr inbounds ({ [29 x i8*] }, { [29 x i8*] }* @_ZTV12ICMPRewriter, i64 0, inrange i32 0, i64 2) to i32 (...)**), i32 (...)*** %3, align 8, !dbg !3551, !tbaa !3553
  %4 = getelementptr inbounds %class.ICMPRewriter, %class.ICMPRewriter* %0, i64 0, i32 2, !dbg !3552
  call void @llvm.dbg.value(metadata %class.Vector* %4, metadata !3556, metadata !DIExpression()), !dbg !3560
  call void @llvm.dbg.value(metadata %class.Vector* %4, metadata !3562, metadata !DIExpression()) #12, !dbg !3566
  %5 = bitcast %class.Vector* %4 to i8*, !dbg !3568
  tail call void @llvm.memset.p0i8.i64(i8* nonnull align 8 dereferenceable(16) %5, i8 0, i64 16, i1 false) #12, !dbg !3569
  ret void, !dbg !3570
}

; Function Attrs: nounwind readnone speculatable willreturn
declare void @llvm.dbg.declare(metadata, metadata, metadata) #1

declare void @_ZN7ElementC2Ev(%class.Element*) unnamed_addr #2

declare i32 @__gxx_personality_v0(...)

; Function Attrs: nounwind
declare void @_ZN7ElementD2Ev(%class.Element*) unnamed_addr #3

; Function Attrs: nounwind sspstrong uwtable
define dso_local void @_ZN12ICMPRewriterD2Ev(%class.ICMPRewriter* %0) unnamed_addr #4 align 2 personality i32 (...)* @__gxx_personality_v0 !dbg !3571 {
  call void @llvm.dbg.value(metadata %class.ICMPRewriter* %0, metadata !3573, metadata !DIExpression()), !dbg !3574
  %2 = getelementptr %class.ICMPRewriter, %class.ICMPRewriter* %0, i64 0, i32 0, i32 0, !dbg !3575
  store i32 (...)** bitcast (i8** getelementptr inbounds ({ [29 x i8*] }, { [29 x i8*] }* @_ZTV12ICMPRewriter, i64 0, inrange i32 0, i64 2) to i32 (...)**), i32 (...)*** %2, align 8, !dbg !3575, !tbaa !3553
  %3 = getelementptr inbounds %class.ICMPRewriter, %class.ICMPRewriter* %0, i64 0, i32 2, !dbg !3576
  call void @llvm.dbg.value(metadata %class.Vector* %3, metadata !3578, metadata !DIExpression()) #12, !dbg !3582
  call void @llvm.dbg.value(metadata %class.Vector* %3, metadata !3584, metadata !DIExpression()) #12, !dbg !3588
  %4 = bitcast %class.Vector* %3 to i8**, !dbg !3591
  %5 = load i8*, i8** %4, align 8, !dbg !3593, !tbaa !3594
  %6 = icmp eq i8* %5, null, !dbg !3593
  br i1 %6, label %8, label %7, !dbg !3593

7:                                                ; preds = %1
  tail call void @_ZdaPv(i8* nonnull %5) #13, !dbg !3593
  br label %8, !dbg !3593

8:                                                ; preds = %1, %7
  %9 = bitcast %class.ICMPRewriter* %0 to %class.Element*, !dbg !3576
  tail call void @_ZN7ElementD2Ev(%class.Element* %9) #12, !dbg !3576
  ret void, !dbg !3599
}

; Function Attrs: nounwind sspstrong uwtable
define dso_local void @_ZN12ICMPRewriterD0Ev(%class.ICMPRewriter* %0) unnamed_addr #4 align 2 personality i32 (...)* @__gxx_personality_v0 !dbg !3600 {
  call void @llvm.dbg.value(metadata %class.ICMPRewriter* %0, metadata !3602, metadata !DIExpression()), !dbg !3603
  call void @llvm.dbg.value(metadata %class.ICMPRewriter* %0, metadata !3573, metadata !DIExpression()) #12, !dbg !3604
  %2 = getelementptr %class.ICMPRewriter, %class.ICMPRewriter* %0, i64 0, i32 0, i32 0, !dbg !3606
  store i32 (...)** bitcast (i8** getelementptr inbounds ({ [29 x i8*] }, { [29 x i8*] }* @_ZTV12ICMPRewriter, i64 0, inrange i32 0, i64 2) to i32 (...)**), i32 (...)*** %2, align 8, !dbg !3606, !tbaa !3553
  %3 = getelementptr inbounds %class.ICMPRewriter, %class.ICMPRewriter* %0, i64 0, i32 2, !dbg !3607
  call void @llvm.dbg.value(metadata %class.Vector* %3, metadata !3578, metadata !DIExpression()) #12, !dbg !3608
  call void @llvm.dbg.value(metadata %class.Vector* %3, metadata !3584, metadata !DIExpression()) #12, !dbg !3610
  %4 = bitcast %class.Vector* %3 to i8**, !dbg !3612
  %5 = load i8*, i8** %4, align 8, !dbg !3613, !tbaa !3594
  %6 = icmp eq i8* %5, null, !dbg !3613
  br i1 %6, label %8, label %7, !dbg !3613

7:                                                ; preds = %1
  tail call void @_ZdaPv(i8* nonnull %5) #13, !dbg !3613
  br label %8, !dbg !3613

8:                                                ; preds = %1, %7
  %9 = bitcast %class.ICMPRewriter* %0 to %class.Element*, !dbg !3607
  tail call void @_ZN7ElementD2Ev(%class.Element* %9) #12, !dbg !3607
  %10 = bitcast %class.ICMPRewriter* %0 to i8*, !dbg !3614
  tail call void @_ZdlPv(i8* %10) #13, !dbg !3614
  ret void, !dbg !3615
}

; Function Attrs: nobuiltin nounwind
declare void @_ZdlPv(i8*) local_unnamed_addr #5

; Function Attrs: sspstrong uwtable
define dso_local i32 @_ZN12ICMPRewriter9configureER6VectorI6StringEP12ErrorHandler(%class.ICMPRewriter* %0, %class.Vector.0* dereferenceable(16) %1, %class.ErrorHandler* %2) unnamed_addr #0 align 2 personality i8* bitcast (i32 (...)* @__gxx_personality_v0 to i8*) !dbg !3616 {
  %4 = alloca [1 x i32], align 4
  call void @llvm.dbg.declare(metadata [1 x i32]* %4, metadata !2899, metadata !DIExpression()), !dbg !3640
  %5 = alloca %class.String, align 8
  %6 = alloca i8, align 1
  %7 = alloca i32, align 4
  %8 = alloca %class.Args, align 8
  %9 = alloca %class.Vector.0, align 8
  %10 = alloca %class.String, align 8
  %11 = alloca %class.IntArg, align 4
  %12 = alloca %class.String, align 8
  %13 = alloca %class.String, align 8
  %14 = alloca %"struct.ICMPRewriter::MapEntry", align 8
  call void @llvm.dbg.value(metadata %class.ICMPRewriter* %0, metadata !3618, metadata !DIExpression()), !dbg !3652
  call void @llvm.dbg.value(metadata %class.Vector.0* %1, metadata !3619, metadata !DIExpression()), !dbg !3652
  call void @llvm.dbg.value(metadata %class.ErrorHandler* %2, metadata !3620, metadata !DIExpression()), !dbg !3652
  %15 = bitcast %class.String* %5 to i8*, !dbg !3653
  call void @llvm.lifetime.start.p0i8(i64 24, i8* nonnull %15) #12, !dbg !3653
  call void @llvm.dbg.declare(metadata %class.String* %5, metadata !3621, metadata !DIExpression()), !dbg !3654
  call void @llvm.dbg.value(metadata %class.String* %5, metadata !3655, metadata !DIExpression()), !dbg !3658
  call void @llvm.dbg.value(metadata %class.String* %5, metadata !3660, metadata !DIExpression()), !dbg !3666
  call void @llvm.dbg.value(metadata i8* @_ZN6String9null_dataE, metadata !3663, metadata !DIExpression()), !dbg !3666
  call void @llvm.dbg.value(metadata i32 0, metadata !3664, metadata !DIExpression()), !dbg !3666
  call void @llvm.dbg.value(metadata %"struct.String::memo_t"* null, metadata !3665, metadata !DIExpression()), !dbg !3666
  %16 = getelementptr inbounds %class.String, %class.String* %5, i64 0, i32 0, i32 0, !dbg !3669
  store i8* @_ZN6String9null_dataE, i8** %16, align 8, !dbg !3670, !tbaa !3671
  %17 = getelementptr inbounds %class.String, %class.String* %5, i64 0, i32 0, i32 1, !dbg !3674
  store i32 0, i32* %17, align 8, !dbg !3675, !tbaa !3676
  %18 = getelementptr inbounds %class.String, %class.String* %5, i64 0, i32 0, i32 2, !dbg !3677
  store %"struct.String::memo_t"* null, %"struct.String::memo_t"** %18, align 8, !dbg !3679, !tbaa !3680
  call void @llvm.lifetime.start.p0i8(i64 1, i8* nonnull %6) #12, !dbg !3681
  call void @llvm.dbg.value(metadata i8 1, metadata !3622, metadata !DIExpression()), !dbg !3652
  store i8 1, i8* %6, align 1, !dbg !3682, !tbaa !3683
  call void @llvm.dbg.value(metadata i8 0, metadata !3623, metadata !DIExpression()), !dbg !3652
  %19 = bitcast i32* %7 to i8*, !dbg !3685
  call void @llvm.lifetime.start.p0i8(i64 4, i8* nonnull %19) #12, !dbg !3685
  %20 = bitcast %class.Args* %8 to i8*, !dbg !3686
  call void @llvm.lifetime.start.p0i8(i64 112, i8* nonnull %20) #12, !dbg !3686
  %21 = bitcast %class.ICMPRewriter* %0 to %class.Element*, !dbg !3688
  invoke void @_ZN4ArgsC1ERK6VectorI6StringEPK7ElementP12ErrorHandler(%class.Args* nonnull %8, %class.Vector.0* nonnull dereferenceable(16) %1, %class.Element* %21, %class.ErrorHandler* %2)
          to label %22 unwind label %31, !dbg !3686

22:                                               ; preds = %3
  call void @llvm.dbg.value(metadata %class.Args* %8, metadata !3689, metadata !DIExpression()), !dbg !3698
  call void @llvm.dbg.value(metadata i8* getelementptr inbounds ([5 x i8], [5 x i8]* @.str, i64 0, i64 0), metadata !3695, metadata !DIExpression()), !dbg !3698
  call void @llvm.dbg.value(metadata %class.String* %5, metadata !3697, metadata !DIExpression()), !dbg !3698
  call void @llvm.dbg.value(metadata %class.Args* %8, metadata !3700, metadata !DIExpression()), !dbg !3710
  call void @llvm.dbg.value(metadata i8* getelementptr inbounds ([5 x i8], [5 x i8]* @.str, i64 0, i64 0), metadata !3706, metadata !DIExpression()), !dbg !3710
  call void @llvm.dbg.value(metadata i32 3, metadata !3707, metadata !DIExpression()), !dbg !3710
  call void @llvm.dbg.value(metadata %class.String* %5, metadata !3709, metadata !DIExpression()), !dbg !3710
  invoke void @_Z14args_base_readI6AnyArg6StringEvP4ArgsPKciT_RT0_(%class.Args* nonnull %8, i8* getelementptr inbounds ([5 x i8], [5 x i8]* @.str, i64 0, i64 0), i32 3, %class.String* nonnull dereferenceable(24) %5)
          to label %23 unwind label %35, !dbg !3712

23:                                               ; preds = %22
  call void @llvm.dbg.value(metadata %class.Args* %8, metadata !3713, metadata !DIExpression()), !dbg !3721
  call void @llvm.dbg.value(metadata i8* getelementptr inbounds ([9 x i8], [9 x i8]* @.str.1, i64 0, i64 0), metadata !3719, metadata !DIExpression()), !dbg !3721
  call void @llvm.dbg.value(metadata i8* %6, metadata !3720, metadata !DIExpression()), !dbg !3721
  call void @llvm.dbg.value(metadata %class.Args* %8, metadata !3723, metadata !DIExpression()), !dbg !3732
  call void @llvm.dbg.value(metadata i8* getelementptr inbounds ([9 x i8], [9 x i8]* @.str.1, i64 0, i64 0), metadata !3729, metadata !DIExpression()), !dbg !3732
  call void @llvm.dbg.value(metadata i32 0, metadata !3730, metadata !DIExpression()), !dbg !3732
  call void @llvm.dbg.value(metadata i8* %6, metadata !3731, metadata !DIExpression()), !dbg !3732
  invoke void @_Z14args_base_readIbEvP4ArgsPKciRT_(%class.Args* nonnull %8, i8* getelementptr inbounds ([9 x i8], [9 x i8]* @.str.1, i64 0, i64 0), i32 0, i8* nonnull dereferenceable(1) %6)
          to label %24 unwind label %35, !dbg !3734

24:                                               ; preds = %23
  call void @llvm.dbg.value(metadata i32 1, metadata !3735, metadata !DIExpression()), !dbg !3744
  call void @llvm.dbg.value(metadata %class.Args* %8, metadata !3741, metadata !DIExpression()), !dbg !3744
  call void @llvm.dbg.value(metadata i8* getelementptr inbounds ([11 x i8], [11 x i8]* @.str.2, i64 0, i64 0), metadata !3742, metadata !DIExpression()), !dbg !3744
  call void @llvm.dbg.value(metadata i32* %7, metadata !3743, metadata !DIExpression()), !dbg !3744
  call void @llvm.dbg.value(metadata i32 1, metadata !3746, metadata !DIExpression()), !dbg !3756
  call void @llvm.dbg.value(metadata %class.Args* %8, metadata !3752, metadata !DIExpression()), !dbg !3756
  call void @llvm.dbg.value(metadata i8* getelementptr inbounds ([11 x i8], [11 x i8]* @.str.2, i64 0, i64 0), metadata !3753, metadata !DIExpression()), !dbg !3756
  call void @llvm.dbg.value(metadata i32 0, metadata !3754, metadata !DIExpression()), !dbg !3756
  call void @llvm.dbg.value(metadata i32* %7, metadata !3755, metadata !DIExpression()), !dbg !3756
  invoke void @_Z14args_base_readI7AnnoArgiEvP4ArgsPKciT_RT0_(%class.Args* nonnull %8, i8* getelementptr inbounds ([11 x i8], [11 x i8]* @.str.2, i64 0, i64 0), i32 0, i32 1, i32* nonnull dereferenceable(4) %7)
          to label %25 unwind label %35, !dbg !3758

25:                                               ; preds = %24
  call void @llvm.dbg.value(metadata %class.Args* %8, metadata !3759, metadata !DIExpression()), !dbg !3763
  %26 = getelementptr inbounds %class.Args, %class.Args* %8, i64 0, i32 0, i32 3, !dbg !3765
  %27 = load i8, i8* %26, align 8, !dbg !3765, !tbaa !3766, !range !3768
  %28 = invoke i32 @_ZN4Args8completeEv(%class.Args* nonnull %8)
          to label %29 unwind label %35, !dbg !3769

29:                                               ; preds = %25
  %30 = icmp slt i32 %28, 0, !dbg !3770
  call void @_ZN4ArgsD1Ev(%class.Args* nonnull %8) #12, !dbg !3686
  call void @llvm.lifetime.end.p0i8(i64 112, i8* nonnull %20) #12, !dbg !3686
  br i1 %30, label %430, label %42, !dbg !3771

31:                                               ; preds = %3
  %32 = landingpad { i8*, i32 }
          cleanup, !dbg !3772
  %33 = extractvalue { i8*, i32 } %32, 0, !dbg !3772
  %34 = extractvalue { i8*, i32 } %32, 1, !dbg !3772
  br label %39, !dbg !3772

35:                                               ; preds = %24, %23, %22, %25
  %36 = landingpad { i8*, i32 }
          cleanup, !dbg !3772
  %37 = extractvalue { i8*, i32 } %36, 0, !dbg !3772
  %38 = extractvalue { i8*, i32 } %36, 1, !dbg !3772
  call void @_ZN4ArgsD1Ev(%class.Args* nonnull %8) #12, !dbg !3686
  br label %39, !dbg !3686

39:                                               ; preds = %35, %31
  %40 = phi i32 [ %38, %35 ], [ %34, %31 ], !dbg !3772
  %41 = phi i8* [ %37, %35 ], [ %33, %31 ], !dbg !3772
  call void @llvm.lifetime.end.p0i8(i64 112, i8* nonnull %20) #12, !dbg !3686
  br label %449, !dbg !3686

42:                                               ; preds = %29
  %43 = load i8, i8* %6, align 1, !dbg !3773, !tbaa !3683, !range !3768
  call void @llvm.dbg.value(metadata i8 %43, metadata !3622, metadata !DIExpression()), !dbg !3652
  %44 = zext i8 %43 to i32, !dbg !3773
  call void @llvm.dbg.value(metadata i8 %27, metadata !3623, metadata !DIExpression()), !dbg !3652
  %45 = icmp eq i8 %27, 0, !dbg !3774
  %46 = load i32, i32* %7, align 4, !dbg !3774
  call void @llvm.dbg.value(metadata i32 %46, metadata !3624, metadata !DIExpression()), !dbg !3652
  %47 = shl i32 %46, 2, !dbg !3774
  %48 = or i32 %47, 2, !dbg !3774
  %49 = select i1 %45, i32 0, i32 %48, !dbg !3774
  %50 = or i32 %49, %44, !dbg !3775
  %51 = getelementptr inbounds %class.ICMPRewriter, %class.ICMPRewriter* %0, i64 0, i32 3, !dbg !3776
  store i32 %50, i32* %51, align 8, !dbg !3777, !tbaa !3778
  %52 = bitcast %class.Vector.0* %9 to i8*, !dbg !3781
  call void @llvm.lifetime.start.p0i8(i64 16, i8* nonnull %52) #12, !dbg !3781
  call void @llvm.dbg.declare(metadata %class.Vector.0* %9, metadata !3625, metadata !DIExpression()), !dbg !3782
  call void @llvm.dbg.value(metadata %class.Vector.0* %9, metadata !3783, metadata !DIExpression()), !dbg !3786
  call void @llvm.dbg.value(metadata %class.Vector.0* %9, metadata !3788, metadata !DIExpression()) #12, !dbg !3792
  call void @llvm.memset.p0i8.i64(i8* nonnull align 8 dereferenceable(16) %52, i8 0, i64 16, i1 false) #12, !dbg !3794
  invoke void @_Z11cp_spacevecRK6StringR6VectorIS_E(%class.String* nonnull dereferenceable(24) %5, %class.Vector.0* nonnull dereferenceable(16) %9)
          to label %53 unwind label %88, !dbg !3795

53:                                               ; preds = %42
  call void @llvm.dbg.value(metadata i32 0, metadata !3626, metadata !DIExpression()), !dbg !3796
  call void @llvm.dbg.value(metadata %class.Vector.0* %9, metadata !3797, metadata !DIExpression()), !dbg !3800
  %54 = getelementptr inbounds %class.Vector.0, %class.Vector.0* %9, i64 0, i32 0, i32 1, !dbg !3802
  %55 = load i32, i32* %54, align 8, !dbg !3802, !tbaa !3803
  %56 = icmp sgt i32 %55, 0, !dbg !3806
  br i1 %56, label %57, label %83, !dbg !3807

57:                                               ; preds = %53
  %58 = bitcast %class.String* %10 to i8*, !dbg !3808
  %59 = bitcast %class.String* %10 to i64*, !dbg !3809
  %60 = getelementptr inbounds %class.String, %class.String* %10, i64 0, i32 0, i32 1, !dbg !3809
  %61 = getelementptr inbounds %class.String, %class.String* %10, i64 0, i32 0, i32 2, !dbg !3822
  %62 = bitcast %class.IntArg* %11 to i8*, !dbg !3823
  %63 = getelementptr inbounds %class.IntArg, %class.IntArg* %11, i64 0, i32 0, !dbg !3824
  %64 = bitcast %class.String* %12 to i8*, !dbg !3823
  %65 = bitcast [1 x i32]* %4 to i8*, !dbg !3830
  %66 = getelementptr inbounds %class.String, %class.String* %12, i64 0, i32 0, i32 0, !dbg !3831
  %67 = getelementptr inbounds %class.String, %class.String* %12, i64 0, i32 0, i32 1, !dbg !3837
  %68 = getelementptr inbounds [1 x i32], [1 x i32]* %4, i64 0, i64 0, !dbg !3842
  %69 = getelementptr inbounds %class.IntArg, %class.IntArg* %11, i64 0, i32 1, !dbg !3830
  %70 = getelementptr inbounds %class.String, %class.String* %12, i64 0, i32 0, i32 2, !dbg !3843
  %71 = bitcast %class.String* %13 to i8*, !dbg !3854
  %72 = getelementptr inbounds %class.String, %class.String* %13, i64 0, i32 0, i32 2, !dbg !3855
  %73 = getelementptr inbounds %class.ICMPRewriter, %class.ICMPRewriter* %0, i64 0, i32 0, i32 3, i64 1, !dbg !3861
  %74 = getelementptr inbounds %class.ICMPRewriter, %class.ICMPRewriter* %0, i64 0, i32 2, !dbg !3871
  %75 = bitcast %"struct.ICMPRewriter::MapEntry"* %14 to i8*, !dbg !3871
  %76 = bitcast %"struct.ICMPRewriter::MapEntry"* %14 to i8**, !dbg !3873
  %77 = getelementptr inbounds %"struct.ICMPRewriter::MapEntry", %"struct.ICMPRewriter::MapEntry"* %14, i64 0, i32 1, !dbg !3873
  %78 = getelementptr inbounds %class.ICMPRewriter, %class.ICMPRewriter* %0, i64 0, i32 2, i32 0, i32 1, !dbg !3880
  %79 = getelementptr inbounds %class.ICMPRewriter, %class.ICMPRewriter* %0, i64 0, i32 2, i32 0, i32 2, !dbg !3880
  %80 = bitcast %"struct.ICMPRewriter::MapEntry"* %14 to %struct.char_array*, !dbg !3899
  %81 = getelementptr inbounds %class.Vector, %class.Vector* %74, i64 0, i32 0, !dbg !3907
  %82 = getelementptr inbounds %class.Vector, %class.Vector* %74, i64 0, i32 0, i32 0, !dbg !3908
  br label %92, !dbg !3807

83:                                               ; preds = %315, %53
  %84 = phi i32 [ %55, %53 ], [ %317, %315 ]
  call void @llvm.dbg.value(metadata %class.ICMPRewriter* %0, metadata !3910, metadata !DIExpression(DW_OP_plus_uconst, 112, DW_OP_stack_value)), !dbg !3914
  %85 = getelementptr inbounds %class.ICMPRewriter, %class.ICMPRewriter* %0, i64 0, i32 2, i32 0, i32 1, !dbg !3917
  %86 = load i32, i32* %85, align 8, !dbg !3917, !tbaa !3918
  %87 = icmp eq i32 %86, 0, !dbg !3919
  br i1 %87, label %341, label %345, !dbg !3920

88:                                               ; preds = %341, %42
  %89 = landingpad { i8*, i32 }
          cleanup, !dbg !3921
  %90 = extractvalue { i8*, i32 } %89, 0, !dbg !3921
  %91 = extractvalue { i8*, i32 } %89, 1, !dbg !3921
  br label %389, !dbg !3921

92:                                               ; preds = %57, %315
  %93 = phi i32 [ 0, %57 ], [ %316, %315 ]
  call void @llvm.dbg.value(metadata i32 %93, metadata !3626, metadata !DIExpression()), !dbg !3796
  call void @llvm.lifetime.start.p0i8(i64 24, i8* nonnull %58) #12, !dbg !3922
  call void @llvm.dbg.declare(metadata %class.String* %10, metadata !3628, metadata !DIExpression()), !dbg !3923
  %94 = invoke dereferenceable(24) %class.String* @_ZN6VectorI6StringEixEi(%class.Vector.0* nonnull %9, i32 %93)
          to label %95 unwind label %163, !dbg !3924

95:                                               ; preds = %92
  call void @llvm.dbg.value(metadata %class.String* %10, metadata !3819, metadata !DIExpression()), !dbg !3925
  call void @llvm.dbg.value(metadata %class.String* %94, metadata !3820, metadata !DIExpression()), !dbg !3925
  call void @llvm.dbg.value(metadata %class.String* %10, metadata !3813, metadata !DIExpression()), !dbg !3926
  call void @llvm.dbg.value(metadata %class.String* %94, metadata !3814, metadata !DIExpression()), !dbg !3926
  %96 = bitcast %class.String* %94 to i64*, !dbg !3927
  %97 = load i64, i64* %96, align 8, !dbg !3927, !tbaa !3671
  %98 = getelementptr inbounds %class.String, %class.String* %94, i64 0, i32 0, i32 1, !dbg !3928
  %99 = load i32, i32* %98, align 8, !dbg !3928, !tbaa !3676
  %100 = getelementptr inbounds %class.String, %class.String* %94, i64 0, i32 0, i32 2, !dbg !3929
  %101 = load %"struct.String::memo_t"*, %"struct.String::memo_t"** %100, align 8, !dbg !3929, !tbaa !3680
  call void @llvm.dbg.value(metadata %class.String* %10, metadata !3660, metadata !DIExpression()), !dbg !3809
  call void @llvm.dbg.value(metadata i8* undef, metadata !3663, metadata !DIExpression()), !dbg !3809
  call void @llvm.dbg.value(metadata i32 %99, metadata !3664, metadata !DIExpression()), !dbg !3809
  call void @llvm.dbg.value(metadata %"struct.String::memo_t"* %101, metadata !3665, metadata !DIExpression()), !dbg !3809
  store i64 %97, i64* %59, align 8, !dbg !3930, !tbaa !3671
  store i32 %99, i32* %60, align 8, !dbg !3931, !tbaa !3676
  store %"struct.String::memo_t"* %101, %"struct.String::memo_t"** %61, align 8, !dbg !3932, !tbaa !3680
  %102 = icmp eq %"struct.String::memo_t"* %101, null, !dbg !3933
  br i1 %102, label %107, label %103, !dbg !3934

103:                                              ; preds = %95
  %104 = getelementptr inbounds %"struct.String::memo_t", %"struct.String::memo_t"* %101, i64 0, i32 0, !dbg !3935
  call void @llvm.dbg.value(metadata i32* %104, metadata !3936, metadata !DIExpression()), !dbg !3939
  %105 = load volatile i32, i32* %104, align 4, !dbg !3941, !tbaa !3942
  %106 = add i32 %105, 1, !dbg !3941
  store volatile i32 %106, i32* %104, align 4, !dbg !3941, !tbaa !3942
  br label %107, !dbg !3943

107:                                              ; preds = %103, %95
  call void @llvm.dbg.value(metadata i32 -1, metadata !3631, metadata !DIExpression()), !dbg !3808
  %108 = invoke i32 @_ZNK6String9find_leftEci(%class.String* nonnull %10, i8 signext 58, i32 0)
          to label %109 unwind label %167, !dbg !3944

109:                                              ; preds = %107
  call void @llvm.dbg.value(metadata i32 %108, metadata !3632, metadata !DIExpression()), !dbg !3808
  %110 = icmp sgt i32 %108, -1, !dbg !3945
  br i1 %110, label %111, label %243, !dbg !3946

111:                                              ; preds = %109
  call void @llvm.lifetime.start.p0i8(i64 8, i8* nonnull %62) #12, !dbg !3947
  call void @llvm.dbg.value(metadata %class.IntArg* %11, metadata !3827, metadata !DIExpression()), !dbg !3824
  call void @llvm.dbg.value(metadata i32 0, metadata !3828, metadata !DIExpression()), !dbg !3824
  store i32 0, i32* %63, align 4, !dbg !3948, !tbaa !3949
  call void @llvm.lifetime.start.p0i8(i64 24, i8* nonnull %64) #12, !dbg !3951
  %112 = add nuw nsw i32 %108, 1, !dbg !3952
  call void @llvm.dbg.value(metadata %class.String* %10, metadata !3953, metadata !DIExpression()), !dbg !3957
  call void @llvm.dbg.value(metadata i32 %112, metadata !3956, metadata !DIExpression()), !dbg !3957
  %113 = load i32, i32* %60, align 8, !dbg !3959, !tbaa !3676, !noalias !3960
  %114 = sub nsw i32 0, %113, !dbg !3963
  %115 = icmp slt i32 %108, %114, !dbg !3964
  %116 = select i1 %115, i32 0, i32 %112, !dbg !3965
  invoke void @_ZNK6String9substringEii(%class.String* nonnull sret %12, %class.String* nonnull %10, i32 %116, i32 %113)
          to label %117 unwind label %171, !dbg !3966

117:                                              ; preds = %111
  call void @llvm.dbg.value(metadata %class.IntArg* %11, metadata !3646, metadata !DIExpression()), !dbg !3967
  call void @llvm.dbg.value(metadata %class.String* %12, metadata !3647, metadata !DIExpression()), !dbg !3967
  call void @llvm.dbg.value(metadata %class.ArgContext* @blank_args, metadata !3649, metadata !DIExpression()), !dbg !3967
  call void @llvm.dbg.value(metadata %class.IntArg* %11, metadata !2892, metadata !DIExpression()), !dbg !3830
  call void @llvm.dbg.value(metadata %class.String* %12, metadata !2894, metadata !DIExpression()), !dbg !3830
  call void @llvm.dbg.value(metadata %class.ArgContext* @blank_args, metadata !2896, metadata !DIExpression()), !dbg !3830
  call void @llvm.dbg.value(metadata i8 1, metadata !2897, metadata !DIExpression()), !dbg !3830
  call void @llvm.dbg.value(metadata i32 1, metadata !2898, metadata !DIExpression()), !dbg !3830
  call void @llvm.lifetime.start.p0i8(i64 4, i8* nonnull %65) #12, !dbg !3968
  call void @llvm.dbg.value(metadata %class.String* %12, metadata !3834, metadata !DIExpression()), !dbg !3831
  %118 = load i8*, i8** %66, align 8, !dbg !3969, !tbaa !3671
  call void @llvm.dbg.value(metadata %class.String* %12, metadata !3840, metadata !DIExpression()), !dbg !3837
  %119 = load i32, i32* %67, align 8, !dbg !3970, !tbaa !3676
  %120 = sext i32 %119 to i64, !dbg !3971
  %121 = getelementptr inbounds i8, i8* %118, i64 %120, !dbg !3971
  %122 = invoke i8* @_ZN6IntArg5parseEPKcS1_biPji(%class.IntArg* nonnull %11, i8* %118, i8* %121, i1 zeroext true, i32 4, i32* nonnull %68, i32 1)
          to label %123 unwind label %175, !dbg !3972

123:                                              ; preds = %117
  call void @llvm.dbg.value(metadata %class.String* %12, metadata !3840, metadata !DIExpression()), !dbg !3973
  %124 = load i8*, i8** %66, align 8, !dbg !3975, !tbaa !3671
  %125 = load i32, i32* %67, align 8, !dbg !3976, !tbaa !3676
  %126 = sext i32 %125 to i64, !dbg !3977
  %127 = getelementptr inbounds i8, i8* %124, i64 %126, !dbg !3977
  %128 = icmp eq i8* %122, %127, !dbg !3978
  br i1 %128, label %130, label %129, !dbg !3979

129:                                              ; preds = %123
  store i32 22, i32* %69, align 4, !dbg !3980, !tbaa !3981
  br label %132, !dbg !3982

130:                                              ; preds = %123
  %131 = load i32, i32* %69, align 4, !dbg !3984, !tbaa !3981
  switch i32 %131, label %132 [
    i32 0, label %134
    i32 34, label %134
  ], !dbg !3982

132:                                              ; preds = %130, %129
  invoke void (%class.ArgContext*, i8*, ...) @_ZNK10ArgContext5errorEPKcz(%class.ArgContext* nonnull @blank_args, i8* getelementptr inbounds ([15 x i8], [15 x i8]* @.str.18, i64 0, i64 0))
          to label %133 unwind label %175, !dbg !3985

133:                                              ; preds = %132
  call void @llvm.lifetime.end.p0i8(i64 4, i8* nonnull %65) #12, !dbg !3987
  br label %139, !dbg !3988

134:                                              ; preds = %130, %130
  call void @llvm.dbg.value(metadata i32* %68, metadata !3989, metadata !DIExpression()), !dbg !4001
  call void @llvm.dbg.value(metadata i32* %68, metadata !4003, metadata !DIExpression()), !dbg !4012
  %135 = load i32, i32* %68, align 4, !dbg !4014, !tbaa !3942
  call void @llvm.lifetime.end.p0i8(i64 4, i8* nonnull %65) #12, !dbg !3987
  switch i32 %131, label %139 [
    i32 34, label %136
    i32 0, label %138
  ], !dbg !4015

136:                                              ; preds = %134
  %137 = sext i32 %135 to i64, !dbg !4016
  invoke void @_ZN6IntArg11range_errorERK10ArgContextbx(%class.IntArg* nonnull %11, %class.ArgContext* nonnull dereferenceable(32) @blank_args, i1 zeroext true, i64 %137)
          to label %139 unwind label %175, !dbg !4019

138:                                              ; preds = %134
  br label %139, !dbg !4020

139:                                              ; preds = %138, %134, %133, %136
  %140 = phi i32 [ -1, %133 ], [ -1, %134 ], [ %135, %138 ], [ -1, %136 ], !dbg !3808
  %141 = phi i1 [ false, %133 ], [ false, %134 ], [ true, %138 ], [ false, %136 ], !dbg !4022
  call void @llvm.dbg.value(metadata %class.String* %12, metadata !3852, metadata !DIExpression()) #12, !dbg !4023
  call void @llvm.dbg.value(metadata %class.String* %12, metadata !3847, metadata !DIExpression()) #12, !dbg !4024
  %142 = load %"struct.String::memo_t"*, %"struct.String::memo_t"** %70, align 8, !dbg !4025, !tbaa !3680
  %143 = icmp eq %"struct.String::memo_t"* %142, null, !dbg !4026
  br i1 %143, label %158, label %144, !dbg !4027

144:                                              ; preds = %139
  %145 = getelementptr inbounds %"struct.String::memo_t", %"struct.String::memo_t"* %142, i64 0, i32 0, !dbg !4028
  %146 = load volatile i32, i32* %145, align 4, !dbg !4028, !tbaa !4030
  %147 = icmp eq i32 %146, 0, !dbg !4028
  br i1 %147, label %148, label %149, !dbg !4028

148:                                              ; preds = %144
  call void @__assert_fail(i8* getelementptr inbounds ([18 x i8], [18 x i8]* @.str.9, i64 0, i64 0), i8* getelementptr inbounds ([29 x i8], [29 x i8]* @.str.10, i64 0, i64 0), i32 273, i8* getelementptr inbounds ([27 x i8], [27 x i8]* @__PRETTY_FUNCTION__._ZNK6String5derefEv, i64 0, i64 0)) #14, !dbg !4028
  unreachable, !dbg !4028

149:                                              ; preds = %144
  call void @llvm.dbg.value(metadata i32* %145, metadata !4032, metadata !DIExpression()) #12, !dbg !4035
  %150 = load volatile i32, i32* %145, align 4, !dbg !4038, !tbaa !3942
  %151 = add i32 %150, -1, !dbg !4038
  store volatile i32 %151, i32* %145, align 4, !dbg !4038, !tbaa !3942
  %152 = icmp eq i32 %151, 0, !dbg !4039
  br i1 %152, label %153, label %154, !dbg !4040

153:                                              ; preds = %149
  invoke void @_ZN6String11delete_memoEPNS_6memo_tE(%"struct.String::memo_t"* nonnull %142)
          to label %154 unwind label %155, !dbg !4041

154:                                              ; preds = %153, %149
  store %"struct.String::memo_t"* null, %"struct.String::memo_t"** %70, align 8, !dbg !4042, !tbaa !3680
  br label %158, !dbg !4043

155:                                              ; preds = %153
  %156 = landingpad { i8*, i32 }
          catch i8* null, !dbg !4044
  %157 = extractvalue { i8*, i32 } %156, 0, !dbg !4044
  call void @__clang_call_terminate(i8* %157) #14, !dbg !4044
  unreachable, !dbg !4044

158:                                              ; preds = %139, %154
  call void @llvm.lifetime.end.p0i8(i64 24, i8* nonnull %64) #12, !dbg !4045
  call void @llvm.lifetime.end.p0i8(i64 8, i8* nonnull %62) #12, !dbg !4045
  br i1 %141, label %198, label %159, !dbg !4046

159:                                              ; preds = %279, %246, %158
  call void @llvm.dbg.label(metadata !3635), !dbg !4047
  %160 = invoke i8* @_ZNK6String5c_strEv(%class.String* nonnull %10)
          to label %161 unwind label %167, !dbg !4048

161:                                              ; preds = %159
  %162 = invoke i32 (%class.ErrorHandler*, i8*, ...) @_ZN12ErrorHandler5errorEPKcz(%class.ErrorHandler* %2, i8* getelementptr inbounds ([22 x i8], [22 x i8]* @.str.3, i64 0, i64 0), i8* %160)
          to label %298 unwind label %167, !dbg !4049

163:                                              ; preds = %92
  %164 = landingpad { i8*, i32 }
          cleanup, !dbg !4050
  %165 = extractvalue { i8*, i32 } %164, 0, !dbg !4050
  %166 = extractvalue { i8*, i32 } %164, 1, !dbg !4050
  br label %338, !dbg !4050

167:                                              ; preds = %161, %159, %107
  %168 = landingpad { i8*, i32 }
          cleanup, !dbg !4050
  %169 = extractvalue { i8*, i32 } %168, 0, !dbg !4050
  %170 = extractvalue { i8*, i32 } %168, 1, !dbg !4050
  br label %319, !dbg !4050

171:                                              ; preds = %111
  %172 = landingpad { i8*, i32 }
          cleanup, !dbg !4051
  %173 = extractvalue { i8*, i32 } %172, 0, !dbg !4051
  %174 = extractvalue { i8*, i32 } %172, 1, !dbg !4051
  br label %195, !dbg !4051

175:                                              ; preds = %136, %132, %117
  %176 = landingpad { i8*, i32 }
          cleanup, !dbg !4051
  %177 = extractvalue { i8*, i32 } %176, 0, !dbg !4051
  %178 = extractvalue { i8*, i32 } %176, 1, !dbg !4051
  call void @llvm.dbg.value(metadata %class.String* %12, metadata !3852, metadata !DIExpression()) #12, !dbg !4052
  call void @llvm.dbg.value(metadata %class.String* %12, metadata !3847, metadata !DIExpression()) #12, !dbg !4054
  %179 = load %"struct.String::memo_t"*, %"struct.String::memo_t"** %70, align 8, !dbg !4056, !tbaa !3680
  %180 = icmp eq %"struct.String::memo_t"* %179, null, !dbg !4057
  br i1 %180, label %195, label %181, !dbg !4058

181:                                              ; preds = %175
  %182 = getelementptr inbounds %"struct.String::memo_t", %"struct.String::memo_t"* %179, i64 0, i32 0, !dbg !4059
  %183 = load volatile i32, i32* %182, align 4, !dbg !4059, !tbaa !4030
  %184 = icmp eq i32 %183, 0, !dbg !4059
  br i1 %184, label %185, label %186, !dbg !4059

185:                                              ; preds = %181
  call void @__assert_fail(i8* getelementptr inbounds ([18 x i8], [18 x i8]* @.str.9, i64 0, i64 0), i8* getelementptr inbounds ([29 x i8], [29 x i8]* @.str.10, i64 0, i64 0), i32 273, i8* getelementptr inbounds ([27 x i8], [27 x i8]* @__PRETTY_FUNCTION__._ZNK6String5derefEv, i64 0, i64 0)) #14, !dbg !4059
  unreachable, !dbg !4059

186:                                              ; preds = %181
  call void @llvm.dbg.value(metadata i32* %182, metadata !4032, metadata !DIExpression()) #12, !dbg !4060
  %187 = load volatile i32, i32* %182, align 4, !dbg !4062, !tbaa !3942
  %188 = add i32 %187, -1, !dbg !4062
  store volatile i32 %188, i32* %182, align 4, !dbg !4062, !tbaa !3942
  %189 = icmp eq i32 %188, 0, !dbg !4063
  br i1 %189, label %190, label %191, !dbg !4064

190:                                              ; preds = %186
  invoke void @_ZN6String11delete_memoEPNS_6memo_tE(%"struct.String::memo_t"* nonnull %179)
          to label %191 unwind label %192, !dbg !4065

191:                                              ; preds = %190, %186
  store %"struct.String::memo_t"* null, %"struct.String::memo_t"** %70, align 8, !dbg !4066, !tbaa !3680
  br label %195, !dbg !4067

192:                                              ; preds = %190
  %193 = landingpad { i8*, i32 }
          catch i8* null, !dbg !4068
  %194 = extractvalue { i8*, i32 } %193, 0, !dbg !4068
  call void @__clang_call_terminate(i8* %194) #14, !dbg !4068
  unreachable, !dbg !4068

195:                                              ; preds = %191, %175, %171
  %196 = phi i32 [ %174, %171 ], [ %178, %175 ], [ %178, %191 ], !dbg !4051
  %197 = phi i8* [ %173, %171 ], [ %177, %175 ], [ %177, %191 ], !dbg !4051
  call void @llvm.lifetime.end.p0i8(i64 24, i8* nonnull %64) #12, !dbg !4045
  call void @llvm.lifetime.end.p0i8(i64 8, i8* nonnull %62) #12, !dbg !4045
  br label %319, !dbg !4045

198:                                              ; preds = %158
  call void @llvm.lifetime.start.p0i8(i64 24, i8* nonnull %71) #12, !dbg !4069
  %199 = invoke dereferenceable(24) %class.String* @_ZN6VectorI6StringEixEi(%class.Vector.0* nonnull %9, i32 %93)
          to label %200 unwind label %216, !dbg !4069

200:                                              ; preds = %198
  invoke void @_ZNK6String9substringEii(%class.String* nonnull sret %13, %class.String* nonnull %199, i32 0, i32 %108)
          to label %201 unwind label %216, !dbg !4070

201:                                              ; preds = %200
  call void @llvm.dbg.value(metadata %class.String* %10, metadata !3858, metadata !DIExpression()), !dbg !3855
  call void @llvm.dbg.value(metadata %class.String* %13, metadata !3859, metadata !DIExpression()), !dbg !3855
  call void @llvm.dbg.value(metadata %class.String* %10, metadata !3847, metadata !DIExpression()), !dbg !4071
  %202 = load %"struct.String::memo_t"*, %"struct.String::memo_t"** %61, align 8, !dbg !4073, !tbaa !3680
  %203 = icmp eq %"struct.String::memo_t"* %202, null, !dbg !4074
  br i1 %203, label %215, label %204, !dbg !4075

204:                                              ; preds = %201
  %205 = getelementptr inbounds %"struct.String::memo_t", %"struct.String::memo_t"* %202, i64 0, i32 0, !dbg !4076
  %206 = load volatile i32, i32* %205, align 4, !dbg !4076, !tbaa !4030
  %207 = icmp eq i32 %206, 0, !dbg !4076
  br i1 %207, label %208, label %209, !dbg !4076

208:                                              ; preds = %204
  call void @__assert_fail(i8* getelementptr inbounds ([18 x i8], [18 x i8]* @.str.9, i64 0, i64 0), i8* getelementptr inbounds ([29 x i8], [29 x i8]* @.str.10, i64 0, i64 0), i32 273, i8* getelementptr inbounds ([27 x i8], [27 x i8]* @__PRETTY_FUNCTION__._ZNK6String5derefEv, i64 0, i64 0)) #14, !dbg !4076
  unreachable, !dbg !4076

209:                                              ; preds = %204
  call void @llvm.dbg.value(metadata i32* %205, metadata !4032, metadata !DIExpression()), !dbg !4077
  %210 = load volatile i32, i32* %205, align 4, !dbg !4079, !tbaa !3942
  %211 = add i32 %210, -1, !dbg !4079
  store volatile i32 %211, i32* %205, align 4, !dbg !4079, !tbaa !3942
  %212 = icmp eq i32 %211, 0, !dbg !4080
  br i1 %212, label %213, label %214, !dbg !4081

213:                                              ; preds = %209
  invoke void @_ZN6String11delete_memoEPNS_6memo_tE(%"struct.String::memo_t"* nonnull %202)
          to label %214 unwind label %220, !dbg !4082

214:                                              ; preds = %213, %209
  store %"struct.String::memo_t"* null, %"struct.String::memo_t"** %61, align 8, !dbg !4083, !tbaa !3680
  br label %215, !dbg !4084

215:                                              ; preds = %201, %214
  call void @llvm.memcpy.p0i8.p0i8.i64(i8* nonnull align 8 dereferenceable(24) %58, i8* nonnull align 8 dereferenceable(24) %71, i64 24, i1 false), !dbg !4085, !tbaa.struct !4086
  call void @llvm.dbg.value(metadata %class.String* %13, metadata !3852, metadata !DIExpression()) #12, !dbg !4088
  call void @llvm.dbg.value(metadata %class.String* %13, metadata !3847, metadata !DIExpression()) #12, !dbg !4090
  call void @llvm.lifetime.end.p0i8(i64 24, i8* nonnull %71) #12, !dbg !4092
  br label %243, !dbg !4093

216:                                              ; preds = %200, %198
  %217 = landingpad { i8*, i32 }
          cleanup, !dbg !4094
  %218 = extractvalue { i8*, i32 } %217, 0, !dbg !4094
  %219 = extractvalue { i8*, i32 } %217, 1, !dbg !4094
  br label %240, !dbg !4094

220:                                              ; preds = %213
  %221 = landingpad { i8*, i32 }
          cleanup, !dbg !4094
  %222 = extractvalue { i8*, i32 } %221, 0, !dbg !4094
  %223 = extractvalue { i8*, i32 } %221, 1, !dbg !4094
  call void @llvm.dbg.value(metadata %class.String* %13, metadata !3852, metadata !DIExpression()) #12, !dbg !4095
  call void @llvm.dbg.value(metadata %class.String* %13, metadata !3847, metadata !DIExpression()) #12, !dbg !4097
  %224 = load %"struct.String::memo_t"*, %"struct.String::memo_t"** %72, align 8, !dbg !4099, !tbaa !3680
  %225 = icmp eq %"struct.String::memo_t"* %224, null, !dbg !4100
  br i1 %225, label %240, label %226, !dbg !4101

226:                                              ; preds = %220
  %227 = getelementptr inbounds %"struct.String::memo_t", %"struct.String::memo_t"* %224, i64 0, i32 0, !dbg !4102
  %228 = load volatile i32, i32* %227, align 4, !dbg !4102, !tbaa !4030
  %229 = icmp eq i32 %228, 0, !dbg !4102
  br i1 %229, label %230, label %231, !dbg !4102

230:                                              ; preds = %226
  call void @__assert_fail(i8* getelementptr inbounds ([18 x i8], [18 x i8]* @.str.9, i64 0, i64 0), i8* getelementptr inbounds ([29 x i8], [29 x i8]* @.str.10, i64 0, i64 0), i32 273, i8* getelementptr inbounds ([27 x i8], [27 x i8]* @__PRETTY_FUNCTION__._ZNK6String5derefEv, i64 0, i64 0)) #14, !dbg !4102
  unreachable, !dbg !4102

231:                                              ; preds = %226
  call void @llvm.dbg.value(metadata i32* %227, metadata !4032, metadata !DIExpression()) #12, !dbg !4103
  %232 = load volatile i32, i32* %227, align 4, !dbg !4105, !tbaa !3942
  %233 = add i32 %232, -1, !dbg !4105
  store volatile i32 %233, i32* %227, align 4, !dbg !4105, !tbaa !3942
  %234 = icmp eq i32 %233, 0, !dbg !4106
  br i1 %234, label %235, label %236, !dbg !4107

235:                                              ; preds = %231
  invoke void @_ZN6String11delete_memoEPNS_6memo_tE(%"struct.String::memo_t"* nonnull %224)
          to label %236 unwind label %237, !dbg !4108

236:                                              ; preds = %235, %231
  store %"struct.String::memo_t"* null, %"struct.String::memo_t"** %72, align 8, !dbg !4109, !tbaa !3680
  br label %240, !dbg !4110

237:                                              ; preds = %235
  %238 = landingpad { i8*, i32 }
          catch i8* null, !dbg !4111
  %239 = extractvalue { i8*, i32 } %238, 0, !dbg !4111
  call void @__clang_call_terminate(i8* %239) #14, !dbg !4111
  unreachable, !dbg !4111

240:                                              ; preds = %236, %220, %216
  %241 = phi i32 [ %219, %216 ], [ %223, %220 ], [ %223, %236 ], !dbg !4094
  %242 = phi i8* [ %218, %216 ], [ %222, %220 ], [ %222, %236 ], !dbg !4094
  call void @llvm.lifetime.end.p0i8(i64 24, i8* nonnull %71) #12, !dbg !4092
  br label %319, !dbg !4092

243:                                              ; preds = %215, %109
  %244 = phi i32 [ %140, %215 ], [ -1, %109 ], !dbg !4112
  %245 = invoke %class.Element* @_Z10cp_elementRK6StringPK7ElementP12ErrorHandlerPKc(%class.String* nonnull dereferenceable(24) %10, %class.Element* %21, %class.ErrorHandler* null, i8* null)
          to label %246 unwind label %248, !dbg !4113

246:                                              ; preds = %243
  call void @llvm.dbg.value(metadata %class.Element* %245, metadata !3633, metadata !DIExpression()), !dbg !3808
  %247 = icmp eq %class.Element* %245, null, !dbg !4115
  br i1 %247, label %159, label %252, !dbg !4116

248:                                              ; preds = %243
  %249 = landingpad { i8*, i32 }
          cleanup, !dbg !4117
  %250 = extractvalue { i8*, i32 } %249, 0, !dbg !4117
  %251 = extractvalue { i8*, i32 } %249, 1, !dbg !4117
  br label %319, !dbg !4117

252:                                              ; preds = %246
  call void @llvm.dbg.value(metadata i32 %244, metadata !3631, metadata !DIExpression()), !dbg !3808
  %253 = icmp sgt i32 %244, -1, !dbg !4118
  br i1 %253, label %254, label %273, !dbg !4119

254:                                              ; preds = %252
  call void @llvm.dbg.value(metadata %class.Element* %245, metadata !3868, metadata !DIExpression()), !dbg !4120
  %255 = getelementptr inbounds %class.Element, %class.Element* %245, i64 0, i32 3, i64 1, !dbg !4122
  %256 = load i32, i32* %255, align 4, !dbg !4122, !tbaa !3942
  %257 = add nsw i32 %256, %244, !dbg !4123
  call void @llvm.dbg.value(metadata %class.Element* %21, metadata !3868, metadata !DIExpression()), !dbg !3861
  %258 = load i32, i32* %73, align 4, !dbg !4124, !tbaa !3942
  %259 = icmp sgt i32 %257, %258, !dbg !4125
  br i1 %259, label %260, label %273, !dbg !4126

260:                                              ; preds = %254
  %261 = invoke dereferenceable(24) %class.String* @_ZN6VectorI6StringEixEi(%class.Vector.0* nonnull %9, i32 %93)
          to label %262 unwind label %269, !dbg !4127

262:                                              ; preds = %260
  %263 = invoke i8* @_ZNK6String5c_strEv(%class.String* nonnull %261)
          to label %264 unwind label %269, !dbg !4129

264:                                              ; preds = %262
  call void @llvm.dbg.value(metadata %class.Element* %21, metadata !3868, metadata !DIExpression()), !dbg !4130
  %265 = load i32, i32* %73, align 4, !dbg !4132, !tbaa !3942
  call void @llvm.dbg.value(metadata %class.Element* %21, metadata !3868, metadata !DIExpression()), !dbg !4133
  %266 = icmp eq i32 %265, 1, !dbg !4135
  %267 = select i1 %266, i8* getelementptr inbounds ([7 x i8], [7 x i8]* @.str.5, i64 0, i64 0), i8* getelementptr inbounds ([8 x i8], [8 x i8]* @.str.6, i64 0, i64 0), !dbg !4136
  %268 = invoke i32 (%class.ErrorHandler*, i8*, ...) @_ZN12ErrorHandler5errorEPKcz(%class.ErrorHandler* %2, i8* getelementptr inbounds ([40 x i8], [40 x i8]* @.str.4, i64 0, i64 0), i8* %263, i32 %265, i8* %267)
          to label %298 unwind label %269, !dbg !4137

269:                                              ; preds = %273, %264, %262, %260
  %270 = landingpad { i8*, i32 }
          cleanup, !dbg !4138
  %271 = extractvalue { i8*, i32 } %270, 0, !dbg !4138
  %272 = extractvalue { i8*, i32 } %270, 1, !dbg !4138
  br label %319, !dbg !4138

273:                                              ; preds = %254, %252
  %274 = bitcast %class.Element* %245 to i8* (%class.Element*, i8*)***, !dbg !4139
  %275 = load i8* (%class.Element*, i8*)**, i8* (%class.Element*, i8*)*** %274, align 8, !dbg !4139, !tbaa !3553
  %276 = getelementptr inbounds i8* (%class.Element*, i8*)*, i8* (%class.Element*, i8*)** %275, i64 14, !dbg !4139
  %277 = load i8* (%class.Element*, i8*)*, i8* (%class.Element*, i8*)** %276, align 8, !dbg !4139
  %278 = invoke i8* %277(%class.Element* nonnull %245, i8* getelementptr inbounds ([15 x i8], [15 x i8]* @.str.7, i64 0, i64 0))
          to label %279 unwind label %269, !dbg !4139

279:                                              ; preds = %273
  call void @llvm.dbg.value(metadata i8* %278, metadata !3634, metadata !DIExpression()), !dbg !3808
  %280 = icmp eq i8* %278, null, !dbg !4140
  br i1 %280, label %159, label %281, !dbg !4141

281:                                              ; preds = %279
  call void @llvm.dbg.value(metadata i8* %278, metadata !3634, metadata !DIExpression()), !dbg !3808
  call void @llvm.lifetime.start.p0i8(i64 16, i8* nonnull %75) #12, !dbg !4142
  call void @llvm.dbg.value(metadata i32 %244, metadata !3631, metadata !DIExpression()), !dbg !3808
  call void @llvm.dbg.value(metadata %"struct.ICMPRewriter::MapEntry"* %14, metadata !3876, metadata !DIExpression()), !dbg !3873
  call void @llvm.dbg.value(metadata i8* %278, metadata !3877, metadata !DIExpression()), !dbg !3873
  call void @llvm.dbg.value(metadata i32 %244, metadata !3878, metadata !DIExpression()), !dbg !3873
  store i8* %278, i8** %76, align 8, !dbg !4143, !tbaa !4144
  store i32 %244, i32* %77, align 8, !dbg !4146, !tbaa !4147
  call void @llvm.dbg.value(metadata %class.Vector* %74, metadata !3896, metadata !DIExpression()), !dbg !3907
  call void @llvm.dbg.value(metadata %"struct.ICMPRewriter::MapEntry"* %14, metadata !3897, metadata !DIExpression()), !dbg !3907
  call void @llvm.dbg.value(metadata %"struct.ICMPRewriter::MapEntry"* %14, metadata !3905, metadata !DIExpression()), !dbg !3899
  call void @llvm.dbg.value(metadata %class.Vector* %74, metadata !3884, metadata !DIExpression()), !dbg !4148
  call void @llvm.dbg.value(metadata %"struct.ICMPRewriter::MapEntry"* %14, metadata !3885, metadata !DIExpression()), !dbg !4148
  %282 = load i32, i32* %78, align 8, !dbg !4149, !tbaa !4150
  %283 = load i32, i32* %79, align 4, !dbg !4151, !tbaa !4152
  %284 = icmp slt i32 %282, %283, !dbg !4153
  br i1 %284, label %285, label %291, !dbg !4154

285:                                              ; preds = %281
  %286 = load %struct.char_array*, %struct.char_array** %82, align 8, !dbg !4155, !tbaa !3594
  %287 = sext i32 %282 to i64, !dbg !4156
  %288 = getelementptr inbounds %struct.char_array, %struct.char_array* %286, i64 %287, i32 0, i64 0, !dbg !4157
  call void @llvm.dbg.value(metadata i8* %288, metadata !4158, metadata !DIExpression()) #12, !dbg !4162
  call void @llvm.dbg.value(metadata i8* %75, metadata !4161, metadata !DIExpression()) #12, !dbg !4162
  call void @llvm.memcpy.p0i8.p0i8.i64(i8* nonnull align 1 dereferenceable(16) %288, i8* nonnull align 8 dereferenceable(16) %75, i64 16, i1 false) #12, !dbg !4164
  %289 = load i32, i32* %78, align 8, !dbg !4165, !tbaa !4150
  %290 = add nsw i32 %289, 1, !dbg !4165
  store i32 %290, i32* %78, align 8, !dbg !4165, !tbaa !4150
  br label %293, !dbg !4166

291:                                              ; preds = %281
  call void @llvm.dbg.value(metadata %struct.char_array* %80, metadata !3885, metadata !DIExpression()), !dbg !4148
  call void @llvm.dbg.value(metadata %class.vector_memory* %81, metadata !3884, metadata !DIExpression()), !dbg !4148
  %292 = invoke zeroext i1 @_ZN13vector_memoryI18sized_array_memoryILm16EEE21reserve_and_push_backEiPK10char_arrayILm16EE(%class.vector_memory* nonnull %81, i32 -1, %struct.char_array* nonnull %80)
          to label %293 unwind label %294, !dbg !4167

293:                                              ; preds = %285, %291
  call void @llvm.lifetime.end.p0i8(i64 16, i8* nonnull %75) #12, !dbg !4168
  br label %298, !dbg !4169

294:                                              ; preds = %291
  %295 = landingpad { i8*, i32 }
          cleanup, !dbg !4170
  %296 = extractvalue { i8*, i32 } %295, 0, !dbg !4170
  %297 = extractvalue { i8*, i32 } %295, 1, !dbg !4170
  call void @llvm.lifetime.end.p0i8(i64 16, i8* nonnull %75) #12, !dbg !4168
  br label %319, !dbg !4168

298:                                              ; preds = %264, %293, %161
  call void @llvm.dbg.value(metadata %class.String* %10, metadata !3852, metadata !DIExpression()) #12, !dbg !4171
  call void @llvm.dbg.value(metadata %class.String* %10, metadata !3847, metadata !DIExpression()) #12, !dbg !4173
  %299 = load %"struct.String::memo_t"*, %"struct.String::memo_t"** %61, align 8, !dbg !4175, !tbaa !3680
  %300 = icmp eq %"struct.String::memo_t"* %299, null, !dbg !4176
  br i1 %300, label %315, label %301, !dbg !4177

301:                                              ; preds = %298
  %302 = getelementptr inbounds %"struct.String::memo_t", %"struct.String::memo_t"* %299, i64 0, i32 0, !dbg !4178
  %303 = load volatile i32, i32* %302, align 4, !dbg !4178, !tbaa !4030
  %304 = icmp eq i32 %303, 0, !dbg !4178
  br i1 %304, label %305, label %306, !dbg !4178

305:                                              ; preds = %301
  call void @__assert_fail(i8* getelementptr inbounds ([18 x i8], [18 x i8]* @.str.9, i64 0, i64 0), i8* getelementptr inbounds ([29 x i8], [29 x i8]* @.str.10, i64 0, i64 0), i32 273, i8* getelementptr inbounds ([27 x i8], [27 x i8]* @__PRETTY_FUNCTION__._ZNK6String5derefEv, i64 0, i64 0)) #14, !dbg !4178
  unreachable, !dbg !4178

306:                                              ; preds = %301
  call void @llvm.dbg.value(metadata i32* %302, metadata !4032, metadata !DIExpression()) #12, !dbg !4179
  %307 = load volatile i32, i32* %302, align 4, !dbg !4181, !tbaa !3942
  %308 = add i32 %307, -1, !dbg !4181
  store volatile i32 %308, i32* %302, align 4, !dbg !4181, !tbaa !3942
  %309 = icmp eq i32 %308, 0, !dbg !4182
  br i1 %309, label %310, label %311, !dbg !4183

310:                                              ; preds = %306
  invoke void @_ZN6String11delete_memoEPNS_6memo_tE(%"struct.String::memo_t"* nonnull %299)
          to label %311 unwind label %312, !dbg !4184

311:                                              ; preds = %310, %306
  store %"struct.String::memo_t"* null, %"struct.String::memo_t"** %61, align 8, !dbg !4185, !tbaa !3680
  br label %315, !dbg !4186

312:                                              ; preds = %310
  %313 = landingpad { i8*, i32 }
          catch i8* null, !dbg !4187
  %314 = extractvalue { i8*, i32 } %313, 0, !dbg !4187
  call void @__clang_call_terminate(i8* %314) #14, !dbg !4187
  unreachable, !dbg !4187

315:                                              ; preds = %298, %311
  call void @llvm.lifetime.end.p0i8(i64 24, i8* nonnull %58) #12, !dbg !4169
  %316 = add nuw nsw i32 %93, 1, !dbg !4188
  call void @llvm.dbg.value(metadata i32 %316, metadata !3626, metadata !DIExpression()), !dbg !3796
  call void @llvm.dbg.value(metadata %class.Vector.0* %9, metadata !3797, metadata !DIExpression()), !dbg !3800
  %317 = load i32, i32* %54, align 8, !dbg !3802, !tbaa !3803
  %318 = icmp slt i32 %316, %317, !dbg !3806
  br i1 %318, label %92, label %83, !dbg !3807, !llvm.loop !4189

319:                                              ; preds = %248, %294, %269, %240, %195, %167
  %320 = phi i32 [ %170, %167 ], [ %241, %240 ], [ %196, %195 ], [ %251, %248 ], [ %272, %269 ], [ %297, %294 ], !dbg !3808
  %321 = phi i8* [ %169, %167 ], [ %242, %240 ], [ %197, %195 ], [ %250, %248 ], [ %271, %269 ], [ %296, %294 ], !dbg !3808
  call void @llvm.dbg.value(metadata %class.String* %10, metadata !3852, metadata !DIExpression()) #12, !dbg !4191
  call void @llvm.dbg.value(metadata %class.String* %10, metadata !3847, metadata !DIExpression()) #12, !dbg !4193
  %322 = load %"struct.String::memo_t"*, %"struct.String::memo_t"** %61, align 8, !dbg !4195, !tbaa !3680
  %323 = icmp eq %"struct.String::memo_t"* %322, null, !dbg !4196
  br i1 %323, label %338, label %324, !dbg !4197

324:                                              ; preds = %319
  %325 = getelementptr inbounds %"struct.String::memo_t", %"struct.String::memo_t"* %322, i64 0, i32 0, !dbg !4198
  %326 = load volatile i32, i32* %325, align 4, !dbg !4198, !tbaa !4030
  %327 = icmp eq i32 %326, 0, !dbg !4198
  br i1 %327, label %328, label %329, !dbg !4198

328:                                              ; preds = %324
  call void @__assert_fail(i8* getelementptr inbounds ([18 x i8], [18 x i8]* @.str.9, i64 0, i64 0), i8* getelementptr inbounds ([29 x i8], [29 x i8]* @.str.10, i64 0, i64 0), i32 273, i8* getelementptr inbounds ([27 x i8], [27 x i8]* @__PRETTY_FUNCTION__._ZNK6String5derefEv, i64 0, i64 0)) #14, !dbg !4198
  unreachable, !dbg !4198

329:                                              ; preds = %324
  call void @llvm.dbg.value(metadata i32* %325, metadata !4032, metadata !DIExpression()) #12, !dbg !4199
  %330 = load volatile i32, i32* %325, align 4, !dbg !4201, !tbaa !3942
  %331 = add i32 %330, -1, !dbg !4201
  store volatile i32 %331, i32* %325, align 4, !dbg !4201, !tbaa !3942
  %332 = icmp eq i32 %331, 0, !dbg !4202
  br i1 %332, label %333, label %334, !dbg !4203

333:                                              ; preds = %329
  invoke void @_ZN6String11delete_memoEPNS_6memo_tE(%"struct.String::memo_t"* nonnull %322)
          to label %334 unwind label %335, !dbg !4204

334:                                              ; preds = %333, %329
  store %"struct.String::memo_t"* null, %"struct.String::memo_t"** %61, align 8, !dbg !4205, !tbaa !3680
  br label %338, !dbg !4206

335:                                              ; preds = %333
  %336 = landingpad { i8*, i32 }
          catch i8* null, !dbg !4207
  %337 = extractvalue { i8*, i32 } %336, 0, !dbg !4207
  call void @__clang_call_terminate(i8* %337) #14, !dbg !4207
  unreachable, !dbg !4207

338:                                              ; preds = %334, %319, %163
  %339 = phi i32 [ %166, %163 ], [ %320, %319 ], [ %320, %334 ], !dbg !4050
  %340 = phi i8* [ %165, %163 ], [ %321, %319 ], [ %321, %334 ], !dbg !4050
  call void @llvm.lifetime.end.p0i8(i64 24, i8* nonnull %58) #12, !dbg !4169
  br label %389, !dbg !4208

341:                                              ; preds = %83
  %342 = invoke i32 (%class.ErrorHandler*, i8*, ...) @_ZN12ErrorHandler5errorEPKcz(%class.ErrorHandler* %2, i8* getelementptr inbounds ([25 x i8], [25 x i8]* @.str.8, i64 0, i64 0))
          to label %343 unwind label %88, !dbg !4209

343:                                              ; preds = %341
  %344 = load i32, i32* %54, align 8, !dbg !4210, !tbaa !4222
  br label %350, !dbg !4209

345:                                              ; preds = %83
  call void @llvm.dbg.value(metadata %class.ErrorHandler* %2, metadata !4223, metadata !DIExpression()), !dbg !4232
  %346 = getelementptr inbounds %class.ErrorHandler, %class.ErrorHandler* %2, i64 0, i32 1, !dbg !4234
  %347 = load i32, i32* %346, align 8, !dbg !4234, !tbaa !4235
  %348 = icmp ne i32 %347, 0, !dbg !4237
  %349 = sext i1 %348 to i32, !dbg !4237
  br label %350, !dbg !4238

350:                                              ; preds = %343, %345
  %351 = phi i32 [ %84, %345 ], [ %344, %343 ], !dbg !4210
  %352 = phi i32 [ %349, %345 ], [ %342, %343 ], !dbg !3652
  call void @llvm.dbg.value(metadata %class.Vector.0* %9, metadata !4220, metadata !DIExpression()) #12, !dbg !4239
  call void @llvm.dbg.value(metadata %class.Vector.0* %9, metadata !4214, metadata !DIExpression()) #12, !dbg !4240
  %353 = getelementptr inbounds %class.Vector.0, %class.Vector.0* %9, i64 0, i32 0, i32 0, !dbg !4241
  %354 = load %class.String*, %class.String** %353, align 8, !dbg !4241, !tbaa !4242
  %355 = sext i32 %351 to i64, !dbg !4210
  call void @llvm.dbg.value(metadata %class.String* %354, metadata !4243, metadata !DIExpression()) #12, !dbg !4249
  call void @llvm.dbg.value(metadata i64 %355, metadata !4246, metadata !DIExpression()) #12, !dbg !4249
  call void @llvm.dbg.value(metadata i64 0, metadata !4247, metadata !DIExpression()) #12, !dbg !4251
  %356 = icmp eq i32 %351, 0, !dbg !4252
  br i1 %356, label %357, label %359, !dbg !4254

357:                                              ; preds = %350
  %358 = bitcast %class.String* %354 to i8*, !dbg !4254
  br label %384, !dbg !4254

359:                                              ; preds = %350, %378
  %360 = phi i64 [ %379, %378 ], [ 0, %350 ]
  call void @llvm.dbg.value(metadata i64 %360, metadata !4247, metadata !DIExpression()) #12, !dbg !4251
  call void @llvm.dbg.value(metadata %class.String* undef, metadata !3852, metadata !DIExpression()) #12, !dbg !4255
  call void @llvm.dbg.value(metadata %class.String* undef, metadata !3847, metadata !DIExpression()) #12, !dbg !4257
  %361 = getelementptr inbounds %class.String, %class.String* %354, i64 %360, i32 0, i32 2, !dbg !4259
  %362 = load %"struct.String::memo_t"*, %"struct.String::memo_t"** %361, align 8, !dbg !4259, !tbaa !3680
  %363 = icmp eq %"struct.String::memo_t"* %362, null, !dbg !4260
  br i1 %363, label %378, label %364, !dbg !4261

364:                                              ; preds = %359
  %365 = getelementptr inbounds %"struct.String::memo_t", %"struct.String::memo_t"* %362, i64 0, i32 0, !dbg !4262
  %366 = load volatile i32, i32* %365, align 4, !dbg !4262, !tbaa !4030
  %367 = icmp eq i32 %366, 0, !dbg !4262
  br i1 %367, label %368, label %369, !dbg !4262

368:                                              ; preds = %364
  call void @__assert_fail(i8* getelementptr inbounds ([18 x i8], [18 x i8]* @.str.9, i64 0, i64 0), i8* getelementptr inbounds ([29 x i8], [29 x i8]* @.str.10, i64 0, i64 0), i32 273, i8* getelementptr inbounds ([27 x i8], [27 x i8]* @__PRETTY_FUNCTION__._ZNK6String5derefEv, i64 0, i64 0)) #14, !dbg !4262
  unreachable, !dbg !4262

369:                                              ; preds = %364
  call void @llvm.dbg.value(metadata i32* %365, metadata !4032, metadata !DIExpression()) #12, !dbg !4263
  %370 = load volatile i32, i32* %365, align 4, !dbg !4265, !tbaa !3942
  %371 = add i32 %370, -1, !dbg !4265
  store volatile i32 %371, i32* %365, align 4, !dbg !4265, !tbaa !3942
  %372 = icmp eq i32 %371, 0, !dbg !4266
  br i1 %372, label %373, label %374, !dbg !4267

373:                                              ; preds = %369
  invoke void @_ZN6String11delete_memoEPNS_6memo_tE(%"struct.String::memo_t"* nonnull %362)
          to label %374 unwind label %375, !dbg !4268

374:                                              ; preds = %373, %369
  store %"struct.String::memo_t"* null, %"struct.String::memo_t"** %361, align 8, !dbg !4269, !tbaa !3680
  br label %378, !dbg !4270

375:                                              ; preds = %373
  %376 = landingpad { i8*, i32 }
          catch i8* null, !dbg !4271
  %377 = extractvalue { i8*, i32 } %376, 0, !dbg !4271
  call void @__clang_call_terminate(i8* %377) #14, !dbg !4271
  unreachable, !dbg !4271

378:                                              ; preds = %374, %359
  %379 = add nuw i64 %360, 1, !dbg !4272
  call void @llvm.dbg.value(metadata i64 %379, metadata !4247, metadata !DIExpression()) #12, !dbg !4251
  %380 = icmp eq i64 %379, %355, !dbg !4252
  br i1 %380, label %381, label %359, !dbg !4254, !llvm.loop !4273

381:                                              ; preds = %378
  %382 = bitcast %class.Vector.0* %9 to i8**, !dbg !4275
  %383 = load i8*, i8** %382, align 8, !dbg !4276, !tbaa !4242
  br label %384, !dbg !4276

384:                                              ; preds = %381, %357
  %385 = phi i8* [ %383, %381 ], [ %358, %357 ], !dbg !4276
  %386 = icmp eq i8* %385, null, !dbg !4276
  br i1 %386, label %388, label %387, !dbg !4276

387:                                              ; preds = %384
  call void @_ZdaPv(i8* nonnull %385) #13, !dbg !4276
  br label %388, !dbg !4276

388:                                              ; preds = %384, %387
  call void @llvm.lifetime.end.p0i8(i64 16, i8* nonnull %52) #12, !dbg !3921
  br label %430

389:                                              ; preds = %338, %88
  %390 = phi i32 [ %339, %338 ], [ %91, %88 ], !dbg !3652
  %391 = phi i8* [ %340, %338 ], [ %90, %88 ], !dbg !3652
  call void @llvm.dbg.value(metadata %class.Vector.0* %9, metadata !4220, metadata !DIExpression()) #12, !dbg !4277
  call void @llvm.dbg.value(metadata %class.Vector.0* %9, metadata !4214, metadata !DIExpression()) #12, !dbg !4279
  %392 = getelementptr inbounds %class.Vector.0, %class.Vector.0* %9, i64 0, i32 0, i32 0, !dbg !4281
  %393 = load %class.String*, %class.String** %392, align 8, !dbg !4281, !tbaa !4242
  %394 = getelementptr inbounds %class.Vector.0, %class.Vector.0* %9, i64 0, i32 0, i32 1, !dbg !4282
  %395 = load i32, i32* %394, align 8, !dbg !4282, !tbaa !4222
  %396 = sext i32 %395 to i64, !dbg !4282
  call void @llvm.dbg.value(metadata %class.String* %393, metadata !4243, metadata !DIExpression()) #12, !dbg !4283
  call void @llvm.dbg.value(metadata i64 %396, metadata !4246, metadata !DIExpression()) #12, !dbg !4283
  call void @llvm.dbg.value(metadata i64 0, metadata !4247, metadata !DIExpression()) #12, !dbg !4285
  %397 = icmp eq i32 %395, 0, !dbg !4286
  br i1 %397, label %398, label %400, !dbg !4287

398:                                              ; preds = %389
  %399 = bitcast %class.String* %393 to i8*, !dbg !4287
  br label %425, !dbg !4287

400:                                              ; preds = %389, %419
  %401 = phi i64 [ %420, %419 ], [ 0, %389 ]
  call void @llvm.dbg.value(metadata i64 %401, metadata !4247, metadata !DIExpression()) #12, !dbg !4285
  call void @llvm.dbg.value(metadata %class.String* undef, metadata !3852, metadata !DIExpression()) #12, !dbg !4288
  call void @llvm.dbg.value(metadata %class.String* undef, metadata !3847, metadata !DIExpression()) #12, !dbg !4290
  %402 = getelementptr inbounds %class.String, %class.String* %393, i64 %401, i32 0, i32 2, !dbg !4292
  %403 = load %"struct.String::memo_t"*, %"struct.String::memo_t"** %402, align 8, !dbg !4292, !tbaa !3680
  %404 = icmp eq %"struct.String::memo_t"* %403, null, !dbg !4293
  br i1 %404, label %419, label %405, !dbg !4294

405:                                              ; preds = %400
  %406 = getelementptr inbounds %"struct.String::memo_t", %"struct.String::memo_t"* %403, i64 0, i32 0, !dbg !4295
  %407 = load volatile i32, i32* %406, align 4, !dbg !4295, !tbaa !4030
  %408 = icmp eq i32 %407, 0, !dbg !4295
  br i1 %408, label %409, label %410, !dbg !4295

409:                                              ; preds = %405
  call void @__assert_fail(i8* getelementptr inbounds ([18 x i8], [18 x i8]* @.str.9, i64 0, i64 0), i8* getelementptr inbounds ([29 x i8], [29 x i8]* @.str.10, i64 0, i64 0), i32 273, i8* getelementptr inbounds ([27 x i8], [27 x i8]* @__PRETTY_FUNCTION__._ZNK6String5derefEv, i64 0, i64 0)) #14, !dbg !4295
  unreachable, !dbg !4295

410:                                              ; preds = %405
  call void @llvm.dbg.value(metadata i32* %406, metadata !4032, metadata !DIExpression()) #12, !dbg !4296
  %411 = load volatile i32, i32* %406, align 4, !dbg !4298, !tbaa !3942
  %412 = add i32 %411, -1, !dbg !4298
  store volatile i32 %412, i32* %406, align 4, !dbg !4298, !tbaa !3942
  %413 = icmp eq i32 %412, 0, !dbg !4299
  br i1 %413, label %414, label %415, !dbg !4300

414:                                              ; preds = %410
  invoke void @_ZN6String11delete_memoEPNS_6memo_tE(%"struct.String::memo_t"* nonnull %403)
          to label %415 unwind label %416, !dbg !4301

415:                                              ; preds = %414, %410
  store %"struct.String::memo_t"* null, %"struct.String::memo_t"** %402, align 8, !dbg !4302, !tbaa !3680
  br label %419, !dbg !4303

416:                                              ; preds = %414
  %417 = landingpad { i8*, i32 }
          catch i8* null, !dbg !4304
  %418 = extractvalue { i8*, i32 } %417, 0, !dbg !4304
  call void @__clang_call_terminate(i8* %418) #14, !dbg !4304
  unreachable, !dbg !4304

419:                                              ; preds = %415, %400
  %420 = add nuw i64 %401, 1, !dbg !4305
  call void @llvm.dbg.value(metadata i64 %420, metadata !4247, metadata !DIExpression()) #12, !dbg !4285
  %421 = icmp eq i64 %420, %396, !dbg !4286
  br i1 %421, label %422, label %400, !dbg !4287, !llvm.loop !4306

422:                                              ; preds = %419
  %423 = bitcast %class.Vector.0* %9 to i8**, !dbg !4308
  %424 = load i8*, i8** %423, align 8, !dbg !4309, !tbaa !4242
  br label %425, !dbg !4309

425:                                              ; preds = %422, %398
  %426 = phi i8* [ %424, %422 ], [ %399, %398 ], !dbg !4309
  %427 = icmp eq i8* %426, null, !dbg !4309
  br i1 %427, label %429, label %428, !dbg !4309

428:                                              ; preds = %425
  call void @_ZdaPv(i8* nonnull %426) #13, !dbg !4309
  br label %429, !dbg !4309

429:                                              ; preds = %428, %425
  call void @llvm.lifetime.end.p0i8(i64 16, i8* nonnull %52) #12, !dbg !3921
  br label %449, !dbg !3921

430:                                              ; preds = %29, %388
  %431 = phi i32 [ %352, %388 ], [ -1, %29 ], !dbg !3652
  call void @llvm.lifetime.end.p0i8(i64 4, i8* nonnull %19) #12, !dbg !3921
  call void @llvm.lifetime.end.p0i8(i64 1, i8* nonnull %6) #12, !dbg !3921
  call void @llvm.dbg.value(metadata %class.String* %5, metadata !3852, metadata !DIExpression()) #12, !dbg !4310
  call void @llvm.dbg.value(metadata %class.String* %5, metadata !3847, metadata !DIExpression()) #12, !dbg !4312
  %432 = load %"struct.String::memo_t"*, %"struct.String::memo_t"** %18, align 8, !dbg !4314, !tbaa !3680
  %433 = icmp eq %"struct.String::memo_t"* %432, null, !dbg !4315
  br i1 %433, label %448, label %434, !dbg !4316

434:                                              ; preds = %430
  %435 = getelementptr inbounds %"struct.String::memo_t", %"struct.String::memo_t"* %432, i64 0, i32 0, !dbg !4317
  %436 = load volatile i32, i32* %435, align 4, !dbg !4317, !tbaa !4030
  %437 = icmp eq i32 %436, 0, !dbg !4317
  br i1 %437, label %438, label %439, !dbg !4317

438:                                              ; preds = %434
  call void @__assert_fail(i8* getelementptr inbounds ([18 x i8], [18 x i8]* @.str.9, i64 0, i64 0), i8* getelementptr inbounds ([29 x i8], [29 x i8]* @.str.10, i64 0, i64 0), i32 273, i8* getelementptr inbounds ([27 x i8], [27 x i8]* @__PRETTY_FUNCTION__._ZNK6String5derefEv, i64 0, i64 0)) #14, !dbg !4317
  unreachable, !dbg !4317

439:                                              ; preds = %434
  call void @llvm.dbg.value(metadata i32* %435, metadata !4032, metadata !DIExpression()) #12, !dbg !4318
  %440 = load volatile i32, i32* %435, align 4, !dbg !4320, !tbaa !3942
  %441 = add i32 %440, -1, !dbg !4320
  store volatile i32 %441, i32* %435, align 4, !dbg !4320, !tbaa !3942
  %442 = icmp eq i32 %441, 0, !dbg !4321
  br i1 %442, label %443, label %444, !dbg !4322

443:                                              ; preds = %439
  invoke void @_ZN6String11delete_memoEPNS_6memo_tE(%"struct.String::memo_t"* nonnull %432)
          to label %444 unwind label %445, !dbg !4323

444:                                              ; preds = %443, %439
  store %"struct.String::memo_t"* null, %"struct.String::memo_t"** %18, align 8, !dbg !4324, !tbaa !3680
  br label %448, !dbg !4325

445:                                              ; preds = %443
  %446 = landingpad { i8*, i32 }
          catch i8* null, !dbg !4326
  %447 = extractvalue { i8*, i32 } %446, 0, !dbg !4326
  call void @__clang_call_terminate(i8* %447) #14, !dbg !4326
  unreachable, !dbg !4326

448:                                              ; preds = %430, %444
  call void @llvm.lifetime.end.p0i8(i64 24, i8* nonnull %15) #12, !dbg !3921
  ret i32 %431, !dbg !3921

449:                                              ; preds = %429, %39
  %450 = phi i32 [ %390, %429 ], [ %40, %39 ], !dbg !3652
  %451 = phi i8* [ %391, %429 ], [ %41, %39 ], !dbg !3652
  call void @llvm.lifetime.end.p0i8(i64 4, i8* nonnull %19) #12, !dbg !3921
  call void @llvm.lifetime.end.p0i8(i64 1, i8* nonnull %6) #12, !dbg !3921
  call void @llvm.dbg.value(metadata %class.String* %5, metadata !3852, metadata !DIExpression()) #12, !dbg !4327
  call void @llvm.dbg.value(metadata %class.String* %5, metadata !3847, metadata !DIExpression()) #12, !dbg !4329
  %452 = load %"struct.String::memo_t"*, %"struct.String::memo_t"** %18, align 8, !dbg !4331, !tbaa !3680
  %453 = icmp eq %"struct.String::memo_t"* %452, null, !dbg !4332
  br i1 %453, label %468, label %454, !dbg !4333

454:                                              ; preds = %449
  %455 = getelementptr inbounds %"struct.String::memo_t", %"struct.String::memo_t"* %452, i64 0, i32 0, !dbg !4334
  %456 = load volatile i32, i32* %455, align 4, !dbg !4334, !tbaa !4030
  %457 = icmp eq i32 %456, 0, !dbg !4334
  br i1 %457, label %458, label %459, !dbg !4334

458:                                              ; preds = %454
  call void @__assert_fail(i8* getelementptr inbounds ([18 x i8], [18 x i8]* @.str.9, i64 0, i64 0), i8* getelementptr inbounds ([29 x i8], [29 x i8]* @.str.10, i64 0, i64 0), i32 273, i8* getelementptr inbounds ([27 x i8], [27 x i8]* @__PRETTY_FUNCTION__._ZNK6String5derefEv, i64 0, i64 0)) #14, !dbg !4334
  unreachable, !dbg !4334

459:                                              ; preds = %454
  call void @llvm.dbg.value(metadata i32* %455, metadata !4032, metadata !DIExpression()) #12, !dbg !4335
  %460 = load volatile i32, i32* %455, align 4, !dbg !4337, !tbaa !3942
  %461 = add i32 %460, -1, !dbg !4337
  store volatile i32 %461, i32* %455, align 4, !dbg !4337, !tbaa !3942
  %462 = icmp eq i32 %461, 0, !dbg !4338
  br i1 %462, label %463, label %464, !dbg !4339

463:                                              ; preds = %459
  invoke void @_ZN6String11delete_memoEPNS_6memo_tE(%"struct.String::memo_t"* nonnull %452)
          to label %464 unwind label %465, !dbg !4340

464:                                              ; preds = %463, %459
  store %"struct.String::memo_t"* null, %"struct.String::memo_t"** %18, align 8, !dbg !4341, !tbaa !3680
  br label %468, !dbg !4342

465:                                              ; preds = %463
  %466 = landingpad { i8*, i32 }
          catch i8* null, !dbg !4343
  %467 = extractvalue { i8*, i32 } %466, 0, !dbg !4343
  call void @__clang_call_terminate(i8* %467) #14, !dbg !4343
  unreachable, !dbg !4343

468:                                              ; preds = %449, %464
  call void @llvm.lifetime.end.p0i8(i64 24, i8* nonnull %15) #12, !dbg !3921
  %469 = insertvalue { i8*, i32 } undef, i8* %451, 0, !dbg !3921
  %470 = insertvalue { i8*, i32 } %469, i32 %450, 1, !dbg !3921
  resume { i8*, i32 } %470, !dbg !3921
}

; Function Attrs: argmemonly nounwind willreturn
declare void @llvm.lifetime.start.p0i8(i64 immarg, i8* nocapture) #6

declare void @_ZN4ArgsC1ERK6VectorI6StringEPK7ElementP12ErrorHandler(%class.Args*, %class.Vector.0* dereferenceable(16), %class.Element*, %class.ErrorHandler*) unnamed_addr #2

declare i32 @_ZN4Args8completeEv(%class.Args*) local_unnamed_addr #2

; Function Attrs: nounwind
declare void @_ZN4ArgsD1Ev(%class.Args*) unnamed_addr #3

; Function Attrs: argmemonly nounwind willreturn
declare void @llvm.lifetime.end.p0i8(i64 immarg, i8* nocapture) #6

declare !dbg !2528 void @_Z11cp_spacevecRK6StringR6VectorIS_E(%class.String* dereferenceable(24), %class.Vector.0* dereferenceable(16)) local_unnamed_addr #2

declare dereferenceable(24) %class.String* @_ZN6VectorI6StringEixEi(%class.Vector.0*, i32) local_unnamed_addr #2

declare i32 @_ZNK6String9find_leftEci(%class.String*, i8 signext, i32) local_unnamed_addr #2

; Function Attrs: nounwind readnone speculatable willreturn
declare void @llvm.dbg.label(metadata) #1

declare i32 @_ZN12ErrorHandler5errorEPKcz(%class.ErrorHandler*, i8*, ...) local_unnamed_addr #2

declare i8* @_ZNK6String5c_strEv(%class.String*) local_unnamed_addr #2

declare void @_ZNK6String9substringEii(%class.String* sret, %class.String*, i32, i32) local_unnamed_addr #2

declare !dbg !2532 %class.Element* @_Z10cp_elementRK6StringPK7ElementP12ErrorHandlerPKc(%class.String* dereferenceable(24), %class.Element*, %class.ErrorHandler*, i8*) local_unnamed_addr #2

; Function Attrs: inlinehint nounwind sspstrong uwtable
define linkonce_odr dso_local i32 @_ZNK7Element8noutputsEv(%class.Element* %0) local_unnamed_addr #7 comdat align 2 !dbg !3862 {
  call void @llvm.dbg.value(metadata %class.Element* %0, metadata !3868, metadata !DIExpression()), !dbg !4344
  %2 = getelementptr inbounds %class.Element, %class.Element* %0, i64 0, i32 3, i64 1, !dbg !4345
  %3 = load i32, i32* %2, align 4, !dbg !4345, !tbaa !3942
  ret i32 %3, !dbg !4346
}

; Function Attrs: sspstrong uwtable
define dso_local i32 @_ZN12ICMPRewriter6handleEP14WritablePacket(%class.ICMPRewriter* %0, %class.WritablePacket* %1) local_unnamed_addr #0 align 2 !dbg !4347 {
  %3 = alloca %class.IPFlowID, align 4
  %4 = alloca [8 x i16], align 16
  %5 = alloca [8 x i16], align 16
  call void @llvm.dbg.value(metadata %class.ICMPRewriter* %0, metadata !4349, metadata !DIExpression()), !dbg !4384
  call void @llvm.dbg.value(metadata %class.WritablePacket* %1, metadata !4350, metadata !DIExpression()), !dbg !4384
  call void @llvm.dbg.value(metadata %class.WritablePacket* %1, metadata !4385, metadata !DIExpression()), !dbg !4389
  %6 = getelementptr %class.WritablePacket, %class.WritablePacket* %1, i64 0, i32 0, !dbg !4391
  call void @llvm.dbg.value(metadata %class.Packet* %6, metadata !4392, metadata !DIExpression()), !dbg !4395
  %7 = tail call i8* @_ZNK6Packet16transport_headerEv(%class.Packet* %6), !dbg !4397
  call void @llvm.dbg.value(metadata i8* %7, metadata !4351, metadata !DIExpression()), !dbg !4384
  %8 = load i8, i8* %7, align 4, !dbg !4398, !tbaa !4400
  switch i8 %8, label %468 [
    i8 3, label %9
    i8 11, label %9
    i8 12, label %9
    i8 4, label %9
    i8 5, label %9
  ], !dbg !4403

9:                                                ; preds = %2, %2, %2, %2, %2
  call void @llvm.dbg.value(metadata i8* %7, metadata !4352, metadata !DIExpression(DW_OP_plus_uconst, 8, DW_OP_stack_value)), !dbg !4384
  %10 = tail call i32 @_ZNK6Packet16transport_lengthEv(%class.Packet* %6), !dbg !4404
  %11 = icmp slt i32 %10, 28, !dbg !4406
  br i1 %11, label %468, label %12, !dbg !4407

12:                                               ; preds = %9
  %13 = getelementptr inbounds i8, i8* %7, i64 8, !dbg !4408
  call void @llvm.dbg.value(metadata i8* %13, metadata !4352, metadata !DIExpression()), !dbg !4384
  %14 = load i8, i8* %13, align 4, !dbg !4409
  %15 = shl i8 %14, 2, !dbg !4410
  %16 = and i8 %15, 60, !dbg !4410
  %17 = add nuw nsw i8 %16, 8, !dbg !4411
  %18 = zext i8 %17 to i64, !dbg !4411
  %19 = getelementptr inbounds i8, i8* %7, i64 %18, !dbg !4384
  call void @llvm.dbg.value(metadata i8* %19, metadata !4353, metadata !DIExpression()), !dbg !4384
  %20 = and i8 %14, -16, !dbg !4412
  %21 = icmp ne i8 %20, 64, !dbg !4412
  %22 = icmp ult i8 %16, 20, !dbg !4414
  %23 = or i1 %21, %22, !dbg !4415
  br i1 %23, label %468, label %24, !dbg !4415

24:                                               ; preds = %12
  %25 = getelementptr inbounds i8, i8* %7, i64 17, !dbg !4416
  %26 = load i8, i8* %25, align 1, !dbg !4416, !tbaa !4417
  %27 = zext i8 %26 to i32, !dbg !4420
  call void @llvm.dbg.value(metadata i32 %27, metadata !4354, metadata !DIExpression()), !dbg !4384
  %28 = bitcast %class.IPFlowID* %3 to i8*, !dbg !4421
  call void @llvm.lifetime.start.p0i8(i64 12, i8* nonnull %28) #12, !dbg !4421
  call void @llvm.dbg.declare(metadata %class.IPFlowID* %3, metadata !4355, metadata !DIExpression()), !dbg !4422
  %29 = getelementptr inbounds i8, i8* %7, i64 24, !dbg !4423
  %30 = bitcast i8* %29 to i32*, !dbg !4423
  %31 = load i32, i32* %30, align 4, !dbg !4423, !tbaa.struct !4424
  %32 = getelementptr inbounds i8, i8* %7, i64 20, !dbg !4425
  %33 = bitcast i8* %32 to i32*, !dbg !4425
  %34 = load i32, i32* %33, align 4, !dbg !4425, !tbaa.struct !4424
  call void @llvm.dbg.value(metadata i32 %31, metadata !4426, metadata !DIExpression()), !dbg !4434
  call void @llvm.dbg.value(metadata i32 %34, metadata !4432, metadata !DIExpression()), !dbg !4434
  call void @llvm.dbg.value(metadata %class.IPFlowID* %3, metadata !4429, metadata !DIExpression()), !dbg !4434
  call void @llvm.dbg.value(metadata i16 0, metadata !4431, metadata !DIExpression()), !dbg !4434
  call void @llvm.dbg.value(metadata i16 0, metadata !4433, metadata !DIExpression()), !dbg !4434
  %35 = getelementptr inbounds %class.IPFlowID, %class.IPFlowID* %3, i64 0, i32 0, i32 0, !dbg !4436
  store i32 %31, i32* %35, align 4, !dbg !4436, !tbaa.struct !4424
  %36 = getelementptr inbounds %class.IPFlowID, %class.IPFlowID* %3, i64 0, i32 1, i32 0, !dbg !4437
  store i32 %34, i32* %36, align 4, !dbg !4437, !tbaa.struct !4424
  %37 = getelementptr inbounds %class.IPFlowID, %class.IPFlowID* %3, i64 0, i32 2, !dbg !4438
  store i16 0, i16* %37, align 4, !dbg !4438, !tbaa !4439
  %38 = getelementptr inbounds %class.IPFlowID, %class.IPFlowID* %3, i64 0, i32 3, !dbg !4442
  store i16 0, i16* %38, align 2, !dbg !4442, !tbaa !4443
  call void @llvm.dbg.value(metadata i8 0, metadata !4356, metadata !DIExpression()), !dbg !4384
  switch i8 %26, label %72 [
    i8 33, label %39
    i8 17, label %39
    i8 6, label %39
    i8 1, label %55
  ], !dbg !4444

39:                                               ; preds = %24, %24, %24
  %40 = getelementptr inbounds i8, i8* %19, i64 8, !dbg !4445
  %41 = tail call i8* @_ZNK14WritablePacket8end_dataEv(%class.WritablePacket* %1), !dbg !4446
  %42 = icmp ugt i8* %40, %41, !dbg !4447
  br i1 %42, label %72, label %43, !dbg !4448

43:                                               ; preds = %39
  %44 = getelementptr inbounds i8, i8* %7, i64 14, !dbg !4449
  %45 = bitcast i8* %44 to i16*, !dbg !4449
  %46 = load i16, i16* %45, align 2, !dbg !4449, !tbaa !4450
  %47 = and i16 %46, -225, !dbg !4449
  %48 = icmp eq i16 %47, 0, !dbg !4449
  br i1 %48, label %49, label %72, !dbg !4451

49:                                               ; preds = %43
  call void @llvm.dbg.value(metadata i8* %19, metadata !4357, metadata !DIExpression()), !dbg !4452
  %50 = getelementptr inbounds i8, i8* %19, i64 2, !dbg !4453
  %51 = bitcast i8* %50 to i16*, !dbg !4453
  %52 = load i16, i16* %51, align 2, !dbg !4453, !tbaa !4454
  call void @llvm.dbg.value(metadata %class.IPFlowID* %3, metadata !4456, metadata !DIExpression()), !dbg !4460
  call void @llvm.dbg.value(metadata i16 %52, metadata !4459, metadata !DIExpression()), !dbg !4460
  store i16 %52, i16* %37, align 4, !dbg !4462, !tbaa !4439
  %53 = bitcast i8* %19 to i16*, !dbg !4463
  %54 = load i16, i16* %53, align 2, !dbg !4463, !tbaa !4464
  call void @llvm.dbg.value(metadata %class.IPFlowID* %3, metadata !4465, metadata !DIExpression()), !dbg !4469
  call void @llvm.dbg.value(metadata i16 %54, metadata !4468, metadata !DIExpression()), !dbg !4469
  store i16 %54, i16* %38, align 2, !dbg !4471, !tbaa !4443
  call void @llvm.dbg.value(metadata i8 1, metadata !4356, metadata !DIExpression()), !dbg !4384
  br label %72, !dbg !4472

55:                                               ; preds = %24
  call void @llvm.dbg.value(metadata i8* %19, metadata !4362, metadata !DIExpression()), !dbg !4473
  %56 = getelementptr inbounds i8, i8* %19, i64 6, !dbg !4474
  %57 = tail call i8* @_ZNK14WritablePacket8end_dataEv(%class.WritablePacket* %1), !dbg !4476
  %58 = icmp ugt i8* %56, %57, !dbg !4477
  br i1 %58, label %72, label %59, !dbg !4478

59:                                               ; preds = %55
  %60 = getelementptr inbounds i8, i8* %7, i64 14, !dbg !4479
  %61 = bitcast i8* %60 to i16*, !dbg !4479
  %62 = load i16, i16* %61, align 2, !dbg !4479, !tbaa !4450
  %63 = and i16 %62, -225, !dbg !4479
  %64 = icmp eq i16 %63, 0, !dbg !4479
  br i1 %64, label %65, label %72, !dbg !4480

65:                                               ; preds = %59
  %66 = load i8, i8* %19, align 2, !dbg !4481, !tbaa !4482
  %67 = icmp eq i8 %66, 8, !dbg !4484
  br i1 %67, label %68, label %72, !dbg !4485

68:                                               ; preds = %65
  %69 = getelementptr inbounds i8, i8* %19, i64 4, !dbg !4486
  %70 = bitcast i8* %69 to i16*, !dbg !4486
  %71 = load i16, i16* %70, align 2, !dbg !4486, !tbaa !4488
  call void @llvm.dbg.value(metadata %class.IPFlowID* %3, metadata !4456, metadata !DIExpression()), !dbg !4489
  call void @llvm.dbg.value(metadata i16 %71, metadata !4459, metadata !DIExpression()), !dbg !4489
  store i16 %71, i16* %37, align 4, !dbg !4491, !tbaa !4439
  call void @llvm.dbg.value(metadata i8 1, metadata !4356, metadata !DIExpression()), !dbg !4384
  br label %72, !dbg !4492

72:                                               ; preds = %59, %65, %68, %55, %24, %39, %43, %49
  %73 = phi i1 [ true, %49 ], [ false, %43 ], [ false, %39 ], [ false, %24 ], [ true, %68 ], [ false, %65 ], [ false, %59 ], [ false, %55 ], !dbg !4384
  call void @llvm.dbg.value(metadata i8 undef, metadata !4356, metadata !DIExpression()), !dbg !4384
  call void @llvm.dbg.value(metadata %class.IPRewriterEntry* null, metadata !4365, metadata !DIExpression()), !dbg !4384
  call void @llvm.dbg.value(metadata i32 0, metadata !4366, metadata !DIExpression()), !dbg !4384
  %74 = getelementptr inbounds %class.ICMPRewriter, %class.ICMPRewriter* %0, i64 0, i32 2, !dbg !4493
  call void @llvm.dbg.value(metadata %class.Vector* %74, metadata !3910, metadata !DIExpression()), !dbg !4496
  %75 = getelementptr inbounds %class.ICMPRewriter, %class.ICMPRewriter* %0, i64 0, i32 2, i32 0, i32 1, !dbg !4498
  %76 = load i32, i32* %75, align 8, !dbg !4498, !tbaa !3918
  %77 = icmp sgt i32 %76, 0, !dbg !4499
  br i1 %77, label %78, label %466, !dbg !4500

78:                                               ; preds = %72, %89
  %79 = phi i32 [ %90, %89 ], [ 0, %72 ]
  call void @llvm.dbg.value(metadata i32 %79, metadata !4366, metadata !DIExpression()), !dbg !4384
  %80 = call dereferenceable(16) %"struct.ICMPRewriter::MapEntry"* @_ZN6VectorIN12ICMPRewriter8MapEntryEEixEi(%class.Vector* nonnull %74, i32 %79), !dbg !4501
  %81 = getelementptr inbounds %"struct.ICMPRewriter::MapEntry", %"struct.ICMPRewriter::MapEntry"* %80, i64 0, i32 0, !dbg !4503
  %82 = load %class.IPRewriterBase*, %class.IPRewriterBase** %81, align 8, !dbg !4503, !tbaa !4144
  %83 = bitcast %class.IPRewriterBase* %82 to %class.IPRewriterEntry* (%class.IPRewriterBase*, i32, %class.IPFlowID*, i32)***, !dbg !4504
  %84 = load %class.IPRewriterEntry* (%class.IPRewriterBase*, i32, %class.IPFlowID*, i32)**, %class.IPRewriterEntry* (%class.IPRewriterBase*, i32, %class.IPFlowID*, i32)*** %83, align 8, !dbg !4504, !tbaa !3553
  %85 = getelementptr inbounds %class.IPRewriterEntry* (%class.IPRewriterBase*, i32, %class.IPFlowID*, i32)*, %class.IPRewriterEntry* (%class.IPRewriterBase*, i32, %class.IPFlowID*, i32)** %84, i64 28, !dbg !4504
  %86 = load %class.IPRewriterEntry* (%class.IPRewriterBase*, i32, %class.IPFlowID*, i32)*, %class.IPRewriterEntry* (%class.IPRewriterBase*, i32, %class.IPFlowID*, i32)** %85, align 8, !dbg !4504
  %87 = call %class.IPRewriterEntry* %86(%class.IPRewriterBase* %82, i32 %27, %class.IPFlowID* nonnull dereferenceable(12) %3, i32 -2), !dbg !4504
  call void @llvm.dbg.value(metadata %class.IPRewriterEntry* %87, metadata !4365, metadata !DIExpression()), !dbg !4384
  %88 = icmp eq %class.IPRewriterEntry* %87, null, !dbg !4505
  br i1 %88, label %89, label %93, !dbg !4506

89:                                               ; preds = %78
  %90 = add nuw nsw i32 %79, 1, !dbg !4507
  call void @llvm.dbg.value(metadata %class.IPRewriterEntry* null, metadata !4365, metadata !DIExpression()), !dbg !4384
  call void @llvm.dbg.value(metadata i32 %90, metadata !4366, metadata !DIExpression()), !dbg !4384
  call void @llvm.dbg.value(metadata %class.Vector* %74, metadata !3910, metadata !DIExpression()), !dbg !4496
  %91 = load i32, i32* %75, align 8, !dbg !4498, !tbaa !3918
  %92 = icmp slt i32 %90, %91, !dbg !4499
  br i1 %92, label %78, label %466, !dbg !4500, !llvm.loop !4508

93:                                               ; preds = %78
  call void @llvm.dbg.value(metadata i32 %79, metadata !4366, metadata !DIExpression()), !dbg !4384
  call void @llvm.dbg.value(metadata i32 %79, metadata !4366, metadata !DIExpression()), !dbg !4384
  call void @llvm.dbg.value(metadata i32 %79, metadata !4366, metadata !DIExpression()), !dbg !4384
  call void @llvm.dbg.value(metadata i32 %79, metadata !4366, metadata !DIExpression()), !dbg !4384
  call void @llvm.dbg.value(metadata i32 %79, metadata !4366, metadata !DIExpression()), !dbg !4384
  call void @llvm.dbg.value(metadata i32 %79, metadata !4366, metadata !DIExpression()), !dbg !4384
  call void @llvm.dbg.value(metadata %class.IPRewriterEntry* %87, metadata !4365, metadata !DIExpression()), !dbg !4384
  call void @llvm.dbg.value(metadata %class.IPRewriterEntry* %87, metadata !4510, metadata !DIExpression()), !dbg !4513
  %94 = getelementptr inbounds %class.IPRewriterEntry, %class.IPRewriterEntry* %87, i64 0, i32 2, !dbg !4515
  %95 = load i8, i8* %94, align 1, !dbg !4515, !tbaa !4516
  %96 = icmp eq i8 %95, 0, !dbg !4515
  %97 = select i1 %96, i64 1, i64 -1, !dbg !4518
  call void @llvm.dbg.value(metadata %class.IPFlowID* undef, metadata !4519, metadata !DIExpression()), !dbg !4523
  %98 = getelementptr inbounds %class.IPRewriterEntry, %class.IPRewriterEntry* %87, i64 %97, i32 0, i32 1, i32 0, !dbg !4525
  %99 = load i32, i32* %98, align 4, !dbg !4525, !tbaa.struct !4424
  %100 = getelementptr inbounds %class.IPRewriterEntry, %class.IPRewriterEntry* %87, i64 %97, i32 0, i32 3, !dbg !4526
  %101 = load i16, i16* %100, align 2, !dbg !4526, !tbaa !4443
  %102 = getelementptr inbounds %class.IPRewriterEntry, %class.IPRewriterEntry* %87, i64 %97, i32 0, i32 0, i32 0, !dbg !4527
  %103 = load i32, i32* %102, align 4, !dbg !4527, !tbaa.struct !4424
  %104 = getelementptr inbounds %class.IPRewriterEntry, %class.IPRewriterEntry* %87, i64 %97, i32 0, i32 2, !dbg !4528
  %105 = load i16, i16* %104, align 4, !dbg !4528, !tbaa !4439
  %106 = zext i16 %105 to i32, !dbg !4529
  call void @llvm.dbg.value(metadata i32 %99, metadata !4367, metadata !DIExpression(DW_OP_LLVM_fragment, 0, 32)), !dbg !4384
  call void @llvm.dbg.value(metadata i32 %103, metadata !4367, metadata !DIExpression(DW_OP_LLVM_fragment, 32, 32)), !dbg !4384
  call void @llvm.dbg.value(metadata i32 undef, metadata !4367, metadata !DIExpression(DW_OP_LLVM_fragment, 64, 32)), !dbg !4384
  %107 = bitcast [8 x i16]* %4 to i8*, !dbg !4530
  call void @llvm.lifetime.start.p0i8(i64 16, i8* nonnull %107) #12, !dbg !4530
  call void @llvm.dbg.declare(metadata [8 x i16]* %4, metadata !4369, metadata !DIExpression()), !dbg !4531
  %108 = bitcast [8 x i16]* %5 to i8*, !dbg !4530
  call void @llvm.lifetime.start.p0i8(i64 16, i8* nonnull %108) #12, !dbg !4530
  call void @llvm.dbg.declare(metadata [8 x i16]* %5, metadata !4371, metadata !DIExpression()), !dbg !4532
  %109 = call %struct.click_ip* @_ZNK14WritablePacket9ip_headerEv(%class.WritablePacket* %1), !dbg !4533
  %110 = getelementptr inbounds %struct.click_ip, %struct.click_ip* %109, i64 0, i32 9, i32 0, !dbg !4534
  %111 = load i32, i32* %110, align 4, !dbg !4534, !tbaa.struct !4424
  call void @llvm.dbg.value(metadata %class.IPFlowID* %3, metadata !4535, metadata !DIExpression()), !dbg !4538
  %112 = load i32, i32* %36, align 4, !dbg !4540, !tbaa.struct !4424
  call void @llvm.dbg.value(metadata i32 %111, metadata !4541, metadata !DIExpression()), !dbg !4547
  call void @llvm.dbg.value(metadata i32 %112, metadata !4546, metadata !DIExpression()), !dbg !4547
  %113 = icmp eq i32 %111, %112, !dbg !4549
  br i1 %113, label %114, label %152, !dbg !4550

114:                                              ; preds = %93
  %115 = call %struct.click_ip* @_ZNK14WritablePacket9ip_headerEv(%class.WritablePacket* %1), !dbg !4551
  call void @llvm.dbg.value(metadata %struct.click_ip* %115, metadata !4372, metadata !DIExpression()), !dbg !4552
  %116 = getelementptr inbounds %struct.click_ip, %struct.click_ip* %115, i64 0, i32 9, i32 0, !dbg !4553
  %117 = bitcast [8 x i16]* %4 to i32*, !dbg !4553
  %118 = load i32, i32* %116, align 4, !dbg !4553
  store i32 %118, i32* %117, align 16, !dbg !4553
  call void @llvm.dbg.value(metadata %class.IPFlowID* undef, metadata !4535, metadata !DIExpression()), !dbg !4554
  %119 = getelementptr inbounds %struct.click_ip, %struct.click_ip* %115, i64 0, i32 9, i32 0, !dbg !4556
  store i32 %103, i32* %119, align 4, !dbg !4556, !tbaa.struct !4424
  %120 = getelementptr inbounds %struct.click_ip, %struct.click_ip* %115, i64 0, i32 7, !dbg !4557
  call void @llvm.dbg.value(metadata i16* %120, metadata !4558, metadata !DIExpression()), !dbg !4566
  call void @llvm.dbg.value(metadata [8 x i16]* %4, metadata !4563, metadata !DIExpression()), !dbg !4566
  call void @llvm.dbg.value(metadata %struct.click_ip* %115, metadata !4564, metadata !DIExpression(DW_OP_plus_uconst, 16, DW_OP_stack_value)), !dbg !4566
  call void @llvm.dbg.value(metadata i32 2, metadata !4565, metadata !DIExpression()), !dbg !4566
  %121 = load i16, i16* %120, align 2, !dbg !4568, !tbaa !4580
  call void @llvm.dbg.value(metadata i16* %120, metadata !4573, metadata !DIExpression()), !dbg !4581
  call void @llvm.dbg.value(metadata i32 %118, metadata !4574, metadata !DIExpression(DW_OP_LLVM_convert, 32, DW_ATE_unsigned, DW_OP_LLVM_convert, 16, DW_ATE_unsigned, DW_OP_stack_value)), !dbg !4581
  call void @llvm.dbg.value(metadata i32 %103, metadata !4575, metadata !DIExpression(DW_OP_LLVM_convert, 32, DW_ATE_unsigned, DW_OP_LLVM_convert, 16, DW_ATE_unsigned, DW_OP_stack_value)), !dbg !4581
  %122 = xor i16 %121, -1, !dbg !4582
  %123 = zext i16 %122 to i32, !dbg !4582
  %124 = and i32 %118, 65535, !dbg !4583
  %125 = xor i32 %124, 65535, !dbg !4583
  %126 = and i32 %103, 65535, !dbg !4584
  %127 = add nuw nsw i32 %125, %123, !dbg !4585
  %128 = add nuw nsw i32 %127, %126, !dbg !4586
  call void @llvm.dbg.value(metadata i32 %128, metadata !4576, metadata !DIExpression()), !dbg !4581
  %129 = and i32 %128, 65535, !dbg !4587
  %130 = lshr i32 %128, 16, !dbg !4588
  %131 = add nuw nsw i32 %129, %130, !dbg !4589
  call void @llvm.dbg.value(metadata i32 %131, metadata !4576, metadata !DIExpression()), !dbg !4581
  %132 = lshr i32 %131, 16, !dbg !4590
  %133 = add nuw nsw i32 %132, %131, !dbg !4591
  call void @llvm.dbg.value(metadata i32 1, metadata !4565, metadata !DIExpression()), !dbg !4566
  %134 = lshr i32 %118, 16, !dbg !4592
  %135 = lshr i32 %103, 16, !dbg !4593
  call void @llvm.dbg.value(metadata i32 %134, metadata !4574, metadata !DIExpression(DW_OP_LLVM_convert, 32, DW_ATE_unsigned, DW_OP_LLVM_convert, 16, DW_ATE_unsigned, DW_OP_stack_value)), !dbg !4581
  call void @llvm.dbg.value(metadata i32 %135, metadata !4575, metadata !DIExpression(DW_OP_LLVM_convert, 32, DW_ATE_unsigned, DW_OP_LLVM_convert, 16, DW_ATE_unsigned, DW_OP_stack_value)), !dbg !4581
  %136 = and i32 %133, 65535, !dbg !4582
  %137 = xor i32 %134, 65535, !dbg !4583
  %138 = add nuw nsw i32 %137, %136, !dbg !4585
  %139 = add nuw nsw i32 %138, %135, !dbg !4586
  call void @llvm.dbg.value(metadata i32 %139, metadata !4576, metadata !DIExpression()), !dbg !4581
  %140 = and i32 %139, 65535, !dbg !4587
  %141 = lshr i32 %139, 16, !dbg !4588
  %142 = add nuw nsw i32 %140, %141, !dbg !4589
  call void @llvm.dbg.value(metadata i32 %142, metadata !4576, metadata !DIExpression()), !dbg !4581
  %143 = lshr i32 %142, 16, !dbg !4590
  %144 = add nuw nsw i32 %143, %142, !dbg !4591
  %145 = trunc i32 %144 to i16, !dbg !4594
  %146 = xor i16 %145, -1, !dbg !4594
  store i16 %146, i16* %120, align 2, !dbg !4595, !tbaa !4580
  call void @llvm.dbg.value(metadata i32 0, metadata !4565, metadata !DIExpression()), !dbg !4566
  %147 = getelementptr inbounds %class.ICMPRewriter, %class.ICMPRewriter* %0, i64 0, i32 3, !dbg !4596
  %148 = load i32, i32* %147, align 8, !dbg !4596, !tbaa !3778
  %149 = and i32 %148, 1, !dbg !4598
  %150 = icmp eq i32 %149, 0, !dbg !4596
  br i1 %150, label %152, label %151, !dbg !4599

151:                                              ; preds = %114
  call void @llvm.dbg.value(metadata %class.IPFlowID* undef, metadata !4535, metadata !DIExpression()), !dbg !4600
  call void @_ZN6Packet15set_dst_ip_annoE9IPAddress(%class.Packet* %6, i32 %103), !dbg !4602
  br label %152, !dbg !4603

152:                                              ; preds = %151, %114, %93
  call void @llvm.dbg.value(metadata %class.IPRewriterEntry* %87, metadata !4604, metadata !DIExpression()), !dbg !4607
  %153 = load i8, i8* %94, align 1, !dbg !4610, !tbaa !4516
  %154 = icmp eq i8 %153, 0, !dbg !4610
  br i1 %154, label %174, label %155, !dbg !4611

155:                                              ; preds = %152
  %156 = getelementptr inbounds %class.ICMPRewriter, %class.ICMPRewriter* %0, i64 0, i32 3, !dbg !4612
  %157 = load i32, i32* %156, align 8, !dbg !4612, !tbaa !3778
  %158 = and i32 %157, 2, !dbg !4613
  %159 = icmp eq i32 %158, 0, !dbg !4614
  br i1 %159, label %174, label %160, !dbg !4615

160:                                              ; preds = %155
  call void @llvm.dbg.value(metadata %class.IPRewriterEntry* %87, metadata !4616, metadata !DIExpression()), !dbg !4619
  call void @llvm.dbg.value(metadata %class.IPRewriterEntry* undef, metadata !4621, metadata !DIExpression()), !dbg !4624
  call void @llvm.dbg.value(metadata %class.Packet* %6, metadata !4626, metadata !DIExpression()), !dbg !4631
  call void @llvm.dbg.value(metadata i32 %157, metadata !4629, metadata !DIExpression(DW_OP_constu, 2, DW_OP_shr, DW_OP_stack_value)), !dbg !4631
  call void @llvm.dbg.value(metadata i8 undef, metadata !4630, metadata !DIExpression()), !dbg !4631
  %161 = icmp ult i32 %157, 192, !dbg !4633
  br i1 %161, label %163, label %162, !dbg !4633

162:                                              ; preds = %160
  call void @__assert_fail(i8* getelementptr inbounds ([24 x i8], [24 x i8]* @.str.11, i64 0, i64 0), i8* getelementptr inbounds ([29 x i8], [29 x i8]* @.str.12, i64 0, i64 0), i32 470, i8* getelementptr inbounds ([39 x i8], [39 x i8]* @__PRETTY_FUNCTION__._ZN6Packet11set_anno_u8Eih, i64 0, i64 0)) #14, !dbg !4633
  unreachable, !dbg !4633

163:                                              ; preds = %160
  %164 = lshr i32 %157, 2, !dbg !4634
  call void @llvm.dbg.value(metadata i32 %164, metadata !4629, metadata !DIExpression()), !dbg !4631
  %165 = zext i8 %153 to i64, !dbg !4635
  %166 = sub nsw i64 0, %165, !dbg !4635
  %167 = getelementptr inbounds %class.IPRewriterEntry, %class.IPRewriterEntry* %87, i64 %166, !dbg !4635
  call void @llvm.dbg.value(metadata %class.IPRewriterEntry* %167, metadata !4621, metadata !DIExpression()), !dbg !4624
  %168 = getelementptr inbounds %class.IPRewriterEntry, %class.IPRewriterEntry* %167, i64 2, i32 2, !dbg !4636
  %169 = load i8, i8* %168, align 1, !dbg !4636, !tbaa !4637
  call void @llvm.dbg.value(metadata i8 %169, metadata !4630, metadata !DIExpression()), !dbg !4631
  %170 = call %"union.Packet::Anno"* @_ZN6Packet5xannoEv(%class.Packet* %6), !dbg !4640
  %171 = bitcast %"union.Packet::Anno"* %170 to [48 x i8]*, !dbg !4641
  %172 = zext i32 %164 to i64, !dbg !4640
  %173 = getelementptr inbounds [48 x i8], [48 x i8]* %171, i64 0, i64 %172, !dbg !4640
  store i8 %169, i8* %173, align 1, !dbg !4642, !tbaa !4643
  br label %174, !dbg !4644

174:                                              ; preds = %152, %155, %163
  %175 = getelementptr inbounds [8 x i16], [8 x i16]* %4, i64 0, i64 1, !dbg !4645
  %176 = bitcast i8* %32 to i64*, !dbg !4646
  %177 = bitcast i16* %175 to i64*, !dbg !4646
  %178 = load i64, i64* %176, align 4, !dbg !4646
  store i64 %178, i64* %177, align 2, !dbg !4646
  %179 = getelementptr inbounds i8, i8* %7, i64 18, !dbg !4647
  %180 = bitcast i8* %179 to i16*, !dbg !4647
  %181 = load i16, i16* %180, align 2, !dbg !4647, !tbaa !4648
  %182 = getelementptr inbounds [8 x i16], [8 x i16]* %4, i64 0, i64 0, !dbg !4649
  store i16 %181, i16* %182, align 16, !dbg !4650, !tbaa !4580
  call void @llvm.dbg.value(metadata %class.IPFlowID* undef, metadata !4535, metadata !DIExpression()), !dbg !4651
  store i32 %103, i32* %33, align 4, !dbg !4653, !tbaa.struct !4424
  store i32 %99, i32* %30, align 4, !dbg !4654, !tbaa.struct !4424
  %183 = getelementptr inbounds [8 x i16], [8 x i16]* %5, i64 0, i64 1, !dbg !4655
  %184 = bitcast i16* %183 to i64*, !dbg !4656
  %185 = load i64, i64* %176, align 4, !dbg !4656
  store i64 %185, i64* %184, align 2, !dbg !4656
  call void @llvm.dbg.value(metadata i16* %180, metadata !4558, metadata !DIExpression()), !dbg !4657
  call void @llvm.dbg.value(metadata i32 4, metadata !4565, metadata !DIExpression()), !dbg !4657
  call void @llvm.dbg.value(metadata i16* %183, metadata !4564, metadata !DIExpression()), !dbg !4657
  call void @llvm.dbg.value(metadata i16* %175, metadata !4563, metadata !DIExpression()), !dbg !4657
  %186 = trunc i64 %178 to i32, !dbg !4659
  %187 = trunc i64 %185 to i32, !dbg !4660
  call void @llvm.dbg.value(metadata i16* %180, metadata !4573, metadata !DIExpression()), !dbg !4661
  call void @llvm.dbg.value(metadata i64 %178, metadata !4574, metadata !DIExpression(DW_OP_LLVM_convert, 64, DW_ATE_unsigned, DW_OP_LLVM_convert, 16, DW_ATE_unsigned, DW_OP_stack_value)), !dbg !4661
  call void @llvm.dbg.value(metadata i64 %185, metadata !4575, metadata !DIExpression(DW_OP_LLVM_convert, 64, DW_ATE_unsigned, DW_OP_LLVM_convert, 16, DW_ATE_unsigned, DW_OP_stack_value)), !dbg !4661
  %188 = xor i16 %181, -1, !dbg !4663
  %189 = zext i16 %188 to i32, !dbg !4663
  %190 = and i32 %186, 65535, !dbg !4664
  %191 = xor i32 %190, 65535, !dbg !4664
  %192 = and i32 %187, 65535, !dbg !4665
  %193 = add nuw nsw i32 %191, %189, !dbg !4666
  %194 = add nuw nsw i32 %193, %192, !dbg !4667
  call void @llvm.dbg.value(metadata i32 %194, metadata !4576, metadata !DIExpression()), !dbg !4661
  %195 = and i32 %194, 65535, !dbg !4668
  %196 = lshr i32 %194, 16, !dbg !4669
  %197 = add nuw nsw i32 %195, %196, !dbg !4670
  call void @llvm.dbg.value(metadata i32 %197, metadata !4576, metadata !DIExpression()), !dbg !4661
  %198 = lshr i32 %197, 16, !dbg !4671
  %199 = add nuw nsw i32 %198, %197, !dbg !4672
  call void @llvm.dbg.value(metadata i32 3, metadata !4565, metadata !DIExpression()), !dbg !4657
  call void @llvm.dbg.value(metadata [8 x i16]* %4, metadata !4563, metadata !DIExpression(DW_OP_plus_uconst, 4, DW_OP_stack_value)), !dbg !4657
  call void @llvm.dbg.value(metadata i16* %183, metadata !4564, metadata !DIExpression(DW_OP_plus_uconst, 2, DW_OP_stack_value)), !dbg !4657
  %200 = lshr i64 %178, 16, !dbg !4659
  %201 = trunc i64 %200 to i32, !dbg !4659
  %202 = lshr i64 %185, 16, !dbg !4660
  %203 = trunc i64 %202 to i32, !dbg !4660
  call void @llvm.dbg.value(metadata i64 %200, metadata !4574, metadata !DIExpression(DW_OP_LLVM_convert, 64, DW_ATE_unsigned, DW_OP_LLVM_convert, 16, DW_ATE_unsigned, DW_OP_stack_value)), !dbg !4661
  call void @llvm.dbg.value(metadata i64 %202, metadata !4575, metadata !DIExpression(DW_OP_LLVM_convert, 64, DW_ATE_unsigned, DW_OP_LLVM_convert, 16, DW_ATE_unsigned, DW_OP_stack_value)), !dbg !4661
  %204 = and i32 %199, 65535, !dbg !4663
  %205 = and i32 %201, 65535, !dbg !4664
  %206 = xor i32 %205, 65535, !dbg !4664
  %207 = and i32 %203, 65535, !dbg !4665
  %208 = add nuw nsw i32 %206, %204, !dbg !4666
  %209 = add nuw nsw i32 %208, %207, !dbg !4667
  call void @llvm.dbg.value(metadata i32 %209, metadata !4576, metadata !DIExpression()), !dbg !4661
  %210 = and i32 %209, 65535, !dbg !4668
  %211 = lshr i32 %209, 16, !dbg !4669
  %212 = add nuw nsw i32 %210, %211, !dbg !4670
  call void @llvm.dbg.value(metadata i32 %212, metadata !4576, metadata !DIExpression()), !dbg !4661
  %213 = lshr i32 %212, 16, !dbg !4671
  %214 = add nuw nsw i32 %213, %212, !dbg !4672
  call void @llvm.dbg.value(metadata i32 2, metadata !4565, metadata !DIExpression()), !dbg !4657
  call void @llvm.dbg.value(metadata [8 x i16]* %4, metadata !4563, metadata !DIExpression(DW_OP_plus_uconst, 6, DW_OP_stack_value)), !dbg !4657
  %215 = lshr i64 %178, 32, !dbg !4659
  %216 = trunc i64 %215 to i32, !dbg !4659
  %217 = lshr i64 %185, 32, !dbg !4660
  %218 = trunc i64 %217 to i32, !dbg !4660
  call void @llvm.dbg.value(metadata i64 %215, metadata !4574, metadata !DIExpression(DW_OP_LLVM_convert, 64, DW_ATE_unsigned, DW_OP_LLVM_convert, 16, DW_ATE_unsigned, DW_OP_stack_value)), !dbg !4661
  call void @llvm.dbg.value(metadata i64 %217, metadata !4575, metadata !DIExpression(DW_OP_LLVM_convert, 64, DW_ATE_unsigned, DW_OP_LLVM_convert, 16, DW_ATE_unsigned, DW_OP_stack_value)), !dbg !4661
  %219 = and i32 %214, 65535, !dbg !4663
  %220 = and i32 %216, 65535, !dbg !4664
  %221 = xor i32 %220, 65535, !dbg !4664
  %222 = and i32 %218, 65535, !dbg !4665
  %223 = add nuw nsw i32 %221, %219, !dbg !4666
  %224 = add nuw nsw i32 %223, %222, !dbg !4667
  call void @llvm.dbg.value(metadata i32 %224, metadata !4576, metadata !DIExpression()), !dbg !4661
  %225 = and i32 %224, 65535, !dbg !4668
  %226 = lshr i32 %224, 16, !dbg !4669
  %227 = add nuw nsw i32 %225, %226, !dbg !4670
  call void @llvm.dbg.value(metadata i32 %227, metadata !4576, metadata !DIExpression()), !dbg !4661
  %228 = lshr i32 %227, 16, !dbg !4671
  %229 = add nuw nsw i32 %228, %227, !dbg !4672
  call void @llvm.dbg.value(metadata i32 1, metadata !4565, metadata !DIExpression()), !dbg !4657
  %230 = getelementptr inbounds [8 x i16], [8 x i16]* %4, i64 0, i64 4, !dbg !4673
  call void @llvm.dbg.value(metadata i16* %230, metadata !4563, metadata !DIExpression()), !dbg !4657
  %231 = lshr i64 %178, 48, !dbg !4659
  %232 = trunc i64 %231 to i32, !dbg !4659
  %233 = lshr i64 %185, 48, !dbg !4660
  %234 = trunc i64 %233 to i32, !dbg !4660
  call void @llvm.dbg.value(metadata i64 %231, metadata !4574, metadata !DIExpression(DW_OP_LLVM_convert, 64, DW_ATE_unsigned, DW_OP_LLVM_convert, 16, DW_ATE_unsigned, DW_OP_stack_value)), !dbg !4661
  call void @llvm.dbg.value(metadata i64 %233, metadata !4575, metadata !DIExpression(DW_OP_LLVM_convert, 64, DW_ATE_unsigned, DW_OP_LLVM_convert, 16, DW_ATE_unsigned, DW_OP_stack_value)), !dbg !4661
  %235 = and i32 %229, 65535, !dbg !4663
  %236 = xor i32 %232, 65535, !dbg !4664
  %237 = add nuw nsw i32 %236, %235, !dbg !4666
  %238 = add nuw nsw i32 %237, %234, !dbg !4667
  call void @llvm.dbg.value(metadata i32 %238, metadata !4576, metadata !DIExpression()), !dbg !4661
  %239 = and i32 %238, 65535, !dbg !4668
  %240 = lshr i32 %238, 16, !dbg !4669
  %241 = add nuw nsw i32 %239, %240, !dbg !4670
  call void @llvm.dbg.value(metadata i32 %241, metadata !4576, metadata !DIExpression()), !dbg !4661
  %242 = lshr i32 %241, 16, !dbg !4671
  %243 = add nuw nsw i32 %242, %241, !dbg !4672
  %244 = trunc i32 %243 to i16, !dbg !4674
  %245 = xor i16 %244, -1, !dbg !4674
  store i16 %245, i16* %180, align 2, !dbg !4675, !tbaa !4580
  call void @llvm.dbg.value(metadata i32 0, metadata !4565, metadata !DIExpression()), !dbg !4657
  %246 = getelementptr inbounds [8 x i16], [8 x i16]* %5, i64 0, i64 0, !dbg !4676
  store i16 %245, i16* %246, align 16, !dbg !4677, !tbaa !4580
  call void @llvm.dbg.value(metadata i32 5, metadata !4368, metadata !DIExpression()), !dbg !4384
  br i1 %73, label %247, label %378, !dbg !4678

247:                                              ; preds = %174
  switch i8 %26, label %378 [
    i8 33, label %248
    i8 17, label %248
    i8 6, label %248
    i8 1, label %343
  ], !dbg !4679

248:                                              ; preds = %247, %247, %247
  call void @llvm.dbg.value(metadata i8* %19, metadata !4375, metadata !DIExpression()), !dbg !4680
  %249 = getelementptr inbounds [8 x i16], [8 x i16]* %4, i64 0, i64 5, !dbg !4681
  %250 = bitcast i8* %19 to i16*, !dbg !4682
  %251 = bitcast i8* %19 to i32*, !dbg !4683
  %252 = bitcast i16* %249 to i32*, !dbg !4683
  %253 = load i32, i32* %251, align 2, !dbg !4683
  store i32 %253, i32* %252, align 2, !dbg !4683
  store i16 %105, i16* %250, align 2, !dbg !4684, !tbaa !4464
  %254 = getelementptr inbounds i8, i8* %19, i64 2, !dbg !4685
  %255 = bitcast i8* %254 to i16*, !dbg !4685
  store i16 %101, i16* %255, align 2, !dbg !4686, !tbaa !4454
  %256 = getelementptr inbounds [8 x i16], [8 x i16]* %5, i64 0, i64 5, !dbg !4687
  %257 = bitcast i16* %256 to i32*, !dbg !4688
  %258 = load i32, i32* %251, align 2, !dbg !4688
  store i32 %258, i32* %257, align 2, !dbg !4688
  call void @llvm.dbg.value(metadata i32 7, metadata !4368, metadata !DIExpression()), !dbg !4384
  call void @llvm.dbg.value(metadata i16* null, metadata !4380, metadata !DIExpression()), !dbg !4680
  %259 = lshr i32 %258, 16, !dbg !4689
  switch i8 %26, label %378 [
    i8 6, label %260
    i8 17, label %268
  ], !dbg !4689

260:                                              ; preds = %248
  %261 = getelementptr inbounds i8, i8* %19, i64 18, !dbg !4691
  %262 = call i8* @_ZNK14WritablePacket8end_dataEv(%class.WritablePacket* %1), !dbg !4692
  %263 = icmp ugt i8* %261, %262, !dbg !4693
  br i1 %263, label %378, label %264, !dbg !4694

264:                                              ; preds = %260
  %265 = getelementptr inbounds i8, i8* %19, i64 16, !dbg !4695
  %266 = bitcast i8* %265 to i16*, !dbg !4695
  call void @llvm.dbg.value(metadata i16* %266, metadata !4380, metadata !DIExpression()), !dbg !4680
  %267 = load i16, i16* %266, align 2, !dbg !4696, !tbaa !4580
  br label %277, !dbg !4699

268:                                              ; preds = %248
  %269 = getelementptr inbounds i8, i8* %19, i64 8, !dbg !4700
  %270 = call i8* @_ZNK14WritablePacket8end_dataEv(%class.WritablePacket* %1), !dbg !4702
  %271 = icmp ugt i8* %269, %270, !dbg !4703
  br i1 %271, label %378, label %272, !dbg !4704

272:                                              ; preds = %268
  %273 = getelementptr inbounds i8, i8* %19, i64 6, !dbg !4705
  %274 = bitcast i8* %273 to i16*, !dbg !4705
  %275 = load i16, i16* %274, align 2, !dbg !4705, !tbaa !4706
  %276 = icmp eq i16 %275, 0, !dbg !4707
  br i1 %276, label %378, label %277

277:                                              ; preds = %264, %272
  %278 = phi i16 [ %267, %264 ], [ %275, %272 ], !dbg !4696
  %279 = phi i16* [ %266, %264 ], [ %274, %272 ], !dbg !4680
  call void @llvm.dbg.value(metadata i16* %279, metadata !4380, metadata !DIExpression()), !dbg !4680
  %280 = getelementptr inbounds [8 x i16], [8 x i16]* %4, i64 0, i64 7, !dbg !4708
  store i16 %278, i16* %280, align 2, !dbg !4709, !tbaa !4580
  call void @llvm.dbg.value(metadata i16* %279, metadata !4558, metadata !DIExpression()), !dbg !4710
  call void @llvm.dbg.value(metadata i32 6, metadata !4565, metadata !DIExpression()), !dbg !4710
  call void @llvm.dbg.value(metadata i16* %183, metadata !4564, metadata !DIExpression()), !dbg !4710
  call void @llvm.dbg.value(metadata i16* %175, metadata !4563, metadata !DIExpression()), !dbg !4710
  call void @llvm.dbg.value(metadata i16* %279, metadata !4573, metadata !DIExpression()), !dbg !4712
  call void @llvm.dbg.value(metadata i64 %178, metadata !4574, metadata !DIExpression(DW_OP_LLVM_convert, 64, DW_ATE_unsigned, DW_OP_LLVM_convert, 16, DW_ATE_unsigned, DW_OP_stack_value)), !dbg !4712
  call void @llvm.dbg.value(metadata i32 %187, metadata !4575, metadata !DIExpression()), !dbg !4712
  %281 = xor i16 %278, -1, !dbg !4714
  %282 = zext i16 %281 to i32, !dbg !4714
  %283 = add nuw nsw i32 %191, %282, !dbg !4715
  %284 = add nuw nsw i32 %283, %192, !dbg !4716
  call void @llvm.dbg.value(metadata i32 %284, metadata !4576, metadata !DIExpression()), !dbg !4712
  %285 = and i32 %284, 65535, !dbg !4717
  %286 = lshr i32 %284, 16, !dbg !4718
  %287 = add nuw nsw i32 %285, %286, !dbg !4719
  call void @llvm.dbg.value(metadata i32 %287, metadata !4576, metadata !DIExpression()), !dbg !4712
  %288 = lshr i32 %287, 16, !dbg !4720
  %289 = add nuw nsw i32 %288, %287, !dbg !4721
  call void @llvm.dbg.value(metadata i32 5, metadata !4565, metadata !DIExpression()), !dbg !4710
  call void @llvm.dbg.value(metadata [8 x i16]* %4, metadata !4563, metadata !DIExpression(DW_OP_plus_uconst, 4, DW_OP_stack_value)), !dbg !4710
  call void @llvm.dbg.value(metadata i16* %183, metadata !4564, metadata !DIExpression(DW_OP_plus_uconst, 2, DW_OP_stack_value)), !dbg !4710
  call void @llvm.dbg.value(metadata i64 %200, metadata !4574, metadata !DIExpression(DW_OP_LLVM_convert, 64, DW_ATE_unsigned, DW_OP_LLVM_convert, 16, DW_ATE_unsigned, DW_OP_stack_value)), !dbg !4712
  call void @llvm.dbg.value(metadata i32 %203, metadata !4575, metadata !DIExpression()), !dbg !4712
  %290 = and i32 %289, 65535, !dbg !4714
  %291 = add nuw nsw i32 %206, %290, !dbg !4715
  %292 = add nuw nsw i32 %291, %207, !dbg !4716
  call void @llvm.dbg.value(metadata i32 %292, metadata !4576, metadata !DIExpression()), !dbg !4712
  %293 = and i32 %292, 65535, !dbg !4717
  %294 = lshr i32 %292, 16, !dbg !4718
  %295 = add nuw nsw i32 %293, %294, !dbg !4719
  call void @llvm.dbg.value(metadata i32 %295, metadata !4576, metadata !DIExpression()), !dbg !4712
  %296 = lshr i32 %295, 16, !dbg !4720
  %297 = add nuw nsw i32 %296, %295, !dbg !4721
  call void @llvm.dbg.value(metadata i32 4, metadata !4565, metadata !DIExpression()), !dbg !4710
  call void @llvm.dbg.value(metadata [8 x i16]* %4, metadata !4563, metadata !DIExpression(DW_OP_plus_uconst, 6, DW_OP_stack_value)), !dbg !4710
  call void @llvm.dbg.value(metadata i64 %215, metadata !4574, metadata !DIExpression(DW_OP_LLVM_convert, 64, DW_ATE_unsigned, DW_OP_LLVM_convert, 16, DW_ATE_unsigned, DW_OP_stack_value)), !dbg !4712
  call void @llvm.dbg.value(metadata i32 %218, metadata !4575, metadata !DIExpression()), !dbg !4712
  %298 = and i32 %297, 65535, !dbg !4714
  %299 = add nuw nsw i32 %221, %298, !dbg !4715
  %300 = add nuw nsw i32 %299, %222, !dbg !4716
  call void @llvm.dbg.value(metadata i32 %300, metadata !4576, metadata !DIExpression()), !dbg !4712
  %301 = and i32 %300, 65535, !dbg !4717
  %302 = lshr i32 %300, 16, !dbg !4718
  %303 = add nuw nsw i32 %301, %302, !dbg !4719
  call void @llvm.dbg.value(metadata i32 %303, metadata !4576, metadata !DIExpression()), !dbg !4712
  %304 = lshr i32 %303, 16, !dbg !4720
  %305 = add nuw nsw i32 %304, %303, !dbg !4721
  call void @llvm.dbg.value(metadata i32 3, metadata !4565, metadata !DIExpression()), !dbg !4710
  call void @llvm.dbg.value(metadata i16* %230, metadata !4563, metadata !DIExpression()), !dbg !4710
  %306 = load i16, i16* %230, align 8, !dbg !4722, !tbaa !4580
  call void @llvm.dbg.value(metadata i16 %306, metadata !4574, metadata !DIExpression()), !dbg !4712
  call void @llvm.dbg.value(metadata i32 %234, metadata !4575, metadata !DIExpression()), !dbg !4712
  %307 = and i32 %305, 65535, !dbg !4714
  %308 = xor i16 %306, -1, !dbg !4723
  %309 = zext i16 %308 to i32, !dbg !4723
  %310 = add nuw nsw i32 %307, %309, !dbg !4715
  %311 = add nuw nsw i32 %310, %234, !dbg !4716
  call void @llvm.dbg.value(metadata i32 %311, metadata !4576, metadata !DIExpression()), !dbg !4712
  %312 = and i32 %311, 65535, !dbg !4717
  %313 = lshr i32 %311, 16, !dbg !4718
  %314 = add nuw nsw i32 %312, %313, !dbg !4719
  call void @llvm.dbg.value(metadata i32 %314, metadata !4576, metadata !DIExpression()), !dbg !4712
  %315 = lshr i32 %314, 16, !dbg !4720
  %316 = add nuw nsw i32 %315, %314, !dbg !4721
  call void @llvm.dbg.value(metadata i32 2, metadata !4565, metadata !DIExpression()), !dbg !4710
  call void @llvm.dbg.value(metadata [8 x i16]* %4, metadata !4563, metadata !DIExpression(DW_OP_plus_uconst, 10, DW_OP_stack_value)), !dbg !4710
  call void @llvm.dbg.value(metadata i32 %253, metadata !4574, metadata !DIExpression(DW_OP_LLVM_convert, 32, DW_ATE_unsigned, DW_OP_LLVM_convert, 16, DW_ATE_unsigned, DW_OP_stack_value)), !dbg !4712
  call void @llvm.dbg.value(metadata i32 %258, metadata !4575, metadata !DIExpression(DW_OP_LLVM_convert, 32, DW_ATE_unsigned, DW_OP_LLVM_convert, 16, DW_ATE_unsigned, DW_OP_stack_value)), !dbg !4712
  %317 = and i32 %316, 65535, !dbg !4714
  %318 = and i32 %253, 65535, !dbg !4723
  %319 = xor i32 %318, 65535, !dbg !4723
  %320 = and i32 %258, 65535, !dbg !4724
  %321 = add nuw nsw i32 %319, %317, !dbg !4715
  %322 = add nuw nsw i32 %321, %320, !dbg !4716
  call void @llvm.dbg.value(metadata i32 %322, metadata !4576, metadata !DIExpression()), !dbg !4712
  %323 = and i32 %322, 65535, !dbg !4717
  %324 = lshr i32 %322, 16, !dbg !4718
  %325 = add nuw nsw i32 %323, %324, !dbg !4719
  call void @llvm.dbg.value(metadata i32 %325, metadata !4576, metadata !DIExpression()), !dbg !4712
  %326 = lshr i32 %325, 16, !dbg !4720
  %327 = add nuw nsw i32 %326, %325, !dbg !4721
  call void @llvm.dbg.value(metadata i32 1, metadata !4565, metadata !DIExpression()), !dbg !4710
  %328 = getelementptr inbounds [8 x i16], [8 x i16]* %4, i64 0, i64 6, !dbg !4725
  call void @llvm.dbg.value(metadata i16* %328, metadata !4563, metadata !DIExpression()), !dbg !4710
  %329 = load i16, i16* %328, align 4, !dbg !4722, !tbaa !4580
  call void @llvm.dbg.value(metadata i16 %329, metadata !4574, metadata !DIExpression()), !dbg !4712
  call void @llvm.dbg.value(metadata i32 %259, metadata !4575, metadata !DIExpression(DW_OP_LLVM_convert, 32, DW_ATE_unsigned, DW_OP_LLVM_convert, 16, DW_ATE_unsigned, DW_OP_stack_value)), !dbg !4712
  %330 = and i32 %327, 65535, !dbg !4714
  %331 = xor i16 %329, -1, !dbg !4723
  %332 = zext i16 %331 to i32, !dbg !4723
  %333 = add nuw nsw i32 %330, %332, !dbg !4715
  %334 = add nuw nsw i32 %333, %259, !dbg !4716
  call void @llvm.dbg.value(metadata i32 %334, metadata !4576, metadata !DIExpression()), !dbg !4712
  %335 = and i32 %334, 65535, !dbg !4717
  %336 = lshr i32 %334, 16, !dbg !4718
  %337 = add nuw nsw i32 %335, %336, !dbg !4719
  call void @llvm.dbg.value(metadata i32 %337, metadata !4576, metadata !DIExpression()), !dbg !4712
  %338 = lshr i32 %337, 16, !dbg !4720
  %339 = add nuw nsw i32 %338, %337, !dbg !4721
  %340 = trunc i32 %339 to i16, !dbg !4726
  %341 = xor i16 %340, -1, !dbg !4726
  store i16 %341, i16* %279, align 2, !dbg !4727, !tbaa !4580
  call void @llvm.dbg.value(metadata i32 0, metadata !4565, metadata !DIExpression()), !dbg !4710
  %342 = getelementptr inbounds [8 x i16], [8 x i16]* %5, i64 0, i64 7, !dbg !4728
  store i16 %341, i16* %342, align 2, !dbg !4729, !tbaa !4580
  call void @llvm.dbg.value(metadata i32 8, metadata !4368, metadata !DIExpression()), !dbg !4384
  br label %378, !dbg !4730

343:                                              ; preds = %247
  call void @llvm.dbg.value(metadata i8* %19, metadata !4381, metadata !DIExpression()), !dbg !4731
  %344 = getelementptr inbounds i8, i8* %19, i64 4, !dbg !4732
  %345 = bitcast i8* %344 to i16*, !dbg !4732
  %346 = load i16, i16* %345, align 2, !dbg !4732, !tbaa !4488
  %347 = getelementptr inbounds [8 x i16], [8 x i16]* %4, i64 0, i64 5, !dbg !4733
  store i16 %346, i16* %347, align 2, !dbg !4734, !tbaa !4580
  %348 = getelementptr inbounds [8 x i16], [8 x i16]* %5, i64 0, i64 5, !dbg !4735
  store i16 %105, i16* %348, align 2, !dbg !4736, !tbaa !4580
  store i16 %105, i16* %345, align 2, !dbg !4737, !tbaa !4488
  call void @llvm.dbg.value(metadata i32 6, metadata !4368, metadata !DIExpression()), !dbg !4384
  %349 = getelementptr inbounds i8, i8* %19, i64 2, !dbg !4738
  %350 = bitcast i8* %349 to i16*, !dbg !4738
  %351 = load i16, i16* %350, align 2, !dbg !4738, !tbaa !4739
  %352 = getelementptr inbounds [8 x i16], [8 x i16]* %4, i64 0, i64 6, !dbg !4740
  store i16 %351, i16* %352, align 4, !dbg !4741, !tbaa !4580
  call void @llvm.dbg.value(metadata i16* %350, metadata !4573, metadata !DIExpression()), !dbg !4742
  call void @llvm.dbg.value(metadata i16 %346, metadata !4574, metadata !DIExpression()), !dbg !4742
  call void @llvm.dbg.value(metadata i16 %105, metadata !4575, metadata !DIExpression()), !dbg !4742
  %353 = xor i16 %351, -1, !dbg !4744
  %354 = zext i16 %353 to i32, !dbg !4744
  %355 = xor i16 %346, -1, !dbg !4745
  %356 = zext i16 %355 to i32, !dbg !4745
  %357 = add nuw nsw i32 %356, %106, !dbg !4746
  %358 = add nuw nsw i32 %357, %354, !dbg !4747
  call void @llvm.dbg.value(metadata i32 %358, metadata !4576, metadata !DIExpression()), !dbg !4742
  %359 = and i32 %358, 65535, !dbg !4748
  %360 = lshr i32 %358, 16, !dbg !4749
  %361 = add nuw nsw i32 %359, %360, !dbg !4750
  call void @llvm.dbg.value(metadata i32 %361, metadata !4576, metadata !DIExpression()), !dbg !4742
  %362 = lshr i32 %361, 16, !dbg !4751
  %363 = add nuw nsw i32 %362, %361, !dbg !4752
  %364 = trunc i32 %363 to i16, !dbg !4753
  %365 = xor i16 %364, -1, !dbg !4753
  store i16 %365, i16* %350, align 2, !dbg !4754, !tbaa !4580
  %366 = call i8* @_ZNK14WritablePacket8end_dataEv(%class.WritablePacket* %1), !dbg !4755
  call void @llvm.dbg.value(metadata i16* %350, metadata !4756, metadata !DIExpression()), !dbg !4763
  call void @llvm.dbg.value(metadata i8* %19, metadata !4761, metadata !DIExpression()), !dbg !4763
  call void @llvm.dbg.value(metadata i64 undef, metadata !4762, metadata !DIExpression(DW_OP_LLVM_convert, 64, DW_ATE_unsigned, DW_OP_LLVM_convert, 32, DW_ATE_unsigned, DW_OP_stack_value)), !dbg !4763
  %367 = load i16, i16* %350, align 2, !dbg !4765, !tbaa !4580
  %368 = icmp eq i16 %367, 0, !dbg !4767
  br i1 %368, label %369, label %375, !dbg !4768

369:                                              ; preds = %343
  %370 = ptrtoint i8* %366 to i64, !dbg !4769
  %371 = ptrtoint i8* %19 to i64, !dbg !4769
  %372 = sub i64 %370, %371, !dbg !4769
  call void @llvm.dbg.value(metadata i64 %372, metadata !4762, metadata !DIExpression(DW_OP_LLVM_convert, 64, DW_ATE_unsigned, DW_OP_LLVM_convert, 32, DW_ATE_unsigned, DW_OP_stack_value)), !dbg !4763
  %373 = trunc i64 %372 to i32, !dbg !4770
  call void @llvm.dbg.value(metadata i32 %373, metadata !4762, metadata !DIExpression()), !dbg !4763
  call void @click_update_zero_in_cksum_hard(i16* nonnull %350, i8* nonnull %19, i32 %373), !dbg !4771
  %374 = load i16, i16* %350, align 2, !dbg !4772, !tbaa !4739
  br label %375, !dbg !4771

375:                                              ; preds = %343, %369
  %376 = phi i16 [ %367, %343 ], [ %374, %369 ], !dbg !4772
  %377 = getelementptr inbounds [8 x i16], [8 x i16]* %5, i64 0, i64 6, !dbg !4773
  store i16 %376, i16* %377, align 4, !dbg !4774, !tbaa !4580
  call void @llvm.dbg.value(metadata i32 7, metadata !4368, metadata !DIExpression()), !dbg !4384
  br label %378, !dbg !4775

378:                                              ; preds = %272, %260, %248, %268, %247, %277, %375, %174
  %379 = phi i32 [ 6, %375 ], [ 4, %174 ], [ 7, %277 ], [ 4, %247 ], [ 6, %268 ], [ 6, %248 ], [ 6, %260 ], [ 6, %272 ]
  call void @llvm.dbg.value(metadata i32 undef, metadata !4368, metadata !DIExpression()), !dbg !4384
  %380 = getelementptr inbounds i8, i8* %7, i64 2, !dbg !4776
  %381 = bitcast i8* %380 to i16*, !dbg !4776
  call void @llvm.dbg.value(metadata i16* %381, metadata !4558, metadata !DIExpression()), !dbg !4777
  call void @llvm.dbg.value(metadata i16* %182, metadata !4563, metadata !DIExpression()), !dbg !4777
  call void @llvm.dbg.value(metadata i16* %246, metadata !4564, metadata !DIExpression()), !dbg !4777
  call void @llvm.dbg.value(metadata i32 undef, metadata !4565, metadata !DIExpression()), !dbg !4777
  %382 = load i16, i16* %381, align 2, !dbg !4779, !tbaa !4580
  call void @llvm.dbg.value(metadata i16* %381, metadata !4573, metadata !DIExpression()), !dbg !4781
  call void @llvm.dbg.value(metadata i16 %181, metadata !4574, metadata !DIExpression()), !dbg !4781
  call void @llvm.dbg.value(metadata i16 %245, metadata !4575, metadata !DIExpression()), !dbg !4781
  %383 = xor i16 %382, -1, !dbg !4782
  %384 = zext i16 %383 to i32, !dbg !4782
  %385 = xor i16 %181, -1, !dbg !4783
  %386 = zext i16 %385 to i32, !dbg !4783
  %387 = zext i16 %245 to i32, !dbg !4784
  %388 = add nuw nsw i32 %386, %384, !dbg !4785
  %389 = add nuw nsw i32 %388, %387, !dbg !4786
  call void @llvm.dbg.value(metadata i32 %389, metadata !4576, metadata !DIExpression()), !dbg !4781
  %390 = and i32 %389, 65535, !dbg !4787
  %391 = lshr i32 %389, 16, !dbg !4788
  %392 = add nuw nsw i32 %390, %391, !dbg !4789
  call void @llvm.dbg.value(metadata i32 %392, metadata !4576, metadata !DIExpression()), !dbg !4781
  %393 = lshr i32 %392, 16, !dbg !4790
  %394 = add nuw nsw i32 %393, %392, !dbg !4791
  %395 = trunc i32 %394 to i16, !dbg !4792
  %396 = xor i16 %395, -1, !dbg !4792
  store i16 %396, i16* %381, align 2, !dbg !4793, !tbaa !4580
  call void @llvm.dbg.value(metadata i32 undef, metadata !4565, metadata !DIExpression(DW_OP_constu, 1, DW_OP_minus, DW_OP_stack_value)), !dbg !4777
  call void @llvm.dbg.value(metadata [8 x i16]* %4, metadata !4563, metadata !DIExpression(DW_OP_plus_uconst, 2, DW_OP_stack_value)), !dbg !4777
  call void @llvm.dbg.value(metadata [8 x i16]* %5, metadata !4564, metadata !DIExpression(DW_OP_plus_uconst, 2, DW_OP_stack_value)), !dbg !4777
  %397 = getelementptr inbounds [8 x i16], [8 x i16]* %5, i64 0, i64 1, !dbg !4794
  call void @llvm.dbg.value(metadata i16* %397, metadata !4564, metadata !DIExpression()), !dbg !4777
  %398 = getelementptr inbounds [8 x i16], [8 x i16]* %4, i64 0, i64 1, !dbg !4795
  call void @llvm.dbg.value(metadata i16* %398, metadata !4563, metadata !DIExpression()), !dbg !4777
  call void @llvm.dbg.value(metadata i32 %379, metadata !4565, metadata !DIExpression()), !dbg !4777
  %399 = load i16, i16* %398, align 2, !dbg !4796, !tbaa !4580
  %400 = load i16, i16* %397, align 2, !dbg !4797, !tbaa !4580
  call void @llvm.dbg.value(metadata i16 %399, metadata !4574, metadata !DIExpression()), !dbg !4781
  call void @llvm.dbg.value(metadata i16 %400, metadata !4575, metadata !DIExpression()), !dbg !4781
  %401 = and i32 %394, 65535, !dbg !4782
  %402 = xor i16 %399, -1, !dbg !4783
  %403 = zext i16 %402 to i32, !dbg !4783
  %404 = zext i16 %400 to i32, !dbg !4784
  %405 = add nuw nsw i32 %401, %403, !dbg !4785
  %406 = add nuw nsw i32 %405, %404, !dbg !4786
  call void @llvm.dbg.value(metadata i32 %406, metadata !4576, metadata !DIExpression()), !dbg !4781
  %407 = and i32 %406, 65535, !dbg !4787
  %408 = lshr i32 %406, 16, !dbg !4788
  %409 = add nuw nsw i32 %407, %408, !dbg !4789
  call void @llvm.dbg.value(metadata i32 %409, metadata !4576, metadata !DIExpression()), !dbg !4781
  %410 = lshr i32 %409, 16, !dbg !4790
  %411 = add nuw nsw i32 %410, %409, !dbg !4791
  %412 = trunc i32 %411 to i16, !dbg !4792
  %413 = xor i16 %412, -1, !dbg !4792
  store i16 %413, i16* %381, align 2, !dbg !4793, !tbaa !4580
  call void @llvm.dbg.value(metadata i32 %379, metadata !4565, metadata !DIExpression(DW_OP_constu, 1, DW_OP_minus, DW_OP_stack_value)), !dbg !4777
  call void @llvm.dbg.value(metadata [8 x i16]* %4, metadata !4563, metadata !DIExpression(DW_OP_plus_uconst, 4, DW_OP_stack_value)), !dbg !4777
  call void @llvm.dbg.value(metadata [8 x i16]* %5, metadata !4564, metadata !DIExpression(DW_OP_plus_uconst, 4, DW_OP_stack_value)), !dbg !4777
  %414 = getelementptr inbounds [8 x i16], [8 x i16]* %5, i64 0, i64 2, !dbg !4794
  call void @llvm.dbg.value(metadata i16* %414, metadata !4564, metadata !DIExpression()), !dbg !4777
  %415 = getelementptr inbounds [8 x i16], [8 x i16]* %4, i64 0, i64 2, !dbg !4795
  call void @llvm.dbg.value(metadata i16* %415, metadata !4563, metadata !DIExpression()), !dbg !4777
  %416 = load i16, i16* %415, align 4, !dbg !4796, !tbaa !4580
  %417 = load i16, i16* %414, align 4, !dbg !4797, !tbaa !4580
  call void @llvm.dbg.value(metadata i16 %416, metadata !4574, metadata !DIExpression()), !dbg !4781
  call void @llvm.dbg.value(metadata i16 %417, metadata !4575, metadata !DIExpression()), !dbg !4781
  %418 = and i32 %411, 65535, !dbg !4782
  %419 = xor i16 %416, -1, !dbg !4783
  %420 = zext i16 %419 to i32, !dbg !4783
  %421 = zext i16 %417 to i32, !dbg !4784
  %422 = add nuw nsw i32 %418, %420, !dbg !4785
  %423 = add nuw nsw i32 %422, %421, !dbg !4786
  call void @llvm.dbg.value(metadata i32 %423, metadata !4576, metadata !DIExpression()), !dbg !4781
  %424 = and i32 %423, 65535, !dbg !4787
  %425 = lshr i32 %423, 16, !dbg !4788
  %426 = add nuw nsw i32 %424, %425, !dbg !4789
  call void @llvm.dbg.value(metadata i32 %426, metadata !4576, metadata !DIExpression()), !dbg !4781
  %427 = lshr i32 %426, 16, !dbg !4790
  %428 = add nuw nsw i32 %427, %426, !dbg !4791
  %429 = trunc i32 %428 to i16, !dbg !4792
  %430 = xor i16 %429, -1, !dbg !4792
  store i16 %430, i16* %381, align 2, !dbg !4793, !tbaa !4580
  call void @llvm.dbg.value(metadata i32 %379, metadata !4565, metadata !DIExpression(DW_OP_constu, 1, DW_OP_minus, DW_OP_constu, 1, DW_OP_minus, DW_OP_stack_value)), !dbg !4777
  call void @llvm.dbg.value(metadata [8 x i16]* %4, metadata !4563, metadata !DIExpression(DW_OP_plus_uconst, 6, DW_OP_stack_value)), !dbg !4777
  call void @llvm.dbg.value(metadata [8 x i16]* %5, metadata !4564, metadata !DIExpression(DW_OP_plus_uconst, 6, DW_OP_stack_value)), !dbg !4777
  %431 = add nsw i32 %379, -1, !dbg !4798
  call void @llvm.dbg.value(metadata i32 %431, metadata !4565, metadata !DIExpression(DW_OP_constu, 1, DW_OP_minus, DW_OP_stack_value)), !dbg !4777
  %432 = getelementptr inbounds [8 x i16], [8 x i16]* %5, i64 0, i64 3, !dbg !4794
  call void @llvm.dbg.value(metadata i16* %432, metadata !4564, metadata !DIExpression()), !dbg !4777
  %433 = getelementptr inbounds [8 x i16], [8 x i16]* %4, i64 0, i64 3, !dbg !4795
  call void @llvm.dbg.value(metadata i16* %433, metadata !4563, metadata !DIExpression()), !dbg !4777
  call void @llvm.dbg.value(metadata i32 %379, metadata !4565, metadata !DIExpression(DW_OP_constu, 2, DW_OP_minus, DW_OP_stack_value)), !dbg !4777
  %434 = load i16, i16* %433, align 2, !dbg !4796, !tbaa !4580
  %435 = load i16, i16* %432, align 2, !dbg !4797, !tbaa !4580
  call void @llvm.dbg.value(metadata i16 %434, metadata !4574, metadata !DIExpression()), !dbg !4781
  call void @llvm.dbg.value(metadata i16 %435, metadata !4575, metadata !DIExpression()), !dbg !4781
  %436 = and i32 %428, 65535, !dbg !4782
  %437 = xor i16 %434, -1, !dbg !4783
  %438 = zext i16 %437 to i32, !dbg !4783
  %439 = zext i16 %435 to i32, !dbg !4784
  %440 = add nuw nsw i32 %436, %438, !dbg !4785
  %441 = add nuw nsw i32 %440, %439, !dbg !4786
  call void @llvm.dbg.value(metadata i32 %441, metadata !4576, metadata !DIExpression()), !dbg !4781
  %442 = and i32 %441, 65535, !dbg !4787
  %443 = lshr i32 %441, 16, !dbg !4788
  %444 = add nuw nsw i32 %442, %443, !dbg !4789
  call void @llvm.dbg.value(metadata i32 %444, metadata !4576, metadata !DIExpression()), !dbg !4781
  %445 = lshr i32 %444, 16, !dbg !4790
  %446 = add nuw nsw i32 %445, %444, !dbg !4791
  %447 = trunc i32 %446 to i16, !dbg !4792
  %448 = xor i16 %447, -1, !dbg !4792
  store i16 %448, i16* %381, align 2, !dbg !4793, !tbaa !4580
  call void @llvm.dbg.value(metadata i32 %379, metadata !4565, metadata !DIExpression(DW_OP_constu, 2, DW_OP_minus, DW_OP_constu, 1, DW_OP_minus, DW_OP_stack_value)), !dbg !4777
  call void @llvm.dbg.value(metadata [8 x i16]* %4, metadata !4563, metadata !DIExpression(DW_OP_plus_uconst, 8, DW_OP_stack_value)), !dbg !4777
  call void @llvm.dbg.value(metadata [8 x i16]* %5, metadata !4564, metadata !DIExpression(DW_OP_plus_uconst, 8, DW_OP_stack_value)), !dbg !4777
  %449 = icmp ugt i32 %431, 2, !dbg !4799
  br i1 %449, label %470, label %450, !dbg !4800, !llvm.loop !4801

450:                                              ; preds = %529, %510, %490, %470, %378
  %451 = call dereferenceable(16) %"struct.ICMPRewriter::MapEntry"* @_ZN6VectorIN12ICMPRewriter8MapEntryEEixEi(%class.Vector* nonnull %74, i32 %79), !dbg !4803
  %452 = getelementptr inbounds %"struct.ICMPRewriter::MapEntry", %"struct.ICMPRewriter::MapEntry"* %451, i64 0, i32 1, !dbg !4805
  %453 = load i32, i32* %452, align 8, !dbg !4805, !tbaa !4147
  %454 = icmp sgt i32 %453, -1, !dbg !4806
  br i1 %454, label %455, label %464, !dbg !4807

455:                                              ; preds = %450
  %456 = call dereferenceable(16) %"struct.ICMPRewriter::MapEntry"* @_ZN6VectorIN12ICMPRewriter8MapEntryEEixEi(%class.Vector* nonnull %74, i32 %79), !dbg !4808
  %457 = getelementptr inbounds %"struct.ICMPRewriter::MapEntry", %"struct.ICMPRewriter::MapEntry"* %456, i64 0, i32 1, !dbg !4809
  %458 = load i32, i32* %457, align 8, !dbg !4809, !tbaa !4147
  call void @llvm.dbg.value(metadata %class.IPRewriterEntry* %87, metadata !4810, metadata !DIExpression()), !dbg !4813
  %459 = getelementptr inbounds %class.IPRewriterEntry, %class.IPRewriterEntry* %87, i64 0, i32 1, !dbg !4815
  %460 = bitcast [3 x i8]* %459 to i24*, !dbg !4815
  %461 = load i24, i24* %460, align 4, !dbg !4815
  %462 = zext i24 %461 to i32, !dbg !4815
  %463 = add nsw i32 %458, %462, !dbg !4816
  br label %464, !dbg !4817

464:                                              ; preds = %450, %455
  %465 = phi i32 [ %463, %455 ], [ 0, %450 ], !dbg !4818
  call void @llvm.lifetime.end.p0i8(i64 16, i8* nonnull %108) #12, !dbg !4819
  call void @llvm.lifetime.end.p0i8(i64 16, i8* nonnull %107) #12, !dbg !4819
  br label %466

466:                                              ; preds = %89, %72, %464
  %467 = phi i32 [ %465, %464 ], [ -1, %72 ], [ -1, %89 ], !dbg !4384
  call void @llvm.lifetime.end.p0i8(i64 12, i8* nonnull %28) #12, !dbg !4819
  br label %468

468:                                              ; preds = %12, %9, %466, %2
  %469 = phi i32 [ -1, %2 ], [ -1, %9 ], [ %467, %466 ], [ -1, %12 ], !dbg !4384
  ret i32 %469, !dbg !4819

470:                                              ; preds = %378
  %471 = add nsw i32 %379, -2, !dbg !4798
  call void @llvm.dbg.value(metadata i32 %471, metadata !4565, metadata !DIExpression()), !dbg !4777
  call void @llvm.dbg.value(metadata i32 %471, metadata !4565, metadata !DIExpression(DW_OP_constu, 1, DW_OP_minus, DW_OP_stack_value)), !dbg !4777
  %472 = getelementptr inbounds [8 x i16], [8 x i16]* %5, i64 0, i64 4, !dbg !4794
  call void @llvm.dbg.value(metadata i16* %472, metadata !4564, metadata !DIExpression()), !dbg !4777
  %473 = getelementptr inbounds [8 x i16], [8 x i16]* %4, i64 0, i64 4, !dbg !4795
  call void @llvm.dbg.value(metadata i16* %473, metadata !4563, metadata !DIExpression()), !dbg !4777
  call void @llvm.dbg.value(metadata i32 %471, metadata !4565, metadata !DIExpression()), !dbg !4777
  call void @llvm.dbg.value(metadata i32 %379, metadata !4565, metadata !DIExpression(DW_OP_constu, 3, DW_OP_minus, DW_OP_stack_value)), !dbg !4777
  %474 = load i16, i16* %473, align 8, !dbg !4796, !tbaa !4580
  %475 = load i16, i16* %472, align 8, !dbg !4797, !tbaa !4580
  call void @llvm.dbg.value(metadata i16* %472, metadata !4564, metadata !DIExpression()), !dbg !4777
  call void @llvm.dbg.value(metadata i16* %473, metadata !4563, metadata !DIExpression()), !dbg !4777
  call void @llvm.dbg.value(metadata i16* %381, metadata !4573, metadata !DIExpression()), !dbg !4781
  call void @llvm.dbg.value(metadata i16 %474, metadata !4574, metadata !DIExpression()), !dbg !4781
  call void @llvm.dbg.value(metadata i16 %475, metadata !4575, metadata !DIExpression()), !dbg !4781
  %476 = and i32 %446, 65535, !dbg !4782
  %477 = xor i16 %474, -1, !dbg !4783
  %478 = zext i16 %477 to i32, !dbg !4783
  %479 = zext i16 %475 to i32, !dbg !4784
  %480 = add nuw nsw i32 %476, %478, !dbg !4785
  %481 = add nuw nsw i32 %480, %479, !dbg !4786
  call void @llvm.dbg.value(metadata i32 %481, metadata !4576, metadata !DIExpression()), !dbg !4781
  %482 = and i32 %481, 65535, !dbg !4787
  %483 = lshr i32 %481, 16, !dbg !4788
  %484 = add nuw nsw i32 %482, %483, !dbg !4789
  call void @llvm.dbg.value(metadata i32 %484, metadata !4576, metadata !DIExpression()), !dbg !4781
  %485 = lshr i32 %484, 16, !dbg !4790
  %486 = add nuw nsw i32 %485, %484, !dbg !4791
  %487 = trunc i32 %486 to i16, !dbg !4792
  %488 = xor i16 %487, -1, !dbg !4792
  store i16 %488, i16* %381, align 2, !dbg !4793, !tbaa !4580
  call void @llvm.dbg.value(metadata i32 %379, metadata !4565, metadata !DIExpression(DW_OP_constu, 3, DW_OP_minus, DW_OP_constu, 1, DW_OP_minus, DW_OP_stack_value)), !dbg !4777
  call void @llvm.dbg.value(metadata [8 x i16]* %4, metadata !4563, metadata !DIExpression(DW_OP_plus_uconst, 10, DW_OP_stack_value)), !dbg !4777
  call void @llvm.dbg.value(metadata [8 x i16]* %5, metadata !4564, metadata !DIExpression(DW_OP_plus_uconst, 10, DW_OP_stack_value)), !dbg !4777
  %489 = icmp ugt i32 %471, 2, !dbg !4799
  br i1 %489, label %490, label %450, !dbg !4800, !llvm.loop !4801

490:                                              ; preds = %470
  %491 = getelementptr inbounds [8 x i16], [8 x i16]* %5, i64 0, i64 5, !dbg !4794
  call void @llvm.dbg.value(metadata i16* %491, metadata !4564, metadata !DIExpression()), !dbg !4777
  %492 = getelementptr inbounds [8 x i16], [8 x i16]* %4, i64 0, i64 5, !dbg !4795
  call void @llvm.dbg.value(metadata i16* %492, metadata !4563, metadata !DIExpression()), !dbg !4777
  %493 = add nsw i32 %379, -3, !dbg !4798
  call void @llvm.dbg.value(metadata i32 %493, metadata !4565, metadata !DIExpression()), !dbg !4777
  call void @llvm.dbg.value(metadata i32 %493, metadata !4565, metadata !DIExpression(DW_OP_constu, 1, DW_OP_minus, DW_OP_stack_value)), !dbg !4777
  call void @llvm.dbg.value(metadata i32 %493, metadata !4565, metadata !DIExpression()), !dbg !4777
  call void @llvm.dbg.value(metadata i32 %493, metadata !4565, metadata !DIExpression(DW_OP_constu, 1, DW_OP_minus, DW_OP_stack_value)), !dbg !4777
  %494 = load i16, i16* %492, align 2, !dbg !4796, !tbaa !4580
  %495 = load i16, i16* %491, align 2, !dbg !4797, !tbaa !4580
  call void @llvm.dbg.value(metadata i16* %491, metadata !4564, metadata !DIExpression()), !dbg !4777
  call void @llvm.dbg.value(metadata i16* %492, metadata !4563, metadata !DIExpression()), !dbg !4777
  call void @llvm.dbg.value(metadata i16* %381, metadata !4573, metadata !DIExpression()), !dbg !4781
  call void @llvm.dbg.value(metadata i16 %494, metadata !4574, metadata !DIExpression()), !dbg !4781
  call void @llvm.dbg.value(metadata i16 %495, metadata !4575, metadata !DIExpression()), !dbg !4781
  %496 = and i32 %486, 65535, !dbg !4782
  %497 = xor i16 %494, -1, !dbg !4783
  %498 = zext i16 %497 to i32, !dbg !4783
  %499 = zext i16 %495 to i32, !dbg !4784
  %500 = add nuw nsw i32 %496, %498, !dbg !4785
  %501 = add nuw nsw i32 %500, %499, !dbg !4786
  call void @llvm.dbg.value(metadata i32 %501, metadata !4576, metadata !DIExpression()), !dbg !4781
  %502 = and i32 %501, 65535, !dbg !4787
  %503 = lshr i32 %501, 16, !dbg !4788
  %504 = add nuw nsw i32 %502, %503, !dbg !4789
  call void @llvm.dbg.value(metadata i32 %504, metadata !4576, metadata !DIExpression()), !dbg !4781
  %505 = lshr i32 %504, 16, !dbg !4790
  %506 = add nuw nsw i32 %505, %504, !dbg !4791
  %507 = trunc i32 %506 to i16, !dbg !4792
  %508 = xor i16 %507, -1, !dbg !4792
  store i16 %508, i16* %381, align 2, !dbg !4793, !tbaa !4580
  call void @llvm.dbg.value(metadata i32 %493, metadata !4565, metadata !DIExpression(DW_OP_constu, 1, DW_OP_minus, DW_OP_constu, 1, DW_OP_minus, DW_OP_stack_value)), !dbg !4777
  call void @llvm.dbg.value(metadata [8 x i16]* %4, metadata !4563, metadata !DIExpression(DW_OP_plus_uconst, 12, DW_OP_stack_value)), !dbg !4777
  call void @llvm.dbg.value(metadata [8 x i16]* %5, metadata !4564, metadata !DIExpression(DW_OP_plus_uconst, 12, DW_OP_stack_value)), !dbg !4777
  %509 = icmp ugt i32 %493, 2, !dbg !4799
  br i1 %509, label %510, label %450, !dbg !4800, !llvm.loop !4801

510:                                              ; preds = %490
  %511 = getelementptr inbounds [8 x i16], [8 x i16]* %5, i64 0, i64 6, !dbg !4794
  call void @llvm.dbg.value(metadata i16* %511, metadata !4564, metadata !DIExpression()), !dbg !4777
  %512 = getelementptr inbounds [8 x i16], [8 x i16]* %4, i64 0, i64 6, !dbg !4795
  call void @llvm.dbg.value(metadata i16* %512, metadata !4563, metadata !DIExpression()), !dbg !4777
  call void @llvm.dbg.value(metadata i32 %379, metadata !4565, metadata !DIExpression(DW_OP_constu, 4, DW_OP_minus, DW_OP_stack_value)), !dbg !4777
  call void @llvm.dbg.value(metadata i32 %379, metadata !4565, metadata !DIExpression(DW_OP_constu, 4, DW_OP_minus, DW_OP_constu, 1, DW_OP_minus, DW_OP_stack_value)), !dbg !4777
  call void @llvm.dbg.value(metadata i32 %379, metadata !4565, metadata !DIExpression(DW_OP_constu, 4, DW_OP_minus, DW_OP_stack_value)), !dbg !4777
  call void @llvm.dbg.value(metadata i32 %379, metadata !4565, metadata !DIExpression(DW_OP_constu, 4, DW_OP_minus, DW_OP_constu, 1, DW_OP_minus, DW_OP_stack_value)), !dbg !4777
  %513 = load i16, i16* %512, align 4, !dbg !4796, !tbaa !4580
  %514 = load i16, i16* %511, align 4, !dbg !4797, !tbaa !4580
  call void @llvm.dbg.value(metadata i16* %511, metadata !4564, metadata !DIExpression()), !dbg !4777
  call void @llvm.dbg.value(metadata i16* %512, metadata !4563, metadata !DIExpression()), !dbg !4777
  call void @llvm.dbg.value(metadata i16* %381, metadata !4573, metadata !DIExpression()), !dbg !4781
  call void @llvm.dbg.value(metadata i16 %513, metadata !4574, metadata !DIExpression()), !dbg !4781
  call void @llvm.dbg.value(metadata i16 %514, metadata !4575, metadata !DIExpression()), !dbg !4781
  %515 = and i32 %506, 65535, !dbg !4782
  %516 = xor i16 %513, -1, !dbg !4783
  %517 = zext i16 %516 to i32, !dbg !4783
  %518 = zext i16 %514 to i32, !dbg !4784
  %519 = add nuw nsw i32 %515, %517, !dbg !4785
  %520 = add nuw nsw i32 %519, %518, !dbg !4786
  call void @llvm.dbg.value(metadata i32 %520, metadata !4576, metadata !DIExpression()), !dbg !4781
  %521 = and i32 %520, 65535, !dbg !4787
  %522 = lshr i32 %520, 16, !dbg !4788
  %523 = add nuw nsw i32 %521, %522, !dbg !4789
  call void @llvm.dbg.value(metadata i32 %523, metadata !4576, metadata !DIExpression()), !dbg !4781
  %524 = lshr i32 %523, 16, !dbg !4790
  %525 = add nuw nsw i32 %524, %523, !dbg !4791
  %526 = trunc i32 %525 to i16, !dbg !4792
  %527 = xor i16 %526, -1, !dbg !4792
  store i16 %527, i16* %381, align 2, !dbg !4793, !tbaa !4580
  call void @llvm.dbg.value(metadata i32 %379, metadata !4565, metadata !DIExpression(DW_OP_constu, 4, DW_OP_minus, DW_OP_constu, 1, DW_OP_minus, DW_OP_constu, 1, DW_OP_minus, DW_OP_stack_value)), !dbg !4777
  call void @llvm.dbg.value(metadata i16* %512, metadata !4563, metadata !DIExpression(DW_OP_plus_uconst, 2, DW_OP_stack_value)), !dbg !4777
  call void @llvm.dbg.value(metadata i16* %511, metadata !4564, metadata !DIExpression(DW_OP_plus_uconst, 2, DW_OP_stack_value)), !dbg !4777
  %528 = icmp eq i32 %379, 7, !dbg !4799
  br i1 %528, label %529, label %450, !dbg !4800, !llvm.loop !4801

529:                                              ; preds = %510
  %530 = getelementptr inbounds [8 x i16], [8 x i16]* %5, i64 0, i64 7, !dbg !4794
  call void @llvm.dbg.value(metadata i16* %530, metadata !4564, metadata !DIExpression()), !dbg !4777
  %531 = getelementptr inbounds [8 x i16], [8 x i16]* %4, i64 0, i64 7, !dbg !4795
  call void @llvm.dbg.value(metadata i16* %531, metadata !4563, metadata !DIExpression()), !dbg !4777
  call void @llvm.dbg.value(metadata i32 %379, metadata !4565, metadata !DIExpression(DW_OP_constu, 4, DW_OP_minus, DW_OP_constu, 1, DW_OP_minus, DW_OP_stack_value)), !dbg !4777
  %532 = load i16, i16* %531, align 2, !dbg !4796, !tbaa !4580
  %533 = load i16, i16* %530, align 2, !dbg !4797, !tbaa !4580
  call void @llvm.dbg.value(metadata i16* %530, metadata !4564, metadata !DIExpression()), !dbg !4777
  call void @llvm.dbg.value(metadata i16* %531, metadata !4563, metadata !DIExpression()), !dbg !4777
  call void @llvm.dbg.value(metadata i16* %381, metadata !4573, metadata !DIExpression()), !dbg !4781
  call void @llvm.dbg.value(metadata i16 %532, metadata !4574, metadata !DIExpression()), !dbg !4781
  call void @llvm.dbg.value(metadata i16 %533, metadata !4575, metadata !DIExpression()), !dbg !4781
  %534 = and i32 %525, 65535, !dbg !4782
  %535 = xor i16 %532, -1, !dbg !4783
  %536 = zext i16 %535 to i32, !dbg !4783
  %537 = zext i16 %533 to i32, !dbg !4784
  %538 = add nuw nsw i32 %534, %536, !dbg !4785
  %539 = add nuw nsw i32 %538, %537, !dbg !4786
  call void @llvm.dbg.value(metadata i32 %539, metadata !4576, metadata !DIExpression()), !dbg !4781
  %540 = and i32 %539, 65535, !dbg !4787
  %541 = lshr i32 %539, 16, !dbg !4788
  %542 = add nuw nsw i32 %540, %541, !dbg !4789
  call void @llvm.dbg.value(metadata i32 %542, metadata !4576, metadata !DIExpression()), !dbg !4781
  %543 = lshr i32 %542, 16, !dbg !4790
  %544 = add nuw nsw i32 %543, %542, !dbg !4791
  %545 = trunc i32 %544 to i16, !dbg !4792
  %546 = xor i16 %545, -1, !dbg !4792
  store i16 %546, i16* %381, align 2, !dbg !4793, !tbaa !4580
  br label %450
}

declare i32 @_ZNK6Packet16transport_lengthEv(%class.Packet*) local_unnamed_addr #2

; Function Attrs: argmemonly nounwind willreturn
declare void @llvm.memcpy.p0i8.p0i8.i64(i8* noalias nocapture writeonly, i8* noalias nocapture readonly, i64, i1 immarg) #6

declare i8* @_ZNK14WritablePacket8end_dataEv(%class.WritablePacket*) local_unnamed_addr #2

declare dereferenceable(16) %"struct.ICMPRewriter::MapEntry"* @_ZN6VectorIN12ICMPRewriter8MapEntryEEixEi(%class.Vector*, i32) local_unnamed_addr #2

declare %struct.click_ip* @_ZNK14WritablePacket9ip_headerEv(%class.WritablePacket*) local_unnamed_addr #2

declare void @_ZN6Packet15set_dst_ip_annoE9IPAddress(%class.Packet*, i32) local_unnamed_addr #2

; Function Attrs: sspstrong uwtable
define dso_local void @_ZN12ICMPRewriter4pushEiP6Packet(%class.ICMPRewriter* %0, i32 %1, %class.Packet* %2) unnamed_addr #0 align 2 !dbg !4820 {
  call void @llvm.dbg.value(metadata %class.ICMPRewriter* %0, metadata !4822, metadata !DIExpression()), !dbg !4827
  call void @llvm.dbg.value(metadata i32 undef, metadata !4823, metadata !DIExpression()), !dbg !4827
  call void @llvm.dbg.value(metadata %class.Packet* %2, metadata !4824, metadata !DIExpression()), !dbg !4827
  %4 = tail call %class.WritablePacket* @_ZN6Packet9uniqueifyEv(%class.Packet* %2), !dbg !4828
  call void @llvm.dbg.value(metadata %class.WritablePacket* %4, metadata !4825, metadata !DIExpression()), !dbg !4827
  %5 = icmp eq %class.WritablePacket* %4, null, !dbg !4829
  br i1 %5, label %17, label %6, !dbg !4831

6:                                                ; preds = %3
  %7 = tail call %struct.click_ip* @_ZNK14WritablePacket9ip_headerEv(%class.WritablePacket* nonnull %4), !dbg !4832
  %8 = getelementptr inbounds %struct.click_ip, %struct.click_ip* %7, i64 0, i32 6, !dbg !4834
  %9 = load i8, i8* %8, align 1, !dbg !4834, !tbaa !4417
  %10 = icmp eq i8 %9, 1, !dbg !4835
  br i1 %10, label %13, label %11, !dbg !4836

11:                                               ; preds = %6
  %12 = getelementptr %class.WritablePacket, %class.WritablePacket* %4, i64 0, i32 0, !dbg !4837
  tail call void @_ZN6Packet4killEv(%class.Packet* %12), !dbg !4837
  br label %17, !dbg !4839

13:                                               ; preds = %6
  %14 = tail call i32 @_ZN12ICMPRewriter6handleEP14WritablePacket(%class.ICMPRewriter* %0, %class.WritablePacket* nonnull %4), !dbg !4840
  call void @llvm.dbg.value(metadata i32 %14, metadata !4826, metadata !DIExpression()), !dbg !4827
  %15 = bitcast %class.ICMPRewriter* %0 to %class.Element*, !dbg !4841
  %16 = getelementptr %class.WritablePacket, %class.WritablePacket* %4, i64 0, i32 0, !dbg !4842
  tail call void @_ZNK7Element19checked_output_pushEiP6Packet(%class.Element* %15, i32 %14, %class.Packet* %16), !dbg !4841
  br label %17, !dbg !4843

17:                                               ; preds = %3, %13, %11
  ret void, !dbg !4843
}

declare %class.WritablePacket* @_ZN6Packet9uniqueifyEv(%class.Packet*) local_unnamed_addr #2

declare void @_ZN6Packet4killEv(%class.Packet*) local_unnamed_addr #2

; Function Attrs: noinline optnone sspstrong uwtable
define linkonce_odr dso_local void @_ZNK7Element19checked_output_pushEiP6Packet(%class.Element* %0, i32 %1, %class.Packet* %2) local_unnamed_addr #8 comdat align 2 !dbg !4844 {
  %4 = alloca %class.Element*, align 8
  %5 = alloca i32, align 4
  %6 = alloca %class.Packet*, align 8
  store %class.Element* %0, %class.Element** %4, align 8, !tbaa !4087
  call void @llvm.dbg.declare(metadata %class.Element** %4, metadata !4849, metadata !DIExpression()), !dbg !4852
  store i32 %1, i32* %5, align 4, !tbaa !3942
  call void @llvm.dbg.declare(metadata i32* %5, metadata !4850, metadata !DIExpression()), !dbg !4853
  store %class.Packet* %2, %class.Packet** %6, align 8, !tbaa !4087
  call void @llvm.dbg.declare(metadata %class.Packet** %6, metadata !4851, metadata !DIExpression()), !dbg !4854
  %7 = load %class.Element*, %class.Element** %4, align 8
  %8 = load i32, i32* %5, align 4, !dbg !4855, !tbaa !3942
  %9 = call i32 @_ZNK7Element8noutputsEv(%class.Element* %7), !dbg !4857
  %10 = icmp ult i32 %8, %9, !dbg !4858
  br i1 %10, label %11, label %19, !dbg !4859

11:                                               ; preds = %3
  %12 = getelementptr inbounds %class.Element, %class.Element* %7, i32 0, i32 1, !dbg !4860
  %13 = getelementptr inbounds [2 x %"class.Element::Port"*], [2 x %"class.Element::Port"*]* %12, i64 0, i64 1, !dbg !4860
  %14 = load %"class.Element::Port"*, %"class.Element::Port"** %13, align 8, !dbg !4860, !tbaa !4087
  %15 = load i32, i32* %5, align 4, !dbg !4861, !tbaa !3942
  %16 = sext i32 %15 to i64, !dbg !4860
  %17 = getelementptr inbounds %"class.Element::Port", %"class.Element::Port"* %14, i64 %16, !dbg !4860
  %18 = load %class.Packet*, %class.Packet** %6, align 8, !dbg !4862, !tbaa !4087
  call void @_ZNK7Element4Port4pushEP6Packet(%"class.Element::Port"* %17, %class.Packet* %18), !dbg !4863
  br label %21, !dbg !4860

19:                                               ; preds = %3
  %20 = load %class.Packet*, %class.Packet** %6, align 8, !dbg !4864, !tbaa !4087
  call void @_ZN6Packet4killEv(%class.Packet* %20), !dbg !4865
  br label %21

21:                                               ; preds = %19, %11
  ret void, !dbg !4866
}

declare %class.Packet* @_ZN7Element4pullEi(%class.Element*, i32) unnamed_addr #2

declare %class.Packet* @_ZN7Element13simple_actionEP6Packet(%class.Element*, %class.Packet*) unnamed_addr #2

declare zeroext i1 @_ZN7Element8run_taskEP4Task(%class.Element*, %class.Task*) unnamed_addr #2

declare void @_ZN7Element9run_timerEP5Timer(%class.Element*, %class.Timer*) unnamed_addr #2

declare void @_ZN7Element8selectedEii(%class.Element*, i32, i32) unnamed_addr #2

declare void @_ZN7Element8selectedEi(%class.Element*, i32) unnamed_addr #2

; Function Attrs: nounwind sspstrong uwtable
define linkonce_odr dso_local i8* @_ZNK12ICMPRewriter10class_nameEv(%class.ICMPRewriter* %0) unnamed_addr #4 comdat align 2 !dbg !4867 {
  call void @llvm.dbg.value(metadata %class.ICMPRewriter* %0, metadata !4869, metadata !DIExpression()), !dbg !4871
  ret i8* getelementptr inbounds ([13 x i8], [13 x i8]* @.str.15, i64 0, i64 0), !dbg !4872
}

; Function Attrs: nounwind sspstrong uwtable
define linkonce_odr dso_local i8* @_ZNK12ICMPRewriter10port_countEv(%class.ICMPRewriter* %0) unnamed_addr #4 comdat align 2 !dbg !4873 {
  call void @llvm.dbg.value(metadata %class.ICMPRewriter* %0, metadata !4875, metadata !DIExpression()), !dbg !4876
  ret i8* getelementptr inbounds ([5 x i8], [5 x i8]* @.str.16, i64 0, i64 0), !dbg !4877
}

; Function Attrs: nounwind sspstrong uwtable
define linkonce_odr dso_local i8* @_ZNK12ICMPRewriter10processingEv(%class.ICMPRewriter* %0) unnamed_addr #4 comdat align 2 !dbg !4878 {
  call void @llvm.dbg.value(metadata %class.ICMPRewriter* %0, metadata !4880, metadata !DIExpression()), !dbg !4881
  ret i8* getelementptr inbounds ([0 x i8], [0 x i8]* @_ZN7Element4PUSHE, i64 0, i64 0), !dbg !4882
}

declare i8* @_ZNK7Element9flow_codeEv(%class.Element*) unnamed_addr #2

declare i8* @_ZNK7Element5flagsEv(%class.Element*) unnamed_addr #2

declare i8* @_ZN7Element4castEPKc(%class.Element*, i8*) unnamed_addr #2

declare i8* @_ZN7Element9port_castEbiPKc(%class.Element*, i1 zeroext, i32, i8*) unnamed_addr #2

declare i32 @_ZNK7Element15configure_phaseEv(%class.Element*) unnamed_addr #2

declare void @_ZN7Element12add_handlersEv(%class.Element*) unnamed_addr #2

declare i32 @_ZN7Element10initializeEP12ErrorHandler(%class.Element*, %class.ErrorHandler*) unnamed_addr #2

declare void @_ZN7Element10take_stateEPS_P12ErrorHandler(%class.Element*, %class.Element*, %class.ErrorHandler*) unnamed_addr #2

declare %class.Element* @_ZNK7Element15hotswap_elementEv(%class.Element*) unnamed_addr #2

declare void @_ZN7Element7cleanupENS_12CleanupStageE(%class.Element*, i32) unnamed_addr #2

declare void @_ZNK7Element11declarationEv(%class.String* sret, %class.Element*) unnamed_addr #2

declare zeroext i1 @_ZNK7Element20can_live_reconfigureEv(%class.Element*) unnamed_addr #2

declare i32 @_ZN7Element16live_reconfigureER6VectorI6StringEP12ErrorHandler(%class.Element*, %class.Vector.0* dereferenceable(16), %class.ErrorHandler*) unnamed_addr #2

declare i32 @_ZN7Element5llrpcEjPv(%class.Element*, i32, i8*) unnamed_addr #2

; Function Attrs: noinline noreturn nounwind
define linkonce_odr hidden void @__clang_call_terminate(i8* %0) local_unnamed_addr #9 comdat {
  %2 = tail call i8* @__cxa_begin_catch(i8* %0) #12
  tail call void @_ZSt9terminatev() #14
  unreachable
}

declare i8* @__cxa_begin_catch(i8*) local_unnamed_addr

declare void @_ZSt9terminatev() local_unnamed_addr

; Function Attrs: nobuiltin nounwind
declare void @_ZdaPv(i8*) local_unnamed_addr #5

; Function Attrs: noreturn nounwind
declare void @__assert_fail(i8*, i8*, i32, i8*) local_unnamed_addr #10

declare void @_ZN6String11delete_memoEPNS_6memo_tE(%"struct.String::memo_t"*) local_unnamed_addr #2

declare i8* @_ZNK6Packet16transport_headerEv(%class.Packet*) local_unnamed_addr #2

declare %"union.Packet::Anno"* @_ZN6Packet5xannoEv(%class.Packet*) local_unnamed_addr #2

declare !dbg !2537 void @click_update_zero_in_cksum_hard(i16*, i8*, i32) local_unnamed_addr #2

; Function Attrs: noinline optnone sspstrong uwtable
define linkonce_odr dso_local void @_ZNK7Element4Port4pushEP6Packet(%"class.Element::Port"* %0, %class.Packet* %1) local_unnamed_addr #8 comdat align 2 !dbg !4883 {
  %3 = alloca %"class.Element::Port"*, align 8
  %4 = alloca %class.Packet*, align 8
  store %"class.Element::Port"* %0, %"class.Element::Port"** %3, align 8, !tbaa !4087
  call void @llvm.dbg.declare(metadata %"class.Element::Port"** %3, metadata !4916, metadata !DIExpression()), !dbg !4919
  store %class.Packet* %1, %class.Packet** %4, align 8, !tbaa !4087
  call void @llvm.dbg.declare(metadata %class.Packet** %4, metadata !4918, metadata !DIExpression()), !dbg !4920
  %5 = load %"class.Element::Port"*, %"class.Element::Port"** %3, align 8
  %6 = getelementptr inbounds %"class.Element::Port", %"class.Element::Port"* %5, i32 0, i32 0, !dbg !4921
  %7 = load %class.Element*, %class.Element** %6, align 8, !dbg !4921, !tbaa !4922
  %8 = icmp ne %class.Element* %7, null, !dbg !4921
  br i1 %8, label %9, label %12, !dbg !4921

9:                                                ; preds = %2
  %10 = load %class.Packet*, %class.Packet** %4, align 8, !dbg !4921, !tbaa !4087
  %11 = icmp ne %class.Packet* %10, null, !dbg !4921
  br label %12

12:                                               ; preds = %9, %2
  %13 = phi i1 [ false, %2 ], [ %11, %9 ], !dbg !4919
  br i1 %13, label %14, label %15, !dbg !4921

14:                                               ; preds = %12
  br label %16, !dbg !4921

15:                                               ; preds = %12
  call void @__assert_fail(i8* getelementptr inbounds ([8 x i8], [8 x i8]* @.str.13, i64 0, i64 0), i8* getelementptr inbounds ([30 x i8], [30 x i8]* @.str.14, i64 0, i64 0), i32 611, i8* getelementptr inbounds ([41 x i8], [41 x i8]* @__PRETTY_FUNCTION__._ZNK7Element4Port4pushEP6Packet, i64 0, i64 0)) #14, !dbg !4921
  unreachable, !dbg !4921

16:                                               ; preds = %14
  %17 = getelementptr inbounds %"class.Element::Port", %"class.Element::Port"* %5, i32 0, i32 0, !dbg !4924
  %18 = load %class.Element*, %class.Element** %17, align 8, !dbg !4924, !tbaa !4922
  %19 = getelementptr inbounds %"class.Element::Port", %"class.Element::Port"* %5, i32 0, i32 1, !dbg !4925
  %20 = load i32, i32* %19, align 8, !dbg !4925, !tbaa !4926
  %21 = load %class.Packet*, %class.Packet** %4, align 8, !dbg !4927, !tbaa !4087
  %22 = bitcast %class.Element* %18 to void (%class.Element*, i32, %class.Packet*)***, !dbg !4928
  %23 = load void (%class.Element*, i32, %class.Packet*)**, void (%class.Element*, i32, %class.Packet*)*** %22, align 8, !dbg !4928, !tbaa !3553
  %24 = getelementptr inbounds void (%class.Element*, i32, %class.Packet*)*, void (%class.Element*, i32, %class.Packet*)** %23, i64 2, !dbg !4928
  %25 = load void (%class.Element*, i32, %class.Packet*)*, void (%class.Element*, i32, %class.Packet*)** %24, align 8, !dbg !4928
  call void %25(%class.Element* %18, i32 %20, %class.Packet* %21), !dbg !4928
  ret void, !dbg !4929
}

; Function Attrs: noinline optnone sspstrong uwtable
define linkonce_odr dso_local void @_Z14args_base_readI6AnyArg6StringEvP4ArgsPKciT_RT0_(%class.Args* %0, i8* %1, i32 %2, %class.String* dereferenceable(24) %3) local_unnamed_addr #8 comdat !dbg !4930 {
  %5 = alloca %class.AnyArg, align 1
  %6 = alloca %class.Args*, align 8
  %7 = alloca i8*, align 8
  %8 = alloca i32, align 4
  %9 = alloca %class.String*, align 8
  %10 = alloca %class.AnyArg, align 1
  store %class.Args* %0, %class.Args** %6, align 8, !tbaa !4087
  call void @llvm.dbg.declare(metadata %class.Args** %6, metadata !4932, metadata !DIExpression()), !dbg !4937
  store i8* %1, i8** %7, align 8, !tbaa !4087
  call void @llvm.dbg.declare(metadata i8** %7, metadata !4933, metadata !DIExpression()), !dbg !4938
  store i32 %2, i32* %8, align 4, !tbaa !3942
  call void @llvm.dbg.declare(metadata i32* %8, metadata !4934, metadata !DIExpression()), !dbg !4939
  call void @llvm.dbg.declare(metadata %class.AnyArg* %5, metadata !4935, metadata !DIExpression()), !dbg !4940
  store %class.String* %3, %class.String** %9, align 8, !tbaa !4087
  call void @llvm.dbg.declare(metadata %class.String** %9, metadata !4936, metadata !DIExpression()), !dbg !4941
  %11 = load %class.Args*, %class.Args** %6, align 8, !dbg !4942, !tbaa !4087
  %12 = load i8*, i8** %7, align 8, !dbg !4943, !tbaa !4087
  %13 = load i32, i32* %8, align 4, !dbg !4944, !tbaa !3942
  %14 = load %class.String*, %class.String** %9, align 8, !dbg !4945, !tbaa !4087
  call void @_ZN4Args9base_readI6AnyArg6StringEEvPKciT_RT0_(%class.Args* %11, i8* %12, i32 %13, %class.String* dereferenceable(24) %14), !dbg !4946
  ret void, !dbg !4947
}

; Function Attrs: sspstrong uwtable
define linkonce_odr dso_local void @_ZN4Args9base_readI6AnyArg6StringEEvPKciT_RT0_(%class.Args* %0, i8* %1, i32 %2, %class.String* dereferenceable(24) %3) local_unnamed_addr #0 comdat align 2 personality i8* bitcast (i32 (...)* @__gxx_personality_v0 to i8*) !dbg !4948 {
  %5 = alloca %"struct.Args::Slot"*, align 8
  %6 = alloca %class.String, align 8
  call void @llvm.dbg.value(metadata %class.Args* %0, metadata !4953, metadata !DIExpression()), !dbg !4963
  call void @llvm.dbg.value(metadata i8* %1, metadata !4954, metadata !DIExpression()), !dbg !4963
  call void @llvm.dbg.value(metadata i32 %2, metadata !4955, metadata !DIExpression()), !dbg !4963
  call void @llvm.dbg.value(metadata %class.String* %3, metadata !4957, metadata !DIExpression()), !dbg !4963
  %7 = bitcast %"struct.Args::Slot"** %5 to i8*, !dbg !4964
  call void @llvm.lifetime.start.p0i8(i64 8, i8* nonnull %7) #12, !dbg !4964
  %8 = bitcast %class.String* %6 to i8*, !dbg !4965
  call void @llvm.lifetime.start.p0i8(i64 24, i8* nonnull %8) #12, !dbg !4965
  call void @llvm.dbg.declare(metadata %class.String* %6, metadata !4959, metadata !DIExpression()), !dbg !4966
  call void @llvm.dbg.value(metadata %"struct.Args::Slot"** %5, metadata !4958, metadata !DIExpression(DW_OP_deref)), !dbg !4963
  call void @_ZN4Args4findEPKciRPNS_4SlotE(%class.String* nonnull sret %6, %class.Args* %0, i8* %1, i32 %2, %"struct.Args::Slot"** nonnull dereferenceable(8) %5), !dbg !4967
  call void @llvm.dbg.value(metadata %class.String* %6, metadata !4968, metadata !DIExpression()), !dbg !4971
  %9 = getelementptr inbounds %class.String, %class.String* %6, i64 0, i32 0, i32 1, !dbg !4973
  %10 = load i32, i32* %9, align 8, !dbg !4973, !tbaa !3676
  %11 = icmp eq i32 %10, 0, !dbg !4974
  %12 = select i1 %11, { i64, i64 } zeroinitializer, { i64, i64 } { i64 ptrtoint (i32 (%class.String*)* @_ZNK6String6lengthEv to i64), i64 0 }, !dbg !4975
  %13 = extractvalue { i64, i64 } %12, 0, !dbg !4966
  %14 = icmp eq i64 %13, 0, !dbg !4966
  br i1 %14, label %64, label %15, !dbg !4965

15:                                               ; preds = %4
  call void @llvm.dbg.value(metadata %class.String* %3, metadata !4976, metadata !DIExpression()), !dbg !4988
  call void @llvm.dbg.value(metadata %class.Args* %0, metadata !4987, metadata !DIExpression()), !dbg !4988
  call void @llvm.dbg.value(metadata %class.Args* %0, metadata !4990, metadata !DIExpression()), !dbg !4997
  call void @llvm.dbg.value(metadata %class.String* %3, metadata !4996, metadata !DIExpression()), !dbg !4997
  call void @llvm.dbg.value(metadata %class.Args* %0, metadata !4999, metadata !DIExpression()), !dbg !5019
  call void @llvm.dbg.value(metadata %class.String* %3, metadata !5003, metadata !DIExpression()), !dbg !5019
  %16 = invoke dereferenceable(48) i8* @_Znwm(i64 48) #15
          to label %17 unwind label %44, !dbg !5022

17:                                               ; preds = %15
  call void @llvm.dbg.value(metadata i8* %16, metadata !5023, metadata !DIExpression()), !dbg !5027
  call void @llvm.dbg.value(metadata %class.String* %3, metadata !5026, metadata !DIExpression()), !dbg !5027
  %18 = bitcast i8* %16 to i32 (...)***, !dbg !5029
  store i32 (...)** bitcast (i8** getelementptr inbounds ({ [5 x i8*] }, { [5 x i8*] }* @_ZTVN4Args5SlotTI6StringEE, i64 0, inrange i32 0, i64 2) to i32 (...)**), i32 (...)*** %18, align 8, !dbg !5029, !tbaa !3553
  %19 = getelementptr inbounds i8, i8* %16, i64 16, !dbg !5030
  %20 = bitcast i8* %19 to %class.String**, !dbg !5030
  store %class.String* %3, %class.String** %20, align 8, !dbg !5030, !tbaa !5031
  call void @llvm.dbg.value(metadata i8* %16, metadata !3655, metadata !DIExpression(DW_OP_plus_uconst, 24, DW_OP_stack_value)), !dbg !5033
  call void @llvm.dbg.value(metadata i8* %16, metadata !3660, metadata !DIExpression(DW_OP_plus_uconst, 24, DW_OP_stack_value)), !dbg !5035
  call void @llvm.dbg.value(metadata i8* @_ZN6String9null_dataE, metadata !3663, metadata !DIExpression()), !dbg !5035
  call void @llvm.dbg.value(metadata i32 0, metadata !3664, metadata !DIExpression()), !dbg !5035
  call void @llvm.dbg.value(metadata %"struct.String::memo_t"* null, metadata !3665, metadata !DIExpression()), !dbg !5035
  %21 = getelementptr inbounds i8, i8* %16, i64 24, !dbg !5037
  %22 = getelementptr inbounds i8, i8* %16, i64 32, !dbg !5038
  %23 = bitcast i8* %22 to i32*, !dbg !5038
  %24 = getelementptr inbounds i8, i8* %16, i64 40, !dbg !5039
  %25 = bitcast i8* %24 to %"struct.String::memo_t"**, !dbg !5039
  call void @llvm.dbg.value(metadata i8* %16, metadata !5004, metadata !DIExpression()), !dbg !5040
  %26 = getelementptr inbounds %class.Args, %class.Args* %0, i64 0, i32 6, !dbg !5041
  %27 = bitcast %"struct.Args::Slot"** %26 to i64*, !dbg !5041
  %28 = load i64, i64* %27, align 8, !dbg !5041, !tbaa !5043
  %29 = getelementptr inbounds i8, i8* %16, i64 8, !dbg !5047
  %30 = bitcast i8* %29 to i64*, !dbg !5048
  store i64 %28, i64* %30, align 8, !dbg !5048, !tbaa !5049
  %31 = bitcast %"struct.Args::Slot"** %26 to i8**, !dbg !5051
  store i8* %16, i8** %31, align 8, !dbg !5051, !tbaa !5043
  call void @llvm.dbg.value(metadata i8* %21, metadata !4961, metadata !DIExpression()), !dbg !5052
  call void @llvm.dbg.value(metadata %class.String* %6, metadata !5053, metadata !DIExpression()), !dbg !5062
  call void @llvm.dbg.value(metadata i8* %21, metadata !5060, metadata !DIExpression()), !dbg !5062
  call void @llvm.dbg.value(metadata %class.Args* %0, metadata !5061, metadata !DIExpression()), !dbg !5062
  call void @llvm.dbg.value(metadata %class.String* %6, metadata !5064, metadata !DIExpression()), !dbg !5069
  call void @llvm.dbg.value(metadata i8* %21, metadata !5067, metadata !DIExpression()), !dbg !5069
  call void @llvm.dbg.value(metadata %class.Args* %0, metadata !5068, metadata !DIExpression()), !dbg !5069
  call void @llvm.dbg.value(metadata i8* %21, metadata !5071, metadata !DIExpression()), !dbg !5075
  call void @llvm.dbg.value(metadata %class.String* %6, metadata !5074, metadata !DIExpression()), !dbg !5075
  call void @llvm.dbg.value(metadata i8* %21, metadata !3847, metadata !DIExpression()), !dbg !5077
  call void @llvm.dbg.value(metadata i8* %21, metadata !3813, metadata !DIExpression()), !dbg !5081
  call void @llvm.dbg.value(metadata %class.String* %6, metadata !3814, metadata !DIExpression()), !dbg !5081
  %32 = bitcast %class.String* %6 to i64*, !dbg !5083
  %33 = load i64, i64* %32, align 8, !dbg !5083, !tbaa !3671
  %34 = getelementptr inbounds %class.String, %class.String* %6, i64 0, i32 0, i32 2, !dbg !5084
  %35 = load %"struct.String::memo_t"*, %"struct.String::memo_t"** %34, align 8, !dbg !5084, !tbaa !3680
  call void @llvm.dbg.value(metadata i8* %21, metadata !3660, metadata !DIExpression()), !dbg !5085
  call void @llvm.dbg.value(metadata i8* undef, metadata !3663, metadata !DIExpression()), !dbg !5085
  call void @llvm.dbg.value(metadata i32 %10, metadata !3664, metadata !DIExpression()), !dbg !5085
  call void @llvm.dbg.value(metadata %"struct.String::memo_t"* %35, metadata !3665, metadata !DIExpression()), !dbg !5085
  %36 = bitcast i8* %21 to i64*, !dbg !5087
  store i64 %33, i64* %36, align 8, !dbg !5087, !tbaa !3671
  store i32 %10, i32* %23, align 8, !dbg !5088, !tbaa !3676
  store %"struct.String::memo_t"* %35, %"struct.String::memo_t"** %25, align 8, !dbg !5089, !tbaa !3680
  %37 = icmp eq %"struct.String::memo_t"* %35, null, !dbg !5090
  br i1 %37, label %42, label %38, !dbg !5091

38:                                               ; preds = %17
  %39 = getelementptr inbounds %"struct.String::memo_t", %"struct.String::memo_t"* %35, i64 0, i32 0, !dbg !5092
  call void @llvm.dbg.value(metadata i32* %39, metadata !3936, metadata !DIExpression()), !dbg !5093
  %40 = load volatile i32, i32* %39, align 4, !dbg !5095, !tbaa !3942
  %41 = add i32 %40, 1, !dbg !5095
  store volatile i32 %41, i32* %39, align 4, !dbg !5095, !tbaa !3942
  br label %42, !dbg !5096

42:                                               ; preds = %38, %17
  %43 = load %"struct.Args::Slot"*, %"struct.Args::Slot"** %5, align 8, !dbg !5097, !tbaa !4087
  call void @llvm.dbg.value(metadata %"struct.Args::Slot"* %43, metadata !4958, metadata !DIExpression()), !dbg !4963
  invoke void @_ZN4Args9postparseEbPNS_4SlotE(%class.Args* nonnull %0, i1 zeroext true, %"struct.Args::Slot"* %43)
          to label %64 unwind label %44, !dbg !5098

44:                                               ; preds = %15, %42
  %45 = landingpad { i8*, i32 }
          cleanup, !dbg !5099
  call void @llvm.dbg.value(metadata %class.String* %6, metadata !3852, metadata !DIExpression()) #12, !dbg !5100
  call void @llvm.dbg.value(metadata %class.String* %6, metadata !3847, metadata !DIExpression()) #12, !dbg !5102
  %46 = getelementptr inbounds %class.String, %class.String* %6, i64 0, i32 0, i32 2, !dbg !5104
  %47 = load %"struct.String::memo_t"*, %"struct.String::memo_t"** %46, align 8, !dbg !5104, !tbaa !3680
  %48 = icmp eq %"struct.String::memo_t"* %47, null, !dbg !5105
  br i1 %48, label %63, label %49, !dbg !5106

49:                                               ; preds = %44
  %50 = getelementptr inbounds %"struct.String::memo_t", %"struct.String::memo_t"* %47, i64 0, i32 0, !dbg !5107
  %51 = load volatile i32, i32* %50, align 4, !dbg !5107, !tbaa !4030
  %52 = icmp eq i32 %51, 0, !dbg !5107
  br i1 %52, label %53, label %54, !dbg !5107

53:                                               ; preds = %49
  call void @__assert_fail(i8* getelementptr inbounds ([18 x i8], [18 x i8]* @.str.9, i64 0, i64 0), i8* getelementptr inbounds ([29 x i8], [29 x i8]* @.str.10, i64 0, i64 0), i32 273, i8* getelementptr inbounds ([27 x i8], [27 x i8]* @__PRETTY_FUNCTION__._ZNK6String5derefEv, i64 0, i64 0)) #14, !dbg !5107
  unreachable, !dbg !5107

54:                                               ; preds = %49
  call void @llvm.dbg.value(metadata i32* %50, metadata !4032, metadata !DIExpression()) #12, !dbg !5108
  %55 = load volatile i32, i32* %50, align 4, !dbg !5110, !tbaa !3942
  %56 = add i32 %55, -1, !dbg !5110
  store volatile i32 %56, i32* %50, align 4, !dbg !5110, !tbaa !3942
  %57 = icmp eq i32 %56, 0, !dbg !5111
  br i1 %57, label %58, label %59, !dbg !5112

58:                                               ; preds = %54
  invoke void @_ZN6String11delete_memoEPNS_6memo_tE(%"struct.String::memo_t"* nonnull %47)
          to label %59 unwind label %60, !dbg !5113

59:                                               ; preds = %58, %54
  store %"struct.String::memo_t"* null, %"struct.String::memo_t"** %46, align 8, !dbg !5114, !tbaa !3680
  br label %63, !dbg !5115

60:                                               ; preds = %58
  %61 = landingpad { i8*, i32 }
          catch i8* null, !dbg !5116
  %62 = extractvalue { i8*, i32 } %61, 0, !dbg !5116
  call void @__clang_call_terminate(i8* %62) #14, !dbg !5116
  unreachable, !dbg !5116

63:                                               ; preds = %44, %59
  call void @llvm.lifetime.end.p0i8(i64 24, i8* nonnull %8) #12, !dbg !4965
  call void @llvm.lifetime.end.p0i8(i64 8, i8* nonnull %7) #12, !dbg !5117
  resume { i8*, i32 } %45, !dbg !5117

64:                                               ; preds = %42, %4
  call void @llvm.dbg.value(metadata %class.String* %6, metadata !3852, metadata !DIExpression()) #12, !dbg !5118
  call void @llvm.dbg.value(metadata %class.String* %6, metadata !3847, metadata !DIExpression()) #12, !dbg !5120
  %65 = getelementptr inbounds %class.String, %class.String* %6, i64 0, i32 0, i32 2, !dbg !5122
  %66 = load %"struct.String::memo_t"*, %"struct.String::memo_t"** %65, align 8, !dbg !5122, !tbaa !3680
  %67 = icmp eq %"struct.String::memo_t"* %66, null, !dbg !5123
  br i1 %67, label %82, label %68, !dbg !5124

68:                                               ; preds = %64
  %69 = getelementptr inbounds %"struct.String::memo_t", %"struct.String::memo_t"* %66, i64 0, i32 0, !dbg !5125
  %70 = load volatile i32, i32* %69, align 4, !dbg !5125, !tbaa !4030
  %71 = icmp eq i32 %70, 0, !dbg !5125
  br i1 %71, label %72, label %73, !dbg !5125

72:                                               ; preds = %68
  call void @__assert_fail(i8* getelementptr inbounds ([18 x i8], [18 x i8]* @.str.9, i64 0, i64 0), i8* getelementptr inbounds ([29 x i8], [29 x i8]* @.str.10, i64 0, i64 0), i32 273, i8* getelementptr inbounds ([27 x i8], [27 x i8]* @__PRETTY_FUNCTION__._ZNK6String5derefEv, i64 0, i64 0)) #14, !dbg !5125
  unreachable, !dbg !5125

73:                                               ; preds = %68
  call void @llvm.dbg.value(metadata i32* %69, metadata !4032, metadata !DIExpression()) #12, !dbg !5126
  %74 = load volatile i32, i32* %69, align 4, !dbg !5128, !tbaa !3942
  %75 = add i32 %74, -1, !dbg !5128
  store volatile i32 %75, i32* %69, align 4, !dbg !5128, !tbaa !3942
  %76 = icmp eq i32 %75, 0, !dbg !5129
  br i1 %76, label %77, label %78, !dbg !5130

77:                                               ; preds = %73
  invoke void @_ZN6String11delete_memoEPNS_6memo_tE(%"struct.String::memo_t"* nonnull %66)
          to label %78 unwind label %79, !dbg !5131

78:                                               ; preds = %77, %73
  store %"struct.String::memo_t"* null, %"struct.String::memo_t"** %65, align 8, !dbg !5132, !tbaa !3680
  br label %82, !dbg !5133

79:                                               ; preds = %77
  %80 = landingpad { i8*, i32 }
          catch i8* null, !dbg !5134
  %81 = extractvalue { i8*, i32 } %80, 0, !dbg !5134
  call void @__clang_call_terminate(i8* %81) #14, !dbg !5134
  unreachable, !dbg !5134

82:                                               ; preds = %64, %78
  call void @llvm.lifetime.end.p0i8(i64 24, i8* nonnull %8) #12, !dbg !4965
  call void @llvm.lifetime.end.p0i8(i64 8, i8* nonnull %7) #12, !dbg !5117
  ret void, !dbg !5117
}

declare void @_ZN4Args4findEPKciRPNS_4SlotE(%class.String* sret, %class.Args*, i8*, i32, %"struct.Args::Slot"** dereferenceable(8)) local_unnamed_addr #2

declare void @_ZN4Args9postparseEbPNS_4SlotE(%class.Args*, i1 zeroext, %"struct.Args::Slot"*) local_unnamed_addr #2

; Function Attrs: inlinehint nounwind sspstrong uwtable
define linkonce_odr dso_local i32 @_ZNK6String6lengthEv(%class.String* %0) #7 comdat align 2 !dbg !5135 {
  call void @llvm.dbg.value(metadata %class.String* %0, metadata !5137, metadata !DIExpression()), !dbg !5138
  %2 = getelementptr inbounds %class.String, %class.String* %0, i64 0, i32 0, i32 1, !dbg !5139
  %3 = load i32, i32* %2, align 8, !dbg !5139, !tbaa !3676
  ret i32 %3, !dbg !5140
}

; Function Attrs: nobuiltin nofree
declare noalias nonnull i8* @_Znwm(i64) local_unnamed_addr #11

declare void @_ZNK10ArgContext5errorEPKcz(%class.ArgContext*, i8*, ...) local_unnamed_addr #2

; Function Attrs: inlinehint nounwind sspstrong uwtable
define linkonce_odr dso_local void @_ZN4Args5SlotTI6StringED2Ev(%"struct.Args::SlotT"* %0) unnamed_addr #7 comdat align 2 personality i32 (...)* @__gxx_personality_v0 !dbg !5141 {
  call void @llvm.dbg.value(metadata %"struct.Args::SlotT"* %0, metadata !5144, metadata !DIExpression()), !dbg !5145
  %2 = getelementptr %"struct.Args::SlotT", %"struct.Args::SlotT"* %0, i64 0, i32 0, i32 0, !dbg !5146
  store i32 (...)** bitcast (i8** getelementptr inbounds ({ [5 x i8*] }, { [5 x i8*] }* @_ZTVN4Args5SlotTI6StringEE, i64 0, inrange i32 0, i64 2) to i32 (...)**), i32 (...)*** %2, align 8, !dbg !5146, !tbaa !3553
  call void @llvm.dbg.value(metadata %"struct.Args::SlotT"* %0, metadata !3852, metadata !DIExpression(DW_OP_plus_uconst, 24, DW_OP_stack_value)) #12, !dbg !5147
  call void @llvm.dbg.value(metadata %"struct.Args::SlotT"* %0, metadata !3847, metadata !DIExpression(DW_OP_plus_uconst, 24, DW_OP_stack_value)) #12, !dbg !5150
  %3 = getelementptr inbounds %"struct.Args::SlotT", %"struct.Args::SlotT"* %0, i64 0, i32 2, i32 0, i32 2, !dbg !5152
  %4 = load %"struct.String::memo_t"*, %"struct.String::memo_t"** %3, align 8, !dbg !5152, !tbaa !3680
  %5 = icmp eq %"struct.String::memo_t"* %4, null, !dbg !5153
  br i1 %5, label %20, label %6, !dbg !5154

6:                                                ; preds = %1
  %7 = getelementptr inbounds %"struct.String::memo_t", %"struct.String::memo_t"* %4, i64 0, i32 0, !dbg !5155
  %8 = load volatile i32, i32* %7, align 4, !dbg !5155, !tbaa !4030
  %9 = icmp eq i32 %8, 0, !dbg !5155
  br i1 %9, label %10, label %11, !dbg !5155

10:                                               ; preds = %6
  tail call void @__assert_fail(i8* getelementptr inbounds ([18 x i8], [18 x i8]* @.str.9, i64 0, i64 0), i8* getelementptr inbounds ([29 x i8], [29 x i8]* @.str.10, i64 0, i64 0), i32 273, i8* getelementptr inbounds ([27 x i8], [27 x i8]* @__PRETTY_FUNCTION__._ZNK6String5derefEv, i64 0, i64 0)) #14, !dbg !5155
  unreachable, !dbg !5155

11:                                               ; preds = %6
  call void @llvm.dbg.value(metadata i32* %7, metadata !4032, metadata !DIExpression()) #12, !dbg !5156
  %12 = load volatile i32, i32* %7, align 4, !dbg !5158, !tbaa !3942
  %13 = add i32 %12, -1, !dbg !5158
  store volatile i32 %13, i32* %7, align 4, !dbg !5158, !tbaa !3942
  %14 = icmp eq i32 %13, 0, !dbg !5159
  br i1 %14, label %15, label %16, !dbg !5160

15:                                               ; preds = %11
  invoke void @_ZN6String11delete_memoEPNS_6memo_tE(%"struct.String::memo_t"* nonnull %4)
          to label %16 unwind label %17, !dbg !5161

16:                                               ; preds = %15, %11
  store %"struct.String::memo_t"* null, %"struct.String::memo_t"** %3, align 8, !dbg !5162, !tbaa !3680
  br label %20, !dbg !5163

17:                                               ; preds = %15
  %18 = landingpad { i8*, i32 }
          catch i8* null, !dbg !5164
  %19 = extractvalue { i8*, i32 } %18, 0, !dbg !5164
  tail call void @__clang_call_terminate(i8* %19) #14, !dbg !5164
  unreachable, !dbg !5164

20:                                               ; preds = %1, %16
  ret void, !dbg !5146
}

; Function Attrs: inlinehint nounwind sspstrong uwtable
define linkonce_odr dso_local void @_ZN4Args5SlotTI6StringED0Ev(%"struct.Args::SlotT"* %0) unnamed_addr #7 comdat align 2 personality i32 (...)* @__gxx_personality_v0 !dbg !5165 {
  call void @llvm.dbg.value(metadata %"struct.Args::SlotT"* %0, metadata !5167, metadata !DIExpression()), !dbg !5168
  call void @llvm.dbg.value(metadata %"struct.Args::SlotT"* %0, metadata !5144, metadata !DIExpression()) #12, !dbg !5169
  %2 = getelementptr %"struct.Args::SlotT", %"struct.Args::SlotT"* %0, i64 0, i32 0, i32 0, !dbg !5171
  store i32 (...)** bitcast (i8** getelementptr inbounds ({ [5 x i8*] }, { [5 x i8*] }* @_ZTVN4Args5SlotTI6StringEE, i64 0, inrange i32 0, i64 2) to i32 (...)**), i32 (...)*** %2, align 8, !dbg !5171, !tbaa !3553
  call void @llvm.dbg.value(metadata %"struct.Args::SlotT"* %0, metadata !3852, metadata !DIExpression(DW_OP_plus_uconst, 24, DW_OP_stack_value)) #12, !dbg !5172
  call void @llvm.dbg.value(metadata %"struct.Args::SlotT"* %0, metadata !3847, metadata !DIExpression(DW_OP_plus_uconst, 24, DW_OP_stack_value)) #12, !dbg !5174
  %3 = getelementptr inbounds %"struct.Args::SlotT", %"struct.Args::SlotT"* %0, i64 0, i32 2, i32 0, i32 2, !dbg !5176
  %4 = load %"struct.String::memo_t"*, %"struct.String::memo_t"** %3, align 8, !dbg !5176, !tbaa !3680
  %5 = icmp eq %"struct.String::memo_t"* %4, null, !dbg !5177
  br i1 %5, label %19, label %6, !dbg !5178

6:                                                ; preds = %1
  %7 = getelementptr inbounds %"struct.String::memo_t", %"struct.String::memo_t"* %4, i64 0, i32 0, !dbg !5179
  %8 = load volatile i32, i32* %7, align 4, !dbg !5179, !tbaa !4030
  %9 = icmp eq i32 %8, 0, !dbg !5179
  br i1 %9, label %10, label %11, !dbg !5179

10:                                               ; preds = %6
  tail call void @__assert_fail(i8* getelementptr inbounds ([18 x i8], [18 x i8]* @.str.9, i64 0, i64 0), i8* getelementptr inbounds ([29 x i8], [29 x i8]* @.str.10, i64 0, i64 0), i32 273, i8* getelementptr inbounds ([27 x i8], [27 x i8]* @__PRETTY_FUNCTION__._ZNK6String5derefEv, i64 0, i64 0)) #14, !dbg !5179
  unreachable, !dbg !5179

11:                                               ; preds = %6
  call void @llvm.dbg.value(metadata i32* %7, metadata !4032, metadata !DIExpression()) #12, !dbg !5180
  %12 = load volatile i32, i32* %7, align 4, !dbg !5182, !tbaa !3942
  %13 = add i32 %12, -1, !dbg !5182
  store volatile i32 %13, i32* %7, align 4, !dbg !5182, !tbaa !3942
  %14 = icmp eq i32 %13, 0, !dbg !5183
  br i1 %14, label %15, label %19, !dbg !5184

15:                                               ; preds = %11
  invoke void @_ZN6String11delete_memoEPNS_6memo_tE(%"struct.String::memo_t"* nonnull %4)
          to label %19 unwind label %16, !dbg !5185

16:                                               ; preds = %15
  %17 = landingpad { i8*, i32 }
          catch i8* null, !dbg !5186
  %18 = extractvalue { i8*, i32 } %17, 0, !dbg !5186
  tail call void @__clang_call_terminate(i8* %18) #14, !dbg !5186
  unreachable, !dbg !5186

19:                                               ; preds = %11, %15, %1
  %20 = bitcast %"struct.Args::SlotT"* %0 to i8*, !dbg !5187
  tail call void @_ZdlPv(i8* %20) #13, !dbg !5187
  ret void, !dbg !5187
}

; Function Attrs: sspstrong uwtable
define linkonce_odr dso_local void @_ZN4Args5SlotTI6StringE5storeEv(%"struct.Args::SlotT"* %0) unnamed_addr #0 comdat align 2 !dbg !5188 {
  call void @llvm.dbg.value(metadata %"struct.Args::SlotT"* %0, metadata !5190, metadata !DIExpression()), !dbg !5191
  %2 = getelementptr inbounds %"struct.Args::SlotT", %"struct.Args::SlotT"* %0, i64 0, i32 1, !dbg !5192
  %3 = load %class.String*, %class.String** %2, align 8, !dbg !5192, !tbaa !5031
  %4 = getelementptr inbounds %"struct.Args::SlotT", %"struct.Args::SlotT"* %0, i64 0, i32 2, !dbg !5193
  call void @llvm.dbg.value(metadata %class.String* %3, metadata !5194, metadata !DIExpression()), !dbg !5203
  call void @llvm.dbg.value(metadata %class.String* %4, metadata !5200, metadata !DIExpression()), !dbg !5203
  call void @llvm.dbg.value(metadata %class.String* %3, metadata !5071, metadata !DIExpression()), !dbg !5205
  call void @llvm.dbg.value(metadata %class.String* %4, metadata !5074, metadata !DIExpression()), !dbg !5205
  %5 = icmp eq %class.String* %4, %3, !dbg !5207
  br i1 %5, label %35, label %6, !dbg !5208, !prof !5209, !misexpect !5210

6:                                                ; preds = %1
  call void @llvm.dbg.value(metadata %class.String* %3, metadata !3847, metadata !DIExpression()), !dbg !5211
  %7 = getelementptr inbounds %class.String, %class.String* %3, i64 0, i32 0, i32 2, !dbg !5213
  %8 = load %"struct.String::memo_t"*, %"struct.String::memo_t"** %7, align 8, !dbg !5213, !tbaa !3680
  %9 = icmp eq %"struct.String::memo_t"* %8, null, !dbg !5214
  br i1 %9, label %21, label %10, !dbg !5215

10:                                               ; preds = %6
  %11 = getelementptr inbounds %"struct.String::memo_t", %"struct.String::memo_t"* %8, i64 0, i32 0, !dbg !5216
  %12 = load volatile i32, i32* %11, align 4, !dbg !5216, !tbaa !4030
  %13 = icmp eq i32 %12, 0, !dbg !5216
  br i1 %13, label %14, label %15, !dbg !5216

14:                                               ; preds = %10
  tail call void @__assert_fail(i8* getelementptr inbounds ([18 x i8], [18 x i8]* @.str.9, i64 0, i64 0), i8* getelementptr inbounds ([29 x i8], [29 x i8]* @.str.10, i64 0, i64 0), i32 273, i8* getelementptr inbounds ([27 x i8], [27 x i8]* @__PRETTY_FUNCTION__._ZNK6String5derefEv, i64 0, i64 0)) #14, !dbg !5216
  unreachable, !dbg !5216

15:                                               ; preds = %10
  call void @llvm.dbg.value(metadata i32* %11, metadata !4032, metadata !DIExpression()), !dbg !5217
  %16 = load volatile i32, i32* %11, align 4, !dbg !5219, !tbaa !3942
  %17 = add i32 %16, -1, !dbg !5219
  store volatile i32 %17, i32* %11, align 4, !dbg !5219, !tbaa !3942
  %18 = icmp eq i32 %17, 0, !dbg !5220
  br i1 %18, label %19, label %20, !dbg !5221

19:                                               ; preds = %15
  tail call void @_ZN6String11delete_memoEPNS_6memo_tE(%"struct.String::memo_t"* nonnull %8), !dbg !5222
  br label %20, !dbg !5222

20:                                               ; preds = %19, %15
  store %"struct.String::memo_t"* null, %"struct.String::memo_t"** %7, align 8, !dbg !5223, !tbaa !3680
  br label %21, !dbg !5224

21:                                               ; preds = %20, %6
  call void @llvm.dbg.value(metadata %class.String* %3, metadata !3813, metadata !DIExpression()), !dbg !5225
  call void @llvm.dbg.value(metadata %class.String* %4, metadata !3814, metadata !DIExpression()), !dbg !5225
  %22 = bitcast %class.String* %4 to i64*, !dbg !5227
  %23 = load i64, i64* %22, align 8, !dbg !5227, !tbaa !3671
  %24 = getelementptr inbounds %"struct.Args::SlotT", %"struct.Args::SlotT"* %0, i64 0, i32 2, i32 0, i32 1, !dbg !5228
  %25 = load i32, i32* %24, align 8, !dbg !5228, !tbaa !3676
  %26 = getelementptr inbounds %"struct.Args::SlotT", %"struct.Args::SlotT"* %0, i64 0, i32 2, i32 0, i32 2, !dbg !5229
  %27 = load %"struct.String::memo_t"*, %"struct.String::memo_t"** %26, align 8, !dbg !5229, !tbaa !3680
  call void @llvm.dbg.value(metadata %class.String* %3, metadata !3660, metadata !DIExpression()), !dbg !5230
  call void @llvm.dbg.value(metadata i8* undef, metadata !3663, metadata !DIExpression()), !dbg !5230
  call void @llvm.dbg.value(metadata i32 %25, metadata !3664, metadata !DIExpression()), !dbg !5230
  call void @llvm.dbg.value(metadata %"struct.String::memo_t"* %27, metadata !3665, metadata !DIExpression()), !dbg !5230
  %28 = bitcast %class.String* %3 to i64*, !dbg !5232
  store i64 %23, i64* %28, align 8, !dbg !5232, !tbaa !3671
  %29 = getelementptr inbounds %class.String, %class.String* %3, i64 0, i32 0, i32 1, !dbg !5233
  store i32 %25, i32* %29, align 8, !dbg !5234, !tbaa !3676
  store %"struct.String::memo_t"* %27, %"struct.String::memo_t"** %7, align 8, !dbg !5235, !tbaa !3680
  %30 = icmp eq %"struct.String::memo_t"* %27, null, !dbg !5236
  br i1 %30, label %35, label %31, !dbg !5237

31:                                               ; preds = %21
  %32 = getelementptr inbounds %"struct.String::memo_t", %"struct.String::memo_t"* %27, i64 0, i32 0, !dbg !5238
  call void @llvm.dbg.value(metadata i32* %32, metadata !3936, metadata !DIExpression()), !dbg !5239
  %33 = load volatile i32, i32* %32, align 4, !dbg !5241, !tbaa !3942
  %34 = add i32 %33, 1, !dbg !5241
  store volatile i32 %34, i32* %32, align 4, !dbg !5241, !tbaa !3942
  br label %35, !dbg !5242

35:                                               ; preds = %1, %21, %31
  ret void, !dbg !5243
}

; Function Attrs: noinline optnone sspstrong uwtable
define linkonce_odr dso_local void @_Z14args_base_readIbEvP4ArgsPKciRT_(%class.Args* %0, i8* %1, i32 %2, i8* dereferenceable(1) %3) local_unnamed_addr #8 comdat !dbg !5244 {
  %5 = alloca %class.Args*, align 8
  %6 = alloca i8*, align 8
  %7 = alloca i32, align 4
  %8 = alloca i8*, align 8
  store %class.Args* %0, %class.Args** %5, align 8, !tbaa !4087
  call void @llvm.dbg.declare(metadata %class.Args** %5, metadata !5246, metadata !DIExpression()), !dbg !5250
  store i8* %1, i8** %6, align 8, !tbaa !4087
  call void @llvm.dbg.declare(metadata i8** %6, metadata !5247, metadata !DIExpression()), !dbg !5251
  store i32 %2, i32* %7, align 4, !tbaa !3942
  call void @llvm.dbg.declare(metadata i32* %7, metadata !5248, metadata !DIExpression()), !dbg !5252
  store i8* %3, i8** %8, align 8, !tbaa !4087
  call void @llvm.dbg.declare(metadata i8** %8, metadata !5249, metadata !DIExpression()), !dbg !5253
  %9 = load %class.Args*, %class.Args** %5, align 8, !dbg !5254, !tbaa !4087
  %10 = load i8*, i8** %6, align 8, !dbg !5255, !tbaa !4087
  %11 = load i32, i32* %7, align 4, !dbg !5256, !tbaa !3942
  %12 = load i8*, i8** %8, align 8, !dbg !5257, !tbaa !4087
  call void @_ZN4Args9base_readIbEEvPKciRT_(%class.Args* %9, i8* %10, i32 %11, i8* dereferenceable(1) %12), !dbg !5258
  ret void, !dbg !5259
}

; Function Attrs: sspstrong uwtable
define linkonce_odr dso_local void @_ZN4Args9base_readIbEEvPKciRT_(%class.Args* %0, i8* %1, i32 %2, i8* dereferenceable(1) %3) local_unnamed_addr #0 comdat align 2 personality i8* bitcast (i32 (...)* @__gxx_personality_v0 to i8*) !dbg !5260 {
  %5 = alloca %"struct.Args::Slot"*, align 8
  %6 = alloca %class.String, align 8
  call void @llvm.dbg.value(metadata %class.Args* %0, metadata !5265, metadata !DIExpression()), !dbg !5274
  call void @llvm.dbg.value(metadata i8* %1, metadata !5266, metadata !DIExpression()), !dbg !5274
  call void @llvm.dbg.value(metadata i32 %2, metadata !5267, metadata !DIExpression()), !dbg !5274
  call void @llvm.dbg.value(metadata i8* %3, metadata !5268, metadata !DIExpression()), !dbg !5274
  %7 = bitcast %"struct.Args::Slot"** %5 to i8*, !dbg !5275
  call void @llvm.lifetime.start.p0i8(i64 8, i8* nonnull %7) #12, !dbg !5275
  %8 = bitcast %class.String* %6 to i8*, !dbg !5276
  call void @llvm.lifetime.start.p0i8(i64 24, i8* nonnull %8) #12, !dbg !5276
  call void @llvm.dbg.declare(metadata %class.String* %6, metadata !5270, metadata !DIExpression()), !dbg !5277
  call void @llvm.dbg.value(metadata %"struct.Args::Slot"** %5, metadata !5269, metadata !DIExpression(DW_OP_deref)), !dbg !5274
  call void @_ZN4Args4findEPKciRPNS_4SlotE(%class.String* nonnull sret %6, %class.Args* %0, i8* %1, i32 %2, %"struct.Args::Slot"** nonnull dereferenceable(8) %5), !dbg !5278
  call void @llvm.dbg.value(metadata %class.String* %6, metadata !4968, metadata !DIExpression()), !dbg !5279
  %9 = getelementptr inbounds %class.String, %class.String* %6, i64 0, i32 0, i32 1, !dbg !5281
  %10 = load i32, i32* %9, align 8, !dbg !5281, !tbaa !3676
  %11 = icmp eq i32 %10, 0, !dbg !5282
  %12 = select i1 %11, { i64, i64 } zeroinitializer, { i64, i64 } { i64 ptrtoint (i32 (%class.String*)* @_ZNK6String6lengthEv to i64), i64 0 }, !dbg !5283
  %13 = extractvalue { i64, i64 } %12, 0, !dbg !5277
  %14 = icmp eq i64 %13, 0, !dbg !5277
  br i1 %14, label %45, label %15, !dbg !5276

15:                                               ; preds = %4
  call void @llvm.dbg.value(metadata i8* %3, metadata !5284, metadata !DIExpression()), !dbg !5306
  call void @llvm.dbg.value(metadata %class.Args* %0, metadata !5305, metadata !DIExpression()), !dbg !5306
  call void @llvm.dbg.value(metadata %class.Args* %0, metadata !5308, metadata !DIExpression()), !dbg !5315
  call void @llvm.dbg.value(metadata i8* %3, metadata !5314, metadata !DIExpression()), !dbg !5315
  %16 = invoke i8* @_ZN4Args11simple_slotEPvm(%class.Args* nonnull %0, i8* nonnull %3, i64 1)
          to label %17 unwind label %25, !dbg !5317

17:                                               ; preds = %15
  call void @llvm.dbg.value(metadata i8* %16, metadata !5272, metadata !DIExpression()), !dbg !5319
  %18 = icmp eq i8* %16, null, !dbg !5320
  br i1 %18, label %22, label %19, !dbg !5321

19:                                               ; preds = %17
  call void @llvm.dbg.value(metadata %class.String* %6, metadata !5322, metadata !DIExpression()), !dbg !5331
  call void @llvm.dbg.value(metadata i8* %16, metadata !5329, metadata !DIExpression()), !dbg !5331
  call void @llvm.dbg.value(metadata %class.Args* %0, metadata !5330, metadata !DIExpression()), !dbg !5331
  %20 = bitcast %class.Args* %0 to %class.ArgContext*, !dbg !5333
  %21 = invoke zeroext i1 @_ZN7BoolArg5parseERK6StringRbRK10ArgContext(%class.String* nonnull dereferenceable(24) %6, i8* nonnull dereferenceable(1) %16, %class.ArgContext* nonnull dereferenceable(32) %20)
          to label %22 unwind label %25, !dbg !5334

22:                                               ; preds = %19, %17
  %23 = phi i1 [ false, %17 ], [ %21, %19 ], !dbg !5319
  %24 = load %"struct.Args::Slot"*, %"struct.Args::Slot"** %5, align 8, !dbg !5335, !tbaa !4087
  call void @llvm.dbg.value(metadata %"struct.Args::Slot"* %24, metadata !5269, metadata !DIExpression()), !dbg !5274
  invoke void @_ZN4Args9postparseEbPNS_4SlotE(%class.Args* nonnull %0, i1 zeroext %23, %"struct.Args::Slot"* %24)
          to label %45 unwind label %25, !dbg !5336

25:                                               ; preds = %19, %15, %22
  %26 = landingpad { i8*, i32 }
          cleanup, !dbg !5337
  call void @llvm.dbg.value(metadata %class.String* %6, metadata !3852, metadata !DIExpression()) #12, !dbg !5338
  call void @llvm.dbg.value(metadata %class.String* %6, metadata !3847, metadata !DIExpression()) #12, !dbg !5340
  %27 = getelementptr inbounds %class.String, %class.String* %6, i64 0, i32 0, i32 2, !dbg !5342
  %28 = load %"struct.String::memo_t"*, %"struct.String::memo_t"** %27, align 8, !dbg !5342, !tbaa !3680
  %29 = icmp eq %"struct.String::memo_t"* %28, null, !dbg !5343
  br i1 %29, label %44, label %30, !dbg !5344

30:                                               ; preds = %25
  %31 = getelementptr inbounds %"struct.String::memo_t", %"struct.String::memo_t"* %28, i64 0, i32 0, !dbg !5345
  %32 = load volatile i32, i32* %31, align 4, !dbg !5345, !tbaa !4030
  %33 = icmp eq i32 %32, 0, !dbg !5345
  br i1 %33, label %34, label %35, !dbg !5345

34:                                               ; preds = %30
  call void @__assert_fail(i8* getelementptr inbounds ([18 x i8], [18 x i8]* @.str.9, i64 0, i64 0), i8* getelementptr inbounds ([29 x i8], [29 x i8]* @.str.10, i64 0, i64 0), i32 273, i8* getelementptr inbounds ([27 x i8], [27 x i8]* @__PRETTY_FUNCTION__._ZNK6String5derefEv, i64 0, i64 0)) #14, !dbg !5345
  unreachable, !dbg !5345

35:                                               ; preds = %30
  call void @llvm.dbg.value(metadata i32* %31, metadata !4032, metadata !DIExpression()) #12, !dbg !5346
  %36 = load volatile i32, i32* %31, align 4, !dbg !5348, !tbaa !3942
  %37 = add i32 %36, -1, !dbg !5348
  store volatile i32 %37, i32* %31, align 4, !dbg !5348, !tbaa !3942
  %38 = icmp eq i32 %37, 0, !dbg !5349
  br i1 %38, label %39, label %40, !dbg !5350

39:                                               ; preds = %35
  invoke void @_ZN6String11delete_memoEPNS_6memo_tE(%"struct.String::memo_t"* nonnull %28)
          to label %40 unwind label %41, !dbg !5351

40:                                               ; preds = %39, %35
  store %"struct.String::memo_t"* null, %"struct.String::memo_t"** %27, align 8, !dbg !5352, !tbaa !3680
  br label %44, !dbg !5353

41:                                               ; preds = %39
  %42 = landingpad { i8*, i32 }
          catch i8* null, !dbg !5354
  %43 = extractvalue { i8*, i32 } %42, 0, !dbg !5354
  call void @__clang_call_terminate(i8* %43) #14, !dbg !5354
  unreachable, !dbg !5354

44:                                               ; preds = %25, %40
  call void @llvm.lifetime.end.p0i8(i64 24, i8* nonnull %8) #12, !dbg !5276
  call void @llvm.lifetime.end.p0i8(i64 8, i8* nonnull %7) #12, !dbg !5355
  resume { i8*, i32 } %26, !dbg !5355

45:                                               ; preds = %22, %4
  call void @llvm.dbg.value(metadata %class.String* %6, metadata !3852, metadata !DIExpression()) #12, !dbg !5356
  call void @llvm.dbg.value(metadata %class.String* %6, metadata !3847, metadata !DIExpression()) #12, !dbg !5358
  %46 = getelementptr inbounds %class.String, %class.String* %6, i64 0, i32 0, i32 2, !dbg !5360
  %47 = load %"struct.String::memo_t"*, %"struct.String::memo_t"** %46, align 8, !dbg !5360, !tbaa !3680
  %48 = icmp eq %"struct.String::memo_t"* %47, null, !dbg !5361
  br i1 %48, label %63, label %49, !dbg !5362

49:                                               ; preds = %45
  %50 = getelementptr inbounds %"struct.String::memo_t", %"struct.String::memo_t"* %47, i64 0, i32 0, !dbg !5363
  %51 = load volatile i32, i32* %50, align 4, !dbg !5363, !tbaa !4030
  %52 = icmp eq i32 %51, 0, !dbg !5363
  br i1 %52, label %53, label %54, !dbg !5363

53:                                               ; preds = %49
  call void @__assert_fail(i8* getelementptr inbounds ([18 x i8], [18 x i8]* @.str.9, i64 0, i64 0), i8* getelementptr inbounds ([29 x i8], [29 x i8]* @.str.10, i64 0, i64 0), i32 273, i8* getelementptr inbounds ([27 x i8], [27 x i8]* @__PRETTY_FUNCTION__._ZNK6String5derefEv, i64 0, i64 0)) #14, !dbg !5363
  unreachable, !dbg !5363

54:                                               ; preds = %49
  call void @llvm.dbg.value(metadata i32* %50, metadata !4032, metadata !DIExpression()) #12, !dbg !5364
  %55 = load volatile i32, i32* %50, align 4, !dbg !5366, !tbaa !3942
  %56 = add i32 %55, -1, !dbg !5366
  store volatile i32 %56, i32* %50, align 4, !dbg !5366, !tbaa !3942
  %57 = icmp eq i32 %56, 0, !dbg !5367
  br i1 %57, label %58, label %59, !dbg !5368

58:                                               ; preds = %54
  invoke void @_ZN6String11delete_memoEPNS_6memo_tE(%"struct.String::memo_t"* nonnull %47)
          to label %59 unwind label %60, !dbg !5369

59:                                               ; preds = %58, %54
  store %"struct.String::memo_t"* null, %"struct.String::memo_t"** %46, align 8, !dbg !5370, !tbaa !3680
  br label %63, !dbg !5371

60:                                               ; preds = %58
  %61 = landingpad { i8*, i32 }
          catch i8* null, !dbg !5372
  %62 = extractvalue { i8*, i32 } %61, 0, !dbg !5372
  call void @__clang_call_terminate(i8* %62) #14, !dbg !5372
  unreachable, !dbg !5372

63:                                               ; preds = %45, %59
  call void @llvm.lifetime.end.p0i8(i64 24, i8* nonnull %8) #12, !dbg !5276
  call void @llvm.lifetime.end.p0i8(i64 8, i8* nonnull %7) #12, !dbg !5355
  ret void, !dbg !5355
}

declare i8* @_ZN4Args11simple_slotEPvm(%class.Args*, i8*, i64) local_unnamed_addr #2

declare zeroext i1 @_ZN7BoolArg5parseERK6StringRbRK10ArgContext(%class.String* dereferenceable(24), i8* dereferenceable(1), %class.ArgContext* dereferenceable(32)) local_unnamed_addr #2

; Function Attrs: noinline optnone sspstrong uwtable
define linkonce_odr dso_local void @_Z14args_base_readI7AnnoArgiEvP4ArgsPKciT_RT0_(%class.Args* %0, i8* %1, i32 %2, i32 %3, i32* dereferenceable(4) %4) local_unnamed_addr #8 comdat !dbg !5373 {
  %6 = alloca %class.AnnoArg, align 4
  %7 = alloca %class.Args*, align 8
  %8 = alloca i8*, align 8
  %9 = alloca i32, align 4
  %10 = alloca i32*, align 8
  %11 = alloca %class.AnnoArg, align 4
  %12 = getelementptr inbounds %class.AnnoArg, %class.AnnoArg* %6, i32 0, i32 0
  store i32 %3, i32* %12, align 4
  store %class.Args* %0, %class.Args** %7, align 8, !tbaa !4087
  call void @llvm.dbg.declare(metadata %class.Args** %7, metadata !5375, metadata !DIExpression()), !dbg !5380
  store i8* %1, i8** %8, align 8, !tbaa !4087
  call void @llvm.dbg.declare(metadata i8** %8, metadata !5376, metadata !DIExpression()), !dbg !5381
  store i32 %2, i32* %9, align 4, !tbaa !3942
  call void @llvm.dbg.declare(metadata i32* %9, metadata !5377, metadata !DIExpression()), !dbg !5382
  call void @llvm.dbg.declare(metadata %class.AnnoArg* %6, metadata !5378, metadata !DIExpression()), !dbg !5383
  store i32* %4, i32** %10, align 8, !tbaa !4087
  call void @llvm.dbg.declare(metadata i32** %10, metadata !5379, metadata !DIExpression()), !dbg !5384
  %13 = load %class.Args*, %class.Args** %7, align 8, !dbg !5385, !tbaa !4087
  %14 = load i8*, i8** %8, align 8, !dbg !5386, !tbaa !4087
  %15 = load i32, i32* %9, align 4, !dbg !5387, !tbaa !3942
  %16 = bitcast %class.AnnoArg* %11 to i8*, !dbg !5388
  %17 = bitcast %class.AnnoArg* %6 to i8*, !dbg !5388
  call void @llvm.memcpy.p0i8.p0i8.i64(i8* align 4 %16, i8* align 4 %17, i64 4, i1 false), !dbg !5388, !tbaa.struct !4424
  %18 = load i32*, i32** %10, align 8, !dbg !5389, !tbaa !4087
  %19 = getelementptr inbounds %class.AnnoArg, %class.AnnoArg* %11, i32 0, i32 0, !dbg !5390
  %20 = load i32, i32* %19, align 4, !dbg !5390
  call void @_ZN4Args9base_readI7AnnoArgiEEvPKciT_RT0_(%class.Args* %13, i8* %14, i32 %15, i32 %20, i32* dereferenceable(4) %18), !dbg !5390
  ret void, !dbg !5391
}

; Function Attrs: sspstrong uwtable
define linkonce_odr dso_local void @_ZN4Args9base_readI7AnnoArgiEEvPKciT_RT0_(%class.Args* %0, i8* %1, i32 %2, i32 %3, i32* dereferenceable(4) %4) local_unnamed_addr #0 comdat align 2 personality i8* bitcast (i32 (...)* @__gxx_personality_v0 to i8*) !dbg !5392 {
  %6 = alloca %class.AnnoArg, align 4
  call void @llvm.dbg.declare(metadata %class.AnnoArg* %6, metadata !5407, metadata !DIExpression()), !dbg !5419
  %7 = alloca %"struct.Args::Slot"*, align 8
  %8 = alloca %class.String, align 8
  call void @llvm.dbg.value(metadata i32 %3, metadata !5400, metadata !DIExpression()), !dbg !5421
  call void @llvm.dbg.value(metadata %class.Args* %0, metadata !5397, metadata !DIExpression()), !dbg !5421
  call void @llvm.dbg.value(metadata i8* %1, metadata !5398, metadata !DIExpression()), !dbg !5421
  call void @llvm.dbg.value(metadata i32 %2, metadata !5399, metadata !DIExpression()), !dbg !5421
  call void @llvm.dbg.value(metadata i32* %4, metadata !5401, metadata !DIExpression()), !dbg !5421
  %9 = bitcast %"struct.Args::Slot"** %7 to i8*, !dbg !5422
  call void @llvm.lifetime.start.p0i8(i64 8, i8* nonnull %9) #12, !dbg !5422
  %10 = bitcast %class.String* %8 to i8*, !dbg !5423
  call void @llvm.lifetime.start.p0i8(i64 24, i8* nonnull %10) #12, !dbg !5423
  call void @llvm.dbg.declare(metadata %class.String* %8, metadata !5403, metadata !DIExpression()), !dbg !5424
  call void @llvm.dbg.value(metadata %"struct.Args::Slot"** %7, metadata !5402, metadata !DIExpression(DW_OP_deref)), !dbg !5421
  call void @_ZN4Args4findEPKciRPNS_4SlotE(%class.String* nonnull sret %8, %class.Args* %0, i8* %1, i32 %2, %"struct.Args::Slot"** nonnull dereferenceable(8) %7), !dbg !5425
  call void @llvm.dbg.value(metadata %class.String* %8, metadata !4968, metadata !DIExpression()), !dbg !5426
  %11 = getelementptr inbounds %class.String, %class.String* %8, i64 0, i32 0, i32 1, !dbg !5428
  %12 = load i32, i32* %11, align 8, !dbg !5428, !tbaa !3676
  %13 = icmp eq i32 %12, 0, !dbg !5429
  %14 = select i1 %13, { i64, i64 } zeroinitializer, { i64, i64 } { i64 ptrtoint (i32 (%class.String*)* @_ZNK6String6lengthEv to i64), i64 0 }, !dbg !5430
  %15 = extractvalue { i64, i64 } %14, 0, !dbg !5424
  %16 = icmp eq i64 %15, 0, !dbg !5424
  br i1 %16, label %52, label %17, !dbg !5423

17:                                               ; preds = %5
  call void @llvm.dbg.value(metadata i32* %4, metadata !5431, metadata !DIExpression()), !dbg !5438
  call void @llvm.dbg.value(metadata %class.Args* %0, metadata !5437, metadata !DIExpression()), !dbg !5438
  call void @llvm.dbg.value(metadata %class.Args* %0, metadata !5440, metadata !DIExpression()), !dbg !5447
  call void @llvm.dbg.value(metadata i32* %4, metadata !5446, metadata !DIExpression()), !dbg !5447
  %18 = bitcast i32* %4 to i8*, !dbg !5449
  %19 = invoke i8* @_ZN4Args11simple_slotEPvm(%class.Args* nonnull %0, i8* nonnull %18, i64 4)
          to label %20 unwind label %32, !dbg !5451

20:                                               ; preds = %17
  call void @llvm.dbg.value(metadata i8* %19, metadata !5405, metadata !DIExpression()), !dbg !5452
  %21 = icmp eq i8* %19, null, !dbg !5453
  br i1 %21, label %29, label %22, !dbg !5454

22:                                               ; preds = %20
  %23 = bitcast i8* %19 to i32*, !dbg !5455
  call void @llvm.dbg.value(metadata i32* %23, metadata !5405, metadata !DIExpression()), !dbg !5452
  %24 = bitcast %class.AnnoArg* %6 to i8*
  call void @llvm.lifetime.start.p0i8(i64 4, i8* nonnull %24)
  %25 = getelementptr inbounds %class.AnnoArg, %class.AnnoArg* %6, i64 0, i32 0
  store i32 %3, i32* %25, align 4
  call void @llvm.dbg.value(metadata %class.String* %8, metadata !5416, metadata !DIExpression()), !dbg !5456
  call void @llvm.dbg.value(metadata i32* %23, metadata !5417, metadata !DIExpression()), !dbg !5456
  call void @llvm.dbg.value(metadata %class.Args* %0, metadata !5418, metadata !DIExpression()), !dbg !5456
  %26 = bitcast %class.Args* %0 to %class.ArgContext*, !dbg !5457
  %27 = invoke zeroext i1 @_ZN7AnnoArg5parseERK6StringRiRK10ArgContext(%class.AnnoArg* nonnull %6, %class.String* nonnull dereferenceable(24) %8, i32* nonnull dereferenceable(4) %23, %class.ArgContext* nonnull dereferenceable(32) %26)
          to label %28 unwind label %32, !dbg !5458

28:                                               ; preds = %22
  call void @llvm.lifetime.end.p0i8(i64 4, i8* nonnull %24), !dbg !5459
  br label %29, !dbg !5459

29:                                               ; preds = %28, %20
  %30 = phi i1 [ false, %20 ], [ %27, %28 ], !dbg !5452
  %31 = load %"struct.Args::Slot"*, %"struct.Args::Slot"** %7, align 8, !dbg !5460, !tbaa !4087
  call void @llvm.dbg.value(metadata %"struct.Args::Slot"* %31, metadata !5402, metadata !DIExpression()), !dbg !5421
  invoke void @_ZN4Args9postparseEbPNS_4SlotE(%class.Args* nonnull %0, i1 zeroext %30, %"struct.Args::Slot"* %31)
          to label %52 unwind label %32, !dbg !5461

32:                                               ; preds = %22, %17, %29
  %33 = landingpad { i8*, i32 }
          cleanup, !dbg !5462
  call void @llvm.dbg.value(metadata %class.String* %8, metadata !3852, metadata !DIExpression()) #12, !dbg !5463
  call void @llvm.dbg.value(metadata %class.String* %8, metadata !3847, metadata !DIExpression()) #12, !dbg !5465
  %34 = getelementptr inbounds %class.String, %class.String* %8, i64 0, i32 0, i32 2, !dbg !5467
  %35 = load %"struct.String::memo_t"*, %"struct.String::memo_t"** %34, align 8, !dbg !5467, !tbaa !3680
  %36 = icmp eq %"struct.String::memo_t"* %35, null, !dbg !5468
  br i1 %36, label %51, label %37, !dbg !5469

37:                                               ; preds = %32
  %38 = getelementptr inbounds %"struct.String::memo_t", %"struct.String::memo_t"* %35, i64 0, i32 0, !dbg !5470
  %39 = load volatile i32, i32* %38, align 4, !dbg !5470, !tbaa !4030
  %40 = icmp eq i32 %39, 0, !dbg !5470
  br i1 %40, label %41, label %42, !dbg !5470

41:                                               ; preds = %37
  call void @__assert_fail(i8* getelementptr inbounds ([18 x i8], [18 x i8]* @.str.9, i64 0, i64 0), i8* getelementptr inbounds ([29 x i8], [29 x i8]* @.str.10, i64 0, i64 0), i32 273, i8* getelementptr inbounds ([27 x i8], [27 x i8]* @__PRETTY_FUNCTION__._ZNK6String5derefEv, i64 0, i64 0)) #14, !dbg !5470
  unreachable, !dbg !5470

42:                                               ; preds = %37
  call void @llvm.dbg.value(metadata i32* %38, metadata !4032, metadata !DIExpression()) #12, !dbg !5471
  %43 = load volatile i32, i32* %38, align 4, !dbg !5473, !tbaa !3942
  %44 = add i32 %43, -1, !dbg !5473
  store volatile i32 %44, i32* %38, align 4, !dbg !5473, !tbaa !3942
  %45 = icmp eq i32 %44, 0, !dbg !5474
  br i1 %45, label %46, label %47, !dbg !5475

46:                                               ; preds = %42
  invoke void @_ZN6String11delete_memoEPNS_6memo_tE(%"struct.String::memo_t"* nonnull %35)
          to label %47 unwind label %48, !dbg !5476

47:                                               ; preds = %46, %42
  store %"struct.String::memo_t"* null, %"struct.String::memo_t"** %34, align 8, !dbg !5477, !tbaa !3680
  br label %51, !dbg !5478

48:                                               ; preds = %46
  %49 = landingpad { i8*, i32 }
          catch i8* null, !dbg !5479
  %50 = extractvalue { i8*, i32 } %49, 0, !dbg !5479
  call void @__clang_call_terminate(i8* %50) #14, !dbg !5479
  unreachable, !dbg !5479

51:                                               ; preds = %32, %47
  call void @llvm.lifetime.end.p0i8(i64 24, i8* nonnull %10) #12, !dbg !5423
  call void @llvm.lifetime.end.p0i8(i64 8, i8* nonnull %9) #12, !dbg !5480
  resume { i8*, i32 } %33, !dbg !5480

52:                                               ; preds = %29, %5
  call void @llvm.dbg.value(metadata %class.String* %8, metadata !3852, metadata !DIExpression()) #12, !dbg !5481
  call void @llvm.dbg.value(metadata %class.String* %8, metadata !3847, metadata !DIExpression()) #12, !dbg !5483
  %53 = getelementptr inbounds %class.String, %class.String* %8, i64 0, i32 0, i32 2, !dbg !5485
  %54 = load %"struct.String::memo_t"*, %"struct.String::memo_t"** %53, align 8, !dbg !5485, !tbaa !3680
  %55 = icmp eq %"struct.String::memo_t"* %54, null, !dbg !5486
  br i1 %55, label %70, label %56, !dbg !5487

56:                                               ; preds = %52
  %57 = getelementptr inbounds %"struct.String::memo_t", %"struct.String::memo_t"* %54, i64 0, i32 0, !dbg !5488
  %58 = load volatile i32, i32* %57, align 4, !dbg !5488, !tbaa !4030
  %59 = icmp eq i32 %58, 0, !dbg !5488
  br i1 %59, label %60, label %61, !dbg !5488

60:                                               ; preds = %56
  call void @__assert_fail(i8* getelementptr inbounds ([18 x i8], [18 x i8]* @.str.9, i64 0, i64 0), i8* getelementptr inbounds ([29 x i8], [29 x i8]* @.str.10, i64 0, i64 0), i32 273, i8* getelementptr inbounds ([27 x i8], [27 x i8]* @__PRETTY_FUNCTION__._ZNK6String5derefEv, i64 0, i64 0)) #14, !dbg !5488
  unreachable, !dbg !5488

61:                                               ; preds = %56
  call void @llvm.dbg.value(metadata i32* %57, metadata !4032, metadata !DIExpression()) #12, !dbg !5489
  %62 = load volatile i32, i32* %57, align 4, !dbg !5491, !tbaa !3942
  %63 = add i32 %62, -1, !dbg !5491
  store volatile i32 %63, i32* %57, align 4, !dbg !5491, !tbaa !3942
  %64 = icmp eq i32 %63, 0, !dbg !5492
  br i1 %64, label %65, label %66, !dbg !5493

65:                                               ; preds = %61
  invoke void @_ZN6String11delete_memoEPNS_6memo_tE(%"struct.String::memo_t"* nonnull %54)
          to label %66 unwind label %67, !dbg !5494

66:                                               ; preds = %65, %61
  store %"struct.String::memo_t"* null, %"struct.String::memo_t"** %53, align 8, !dbg !5495, !tbaa !3680
  br label %70, !dbg !5496

67:                                               ; preds = %65
  %68 = landingpad { i8*, i32 }
          catch i8* null, !dbg !5497
  %69 = extractvalue { i8*, i32 } %68, 0, !dbg !5497
  call void @__clang_call_terminate(i8* %69) #14, !dbg !5497
  unreachable, !dbg !5497

70:                                               ; preds = %52, %66
  call void @llvm.lifetime.end.p0i8(i64 24, i8* nonnull %10) #12, !dbg !5423
  call void @llvm.lifetime.end.p0i8(i64 8, i8* nonnull %9) #12, !dbg !5480
  ret void, !dbg !5480
}

declare zeroext i1 @_ZN7AnnoArg5parseERK6StringRiRK10ArgContext(%class.AnnoArg*, %class.String* dereferenceable(24), i32* dereferenceable(4), %class.ArgContext* dereferenceable(32)) local_unnamed_addr #2

declare void @_ZN6IntArg11range_errorERK10ArgContextbx(%class.IntArg*, %class.ArgContext* dereferenceable(32), i1 zeroext, i64) local_unnamed_addr #2

declare i8* @_ZN6IntArg5parseEPKcS1_biPji(%class.IntArg*, i8*, i8*, i1 zeroext, i32, i32*, i32) local_unnamed_addr #2

; Function Attrs: sspstrong uwtable
define linkonce_odr dso_local zeroext i1 @_ZN13vector_memoryI18sized_array_memoryILm16EEE21reserve_and_push_backEiPK10char_arrayILm16EE(%class.vector_memory* %0, i32 %1, %struct.char_array* %2) local_unnamed_addr #0 comdat align 2 !dbg !5498 {
  %4 = alloca %struct.char_array, align 1
  call void @llvm.dbg.value(metadata %class.vector_memory* %0, metadata !5500, metadata !DIExpression()), !dbg !5509
  call void @llvm.dbg.value(metadata i32 %1, metadata !5501, metadata !DIExpression()), !dbg !5509
  call void @llvm.dbg.value(metadata %struct.char_array* %2, metadata !5502, metadata !DIExpression()), !dbg !5509
  %5 = icmp ne %struct.char_array* %2, null, !dbg !5510
  br i1 %5, label %6, label %20, !dbg !5510

6:                                                ; preds = %3
  call void @llvm.dbg.value(metadata %class.vector_memory* %0, metadata !5511, metadata !DIExpression()), !dbg !5516
  call void @llvm.dbg.value(metadata %struct.char_array* %2, metadata !5514, metadata !DIExpression()), !dbg !5516
  %7 = ptrtoint %struct.char_array* %2 to i64, !dbg !5518
  %8 = bitcast %class.vector_memory* %0 to i64*, !dbg !5519
  %9 = load i64, i64* %8, align 8, !dbg !5519, !tbaa !3594
  %10 = sub i64 %7, %9, !dbg !5520
  %11 = getelementptr inbounds %class.vector_memory, %class.vector_memory* %0, i64 0, i32 1, !dbg !5521
  %12 = load i32, i32* %11, align 8, !dbg !5521, !tbaa !4150
  %13 = sext i32 %12 to i64, !dbg !5521
  %14 = shl nsw i64 %13, 4, !dbg !5522
  %15 = icmp ult i64 %10, %14, !dbg !5523
  br i1 %15, label %16, label %20, !dbg !5524, !prof !5209, !misexpect !5525

16:                                               ; preds = %6
  %17 = getelementptr inbounds %struct.char_array, %struct.char_array* %4, i64 0, i32 0, i64 0, !dbg !5526
  call void @llvm.lifetime.start.p0i8(i64 16, i8* nonnull %17) #12, !dbg !5526
  call void @llvm.dbg.declare(metadata %struct.char_array* %4, metadata !5503, metadata !DIExpression()), !dbg !5527
  %18 = getelementptr %struct.char_array, %struct.char_array* %2, i64 0, i32 0, i64 0, !dbg !5527
  call void @llvm.memcpy.p0i8.p0i8.i64(i8* nonnull align 1 dereferenceable(16) %17, i8* nonnull align 1 dereferenceable(16) %18, i64 16, i1 false), !dbg !5527, !tbaa.struct !5528
  %19 = call zeroext i1 @_ZN13vector_memoryI18sized_array_memoryILm16EEE21reserve_and_push_backEiPK10char_arrayILm16EE(%class.vector_memory* nonnull %0, i32 %1, %struct.char_array* nonnull %4), !dbg !5529
  call void @llvm.lifetime.end.p0i8(i64 16, i8* nonnull %17) #12, !dbg !5530
  br label %62

20:                                               ; preds = %3, %6
  %21 = icmp slt i32 %1, 0, !dbg !5531
  %22 = getelementptr inbounds %class.vector_memory, %class.vector_memory* %0, i64 0, i32 2, !dbg !5509
  %23 = load i32, i32* %22, align 4, !dbg !5509, !tbaa !4152
  %24 = icmp sgt i32 %23, 0, !dbg !5533
  %25 = shl nsw i32 %23, 1, !dbg !5533
  %26 = select i1 %24, i32 %25, i32 4, !dbg !5533
  %27 = select i1 %21, i32 %26, i32 %1, !dbg !5533
  call void @llvm.dbg.value(metadata i32 %27, metadata !5501, metadata !DIExpression()), !dbg !5509
  %28 = getelementptr inbounds %class.vector_memory, %class.vector_memory* %0, i64 0, i32 2, !dbg !5534
  %29 = icmp sgt i32 %27, %23, !dbg !5535
  br i1 %29, label %30, label %46, !dbg !5536

30:                                               ; preds = %20
  %31 = sext i32 %27 to i64, !dbg !5537
  %32 = shl nsw i64 %31, 4, !dbg !5537
  %33 = tail call i8* @_Znam(i64 %32) #15, !dbg !5537
  call void @llvm.dbg.value(metadata i8* %33, metadata !5506, metadata !DIExpression()), !dbg !5538
  call void @llvm.dbg.value(metadata i8* %33, metadata !5506, metadata !DIExpression()), !dbg !5538
  %34 = getelementptr inbounds %class.vector_memory, %class.vector_memory* %0, i64 0, i32 1, !dbg !5539
  %35 = load i32, i32* %34, align 8, !dbg !5539, !tbaa !4150
  %36 = bitcast %class.vector_memory* %0 to i8**, !dbg !5540
  %37 = load i8*, i8** %36, align 8, !dbg !5540, !tbaa !3594
  call void @llvm.dbg.value(metadata i8* %33, metadata !5541, metadata !DIExpression()) #12, !dbg !5546
  call void @llvm.dbg.value(metadata i8* %37, metadata !5544, metadata !DIExpression()) #12, !dbg !5546
  call void @llvm.dbg.value(metadata i32 %35, metadata !5545, metadata !DIExpression(DW_OP_LLVM_convert, 32, DW_ATE_signed, DW_OP_LLVM_convert, 64, DW_ATE_signed, DW_OP_stack_value)) #12, !dbg !5546
  %38 = icmp eq i32 %35, 0, !dbg !5548
  br i1 %38, label %42, label %39, !dbg !5550

39:                                               ; preds = %30
  %40 = sext i32 %35 to i64, !dbg !5551
  call void @llvm.dbg.value(metadata i64 %40, metadata !5545, metadata !DIExpression()) #12, !dbg !5546
  %41 = shl nsw i64 %40, 4, !dbg !5552
  tail call void @llvm.memmove.p0i8.p0i8.i64(i8* nonnull align 1 %33, i8* align 1 %37, i64 %41, i1 false) #12, !dbg !5553
  br label %42, !dbg !5553

42:                                               ; preds = %30, %39
  %43 = icmp eq i8* %37, null, !dbg !5554
  br i1 %43, label %45, label %44, !dbg !5554

44:                                               ; preds = %42
  tail call void @_ZdaPv(i8* nonnull %37) #13, !dbg !5554
  br label %45, !dbg !5554

45:                                               ; preds = %44, %42
  store i8* %33, i8** %36, align 8, !dbg !5555, !tbaa !3594
  store i32 %27, i32* %28, align 4, !dbg !5556, !tbaa !4152
  br label %46

46:                                               ; preds = %45, %20
  %47 = phi i32 [ %27, %45 ], [ %23, %20 ]
  br i1 %5, label %48, label %62, !dbg !5557, !prof !5209, !misexpect !5525

48:                                               ; preds = %46
  call void @llvm.dbg.value(metadata %class.vector_memory* %0, metadata !5558, metadata !DIExpression()), !dbg !5562
  call void @llvm.dbg.value(metadata %struct.char_array* %2, metadata !5561, metadata !DIExpression()), !dbg !5562
  %49 = getelementptr inbounds %class.vector_memory, %class.vector_memory* %0, i64 0, i32 1, !dbg !5565
  %50 = load i32, i32* %49, align 8, !dbg !5565, !tbaa !4150
  %51 = icmp slt i32 %50, %47, !dbg !5567
  br i1 %51, label %52, label %60, !dbg !5568

52:                                               ; preds = %48
  %53 = getelementptr inbounds %class.vector_memory, %class.vector_memory* %0, i64 0, i32 0, !dbg !5569
  %54 = load %struct.char_array*, %struct.char_array** %53, align 8, !dbg !5569, !tbaa !3594
  %55 = sext i32 %50 to i64, !dbg !5571
  %56 = getelementptr inbounds %struct.char_array, %struct.char_array* %54, i64 %55, i32 0, i64 0, !dbg !5572
  %57 = getelementptr %struct.char_array, %struct.char_array* %2, i64 0, i32 0, i64 0, !dbg !5573
  call void @llvm.dbg.value(metadata i8* %57, metadata !5574, metadata !DIExpression()) #12, !dbg !5579
  call void @llvm.dbg.value(metadata i8* %56, metadata !5577, metadata !DIExpression()) #12, !dbg !5579
  call void @llvm.dbg.value(metadata i64 undef, metadata !5578, metadata !DIExpression()) #12, !dbg !5579
  tail call void @llvm.memcpy.p0i8.p0i8.i64(i8* nonnull align 1 dereferenceable(16) %56, i8* nonnull align 1 dereferenceable(16) %57, i64 16, i1 false) #12, !dbg !5581
  call void @llvm.dbg.value(metadata i64 undef, metadata !5578, metadata !DIExpression(DW_OP_constu, 1, DW_OP_minus, DW_OP_stack_value)) #12, !dbg !5579
  %58 = load i32, i32* %49, align 8, !dbg !5584, !tbaa !4150
  %59 = add nsw i32 %58, 1, !dbg !5584
  store i32 %59, i32* %49, align 8, !dbg !5584, !tbaa !4150
  br label %62, !dbg !5585

60:                                               ; preds = %48
  %61 = tail call zeroext i1 @_ZN13vector_memoryI18sized_array_memoryILm16EEE21reserve_and_push_backEiPK10char_arrayILm16EE(%class.vector_memory* nonnull %0, i32 -1, %struct.char_array* nonnull %2), !dbg !5586
  br label %62

62:                                               ; preds = %60, %52, %46, %16
  %63 = phi i1 [ %19, %16 ], [ true, %46 ], [ true, %52 ], [ true, %60 ]
  ret i1 %63, !dbg !5587
}

; Function Attrs: nobuiltin nofree
declare noalias nonnull i8* @_Znam(i64) local_unnamed_addr #11

; Function Attrs: argmemonly nounwind willreturn
declare void @llvm.memmove.p0i8.p0i8.i64(i8* nocapture, i8* nocapture readonly, i64, i1 immarg) #6

; Function Attrs: nounwind readnone speculatable willreturn
declare void @llvm.dbg.value(metadata, metadata, metadata) #1

; Function Attrs: argmemonly nounwind willreturn
declare void @llvm.memset.p0i8.i64(i8* nocapture writeonly, i8, i64, i1 immarg) #6

attributes #0 = { sspstrong uwtable "correctly-rounded-divide-sqrt-fp-math"="false" "disable-tail-calls"="false" "frame-pointer"="none" "less-precise-fpmad"="false" "min-legal-vector-width"="0" "no-infs-fp-math"="false" "no-jump-tables"="false" "no-nans-fp-math"="false" "no-signed-zeros-fp-math"="false" "no-trapping-math"="false" "stack-protector-buffer-size"="8" "target-cpu"="x86-64" "target-features"="+cx8,+fxsr,+mmx,+sse,+sse2,+x87" "unsafe-fp-math"="false" "use-soft-float"="false" }
attributes #1 = { nounwind readnone speculatable willreturn }
attributes #2 = { "correctly-rounded-divide-sqrt-fp-math"="false" "disable-tail-calls"="false" "frame-pointer"="none" "less-precise-fpmad"="false" "no-infs-fp-math"="false" "no-nans-fp-math"="false" "no-signed-zeros-fp-math"="false" "no-trapping-math"="false" "stack-protector-buffer-size"="8" "target-cpu"="x86-64" "target-features"="+cx8,+fxsr,+mmx,+sse,+sse2,+x87" "unsafe-fp-math"="false" "use-soft-float"="false" }
attributes #3 = { nounwind "correctly-rounded-divide-sqrt-fp-math"="false" "disable-tail-calls"="false" "frame-pointer"="none" "less-precise-fpmad"="false" "no-infs-fp-math"="false" "no-nans-fp-math"="false" "no-signed-zeros-fp-math"="false" "no-trapping-math"="false" "stack-protector-buffer-size"="8" "target-cpu"="x86-64" "target-features"="+cx8,+fxsr,+mmx,+sse,+sse2,+x87" "unsafe-fp-math"="false" "use-soft-float"="false" }
attributes #4 = { nounwind sspstrong uwtable "correctly-rounded-divide-sqrt-fp-math"="false" "disable-tail-calls"="false" "frame-pointer"="none" "less-precise-fpmad"="false" "min-legal-vector-width"="0" "no-infs-fp-math"="false" "no-jump-tables"="false" "no-nans-fp-math"="false" "no-signed-zeros-fp-math"="false" "no-trapping-math"="false" "stack-protector-buffer-size"="8" "target-cpu"="x86-64" "target-features"="+cx8,+fxsr,+mmx,+sse,+sse2,+x87" "unsafe-fp-math"="false" "use-soft-float"="false" }
attributes #5 = { nobuiltin nounwind "correctly-rounded-divide-sqrt-fp-math"="false" "disable-tail-calls"="false" "frame-pointer"="none" "less-precise-fpmad"="false" "no-infs-fp-math"="false" "no-nans-fp-math"="false" "no-signed-zeros-fp-math"="false" "no-trapping-math"="false" "stack-protector-buffer-size"="8" "target-cpu"="x86-64" "target-features"="+cx8,+fxsr,+mmx,+sse,+sse2,+x87" "unsafe-fp-math"="false" "use-soft-float"="false" }
attributes #6 = { argmemonly nounwind willreturn }
attributes #7 = { inlinehint nounwind sspstrong uwtable "correctly-rounded-divide-sqrt-fp-math"="false" "disable-tail-calls"="false" "frame-pointer"="none" "less-precise-fpmad"="false" "min-legal-vector-width"="0" "no-infs-fp-math"="false" "no-jump-tables"="false" "no-nans-fp-math"="false" "no-signed-zeros-fp-math"="false" "no-trapping-math"="false" "stack-protector-buffer-size"="8" "target-cpu"="x86-64" "target-features"="+cx8,+fxsr,+mmx,+sse,+sse2,+x87" "unsafe-fp-math"="false" "use-soft-float"="false" }
attributes #8 = { noinline optnone sspstrong uwtable "correctly-rounded-divide-sqrt-fp-math"="false" "disable-tail-calls"="false" "frame-pointer"="none" "less-precise-fpmad"="false" "min-legal-vector-width"="0" "no-infs-fp-math"="false" "no-jump-tables"="false" "no-nans-fp-math"="false" "no-signed-zeros-fp-math"="false" "no-trapping-math"="false" "stack-protector-buffer-size"="8" "target-cpu"="x86-64" "target-features"="+cx8,+fxsr,+mmx,+sse,+sse2,+x87" "unsafe-fp-math"="false" "use-soft-float"="false" }
attributes #9 = { noinline noreturn nounwind }
attributes #10 = { noreturn nounwind "correctly-rounded-divide-sqrt-fp-math"="false" "disable-tail-calls"="false" "frame-pointer"="none" "less-precise-fpmad"="false" "no-infs-fp-math"="false" "no-nans-fp-math"="false" "no-signed-zeros-fp-math"="false" "no-trapping-math"="false" "stack-protector-buffer-size"="8" "target-cpu"="x86-64" "target-features"="+cx8,+fxsr,+mmx,+sse,+sse2,+x87" "unsafe-fp-math"="false" "use-soft-float"="false" }
attributes #11 = { nobuiltin nofree "correctly-rounded-divide-sqrt-fp-math"="false" "disable-tail-calls"="false" "frame-pointer"="none" "less-precise-fpmad"="false" "no-infs-fp-math"="false" "no-nans-fp-math"="false" "no-signed-zeros-fp-math"="false" "no-trapping-math"="false" "stack-protector-buffer-size"="8" "target-cpu"="x86-64" "target-features"="+cx8,+fxsr,+mmx,+sse,+sse2,+x87" "unsafe-fp-math"="false" "use-soft-float"="false" }
attributes #12 = { nounwind }
attributes #13 = { builtin nounwind }
attributes #14 = { noreturn nounwind }
attributes #15 = { builtin }

!llvm.dbg.cu = !{!0}
!llvm.module.flags = !{!3540, !3541, !3542, !3543, !3544}
!llvm.ident = !{!3545}

!0 = distinct !DICompileUnit(language: DW_LANG_C_plus_plus_14, file: !1, producer: "clang version 10.0.0 ", isOptimized: true, runtimeVersion: 0, emissionKind: FullDebug, enums: !2, retainedTypes: !2476, imports: !2920, splitDebugInlining: false, nameTableKind: None)
!1 = !DIFile(filename: "../elements/icmp/icmprewriter.cc", directory: "/home/john/projects/click/ir-dir")
!2 = !{!3, !882, !1187, !2460, !2464, !2467}
!3 = !DICompositeType(tag: DW_TAG_enumeration_type, name: "PacketType", scope: !5, file: !4, line: 368, baseType: !16, size: 32, elements: !1179, identifier: "_ZTSN6Packet10PacketTypeE")
!4 = !DIFile(filename: "../dummy_inc/click/packet.hh", directory: "/home/john/projects/click/ir-dir")
!5 = distinct !DICompositeType(tag: DW_TAG_class_type, name: "Packet", file: !4, line: 35, size: 1344, flags: DIFlagTypePassByReference | DIFlagNonTrivial, elements: !6, identifier: "_ZTS6Packet")
!6 = !{!7, !77, !79, !82, !83, !84, !85, !128, !136, !137, !251, !254, !257, !260, !263, !267, !271, !274, !277, !282, !283, !286, !287, !288, !289, !290, !291, !294, !297, !300, !301, !304, !305, !308, !311, !312, !313, !314, !317, !320, !323, !326, !327, !328, !331, !332, !333, !336, !337, !338, !339, !340, !341, !342, !343, !344, !345, !346, !347, !348, !349, !350, !351, !356, !359, !364, !365, !366, !369, !374, !375, !376, !379, !382, !387, !392, !397, !402, !406, !923, !927, !930, !936, !939, !942, !945, !948, !952, !955, !956, !957, !958, !1048, !1051, !1052, !1055, !1059, !1064, !1068, !1073, !1076, !1079, !1082, !1085, !1091, !1094, !1097, !1100, !1103, !1106, !1109, !1112, !1115, !1118, !1119, !1122, !1126, !1127, !1128, !1129, !1130, !1131, !1132, !1133, !1134, !1135, !1136, !1137, !1138, !1139, !1140, !1141, !1142, !1143, !1144, !1145, !1146, !1147, !1148, !1149, !1150, !1151, !1152, !1153, !1154, !1155, !1156, !1157, !1158, !1159, !1160, !1163, !1164, !1168, !1171, !1174, !1177, !1178}
!7 = !DIDerivedType(tag: DW_TAG_member, name: "_use_count", scope: !5, file: !4, line: 731, baseType: !8, size: 32)
!8 = distinct !DICompositeType(tag: DW_TAG_class_type, name: "atomic_uint32_t", file: !9, line: 52, size: 32, flags: DIFlagTypePassByValue, elements: !10, identifier: "_ZTS15atomic_uint32_t")
!9 = !DIFile(filename: "../dummy_inc/click/atomic.hh", directory: "/home/john/projects/click/ir-dir")
!10 = !{!11, !17, !22, !23, !28, !35, !36, !37, !38, !41, !44, !45, !46, !49, !50, !54, !57, !60, !65, !68, !71, !74}
!11 = !DIDerivedType(tag: DW_TAG_member, name: "_val", scope: !8, file: !9, line: 91, baseType: !12, size: 32)
!12 = !DIDerivedType(tag: DW_TAG_typedef, name: "uint32_t", file: !13, line: 26, baseType: !14)
!13 = !DIFile(filename: "/usr/include/bits/stdint-uintn.h", directory: "")
!14 = !DIDerivedType(tag: DW_TAG_typedef, name: "__uint32_t", file: !15, line: 42, baseType: !16)
!15 = !DIFile(filename: "/usr/include/bits/types.h", directory: "")
!16 = !DIBasicType(name: "unsigned int", size: 32, encoding: DW_ATE_unsigned)
!17 = !DISubprogram(name: "value", linkageName: "_ZNK15atomic_uint32_t5valueEv", scope: !8, file: !9, line: 57, type: !18, scopeLine: 57, flags: DIFlagPublic | DIFlagPrototyped, spFlags: DISPFlagOptimized)
!18 = !DISubroutineType(types: !19)
!19 = !{!12, !20}
!20 = !DIDerivedType(tag: DW_TAG_pointer_type, baseType: !21, size: 64, flags: DIFlagArtificial | DIFlagObjectPointer)
!21 = !DIDerivedType(tag: DW_TAG_const_type, baseType: !8)
!22 = !DISubprogram(name: "operator unsigned int", linkageName: "_ZNK15atomic_uint32_tcvjEv", scope: !8, file: !9, line: 58, type: !18, scopeLine: 58, flags: DIFlagPublic | DIFlagPrototyped, spFlags: DISPFlagOptimized)
!23 = !DISubprogram(name: "operator=", linkageName: "_ZN15atomic_uint32_taSEj", scope: !8, file: !9, line: 60, type: !24, scopeLine: 60, flags: DIFlagPublic | DIFlagPrototyped, spFlags: DISPFlagOptimized)
!24 = !DISubroutineType(types: !25)
!25 = !{!26, !27, !12}
!26 = !DIDerivedType(tag: DW_TAG_reference_type, baseType: !8, size: 64)
!27 = !DIDerivedType(tag: DW_TAG_pointer_type, baseType: !8, size: 64, flags: DIFlagArtificial | DIFlagObjectPointer)
!28 = !DISubprogram(name: "operator+=", linkageName: "_ZN15atomic_uint32_tpLEi", scope: !8, file: !9, line: 62, type: !29, scopeLine: 62, flags: DIFlagPublic | DIFlagPrototyped, spFlags: DISPFlagOptimized)
!29 = !DISubroutineType(types: !30)
!30 = !{!26, !27, !31}
!31 = !DIDerivedType(tag: DW_TAG_typedef, name: "int32_t", file: !32, line: 26, baseType: !33)
!32 = !DIFile(filename: "/usr/include/bits/stdint-intn.h", directory: "")
!33 = !DIDerivedType(tag: DW_TAG_typedef, name: "__int32_t", file: !15, line: 41, baseType: !34)
!34 = !DIBasicType(name: "int", size: 32, encoding: DW_ATE_signed)
!35 = !DISubprogram(name: "operator-=", linkageName: "_ZN15atomic_uint32_tmIEi", scope: !8, file: !9, line: 63, type: !29, scopeLine: 63, flags: DIFlagPublic | DIFlagPrototyped, spFlags: DISPFlagOptimized)
!36 = !DISubprogram(name: "operator|=", linkageName: "_ZN15atomic_uint32_toREj", scope: !8, file: !9, line: 64, type: !24, scopeLine: 64, flags: DIFlagPublic | DIFlagPrototyped, spFlags: DISPFlagOptimized)
!37 = !DISubprogram(name: "operator&=", linkageName: "_ZN15atomic_uint32_taNEj", scope: !8, file: !9, line: 65, type: !24, scopeLine: 65, flags: DIFlagPublic | DIFlagPrototyped, spFlags: DISPFlagOptimized)
!38 = !DISubprogram(name: "operator++", linkageName: "_ZN15atomic_uint32_tppEv", scope: !8, file: !9, line: 67, type: !39, scopeLine: 67, flags: DIFlagPublic | DIFlagPrototyped, spFlags: DISPFlagOptimized)
!39 = !DISubroutineType(types: !40)
!40 = !{null, !27}
!41 = !DISubprogram(name: "operator++", linkageName: "_ZN15atomic_uint32_tppEi", scope: !8, file: !9, line: 68, type: !42, scopeLine: 68, flags: DIFlagPublic | DIFlagPrototyped, spFlags: DISPFlagOptimized)
!42 = !DISubroutineType(types: !43)
!43 = !{null, !27, !34}
!44 = !DISubprogram(name: "operator--", linkageName: "_ZN15atomic_uint32_tmmEv", scope: !8, file: !9, line: 69, type: !39, scopeLine: 69, flags: DIFlagPublic | DIFlagPrototyped, spFlags: DISPFlagOptimized)
!45 = !DISubprogram(name: "operator--", linkageName: "_ZN15atomic_uint32_tmmEi", scope: !8, file: !9, line: 70, type: !42, scopeLine: 70, flags: DIFlagPublic | DIFlagPrototyped, spFlags: DISPFlagOptimized)
!46 = !DISubprogram(name: "swap", linkageName: "_ZN15atomic_uint32_t4swapEj", scope: !8, file: !9, line: 72, type: !47, scopeLine: 72, flags: DIFlagPublic | DIFlagPrototyped, spFlags: DISPFlagOptimized)
!47 = !DISubroutineType(types: !48)
!48 = !{!12, !27, !12}
!49 = !DISubprogram(name: "fetch_and_add", linkageName: "_ZN15atomic_uint32_t13fetch_and_addEj", scope: !8, file: !9, line: 73, type: !47, scopeLine: 73, flags: DIFlagPublic | DIFlagPrototyped, spFlags: DISPFlagOptimized)
!50 = !DISubprogram(name: "dec_and_test", linkageName: "_ZN15atomic_uint32_t12dec_and_testEv", scope: !8, file: !9, line: 74, type: !51, scopeLine: 74, flags: DIFlagPublic | DIFlagPrototyped, spFlags: DISPFlagOptimized)
!51 = !DISubroutineType(types: !52)
!52 = !{!53, !27}
!53 = !DIBasicType(name: "bool", size: 8, encoding: DW_ATE_boolean)
!54 = !DISubprogram(name: "compare_swap", linkageName: "_ZN15atomic_uint32_t12compare_swapEjj", scope: !8, file: !9, line: 75, type: !55, scopeLine: 75, flags: DIFlagPublic | DIFlagPrototyped, spFlags: DISPFlagOptimized)
!55 = !DISubroutineType(types: !56)
!56 = !{!12, !27, !12, !12}
!57 = !DISubprogram(name: "compare_and_swap", linkageName: "_ZN15atomic_uint32_t16compare_and_swapEjj", scope: !8, file: !9, line: 76, type: !58, scopeLine: 76, flags: DIFlagPublic | DIFlagPrototyped, spFlags: DISPFlagOptimized)
!58 = !DISubroutineType(types: !59)
!59 = !{!53, !27, !12, !12}
!60 = !DISubprogram(name: "swap", linkageName: "_ZN15atomic_uint32_t4swapERVjj", scope: !8, file: !9, line: 78, type: !61, scopeLine: 78, flags: DIFlagPublic | DIFlagPrototyped | DIFlagStaticMember, spFlags: DISPFlagOptimized)
!61 = !DISubroutineType(types: !62)
!62 = !{!12, !63, !12}
!63 = !DIDerivedType(tag: DW_TAG_reference_type, baseType: !64, size: 64)
!64 = !DIDerivedType(tag: DW_TAG_volatile_type, baseType: !12)
!65 = !DISubprogram(name: "inc", linkageName: "_ZN15atomic_uint32_t3incERVj", scope: !8, file: !9, line: 79, type: !66, scopeLine: 79, flags: DIFlagPublic | DIFlagPrototyped | DIFlagStaticMember, spFlags: DISPFlagOptimized)
!66 = !DISubroutineType(types: !67)
!67 = !{null, !63}
!68 = !DISubprogram(name: "dec_and_test", linkageName: "_ZN15atomic_uint32_t12dec_and_testERVj", scope: !8, file: !9, line: 80, type: !69, scopeLine: 80, flags: DIFlagPublic | DIFlagPrototyped | DIFlagStaticMember, spFlags: DISPFlagOptimized)
!69 = !DISubroutineType(types: !70)
!70 = !{!53, !63}
!71 = !DISubprogram(name: "compare_swap", linkageName: "_ZN15atomic_uint32_t12compare_swapERVjjj", scope: !8, file: !9, line: 81, type: !72, scopeLine: 81, flags: DIFlagPublic | DIFlagPrototyped | DIFlagStaticMember, spFlags: DISPFlagOptimized)
!72 = !DISubroutineType(types: !73)
!73 = !{!12, !63, !12, !12}
!74 = !DISubprogram(name: "compare_and_swap", linkageName: "_ZN15atomic_uint32_t16compare_and_swapERVjjj", scope: !8, file: !9, line: 82, type: !75, scopeLine: 82, flags: DIFlagPublic | DIFlagPrototyped | DIFlagStaticMember, spFlags: DISPFlagOptimized)
!75 = !DISubroutineType(types: !76)
!76 = !{!53, !63, !12, !12}
!77 = !DIDerivedType(tag: DW_TAG_member, name: "_data_packet", scope: !5, file: !4, line: 732, baseType: !78, size: 64, offset: 64)
!78 = !DIDerivedType(tag: DW_TAG_pointer_type, baseType: !5, size: 64)
!79 = !DIDerivedType(tag: DW_TAG_member, name: "_head", scope: !5, file: !4, line: 734, baseType: !80, size: 64, offset: 128)
!80 = !DIDerivedType(tag: DW_TAG_pointer_type, baseType: !81, size: 64)
!81 = !DIBasicType(name: "unsigned char", size: 8, encoding: DW_ATE_unsigned_char)
!82 = !DIDerivedType(tag: DW_TAG_member, name: "_data", scope: !5, file: !4, line: 735, baseType: !80, size: 64, offset: 192)
!83 = !DIDerivedType(tag: DW_TAG_member, name: "_tail", scope: !5, file: !4, line: 736, baseType: !80, size: 64, offset: 256)
!84 = !DIDerivedType(tag: DW_TAG_member, name: "_end", scope: !5, file: !4, line: 737, baseType: !80, size: 64, offset: 320)
!85 = !DIDerivedType(tag: DW_TAG_member, name: "_aa", scope: !5, file: !4, line: 741, baseType: !86, size: 832, offset: 384)
!86 = distinct !DICompositeType(tag: DW_TAG_structure_type, name: "AllAnno", scope: !5, file: !4, line: 716, size: 832, flags: DIFlagTypePassByValue, elements: !87, identifier: "_ZTSN6Packet7AllAnnoE")
!87 = !{!88, !118, !119, !120, !121, !122, !126, !127}
!88 = !DIDerivedType(tag: DW_TAG_member, name: "cb", scope: !86, file: !4, line: 717, baseType: !89, size: 384)
!89 = distinct !DICompositeType(tag: DW_TAG_union_type, name: "Anno", scope: !5, file: !4, line: 702, size: 384, flags: DIFlagTypePassByValue, elements: !90, identifier: "_ZTSN6Packet4AnnoE")
!90 = !{!91, !96, !100, !107, !111}
!91 = !DIDerivedType(tag: DW_TAG_member, name: "c", scope: !89, file: !4, line: 703, baseType: !92, size: 384)
!92 = !DICompositeType(tag: DW_TAG_array_type, baseType: !93, size: 384, elements: !94)
!93 = !DIBasicType(name: "char", size: 8, encoding: DW_ATE_signed_char)
!94 = !{!95}
!95 = !DISubrange(count: 48)
!96 = !DIDerivedType(tag: DW_TAG_member, name: "u8", scope: !89, file: !4, line: 704, baseType: !97, size: 384)
!97 = !DICompositeType(tag: DW_TAG_array_type, baseType: !98, size: 384, elements: !94)
!98 = !DIDerivedType(tag: DW_TAG_typedef, name: "uint8_t", file: !13, line: 24, baseType: !99)
!99 = !DIDerivedType(tag: DW_TAG_typedef, name: "__uint8_t", file: !15, line: 38, baseType: !81)
!100 = !DIDerivedType(tag: DW_TAG_member, name: "u16", scope: !89, file: !4, line: 705, baseType: !101, size: 384)
!101 = !DICompositeType(tag: DW_TAG_array_type, baseType: !102, size: 384, elements: !105)
!102 = !DIDerivedType(tag: DW_TAG_typedef, name: "uint16_t", file: !13, line: 25, baseType: !103)
!103 = !DIDerivedType(tag: DW_TAG_typedef, name: "__uint16_t", file: !15, line: 40, baseType: !104)
!104 = !DIBasicType(name: "unsigned short", size: 16, encoding: DW_ATE_unsigned)
!105 = !{!106}
!106 = !DISubrange(count: 24)
!107 = !DIDerivedType(tag: DW_TAG_member, name: "u32", scope: !89, file: !4, line: 706, baseType: !108, size: 384)
!108 = !DICompositeType(tag: DW_TAG_array_type, baseType: !12, size: 384, elements: !109)
!109 = !{!110}
!110 = !DISubrange(count: 12)
!111 = !DIDerivedType(tag: DW_TAG_member, name: "u64", scope: !89, file: !4, line: 708, baseType: !112, size: 384)
!112 = !DICompositeType(tag: DW_TAG_array_type, baseType: !113, size: 384, elements: !116)
!113 = !DIDerivedType(tag: DW_TAG_typedef, name: "uint64_t", file: !13, line: 27, baseType: !114)
!114 = !DIDerivedType(tag: DW_TAG_typedef, name: "__uint64_t", file: !15, line: 45, baseType: !115)
!115 = !DIBasicType(name: "long unsigned int", size: 64, encoding: DW_ATE_unsigned)
!116 = !{!117}
!117 = !DISubrange(count: 6)
!118 = !DIDerivedType(tag: DW_TAG_member, name: "mac", scope: !86, file: !4, line: 718, baseType: !80, size: 64, offset: 384)
!119 = !DIDerivedType(tag: DW_TAG_member, name: "nh", scope: !86, file: !4, line: 719, baseType: !80, size: 64, offset: 448)
!120 = !DIDerivedType(tag: DW_TAG_member, name: "h", scope: !86, file: !4, line: 720, baseType: !80, size: 64, offset: 512)
!121 = !DIDerivedType(tag: DW_TAG_member, name: "pkt_type", scope: !86, file: !4, line: 721, baseType: !3, size: 32, offset: 576)
!122 = !DIDerivedType(tag: DW_TAG_member, name: "timestamp", scope: !86, file: !4, line: 722, baseType: !123, size: 64, offset: 608)
!123 = !DICompositeType(tag: DW_TAG_array_type, baseType: !93, size: 64, elements: !124)
!124 = !{!125}
!125 = !DISubrange(count: 8)
!126 = !DIDerivedType(tag: DW_TAG_member, name: "next", scope: !86, file: !4, line: 723, baseType: !78, size: 64, offset: 704)
!127 = !DIDerivedType(tag: DW_TAG_member, name: "prev", scope: !86, file: !4, line: 724, baseType: !78, size: 64, offset: 768)
!128 = !DIDerivedType(tag: DW_TAG_member, name: "_destructor", scope: !5, file: !4, line: 746, baseType: !129, size: 64, offset: 1216)
!129 = !DIDerivedType(tag: DW_TAG_typedef, name: "buffer_destructor_type", scope: !5, file: !4, line: 65, baseType: !130)
!130 = !DIDerivedType(tag: DW_TAG_pointer_type, baseType: !131, size: 64)
!131 = !DISubroutineType(types: !132)
!132 = !{null, !80, !133, !135}
!133 = !DIDerivedType(tag: DW_TAG_typedef, name: "size_t", file: !134, line: 46, baseType: !115)
!134 = !DIFile(filename: "/usr/lib/clang/10.0.0/include/stddef.h", directory: "")
!135 = !DIDerivedType(tag: DW_TAG_pointer_type, baseType: null, size: 64)
!136 = !DIDerivedType(tag: DW_TAG_member, name: "_destructor_argument", scope: !5, file: !4, line: 747, baseType: !135, size: 64, offset: 1280)
!137 = !DISubprogram(name: "make", linkageName: "_ZN6Packet4makeEjPKvjj", scope: !5, file: !4, line: 52, type: !138, scopeLine: 52, flags: DIFlagPublic | DIFlagPrototyped | DIFlagStaticMember, spFlags: DISPFlagOptimized)
!138 = !DISubroutineType(types: !139)
!139 = !{!140, !12, !249, !12, !12}
!140 = !DIDerivedType(tag: DW_TAG_pointer_type, baseType: !141, size: 64)
!141 = distinct !DICompositeType(tag: DW_TAG_class_type, name: "WritablePacket", file: !4, line: 778, size: 1344, flags: DIFlagTypePassByReference | DIFlagNonTrivial, elements: !142, identifier: "_ZTS14WritablePacket")
!142 = !{!143, !144, !149, !150, !151, !152, !153, !158, !159, !182, !187, !188, !199, !217, !228, !229, !233, !234, !239, !240, !243, !246}
!143 = !DIDerivedType(tag: DW_TAG_inheritance, scope: !141, baseType: !5, flags: DIFlagPublic, extraData: i32 0)
!144 = !DISubprogram(name: "data", linkageName: "_ZNK14WritablePacket4dataEv", scope: !141, file: !4, line: 780, type: !145, scopeLine: 780, flags: DIFlagPublic | DIFlagPrototyped, spFlags: DISPFlagOptimized)
!145 = !DISubroutineType(types: !146)
!146 = !{!80, !147}
!147 = !DIDerivedType(tag: DW_TAG_pointer_type, baseType: !148, size: 64, flags: DIFlagArtificial | DIFlagObjectPointer)
!148 = !DIDerivedType(tag: DW_TAG_const_type, baseType: !141)
!149 = !DISubprogram(name: "end_data", linkageName: "_ZNK14WritablePacket8end_dataEv", scope: !141, file: !4, line: 781, type: !145, scopeLine: 781, flags: DIFlagPublic | DIFlagPrototyped, spFlags: DISPFlagOptimized)
!150 = !DISubprogram(name: "buffer", linkageName: "_ZNK14WritablePacket6bufferEv", scope: !141, file: !4, line: 782, type: !145, scopeLine: 782, flags: DIFlagPublic | DIFlagPrototyped, spFlags: DISPFlagOptimized)
!151 = !DISubprogram(name: "end_buffer", linkageName: "_ZNK14WritablePacket10end_bufferEv", scope: !141, file: !4, line: 783, type: !145, scopeLine: 783, flags: DIFlagPublic | DIFlagPrototyped, spFlags: DISPFlagOptimized)
!152 = !DISubprogram(name: "mac_header", linkageName: "_ZNK14WritablePacket10mac_headerEv", scope: !141, file: !4, line: 784, type: !145, scopeLine: 784, flags: DIFlagPublic | DIFlagPrototyped, spFlags: DISPFlagOptimized)
!153 = !DISubprogram(name: "ether_header", linkageName: "_ZNK14WritablePacket12ether_headerEv", scope: !141, file: !4, line: 785, type: !154, scopeLine: 785, flags: DIFlagPublic | DIFlagPrototyped, spFlags: DISPFlagOptimized)
!154 = !DISubroutineType(types: !155)
!155 = !{!156, !147}
!156 = !DIDerivedType(tag: DW_TAG_pointer_type, baseType: !157, size: 64)
!157 = !DICompositeType(tag: DW_TAG_structure_type, name: "click_ether", file: !4, line: 24, flags: DIFlagFwdDecl, identifier: "_ZTS11click_ether")
!158 = !DISubprogram(name: "network_header", linkageName: "_ZNK14WritablePacket14network_headerEv", scope: !141, file: !4, line: 786, type: !145, scopeLine: 786, flags: DIFlagPublic | DIFlagPrototyped, spFlags: DISPFlagOptimized)
