; ModuleID = '../elements/icmp/icmpsendpings.cc'
source_filename = "../elements/icmp/icmpsendpings.cc"
target datalayout = "e-m:e-p270:32:32-p271:32:32-p272:64:64-i64:64-f80:128-n8:16:32:64-S128"
target triple = "x86_64-pc-linux-gnu"

%class.ArgContext = type <{ %class.Element*, %class.ErrorHandler*, i8*, i8, [7 x i8] }>
%class.Element = type <{ i32 (...)**, [2 x %"class.Element::Port"*], [4 x %"class.Element::Port"], [2 x i32], %class.Router*, i32, [4 x i8] }>
%"class.Element::Port" = type <{ %class.Element*, i32, [4 x i8] }>
%class.Router = type { %class.Master*, %class.atomic_uint32_t, i32, i8, i32, %class.atomic_uint32_t, %class.Vector, %class.Vector.0, %class.Vector.0, %class.Vector.2, %class.Vector.5, %class.Vector.6, i32, %class.Vector.5, [2 x %class.Vector.5], %class.Vector.5, %class.Vector.8, %class.Vector.5, %class.Vector.0, %class.Vector.5, %class.Vector.5, %class.Vector.5, %class.Vector.5, %class.Handler**, i32, i32, %class.Vector.0, %class.Vector.12, %class.Element*, %class.String, %"struct.Router::notifier_signals_t"*, %class.HashMap_ArenaFactory*, %class.Router*, %class.ThreadSched*, %class.NameInfo*, %class.Vector.5, %class.Vector.0, %class.Router* }
%class.Master = type opaque
%class.atomic_uint32_t = type { i32 }
%class.Vector = type { %class.vector_memory }
%class.vector_memory = type { %struct.char_array*, i32, i32 }
%struct.char_array = type opaque
%class.Vector.2 = type { %class.vector_memory.3 }
%class.vector_memory.3 = type { %struct.char_array.4*, i32, i32 }
%struct.char_array.4 = type opaque
%class.Vector.6 = type { %class.vector_memory.7 }
%class.vector_memory.7 = type { %"struct.Router::element_landmark_t"*, i32, i32 }
%"struct.Router::element_landmark_t" = type { i32, %class.String }
%class.Vector.8 = type { %class.vector_memory.9 }
%class.vector_memory.9 = type { %struct.char_array.10*, i32, i32 }
%struct.char_array.10 = type { [16 x i8] }
%class.Handler = type <{ %class.String, %union.anon, %union.anon.11, i8*, i8*, i32, i32, i32, [4 x i8] }>
%union.anon = type { i32 (i32, %class.String*, %class.Element*, %class.Handler*, %class.ErrorHandler*)* }
%union.anon.11 = type { i32 (i32, %class.String*, %class.Element*, %class.Handler*, %class.ErrorHandler*)* }
%class.Vector.12 = type { %class.vector_memory }
%class.String = type { %"struct.String::rep_t" }
%"struct.String::rep_t" = type { i8*, i32, %"struct.String::memo_t"* }
%"struct.String::memo_t" = type { i32, i32, i32, [8 x i8] }
%"struct.Router::notifier_signals_t" = type { %class.String, i32, [128 x %class.atomic_uint32_t], %"struct.Router::notifier_signals_t"* }
%class.HashMap_ArenaFactory = type opaque
%class.ThreadSched = type { i32 (...)** }
%class.NameInfo = type opaque
%class.Vector.5 = type { %class.vector_memory.3 }
%class.Vector.0 = type { %class.vector_memory.1 }
%class.vector_memory.1 = type { %class.String*, i32, i32 }
%class.ErrorHandler = type <{ i32 (...)**, i32, [4 x i8] }>
%class.ICMPPingSource = type { %class.Element.base, %struct.in_addr, %struct.in_addr, i32, i32, i16, i32, %class.Timer, %class.String, i8, i8, i8, i8, %"struct.ICMPPingSource::ReceiverInfo"* }
%class.Element.base = type <{ i32 (...)**, [2 x %"class.Element::Port"*], [4 x %"class.Element::Port"], [2 x i32], %class.Router*, i32 }>
%struct.in_addr = type { i32 }
%class.Timer = type { i32, %class.Timestamp, %union.anon.13, i8*, %class.Element*, %class.RouterThread* }
%class.Timestamp = type { %"union.Timestamp::rep_t" }
%"union.Timestamp::rep_t" = type { i64 }
%union.anon.13 = type { void (%class.Timer*, i8*)* }
%class.RouterThread = type { %struct.TaskLink, i8, [7 x i8], %class.TimerSet, %class.SelectSet, [32 x i8], %class.Spinlock, %class.atomic_uint32_t, %class.atomic_uint32_t, %"union.Task::Pending", %"union.Task::Pending"*, %class.SpinlockIRQ, [31 x i8], %class.Master*, i32, i8, i32, i32, [40 x i8] }
%struct.TaskLink = type <{ %struct.TaskLink*, %struct.TaskLink*, i32, [4 x i8] }>
%class.TimerSet = type <{ %class.Timestamp, i32, i32, i32, [4 x i8], %class.Vector.14, %class.Vector.15, %class.SimpleSpinlock, [7 x i8], %class.Timestamp, i32, [4 x i8] }>
%class.Vector.14 = type { %class.vector_memory.9 }
%class.Vector.15 = type { %class.vector_memory }
%class.SimpleSpinlock = type { i8 }
%class.SelectSet = type { [2 x i32], i8, %class.Vector.16, %class.Vector.17 }
%class.Vector.16 = type { %class.vector_memory }
%class.Vector.17 = type { %class.vector_memory.18 }
%class.vector_memory.18 = type { %struct.char_array.19*, i32, i32 }
%struct.char_array.19 = type opaque
%class.Spinlock = type { i8 }
%"union.Task::Pending" = type { %class.Task* }
%class.Task = type { %struct.TaskLink.base, i32, i32, %"union.Task::Status", i1 (%class.Task*, i8*)*, i8*, %class.RouterThread*, %class.Element*, %"union.Task::Pending" }
%struct.TaskLink.base = type <{ %struct.TaskLink*, %struct.TaskLink*, i32 }>
%"union.Task::Status" = type { i32 }
%class.SpinlockIRQ = type { i8 }
%"struct.ICMPPingSource::ReceiverInfo" = type { i32, i32, i32, i32, i64, i64, [65536 x %class.Timestamp] }
%class.Args = type { %class.ArgContext.base, i8, i8, i8, %class.Vector.0*, %class.Vector.5, %"struct.Args::Slot"*, [48 x i8] }
%class.ArgContext.base = type <{ %class.Element*, %class.ErrorHandler*, i8*, i8 }>
%"struct.Args::Slot" = type { i32 (...)**, %"struct.Args::Slot"* }
%class.PrefixErrorHandler = type { %class.ErrorVeneer, %class.String }
%class.ErrorVeneer = type { %class.ErrorHandler.base, %class.ErrorHandler* }
%class.ErrorHandler.base = type <{ i32 (...)**, i32 }>
%class.Packet = type { %class.atomic_uint32_t, %class.Packet*, i8*, i8*, i8*, i8*, %"struct.Packet::AllAnno", void (i8*, i64, i8*)*, i8* }
%"struct.Packet::AllAnno" = type { %"union.Packet::Anno", i8*, i8*, i8*, i32, [8 x i8], %class.Packet*, %class.Packet* }
%"union.Packet::Anno" = type { [6 x i64] }
%class.WritablePacket = type { %class.Packet }
%struct.click_ip = type { i8, i8, i16, i16, i16, i8, i8, i16, %struct.in_addr, %struct.in_addr }
%class.IPAddress = type { i32 }
%class.StringAccum = type { %"struct.StringAccum::rep_t" }
%"struct.StringAccum::rep_t" = type { i8*, i32, i32 }
%class.IntArg = type { i32, i32 }
%class.SecondsArg = type { i32, i32 }
%"struct.Args::SlotT" = type { %"struct.Args::Slot", %class.String*, %class.String }

$_ZNK6String6lengthEv = comdat any

$_ZN9Timestamp10assign_nowEv = comdat any

$_ZNK7Element6outputEi = comdat any

$_ZNK7Element4Port4pushEP6Packet = comdat any

$_ZNK14ICMPPingSource10class_nameEv = comdat any

$_ZNK14ICMPPingSource10port_countEv = comdat any

$_ZNK14ICMPPingSource10processingEv = comdat any

$__clang_call_terminate = comdat any

$_ZNK7Element4portEbi = comdat any

$_ZNK9Timestamp3secEv = comdat any

$_Z14args_base_readI7in_addrEvP4ArgsPKciRT_ = comdat any

$_ZN4Args9base_readI7in_addrEEvPKciRT_ = comdat any

$_Z14args_base_readI10SecondsArgjEvP4ArgsPKciT_RT0_ = comdat any

$_ZN4Args9base_readI10SecondsArgjEEvPKciT_RT0_ = comdat any

$_Z14args_base_readItEvP4ArgsPKciRT_ = comdat any

$_ZN4Args9base_readItEEvPKciRT_ = comdat any

$_Z14args_base_readI6StringEvP4ArgsPKciRT_ = comdat any

$_ZN4Args9base_readI6StringEEvPKciRT_ = comdat any

$_ZN4Args5SlotTI6StringED2Ev = comdat any

$_ZN4Args5SlotTI6StringED0Ev = comdat any

$_ZN4Args5SlotTI6StringE5storeEv = comdat any

$_Z14args_base_readIiEvP4ArgsPKciRT_ = comdat any

$_ZN4Args9base_readIiEEvPKciRT_ = comdat any

$_Z14args_base_readIbEvP4ArgsPKciRT_ = comdat any

$_ZN4Args9base_readIbEEvPKciRT_ = comdat any

$_ZTVN4Args5SlotTI6StringEE = comdat any

$_ZTSN4Args5SlotTI6StringEE = comdat any

$_ZTSN4Args4SlotE = comdat any

$_ZTIN4Args4SlotE = comdat any

$_ZTIN4Args5SlotTI6StringEE = comdat any

@_ZTV14ICMPPingSource = dso_local unnamed_addr constant { [29 x i8*] } { [29 x i8*] [i8* null, i8* bitcast ({ i8*, i8*, i8* }* @_ZTI14ICMPPingSource to i8*), i8* bitcast (void (%class.ICMPPingSource*)* @_ZN14ICMPPingSourceD2Ev to i8*), i8* bitcast (void (%class.ICMPPingSource*)* @_ZN14ICMPPingSourceD0Ev to i8*), i8* bitcast (void (%class.ICMPPingSource*, i32, %class.Packet*)* @_ZN14ICMPPingSource4pushEiP6Packet to i8*), i8* bitcast (%class.Packet* (%class.ICMPPingSource*, i32)* @_ZN14ICMPPingSource4pullEi to i8*), i8* bitcast (%class.Packet* (%class.Element*, %class.Packet*)* @_ZN7Element13simple_actionEP6Packet to i8*), i8* bitcast (i1 (%class.Element*, %class.Task*)* @_ZN7Element8run_taskEP4Task to i8*), i8* bitcast (void (%class.ICMPPingSource*, %class.Timer*)* @_ZN14ICMPPingSource9run_timerEP5Timer to i8*), i8* bitcast (void (%class.Element*, i32, i32)* @_ZN7Element8selectedEii to i8*), i8* bitcast (void (%class.Element*, i32)* @_ZN7Element8selectedEi to i8*), i8* bitcast (i8* (%class.ICMPPingSource*)* @_ZNK14ICMPPingSource10class_nameEv to i8*), i8* bitcast (i8* (%class.ICMPPingSource*)* @_ZNK14ICMPPingSource10port_countEv to i8*), i8* bitcast (i8* (%class.ICMPPingSource*)* @_ZNK14ICMPPingSource10processingEv to i8*), i8* bitcast (i8* (%class.Element*)* @_ZNK7Element9flow_codeEv to i8*), i8* bitcast (i8* (%class.Element*)* @_ZNK7Element5flagsEv to i8*), i8* bitcast (i8* (%class.Element*, i8*)* @_ZN7Element4castEPKc to i8*), i8* bitcast (i8* (%class.Element*, i1, i32, i8*)* @_ZN7Element9port_castEbiPKc to i8*), i8* bitcast (i32 (%class.Element*)* @_ZNK7Element15configure_phaseEv to i8*), i8* bitcast (i32 (%class.ICMPPingSource*, %class.Vector.0*, %class.ErrorHandler*)* @_ZN14ICMPPingSource9configureER6VectorI6StringEP12ErrorHandler to i8*), i8* bitcast (void (%class.ICMPPingSource*)* @_ZN14ICMPPingSource12add_handlersEv to i8*), i8* bitcast (i32 (%class.ICMPPingSource*, %class.ErrorHandler*)* @_ZN14ICMPPingSource10initializeEP12ErrorHandler to i8*), i8* bitcast (void (%class.Element*, %class.Element*, %class.ErrorHandler*)* @_ZN7Element10take_stateEPS_P12ErrorHandler to i8*), i8* bitcast (%class.Element* (%class.Element*)* @_ZNK7Element15hotswap_elementEv to i8*), i8* bitcast (void (%class.ICMPPingSource*, i32)* @_ZN14ICMPPingSource7cleanupEN7Element12CleanupStageE to i8*), i8* bitcast (void (%class.String*, %class.Element*)* @_ZNK7Element11declarationEv to i8*), i8* bitcast (i1 (%class.Element*)* @_ZNK7Element20can_live_reconfigureEv to i8*), i8* bitcast (i32 (%class.Element*, %class.Vector.0*, %class.ErrorHandler*)* @_ZN7Element16live_reconfigureER6VectorI6StringEP12ErrorHandler to i8*), i8* bitcast (i32 (%class.Element*, i32, i8*)* @_ZN7Element5llrpcEjPv to i8*)] }, align 8
@.str = private unnamed_addr constant [4 x i8] c"SRC\00", align 1
@.str.1 = private unnamed_addr constant [4 x i8] c"DST\00", align 1
@.str.2 = private unnamed_addr constant [9 x i8] c"INTERVAL\00", align 1
@.str.3 = private unnamed_addr constant [11 x i8] c"IDENTIFIER\00", align 1
@.str.4 = private unnamed_addr constant [5 x i8] c"DATA\00", align 1
@.str.5 = private unnamed_addr constant [6 x i8] c"LIMIT\00", align 1
@.str.6 = private unnamed_addr constant [7 x i8] c"ACTIVE\00", align 1
@.str.7 = private unnamed_addr constant [8 x i8] c"VERBOSE\00", align 1
@.str.8 = private unnamed_addr constant [5 x i8] c"STOP\00", align 1
@.str.9 = private unnamed_addr constant [7 x i8] c"MIRROR\00", align 1
@.str.10 = private unnamed_addr constant [34 x i8] c"INTERVAL so small that it is zero\00", align 1
@.str.11 = private unnamed_addr constant [52 x i8] c"element is pull, INTERVAL parameter will be ignored\00", align 1
@.str.12 = private unnamed_addr constant [31 x i8] c"MIRROR invalid on pull element\00", align 1
@.str.14 = private unnamed_addr constant [3 x i8] c": \00", align 1
@.str.15 = private unnamed_addr constant [3 x i8] c"%s\00", align 1
@.str.16 = private unnamed_addr constant [8 x i8] c"summary\00", align 1
@.str.17 = private unnamed_addr constant [65 x i8] c"%s: %d bytes from %p{ip_ptr}: icmp_seq=%u ttl=%u time=%d.%03d ms\00", align 1
@.str.18 = private unnamed_addr constant [21 x i8] c" packets transmitted\00", align 1
@.str.19 = private unnamed_addr constant [3 x i8] c", \00", align 1
@.str.20 = private unnamed_addr constant [10 x i8] c" received\00", align 1
@.str.21 = private unnamed_addr constant [4 x i8] c", +\00", align 1
@.str.22 = private unnamed_addr constant [12 x i8] c" duplicates\00", align 1
@.str.23 = private unnamed_addr constant [15 x i8] c"% packet loss\0A\00", align 1
@.str.24 = private unnamed_addr constant [56 x i8] c"rtt min/avg/max/mdev = %u.%03u/%u.%03u/%u.%03u/%u.%03u\0A\00", align 1
@.str.25 = private unnamed_addr constant [1 x i8] zeroinitializer, align 1
@blank_args = external global %class.ArgContext, align 8
@.str.26 = private unnamed_addr constant [14 x i8] c"type mismatch\00", align 1
@.str.27 = private unnamed_addr constant [13 x i8] c"syntax error\00", align 1
@.str.28 = private unnamed_addr constant [26 x i8] c"'limit' should be integer\00", align 1
@.str.29 = private unnamed_addr constant [33 x i8] c"'interval' should be an interval\00", align 1
@.str.30 = private unnamed_addr constant [7 x i8] c"active\00", align 1
@.str.31 = private unnamed_addr constant [4 x i8] c"src\00", align 1
@.str.32 = private unnamed_addr constant [4 x i8] c"dst\00", align 1
@.str.33 = private unnamed_addr constant [6 x i8] c"count\00", align 1
@.str.34 = private unnamed_addr constant [6 x i8] c"limit\00", align 1
@.str.35 = private unnamed_addr constant [9 x i8] c"interval\00", align 1
@.str.36 = private unnamed_addr constant [13 x i8] c"reset_counts\00", align 1
@.str.37 = private unnamed_addr constant [8 x i8] c"rtt_min\00", align 1
@.str.38 = private unnamed_addr constant [8 x i8] c"rtt_avg\00", align 1
@.str.39 = private unnamed_addr constant [8 x i8] c"rtt_max\00", align 1
@_ZTVN10__cxxabiv120__si_class_type_infoE = external global i8*
@_ZTS14ICMPPingSource = dso_local constant [17 x i8] c"14ICMPPingSource\00", align 1
@_ZTI7Element = external constant i8*
@_ZTI14ICMPPingSource = dso_local constant { i8*, i8*, i8* } { i8* bitcast (i8** getelementptr inbounds (i8*, i8** @_ZTVN10__cxxabiv120__si_class_type_infoE, i64 2) to i8*), i8* getelementptr inbounds ([17 x i8], [17 x i8]* @_ZTS14ICMPPingSource, i32 0, i32 0), i8* bitcast (i8** @_ZTI7Element to i8*) }, align 8
@_ZN6String9null_dataE = external constant i8, align 1
@.str.40 = private unnamed_addr constant [18 x i8] c"_r.memo->refcount\00", align 1
@.str.41 = private unnamed_addr constant [29 x i8] c"../dummy_inc/click/string.hh\00", align 1
@__PRETTY_FUNCTION__._ZNK6String5derefEv = private unnamed_addr constant [27 x i8] c"void String::deref() const\00", align 1
@_ZN12ErrorHandler19the_default_handlerE = external local_unnamed_addr global %class.ErrorHandler*, align 8
@_ZTV18PrefixErrorHandler = external unnamed_addr constant { [9 x i8*] }, align 8
@.str.42 = private unnamed_addr constant [47 x i8] c"(unsigned) port < (unsigned) _nports[isoutput]\00", align 1
@.str.43 = private unnamed_addr constant [30 x i8] c"../dummy_inc/click/element.hh\00", align 1
@__PRETTY_FUNCTION__._ZNK7Element4portEbi = private unnamed_addr constant [52 x i8] c"const Element::Port &Element::port(bool, int) const\00", align 1
@.str.44 = private unnamed_addr constant [8 x i8] c"_e && p\00", align 1
@__PRETTY_FUNCTION__._ZNK7Element4Port4pushEP6Packet = private unnamed_addr constant [41 x i8] c"void Element::Port::push(Packet *) const\00", align 1
@_ZN6String9bool_dataE = external constant [11 x i8], align 1
@.str.47 = private unnamed_addr constant [15 x i8] c"ICMPPingSource\00", align 1
@.str.48 = private unnamed_addr constant [6 x i8] c"0-1/1\00", align 1
@.str.49 = private unnamed_addr constant [4 x i8] c"h/a\00", align 1
@.str.50 = private unnamed_addr constant [15 x i8] c"invalid number\00", align 1
@_ZTVN4Args5SlotTI6StringEE = linkonce_odr dso_local unnamed_addr constant { [5 x i8*] } { [5 x i8*] [i8* null, i8* bitcast ({ i8*, i8*, i8* }* @_ZTIN4Args5SlotTI6StringEE to i8*), i8* bitcast (void (%"struct.Args::SlotT"*)* @_ZN4Args5SlotTI6StringED2Ev to i8*), i8* bitcast (void (%"struct.Args::SlotT"*)* @_ZN4Args5SlotTI6StringED0Ev to i8*), i8* bitcast (void (%"struct.Args::SlotT"*)* @_ZN4Args5SlotTI6StringE5storeEv to i8*)] }, comdat, align 8
@_ZTSN4Args5SlotTI6StringEE = linkonce_odr dso_local constant [23 x i8] c"N4Args5SlotTI6StringEE\00", comdat, align 1
@_ZTVN10__cxxabiv117__class_type_infoE = external global i8*
@_ZTSN4Args4SlotE = linkonce_odr dso_local constant [13 x i8] c"N4Args4SlotE\00", comdat, align 1
@_ZTIN4Args4SlotE = linkonce_odr dso_local constant { i8*, i8* } { i8* bitcast (i8** getelementptr inbounds (i8*, i8** @_ZTVN10__cxxabiv117__class_type_infoE, i64 2) to i8*), i8* getelementptr inbounds ([13 x i8], [13 x i8]* @_ZTSN4Args4SlotE, i32 0, i32 0) }, comdat, align 8
@_ZTIN4Args5SlotTI6StringEE = linkonce_odr dso_local constant { i8*, i8*, i8* } { i8* bitcast (i8** getelementptr inbounds (i8*, i8** @_ZTVN10__cxxabiv120__si_class_type_infoE, i64 2) to i8*), i8* getelementptr inbounds ([23 x i8], [23 x i8]* @_ZTSN4Args5SlotTI6StringEE, i32 0, i32 0), i8* bitcast ({ i8*, i8* }* @_ZTIN4Args4SlotE to i8*) }, comdat, align 8

@_ZN14ICMPPingSourceC1Ev = dso_local unnamed_addr alias void (%class.ICMPPingSource*), void (%class.ICMPPingSource*)* @_ZN14ICMPPingSourceC2Ev
@_ZN14ICMPPingSourceD1Ev = dso_local unnamed_addr alias void (%class.ICMPPingSource*), void (%class.ICMPPingSource*)* @_ZN14ICMPPingSourceD2Ev

; Function Attrs: sspstrong uwtable
define dso_local void @_ZN14ICMPPingSourceC2Ev(%class.ICMPPingSource* %0) unnamed_addr #0 align 2 personality i8* bitcast (i32 (...)* @__gxx_personality_v0 to i8*) !dbg !5000 {
  call void @llvm.dbg.value(metadata %class.ICMPPingSource* %0, metadata !5002, metadata !DIExpression()), !dbg !5003
  %2 = bitcast %class.ICMPPingSource* %0 to %class.Element*, !dbg !5004
  tail call void @_ZN7ElementC2Ev(%class.Element* %2), !dbg !5005
  %3 = getelementptr %class.ICMPPingSource, %class.ICMPPingSource* %0, i64 0, i32 0, i32 0, !dbg !5004
  store i32 (...)** bitcast (i8** getelementptr inbounds ({ [29 x i8*] }, { [29 x i8*] }* @_ZTV14ICMPPingSource, i64 0, inrange i32 0, i64 2) to i32 (...)**), i32 (...)*** %3, align 8, !dbg !5004, !tbaa !5006
  %4 = getelementptr inbounds %class.ICMPPingSource, %class.ICMPPingSource* %0, i64 0, i32 4, !dbg !5009
  store i32 -1, i32* %4, align 8, !dbg !5009, !tbaa !5010
  %5 = getelementptr inbounds %class.ICMPPingSource, %class.ICMPPingSource* %0, i64 0, i32 7, !dbg !5022
  invoke void @_ZN5TimerC1EP7Element(%class.Timer* nonnull %5, %class.Element* %2)
          to label %6 unwind label %11, !dbg !5022

6:                                                ; preds = %1
  call void @llvm.dbg.value(metadata %class.ICMPPingSource* %0, metadata !5023, metadata !DIExpression(DW_OP_plus_uconst, 184, DW_OP_stack_value)), !dbg !5026
  call void @llvm.dbg.value(metadata %class.ICMPPingSource* %0, metadata !5028, metadata !DIExpression(DW_OP_plus_uconst, 184, DW_OP_stack_value)), !dbg !5034
  call void @llvm.dbg.value(metadata i8* @_ZN6String9null_dataE, metadata !5031, metadata !DIExpression()), !dbg !5034
  call void @llvm.dbg.value(metadata i32 0, metadata !5032, metadata !DIExpression()), !dbg !5034
  call void @llvm.dbg.value(metadata %"struct.String::memo_t"* null, metadata !5033, metadata !DIExpression()), !dbg !5034
  %7 = getelementptr inbounds %class.ICMPPingSource, %class.ICMPPingSource* %0, i64 0, i32 8, i32 0, i32 0, !dbg !5037
  store i8* @_ZN6String9null_dataE, i8** %7, align 8, !dbg !5038, !tbaa !5039
  %8 = getelementptr inbounds %class.ICMPPingSource, %class.ICMPPingSource* %0, i64 0, i32 8, i32 0, i32 1, !dbg !5040
  store i32 0, i32* %8, align 8, !dbg !5041, !tbaa !5042
  %9 = getelementptr inbounds %class.ICMPPingSource, %class.ICMPPingSource* %0, i64 0, i32 8, i32 0, i32 2, !dbg !5043
  store %"struct.String::memo_t"* null, %"struct.String::memo_t"** %9, align 8, !dbg !5045, !tbaa !5046
  %10 = getelementptr inbounds %class.ICMPPingSource, %class.ICMPPingSource* %0, i64 0, i32 13, !dbg !5047
  store %"struct.ICMPPingSource::ReceiverInfo"* null, %"struct.ICMPPingSource::ReceiverInfo"** %10, align 8, !dbg !5047, !tbaa !5048
  ret void, !dbg !5049

11:                                               ; preds = %1
  %12 = landingpad { i8*, i32 }
          cleanup, !dbg !5049
  tail call void @_ZN7ElementD2Ev(%class.Element* %2) #14, !dbg !5050
  resume { i8*, i32 } %12, !dbg !5050
}

; Function Attrs: nounwind readnone speculatable willreturn
declare void @llvm.dbg.declare(metadata, metadata, metadata) #1

declare void @_ZN7ElementC2Ev(%class.Element*) unnamed_addr #2

declare void @_ZN5TimerC1EP7Element(%class.Timer*, %class.Element*) unnamed_addr #2

declare i32 @__gxx_personality_v0(...)

; Function Attrs: nounwind
declare void @_ZN7ElementD2Ev(%class.Element*) unnamed_addr #3

; Function Attrs: nounwind sspstrong uwtable
define dso_local void @_ZN14ICMPPingSourceD2Ev(%class.ICMPPingSource* %0) unnamed_addr #4 align 2 personality i32 (...)* @__gxx_personality_v0 !dbg !5052 {
  call void @llvm.dbg.value(metadata %class.ICMPPingSource* %0, metadata !5054, metadata !DIExpression()), !dbg !5055
  %2 = getelementptr %class.ICMPPingSource, %class.ICMPPingSource* %0, i64 0, i32 0, i32 0, !dbg !5056
  store i32 (...)** bitcast (i8** getelementptr inbounds ({ [29 x i8*] }, { [29 x i8*] }* @_ZTV14ICMPPingSource, i64 0, inrange i32 0, i64 2) to i32 (...)**), i32 (...)*** %2, align 8, !dbg !5056, !tbaa !5006
  call void @llvm.dbg.value(metadata %class.ICMPPingSource* %0, metadata !5057, metadata !DIExpression(DW_OP_plus_uconst, 184, DW_OP_stack_value)) #14, !dbg !5060
  call void @llvm.dbg.value(metadata %class.ICMPPingSource* %0, metadata !5063, metadata !DIExpression(DW_OP_plus_uconst, 184, DW_OP_stack_value)) #14, !dbg !5066
  %3 = getelementptr inbounds %class.ICMPPingSource, %class.ICMPPingSource* %0, i64 0, i32 8, i32 0, i32 2, !dbg !5069
  %4 = load %"struct.String::memo_t"*, %"struct.String::memo_t"** %3, align 8, !dbg !5069, !tbaa !5046
  %5 = icmp eq %"struct.String::memo_t"* %4, null, !dbg !5071
  br i1 %5, label %20, label %6, !dbg !5072

6:                                                ; preds = %1
  %7 = getelementptr inbounds %"struct.String::memo_t", %"struct.String::memo_t"* %4, i64 0, i32 0, !dbg !5073
  %8 = load volatile i32, i32* %7, align 4, !dbg !5073, !tbaa !5075
  %9 = icmp eq i32 %8, 0, !dbg !5073
  br i1 %9, label %10, label %11, !dbg !5073

10:                                               ; preds = %6
  tail call void @__assert_fail(i8* getelementptr inbounds ([18 x i8], [18 x i8]* @.str.40, i64 0, i64 0), i8* getelementptr inbounds ([29 x i8], [29 x i8]* @.str.41, i64 0, i64 0), i32 273, i8* getelementptr inbounds ([27 x i8], [27 x i8]* @__PRETTY_FUNCTION__._ZNK6String5derefEv, i64 0, i64 0)) #15, !dbg !5073
  unreachable, !dbg !5073

11:                                               ; preds = %6
  call void @llvm.dbg.value(metadata i32* %7, metadata !5077, metadata !DIExpression()) #14, !dbg !5080
  %12 = load volatile i32, i32* %7, align 4, !dbg !5083, !tbaa !5084
  %13 = add i32 %12, -1, !dbg !5083
  store volatile i32 %13, i32* %7, align 4, !dbg !5083, !tbaa !5084
  %14 = icmp eq i32 %13, 0, !dbg !5085
  br i1 %14, label %15, label %16, !dbg !5086

15:                                               ; preds = %11
  invoke void @_ZN6String11delete_memoEPNS_6memo_tE(%"struct.String::memo_t"* nonnull %4)
          to label %16 unwind label %17, !dbg !5087

16:                                               ; preds = %15, %11
  store %"struct.String::memo_t"* null, %"struct.String::memo_t"** %3, align 8, !dbg !5088, !tbaa !5046
  br label %20, !dbg !5089

17:                                               ; preds = %15
  %18 = landingpad { i8*, i32 }
          catch i8* null, !dbg !5090
  %19 = extractvalue { i8*, i32 } %18, 0, !dbg !5090
  tail call void @__clang_call_terminate(i8* %19) #15, !dbg !5090
  unreachable, !dbg !5090

20:                                               ; preds = %1, %16
  %21 = getelementptr inbounds %class.ICMPPingSource, %class.ICMPPingSource* %0, i64 0, i32 7, !dbg !5091
  call void @llvm.dbg.value(metadata %class.Timer* %21, metadata !5092, metadata !DIExpression()) #14, !dbg !5095
  call void @llvm.dbg.value(metadata %class.Timer* %21, metadata !5097, metadata !DIExpression()) #14, !dbg !5101
  %22 = getelementptr inbounds %class.Timer, %class.Timer* %21, i64 0, i32 0, !dbg !5105
  %23 = load i32, i32* %22, align 8, !dbg !5105, !tbaa !5106
  %24 = icmp eq i32 %23, 0, !dbg !5107
  br i1 %24, label %29, label %25, !dbg !5108

25:                                               ; preds = %20
  invoke void @_ZN5Timer10unscheduleEv(%class.Timer* nonnull %21)
          to label %29 unwind label %26, !dbg !5109

26:                                               ; preds = %25
  %27 = landingpad { i8*, i32 }
          catch i8* null, !dbg !5110
  %28 = extractvalue { i8*, i32 } %27, 0, !dbg !5110
  tail call void @__clang_call_terminate(i8* %28) #15, !dbg !5110
  unreachable, !dbg !5110

29:                                               ; preds = %20, %25
  %30 = bitcast %class.ICMPPingSource* %0 to %class.Element*, !dbg !5091
  tail call void @_ZN7ElementD2Ev(%class.Element* %30) #14, !dbg !5091
  ret void, !dbg !5111
}

; Function Attrs: nounwind sspstrong uwtable
define dso_local void @_ZN14ICMPPingSourceD0Ev(%class.ICMPPingSource* %0) unnamed_addr #4 align 2 !dbg !5112 {
  call void @llvm.dbg.value(metadata %class.ICMPPingSource* %0, metadata !5114, metadata !DIExpression()), !dbg !5115
  tail call void @_ZN14ICMPPingSourceD2Ev(%class.ICMPPingSource* %0) #14, !dbg !5116
  %2 = bitcast %class.ICMPPingSource* %0 to i8*, !dbg !5116
  tail call void @_ZdlPv(i8* %2) #16, !dbg !5116
  ret void, !dbg !5117
}

; Function Attrs: nobuiltin nounwind
declare void @_ZdlPv(i8*) local_unnamed_addr #5

; Function Attrs: sspstrong uwtable
define dso_local i32 @_ZN14ICMPPingSource9configureER6VectorI6StringEP12ErrorHandler(%class.ICMPPingSource* %0, %class.Vector.0* dereferenceable(16) %1, %class.ErrorHandler* %2) unnamed_addr #0 align 2 personality i8* bitcast (i32 (...)* @__gxx_personality_v0 to i8*) !dbg !5118 {
  %4 = alloca %class.Args, align 8
  call void @llvm.dbg.value(metadata %class.ICMPPingSource* %0, metadata !5120, metadata !DIExpression()), !dbg !5124
  call void @llvm.dbg.value(metadata %class.Vector.0* %1, metadata !5121, metadata !DIExpression()), !dbg !5124
  call void @llvm.dbg.value(metadata %class.ErrorHandler* %2, metadata !5122, metadata !DIExpression()), !dbg !5124
  %5 = getelementptr inbounds %class.ICMPPingSource, %class.ICMPPingSource* %0, i64 0, i32 5, !dbg !5125
  store i16 0, i16* %5, align 4, !dbg !5126, !tbaa !5127
  %6 = getelementptr inbounds %class.ICMPPingSource, %class.ICMPPingSource* %0, i64 0, i32 6, !dbg !5128
  store i32 1000, i32* %6, align 8, !dbg !5129, !tbaa !5130
  %7 = getelementptr inbounds %class.ICMPPingSource, %class.ICMPPingSource* %0, i64 0, i32 8, !dbg !5131
  call void @llvm.dbg.value(metadata %class.String* %7, metadata !5132, metadata !DIExpression()), !dbg !5136
  call void @llvm.dbg.value(metadata %class.String* undef, metadata !5135, metadata !DIExpression()), !dbg !5136
  call void @llvm.dbg.value(metadata %class.String* %7, metadata !5063, metadata !DIExpression()), !dbg !5138
  %8 = getelementptr inbounds %class.ICMPPingSource, %class.ICMPPingSource* %0, i64 0, i32 8, i32 0, i32 2, !dbg !5140
  %9 = load %"struct.String::memo_t"*, %"struct.String::memo_t"** %8, align 8, !dbg !5140, !tbaa !5046
  %10 = icmp eq %"struct.String::memo_t"* %9, null, !dbg !5141
  br i1 %10, label %22, label %11, !dbg !5142

11:                                               ; preds = %3
  %12 = getelementptr inbounds %"struct.String::memo_t", %"struct.String::memo_t"* %9, i64 0, i32 0, !dbg !5143
  %13 = load volatile i32, i32* %12, align 4, !dbg !5143, !tbaa !5075
  %14 = icmp eq i32 %13, 0, !dbg !5143
  br i1 %14, label %15, label %16, !dbg !5143

15:                                               ; preds = %11
  tail call void @__assert_fail(i8* getelementptr inbounds ([18 x i8], [18 x i8]* @.str.40, i64 0, i64 0), i8* getelementptr inbounds ([29 x i8], [29 x i8]* @.str.41, i64 0, i64 0), i32 273, i8* getelementptr inbounds ([27 x i8], [27 x i8]* @__PRETTY_FUNCTION__._ZNK6String5derefEv, i64 0, i64 0)) #15, !dbg !5143
  unreachable, !dbg !5143

16:                                               ; preds = %11
  call void @llvm.dbg.value(metadata i32* %12, metadata !5077, metadata !DIExpression()), !dbg !5144
  %17 = load volatile i32, i32* %12, align 4, !dbg !5146, !tbaa !5084
  %18 = add i32 %17, -1, !dbg !5146
  store volatile i32 %18, i32* %12, align 4, !dbg !5146, !tbaa !5084
  %19 = icmp eq i32 %18, 0, !dbg !5147
  br i1 %19, label %20, label %21, !dbg !5148

20:                                               ; preds = %16
  invoke void @_ZN6String11delete_memoEPNS_6memo_tE(%"struct.String::memo_t"* nonnull %9)
          to label %21 unwind label %49, !dbg !5149

21:                                               ; preds = %20, %16
  store %"struct.String::memo_t"* null, %"struct.String::memo_t"** %8, align 8, !dbg !5150, !tbaa !5046
  br label %22, !dbg !5151

22:                                               ; preds = %3, %21
  %23 = getelementptr inbounds %class.ICMPPingSource, %class.ICMPPingSource* %0, i64 0, i32 8, i32 0, i32 0, !dbg !5152
  store i8* @_ZN6String9null_dataE, i8** %23, align 8, !dbg !5152, !tbaa.struct !5153
  %24 = getelementptr inbounds %class.ICMPPingSource, %class.ICMPPingSource* %0, i64 0, i32 8, i32 0, i32 1, !dbg !5152
  store i32 0, i32* %24, align 8, !dbg !5152, !tbaa.struct !5153
  store %"struct.String::memo_t"* null, %"struct.String::memo_t"** %8, align 8, !dbg !5152, !tbaa.struct !5153
  call void @llvm.dbg.value(metadata %class.String* undef, metadata !5063, metadata !DIExpression()) #14, !dbg !5155
  %25 = getelementptr inbounds %class.ICMPPingSource, %class.ICMPPingSource* %0, i64 0, i32 9, !dbg !5158
  store i8 1, i8* %25, align 8, !dbg !5159, !tbaa !5160
  %26 = getelementptr inbounds %class.ICMPPingSource, %class.ICMPPingSource* %0, i64 0, i32 10, !dbg !5161
  store i8 1, i8* %26, align 1, !dbg !5162, !tbaa !5163
  %27 = getelementptr inbounds %class.ICMPPingSource, %class.ICMPPingSource* %0, i64 0, i32 11, !dbg !5164
  store i8 0, i8* %27, align 2, !dbg !5165, !tbaa !5166
  %28 = getelementptr inbounds %class.ICMPPingSource, %class.ICMPPingSource* %0, i64 0, i32 12, !dbg !5167
  store i8 0, i8* %28, align 1, !dbg !5168, !tbaa !5169
  %29 = bitcast %class.Args* %4 to i8*, !dbg !5170
  call void @llvm.lifetime.start.p0i8(i64 112, i8* nonnull %29) #14, !dbg !5170
  %30 = bitcast %class.ICMPPingSource* %0 to %class.Element*, !dbg !5172
  call void @_ZN4ArgsC1ERK6VectorI6StringEPK7ElementP12ErrorHandler(%class.Args* nonnull %4, %class.Vector.0* nonnull dereferenceable(16) %1, %class.Element* %30, %class.ErrorHandler* %2), !dbg !5170
  %31 = getelementptr inbounds %class.ICMPPingSource, %class.ICMPPingSource* %0, i64 0, i32 1, !dbg !5173
  call void @llvm.dbg.value(metadata %class.Args* %4, metadata !5174, metadata !DIExpression()), !dbg !5182
  call void @llvm.dbg.value(metadata i8* getelementptr inbounds ([4 x i8], [4 x i8]* @.str, i64 0, i64 0), metadata !5180, metadata !DIExpression()), !dbg !5182
  call void @llvm.dbg.value(metadata %struct.in_addr* %31, metadata !5181, metadata !DIExpression()), !dbg !5182
  call void @llvm.dbg.value(metadata %class.Args* %4, metadata !5184, metadata !DIExpression()), !dbg !5193
  call void @llvm.dbg.value(metadata i8* getelementptr inbounds ([4 x i8], [4 x i8]* @.str, i64 0, i64 0), metadata !5190, metadata !DIExpression()), !dbg !5193
  call void @llvm.dbg.value(metadata i32 3, metadata !5191, metadata !DIExpression()), !dbg !5193
  call void @llvm.dbg.value(metadata %struct.in_addr* %31, metadata !5192, metadata !DIExpression()), !dbg !5193
  invoke void @_Z14args_base_readI7in_addrEvP4ArgsPKciRT_(%class.Args* nonnull %4, i8* getelementptr inbounds ([4 x i8], [4 x i8]* @.str, i64 0, i64 0), i32 3, %struct.in_addr* nonnull dereferenceable(4) %31)
          to label %32 unwind label %53, !dbg !5195

32:                                               ; preds = %22
  %33 = getelementptr inbounds %class.ICMPPingSource, %class.ICMPPingSource* %0, i64 0, i32 2, !dbg !5196
  call void @llvm.dbg.value(metadata %class.Args* %4, metadata !5174, metadata !DIExpression()), !dbg !5197
  call void @llvm.dbg.value(metadata i8* getelementptr inbounds ([4 x i8], [4 x i8]* @.str.1, i64 0, i64 0), metadata !5180, metadata !DIExpression()), !dbg !5197
  call void @llvm.dbg.value(metadata %struct.in_addr* %33, metadata !5181, metadata !DIExpression()), !dbg !5197
  call void @llvm.dbg.value(metadata %class.Args* %4, metadata !5184, metadata !DIExpression()), !dbg !5199
  call void @llvm.dbg.value(metadata i8* getelementptr inbounds ([4 x i8], [4 x i8]* @.str.1, i64 0, i64 0), metadata !5190, metadata !DIExpression()), !dbg !5199
  call void @llvm.dbg.value(metadata i32 3, metadata !5191, metadata !DIExpression()), !dbg !5199
  call void @llvm.dbg.value(metadata %struct.in_addr* %33, metadata !5192, metadata !DIExpression()), !dbg !5199
  invoke void @_Z14args_base_readI7in_addrEvP4ArgsPKciRT_(%class.Args* nonnull %4, i8* getelementptr inbounds ([4 x i8], [4 x i8]* @.str.1, i64 0, i64 0), i32 3, %struct.in_addr* nonnull dereferenceable(4) %33)
          to label %34 unwind label %53, !dbg !5201

34:                                               ; preds = %32
  call void @llvm.dbg.value(metadata i64 3, metadata !5202, metadata !DIExpression()), !dbg !5211
  call void @llvm.dbg.value(metadata %class.Args* %4, metadata !5208, metadata !DIExpression()), !dbg !5211
  call void @llvm.dbg.value(metadata i8* getelementptr inbounds ([9 x i8], [9 x i8]* @.str.2, i64 0, i64 0), metadata !5209, metadata !DIExpression()), !dbg !5211
  call void @llvm.dbg.value(metadata i32* %6, metadata !5210, metadata !DIExpression()), !dbg !5211
  call void @llvm.dbg.value(metadata i64 3, metadata !5213, metadata !DIExpression()), !dbg !5223
  call void @llvm.dbg.value(metadata %class.Args* %4, metadata !5219, metadata !DIExpression()), !dbg !5223
  call void @llvm.dbg.value(metadata i8* getelementptr inbounds ([9 x i8], [9 x i8]* @.str.2, i64 0, i64 0), metadata !5220, metadata !DIExpression()), !dbg !5223
  call void @llvm.dbg.value(metadata i32 0, metadata !5221, metadata !DIExpression()), !dbg !5223
  call void @llvm.dbg.value(metadata i32* %6, metadata !5222, metadata !DIExpression()), !dbg !5223
  invoke void @_Z14args_base_readI10SecondsArgjEvP4ArgsPKciT_RT0_(%class.Args* nonnull %4, i8* getelementptr inbounds ([9 x i8], [9 x i8]* @.str.2, i64 0, i64 0), i32 0, i64 3, i32* nonnull dereferenceable(4) %6)
          to label %35 unwind label %53, !dbg !5225

35:                                               ; preds = %34
  call void @llvm.dbg.value(metadata %class.Args* %4, metadata !5226, metadata !DIExpression()), !dbg !5230
  %36 = getelementptr inbounds %class.Args, %class.Args* %4, i64 0, i32 0, i32 3, !dbg !5232
  %37 = load i8, i8* %36, align 8, !dbg !5232, !tbaa !5233, !range !5235
  call void @llvm.dbg.value(metadata %class.Args* %4, metadata !5236, metadata !DIExpression()), !dbg !5244
  call void @llvm.dbg.value(metadata i8* getelementptr inbounds ([11 x i8], [11 x i8]* @.str.3, i64 0, i64 0), metadata !5242, metadata !DIExpression()), !dbg !5244
  call void @llvm.dbg.value(metadata i16* %5, metadata !5243, metadata !DIExpression()), !dbg !5244
  call void @llvm.dbg.value(metadata %class.Args* %4, metadata !5246, metadata !DIExpression()), !dbg !5255
  call void @llvm.dbg.value(metadata i8* getelementptr inbounds ([11 x i8], [11 x i8]* @.str.3, i64 0, i64 0), metadata !5252, metadata !DIExpression()), !dbg !5255
  call void @llvm.dbg.value(metadata i32 0, metadata !5253, metadata !DIExpression()), !dbg !5255
  call void @llvm.dbg.value(metadata i16* %5, metadata !5254, metadata !DIExpression()), !dbg !5255
  invoke void @_Z14args_base_readItEvP4ArgsPKciRT_(%class.Args* nonnull %4, i8* getelementptr inbounds ([11 x i8], [11 x i8]* @.str.3, i64 0, i64 0), i32 0, i16* nonnull dereferenceable(2) %5)
          to label %38 unwind label %53, !dbg !5257

38:                                               ; preds = %35
  call void @llvm.dbg.value(metadata %class.Args* %4, metadata !5258, metadata !DIExpression()), !dbg !5266
  call void @llvm.dbg.value(metadata i8* getelementptr inbounds ([5 x i8], [5 x i8]* @.str.4, i64 0, i64 0), metadata !5264, metadata !DIExpression()), !dbg !5266
  call void @llvm.dbg.value(metadata %class.String* %7, metadata !5265, metadata !DIExpression()), !dbg !5266
  call void @llvm.dbg.value(metadata %class.Args* %4, metadata !5268, metadata !DIExpression()), !dbg !5277
  call void @llvm.dbg.value(metadata i8* getelementptr inbounds ([5 x i8], [5 x i8]* @.str.4, i64 0, i64 0), metadata !5274, metadata !DIExpression()), !dbg !5277
  call void @llvm.dbg.value(metadata i32 0, metadata !5275, metadata !DIExpression()), !dbg !5277
  call void @llvm.dbg.value(metadata %class.String* %7, metadata !5276, metadata !DIExpression()), !dbg !5277
  invoke void @_Z14args_base_readI6StringEvP4ArgsPKciRT_(%class.Args* nonnull %4, i8* getelementptr inbounds ([5 x i8], [5 x i8]* @.str.4, i64 0, i64 0), i32 0, %class.String* nonnull dereferenceable(24) %7)
          to label %39 unwind label %53, !dbg !5279

39:                                               ; preds = %38
  %40 = getelementptr inbounds %class.ICMPPingSource, %class.ICMPPingSource* %0, i64 0, i32 4, !dbg !5280
  call void @llvm.dbg.value(metadata %class.Args* %4, metadata !5281, metadata !DIExpression()), !dbg !5289
  call void @llvm.dbg.value(metadata i8* getelementptr inbounds ([6 x i8], [6 x i8]* @.str.5, i64 0, i64 0), metadata !5287, metadata !DIExpression()), !dbg !5289
  call void @llvm.dbg.value(metadata i32* %40, metadata !5288, metadata !DIExpression()), !dbg !5289
  call void @llvm.dbg.value(metadata %class.Args* %4, metadata !5291, metadata !DIExpression()), !dbg !5300
  call void @llvm.dbg.value(metadata i8* getelementptr inbounds ([6 x i8], [6 x i8]* @.str.5, i64 0, i64 0), metadata !5297, metadata !DIExpression()), !dbg !5300
  call void @llvm.dbg.value(metadata i32 0, metadata !5298, metadata !DIExpression()), !dbg !5300
  call void @llvm.dbg.value(metadata i32* %40, metadata !5299, metadata !DIExpression()), !dbg !5300
  invoke void @_Z14args_base_readIiEvP4ArgsPKciRT_(%class.Args* nonnull %4, i8* getelementptr inbounds ([6 x i8], [6 x i8]* @.str.5, i64 0, i64 0), i32 0, i32* nonnull dereferenceable(4) %40)
          to label %41 unwind label %53, !dbg !5302

41:                                               ; preds = %39
  call void @llvm.dbg.value(metadata %class.Args* %4, metadata !5303, metadata !DIExpression()), !dbg !5311
  call void @llvm.dbg.value(metadata i8* getelementptr inbounds ([7 x i8], [7 x i8]* @.str.6, i64 0, i64 0), metadata !5309, metadata !DIExpression()), !dbg !5311
  call void @llvm.dbg.value(metadata i8* %25, metadata !5310, metadata !DIExpression()), !dbg !5311
  call void @llvm.dbg.value(metadata %class.Args* %4, metadata !5313, metadata !DIExpression()), !dbg !5322
  call void @llvm.dbg.value(metadata i8* getelementptr inbounds ([7 x i8], [7 x i8]* @.str.6, i64 0, i64 0), metadata !5319, metadata !DIExpression()), !dbg !5322
  call void @llvm.dbg.value(metadata i32 0, metadata !5320, metadata !DIExpression()), !dbg !5322
  call void @llvm.dbg.value(metadata i8* %25, metadata !5321, metadata !DIExpression()), !dbg !5322
  invoke void @_Z14args_base_readIbEvP4ArgsPKciRT_(%class.Args* nonnull %4, i8* getelementptr inbounds ([7 x i8], [7 x i8]* @.str.6, i64 0, i64 0), i32 0, i8* nonnull dereferenceable(1) %25)
          to label %42 unwind label %53, !dbg !5324

42:                                               ; preds = %41
  call void @llvm.dbg.value(metadata %class.Args* %4, metadata !5303, metadata !DIExpression()), !dbg !5325
  call void @llvm.dbg.value(metadata i8* getelementptr inbounds ([8 x i8], [8 x i8]* @.str.7, i64 0, i64 0), metadata !5309, metadata !DIExpression()), !dbg !5325
  call void @llvm.dbg.value(metadata i8* %26, metadata !5310, metadata !DIExpression()), !dbg !5325
  call void @llvm.dbg.value(metadata %class.Args* %4, metadata !5313, metadata !DIExpression()), !dbg !5327
  call void @llvm.dbg.value(metadata i8* getelementptr inbounds ([8 x i8], [8 x i8]* @.str.7, i64 0, i64 0), metadata !5319, metadata !DIExpression()), !dbg !5327
  call void @llvm.dbg.value(metadata i32 0, metadata !5320, metadata !DIExpression()), !dbg !5327
  call void @llvm.dbg.value(metadata i8* %26, metadata !5321, metadata !DIExpression()), !dbg !5327
  invoke void @_Z14args_base_readIbEvP4ArgsPKciRT_(%class.Args* nonnull %4, i8* getelementptr inbounds ([8 x i8], [8 x i8]* @.str.7, i64 0, i64 0), i32 0, i8* nonnull dereferenceable(1) %26)
          to label %43 unwind label %53, !dbg !5329

43:                                               ; preds = %42
  call void @llvm.dbg.value(metadata %class.Args* %4, metadata !5303, metadata !DIExpression()), !dbg !5330
  call void @llvm.dbg.value(metadata i8* getelementptr inbounds ([5 x i8], [5 x i8]* @.str.8, i64 0, i64 0), metadata !5309, metadata !DIExpression()), !dbg !5330
  call void @llvm.dbg.value(metadata i8* %27, metadata !5310, metadata !DIExpression()), !dbg !5330
  call void @llvm.dbg.value(metadata %class.Args* %4, metadata !5313, metadata !DIExpression()), !dbg !5332
  call void @llvm.dbg.value(metadata i8* getelementptr inbounds ([5 x i8], [5 x i8]* @.str.8, i64 0, i64 0), metadata !5319, metadata !DIExpression()), !dbg !5332
  call void @llvm.dbg.value(metadata i32 0, metadata !5320, metadata !DIExpression()), !dbg !5332
  call void @llvm.dbg.value(metadata i8* %27, metadata !5321, metadata !DIExpression()), !dbg !5332
  invoke void @_Z14args_base_readIbEvP4ArgsPKciRT_(%class.Args* nonnull %4, i8* getelementptr inbounds ([5 x i8], [5 x i8]* @.str.8, i64 0, i64 0), i32 0, i8* nonnull dereferenceable(1) %27)
          to label %44 unwind label %53, !dbg !5334

44:                                               ; preds = %43
  call void @llvm.dbg.value(metadata %class.Args* %4, metadata !5303, metadata !DIExpression()), !dbg !5335
  call void @llvm.dbg.value(metadata i8* getelementptr inbounds ([7 x i8], [7 x i8]* @.str.9, i64 0, i64 0), metadata !5309, metadata !DIExpression()), !dbg !5335
  call void @llvm.dbg.value(metadata i8* %28, metadata !5310, metadata !DIExpression()), !dbg !5335
  call void @llvm.dbg.value(metadata %class.Args* %4, metadata !5313, metadata !DIExpression()), !dbg !5337
  call void @llvm.dbg.value(metadata i8* getelementptr inbounds ([7 x i8], [7 x i8]* @.str.9, i64 0, i64 0), metadata !5319, metadata !DIExpression()), !dbg !5337
  call void @llvm.dbg.value(metadata i32 0, metadata !5320, metadata !DIExpression()), !dbg !5337
  call void @llvm.dbg.value(metadata i8* %28, metadata !5321, metadata !DIExpression()), !dbg !5337
  invoke void @_Z14args_base_readIbEvP4ArgsPKciRT_(%class.Args* nonnull %4, i8* getelementptr inbounds ([7 x i8], [7 x i8]* @.str.9, i64 0, i64 0), i32 0, i8* nonnull dereferenceable(1) %28)
          to label %45 unwind label %53, !dbg !5339

45:                                               ; preds = %44
  %46 = invoke i32 @_ZN4Args8completeEv(%class.Args* nonnull %4)
          to label %47 unwind label %53, !dbg !5340

47:                                               ; preds = %45
  %48 = icmp slt i32 %46, 0, !dbg !5341
  call void @_ZN4ArgsD1Ev(%class.Args* nonnull %4) #14, !dbg !5170
  call void @llvm.lifetime.end.p0i8(i64 112, i8* nonnull %29) #14, !dbg !5170
  br i1 %48, label %88, label %57, !dbg !5342

49:                                               ; preds = %20
  %50 = landingpad { i8*, i32 }
          cleanup, !dbg !5343
  %51 = extractvalue { i8*, i32 } %50, 0, !dbg !5343
  %52 = extractvalue { i8*, i32 } %50, 1, !dbg !5343
  call void @llvm.dbg.value(metadata %class.String* undef, metadata !5063, metadata !DIExpression()) #14, !dbg !5344
  br label %90, !dbg !5131

53:                                               ; preds = %44, %43, %42, %41, %39, %38, %35, %34, %32, %22, %45
  %54 = landingpad { i8*, i32 }
          cleanup, !dbg !5347
  %55 = extractvalue { i8*, i32 } %54, 0, !dbg !5347
  %56 = extractvalue { i8*, i32 } %54, 1, !dbg !5347
  call void @_ZN4ArgsD1Ev(%class.Args* nonnull %4) #14, !dbg !5170
  call void @llvm.lifetime.end.p0i8(i64 112, i8* nonnull %29) #14, !dbg !5170
  br label %90, !dbg !5170

57:                                               ; preds = %47
  %58 = load i32, i32* %6, align 8, !dbg !5348, !tbaa !5130
  %59 = icmp eq i32 %58, 0, !dbg !5350
  br i1 %59, label %60, label %62, !dbg !5351

60:                                               ; preds = %57
  %61 = call i32 (%class.ErrorHandler*, i8*, ...) @_ZN12ErrorHandler7warningEPKcz(%class.ErrorHandler* %2, i8* getelementptr inbounds ([34 x i8], [34 x i8]* @.str.10, i64 0, i64 0)), !dbg !5352
  br label %62, !dbg !5353

62:                                               ; preds = %60, %57
  call void @llvm.dbg.value(metadata %class.Element* %30, metadata !5354, metadata !DIExpression()), !dbg !5362
  call void @llvm.dbg.value(metadata i32 0, metadata !5361, metadata !DIExpression()), !dbg !5362
  call void @llvm.dbg.value(metadata %class.Element* %30, metadata !5365, metadata !DIExpression()), !dbg !5372
  call void @llvm.dbg.value(metadata i1 true, metadata !5371, metadata !DIExpression()), !dbg !5372
  %63 = getelementptr inbounds %class.ICMPPingSource, %class.ICMPPingSource* %0, i64 0, i32 0, i32 3, i64 1, !dbg !5374
  %64 = load i32, i32* %63, align 4, !dbg !5374, !tbaa !5084
  %65 = icmp eq i32 %64, 0, !dbg !5375
  br i1 %65, label %88, label %66, !dbg !5376

66:                                               ; preds = %62
  %67 = getelementptr inbounds %class.ICMPPingSource, %class.ICMPPingSource* %0, i64 0, i32 0, i32 1, i64 1, !dbg !5377
  %68 = load %"class.Element::Port"*, %"class.Element::Port"** %67, align 8, !dbg !5377, !tbaa !5154
  call void @llvm.dbg.value(metadata %"class.Element::Port"* undef, metadata !5378, metadata !DIExpression()), !dbg !5413
  %69 = getelementptr inbounds %"class.Element::Port", %"class.Element::Port"* %68, i64 0, i32 1, !dbg !5415
  %70 = load i32, i32* %69, align 8, !dbg !5415, !tbaa !5416
  %71 = icmp sgt i32 %70, -1, !dbg !5418
  %72 = icmp eq i8 %37, 0, !dbg !5419
  %73 = or i1 %72, %71, !dbg !5420
  br i1 %73, label %78, label %74, !dbg !5420

74:                                               ; preds = %66
  %75 = call i32 (%class.ErrorHandler*, i8*, ...) @_ZN12ErrorHandler7warningEPKcz(%class.ErrorHandler* %2, i8* getelementptr inbounds ([52 x i8], [52 x i8]* @.str.11, i64 0, i64 0)), !dbg !5421
  %76 = load i32, i32* %63, align 4, !dbg !5422, !tbaa !5084
  %77 = icmp eq i32 %76, 0, !dbg !5426
  call void @llvm.dbg.value(metadata %class.Element* %30, metadata !5354, metadata !DIExpression()), !dbg !5427
  call void @llvm.dbg.value(metadata i32 0, metadata !5361, metadata !DIExpression()), !dbg !5427
  call void @llvm.dbg.value(metadata %class.Element* %30, metadata !5365, metadata !DIExpression()), !dbg !5428
  call void @llvm.dbg.value(metadata i1 true, metadata !5371, metadata !DIExpression()), !dbg !5428
  br i1 %77, label %88, label %78, !dbg !5429

78:                                               ; preds = %66, %74
  %79 = load %"class.Element::Port"*, %"class.Element::Port"** %67, align 8, !dbg !5430, !tbaa !5154
  call void @llvm.dbg.value(metadata %"class.Element::Port"* undef, metadata !5378, metadata !DIExpression()), !dbg !5431
  %80 = getelementptr inbounds %"class.Element::Port", %"class.Element::Port"* %79, i64 0, i32 1, !dbg !5433
  %81 = load i32, i32* %80, align 8, !dbg !5433, !tbaa !5416
  %82 = icmp slt i32 %81, 0, !dbg !5434
  br i1 %82, label %83, label %88, !dbg !5435

83:                                               ; preds = %78
  %84 = load i8, i8* %28, align 1, !dbg !5436, !tbaa !5169, !range !5235
  %85 = icmp eq i8 %84, 0, !dbg !5436
  br i1 %85, label %88, label %86, !dbg !5437

86:                                               ; preds = %83
  %87 = call i32 (%class.ErrorHandler*, i8*, ...) @_ZN12ErrorHandler5errorEPKcz(%class.ErrorHandler* %2, i8* getelementptr inbounds ([31 x i8], [31 x i8]* @.str.12, i64 0, i64 0)), !dbg !5438
  br label %88, !dbg !5439

88:                                               ; preds = %74, %62, %78, %83, %47, %86
  %89 = phi i32 [ %87, %86 ], [ -1, %47 ], [ 0, %83 ], [ 0, %78 ], [ 0, %74 ], [ 0, %62 ], !dbg !5124
  ret i32 %89, !dbg !5343

90:                                               ; preds = %53, %49
  %91 = phi i8* [ %55, %53 ], [ %51, %49 ], !dbg !5124
  %92 = phi i32 [ %56, %53 ], [ %52, %49 ], !dbg !5124
  %93 = insertvalue { i8*, i32 } undef, i8* %91, 0, !dbg !5343
  %94 = insertvalue { i8*, i32 } %93, i32 %92, 1, !dbg !5343
  resume { i8*, i32 } %94, !dbg !5343
}

; Function Attrs: argmemonly nounwind willreturn
declare void @llvm.lifetime.start.p0i8(i64 immarg, i8* nocapture) #6

; Function Attrs: argmemonly nounwind willreturn
declare void @llvm.lifetime.end.p0i8(i64 immarg, i8* nocapture) #6

declare void @_ZN4ArgsC1ERK6VectorI6StringEPK7ElementP12ErrorHandler(%class.Args*, %class.Vector.0* dereferenceable(16), %class.Element*, %class.ErrorHandler*) unnamed_addr #2

declare i32 @_ZN4Args8completeEv(%class.Args*) local_unnamed_addr #2

; Function Attrs: nounwind
declare void @_ZN4ArgsD1Ev(%class.Args*) unnamed_addr #3

declare i32 @_ZN12ErrorHandler7warningEPKcz(%class.ErrorHandler*, i8*, ...) local_unnamed_addr #2

declare i32 @_ZN12ErrorHandler5errorEPKcz(%class.ErrorHandler*, i8*, ...) local_unnamed_addr #2

; Function Attrs: sspstrong uwtable
define dso_local i32 @_ZN14ICMPPingSource10initializeEP12ErrorHandler(%class.ICMPPingSource* %0, %class.ErrorHandler* nocapture readnone %1) unnamed_addr #0 align 2 personality i8* bitcast (i32 (...)* @__gxx_personality_v0 to i8*) !dbg !5440 {
  %3 = alloca %class.Timestamp, align 8
  call void @llvm.dbg.value(metadata %class.ICMPPingSource* %0, metadata !5442, metadata !DIExpression()), !dbg !5444
  call void @llvm.dbg.value(metadata %class.ErrorHandler* %1, metadata !5443, metadata !DIExpression()), !dbg !5444
  %4 = getelementptr inbounds %class.ICMPPingSource, %class.ICMPPingSource* %0, i64 0, i32 3, !dbg !5445
  store i32 0, i32* %4, align 4, !dbg !5446, !tbaa !5447
  %5 = getelementptr inbounds %class.ICMPPingSource, %class.ICMPPingSource* %0, i64 0, i32 7, !dbg !5448
  %6 = bitcast %class.ICMPPingSource* %0 to %class.Element*, !dbg !5449
  tail call void @_ZN5Timer10initializeEP7Elementb(%class.Timer* nonnull %5, %class.Element* %6, i1 zeroext false), !dbg !5450
  %7 = getelementptr inbounds %class.ICMPPingSource, %class.ICMPPingSource* %0, i64 0, i32 4, !dbg !5451
  %8 = load i32, i32* %7, align 8, !dbg !5451, !tbaa !5010
  %9 = icmp eq i32 %8, 0, !dbg !5453
  br i1 %9, label %31, label %10, !dbg !5454

10:                                               ; preds = %2
  %11 = getelementptr inbounds %class.ICMPPingSource, %class.ICMPPingSource* %0, i64 0, i32 9, !dbg !5455
  %12 = load i8, i8* %11, align 8, !dbg !5455, !tbaa !5160, !range !5235
  %13 = icmp eq i8 %12, 0, !dbg !5455
  br i1 %13, label %31, label %14, !dbg !5456

14:                                               ; preds = %10
  call void @llvm.dbg.value(metadata %class.Element* %6, metadata !5457, metadata !DIExpression()), !dbg !5462
  call void @llvm.dbg.value(metadata i32 0, metadata !5461, metadata !DIExpression()), !dbg !5462
  call void @llvm.dbg.value(metadata %class.Element* %6, metadata !5464, metadata !DIExpression()), !dbg !5472
  call void @llvm.dbg.value(metadata i1 true, metadata !5470, metadata !DIExpression()), !dbg !5472
  call void @llvm.dbg.value(metadata i32 0, metadata !5471, metadata !DIExpression()), !dbg !5472
  call void @llvm.dbg.value(metadata %class.Element* %6, metadata !5365, metadata !DIExpression()), !dbg !5474
  call void @llvm.dbg.value(metadata i1 true, metadata !5371, metadata !DIExpression()), !dbg !5474
  %15 = getelementptr inbounds %class.ICMPPingSource, %class.ICMPPingSource* %0, i64 0, i32 0, i32 3, i64 1, !dbg !5476
  %16 = load i32, i32* %15, align 4, !dbg !5476, !tbaa !5084
  %17 = icmp eq i32 %16, 0, !dbg !5477
  br i1 %17, label %31, label %18, !dbg !5478

18:                                               ; preds = %14
  %19 = getelementptr inbounds %class.ICMPPingSource, %class.ICMPPingSource* %0, i64 0, i32 0, i32 1, i64 1, !dbg !5479
  %20 = load %"class.Element::Port"*, %"class.Element::Port"** %19, align 8, !dbg !5479, !tbaa !5154
  call void @llvm.dbg.value(metadata %"class.Element::Port"* undef, metadata !5378, metadata !DIExpression()), !dbg !5480
  %21 = getelementptr inbounds %"class.Element::Port", %"class.Element::Port"* %20, i64 0, i32 1, !dbg !5482
  %22 = load i32, i32* %21, align 8, !dbg !5482, !tbaa !5416
  %23 = icmp sgt i32 %22, -1, !dbg !5483
  br i1 %23, label %24, label %31, !dbg !5484

24:                                               ; preds = %18
  %25 = getelementptr inbounds %class.ICMPPingSource, %class.ICMPPingSource* %0, i64 0, i32 6, !dbg !5485
  %26 = load i32, i32* %25, align 8, !dbg !5485, !tbaa !5130
  call void @llvm.dbg.value(metadata %class.Timer* %5, metadata !5486, metadata !DIExpression()), !dbg !5490
  call void @llvm.dbg.value(metadata i32 %26, metadata !5489, metadata !DIExpression()), !dbg !5490
  %27 = bitcast %class.Timestamp* %3 to i8*, !dbg !5492
  call void @llvm.lifetime.start.p0i8(i64 8, i8* nonnull %27) #14, !dbg !5492
  %28 = zext i32 %26 to i64, !dbg !5493
  call void @llvm.dbg.value(metadata i64 %28, metadata !5494, metadata !DIExpression()), !dbg !5498
  %29 = mul nuw nsw i64 %28, 1000000, !dbg !5500
  call void @llvm.dbg.value(metadata i64 %29, metadata !5497, metadata !DIExpression()), !dbg !5498
  %30 = getelementptr inbounds %class.Timestamp, %class.Timestamp* %3, i64 0, i32 0, i32 0, !dbg !5492
  store i64 %29, i64* %30, align 8, !dbg !5492
  call void @_ZN5Timer14schedule_afterERK9Timestamp(%class.Timer* nonnull %5, %class.Timestamp* nonnull dereferenceable(8) %3), !dbg !5501
  call void @llvm.lifetime.end.p0i8(i64 8, i8* nonnull %27) #14, !dbg !5501
  br label %31, !dbg !5502

31:                                               ; preds = %14, %10, %2, %24, %18
  call void @llvm.dbg.value(metadata %class.Element* %6, metadata !5503, metadata !DIExpression()), !dbg !5509
  %32 = getelementptr inbounds %class.ICMPPingSource, %class.ICMPPingSource* %0, i64 0, i32 0, i32 3, i64 0, !dbg !5512
  %33 = load i32, i32* %32, align 8, !dbg !5512, !tbaa !5084
  %34 = icmp eq i32 %33, 1, !dbg !5513
  br i1 %34, label %35, label %39, !dbg !5514

35:                                               ; preds = %31
  %36 = call dereferenceable(524320) i8* @_Znwm(i64 524320) #17, !dbg !5515
  %37 = getelementptr inbounds %class.ICMPPingSource, %class.ICMPPingSource* %0, i64 0, i32 13, !dbg !5517
  %38 = bitcast %"struct.ICMPPingSource::ReceiverInfo"** %37 to i8**, !dbg !5518
  store i8* %36, i8** %38, align 8, !dbg !5518, !tbaa !5048
  call void @llvm.memset.p0i8.i64(i8* nonnull align 8 dereferenceable(524320) %36, i8 0, i64 524320, i1 false), !dbg !5519
  br label %39, !dbg !5520

39:                                               ; preds = %31, %35
  ret i32 0, !dbg !5521
}

declare void @_ZN5Timer10initializeEP7Elementb(%class.Timer*, %class.Element*, i1 zeroext) local_unnamed_addr #2

; Function Attrs: nobuiltin nofree
declare noalias nonnull i8* @_Znwm(i64) local_unnamed_addr #7

; Function Attrs: argmemonly nounwind willreturn
declare void @llvm.memset.p0i8.i64(i8* nocapture writeonly, i8, i64, i1 immarg) #6

; Function Attrs: sspstrong uwtable
define dso_local void @_ZN14ICMPPingSource7cleanupEN7Element12CleanupStageE(%class.ICMPPingSource* %0, i32 %1) unnamed_addr #0 align 2 personality i8* bitcast (i32 (...)* @__gxx_personality_v0 to i8*) !dbg !5522 {
  %3 = alloca %class.PrefixErrorHandler, align 8
  %4 = alloca %class.String, align 8
  %5 = alloca %class.String, align 8
  %6 = alloca %class.String, align 8
  %7 = alloca %class.String, align 8
  call void @llvm.dbg.value(metadata %class.ICMPPingSource* %0, metadata !5524, metadata !DIExpression()), !dbg !5532
  call void @llvm.dbg.value(metadata i32 undef, metadata !5525, metadata !DIExpression()), !dbg !5532
  %8 = getelementptr inbounds %class.ICMPPingSource, %class.ICMPPingSource* %0, i64 0, i32 13, !dbg !5533
  %9 = load %"struct.ICMPPingSource::ReceiverInfo"*, %"struct.ICMPPingSource::ReceiverInfo"** %8, align 8, !dbg !5533, !tbaa !5048
  %10 = icmp eq %"struct.ICMPPingSource::ReceiverInfo"* %9, null, !dbg !5533
  br i1 %10, label %246, label %11, !dbg !5534

11:                                               ; preds = %2
  %12 = getelementptr inbounds %class.ICMPPingSource, %class.ICMPPingSource* %0, i64 0, i32 10, !dbg !5535
  %13 = load i8, i8* %12, align 1, !dbg !5535, !tbaa !5163, !range !5235
  %14 = icmp eq i8 %13, 0, !dbg !5535
  br i1 %14, label %243, label %15, !dbg !5536

15:                                               ; preds = %11
  %16 = bitcast %class.PrefixErrorHandler* %3 to i8*, !dbg !5537
  call void @llvm.lifetime.start.p0i8(i64 48, i8* nonnull %16) #14, !dbg !5537
  call void @llvm.dbg.declare(metadata %class.PrefixErrorHandler* %3, metadata !5526, metadata !DIExpression()), !dbg !5538
  %17 = load %class.ErrorHandler*, %class.ErrorHandler** @_ZN12ErrorHandler19the_default_handlerE, align 8, !dbg !5539, !tbaa !5154
  %18 = bitcast %class.String* %4 to i8*, !dbg !5545
  call void @llvm.lifetime.start.p0i8(i64 24, i8* nonnull %18) #14, !dbg !5545
  %19 = bitcast %class.ICMPPingSource* %0 to %class.Element*, !dbg !5545
  %20 = bitcast %class.ICMPPingSource* %0 to void (%class.String*, %class.Element*)***, !dbg !5545
  %21 = load void (%class.String*, %class.Element*)**, void (%class.String*, %class.Element*)*** %20, align 8, !dbg !5545, !tbaa !5006
  %22 = getelementptr inbounds void (%class.String*, %class.Element*)*, void (%class.String*, %class.Element*)** %21, i64 23, !dbg !5545
  %23 = load void (%class.String*, %class.Element*)*, void (%class.String*, %class.Element*)** %22, align 8, !dbg !5545
  call void %23(%class.String* nonnull sret %5, %class.Element* %19), !dbg !5545
  call void @llvm.dbg.declare(metadata %class.String* %5, metadata !5546, metadata !DIExpression()), !dbg !5552
  call void @llvm.dbg.value(metadata i8* getelementptr inbounds ([3 x i8], [3 x i8]* @.str.14, i64 0, i64 0), metadata !5551, metadata !DIExpression()), !dbg !5554
  call void @llvm.dbg.value(metadata %class.String* %5, metadata !5555, metadata !DIExpression()), !dbg !5559
  call void @llvm.dbg.value(metadata i8* getelementptr inbounds ([3 x i8], [3 x i8]* @.str.14, i64 0, i64 0), metadata !5558, metadata !DIExpression()), !dbg !5559
  invoke void @_ZN6String6appendEPKciPNS_6memo_tE(%class.String* nonnull %5, i8* nonnull getelementptr inbounds ([3 x i8], [3 x i8]* @.str.14, i64 0, i64 0), i32 2, %"struct.String::memo_t"* nonnull inttoptr (i64 1 to %"struct.String::memo_t"*))
          to label %24 unwind label %126, !dbg !5561

24:                                               ; preds = %15
  call void @llvm.dbg.value(metadata %class.String* %4, metadata !5563, metadata !DIExpression()) #14, !dbg !5567
  call void @llvm.dbg.value(metadata %class.String* %5, metadata !5566, metadata !DIExpression()) #14, !dbg !5567
  %25 = bitcast %class.String* %5 to i8*, !dbg !5569
  call void @llvm.memcpy.p0i8.p0i8.i64(i8* nonnull align 8 dereferenceable(24) %18, i8* nonnull align 8 dereferenceable(24) %25, i64 24, i1 false) #14, !dbg !5569, !tbaa.struct !5153
  %26 = getelementptr inbounds %class.String, %class.String* %5, i64 0, i32 0, i32 2, !dbg !5570
  store %"struct.String::memo_t"* null, %"struct.String::memo_t"** %26, align 8, !dbg !5572, !tbaa !5046, !noalias !5573
  invoke void @_ZN18PrefixErrorHandlerC1EP12ErrorHandlerRK6String(%class.PrefixErrorHandler* nonnull %3, %class.ErrorHandler* %17, %class.String* nonnull dereferenceable(24) %4)
          to label %27 unwind label %130, !dbg !5538

27:                                               ; preds = %24
  call void @llvm.dbg.value(metadata %class.String* %4, metadata !5057, metadata !DIExpression()) #14, !dbg !5576
  call void @llvm.dbg.value(metadata %class.String* %4, metadata !5063, metadata !DIExpression()) #14, !dbg !5578
  %28 = getelementptr inbounds %class.String, %class.String* %4, i64 0, i32 0, i32 2, !dbg !5580
  %29 = load %"struct.String::memo_t"*, %"struct.String::memo_t"** %28, align 8, !dbg !5580, !tbaa !5046
  %30 = icmp eq %"struct.String::memo_t"* %29, null, !dbg !5581
  br i1 %30, label %45, label %31, !dbg !5582

31:                                               ; preds = %27
  %32 = getelementptr inbounds %"struct.String::memo_t", %"struct.String::memo_t"* %29, i64 0, i32 0, !dbg !5583
  %33 = load volatile i32, i32* %32, align 4, !dbg !5583, !tbaa !5075
  %34 = icmp eq i32 %33, 0, !dbg !5583
  br i1 %34, label %35, label %36, !dbg !5583

35:                                               ; preds = %31
  call void @__assert_fail(i8* getelementptr inbounds ([18 x i8], [18 x i8]* @.str.40, i64 0, i64 0), i8* getelementptr inbounds ([29 x i8], [29 x i8]* @.str.41, i64 0, i64 0), i32 273, i8* getelementptr inbounds ([27 x i8], [27 x i8]* @__PRETTY_FUNCTION__._ZNK6String5derefEv, i64 0, i64 0)) #15, !dbg !5583
  unreachable, !dbg !5583

36:                                               ; preds = %31
  call void @llvm.dbg.value(metadata i32* %32, metadata !5077, metadata !DIExpression()) #14, !dbg !5584
  %37 = load volatile i32, i32* %32, align 4, !dbg !5586, !tbaa !5084
  %38 = add i32 %37, -1, !dbg !5586
  store volatile i32 %38, i32* %32, align 4, !dbg !5586, !tbaa !5084
  %39 = icmp eq i32 %38, 0, !dbg !5587
  br i1 %39, label %40, label %41, !dbg !5588

40:                                               ; preds = %36
  invoke void @_ZN6String11delete_memoEPNS_6memo_tE(%"struct.String::memo_t"* nonnull %29)
          to label %41 unwind label %42, !dbg !5589

41:                                               ; preds = %40, %36
  store %"struct.String::memo_t"* null, %"struct.String::memo_t"** %28, align 8, !dbg !5590, !tbaa !5046
  br label %45, !dbg !5591

42:                                               ; preds = %40
  %43 = landingpad { i8*, i32 }
          catch i8* null, !dbg !5592
  %44 = extractvalue { i8*, i32 } %43, 0, !dbg !5592
  call void @__clang_call_terminate(i8* %44) #15, !dbg !5592
  unreachable, !dbg !5592

45:                                               ; preds = %27, %41
  call void @llvm.dbg.value(metadata %class.String* %5, metadata !5057, metadata !DIExpression()) #14, !dbg !5593
  call void @llvm.dbg.value(metadata %class.String* %5, metadata !5063, metadata !DIExpression()) #14, !dbg !5595
  %46 = load %"struct.String::memo_t"*, %"struct.String::memo_t"** %26, align 8, !dbg !5597, !tbaa !5046
  %47 = icmp eq %"struct.String::memo_t"* %46, null, !dbg !5598
  br i1 %47, label %62, label %48, !dbg !5599

48:                                               ; preds = %45
  %49 = getelementptr inbounds %"struct.String::memo_t", %"struct.String::memo_t"* %46, i64 0, i32 0, !dbg !5600
  %50 = load volatile i32, i32* %49, align 4, !dbg !5600, !tbaa !5075
  %51 = icmp eq i32 %50, 0, !dbg !5600
  br i1 %51, label %52, label %53, !dbg !5600

52:                                               ; preds = %48
  call void @__assert_fail(i8* getelementptr inbounds ([18 x i8], [18 x i8]* @.str.40, i64 0, i64 0), i8* getelementptr inbounds ([29 x i8], [29 x i8]* @.str.41, i64 0, i64 0), i32 273, i8* getelementptr inbounds ([27 x i8], [27 x i8]* @__PRETTY_FUNCTION__._ZNK6String5derefEv, i64 0, i64 0)) #15, !dbg !5600
  unreachable, !dbg !5600

53:                                               ; preds = %48
  call void @llvm.dbg.value(metadata i32* %49, metadata !5077, metadata !DIExpression()) #14, !dbg !5601
  %54 = load volatile i32, i32* %49, align 4, !dbg !5603, !tbaa !5084
  %55 = add i32 %54, -1, !dbg !5603
  store volatile i32 %55, i32* %49, align 4, !dbg !5603, !tbaa !5084
  %56 = icmp eq i32 %55, 0, !dbg !5604
  br i1 %56, label %57, label %58, !dbg !5605

57:                                               ; preds = %53
  invoke void @_ZN6String11delete_memoEPNS_6memo_tE(%"struct.String::memo_t"* nonnull %46)
          to label %58 unwind label %59, !dbg !5606

58:                                               ; preds = %57, %53
  store %"struct.String::memo_t"* null, %"struct.String::memo_t"** %26, align 8, !dbg !5607, !tbaa !5046
  br label %62, !dbg !5608

59:                                               ; preds = %57
  %60 = landingpad { i8*, i32 }
          catch i8* null, !dbg !5609
  %61 = extractvalue { i8*, i32 } %60, 0, !dbg !5609
  call void @__clang_call_terminate(i8* %61) #15, !dbg !5609
  unreachable, !dbg !5609

62:                                               ; preds = %45, %58
  call void @llvm.lifetime.end.p0i8(i64 24, i8* nonnull %18) #14, !dbg !5538
  %63 = bitcast %class.PrefixErrorHandler* %3 to %class.ErrorHandler*, !dbg !5610
  %64 = bitcast %class.String* %6 to i8*, !dbg !5611
  call void @llvm.lifetime.start.p0i8(i64 24, i8* nonnull %64) #14, !dbg !5611
  %65 = bitcast %class.String* %7 to i8*, !dbg !5612
  call void @llvm.lifetime.start.p0i8(i64 24, i8* nonnull %65) #14, !dbg !5612
  call void @llvm.dbg.value(metadata %class.String* %7, metadata !5613, metadata !DIExpression()), !dbg !5617
  call void @llvm.dbg.value(metadata i8* getelementptr inbounds ([8 x i8], [8 x i8]* @.str.16, i64 0, i64 0), metadata !5616, metadata !DIExpression()), !dbg !5617
  call void @llvm.dbg.value(metadata %class.String* %7, metadata !5028, metadata !DIExpression()), !dbg !5619
  call void @llvm.dbg.value(metadata i8* getelementptr inbounds ([8 x i8], [8 x i8]* @.str.16, i64 0, i64 0), metadata !5031, metadata !DIExpression()), !dbg !5619
  call void @llvm.dbg.value(metadata i32 7, metadata !5032, metadata !DIExpression()), !dbg !5619
  call void @llvm.dbg.value(metadata %"struct.String::memo_t"* null, metadata !5033, metadata !DIExpression()), !dbg !5619
  %66 = getelementptr inbounds %class.String, %class.String* %7, i64 0, i32 0, i32 0, !dbg !5623
  store i8* getelementptr inbounds ([8 x i8], [8 x i8]* @.str.16, i64 0, i64 0), i8** %66, align 8, !dbg !5624, !tbaa !5039
  %67 = getelementptr inbounds %class.String, %class.String* %7, i64 0, i32 0, i32 1, !dbg !5625
  store i32 7, i32* %67, align 8, !dbg !5626, !tbaa !5042
  %68 = getelementptr inbounds %class.String, %class.String* %7, i64 0, i32 0, i32 2, !dbg !5627
  store %"struct.String::memo_t"* null, %"struct.String::memo_t"** %68, align 8, !dbg !5628, !tbaa !5046
  invoke void @_ZN11HandlerCall9call_readEP7ElementRK6StringP12ErrorHandler(%class.String* nonnull sret %6, %class.Element* %19, %class.String* nonnull dereferenceable(24) %7, %class.ErrorHandler* nonnull %63)
          to label %69 unwind label %172, !dbg !5611

69:                                               ; preds = %62
  %70 = invoke i8* @_ZNK6String5c_strEv(%class.String* nonnull %6)
          to label %71 unwind label %176, !dbg !5629

71:                                               ; preds = %69
  invoke void (%class.ErrorHandler*, i8*, ...) @_ZN12ErrorHandler7messageEPKcz(%class.ErrorHandler* nonnull %63, i8* getelementptr inbounds ([3 x i8], [3 x i8]* @.str.15, i64 0, i64 0), i8* %70)
          to label %72 unwind label %176, !dbg !5630

72:                                               ; preds = %71
  call void @llvm.dbg.value(metadata %class.String* %6, metadata !5057, metadata !DIExpression()) #14, !dbg !5631
  call void @llvm.dbg.value(metadata %class.String* %6, metadata !5063, metadata !DIExpression()) #14, !dbg !5633
  %73 = getelementptr inbounds %class.String, %class.String* %6, i64 0, i32 0, i32 2, !dbg !5635
  %74 = load %"struct.String::memo_t"*, %"struct.String::memo_t"** %73, align 8, !dbg !5635, !tbaa !5046
  %75 = icmp eq %"struct.String::memo_t"* %74, null, !dbg !5636
  br i1 %75, label %90, label %76, !dbg !5637

76:                                               ; preds = %72
  %77 = getelementptr inbounds %"struct.String::memo_t", %"struct.String::memo_t"* %74, i64 0, i32 0, !dbg !5638
  %78 = load volatile i32, i32* %77, align 4, !dbg !5638, !tbaa !5075
  %79 = icmp eq i32 %78, 0, !dbg !5638
  br i1 %79, label %80, label %81, !dbg !5638

80:                                               ; preds = %76
  call void @__assert_fail(i8* getelementptr inbounds ([18 x i8], [18 x i8]* @.str.40, i64 0, i64 0), i8* getelementptr inbounds ([29 x i8], [29 x i8]* @.str.41, i64 0, i64 0), i32 273, i8* getelementptr inbounds ([27 x i8], [27 x i8]* @__PRETTY_FUNCTION__._ZNK6String5derefEv, i64 0, i64 0)) #15, !dbg !5638
  unreachable, !dbg !5638

81:                                               ; preds = %76
  call void @llvm.dbg.value(metadata i32* %77, metadata !5077, metadata !DIExpression()) #14, !dbg !5639
  %82 = load volatile i32, i32* %77, align 4, !dbg !5641, !tbaa !5084
  %83 = add i32 %82, -1, !dbg !5641
  store volatile i32 %83, i32* %77, align 4, !dbg !5641, !tbaa !5084
  %84 = icmp eq i32 %83, 0, !dbg !5642
  br i1 %84, label %85, label %86, !dbg !5643

85:                                               ; preds = %81
  invoke void @_ZN6String11delete_memoEPNS_6memo_tE(%"struct.String::memo_t"* nonnull %74)
          to label %86 unwind label %87, !dbg !5644

86:                                               ; preds = %85, %81
  store %"struct.String::memo_t"* null, %"struct.String::memo_t"** %73, align 8, !dbg !5645, !tbaa !5046
  br label %90, !dbg !5646

87:                                               ; preds = %85
  %88 = landingpad { i8*, i32 }
          catch i8* null, !dbg !5647
  %89 = extractvalue { i8*, i32 } %88, 0, !dbg !5647
  call void @__clang_call_terminate(i8* %89) #15, !dbg !5647
  unreachable, !dbg !5647

90:                                               ; preds = %72, %86
  call void @llvm.dbg.value(metadata %class.String* %7, metadata !5057, metadata !DIExpression()) #14, !dbg !5648
  call void @llvm.dbg.value(metadata %class.String* %7, metadata !5063, metadata !DIExpression()) #14, !dbg !5650
  %91 = load %"struct.String::memo_t"*, %"struct.String::memo_t"** %68, align 8, !dbg !5652, !tbaa !5046
  %92 = icmp eq %"struct.String::memo_t"* %91, null, !dbg !5653
  br i1 %92, label %107, label %93, !dbg !5654

93:                                               ; preds = %90
  %94 = getelementptr inbounds %"struct.String::memo_t", %"struct.String::memo_t"* %91, i64 0, i32 0, !dbg !5655
  %95 = load volatile i32, i32* %94, align 4, !dbg !5655, !tbaa !5075
  %96 = icmp eq i32 %95, 0, !dbg !5655
  br i1 %96, label %97, label %98, !dbg !5655

97:                                               ; preds = %93
  call void @__assert_fail(i8* getelementptr inbounds ([18 x i8], [18 x i8]* @.str.40, i64 0, i64 0), i8* getelementptr inbounds ([29 x i8], [29 x i8]* @.str.41, i64 0, i64 0), i32 273, i8* getelementptr inbounds ([27 x i8], [27 x i8]* @__PRETTY_FUNCTION__._ZNK6String5derefEv, i64 0, i64 0)) #15, !dbg !5655
  unreachable, !dbg !5655

98:                                               ; preds = %93
  call void @llvm.dbg.value(metadata i32* %94, metadata !5077, metadata !DIExpression()) #14, !dbg !5656
  %99 = load volatile i32, i32* %94, align 4, !dbg !5658, !tbaa !5084
  %100 = add i32 %99, -1, !dbg !5658
  store volatile i32 %100, i32* %94, align 4, !dbg !5658, !tbaa !5084
  %101 = icmp eq i32 %100, 0, !dbg !5659
  br i1 %101, label %102, label %103, !dbg !5660

102:                                              ; preds = %98
  invoke void @_ZN6String11delete_memoEPNS_6memo_tE(%"struct.String::memo_t"* nonnull %91)
          to label %103 unwind label %104, !dbg !5661

103:                                              ; preds = %102, %98
  store %"struct.String::memo_t"* null, %"struct.String::memo_t"** %68, align 8, !dbg !5662, !tbaa !5046
  br label %107, !dbg !5663

104:                                              ; preds = %102
  %105 = landingpad { i8*, i32 }
          catch i8* null, !dbg !5664
  %106 = extractvalue { i8*, i32 } %105, 0, !dbg !5664
  call void @__clang_call_terminate(i8* %106) #15, !dbg !5664
  unreachable, !dbg !5664

107:                                              ; preds = %90, %103
  call void @llvm.lifetime.end.p0i8(i64 24, i8* nonnull %65) #14, !dbg !5610
  call void @llvm.lifetime.end.p0i8(i64 24, i8* nonnull %64) #14, !dbg !5610
  call void @llvm.dbg.value(metadata %class.PrefixErrorHandler* %3, metadata !5665, metadata !DIExpression()) #14, !dbg !5673
  %108 = getelementptr inbounds %class.PrefixErrorHandler, %class.PrefixErrorHandler* %3, i64 0, i32 0, i32 0, i32 0, !dbg !5675
  store i32 (...)** bitcast (i8** getelementptr inbounds ({ [9 x i8*] }, { [9 x i8*] }* @_ZTV18PrefixErrorHandler, i64 0, inrange i32 0, i64 2) to i32 (...)**), i32 (...)*** %108, align 8, !dbg !5675, !tbaa !5006
  call void @llvm.dbg.value(metadata %class.PrefixErrorHandler* %3, metadata !5057, metadata !DIExpression(DW_OP_plus_uconst, 24, DW_OP_stack_value)) #14, !dbg !5676
  call void @llvm.dbg.value(metadata %class.PrefixErrorHandler* %3, metadata !5063, metadata !DIExpression(DW_OP_plus_uconst, 24, DW_OP_stack_value)) #14, !dbg !5679
  %109 = getelementptr inbounds %class.PrefixErrorHandler, %class.PrefixErrorHandler* %3, i64 0, i32 1, i32 0, i32 2, !dbg !5681
  %110 = load %"struct.String::memo_t"*, %"struct.String::memo_t"** %109, align 8, !dbg !5681, !tbaa !5046
  %111 = icmp eq %"struct.String::memo_t"* %110, null, !dbg !5682
  br i1 %111, label %240, label %112, !dbg !5683

112:                                              ; preds = %107
  %113 = getelementptr inbounds %"struct.String::memo_t", %"struct.String::memo_t"* %110, i64 0, i32 0, !dbg !5684
  %114 = load volatile i32, i32* %113, align 4, !dbg !5684, !tbaa !5075
  %115 = icmp eq i32 %114, 0, !dbg !5684
  br i1 %115, label %116, label %117, !dbg !5684

116:                                              ; preds = %112
  call void @__assert_fail(i8* getelementptr inbounds ([18 x i8], [18 x i8]* @.str.40, i64 0, i64 0), i8* getelementptr inbounds ([29 x i8], [29 x i8]* @.str.41, i64 0, i64 0), i32 273, i8* getelementptr inbounds ([27 x i8], [27 x i8]* @__PRETTY_FUNCTION__._ZNK6String5derefEv, i64 0, i64 0)) #15, !dbg !5684
  unreachable, !dbg !5684

117:                                              ; preds = %112
  call void @llvm.dbg.value(metadata i32* %113, metadata !5077, metadata !DIExpression()) #14, !dbg !5685
  %118 = load volatile i32, i32* %113, align 4, !dbg !5687, !tbaa !5084
  %119 = add i32 %118, -1, !dbg !5687
  store volatile i32 %119, i32* %113, align 4, !dbg !5687, !tbaa !5084
  %120 = icmp eq i32 %119, 0, !dbg !5688
  br i1 %120, label %121, label %122, !dbg !5689

121:                                              ; preds = %117
  invoke void @_ZN6String11delete_memoEPNS_6memo_tE(%"struct.String::memo_t"* nonnull %110)
          to label %122 unwind label %123, !dbg !5690

122:                                              ; preds = %121, %117
  store %"struct.String::memo_t"* null, %"struct.String::memo_t"** %109, align 8, !dbg !5691, !tbaa !5046
  br label %240, !dbg !5692

123:                                              ; preds = %121
  %124 = landingpad { i8*, i32 }
          catch i8* null, !dbg !5693
  %125 = extractvalue { i8*, i32 } %124, 0, !dbg !5693
  call void @__clang_call_terminate(i8* %125) #15, !dbg !5693
  unreachable, !dbg !5693

126:                                              ; preds = %15
  %127 = landingpad { i8*, i32 }
          cleanup, !dbg !5694
  %128 = extractvalue { i8*, i32 } %127, 0, !dbg !5694
  %129 = extractvalue { i8*, i32 } %127, 1, !dbg !5694
  br label %151, !dbg !5694

130:                                              ; preds = %24
  %131 = landingpad { i8*, i32 }
          cleanup, !dbg !5694
  %132 = extractvalue { i8*, i32 } %131, 0, !dbg !5694
  %133 = extractvalue { i8*, i32 } %131, 1, !dbg !5694
  call void @llvm.dbg.value(metadata %class.String* %4, metadata !5057, metadata !DIExpression()) #14, !dbg !5695
  call void @llvm.dbg.value(metadata %class.String* %4, metadata !5063, metadata !DIExpression()) #14, !dbg !5697
  %134 = getelementptr inbounds %class.String, %class.String* %4, i64 0, i32 0, i32 2, !dbg !5699
  %135 = load %"struct.String::memo_t"*, %"struct.String::memo_t"** %134, align 8, !dbg !5699, !tbaa !5046
  %136 = icmp eq %"struct.String::memo_t"* %135, null, !dbg !5700
  br i1 %136, label %151, label %137, !dbg !5701

137:                                              ; preds = %130
  %138 = getelementptr inbounds %"struct.String::memo_t", %"struct.String::memo_t"* %135, i64 0, i32 0, !dbg !5702
  %139 = load volatile i32, i32* %138, align 4, !dbg !5702, !tbaa !5075
  %140 = icmp eq i32 %139, 0, !dbg !5702
  br i1 %140, label %141, label %142, !dbg !5702

141:                                              ; preds = %137
  call void @__assert_fail(i8* getelementptr inbounds ([18 x i8], [18 x i8]* @.str.40, i64 0, i64 0), i8* getelementptr inbounds ([29 x i8], [29 x i8]* @.str.41, i64 0, i64 0), i32 273, i8* getelementptr inbounds ([27 x i8], [27 x i8]* @__PRETTY_FUNCTION__._ZNK6String5derefEv, i64 0, i64 0)) #15, !dbg !5702
  unreachable, !dbg !5702

142:                                              ; preds = %137
  call void @llvm.dbg.value(metadata i32* %138, metadata !5077, metadata !DIExpression()) #14, !dbg !5703
  %143 = load volatile i32, i32* %138, align 4, !dbg !5705, !tbaa !5084
  %144 = add i32 %143, -1, !dbg !5705
  store volatile i32 %144, i32* %138, align 4, !dbg !5705, !tbaa !5084
  %145 = icmp eq i32 %144, 0, !dbg !5706
  br i1 %145, label %146, label %147, !dbg !5707

146:                                              ; preds = %142
  invoke void @_ZN6String11delete_memoEPNS_6memo_tE(%"struct.String::memo_t"* nonnull %135)
          to label %147 unwind label %148, !dbg !5708

147:                                              ; preds = %146, %142
  store %"struct.String::memo_t"* null, %"struct.String::memo_t"** %134, align 8, !dbg !5709, !tbaa !5046
  br label %151, !dbg !5710

148:                                              ; preds = %146
  %149 = landingpad { i8*, i32 }
          catch i8* null, !dbg !5711
  %150 = extractvalue { i8*, i32 } %149, 0, !dbg !5711
  call void @__clang_call_terminate(i8* %150) #15, !dbg !5711
  unreachable, !dbg !5711

151:                                              ; preds = %147, %130, %126
  %152 = phi i8* [ %128, %126 ], [ %132, %130 ], [ %132, %147 ], !dbg !5694
  %153 = phi i32 [ %129, %126 ], [ %133, %130 ], [ %133, %147 ], !dbg !5694
  call void @llvm.dbg.value(metadata %class.String* %5, metadata !5057, metadata !DIExpression()) #14, !dbg !5712
  call void @llvm.dbg.value(metadata %class.String* %5, metadata !5063, metadata !DIExpression()) #14, !dbg !5714
  %154 = getelementptr inbounds %class.String, %class.String* %5, i64 0, i32 0, i32 2, !dbg !5716
  %155 = load %"struct.String::memo_t"*, %"struct.String::memo_t"** %154, align 8, !dbg !5716, !tbaa !5046
  %156 = icmp eq %"struct.String::memo_t"* %155, null, !dbg !5717
  br i1 %156, label %171, label %157, !dbg !5718

157:                                              ; preds = %151
  %158 = getelementptr inbounds %"struct.String::memo_t", %"struct.String::memo_t"* %155, i64 0, i32 0, !dbg !5719
  %159 = load volatile i32, i32* %158, align 4, !dbg !5719, !tbaa !5075
  %160 = icmp eq i32 %159, 0, !dbg !5719
  br i1 %160, label %161, label %162, !dbg !5719

161:                                              ; preds = %157
  call void @__assert_fail(i8* getelementptr inbounds ([18 x i8], [18 x i8]* @.str.40, i64 0, i64 0), i8* getelementptr inbounds ([29 x i8], [29 x i8]* @.str.41, i64 0, i64 0), i32 273, i8* getelementptr inbounds ([27 x i8], [27 x i8]* @__PRETTY_FUNCTION__._ZNK6String5derefEv, i64 0, i64 0)) #15, !dbg !5719
  unreachable, !dbg !5719

162:                                              ; preds = %157
  call void @llvm.dbg.value(metadata i32* %158, metadata !5077, metadata !DIExpression()) #14, !dbg !5720
  %163 = load volatile i32, i32* %158, align 4, !dbg !5722, !tbaa !5084
  %164 = add i32 %163, -1, !dbg !5722
  store volatile i32 %164, i32* %158, align 4, !dbg !5722, !tbaa !5084
  %165 = icmp eq i32 %164, 0, !dbg !5723
  br i1 %165, label %166, label %167, !dbg !5724

166:                                              ; preds = %162
  invoke void @_ZN6String11delete_memoEPNS_6memo_tE(%"struct.String::memo_t"* nonnull %155)
          to label %167 unwind label %168, !dbg !5725

167:                                              ; preds = %166, %162
  store %"struct.String::memo_t"* null, %"struct.String::memo_t"** %154, align 8, !dbg !5726, !tbaa !5046
  br label %171, !dbg !5727

168:                                              ; preds = %166
  %169 = landingpad { i8*, i32 }
          catch i8* null, !dbg !5728
  %170 = extractvalue { i8*, i32 } %169, 0, !dbg !5728
  call void @__clang_call_terminate(i8* %170) #15, !dbg !5728
  unreachable, !dbg !5728

171:                                              ; preds = %151, %167
  call void @llvm.lifetime.end.p0i8(i64 24, i8* nonnull %18) #14, !dbg !5538
  br label %235, !dbg !5538

172:                                              ; preds = %62
  %173 = landingpad { i8*, i32 }
          cleanup, !dbg !5694
  %174 = extractvalue { i8*, i32 } %173, 0, !dbg !5694
  %175 = extractvalue { i8*, i32 } %173, 1, !dbg !5694
  br label %197, !dbg !5694

176:                                              ; preds = %71, %69
  %177 = landingpad { i8*, i32 }
          cleanup, !dbg !5694
  %178 = extractvalue { i8*, i32 } %177, 0, !dbg !5694
  %179 = extractvalue { i8*, i32 } %177, 1, !dbg !5694
  call void @llvm.dbg.value(metadata %class.String* %6, metadata !5057, metadata !DIExpression()) #14, !dbg !5729
  call void @llvm.dbg.value(metadata %class.String* %6, metadata !5063, metadata !DIExpression()) #14, !dbg !5731
  %180 = getelementptr inbounds %class.String, %class.String* %6, i64 0, i32 0, i32 2, !dbg !5733
  %181 = load %"struct.String::memo_t"*, %"struct.String::memo_t"** %180, align 8, !dbg !5733, !tbaa !5046
  %182 = icmp eq %"struct.String::memo_t"* %181, null, !dbg !5734
  br i1 %182, label %197, label %183, !dbg !5735

183:                                              ; preds = %176
  %184 = getelementptr inbounds %"struct.String::memo_t", %"struct.String::memo_t"* %181, i64 0, i32 0, !dbg !5736
  %185 = load volatile i32, i32* %184, align 4, !dbg !5736, !tbaa !5075
  %186 = icmp eq i32 %185, 0, !dbg !5736
  br i1 %186, label %187, label %188, !dbg !5736

187:                                              ; preds = %183
  call void @__assert_fail(i8* getelementptr inbounds ([18 x i8], [18 x i8]* @.str.40, i64 0, i64 0), i8* getelementptr inbounds ([29 x i8], [29 x i8]* @.str.41, i64 0, i64 0), i32 273, i8* getelementptr inbounds ([27 x i8], [27 x i8]* @__PRETTY_FUNCTION__._ZNK6String5derefEv, i64 0, i64 0)) #15, !dbg !5736
  unreachable, !dbg !5736

188:                                              ; preds = %183
  call void @llvm.dbg.value(metadata i32* %184, metadata !5077, metadata !DIExpression()) #14, !dbg !5737
  %189 = load volatile i32, i32* %184, align 4, !dbg !5739, !tbaa !5084
  %190 = add i32 %189, -1, !dbg !5739
  store volatile i32 %190, i32* %184, align 4, !dbg !5739, !tbaa !5084
  %191 = icmp eq i32 %190, 0, !dbg !5740
  br i1 %191, label %192, label %193, !dbg !5741

192:                                              ; preds = %188
  invoke void @_ZN6String11delete_memoEPNS_6memo_tE(%"struct.String::memo_t"* nonnull %181)
          to label %193 unwind label %194, !dbg !5742

193:                                              ; preds = %192, %188
  store %"struct.String::memo_t"* null, %"struct.String::memo_t"** %180, align 8, !dbg !5743, !tbaa !5046
  br label %197, !dbg !5744

194:                                              ; preds = %192
  %195 = landingpad { i8*, i32 }
          catch i8* null, !dbg !5745
  %196 = extractvalue { i8*, i32 } %195, 0, !dbg !5745
  call void @__clang_call_terminate(i8* %196) #15, !dbg !5745
  unreachable, !dbg !5745

197:                                              ; preds = %193, %176, %172
  %198 = phi i8* [ %174, %172 ], [ %178, %176 ], [ %178, %193 ], !dbg !5694
  %199 = phi i32 [ %175, %172 ], [ %179, %176 ], [ %179, %193 ], !dbg !5694
  call void @llvm.dbg.value(metadata %class.String* %7, metadata !5057, metadata !DIExpression()) #14, !dbg !5746
  call void @llvm.dbg.value(metadata %class.String* %7, metadata !5063, metadata !DIExpression()) #14, !dbg !5748
  %200 = load %"struct.String::memo_t"*, %"struct.String::memo_t"** %68, align 8, !dbg !5750, !tbaa !5046
  %201 = icmp eq %"struct.String::memo_t"* %200, null, !dbg !5751
  br i1 %201, label %216, label %202, !dbg !5752

202:                                              ; preds = %197
  %203 = getelementptr inbounds %"struct.String::memo_t", %"struct.String::memo_t"* %200, i64 0, i32 0, !dbg !5753
  %204 = load volatile i32, i32* %203, align 4, !dbg !5753, !tbaa !5075
  %205 = icmp eq i32 %204, 0, !dbg !5753
  br i1 %205, label %206, label %207, !dbg !5753

206:                                              ; preds = %202
  call void @__assert_fail(i8* getelementptr inbounds ([18 x i8], [18 x i8]* @.str.40, i64 0, i64 0), i8* getelementptr inbounds ([29 x i8], [29 x i8]* @.str.41, i64 0, i64 0), i32 273, i8* getelementptr inbounds ([27 x i8], [27 x i8]* @__PRETTY_FUNCTION__._ZNK6String5derefEv, i64 0, i64 0)) #15, !dbg !5753
  unreachable, !dbg !5753

207:                                              ; preds = %202
  call void @llvm.dbg.value(metadata i32* %203, metadata !5077, metadata !DIExpression()) #14, !dbg !5754
  %208 = load volatile i32, i32* %203, align 4, !dbg !5756, !tbaa !5084
  %209 = add i32 %208, -1, !dbg !5756
  store volatile i32 %209, i32* %203, align 4, !dbg !5756, !tbaa !5084
  %210 = icmp eq i32 %209, 0, !dbg !5757
  br i1 %210, label %211, label %212, !dbg !5758

211:                                              ; preds = %207
  invoke void @_ZN6String11delete_memoEPNS_6memo_tE(%"struct.String::memo_t"* nonnull %200)
          to label %212 unwind label %213, !dbg !5759

212:                                              ; preds = %211, %207
  store %"struct.String::memo_t"* null, %"struct.String::memo_t"** %68, align 8, !dbg !5760, !tbaa !5046
  br label %216, !dbg !5761

213:                                              ; preds = %211
  %214 = landingpad { i8*, i32 }
          catch i8* null, !dbg !5762
  %215 = extractvalue { i8*, i32 } %214, 0, !dbg !5762
  call void @__clang_call_terminate(i8* %215) #15, !dbg !5762
  unreachable, !dbg !5762

216:                                              ; preds = %212, %197
  call void @llvm.lifetime.end.p0i8(i64 24, i8* nonnull %65) #14, !dbg !5610
  call void @llvm.lifetime.end.p0i8(i64 24, i8* nonnull %64) #14, !dbg !5610
  call void @llvm.dbg.value(metadata %class.PrefixErrorHandler* %3, metadata !5665, metadata !DIExpression()) #14, !dbg !5763
  %217 = getelementptr inbounds %class.PrefixErrorHandler, %class.PrefixErrorHandler* %3, i64 0, i32 0, i32 0, i32 0, !dbg !5765
  store i32 (...)** bitcast (i8** getelementptr inbounds ({ [9 x i8*] }, { [9 x i8*] }* @_ZTV18PrefixErrorHandler, i64 0, inrange i32 0, i64 2) to i32 (...)**), i32 (...)*** %217, align 8, !dbg !5765, !tbaa !5006
  call void @llvm.dbg.value(metadata %class.PrefixErrorHandler* %3, metadata !5057, metadata !DIExpression(DW_OP_plus_uconst, 24, DW_OP_stack_value)) #14, !dbg !5766
  call void @llvm.dbg.value(metadata %class.PrefixErrorHandler* %3, metadata !5063, metadata !DIExpression(DW_OP_plus_uconst, 24, DW_OP_stack_value)) #14, !dbg !5768
  %218 = getelementptr inbounds %class.PrefixErrorHandler, %class.PrefixErrorHandler* %3, i64 0, i32 1, i32 0, i32 2, !dbg !5770
  %219 = load %"struct.String::memo_t"*, %"struct.String::memo_t"** %218, align 8, !dbg !5770, !tbaa !5046
  %220 = icmp eq %"struct.String::memo_t"* %219, null, !dbg !5771
  br i1 %220, label %235, label %221, !dbg !5772

221:                                              ; preds = %216
  %222 = getelementptr inbounds %"struct.String::memo_t", %"struct.String::memo_t"* %219, i64 0, i32 0, !dbg !5773
  %223 = load volatile i32, i32* %222, align 4, !dbg !5773, !tbaa !5075
  %224 = icmp eq i32 %223, 0, !dbg !5773
  br i1 %224, label %225, label %226, !dbg !5773

225:                                              ; preds = %221
  call void @__assert_fail(i8* getelementptr inbounds ([18 x i8], [18 x i8]* @.str.40, i64 0, i64 0), i8* getelementptr inbounds ([29 x i8], [29 x i8]* @.str.41, i64 0, i64 0), i32 273, i8* getelementptr inbounds ([27 x i8], [27 x i8]* @__PRETTY_FUNCTION__._ZNK6String5derefEv, i64 0, i64 0)) #15, !dbg !5773
  unreachable, !dbg !5773

226:                                              ; preds = %221
  call void @llvm.dbg.value(metadata i32* %222, metadata !5077, metadata !DIExpression()) #14, !dbg !5774
  %227 = load volatile i32, i32* %222, align 4, !dbg !5776, !tbaa !5084
  %228 = add i32 %227, -1, !dbg !5776
  store volatile i32 %228, i32* %222, align 4, !dbg !5776, !tbaa !5084
  %229 = icmp eq i32 %228, 0, !dbg !5777
  br i1 %229, label %230, label %231, !dbg !5778

230:                                              ; preds = %226
  invoke void @_ZN6String11delete_memoEPNS_6memo_tE(%"struct.String::memo_t"* nonnull %219)
          to label %231 unwind label %232, !dbg !5779

231:                                              ; preds = %230, %226
  store %"struct.String::memo_t"* null, %"struct.String::memo_t"** %218, align 8, !dbg !5780, !tbaa !5046
  br label %235, !dbg !5781

232:                                              ; preds = %230
  %233 = landingpad { i8*, i32 }
          catch i8* null, !dbg !5782
  %234 = extractvalue { i8*, i32 } %233, 0, !dbg !5782
  call void @__clang_call_terminate(i8* %234) #15, !dbg !5782
  unreachable, !dbg !5782

235:                                              ; preds = %231, %216, %171
  %236 = phi i8* [ %152, %171 ], [ %198, %216 ], [ %198, %231 ], !dbg !5694
  %237 = phi i32 [ %153, %171 ], [ %199, %216 ], [ %199, %231 ], !dbg !5694
  call void @llvm.lifetime.end.p0i8(i64 48, i8* nonnull %16) #14, !dbg !5783
  %238 = insertvalue { i8*, i32 } undef, i8* %236, 0, !dbg !5783
  %239 = insertvalue { i8*, i32 } %238, i32 %237, 1, !dbg !5783
  resume { i8*, i32 } %239, !dbg !5783

240:                                              ; preds = %122, %107
  call void @llvm.lifetime.end.p0i8(i64 48, i8* nonnull %16) #14, !dbg !5783
  %241 = load %"struct.ICMPPingSource::ReceiverInfo"*, %"struct.ICMPPingSource::ReceiverInfo"** %8, align 8, !dbg !5784, !tbaa !5048
  %242 = icmp eq %"struct.ICMPPingSource::ReceiverInfo"* %241, null, !dbg !5785
  br i1 %242, label %246, label %243, !dbg !5785

243:                                              ; preds = %11, %240
  %244 = phi %"struct.ICMPPingSource::ReceiverInfo"* [ %241, %240 ], [ %9, %11 ]
  %245 = bitcast %"struct.ICMPPingSource::ReceiverInfo"* %244 to i8*, !dbg !5785
  call void @_ZdlPv(i8* %245) #16, !dbg !5785
  br label %246, !dbg !5785

246:                                              ; preds = %2, %240, %243
  ret void, !dbg !5786
}

declare void @_ZN18PrefixErrorHandlerC1EP12ErrorHandlerRK6String(%class.PrefixErrorHandler*, %class.ErrorHandler*, %class.String* dereferenceable(24)) unnamed_addr #2

declare void @_ZN12ErrorHandler7messageEPKcz(%class.ErrorHandler*, i8*, ...) local_unnamed_addr #2

declare void @_ZN11HandlerCall9call_readEP7ElementRK6StringP12ErrorHandler(%class.String* sret, %class.Element*, %class.String* dereferenceable(24), %class.ErrorHandler*) local_unnamed_addr #2

declare i8* @_ZNK6String5c_strEv(%class.String*) local_unnamed_addr #2

; Function Attrs: sspstrong uwtable
define dso_local %class.Packet* @_ZN14ICMPPingSource11make_packetEP14WritablePacket(%class.ICMPPingSource* nocapture readonly %0, %class.WritablePacket* %1) local_unnamed_addr #0 align 2 !dbg !5787 {
  call void @llvm.dbg.value(metadata %class.ICMPPingSource* %0, metadata !5789, metadata !DIExpression()), !dbg !5796
  call void @llvm.dbg.value(metadata %class.WritablePacket* %1, metadata !5790, metadata !DIExpression()), !dbg !5796
  call void @llvm.dbg.value(metadata i64 28, metadata !5791, metadata !DIExpression()), !dbg !5796
  %3 = icmp eq %class.WritablePacket* %1, null, !dbg !5797
  call void @llvm.dbg.value(metadata i1 %3, metadata !5792, metadata !DIExpression(DW_OP_constu, 18446744073709551615, DW_OP_xor, DW_OP_stack_value)), !dbg !5796
  br i1 %3, label %6, label %4, !dbg !5798

4:                                                ; preds = %2
  call void @llvm.dbg.value(metadata %class.WritablePacket* %10, metadata !5790, metadata !DIExpression()), !dbg !5796
  %5 = tail call i8* @_ZNK14WritablePacket4dataEv(%class.WritablePacket* nonnull %1), !dbg !5799
  tail call void @llvm.memset.p0i8.i64(i8* nonnull align 1 dereferenceable(28) %5, i8 0, i64 28, i1 false), !dbg !5800
  br label %20, !dbg !5801

6:                                                ; preds = %2
  call void @llvm.dbg.value(metadata %class.ICMPPingSource* %0, metadata !5802, metadata !DIExpression(DW_OP_plus_uconst, 184, DW_OP_stack_value)), !dbg !5805
  %7 = getelementptr inbounds %class.ICMPPingSource, %class.ICMPPingSource* %0, i64 0, i32 8, i32 0, i32 1, !dbg !5808
  %8 = load i32, i32* %7, align 8, !dbg !5808, !tbaa !5042
  %9 = add i32 %8, 28, !dbg !5809
  call void @llvm.dbg.value(metadata i32 %9, metadata !5810, metadata !DIExpression()), !dbg !5813
  %10 = tail call %class.WritablePacket* @_ZN6Packet4makeEjPKvjj(i32 28, i8* null, i32 %9, i32 0), !dbg !5815
  call void @llvm.dbg.value(metadata %class.WritablePacket* %10, metadata !5790, metadata !DIExpression()), !dbg !5796
  call void @llvm.dbg.value(metadata %class.WritablePacket* %10, metadata !5790, metadata !DIExpression()), !dbg !5796
  %11 = icmp eq %class.WritablePacket* %10, null, !dbg !5816
  br i1 %11, label %78, label %12, !dbg !5818

12:                                               ; preds = %6
  %13 = tail call i8* @_ZNK14WritablePacket4dataEv(%class.WritablePacket* nonnull %10), !dbg !5799
  tail call void @llvm.memset.p0i8.i64(i8* nonnull align 1 dereferenceable(28) %13, i8 0, i64 28, i1 false), !dbg !5800
  %14 = tail call i8* @_ZNK14WritablePacket4dataEv(%class.WritablePacket* nonnull %10), !dbg !5819
  %15 = getelementptr inbounds i8, i8* %14, i64 28, !dbg !5821
  call void @llvm.dbg.value(metadata %class.ICMPPingSource* %0, metadata !5822, metadata !DIExpression(DW_OP_plus_uconst, 184, DW_OP_stack_value)), !dbg !5825
  %16 = getelementptr inbounds %class.ICMPPingSource, %class.ICMPPingSource* %0, i64 0, i32 8, i32 0, i32 0, !dbg !5827
  %17 = load i8*, i8** %16, align 8, !dbg !5827, !tbaa !5039
  call void @llvm.dbg.value(metadata %class.ICMPPingSource* %0, metadata !5802, metadata !DIExpression(DW_OP_plus_uconst, 184, DW_OP_stack_value)), !dbg !5828
  %18 = load i32, i32* %7, align 8, !dbg !5830, !tbaa !5042
  %19 = sext i32 %18 to i64, !dbg !5831
  tail call void @llvm.memcpy.p0i8.p0i8.i64(i8* nonnull align 1 %15, i8* align 1 %17, i64 %19, i1 false), !dbg !5832
  br label %20, !dbg !5832

20:                                               ; preds = %4, %12
  %21 = phi %class.WritablePacket* [ %1, %4 ], [ %10, %12 ]
  %22 = tail call i8* @_ZNK14WritablePacket4dataEv(%class.WritablePacket* nonnull %21), !dbg !5833
  %23 = bitcast i8* %22 to %struct.click_ip*, !dbg !5834
  call void @llvm.dbg.value(metadata %struct.click_ip* %23, metadata !5793, metadata !DIExpression()), !dbg !5796
  store i8 69, i8* %22, align 4, !dbg !5835
  %24 = getelementptr %class.WritablePacket, %class.WritablePacket* %21, i64 0, i32 0, !dbg !5836
  %25 = tail call i32 @_ZNK6Packet6lengthEv(%class.Packet* %24), !dbg !5836
  %26 = trunc i32 %25 to i16, !dbg !5836
  %27 = tail call i16 @llvm.bswap.i16(i16 %26) #14
  %28 = getelementptr inbounds i8, i8* %22, i64 2, !dbg !5837
  %29 = bitcast i8* %28 to i16*, !dbg !5837
  store i16 %27, i16* %29, align 2, !dbg !5838, !tbaa !5839
  %30 = getelementptr inbounds %class.ICMPPingSource, %class.ICMPPingSource* %0, i64 0, i32 3, !dbg !5841
  %31 = load i32, i32* %30, align 4, !dbg !5841, !tbaa !5447
  %32 = srem i32 %31, 65535, !dbg !5842
  %33 = trunc i32 %32 to i16, !dbg !5843
  %34 = add i16 %33, 1, !dbg !5843
  call void @llvm.dbg.value(metadata i16 %34, metadata !5794, metadata !DIExpression()), !dbg !5796
  %35 = tail call i16 @llvm.bswap.i16(i16 %34) #14
  %36 = getelementptr inbounds i8, i8* %22, i64 4, !dbg !5844
  %37 = bitcast i8* %36 to i16*, !dbg !5844
  store i16 %35, i16* %37, align 4, !dbg !5845, !tbaa !5846
  %38 = getelementptr inbounds i8, i8* %22, i64 9, !dbg !5847
  store i8 1, i8* %38, align 1, !dbg !5848, !tbaa !5849
  %39 = getelementptr inbounds i8, i8* %22, i64 8, !dbg !5850
  store i8 -56, i8* %39, align 4, !dbg !5851, !tbaa !5852
  %40 = getelementptr inbounds i8, i8* %22, i64 12, !dbg !5853
  %41 = getelementptr inbounds %class.ICMPPingSource, %class.ICMPPingSource* %0, i64 0, i32 1, i32 0, !dbg !5854
  %42 = bitcast i8* %40 to i32*, !dbg !5854
  %43 = load i32, i32* %41, align 4, !dbg !5854, !tbaa !5084
  store i32 %43, i32* %42, align 4, !dbg !5854, !tbaa !5084
  %44 = getelementptr inbounds i8, i8* %22, i64 16, !dbg !5855
  %45 = getelementptr inbounds %class.ICMPPingSource, %class.ICMPPingSource* %0, i64 0, i32 2, i32 0, !dbg !5856
  %46 = bitcast i8* %44 to i32*, !dbg !5856
  %47 = load i32, i32* %45, align 8, !dbg !5856, !tbaa !5084
  store i32 %47, i32* %46, align 4, !dbg !5856, !tbaa !5084
  %48 = tail call zeroext i16 @click_in_cksum(i8* nonnull %22, i32 20), !dbg !5857
  %49 = getelementptr inbounds i8, i8* %22, i64 10, !dbg !5858
  %50 = bitcast i8* %49 to i16*, !dbg !5858
  store i16 %48, i16* %50, align 2, !dbg !5859, !tbaa !5860
  %51 = getelementptr inbounds i8, i8* %22, i64 20, !dbg !5861
  call void @llvm.dbg.value(metadata i8* %51, metadata !5795, metadata !DIExpression()), !dbg !5796
  store i8 8, i8* %51, align 2, !dbg !5862, !tbaa !5863
  %52 = getelementptr inbounds i8, i8* %22, i64 21, !dbg !5865
  store i8 0, i8* %52, align 1, !dbg !5866, !tbaa !5867
  %53 = getelementptr inbounds %class.ICMPPingSource, %class.ICMPPingSource* %0, i64 0, i32 5, !dbg !5868
  %54 = load i16, i16* %53, align 4, !dbg !5868, !tbaa !5127
  %55 = getelementptr inbounds i8, i8* %22, i64 24, !dbg !5869
  %56 = bitcast i8* %55 to i16*, !dbg !5869
  store i16 %54, i16* %56, align 2, !dbg !5870, !tbaa !5871
  %57 = getelementptr inbounds i8, i8* %22, i64 26, !dbg !5872
  %58 = bitcast i8* %57 to i16*, !dbg !5872
  store i16 %35, i16* %58, align 2, !dbg !5873, !tbaa !5874
  call void @llvm.dbg.value(metadata %class.ICMPPingSource* %0, metadata !5802, metadata !DIExpression(DW_OP_plus_uconst, 184, DW_OP_stack_value)), !dbg !5875
  %59 = getelementptr inbounds %class.ICMPPingSource, %class.ICMPPingSource* %0, i64 0, i32 8, i32 0, i32 1, !dbg !5877
  %60 = load i32, i32* %59, align 8, !dbg !5877, !tbaa !5042
  %61 = add i32 %60, 8, !dbg !5878
  %62 = tail call zeroext i16 @click_in_cksum(i8* nonnull %51, i32 %61), !dbg !5879
  %63 = getelementptr inbounds i8, i8* %22, i64 22, !dbg !5880
  %64 = bitcast i8* %63 to i16*, !dbg !5880
  store i16 %62, i16* %64, align 2, !dbg !5881, !tbaa !5882
  %65 = load i32, i32* %45, align 8, !dbg !5883, !tbaa.struct !5884
  tail call void @_ZN6Packet15set_dst_ip_annoE9IPAddress(%class.Packet* %24, i32 %65), !dbg !5885
  tail call void @_ZN6Packet13set_ip_headerEPK8click_ipj(%class.Packet* %24, %struct.click_ip* nonnull %23, i32 20), !dbg !5886
  %66 = tail call dereferenceable(8) %class.Timestamp* @_ZN6Packet14timestamp_annoEv(%class.Packet* %24), !dbg !5887
  tail call void @_ZN9Timestamp10assign_nowEv(%class.Timestamp* nonnull %66), !dbg !5888
  %67 = getelementptr inbounds %class.ICMPPingSource, %class.ICMPPingSource* %0, i64 0, i32 13, !dbg !5889
  %68 = load %"struct.ICMPPingSource::ReceiverInfo"*, %"struct.ICMPPingSource::ReceiverInfo"** %67, align 8, !dbg !5889, !tbaa !5048
  %69 = icmp eq %"struct.ICMPPingSource::ReceiverInfo"* %68, null, !dbg !5889
  br i1 %69, label %78, label %70, !dbg !5891

70:                                               ; preds = %20
  %71 = tail call dereferenceable(8) %class.Timestamp* @_ZN6Packet14timestamp_annoEv(%class.Packet* %24), !dbg !5892
  %72 = load %"struct.ICMPPingSource::ReceiverInfo"*, %"struct.ICMPPingSource::ReceiverInfo"** %67, align 8, !dbg !5893, !tbaa !5048
  %73 = load i16, i16* %58, align 2, !dbg !5894, !tbaa !5874
  %74 = zext i16 %73 to i64, !dbg !5893
  %75 = getelementptr inbounds %class.Timestamp, %class.Timestamp* %71, i64 0, i32 0, i32 0, !dbg !5895
  %76 = getelementptr inbounds %"struct.ICMPPingSource::ReceiverInfo", %"struct.ICMPPingSource::ReceiverInfo"* %72, i64 0, i32 6, i64 %74, i32 0, i32 0, !dbg !5895
  %77 = load i64, i64* %75, align 8, !dbg !5895, !tbaa !5896
  store i64 %77, i64* %76, align 8, !dbg !5895, !tbaa !5896
  br label %78, !dbg !5893

78:                                               ; preds = %70, %20, %6
  %79 = phi %class.Packet* [ null, %6 ], [ %24, %20 ], [ %24, %70 ], !dbg !5796
  ret %class.Packet* %79, !dbg !5898
}

; Function Attrs: inlinehint nounwind sspstrong uwtable
define linkonce_odr dso_local i32 @_ZNK6String6lengthEv(%class.String* %0) #8 comdat align 2 !dbg !5803 {
  call void @llvm.dbg.value(metadata %class.String* %0, metadata !5802, metadata !DIExpression()), !dbg !5899
  %2 = getelementptr inbounds %class.String, %class.String* %0, i64 0, i32 0, i32 1, !dbg !5900
  %3 = load i32, i32* %2, align 8, !dbg !5900, !tbaa !5042
  ret i32 %3, !dbg !5901
}

declare i8* @_ZNK14WritablePacket4dataEv(%class.WritablePacket*) local_unnamed_addr #2

; Function Attrs: argmemonly nounwind willreturn
declare void @llvm.memcpy.p0i8.p0i8.i64(i8* noalias nocapture writeonly, i8* noalias nocapture readonly, i64, i1 immarg) #6

declare i32 @_ZNK6Packet6lengthEv(%class.Packet*) local_unnamed_addr #2

declare !dbg !1542 zeroext i16 @click_in_cksum(i8*, i32) local_unnamed_addr #2

declare void @_ZN6Packet15set_dst_ip_annoE9IPAddress(%class.Packet*, i32) local_unnamed_addr #2

declare void @_ZN6Packet13set_ip_headerEPK8click_ipj(%class.Packet*, %struct.click_ip*, i32) local_unnamed_addr #2

declare dereferenceable(8) %class.Timestamp* @_ZN6Packet14timestamp_annoEv(%class.Packet*) local_unnamed_addr #2

; Function Attrs: noinline optnone sspstrong uwtable
define linkonce_odr dso_local void @_ZN9Timestamp10assign_nowEv(%class.Timestamp* %0) local_unnamed_addr #9 comdat align 2 !dbg !5902 {
  %2 = alloca %class.Timestamp*, align 8
  store %class.Timestamp* %0, %class.Timestamp** %2, align 8, !tbaa !5154
  call void @llvm.dbg.declare(metadata %class.Timestamp** %2, metadata !5904, metadata !DIExpression()), !dbg !5906
  %3 = load %class.Timestamp*, %class.Timestamp** %2, align 8
  call void @_ZN9Timestamp10assign_nowEbbb(%class.Timestamp* %3, i1 zeroext false, i1 zeroext false, i1 zeroext false), !dbg !5907
  ret void, !dbg !5908
}

; Function Attrs: sspstrong uwtable
define dso_local void @_ZN14ICMPPingSource9run_timerEP5Timer(%class.ICMPPingSource* %0, %class.Timer* nocapture readnone %1) unnamed_addr #0 align 2 !dbg !5909 {
  %3 = alloca %class.Timestamp, align 8
  call void @llvm.dbg.value(metadata %class.ICMPPingSource* %0, metadata !5911, metadata !DIExpression()), !dbg !5916
  call void @llvm.dbg.value(metadata %class.Timer* undef, metadata !5912, metadata !DIExpression()), !dbg !5916
  %4 = getelementptr inbounds %class.ICMPPingSource, %class.ICMPPingSource* %0, i64 0, i32 3, !dbg !5917
  %5 = load i32, i32* %4, align 4, !dbg !5917, !tbaa !5447
  %6 = getelementptr inbounds %class.ICMPPingSource, %class.ICMPPingSource* %0, i64 0, i32 4, !dbg !5918
  %7 = load i32, i32* %6, align 8, !dbg !5918, !tbaa !5010
  %8 = icmp sge i32 %5, %7, !dbg !5919
  %9 = icmp sgt i32 %7, -1, !dbg !5920
  %10 = and i1 %8, %9, !dbg !5921
  br i1 %10, label %11, label %18, !dbg !5921

11:                                               ; preds = %2
  %12 = getelementptr inbounds %class.ICMPPingSource, %class.ICMPPingSource* %0, i64 0, i32 11, !dbg !5922
  %13 = load i8, i8* %12, align 2, !dbg !5922, !tbaa !5166, !range !5235
  %14 = icmp eq i8 %13, 0, !dbg !5922
  br i1 %14, label %36, label %15, !dbg !5925

15:                                               ; preds = %11
  call void @llvm.dbg.value(metadata %class.ICMPPingSource* %0, metadata !5926, metadata !DIExpression()), !dbg !5932
  %16 = getelementptr inbounds %class.ICMPPingSource, %class.ICMPPingSource* %0, i64 0, i32 0, i32 4, !dbg !5934
  %17 = load %class.Router*, %class.Router** %16, align 8, !dbg !5934, !tbaa !5935
  call void @llvm.dbg.value(metadata %class.Router* %17, metadata !5937, metadata !DIExpression()), !dbg !5940
  tail call void @_ZN6Router15adjust_runcountEi(%class.Router* %17, i32 -1), !dbg !5942
  br label %36, !dbg !5943

18:                                               ; preds = %2
  %19 = tail call %class.Packet* @_ZN14ICMPPingSource11make_packetEP14WritablePacket(%class.ICMPPingSource* nonnull %0, %class.WritablePacket* null), !dbg !5944
  call void @llvm.dbg.value(metadata %class.Packet* %19, metadata !5913, metadata !DIExpression()), !dbg !5945
  %20 = icmp eq %class.Packet* %19, null, !dbg !5946
  br i1 %20, label %36, label %21, !dbg !5947

21:                                               ; preds = %18
  %22 = bitcast %class.ICMPPingSource* %0 to %class.Element*, !dbg !5948
  %23 = tail call dereferenceable(16) %"class.Element::Port"* @_ZNK7Element6outputEi(%class.Element* %22, i32 0), !dbg !5948
  tail call void @_ZNK7Element4Port4pushEP6Packet(%"class.Element::Port"* nonnull %23, %class.Packet* nonnull %19), !dbg !5950
  %24 = load i32, i32* %4, align 4, !dbg !5951, !tbaa !5447
  %25 = add nsw i32 %24, 1, !dbg !5951
  store i32 %25, i32* %4, align 4, !dbg !5951, !tbaa !5447
  %26 = getelementptr inbounds %class.ICMPPingSource, %class.ICMPPingSource* %0, i64 0, i32 7, !dbg !5952
  %27 = getelementptr inbounds %class.ICMPPingSource, %class.ICMPPingSource* %0, i64 0, i32 6, !dbg !5953
  %28 = load i32, i32* %27, align 8, !dbg !5953, !tbaa !5130
  call void @llvm.dbg.value(metadata %class.Timer* %26, metadata !5954, metadata !DIExpression()), !dbg !5958
  call void @llvm.dbg.value(metadata i32 %28, metadata !5957, metadata !DIExpression()), !dbg !5958
  %29 = bitcast %class.Timestamp* %3 to i8*, !dbg !5960
  call void @llvm.lifetime.start.p0i8(i64 8, i8* nonnull %29) #14, !dbg !5960
  %30 = getelementptr inbounds %class.ICMPPingSource, %class.ICMPPingSource* %0, i64 0, i32 7, i32 1, i32 0, i32 0, !dbg !5960
  %31 = load i64, i64* %30, align 8, !dbg !5960, !tbaa.struct !5961
  %32 = zext i32 %28 to i64, !dbg !5962
  call void @llvm.dbg.value(metadata i64 %32, metadata !5494, metadata !DIExpression()), !dbg !5963
  %33 = mul nuw nsw i64 %32, 1000000, !dbg !5965
  call void @llvm.dbg.value(metadata i64 %33, metadata !5497, metadata !DIExpression()), !dbg !5963
  call void @llvm.dbg.value(metadata i64 %31, metadata !5966, metadata !DIExpression()), !dbg !5972
  call void @llvm.dbg.value(metadata %class.Timestamp* undef, metadata !5971, metadata !DIExpression()), !dbg !5972
  call void @llvm.dbg.value(metadata %class.Timestamp* undef, metadata !5974, metadata !DIExpression()), !dbg !5980
  call void @llvm.dbg.value(metadata %class.Timestamp* undef, metadata !5979, metadata !DIExpression()), !dbg !5980
  %34 = add nsw i64 %31, %33, !dbg !5982
  call void @llvm.dbg.value(metadata i64 %34, metadata !5966, metadata !DIExpression()), !dbg !5972
  %35 = getelementptr inbounds %class.Timestamp, %class.Timestamp* %3, i64 0, i32 0, i32 0, !dbg !5983
  store i64 %34, i64* %35, align 8, !dbg !5983
  call void @_ZN5Timer18schedule_at_steadyERK9Timestamp(%class.Timer* nonnull %26, %class.Timestamp* nonnull dereferenceable(8) %3), !dbg !5984
  call void @llvm.lifetime.end.p0i8(i64 8, i8* nonnull %29) #14, !dbg !5984
  br label %36, !dbg !5985

36:                                               ; preds = %21, %18, %11, %15
  ret void, !dbg !5986
}

; Function Attrs: noinline optnone sspstrong uwtable
define linkonce_odr dso_local dereferenceable(16) %"class.Element::Port"* @_ZNK7Element6outputEi(%class.Element* %0, i32 %1) local_unnamed_addr #9 comdat align 2 !dbg !5987 {
  %3 = alloca %class.Element*, align 8
  %4 = alloca i32, align 4
  store %class.Element* %0, %class.Element** %3, align 8, !tbaa !5154
  call void @llvm.dbg.declare(metadata %class.Element** %3, metadata !5993, metadata !DIExpression()), !dbg !5995
  store i32 %1, i32* %4, align 4, !tbaa !5084
  call void @llvm.dbg.declare(metadata i32* %4, metadata !5994, metadata !DIExpression()), !dbg !5996
  %5 = load %class.Element*, %class.Element** %3, align 8
  %6 = load i32, i32* %4, align 4, !dbg !5997, !tbaa !5084
  %7 = call dereferenceable(16) %"class.Element::Port"* @_ZNK7Element4portEbi(%class.Element* %5, i1 zeroext true, i32 %6), !dbg !5998
  ret %"class.Element::Port"* %7, !dbg !5999
}

; Function Attrs: noinline optnone sspstrong uwtable
define linkonce_odr dso_local void @_ZNK7Element4Port4pushEP6Packet(%"class.Element::Port"* %0, %class.Packet* %1) local_unnamed_addr #9 comdat align 2 !dbg !6000 {
  %3 = alloca %"class.Element::Port"*, align 8
  %4 = alloca %class.Packet*, align 8
  store %"class.Element::Port"* %0, %"class.Element::Port"** %3, align 8, !tbaa !5154
  call void @llvm.dbg.declare(metadata %"class.Element::Port"** %3, metadata !6002, metadata !DIExpression()), !dbg !6004
  store %class.Packet* %1, %class.Packet** %4, align 8, !tbaa !5154
  call void @llvm.dbg.declare(metadata %class.Packet** %4, metadata !6003, metadata !DIExpression()), !dbg !6005
  %5 = load %"class.Element::Port"*, %"class.Element::Port"** %3, align 8
  %6 = getelementptr inbounds %"class.Element::Port", %"class.Element::Port"* %5, i32 0, i32 0, !dbg !6006
  %7 = load %class.Element*, %class.Element** %6, align 8, !dbg !6006, !tbaa !6007
  %8 = icmp ne %class.Element* %7, null, !dbg !6006
  br i1 %8, label %9, label %12, !dbg !6006

9:                                                ; preds = %2
  %10 = load %class.Packet*, %class.Packet** %4, align 8, !dbg !6006, !tbaa !5154
  %11 = icmp ne %class.Packet* %10, null, !dbg !6006
  br label %12

12:                                               ; preds = %9, %2
  %13 = phi i1 [ false, %2 ], [ %11, %9 ], !dbg !6004
  br i1 %13, label %14, label %15, !dbg !6006

14:                                               ; preds = %12
  br label %16, !dbg !6006

15:                                               ; preds = %12
  call void @__assert_fail(i8* getelementptr inbounds ([8 x i8], [8 x i8]* @.str.44, i64 0, i64 0), i8* getelementptr inbounds ([30 x i8], [30 x i8]* @.str.43, i64 0, i64 0), i32 611, i8* getelementptr inbounds ([41 x i8], [41 x i8]* @__PRETTY_FUNCTION__._ZNK7Element4Port4pushEP6Packet, i64 0, i64 0)) #15, !dbg !6006
  unreachable, !dbg !6006

16:                                               ; preds = %14
  %17 = getelementptr inbounds %"class.Element::Port", %"class.Element::Port"* %5, i32 0, i32 0, !dbg !6008
  %18 = load %class.Element*, %class.Element** %17, align 8, !dbg !6008, !tbaa !6007
  %19 = getelementptr inbounds %"class.Element::Port", %"class.Element::Port"* %5, i32 0, i32 1, !dbg !6009
  %20 = load i32, i32* %19, align 8, !dbg !6009, !tbaa !5416
  %21 = load %class.Packet*, %class.Packet** %4, align 8, !dbg !6010, !tbaa !5154
  %22 = bitcast %class.Element* %18 to void (%class.Element*, i32, %class.Packet*)***, !dbg !6011
  %23 = load void (%class.Element*, i32, %class.Packet*)**, void (%class.Element*, i32, %class.Packet*)*** %22, align 8, !dbg !6011, !tbaa !5006
  %24 = getelementptr inbounds void (%class.Element*, i32, %class.Packet*)*, void (%class.Element*, i32, %class.Packet*)** %23, i64 2, !dbg !6011
  %25 = load void (%class.Element*, i32, %class.Packet*)*, void (%class.Element*, i32, %class.Packet*)** %24, align 8, !dbg !6011
  call void %25(%class.Element* %18, i32 %20, %class.Packet* %21), !dbg !6011
  ret void, !dbg !6012
}

; Function Attrs: sspstrong uwtable
define dso_local %class.Packet* @_ZN14ICMPPingSource4pullEi(%class.ICMPPingSource* nocapture %0, i32 %1) unnamed_addr #0 align 2 !dbg !6013 {
  call void @llvm.dbg.value(metadata %class.ICMPPingSource* %0, metadata !6015, metadata !DIExpression()), !dbg !6018
  call void @llvm.dbg.value(metadata i32 undef, metadata !6016, metadata !DIExpression()), !dbg !6018
  call void @llvm.dbg.value(metadata %class.Packet* null, metadata !6017, metadata !DIExpression()), !dbg !6018
  %3 = getelementptr inbounds %class.ICMPPingSource, %class.ICMPPingSource* %0, i64 0, i32 3, !dbg !6019
  %4 = load i32, i32* %3, align 4, !dbg !6019, !tbaa !5447
  %5 = getelementptr inbounds %class.ICMPPingSource, %class.ICMPPingSource* %0, i64 0, i32 4, !dbg !6021
  %6 = load i32, i32* %5, align 8, !dbg !6021, !tbaa !5010
  %7 = icmp slt i32 %4, %6, !dbg !6022
  %8 = icmp slt i32 %6, 0, !dbg !6023
  %9 = or i1 %7, %8, !dbg !6024
  br i1 %9, label %10, label %16, !dbg !6024

10:                                               ; preds = %2
  %11 = tail call %class.Packet* @_ZN14ICMPPingSource11make_packetEP14WritablePacket(%class.ICMPPingSource* nonnull %0, %class.WritablePacket* null), !dbg !6025
  call void @llvm.dbg.value(metadata %class.Packet* %11, metadata !6017, metadata !DIExpression()), !dbg !6018
  %12 = icmp eq %class.Packet* %11, null, !dbg !6028
  br i1 %12, label %23, label %13, !dbg !6029

13:                                               ; preds = %10
  %14 = load i32, i32* %3, align 4, !dbg !6030, !tbaa !5447
  %15 = add nsw i32 %14, 1, !dbg !6030
  store i32 %15, i32* %3, align 4, !dbg !6030, !tbaa !5447
  br label %23, !dbg !6031

16:                                               ; preds = %2
  %17 = getelementptr inbounds %class.ICMPPingSource, %class.ICMPPingSource* %0, i64 0, i32 11, !dbg !6032
  %18 = load i8, i8* %17, align 2, !dbg !6032, !tbaa !5166, !range !5235
  %19 = icmp eq i8 %18, 0, !dbg !6032
  br i1 %19, label %23, label %20, !dbg !6034

20:                                               ; preds = %16
  call void @llvm.dbg.value(metadata %class.ICMPPingSource* %0, metadata !5926, metadata !DIExpression()), !dbg !6035
  %21 = getelementptr inbounds %class.ICMPPingSource, %class.ICMPPingSource* %0, i64 0, i32 0, i32 4, !dbg !6038
  %22 = load %class.Router*, %class.Router** %21, align 8, !dbg !6038, !tbaa !5935
  call void @llvm.dbg.value(metadata %class.Router* %22, metadata !5937, metadata !DIExpression()), !dbg !6039
  tail call void @_ZN6Router15adjust_runcountEi(%class.Router* %22, i32 -1), !dbg !6041
  store i8 0, i8* %17, align 2, !dbg !6042, !tbaa !5166
  br label %23, !dbg !6043

23:                                               ; preds = %10, %16, %20, %13
  %24 = phi %class.Packet* [ %11, %13 ], [ null, %10 ], [ null, %20 ], [ null, %16 ], !dbg !6018
  call void @llvm.dbg.value(metadata %class.Packet* %24, metadata !6017, metadata !DIExpression()), !dbg !6018
  ret %class.Packet* %24, !dbg !6044
}

; Function Attrs: sspstrong uwtable
define dso_local void @_ZN14ICMPPingSource4pushEiP6Packet(%class.ICMPPingSource* %0, i32 %1, %class.Packet* %2) unnamed_addr #0 align 2 personality i8* bitcast (i32 (...)* @__gxx_personality_v0 to i8*) !dbg !6045 {
  %4 = alloca %class.String, align 8
  call void @llvm.dbg.value(metadata %class.ICMPPingSource* %0, metadata !6047, metadata !DIExpression()), !dbg !6065
  call void @llvm.dbg.value(metadata i32 undef, metadata !6048, metadata !DIExpression()), !dbg !6065
  call void @llvm.dbg.value(metadata %class.Packet* %2, metadata !6049, metadata !DIExpression()), !dbg !6065
  %5 = tail call %struct.click_ip* @_ZNK6Packet9ip_headerEv(%class.Packet* %2), !dbg !6066
  call void @llvm.dbg.value(metadata %struct.click_ip* %5, metadata !6050, metadata !DIExpression()), !dbg !6065
  call void @llvm.dbg.value(metadata %class.Packet* %2, metadata !6067, metadata !DIExpression()), !dbg !6070
  %6 = tail call i8* @_ZNK6Packet16transport_headerEv(%class.Packet* %2), !dbg !6072
  call void @llvm.dbg.value(metadata i8* %6, metadata !6051, metadata !DIExpression()), !dbg !6065
  %7 = tail call zeroext i1 @_ZNK6Packet18has_network_headerEv(%class.Packet* %2), !dbg !6073
  br i1 %7, label %8, label %199, !dbg !6074

8:                                                ; preds = %3
  %9 = getelementptr inbounds %struct.click_ip, %struct.click_ip* %5, i64 0, i32 6, !dbg !6075
  %10 = load i8, i8* %9, align 1, !dbg !6075, !tbaa !5849
  %11 = icmp eq i8 %10, 1, !dbg !6076
  br i1 %11, label %12, label %199, !dbg !6077

12:                                               ; preds = %8
  %13 = tail call i32 @_ZNK6Packet16transport_lengthEv(%class.Packet* %2), !dbg !6078
  %14 = icmp sgt i32 %13, 7, !dbg !6079
  br i1 %14, label %15, label %199, !dbg !6080

15:                                               ; preds = %12
  %16 = load i8, i8* %6, align 2, !dbg !6081, !tbaa !5863
  %17 = icmp eq i8 %16, 0, !dbg !6082
  br i1 %17, label %18, label %199, !dbg !6083

18:                                               ; preds = %15
  %19 = getelementptr inbounds i8, i8* %6, i64 4, !dbg !6084
  %20 = bitcast i8* %19 to i16*, !dbg !6084
  %21 = load i16, i16* %20, align 2, !dbg !6084, !tbaa !5871
  %22 = getelementptr inbounds %class.ICMPPingSource, %class.ICMPPingSource* %0, i64 0, i32 5, !dbg !6085
  %23 = load i16, i16* %22, align 4, !dbg !6085, !tbaa !5127
  %24 = icmp eq i16 %21, %23, !dbg !6086
  br i1 %24, label %25, label %199, !dbg !6087

25:                                               ; preds = %18
  %26 = getelementptr inbounds %class.ICMPPingSource, %class.ICMPPingSource* %0, i64 0, i32 13, !dbg !6088
  %27 = load %"struct.ICMPPingSource::ReceiverInfo"*, %"struct.ICMPPingSource::ReceiverInfo"** %26, align 8, !dbg !6088, !tbaa !5048
  %28 = getelementptr inbounds i8, i8* %6, i64 6, !dbg !6089
  %29 = bitcast i8* %28 to i16*, !dbg !6089
  %30 = load i16, i16* %29, align 2, !dbg !6089, !tbaa !5874
  %31 = zext i16 %30 to i64, !dbg !6088
  call void @llvm.dbg.value(metadata %class.Timestamp* undef, metadata !6052, metadata !DIExpression()), !dbg !6090
  call void @llvm.dbg.value(metadata %class.Timestamp* undef, metadata !6091, metadata !DIExpression()), !dbg !6095
  %32 = getelementptr inbounds %"struct.ICMPPingSource::ReceiverInfo", %"struct.ICMPPingSource::ReceiverInfo"* %27, i64 0, i32 6, i64 %31, i32 0, i32 0, !dbg !6097
  %33 = load i64, i64* %32, align 8, !dbg !6097, !tbaa !6098
  %34 = icmp eq i64 %33, 0, !dbg !6099
  %35 = select i1 %34, { i64, i64 } zeroinitializer, { i64, i64 } { i64 ptrtoint (i32 (%class.Timestamp*)* @_ZNK9Timestamp3secEv to i64), i64 0 }, !dbg !6099
  %36 = extractvalue { i64, i64 } %35, 0, !dbg !6100
  %37 = icmp eq i64 %36, 0, !dbg !6100
  br i1 %37, label %171, label %38, !dbg !6101

38:                                               ; preds = %25
  call void @llvm.dbg.value(metadata %class.Timestamp* undef, metadata !6102, metadata !DIExpression()), !dbg !6105
  %39 = icmp slt i64 %33, 0, !dbg !6108
  br i1 %39, label %40, label %46, !dbg !6109

40:                                               ; preds = %38
  %41 = getelementptr inbounds %"struct.ICMPPingSource::ReceiverInfo", %"struct.ICMPPingSource::ReceiverInfo"* %27, i64 0, i32 1, !dbg !6110
  %42 = load i32, i32* %41, align 4, !dbg !6112, !tbaa !6113
  %43 = add nsw i32 %42, 1, !dbg !6112
  store i32 %43, i32* %41, align 4, !dbg !6112, !tbaa !6113
  call void @llvm.dbg.value(metadata %class.Timestamp* undef, metadata !6115, metadata !DIExpression()), !dbg !6121
  %44 = load i64, i64* %32, align 8, !dbg !6123, !tbaa !6098
  %45 = sub nsw i64 0, %44, !dbg !6124
  call void @llvm.dbg.value(metadata i64 %45, metadata !6120, metadata !DIExpression()), !dbg !6121
  store i64 %45, i64* %32, align 8, !dbg !6125, !tbaa.struct !5961
  br label %46, !dbg !6126

46:                                               ; preds = %40, %38
  %47 = tail call dereferenceable(8) %class.Timestamp* @_ZN6Packet14timestamp_annoEv(%class.Packet* %2), !dbg !6127
  call void @llvm.dbg.value(metadata %class.Timestamp* %47, metadata !6091, metadata !DIExpression()), !dbg !6128
  %48 = getelementptr inbounds %class.Timestamp, %class.Timestamp* %47, i64 0, i32 0, i32 0, !dbg !6130
  %49 = load i64, i64* %48, align 8, !dbg !6130, !tbaa !6098
  %50 = icmp eq i64 %49, 0, !dbg !6131
  %51 = select i1 %50, { i64, i64 } zeroinitializer, { i64, i64 } { i64 ptrtoint (i32 (%class.Timestamp*)* @_ZNK9Timestamp3secEv to i64), i64 0 }, !dbg !6131
  %52 = extractvalue { i64, i64 } %51, 0, !dbg !6132
  %53 = icmp eq i64 %52, 0, !dbg !6132
  br i1 %53, label %54, label %56, !dbg !6133

54:                                               ; preds = %46
  %55 = load %"struct.ICMPPingSource::ReceiverInfo"*, %"struct.ICMPPingSource::ReceiverInfo"** %26, align 8, !dbg !6134, !tbaa !5048
  br label %92, !dbg !6133

56:                                               ; preds = %46
  %57 = tail call dereferenceable(8) %class.Timestamp* @_ZN6Packet14timestamp_annoEv(%class.Packet* %2), !dbg !6135
  %58 = getelementptr inbounds %class.Timestamp, %class.Timestamp* %57, i64 0, i32 0, i32 0, !dbg !6136
  %59 = load i64, i64* %58, align 8, !dbg !6136, !tbaa.struct !5961
  call void @llvm.dbg.value(metadata i64 %59, metadata !6137, metadata !DIExpression()), !dbg !6141
  call void @llvm.dbg.value(metadata %class.Timestamp* undef, metadata !6140, metadata !DIExpression()), !dbg !6141
  call void @llvm.dbg.value(metadata %class.Timestamp* undef, metadata !6143, metadata !DIExpression()), !dbg !6147
  call void @llvm.dbg.value(metadata %class.Timestamp* undef, metadata !6146, metadata !DIExpression()), !dbg !6147
  %60 = load i64, i64* %32, align 8, !dbg !6149, !tbaa !6098
  %61 = sub nsw i64 %59, %60, !dbg !6150
  call void @llvm.dbg.value(metadata i64 %61, metadata !6137, metadata !DIExpression()), !dbg !6141
  call void @llvm.dbg.value(metadata i64 %61, metadata !6058, metadata !DIExpression()), !dbg !6151
  call void @llvm.dbg.value(metadata %class.Timestamp* undef, metadata !6152, metadata !DIExpression()), !dbg !6155
  call void @llvm.dbg.value(metadata i64 %61, metadata !6157, metadata !DIExpression()), !dbg !6161
  call void @llvm.dbg.value(metadata i32 1000, metadata !6160, metadata !DIExpression()), !dbg !6161
  call void @llvm.dbg.value(metadata i64 %61, metadata !6163, metadata !DIExpression()), !dbg !6169
  call void @llvm.dbg.value(metadata i32 1000, metadata !6168, metadata !DIExpression()), !dbg !6169
  %62 = sdiv i64 %61, 1000, !dbg !6171
  %63 = trunc i64 %62 to i32, !dbg !6172
  call void @llvm.dbg.value(metadata i32 %63, metadata !6055, metadata !DIExpression()), !dbg !6173
  %64 = load %"struct.ICMPPingSource::ReceiverInfo"*, %"struct.ICMPPingSource::ReceiverInfo"** %26, align 8, !dbg !6174, !tbaa !5048
  %65 = getelementptr inbounds %"struct.ICMPPingSource::ReceiverInfo", %"struct.ICMPPingSource::ReceiverInfo"* %64, i64 0, i32 2, !dbg !6176
  %66 = load i32, i32* %65, align 8, !dbg !6176, !tbaa !6177
  %67 = icmp ugt i32 %66, %63, !dbg !6178
  br i1 %67, label %72, label %68, !dbg !6179

68:                                               ; preds = %56
  %69 = getelementptr inbounds %"struct.ICMPPingSource::ReceiverInfo", %"struct.ICMPPingSource::ReceiverInfo"* %64, i64 0, i32 0, !dbg !6180
  %70 = load i32, i32* %69, align 8, !dbg !6180, !tbaa !6181
  %71 = icmp eq i32 %70, 0, !dbg !6182
  br i1 %71, label %72, label %73, !dbg !6183

72:                                               ; preds = %68, %56
  store i32 %63, i32* %65, align 8, !dbg !6184, !tbaa !6177
  br label %73, !dbg !6185

73:                                               ; preds = %68, %72
  %74 = getelementptr inbounds %"struct.ICMPPingSource::ReceiverInfo", %"struct.ICMPPingSource::ReceiverInfo"* %64, i64 0, i32 3, !dbg !6186
  %75 = load i32, i32* %74, align 4, !dbg !6186, !tbaa !6188
  %76 = icmp ult i32 %75, %63, !dbg !6189
  br i1 %76, label %81, label %77, !dbg !6190

77:                                               ; preds = %73
  %78 = getelementptr inbounds %"struct.ICMPPingSource::ReceiverInfo", %"struct.ICMPPingSource::ReceiverInfo"* %64, i64 0, i32 0, !dbg !6191
  %79 = load i32, i32* %78, align 8, !dbg !6191, !tbaa !6181
  %80 = icmp eq i32 %79, 0, !dbg !6192
  br i1 %80, label %81, label %82, !dbg !6193

81:                                               ; preds = %77, %73
  store i32 %63, i32* %74, align 4, !dbg !6194, !tbaa !6188
  br label %82, !dbg !6195

82:                                               ; preds = %77, %81
  %83 = and i64 %62, 4294967295, !dbg !6196
  %84 = getelementptr inbounds %"struct.ICMPPingSource::ReceiverInfo", %"struct.ICMPPingSource::ReceiverInfo"* %64, i64 0, i32 4, !dbg !6197
  %85 = mul nuw i64 %83, %83, !dbg !6198
  %86 = bitcast i64* %84 to <2 x i64>*, !dbg !6199
  %87 = load <2 x i64>, <2 x i64>* %86, align 8, !dbg !6199, !tbaa !5896
  %88 = insertelement <2 x i64> undef, i64 %83, i32 0, !dbg !6199
  %89 = insertelement <2 x i64> %88, i64 %85, i32 1, !dbg !6199
  %90 = add <2 x i64> %87, %89, !dbg !6199
  %91 = bitcast i64* %84 to <2 x i64>*, !dbg !6199
  store <2 x i64> %90, <2 x i64>* %91, align 8, !dbg !6199, !tbaa !5896
  br label %92, !dbg !6200

92:                                               ; preds = %54, %82
  %93 = phi %"struct.ICMPPingSource::ReceiverInfo"* [ %64, %82 ], [ %55, %54 ], !dbg !6134
  %94 = phi i32 [ %63, %82 ], [ 0, %54 ], !dbg !6201
  call void @llvm.dbg.value(metadata i32 %94, metadata !6055, metadata !DIExpression()), !dbg !6173
  %95 = getelementptr inbounds %"struct.ICMPPingSource::ReceiverInfo", %"struct.ICMPPingSource::ReceiverInfo"* %93, i64 0, i32 0, !dbg !6202
  %96 = load i32, i32* %95, align 8, !dbg !6203, !tbaa !6181
  %97 = add nsw i32 %96, 1, !dbg !6203
  store i32 %97, i32* %95, align 8, !dbg !6203, !tbaa !6181
  call void @llvm.dbg.value(metadata %class.Timestamp* undef, metadata !6115, metadata !DIExpression()), !dbg !6204
  %98 = load i64, i64* %32, align 8, !dbg !6206, !tbaa !6098
  %99 = sub nsw i64 0, %98, !dbg !6207
  call void @llvm.dbg.value(metadata i64 %99, metadata !6120, metadata !DIExpression()), !dbg !6204
  store i64 %99, i64* %32, align 8, !dbg !6208, !tbaa.struct !5961
  %100 = load i16, i16* %29, align 2, !dbg !6209, !tbaa !5874
  %101 = tail call i16 @llvm.bswap.i16(i16 %100) #14
  call void @llvm.dbg.value(metadata i16 %101, metadata !6061, metadata !DIExpression()), !dbg !6173
  %102 = getelementptr inbounds %class.ICMPPingSource, %class.ICMPPingSource* %0, i64 0, i32 10, !dbg !6210
  %103 = load i8, i8* %102, align 1, !dbg !6210, !tbaa !5163, !range !5235
  %104 = icmp eq i8 %103, 0, !dbg !6210
  br i1 %104, label %171, label %105, !dbg !6212

105:                                              ; preds = %92
  %106 = bitcast %class.String* %4 to i8*, !dbg !6213
  call void @llvm.lifetime.start.p0i8(i64 24, i8* nonnull %106) #14, !dbg !6213
  %107 = bitcast %class.ICMPPingSource* %0 to %class.Element*, !dbg !6213
  %108 = bitcast %class.ICMPPingSource* %0 to void (%class.String*, %class.Element*)***, !dbg !6213
  %109 = load void (%class.String*, %class.Element*)**, void (%class.String*, %class.Element*)*** %108, align 8, !dbg !6213, !tbaa !5006
  %110 = getelementptr inbounds void (%class.String*, %class.Element*)*, void (%class.String*, %class.Element*)** %109, i64 23, !dbg !6213
  %111 = load void (%class.String*, %class.Element*)*, void (%class.String*, %class.Element*)** %110, align 8, !dbg !6213
  call void %111(%class.String* nonnull sret %4, %class.Element* %107), !dbg !6213
  %112 = invoke i8* @_ZNK6String5c_strEv(%class.String* nonnull %4)
          to label %113 unwind label %151, !dbg !6214

113:                                              ; preds = %105
  %114 = getelementptr inbounds %struct.click_ip, %struct.click_ip* %5, i64 0, i32 2, !dbg !6215
  %115 = load i16, i16* %114, align 2, !dbg !6215, !tbaa !5839
  %116 = call i16 @llvm.bswap.i16(i16 %115) #14
  %117 = zext i16 %116 to i64, !dbg !6215
  %118 = getelementptr %struct.click_ip, %struct.click_ip* %5, i64 0, i32 0, !dbg !6216
  %119 = load i8, i8* %118, align 4, !dbg !6216
  %120 = shl i8 %119, 2, !dbg !6217
  %121 = and i8 %120, 60, !dbg !6217
  %122 = zext i8 %121 to i64, !dbg !6217
  %123 = add nsw i64 %117, -8, !dbg !6218
  %124 = sub nsw i64 %123, %122, !dbg !6219
  %125 = getelementptr inbounds %struct.click_ip, %struct.click_ip* %5, i64 0, i32 8, !dbg !6220
  %126 = zext i16 %101 to i32, !dbg !6221
  %127 = getelementptr inbounds %struct.click_ip, %struct.click_ip* %5, i64 0, i32 5, !dbg !6222
  %128 = load i8, i8* %127, align 4, !dbg !6222, !tbaa !5852
  %129 = zext i8 %128 to i32, !dbg !6223
  %130 = udiv i32 %94, 1000, !dbg !6224
  %131 = urem i32 %94, 1000, !dbg !6225
  invoke void (i8*, ...) @click_chatter(i8* getelementptr inbounds ([65 x i8], [65 x i8]* @.str.17, i64 0, i64 0), i8* %112, i64 %124, %struct.in_addr* nonnull %125, i32 %126, i32 %129, i32 %130, i32 %131)
          to label %132 unwind label %151, !dbg !6226

132:                                              ; preds = %113
  call void @llvm.dbg.value(metadata %class.String* %4, metadata !5057, metadata !DIExpression()) #14, !dbg !6227
  call void @llvm.dbg.value(metadata %class.String* %4, metadata !5063, metadata !DIExpression()) #14, !dbg !6229
  %133 = getelementptr inbounds %class.String, %class.String* %4, i64 0, i32 0, i32 2, !dbg !6231
  %134 = load %"struct.String::memo_t"*, %"struct.String::memo_t"** %133, align 8, !dbg !6231, !tbaa !5046
  %135 = icmp eq %"struct.String::memo_t"* %134, null, !dbg !6232
  br i1 %135, label %150, label %136, !dbg !6233

136:                                              ; preds = %132
  %137 = getelementptr inbounds %"struct.String::memo_t", %"struct.String::memo_t"* %134, i64 0, i32 0, !dbg !6234
  %138 = load volatile i32, i32* %137, align 4, !dbg !6234, !tbaa !5075
  %139 = icmp eq i32 %138, 0, !dbg !6234
  br i1 %139, label %140, label %141, !dbg !6234

140:                                              ; preds = %136
  call void @__assert_fail(i8* getelementptr inbounds ([18 x i8], [18 x i8]* @.str.40, i64 0, i64 0), i8* getelementptr inbounds ([29 x i8], [29 x i8]* @.str.41, i64 0, i64 0), i32 273, i8* getelementptr inbounds ([27 x i8], [27 x i8]* @__PRETTY_FUNCTION__._ZNK6String5derefEv, i64 0, i64 0)) #15, !dbg !6234
  unreachable, !dbg !6234

141:                                              ; preds = %136
  call void @llvm.dbg.value(metadata i32* %137, metadata !5077, metadata !DIExpression()) #14, !dbg !6235
  %142 = load volatile i32, i32* %137, align 4, !dbg !6237, !tbaa !5084
  %143 = add i32 %142, -1, !dbg !6237
  store volatile i32 %143, i32* %137, align 4, !dbg !6237, !tbaa !5084
  %144 = icmp eq i32 %143, 0, !dbg !6238
  br i1 %144, label %145, label %146, !dbg !6239

145:                                              ; preds = %141
  invoke void @_ZN6String11delete_memoEPNS_6memo_tE(%"struct.String::memo_t"* nonnull %134)
          to label %146 unwind label %147, !dbg !6240

146:                                              ; preds = %145, %141
  store %"struct.String::memo_t"* null, %"struct.String::memo_t"** %133, align 8, !dbg !6241, !tbaa !5046
  br label %150, !dbg !6242

147:                                              ; preds = %145
  %148 = landingpad { i8*, i32 }
          catch i8* null, !dbg !6243
  %149 = extractvalue { i8*, i32 } %148, 0, !dbg !6243
  call void @__clang_call_terminate(i8* %149) #15, !dbg !6243
  unreachable, !dbg !6243

150:                                              ; preds = %132, %146
  call void @llvm.lifetime.end.p0i8(i64 24, i8* nonnull %106) #14, !dbg !6226
  br label %171, !dbg !6226

151:                                              ; preds = %113, %105
  %152 = landingpad { i8*, i32 }
          cleanup, !dbg !6244
  call void @llvm.dbg.value(metadata %class.String* %4, metadata !5057, metadata !DIExpression()) #14, !dbg !6245
  call void @llvm.dbg.value(metadata %class.String* %4, metadata !5063, metadata !DIExpression()) #14, !dbg !6247
  %153 = getelementptr inbounds %class.String, %class.String* %4, i64 0, i32 0, i32 2, !dbg !6249
  %154 = load %"struct.String::memo_t"*, %"struct.String::memo_t"** %153, align 8, !dbg !6249, !tbaa !5046
  %155 = icmp eq %"struct.String::memo_t"* %154, null, !dbg !6250
  br i1 %155, label %170, label %156, !dbg !6251

156:                                              ; preds = %151
  %157 = getelementptr inbounds %"struct.String::memo_t", %"struct.String::memo_t"* %154, i64 0, i32 0, !dbg !6252
  %158 = load volatile i32, i32* %157, align 4, !dbg !6252, !tbaa !5075
  %159 = icmp eq i32 %158, 0, !dbg !6252
  br i1 %159, label %160, label %161, !dbg !6252

160:                                              ; preds = %156
  call void @__assert_fail(i8* getelementptr inbounds ([18 x i8], [18 x i8]* @.str.40, i64 0, i64 0), i8* getelementptr inbounds ([29 x i8], [29 x i8]* @.str.41, i64 0, i64 0), i32 273, i8* getelementptr inbounds ([27 x i8], [27 x i8]* @__PRETTY_FUNCTION__._ZNK6String5derefEv, i64 0, i64 0)) #15, !dbg !6252
  unreachable, !dbg !6252

161:                                              ; preds = %156
  call void @llvm.dbg.value(metadata i32* %157, metadata !5077, metadata !DIExpression()) #14, !dbg !6253
  %162 = load volatile i32, i32* %157, align 4, !dbg !6255, !tbaa !5084
  %163 = add i32 %162, -1, !dbg !6255
  store volatile i32 %163, i32* %157, align 4, !dbg !6255, !tbaa !5084
  %164 = icmp eq i32 %163, 0, !dbg !6256
  br i1 %164, label %165, label %166, !dbg !6257

165:                                              ; preds = %161
  invoke void @_ZN6String11delete_memoEPNS_6memo_tE(%"struct.String::memo_t"* nonnull %154)
          to label %166 unwind label %167, !dbg !6258

166:                                              ; preds = %165, %161
  store %"struct.String::memo_t"* null, %"struct.String::memo_t"** %153, align 8, !dbg !6259, !tbaa !5046
  br label %170, !dbg !6260

167:                                              ; preds = %165
  %168 = landingpad { i8*, i32 }
          catch i8* null, !dbg !6261
  %169 = extractvalue { i8*, i32 } %168, 0, !dbg !6261
  call void @__clang_call_terminate(i8* %169) #15, !dbg !6261
  unreachable, !dbg !6261

170:                                              ; preds = %151, %166
  call void @llvm.lifetime.end.p0i8(i64 24, i8* nonnull %106) #14, !dbg !6226
  resume { i8*, i32 } %152, !dbg !6262

171:                                              ; preds = %150, %92, %25
  %172 = getelementptr inbounds %class.ICMPPingSource, %class.ICMPPingSource* %0, i64 0, i32 12, !dbg !6263
  %173 = load i8, i8* %172, align 1, !dbg !6263, !tbaa !5169, !range !5235
  %174 = icmp eq i8 %173, 0, !dbg !6263
  br i1 %174, label %199, label %175, !dbg !6264

175:                                              ; preds = %171
  %176 = call %class.WritablePacket* @_ZN6Packet9uniqueifyEv(%class.Packet* %2), !dbg !6265
  call void @llvm.dbg.value(metadata %class.WritablePacket* %176, metadata !6062, metadata !DIExpression()), !dbg !6266
  %177 = icmp eq %class.WritablePacket* %176, null, !dbg !6267
  br i1 %177, label %200, label %178, !dbg !6269

178:                                              ; preds = %175
  %179 = call i8* @_ZNK14WritablePacket4dataEv(%class.WritablePacket* nonnull %176), !dbg !6270
  %180 = call i8* @_ZNK14WritablePacket14network_headerEv(%class.WritablePacket* nonnull %176), !dbg !6271
  %181 = icmp ult i8* %179, %180, !dbg !6272
  br i1 %181, label %182, label %190, !dbg !6273

182:                                              ; preds = %178
  %183 = getelementptr %class.WritablePacket, %class.WritablePacket* %176, i64 0, i32 0, !dbg !6274
  %184 = call i8* @_ZNK14WritablePacket14network_headerEv(%class.WritablePacket* nonnull %176), !dbg !6275
  %185 = call i8* @_ZNK14WritablePacket4dataEv(%class.WritablePacket* nonnull %176), !dbg !6276
  %186 = ptrtoint i8* %184 to i64, !dbg !6277
  %187 = ptrtoint i8* %185 to i64, !dbg !6277
  %188 = sub i64 %186, %187, !dbg !6277
  %189 = trunc i64 %188 to i32, !dbg !6278
  call void @_ZN6Packet4pullEj(%class.Packet* %183, i32 %189), !dbg !6274
  br label %190, !dbg !6279

190:                                              ; preds = %178, %182
  %191 = call %class.Packet* @_ZN14ICMPPingSource11make_packetEP14WritablePacket(%class.ICMPPingSource* nonnull %0, %class.WritablePacket* nonnull %176), !dbg !6280
  call void @llvm.dbg.value(metadata %class.Packet* %191, metadata !6049, metadata !DIExpression()), !dbg !6065
  %192 = icmp eq %class.Packet* %191, null, !dbg !6282
  br i1 %192, label %200, label %193, !dbg !6283

193:                                              ; preds = %190
  %194 = bitcast %class.ICMPPingSource* %0 to %class.Element*, !dbg !6284
  %195 = call dereferenceable(16) %"class.Element::Port"* @_ZNK7Element6outputEi(%class.Element* %194, i32 0), !dbg !6284
  call void @_ZNK7Element4Port4pushEP6Packet(%"class.Element::Port"* nonnull %195, %class.Packet* nonnull %191), !dbg !6286
  %196 = getelementptr inbounds %class.ICMPPingSource, %class.ICMPPingSource* %0, i64 0, i32 3, !dbg !6287
  %197 = load i32, i32* %196, align 4, !dbg !6288, !tbaa !5447
  %198 = add nsw i32 %197, 1, !dbg !6288
  store i32 %198, i32* %196, align 4, !dbg !6288, !tbaa !5447
  br label %200, !dbg !6289

199:                                              ; preds = %171, %18, %15, %12, %8, %3
  call void @llvm.dbg.value(metadata %class.Packet* %2, metadata !6049, metadata !DIExpression()), !dbg !6065
  call void @_ZN6Packet4killEv(%class.Packet* %2), !dbg !6290
  br label %200, !dbg !6262

200:                                              ; preds = %175, %193, %190, %199
  ret void, !dbg !6262
}

declare %struct.click_ip* @_ZNK6Packet9ip_headerEv(%class.Packet*) local_unnamed_addr #2

declare zeroext i1 @_ZNK6Packet18has_network_headerEv(%class.Packet*) local_unnamed_addr #2

declare i32 @_ZNK6Packet16transport_lengthEv(%class.Packet*) local_unnamed_addr #2

declare !dbg !4145 void @click_chatter(i8*, ...) local_unnamed_addr #2

declare %class.WritablePacket* @_ZN6Packet9uniqueifyEv(%class.Packet*) local_unnamed_addr #2

declare i8* @_ZNK14WritablePacket14network_headerEv(%class.WritablePacket*) local_unnamed_addr #2

declare void @_ZN6Packet4pullEj(%class.Packet*, i32) local_unnamed_addr #2

declare void @_ZN6Packet4killEv(%class.Packet*) local_unnamed_addr #2

; Function Attrs: sspstrong uwtable
define dso_local void @_ZN14ICMPPingSource12read_handlerEP7ElementPv(%class.String* noalias sret %0, %class.Element* nocapture readonly %1, i8* %2) #0 align 2 personality i8* bitcast (i32 (...)* @__gxx_personality_v0 to i8*) !dbg !6291 {
  %4 = alloca %class.IPAddress, align 4
  %5 = alloca %class.IPAddress, align 4
  %6 = alloca %class.StringAccum, align 8
  call void @llvm.dbg.value(metadata %class.Element* %1, metadata !6293, metadata !DIExpression()), !dbg !6305
  call void @llvm.dbg.value(metadata i8* %2, metadata !6294, metadata !DIExpression()), !dbg !6305
  %7 = bitcast %class.Element* %1 to %class.ICMPPingSource*, !dbg !6306
  call void @llvm.dbg.value(metadata %class.ICMPPingSource* %7, metadata !6295, metadata !DIExpression()), !dbg !6305
  %8 = getelementptr inbounds %class.Element, %class.Element* %1, i64 1, i32 5, !dbg !6307
  %9 = bitcast i32* %8 to %"struct.ICMPPingSource::ReceiverInfo"**, !dbg !6307
  %10 = load %"struct.ICMPPingSource::ReceiverInfo"*, %"struct.ICMPPingSource::ReceiverInfo"** %9, align 8, !dbg !6307, !tbaa !5048
  call void @llvm.dbg.value(metadata %"struct.ICMPPingSource::ReceiverInfo"* %10, metadata !6296, metadata !DIExpression()), !dbg !6305
  %11 = ptrtoint i8* %2 to i64, !dbg !6308
  switch i64 %11, label %244 [
    i64 0, label %12
    i64 4, label %23
    i64 9, label %26
    i64 10, label %32
    i64 5, label %38
    i64 6, label %228
    i64 7, label %231
    i64 8, label %241
  ], !dbg !6309

12:                                               ; preds = %3
  %13 = getelementptr inbounds %class.Element, %class.Element* %1, i64 1, i32 4, !dbg !6310
  %14 = bitcast %class.Router** %13 to i8*, !dbg !6310
  %15 = load i8, i8* %14, align 8, !dbg !6310, !tbaa !5160, !range !5235
  %16 = icmp ne i8 %15, 0, !dbg !6310
  call void @llvm.dbg.value(metadata %class.String* %0, metadata !6311, metadata !DIExpression()), !dbg !6315
  call void @llvm.dbg.value(metadata i1 %16, metadata !6314, metadata !DIExpression()), !dbg !6315
  %17 = select i1 %16, i64 6, i64 0, !dbg !6317
  %18 = getelementptr inbounds [11 x i8], [11 x i8]* @_ZN6String9bool_dataE, i64 0, i64 %17, !dbg !6317
  %19 = select i1 %16, i32 4, i32 5, !dbg !6319
  call void @llvm.dbg.value(metadata %class.String* %0, metadata !5028, metadata !DIExpression()), !dbg !6320
  call void @llvm.dbg.value(metadata i8* %18, metadata !5031, metadata !DIExpression()), !dbg !6320
  call void @llvm.dbg.value(metadata i32 %19, metadata !5032, metadata !DIExpression()), !dbg !6320
  call void @llvm.dbg.value(metadata %"struct.String::memo_t"* null, metadata !5033, metadata !DIExpression()), !dbg !6320
  %20 = getelementptr inbounds %class.String, %class.String* %0, i64 0, i32 0, i32 0, !dbg !6322
  store i8* %18, i8** %20, align 8, !dbg !6323, !tbaa !5039
  %21 = getelementptr inbounds %class.String, %class.String* %0, i64 0, i32 0, i32 1, !dbg !6324
  store i32 %19, i32* %21, align 8, !dbg !6325, !tbaa !5042
  %22 = getelementptr inbounds %class.String, %class.String* %0, i64 0, i32 0, i32 2, !dbg !6326
  store %"struct.String::memo_t"* null, %"struct.String::memo_t"** %22, align 8, !dbg !6327, !tbaa !5046
  br label %248, !dbg !6328

23:                                               ; preds = %3
  %24 = getelementptr inbounds %class.ICMPPingSource, %class.ICMPPingSource* %7, i64 0, i32 3, !dbg !6329
  %25 = load i32, i32* %24, align 4, !dbg !6329, !tbaa !5447
  tail call void @_ZN6StringC1Ei(%class.String* %0, i32 %25), !dbg !6330
  br label %248, !dbg !6331

26:                                               ; preds = %3
  %27 = bitcast %class.IPAddress* %4 to i8*, !dbg !6332
  call void @llvm.lifetime.start.p0i8(i64 4, i8* nonnull %27) #14, !dbg !6332
  %28 = getelementptr inbounds %class.Element, %class.Element* %1, i64 0, i32 6, !dbg !6333
  %29 = bitcast [4 x i8]* %28 to i32*, !dbg !6333
  %30 = load i32, i32* %29, align 4, !dbg !6333, !tbaa.struct !5884
  call void @llvm.dbg.value(metadata i32 %30, metadata !6334, metadata !DIExpression()), !dbg !6339
  call void @llvm.dbg.value(metadata %class.IPAddress* %4, metadata !6337, metadata !DIExpression()), !dbg !6339
  %31 = getelementptr inbounds %class.IPAddress, %class.IPAddress* %4, i64 0, i32 0, !dbg !6341
  store i32 %30, i32* %31, align 4, !dbg !6341, !tbaa !6342
  call void @_ZNK9IPAddress7unparseEv(%class.String* sret %0, %class.IPAddress* nonnull %4), !dbg !6344
  call void @llvm.lifetime.end.p0i8(i64 4, i8* nonnull %27) #14, !dbg !6345
  br label %248, !dbg !6345

32:                                               ; preds = %3
  %33 = bitcast %class.IPAddress* %5 to i8*, !dbg !6346
  call void @llvm.lifetime.start.p0i8(i64 4, i8* nonnull %33) #14, !dbg !6346
  %34 = getelementptr inbounds %class.Element, %class.Element* %1, i64 1, !dbg !6347
  %35 = bitcast %class.Element* %34 to i32*, !dbg !6347
  %36 = load i32, i32* %35, align 8, !dbg !6347, !tbaa.struct !5884
  call void @llvm.dbg.value(metadata i32 %36, metadata !6334, metadata !DIExpression()), !dbg !6348
  call void @llvm.dbg.value(metadata %class.IPAddress* %5, metadata !6337, metadata !DIExpression()), !dbg !6348
  %37 = getelementptr inbounds %class.IPAddress, %class.IPAddress* %5, i64 0, i32 0, !dbg !6350
  store i32 %36, i32* %37, align 4, !dbg !6350, !tbaa !6342
  call void @_ZNK9IPAddress7unparseEv(%class.String* sret %0, %class.IPAddress* nonnull %5), !dbg !6351
  call void @llvm.lifetime.end.p0i8(i64 4, i8* nonnull %33) #14, !dbg !6352
  br label %248, !dbg !6352

38:                                               ; preds = %3
  %39 = bitcast %class.StringAccum* %6 to i8*, !dbg !6353
  call void @llvm.lifetime.start.p0i8(i64 16, i8* nonnull %39) #14, !dbg !6353
  call void @llvm.dbg.declare(metadata %class.StringAccum* %6, metadata !6297, metadata !DIExpression()), !dbg !6354
  call void @llvm.dbg.value(metadata %class.StringAccum* %6, metadata !6355, metadata !DIExpression()), !dbg !6359
  call void @llvm.dbg.value(metadata %class.StringAccum* %6, metadata !6361, metadata !DIExpression()), !dbg !6365
  %40 = getelementptr inbounds %class.StringAccum, %class.StringAccum* %6, i64 0, i32 0, i32 0, !dbg !6367
  store i8* @_ZN6String9null_dataE, i8** %40, align 8, !dbg !6367, !tbaa !6368
  %41 = getelementptr inbounds %class.StringAccum, %class.StringAccum* %6, i64 0, i32 0, i32 1, !dbg !6370
  store i32 0, i32* %41, align 8, !dbg !6370, !tbaa !6371
  %42 = getelementptr inbounds %class.StringAccum, %class.StringAccum* %6, i64 0, i32 0, i32 2, !dbg !6372
  store i32 0, i32* %42, align 4, !dbg !6372, !tbaa !6373
  %43 = getelementptr inbounds %class.ICMPPingSource, %class.ICMPPingSource* %7, i64 0, i32 3, !dbg !6374
  %44 = load i32, i32* %43, align 4, !dbg !6374, !tbaa !5447
  call void @llvm.dbg.value(metadata %class.StringAccum* %6, metadata !6375, metadata !DIExpression()), !dbg !6381
  call void @llvm.dbg.value(metadata i32 %44, metadata !6380, metadata !DIExpression()), !dbg !6381
  %45 = sext i32 %44 to i64, !dbg !6383
  %46 = invoke dereferenceable(16) %class.StringAccum* @_ZlsR11StringAccuml(%class.StringAccum* nonnull dereferenceable(16) %6, i64 %45)
          to label %47 unwind label %135, !dbg !6384

47:                                               ; preds = %38
  call void @llvm.dbg.value(metadata %class.StringAccum* %46, metadata !6385, metadata !DIExpression()), !dbg !6391
  call void @llvm.dbg.value(metadata i8* getelementptr inbounds ([21 x i8], [21 x i8]* @.str.18, i64 0, i64 0), metadata !6390, metadata !DIExpression()), !dbg !6391
  call void @llvm.dbg.value(metadata %class.StringAccum* %46, metadata !6393, metadata !DIExpression()), !dbg !6397
  call void @llvm.dbg.value(metadata i8* getelementptr inbounds ([21 x i8], [21 x i8]* @.str.18, i64 0, i64 0), metadata !6396, metadata !DIExpression()), !dbg !6397
  call void @llvm.dbg.value(metadata %class.StringAccum* %46, metadata !6399, metadata !DIExpression()), !dbg !6404
  call void @llvm.dbg.value(metadata i8* getelementptr inbounds ([21 x i8], [21 x i8]* @.str.18, i64 0, i64 0), metadata !6402, metadata !DIExpression()), !dbg !6404
  call void @llvm.dbg.value(metadata i32 20, metadata !6403, metadata !DIExpression()), !dbg !6404
  %48 = getelementptr inbounds %class.StringAccum, %class.StringAccum* %46, i64 0, i32 0, i32 1, !dbg !6407
  %49 = load i32, i32* %48, align 8, !dbg !6407, !tbaa !6409
  %50 = add nsw i32 %49, 20, !dbg !6411
  %51 = getelementptr inbounds %class.StringAccum, %class.StringAccum* %46, i64 0, i32 0, i32 2, !dbg !6412
  %52 = load i32, i32* %51, align 4, !dbg !6412, !tbaa !6413
  %53 = icmp sgt i32 %50, %52, !dbg !6414
  br i1 %53, label %61, label %54, !dbg !6415

54:                                               ; preds = %47
  %55 = getelementptr inbounds %class.StringAccum, %class.StringAccum* %46, i64 0, i32 0, i32 0, !dbg !6416
  %56 = load i8*, i8** %55, align 8, !dbg !6416, !tbaa !6418
  %57 = sext i32 %49 to i64, !dbg !6419
  %58 = getelementptr inbounds i8, i8* %56, i64 %57, !dbg !6419
  call void @llvm.memcpy.p0i8.p0i8.i64(i8* nonnull align 1 dereferenceable(20) %58, i8* nonnull align 1 dereferenceable(20) getelementptr inbounds ([21 x i8], [21 x i8]* @.str.18, i64 0, i64 0), i64 20, i1 false), !dbg !6420
  %59 = load i32, i32* %48, align 8, !dbg !6421, !tbaa !6409
  %60 = add nsw i32 %59, 20, !dbg !6421
  store i32 %60, i32* %48, align 8, !dbg !6421, !tbaa !6409
  br label %64, !dbg !6422

61:                                               ; preds = %47
  invoke void @_ZN11StringAccum11hard_appendEPKci(%class.StringAccum* nonnull %46, i8* nonnull getelementptr inbounds ([21 x i8], [21 x i8]* @.str.18, i64 0, i64 0), i32 20)
          to label %62 unwind label %135, !dbg !6423

62:                                               ; preds = %61
  %63 = load i32, i32* %48, align 8, !dbg !6424, !tbaa !6409
  br label %64, !dbg !6423

64:                                               ; preds = %62, %54
  %65 = phi i32 [ %63, %62 ], [ %60, %54 ], !dbg !6424
  call void @llvm.dbg.value(metadata %class.StringAccum* %46, metadata !6385, metadata !DIExpression()), !dbg !6428
  call void @llvm.dbg.value(metadata i8* getelementptr inbounds ([3 x i8], [3 x i8]* @.str.19, i64 0, i64 0), metadata !6390, metadata !DIExpression()), !dbg !6428
  call void @llvm.dbg.value(metadata %class.StringAccum* %46, metadata !6393, metadata !DIExpression()), !dbg !6429
  call void @llvm.dbg.value(metadata i8* getelementptr inbounds ([3 x i8], [3 x i8]* @.str.19, i64 0, i64 0), metadata !6396, metadata !DIExpression()), !dbg !6429
  call void @llvm.dbg.value(metadata %class.StringAccum* %46, metadata !6399, metadata !DIExpression()), !dbg !6430
  call void @llvm.dbg.value(metadata i8* getelementptr inbounds ([3 x i8], [3 x i8]* @.str.19, i64 0, i64 0), metadata !6402, metadata !DIExpression()), !dbg !6430
  call void @llvm.dbg.value(metadata i32 2, metadata !6403, metadata !DIExpression()), !dbg !6430
  %66 = add nsw i32 %65, 2, !dbg !6431
  %67 = load i32, i32* %51, align 4, !dbg !6432, !tbaa !6413
  %68 = icmp sgt i32 %66, %67, !dbg !6433
  br i1 %68, label %77, label %69, !dbg !6434

69:                                               ; preds = %64
  %70 = getelementptr inbounds %class.StringAccum, %class.StringAccum* %46, i64 0, i32 0, i32 0, !dbg !6435
  %71 = load i8*, i8** %70, align 8, !dbg !6435, !tbaa !6418
  %72 = sext i32 %65 to i64, !dbg !6436
  %73 = getelementptr inbounds i8, i8* %71, i64 %72, !dbg !6436
  %74 = bitcast i8* %73 to i16*, !dbg !6437
  store i16 8236, i16* %74, align 1, !dbg !6437
  %75 = load i32, i32* %48, align 8, !dbg !6438, !tbaa !6409
  %76 = add nsw i32 %75, 2, !dbg !6438
  store i32 %76, i32* %48, align 8, !dbg !6438, !tbaa !6409
  br label %78, !dbg !6439

77:                                               ; preds = %64
  invoke void @_ZN11StringAccum11hard_appendEPKci(%class.StringAccum* nonnull %46, i8* nonnull getelementptr inbounds ([3 x i8], [3 x i8]* @.str.19, i64 0, i64 0), i32 2)
          to label %78 unwind label %135, !dbg !6440

78:                                               ; preds = %69, %77
  %79 = getelementptr inbounds %"struct.ICMPPingSource::ReceiverInfo", %"struct.ICMPPingSource::ReceiverInfo"* %10, i64 0, i32 0, !dbg !6441
  %80 = load i32, i32* %79, align 8, !dbg !6441, !tbaa !6181
  %81 = getelementptr inbounds %"struct.ICMPPingSource::ReceiverInfo", %"struct.ICMPPingSource::ReceiverInfo"* %10, i64 0, i32 1, !dbg !6442
  %82 = load i32, i32* %81, align 4, !dbg !6442, !tbaa !6113
  %83 = sub nsw i32 %80, %82, !dbg !6443
  call void @llvm.dbg.value(metadata %class.StringAccum* %46, metadata !6375, metadata !DIExpression()), !dbg !6444
  call void @llvm.dbg.value(metadata i32 %83, metadata !6380, metadata !DIExpression()), !dbg !6444
  %84 = sext i32 %83 to i64, !dbg !6446
  %85 = invoke dereferenceable(16) %class.StringAccum* @_ZlsR11StringAccuml(%class.StringAccum* nonnull dereferenceable(16) %46, i64 %84)
          to label %86 unwind label %135, !dbg !6447

86:                                               ; preds = %78
  call void @llvm.dbg.value(metadata %class.StringAccum* %85, metadata !6385, metadata !DIExpression()), !dbg !6448
  call void @llvm.dbg.value(metadata i8* getelementptr inbounds ([10 x i8], [10 x i8]* @.str.20, i64 0, i64 0), metadata !6390, metadata !DIExpression()), !dbg !6448
  call void @llvm.dbg.value(metadata %class.StringAccum* %85, metadata !6393, metadata !DIExpression()), !dbg !6450
  call void @llvm.dbg.value(metadata i8* getelementptr inbounds ([10 x i8], [10 x i8]* @.str.20, i64 0, i64 0), metadata !6396, metadata !DIExpression()), !dbg !6450
  call void @llvm.dbg.value(metadata %class.StringAccum* %85, metadata !6399, metadata !DIExpression()), !dbg !6452
  call void @llvm.dbg.value(metadata i8* getelementptr inbounds ([10 x i8], [10 x i8]* @.str.20, i64 0, i64 0), metadata !6402, metadata !DIExpression()), !dbg !6452
  call void @llvm.dbg.value(metadata i32 9, metadata !6403, metadata !DIExpression()), !dbg !6452
  %87 = getelementptr inbounds %class.StringAccum, %class.StringAccum* %85, i64 0, i32 0, i32 1, !dbg !6454
  %88 = load i32, i32* %87, align 8, !dbg !6454, !tbaa !6409
  %89 = add nsw i32 %88, 9, !dbg !6455
  %90 = getelementptr inbounds %class.StringAccum, %class.StringAccum* %85, i64 0, i32 0, i32 2, !dbg !6456
  %91 = load i32, i32* %90, align 4, !dbg !6456, !tbaa !6413
  %92 = icmp sgt i32 %89, %91, !dbg !6457
  br i1 %92, label %100, label %93, !dbg !6458

93:                                               ; preds = %86
  %94 = getelementptr inbounds %class.StringAccum, %class.StringAccum* %85, i64 0, i32 0, i32 0, !dbg !6459
  %95 = load i8*, i8** %94, align 8, !dbg !6459, !tbaa !6418
  %96 = sext i32 %88 to i64, !dbg !6460
  %97 = getelementptr inbounds i8, i8* %95, i64 %96, !dbg !6460
  call void @llvm.memcpy.p0i8.p0i8.i64(i8* nonnull align 1 dereferenceable(9) %97, i8* nonnull align 1 dereferenceable(9) getelementptr inbounds ([10 x i8], [10 x i8]* @.str.20, i64 0, i64 0), i64 9, i1 false), !dbg !6461
  %98 = load i32, i32* %87, align 8, !dbg !6462, !tbaa !6409
  %99 = add nsw i32 %98, 9, !dbg !6462
  store i32 %99, i32* %87, align 8, !dbg !6462, !tbaa !6409
  br label %101, !dbg !6463

100:                                              ; preds = %86
  invoke void @_ZN11StringAccum11hard_appendEPKci(%class.StringAccum* nonnull %85, i8* nonnull getelementptr inbounds ([10 x i8], [10 x i8]* @.str.20, i64 0, i64 0), i32 9)
          to label %101 unwind label %135, !dbg !6464

101:                                              ; preds = %93, %100
  %102 = load i32, i32* %81, align 4, !dbg !6465, !tbaa !6113
  %103 = icmp eq i32 %102, 0, !dbg !6467
  br i1 %103, label %137, label %104, !dbg !6468

104:                                              ; preds = %101
  call void @llvm.dbg.value(metadata %class.StringAccum* %6, metadata !6385, metadata !DIExpression()), !dbg !6469
  call void @llvm.dbg.value(metadata i8* getelementptr inbounds ([4 x i8], [4 x i8]* @.str.21, i64 0, i64 0), metadata !6390, metadata !DIExpression()), !dbg !6469
  call void @llvm.dbg.value(metadata %class.StringAccum* %6, metadata !6393, metadata !DIExpression()), !dbg !6471
  call void @llvm.dbg.value(metadata i8* getelementptr inbounds ([4 x i8], [4 x i8]* @.str.21, i64 0, i64 0), metadata !6396, metadata !DIExpression()), !dbg !6471
  call void @llvm.dbg.value(metadata %class.StringAccum* %6, metadata !6399, metadata !DIExpression()), !dbg !6473
  call void @llvm.dbg.value(metadata i8* getelementptr inbounds ([4 x i8], [4 x i8]* @.str.21, i64 0, i64 0), metadata !6402, metadata !DIExpression()), !dbg !6473
  call void @llvm.dbg.value(metadata i32 3, metadata !6403, metadata !DIExpression()), !dbg !6473
  %105 = load i32, i32* %41, align 8, !dbg !6475, !tbaa !6409
  %106 = add nsw i32 %105, 3, !dbg !6476
  %107 = load i32, i32* %42, align 4, !dbg !6477, !tbaa !6413
  %108 = icmp sgt i32 %106, %107, !dbg !6478
  br i1 %108, label %115, label %109, !dbg !6479

109:                                              ; preds = %104
  %110 = load i8*, i8** %40, align 8, !dbg !6480, !tbaa !6418
  %111 = sext i32 %105 to i64, !dbg !6481
  %112 = getelementptr inbounds i8, i8* %110, i64 %111, !dbg !6481
  call void @llvm.memcpy.p0i8.p0i8.i64(i8* nonnull align 1 dereferenceable(3) %112, i8* nonnull align 1 dereferenceable(3) getelementptr inbounds ([4 x i8], [4 x i8]* @.str.21, i64 0, i64 0), i64 3, i1 false), !dbg !6482
  %113 = load i32, i32* %41, align 8, !dbg !6483, !tbaa !6409
  %114 = add nsw i32 %113, 3, !dbg !6483
  store i32 %114, i32* %41, align 8, !dbg !6483, !tbaa !6409
  br label %116, !dbg !6484

115:                                              ; preds = %104
  invoke void @_ZN11StringAccum11hard_appendEPKci(%class.StringAccum* nonnull %6, i8* nonnull getelementptr inbounds ([4 x i8], [4 x i8]* @.str.21, i64 0, i64 0), i32 3)
          to label %116 unwind label %135, !dbg !6485

116:                                              ; preds = %109, %115
  %117 = load i32, i32* %81, align 4, !dbg !6486, !tbaa !6113
  call void @llvm.dbg.value(metadata %class.StringAccum* %6, metadata !6375, metadata !DIExpression()), !dbg !6487
  call void @llvm.dbg.value(metadata i32 %117, metadata !6380, metadata !DIExpression()), !dbg !6487
  %118 = sext i32 %117 to i64, !dbg !6489
  %119 = invoke dereferenceable(16) %class.StringAccum* @_ZlsR11StringAccuml(%class.StringAccum* nonnull dereferenceable(16) %6, i64 %118)
          to label %120 unwind label %135, !dbg !6490

120:                                              ; preds = %116
  call void @llvm.dbg.value(metadata %class.StringAccum* %119, metadata !6385, metadata !DIExpression()), !dbg !6491
  call void @llvm.dbg.value(metadata i8* getelementptr inbounds ([12 x i8], [12 x i8]* @.str.22, i64 0, i64 0), metadata !6390, metadata !DIExpression()), !dbg !6491
  call void @llvm.dbg.value(metadata %class.StringAccum* %119, metadata !6393, metadata !DIExpression()), !dbg !6493
  call void @llvm.dbg.value(metadata i8* getelementptr inbounds ([12 x i8], [12 x i8]* @.str.22, i64 0, i64 0), metadata !6396, metadata !DIExpression()), !dbg !6493
  call void @llvm.dbg.value(metadata %class.StringAccum* %119, metadata !6399, metadata !DIExpression()), !dbg !6495
  call void @llvm.dbg.value(metadata i8* getelementptr inbounds ([12 x i8], [12 x i8]* @.str.22, i64 0, i64 0), metadata !6402, metadata !DIExpression()), !dbg !6495
  call void @llvm.dbg.value(metadata i32 11, metadata !6403, metadata !DIExpression()), !dbg !6495
  %121 = getelementptr inbounds %class.StringAccum, %class.StringAccum* %119, i64 0, i32 0, i32 1, !dbg !6497
  %122 = load i32, i32* %121, align 8, !dbg !6497, !tbaa !6409
  %123 = add nsw i32 %122, 11, !dbg !6498
  %124 = getelementptr inbounds %class.StringAccum, %class.StringAccum* %119, i64 0, i32 0, i32 2, !dbg !6499
  %125 = load i32, i32* %124, align 4, !dbg !6499, !tbaa !6413
  %126 = icmp sgt i32 %123, %125, !dbg !6500
  br i1 %126, label %134, label %127, !dbg !6501

127:                                              ; preds = %120
  %128 = getelementptr inbounds %class.StringAccum, %class.StringAccum* %119, i64 0, i32 0, i32 0, !dbg !6502
  %129 = load i8*, i8** %128, align 8, !dbg !6502, !tbaa !6418
  %130 = sext i32 %122 to i64, !dbg !6503
  %131 = getelementptr inbounds i8, i8* %129, i64 %130, !dbg !6503
  call void @llvm.memcpy.p0i8.p0i8.i64(i8* nonnull align 1 dereferenceable(11) %131, i8* nonnull align 1 dereferenceable(11) getelementptr inbounds ([12 x i8], [12 x i8]* @.str.22, i64 0, i64 0), i64 11, i1 false), !dbg !6504
  %132 = load i32, i32* %121, align 8, !dbg !6505, !tbaa !6409
  %133 = add nsw i32 %132, 11, !dbg !6505
  store i32 %133, i32* %121, align 8, !dbg !6505, !tbaa !6409
  br label %137, !dbg !6506

134:                                              ; preds = %120
  invoke void @_ZN11StringAccum11hard_appendEPKci(%class.StringAccum* nonnull %119, i8* nonnull getelementptr inbounds ([12 x i8], [12 x i8]* @.str.22, i64 0, i64 0), i32 11)
          to label %137 unwind label %135, !dbg !6507

135:                                              ; preds = %177, %153, %152, %134, %116, %115, %100, %78, %77, %61, %38, %212
  %136 = landingpad { i8*, i32 }
          cleanup, !dbg !6508
  br label %220, !dbg !6508

137:                                              ; preds = %127, %134, %101
  %138 = load i32, i32* %43, align 4, !dbg !6509, !tbaa !5447
  %139 = icmp eq i32 %138, 0, !dbg !6511
  br i1 %139, label %178, label %140, !dbg !6512

140:                                              ; preds = %137
  call void @llvm.dbg.value(metadata %class.StringAccum* %6, metadata !6385, metadata !DIExpression()), !dbg !6513
  call void @llvm.dbg.value(metadata i8* getelementptr inbounds ([3 x i8], [3 x i8]* @.str.19, i64 0, i64 0), metadata !6390, metadata !DIExpression()), !dbg !6513
  call void @llvm.dbg.value(metadata %class.StringAccum* %6, metadata !6393, metadata !DIExpression()), !dbg !6515
  call void @llvm.dbg.value(metadata i8* getelementptr inbounds ([3 x i8], [3 x i8]* @.str.19, i64 0, i64 0), metadata !6396, metadata !DIExpression()), !dbg !6515
  call void @llvm.dbg.value(metadata %class.StringAccum* %6, metadata !6399, metadata !DIExpression()), !dbg !6517
  call void @llvm.dbg.value(metadata i8* getelementptr inbounds ([3 x i8], [3 x i8]* @.str.19, i64 0, i64 0), metadata !6402, metadata !DIExpression()), !dbg !6517
  call void @llvm.dbg.value(metadata i32 2, metadata !6403, metadata !DIExpression()), !dbg !6517
  %141 = load i32, i32* %41, align 8, !dbg !6519, !tbaa !6409
  %142 = add nsw i32 %141, 2, !dbg !6520
  %143 = load i32, i32* %42, align 4, !dbg !6521, !tbaa !6413
  %144 = icmp sgt i32 %142, %143, !dbg !6522
  br i1 %144, label %152, label %145, !dbg !6523

145:                                              ; preds = %140
  %146 = load i8*, i8** %40, align 8, !dbg !6524, !tbaa !6418
  %147 = sext i32 %141 to i64, !dbg !6525
  %148 = getelementptr inbounds i8, i8* %146, i64 %147, !dbg !6525
  %149 = bitcast i8* %148 to i16*, !dbg !6526
  store i16 8236, i16* %149, align 1, !dbg !6526
  %150 = load i32, i32* %41, align 8, !dbg !6527, !tbaa !6409
  %151 = add nsw i32 %150, 2, !dbg !6527
  store i32 %151, i32* %41, align 8, !dbg !6527, !tbaa !6409
  br label %153, !dbg !6528

152:                                              ; preds = %140
  invoke void @_ZN11StringAccum11hard_appendEPKci(%class.StringAccum* nonnull %6, i8* nonnull getelementptr inbounds ([3 x i8], [3 x i8]* @.str.19, i64 0, i64 0), i32 2)
          to label %153 unwind label %135, !dbg !6529

153:                                              ; preds = %145, %152
  %154 = load i32, i32* %43, align 4, !dbg !6530, !tbaa !5447
  %155 = load i32, i32* %79, align 8, !dbg !6531, !tbaa !6181
  %156 = sub i32 %154, %155, !dbg !6532
  %157 = load i32, i32* %81, align 4, !dbg !6533, !tbaa !6113
  %158 = sub i32 %156, %157, !dbg !6534
  %159 = mul nsw i32 %158, 100, !dbg !6535
  %160 = sdiv i32 %159, %154, !dbg !6536
  call void @llvm.dbg.value(metadata %class.StringAccum* %6, metadata !6375, metadata !DIExpression()), !dbg !6537
  call void @llvm.dbg.value(metadata i32 %160, metadata !6380, metadata !DIExpression()), !dbg !6537
  %161 = sext i32 %160 to i64, !dbg !6539
  %162 = invoke dereferenceable(16) %class.StringAccum* @_ZlsR11StringAccuml(%class.StringAccum* nonnull dereferenceable(16) %6, i64 %161)
          to label %163 unwind label %135, !dbg !6540

163:                                              ; preds = %153
  call void @llvm.dbg.value(metadata %class.StringAccum* %162, metadata !6385, metadata !DIExpression()), !dbg !6541
  call void @llvm.dbg.value(metadata i8* getelementptr inbounds ([15 x i8], [15 x i8]* @.str.23, i64 0, i64 0), metadata !6390, metadata !DIExpression()), !dbg !6541
  call void @llvm.dbg.value(metadata %class.StringAccum* %162, metadata !6393, metadata !DIExpression()), !dbg !6543
  call void @llvm.dbg.value(metadata i8* getelementptr inbounds ([15 x i8], [15 x i8]* @.str.23, i64 0, i64 0), metadata !6396, metadata !DIExpression()), !dbg !6543
  call void @llvm.dbg.value(metadata %class.StringAccum* %162, metadata !6399, metadata !DIExpression()), !dbg !6545
  call void @llvm.dbg.value(metadata i8* getelementptr inbounds ([15 x i8], [15 x i8]* @.str.23, i64 0, i64 0), metadata !6402, metadata !DIExpression()), !dbg !6545
  call void @llvm.dbg.value(metadata i32 14, metadata !6403, metadata !DIExpression()), !dbg !6545
  %164 = getelementptr inbounds %class.StringAccum, %class.StringAccum* %162, i64 0, i32 0, i32 1, !dbg !6547
  %165 = load i32, i32* %164, align 8, !dbg !6547, !tbaa !6409
  %166 = add nsw i32 %165, 14, !dbg !6548
  %167 = getelementptr inbounds %class.StringAccum, %class.StringAccum* %162, i64 0, i32 0, i32 2, !dbg !6549
  %168 = load i32, i32* %167, align 4, !dbg !6549, !tbaa !6413
  %169 = icmp sgt i32 %166, %168, !dbg !6550
  br i1 %169, label %177, label %170, !dbg !6551

170:                                              ; preds = %163
  %171 = getelementptr inbounds %class.StringAccum, %class.StringAccum* %162, i64 0, i32 0, i32 0, !dbg !6552
  %172 = load i8*, i8** %171, align 8, !dbg !6552, !tbaa !6418
  %173 = sext i32 %165 to i64, !dbg !6553
  %174 = getelementptr inbounds i8, i8* %172, i64 %173, !dbg !6553
  call void @llvm.memcpy.p0i8.p0i8.i64(i8* nonnull align 1 dereferenceable(14) %174, i8* nonnull align 1 dereferenceable(14) getelementptr inbounds ([15 x i8], [15 x i8]* @.str.23, i64 0, i64 0), i64 14, i1 false), !dbg !6554
  %175 = load i32, i32* %164, align 8, !dbg !6555, !tbaa !6409
  %176 = add nsw i32 %175, 14, !dbg !6555
  store i32 %176, i32* %164, align 8, !dbg !6555, !tbaa !6409
  br label %178, !dbg !6556

177:                                              ; preds = %163
  invoke void @_ZN11StringAccum11hard_appendEPKci(%class.StringAccum* nonnull %162, i8* nonnull getelementptr inbounds ([15 x i8], [15 x i8]* @.str.23, i64 0, i64 0), i32 14)
          to label %178 unwind label %135, !dbg !6557

178:                                              ; preds = %170, %177, %137
  %179 = load i32, i32* %79, align 8, !dbg !6558, !tbaa !6181
  %180 = icmp eq i32 %179, 0, !dbg !6559
  br i1 %180, label %212, label %181, !dbg !6560

181:                                              ; preds = %178
  %182 = getelementptr inbounds %"struct.ICMPPingSource::ReceiverInfo", %"struct.ICMPPingSource::ReceiverInfo"* %10, i64 0, i32 4, !dbg !6561
  %183 = load i64, i64* %182, align 8, !dbg !6561, !tbaa !6562
  %184 = sext i32 %179 to i64, !dbg !6563
  %185 = udiv i64 %183, %184, !dbg !6564
  call void @llvm.dbg.value(metadata i64 %185, metadata !6300, metadata !DIExpression()), !dbg !6565
  %186 = getelementptr inbounds %"struct.ICMPPingSource::ReceiverInfo", %"struct.ICMPPingSource::ReceiverInfo"* %10, i64 0, i32 5, !dbg !6566
  %187 = load i64, i64* %186, align 8, !dbg !6566, !tbaa !6567
  %188 = udiv i64 %187, %184, !dbg !6568
  call void @llvm.dbg.value(metadata i64 %188, metadata !6303, metadata !DIExpression()), !dbg !6565
  %189 = mul i64 %185, %185, !dbg !6569
  %190 = sub i64 %188, %189, !dbg !6570
  %191 = invoke i64 @_Z8int_sqrtm(i64 %190)
          to label %192 unwind label %210, !dbg !6571

192:                                              ; preds = %181
  call void @llvm.dbg.value(metadata i64 %191, metadata !6304, metadata !DIExpression()), !dbg !6565
  %193 = getelementptr inbounds %"struct.ICMPPingSource::ReceiverInfo", %"struct.ICMPPingSource::ReceiverInfo"* %10, i64 0, i32 2, !dbg !6572
  %194 = load i32, i32* %193, align 8, !dbg !6572, !tbaa !6177
  %195 = udiv i32 %194, 1000, !dbg !6573
  %196 = urem i32 %194, 1000, !dbg !6574
  %197 = udiv i64 %185, 1000, !dbg !6575
  %198 = trunc i64 %197 to i32, !dbg !6576
  %199 = urem i64 %185, 1000, !dbg !6577
  %200 = trunc i64 %199 to i32, !dbg !6578
  %201 = getelementptr inbounds %"struct.ICMPPingSource::ReceiverInfo", %"struct.ICMPPingSource::ReceiverInfo"* %10, i64 0, i32 3, !dbg !6579
  %202 = load i32, i32* %201, align 4, !dbg !6579, !tbaa !6188
  %203 = udiv i32 %202, 1000, !dbg !6580
  %204 = urem i32 %202, 1000, !dbg !6581
  %205 = udiv i64 %191, 1000, !dbg !6582
  %206 = trunc i64 %205 to i32, !dbg !6583
  %207 = urem i64 %191, 1000, !dbg !6584
  %208 = trunc i64 %207 to i32, !dbg !6585
  %209 = invoke dereferenceable(16) %class.StringAccum* (%class.StringAccum*, i32, i8*, ...) @_ZN11StringAccum8snprintfEiPKcz(%class.StringAccum* nonnull %6, i32 256, i8* getelementptr inbounds ([56 x i8], [56 x i8]* @.str.24, i64 0, i64 0), i32 %195, i32 %196, i32 %198, i32 %200, i32 %203, i32 %204, i32 %206, i32 %208)
          to label %212 unwind label %210, !dbg !6586

210:                                              ; preds = %192, %181
  %211 = landingpad { i8*, i32 }
          cleanup, !dbg !6587
  br label %220, !dbg !6588

212:                                              ; preds = %192, %178
  invoke void @_ZN11StringAccum11take_stringEv(%class.String* sret %0, %class.StringAccum* nonnull %6)
          to label %213 unwind label %135, !dbg !6589

213:                                              ; preds = %212
  call void @llvm.dbg.value(metadata %class.StringAccum* %6, metadata !6590, metadata !DIExpression()) #14, !dbg !6593
  %214 = load i32, i32* %42, align 4, !dbg !6595, !tbaa !6413
  %215 = icmp sgt i32 %214, 0, !dbg !6598
  br i1 %215, label %216, label %219, !dbg !6599

216:                                              ; preds = %213
  %217 = load i8*, i8** %40, align 8, !dbg !6600, !tbaa !6418
  %218 = getelementptr inbounds i8, i8* %217, i64 -12, !dbg !6600
  call void @_ZdaPv(i8* nonnull %218) #16, !dbg !6600
  br label %219, !dbg !6600

219:                                              ; preds = %213, %216
  call void @llvm.lifetime.end.p0i8(i64 16, i8* nonnull %39) #14, !dbg !6601
  br label %248

220:                                              ; preds = %210, %135
  %221 = phi { i8*, i32 } [ %211, %210 ], [ %136, %135 ]
  call void @llvm.dbg.value(metadata %class.StringAccum* %6, metadata !6590, metadata !DIExpression()) #14, !dbg !6602
  %222 = load i32, i32* %42, align 4, !dbg !6604, !tbaa !6413
  %223 = icmp sgt i32 %222, 0, !dbg !6605
  br i1 %223, label %224, label %227, !dbg !6606

224:                                              ; preds = %220
  %225 = load i8*, i8** %40, align 8, !dbg !6607, !tbaa !6418
  %226 = getelementptr inbounds i8, i8* %225, i64 -12, !dbg !6607
  call void @_ZdaPv(i8* nonnull %226) #16, !dbg !6607
  br label %227, !dbg !6607

227:                                              ; preds = %220, %224
  call void @llvm.lifetime.end.p0i8(i64 16, i8* nonnull %39) #14, !dbg !6601
  resume { i8*, i32 } %221, !dbg !6608

228:                                              ; preds = %3
  %229 = getelementptr inbounds %"struct.ICMPPingSource::ReceiverInfo", %"struct.ICMPPingSource::ReceiverInfo"* %10, i64 0, i32 2, !dbg !6609
  %230 = load i32, i32* %229, align 8, !dbg !6609, !tbaa !6177
  tail call void @_Z23cp_unparse_microsecondsj(%class.String* sret %0, i32 %230), !dbg !6610
  br label %248, !dbg !6611

231:                                              ; preds = %3
  %232 = getelementptr inbounds %"struct.ICMPPingSource::ReceiverInfo", %"struct.ICMPPingSource::ReceiverInfo"* %10, i64 0, i32 4, !dbg !6612
  %233 = load i64, i64* %232, align 8, !dbg !6612, !tbaa !6562
  %234 = getelementptr inbounds %"struct.ICMPPingSource::ReceiverInfo", %"struct.ICMPPingSource::ReceiverInfo"* %10, i64 0, i32 0, !dbg !6613
  %235 = load i32, i32* %234, align 8, !dbg !6613, !tbaa !6181
  %236 = icmp eq i32 %235, 0, !dbg !6614
  %237 = select i1 %236, i32 1, i32 %235, !dbg !6614
  %238 = sext i32 %237 to i64, !dbg !6614
  %239 = udiv i64 %233, %238, !dbg !6615
  %240 = trunc i64 %239 to i32, !dbg !6616
  tail call void @_Z23cp_unparse_microsecondsj(%class.String* sret %0, i32 %240), !dbg !6617
  br label %248, !dbg !6618

241:                                              ; preds = %3
  %242 = getelementptr inbounds %"struct.ICMPPingSource::ReceiverInfo", %"struct.ICMPPingSource::ReceiverInfo"* %10, i64 0, i32 3, !dbg !6619
  %243 = load i32, i32* %242, align 4, !dbg !6619, !tbaa !6188
  tail call void @_Z23cp_unparse_microsecondsj(%class.String* sret %0, i32 %243), !dbg !6620
  br label %248, !dbg !6621

244:                                              ; preds = %3
  call void @llvm.dbg.value(metadata %class.String* %0, metadata !5613, metadata !DIExpression()), !dbg !6622
  call void @llvm.dbg.value(metadata i8* getelementptr inbounds ([1 x i8], [1 x i8]* @.str.25, i64 0, i64 0), metadata !5616, metadata !DIExpression()), !dbg !6622
  call void @llvm.dbg.value(metadata %class.String* %0, metadata !5028, metadata !DIExpression()), !dbg !6624
  call void @llvm.dbg.value(metadata i8* getelementptr inbounds ([1 x i8], [1 x i8]* @.str.25, i64 0, i64 0), metadata !5031, metadata !DIExpression()), !dbg !6624
  call void @llvm.dbg.value(metadata i32 0, metadata !5032, metadata !DIExpression()), !dbg !6624
  call void @llvm.dbg.value(metadata %"struct.String::memo_t"* null, metadata !5033, metadata !DIExpression()), !dbg !6624
  %245 = getelementptr inbounds %class.String, %class.String* %0, i64 0, i32 0, i32 0, !dbg !6626
  store i8* getelementptr inbounds ([1 x i8], [1 x i8]* @.str.25, i64 0, i64 0), i8** %245, align 8, !dbg !6627, !tbaa !5039
  %246 = getelementptr inbounds %class.String, %class.String* %0, i64 0, i32 0, i32 1, !dbg !6628
  store i32 0, i32* %246, align 8, !dbg !6629, !tbaa !5042
  %247 = getelementptr inbounds %class.String, %class.String* %0, i64 0, i32 0, i32 2, !dbg !6630
  store %"struct.String::memo_t"* null, %"struct.String::memo_t"** %247, align 8, !dbg !6631, !tbaa !5046
  br label %248, !dbg !6632

248:                                              ; preds = %244, %241, %231, %228, %219, %32, %26, %23, %12
  ret void, !dbg !6608
}

declare void @_ZN6StringC1Ei(%class.String*, i32) unnamed_addr #2

declare void @_ZNK9IPAddress7unparseEv(%class.String* sret, %class.IPAddress*) local_unnamed_addr #2

declare !dbg !4149 i64 @_Z8int_sqrtm(i64) local_unnamed_addr #2

declare dereferenceable(16) %class.StringAccum* @_ZN11StringAccum8snprintfEiPKcz(%class.StringAccum*, i32, i8*, ...) local_unnamed_addr #2

declare void @_ZN11StringAccum11take_stringEv(%class.String* sret, %class.StringAccum*) local_unnamed_addr #2

declare !dbg !4153 void @_Z23cp_unparse_microsecondsj(%class.String* sret, i32) local_unnamed_addr #2

; Function Attrs: sspstrong uwtable
define dso_local i32 @_ZN14ICMPPingSource13write_handlerERK6StringP7ElementPvP12ErrorHandler(%class.String* dereferenceable(24) %0, %class.Element* %1, i8* %2, %class.ErrorHandler* %3) #0 align 2 !dbg !6633 {
  %5 = alloca [1 x i32], align 4
  call void @llvm.dbg.declare(metadata [1 x i32]* %5, metadata !4344, metadata !DIExpression()), !dbg !6643
  %6 = alloca %class.Timestamp, align 8
  call void @llvm.dbg.declare(metadata %class.Timestamp* %6, metadata !6656, metadata !DIExpression()), !dbg !6659
  %7 = alloca %class.Timestamp, align 8
  %8 = alloca %class.Timestamp, align 8
  %9 = alloca %class.Timestamp, align 8
  %10 = alloca %class.IntArg, align 4
  %11 = alloca %class.SecondsArg, align 4
  call void @llvm.dbg.value(metadata %class.String* %0, metadata !6635, metadata !DIExpression()), !dbg !6666
  call void @llvm.dbg.value(metadata %class.Element* %1, metadata !6636, metadata !DIExpression()), !dbg !6666
  call void @llvm.dbg.value(metadata i8* %2, metadata !6637, metadata !DIExpression()), !dbg !6666
  call void @llvm.dbg.value(metadata %class.ErrorHandler* %3, metadata !6638, metadata !DIExpression()), !dbg !6666
  %12 = bitcast %class.Element* %1 to %class.ICMPPingSource*, !dbg !6667
  call void @llvm.dbg.value(metadata %class.ICMPPingSource* %12, metadata !6639, metadata !DIExpression()), !dbg !6666
  %13 = ptrtoint i8* %2 to i64, !dbg !6668
  switch i64 %13, label %175 [
    i64 0, label %14
    i64 9, label %46
    i64 10, label %52
    i64 1, label %58
    i64 2, label %123
    i64 3, label %131
  ], !dbg !6669

14:                                               ; preds = %4
  %15 = getelementptr inbounds %class.Element, %class.Element* %1, i64 1, i32 4, !dbg !6670
  %16 = bitcast %class.Router** %15 to i8*, !dbg !6670
  %17 = tail call zeroext i1 @_ZN7BoolArg5parseERK6StringRbRK10ArgContext(%class.String* nonnull dereferenceable(24) %0, i8* nonnull dereferenceable(1) %16, %class.ArgContext* nonnull dereferenceable(32) @blank_args), !dbg !6672
  br i1 %17, label %20, label %18, !dbg !6673

18:                                               ; preds = %14
  %19 = tail call i32 (%class.ErrorHandler*, i8*, ...) @_ZN12ErrorHandler5errorEPKcz(%class.ErrorHandler* %3, i8* getelementptr inbounds ([14 x i8], [14 x i8]* @.str.26, i64 0, i64 0)), !dbg !6674
  br label %175, !dbg !6675

20:                                               ; preds = %14
  %21 = load i8, i8* %16, align 8, !dbg !6676, !tbaa !5160, !range !5235
  %22 = icmp eq i8 %21, 0, !dbg !6676
  %23 = getelementptr inbounds %class.Element, %class.Element* %1, i64 1, i32 2, !dbg !6677
  %24 = bitcast [4 x %"class.Element::Port"]* %23 to %class.Timer*, !dbg !6677
  br i1 %22, label %45, label %25, !dbg !6678

25:                                               ; preds = %20
  call void @llvm.dbg.value(metadata %class.Timer* %24, metadata !5097, metadata !DIExpression()), !dbg !6679
  %26 = bitcast [4 x %"class.Element::Port"]* %23 to i32*, !dbg !6681
  %27 = load i32, i32* %26, align 8, !dbg !6681, !tbaa !5106
  %28 = icmp eq i32 %27, 0, !dbg !6682
  br i1 %28, label %29, label %175, !dbg !6683

29:                                               ; preds = %25
  call void @llvm.dbg.value(metadata %class.Element* %1, metadata !5457, metadata !DIExpression()), !dbg !6684
  call void @llvm.dbg.value(metadata i32 0, metadata !5461, metadata !DIExpression()), !dbg !6684
  call void @llvm.dbg.value(metadata %class.Element* %1, metadata !5464, metadata !DIExpression()), !dbg !6686
  call void @llvm.dbg.value(metadata i1 true, metadata !5470, metadata !DIExpression()), !dbg !6686
  call void @llvm.dbg.value(metadata i32 0, metadata !5471, metadata !DIExpression()), !dbg !6686
  call void @llvm.dbg.value(metadata %class.Element* %1, metadata !5365, metadata !DIExpression()), !dbg !6688
  call void @llvm.dbg.value(metadata i1 true, metadata !5371, metadata !DIExpression()), !dbg !6688
  %30 = getelementptr inbounds %class.Element, %class.Element* %1, i64 0, i32 3, i64 1, !dbg !6690
  %31 = load i32, i32* %30, align 4, !dbg !6690, !tbaa !5084
  %32 = icmp eq i32 %31, 0, !dbg !6691
  br i1 %32, label %175, label %33, !dbg !6692

33:                                               ; preds = %29
  %34 = getelementptr inbounds %class.Element, %class.Element* %1, i64 0, i32 1, i64 1, !dbg !6693
  %35 = load %"class.Element::Port"*, %"class.Element::Port"** %34, align 8, !dbg !6693, !tbaa !5154
  call void @llvm.dbg.value(metadata %"class.Element::Port"* undef, metadata !5378, metadata !DIExpression()), !dbg !6694
  %36 = getelementptr inbounds %"class.Element::Port", %"class.Element::Port"* %35, i64 0, i32 1, !dbg !6696
  %37 = load i32, i32* %36, align 8, !dbg !6696, !tbaa !5416
  %38 = icmp sgt i32 %37, -1, !dbg !6697
  br i1 %38, label %39, label %175, !dbg !6698

39:                                               ; preds = %33
  call void @llvm.dbg.value(metadata %class.Timer* %24, metadata !6663, metadata !DIExpression()), !dbg !6699
  %40 = bitcast %class.Timestamp* %7 to i8*, !dbg !6700
  call void @llvm.lifetime.start.p0i8(i64 8, i8* nonnull %40) #14, !dbg !6700
  %41 = bitcast %class.Timestamp* %6 to i8*, !dbg !6701
  call void @llvm.lifetime.start.p0i8(i64 8, i8* nonnull %41), !dbg !6701
  call void @llvm.dbg.value(metadata %class.Timestamp* %6, metadata !6704, metadata !DIExpression()), !dbg !6701
  call void @_ZN9Timestamp10assign_nowEbbb(%class.Timestamp* nonnull %6, i1 zeroext true, i1 zeroext true, i1 zeroext false), !dbg !6706
  %42 = getelementptr inbounds %class.Timestamp, %class.Timestamp* %6, i64 0, i32 0, i32 0, !dbg !6707
  %43 = load i64, i64* %42, align 8, !dbg !6707
  call void @llvm.lifetime.end.p0i8(i64 8, i8* nonnull %41), !dbg !6707
  %44 = getelementptr inbounds %class.Timestamp, %class.Timestamp* %7, i64 0, i32 0, i32 0, !dbg !6700
  store i64 %43, i64* %44, align 8, !dbg !6700
  call void @_ZN5Timer18schedule_at_steadyERK9Timestamp(%class.Timer* nonnull %24, %class.Timestamp* nonnull dereferenceable(8) %7), !dbg !6708
  call void @llvm.lifetime.end.p0i8(i64 8, i8* nonnull %40) #14, !dbg !6708
  br label %175, !dbg !6709

45:                                               ; preds = %20
  tail call void @_ZN5Timer10unscheduleEv(%class.Timer* nonnull %24), !dbg !6710
  br label %175, !dbg !6712

46:                                               ; preds = %4
  %47 = getelementptr inbounds %class.Element, %class.Element* %1, i64 0, i32 6, !dbg !6713
  call void @llvm.dbg.value(metadata %class.String* %0, metadata !6715, metadata !DIExpression()), !dbg !6736
  call void @llvm.dbg.value(metadata %class.ArgContext* @blank_args, metadata !6735, metadata !DIExpression()), !dbg !6736
  %48 = bitcast [4 x i8]* %47 to %class.IPAddress*, !dbg !6738
  call void @llvm.dbg.value(metadata %class.IPAddress* %48, metadata !6734, metadata !DIExpression()), !dbg !6736
  %49 = tail call zeroext i1 @_ZN12IPAddressArg5parseERK6StringR9IPAddressRK10ArgContext(%class.String* nonnull dereferenceable(24) %0, %class.IPAddress* nonnull dereferenceable(4) %48, %class.ArgContext* nonnull dereferenceable(32) @blank_args), !dbg !6739
  br i1 %49, label %175, label %50, !dbg !6740

50:                                               ; preds = %46
  %51 = tail call i32 (%class.ErrorHandler*, i8*, ...) @_ZN12ErrorHandler5errorEPKcz(%class.ErrorHandler* %3, i8* getelementptr inbounds ([13 x i8], [13 x i8]* @.str.27, i64 0, i64 0)), !dbg !6741
  br label %175, !dbg !6742

52:                                               ; preds = %4
  %53 = getelementptr inbounds %class.Element, %class.Element* %1, i64 1, !dbg !6743
  call void @llvm.dbg.value(metadata %class.String* %0, metadata !6715, metadata !DIExpression()), !dbg !6745
  call void @llvm.dbg.value(metadata %class.ArgContext* @blank_args, metadata !6735, metadata !DIExpression()), !dbg !6745
  %54 = bitcast %class.Element* %53 to %class.IPAddress*, !dbg !6747
  call void @llvm.dbg.value(metadata %class.IPAddress* %54, metadata !6734, metadata !DIExpression()), !dbg !6745
  %55 = tail call zeroext i1 @_ZN12IPAddressArg5parseERK6StringR9IPAddressRK10ArgContext(%class.String* nonnull dereferenceable(24) %0, %class.IPAddress* nonnull dereferenceable(4) %54, %class.ArgContext* nonnull dereferenceable(32) @blank_args), !dbg !6748
  br i1 %55, label %175, label %56, !dbg !6749

56:                                               ; preds = %52
  %57 = tail call i32 (%class.ErrorHandler*, i8*, ...) @_ZN12ErrorHandler5errorEPKcz(%class.ErrorHandler* %3, i8* getelementptr inbounds ([13 x i8], [13 x i8]* @.str.27, i64 0, i64 0)), !dbg !6750
  br label %175, !dbg !6751

58:                                               ; preds = %4
  %59 = bitcast %class.IntArg* %10 to i8*, !dbg !6752
  call void @llvm.lifetime.start.p0i8(i64 8, i8* nonnull %59) #14, !dbg !6752
  call void @llvm.dbg.value(metadata %class.IntArg* %10, metadata !6753, metadata !DIExpression()), !dbg !6757
  call void @llvm.dbg.value(metadata i32 0, metadata !6756, metadata !DIExpression()), !dbg !6757
  %60 = getelementptr inbounds %class.IntArg, %class.IntArg* %10, i64 0, i32 0, !dbg !6759
  store i32 0, i32* %60, align 4, !dbg !6759, !tbaa !6760
  %61 = getelementptr inbounds %class.Element, %class.Element* %1, i64 1, i32 1, !dbg !6762
  %62 = bitcast [2 x %"class.Element::Port"*]* %61 to i32*, !dbg !6762
  call void @llvm.dbg.value(metadata %class.IntArg* %10, metadata !6649, metadata !DIExpression()), !dbg !6763
  call void @llvm.dbg.value(metadata %class.String* %0, metadata !6650, metadata !DIExpression()), !dbg !6763
  call void @llvm.dbg.value(metadata i32* %62, metadata !6651, metadata !DIExpression()), !dbg !6763
  call void @llvm.dbg.value(metadata %class.ArgContext* @blank_args, metadata !6652, metadata !DIExpression()), !dbg !6763
  call void @llvm.dbg.value(metadata %class.IntArg* %10, metadata !4337, metadata !DIExpression()), !dbg !6764
  call void @llvm.dbg.value(metadata %class.String* %0, metadata !4339, metadata !DIExpression()), !dbg !6764
  call void @llvm.dbg.value(metadata %class.ArgContext* @blank_args, metadata !4341, metadata !DIExpression()), !dbg !6764
  call void @llvm.dbg.value(metadata i8 1, metadata !4342, metadata !DIExpression()), !dbg !6764
  call void @llvm.dbg.value(metadata i32 1, metadata !4343, metadata !DIExpression()), !dbg !6764
  %63 = bitcast [1 x i32]* %5 to i8*, !dbg !6765
  call void @llvm.lifetime.start.p0i8(i64 4, i8* nonnull %63) #14, !dbg !6765
  call void @llvm.dbg.value(metadata %class.String* %0, metadata !6766, metadata !DIExpression()), !dbg !6769
  %64 = getelementptr inbounds %class.String, %class.String* %0, i64 0, i32 0, i32 0, !dbg !6772
  %65 = load i8*, i8** %64, align 8, !dbg !6772, !tbaa !5039
  call void @llvm.dbg.value(metadata %class.String* %0, metadata !6773, metadata !DIExpression()), !dbg !6776
  %66 = getelementptr inbounds %class.String, %class.String* %0, i64 0, i32 0, i32 1, !dbg !6778
  %67 = load i32, i32* %66, align 8, !dbg !6778, !tbaa !5042
  %68 = sext i32 %67 to i64, !dbg !6779
  %69 = getelementptr inbounds i8, i8* %65, i64 %68, !dbg !6779
  %70 = getelementptr inbounds [1 x i32], [1 x i32]* %5, i64 0, i64 0, !dbg !6780
  %71 = call i8* @_ZN6IntArg5parseEPKcS1_biPji(%class.IntArg* nonnull %10, i8* %65, i8* %69, i1 zeroext true, i32 4, i32* nonnull %70, i32 1), !dbg !6781
  call void @llvm.dbg.value(metadata %class.String* %0, metadata !6773, metadata !DIExpression()), !dbg !6782
  %72 = load i8*, i8** %64, align 8, !dbg !6784, !tbaa !5039
  %73 = load i32, i32* %66, align 8, !dbg !6785, !tbaa !5042
  %74 = sext i32 %73 to i64, !dbg !6786
  %75 = getelementptr inbounds i8, i8* %72, i64 %74, !dbg !6786
  %76 = icmp eq i8* %71, %75, !dbg !6787
  %77 = getelementptr inbounds %class.IntArg, %class.IntArg* %10, i64 0, i32 1, !dbg !6764
  br i1 %76, label %79, label %78, !dbg !6788

78:                                               ; preds = %58
  store i32 22, i32* %77, align 4, !dbg !6789, !tbaa !6790
  br label %81, !dbg !6791

79:                                               ; preds = %58
  %80 = load i32, i32* %77, align 4, !dbg !6793, !tbaa !6790
  switch i32 %80, label %81 [
    i32 0, label %82
    i32 34, label %82
  ], !dbg !6791

81:                                               ; preds = %79, %78
  call void (%class.ArgContext*, i8*, ...) @_ZNK10ArgContext5errorEPKcz(%class.ArgContext* nonnull @blank_args, i8* getelementptr inbounds ([15 x i8], [15 x i8]* @.str.50, i64 0, i64 0)), !dbg !6794
  call void @llvm.lifetime.end.p0i8(i64 4, i8* nonnull %63) #14, !dbg !6796
  br label %86, !dbg !6797

82:                                               ; preds = %79, %79
  call void @llvm.dbg.value(metadata i32* %70, metadata !6798, metadata !DIExpression()), !dbg !6807
  call void @llvm.dbg.value(metadata i32* %70, metadata !6809, metadata !DIExpression()), !dbg !6818
  %83 = load i32, i32* %70, align 4, !dbg !6820, !tbaa !5084
  call void @llvm.lifetime.end.p0i8(i64 4, i8* nonnull %63) #14, !dbg !6796
  switch i32 %80, label %86 [
    i32 34, label %84
    i32 0, label %88
  ], !dbg !6821

84:                                               ; preds = %82
  %85 = sext i32 %83 to i64, !dbg !6822
  call void @_ZN6IntArg11range_errorERK10ArgContextbx(%class.IntArg* nonnull %10, %class.ArgContext* nonnull dereferenceable(32) @blank_args, i1 zeroext true, i64 %85), !dbg !6825
  br label %86, !dbg !6826

86:                                               ; preds = %84, %82, %81
  call void @llvm.lifetime.end.p0i8(i64 8, i8* nonnull %59) #14, !dbg !6827
  %87 = call i32 (%class.ErrorHandler*, i8*, ...) @_ZN12ErrorHandler5errorEPKcz(%class.ErrorHandler* %3, i8* getelementptr inbounds ([26 x i8], [26 x i8]* @.str.28, i64 0, i64 0)), !dbg !6828
  br label %175, !dbg !6829

88:                                               ; preds = %82
  store i32 %83, i32* %62, align 4, !dbg !6830, !tbaa !5084
  call void @llvm.lifetime.end.p0i8(i64 8, i8* nonnull %59) #14, !dbg !6827
  %89 = getelementptr inbounds %class.ICMPPingSource, %class.ICMPPingSource* %12, i64 0, i32 3, !dbg !6832
  %90 = load i32, i32* %89, align 4, !dbg !6832, !tbaa !5447
  %91 = icmp slt i32 %90, %83, !dbg !6834
  %92 = icmp slt i32 %83, 0, !dbg !6835
  %93 = or i1 %92, %91, !dbg !6836
  br i1 %93, label %94, label %175, !dbg !6836

94:                                               ; preds = %88
  %95 = getelementptr inbounds %class.Element, %class.Element* %1, i64 1, i32 4, !dbg !6837
  %96 = bitcast %class.Router** %95 to i8*, !dbg !6837
  %97 = load i8, i8* %96, align 8, !dbg !6837, !tbaa !5160, !range !5235
  %98 = icmp eq i8 %97, 0, !dbg !6837
  br i1 %98, label %175, label %99, !dbg !6838

99:                                               ; preds = %94
  %100 = getelementptr inbounds %class.Element, %class.Element* %1, i64 1, i32 2, !dbg !6839
  %101 = bitcast [4 x %"class.Element::Port"]* %100 to %class.Timer*, !dbg !6839
  call void @llvm.dbg.value(metadata %class.Timer* %101, metadata !5097, metadata !DIExpression()), !dbg !6840
  %102 = bitcast [4 x %"class.Element::Port"]* %100 to i32*, !dbg !6842
  %103 = load i32, i32* %102, align 8, !dbg !6842, !tbaa !5106
  %104 = icmp eq i32 %103, 0, !dbg !6843
  br i1 %104, label %105, label %175, !dbg !6844

105:                                              ; preds = %99
  call void @llvm.dbg.value(metadata %class.Element* %1, metadata !5457, metadata !DIExpression()), !dbg !6845
  call void @llvm.dbg.value(metadata i32 0, metadata !5461, metadata !DIExpression()), !dbg !6845
  call void @llvm.dbg.value(metadata %class.Element* %1, metadata !5464, metadata !DIExpression()), !dbg !6847
  call void @llvm.dbg.value(metadata i1 true, metadata !5470, metadata !DIExpression()), !dbg !6847
  call void @llvm.dbg.value(metadata i32 0, metadata !5471, metadata !DIExpression()), !dbg !6847
  call void @llvm.dbg.value(metadata %class.Element* %1, metadata !5365, metadata !DIExpression()), !dbg !6849
  call void @llvm.dbg.value(metadata i1 true, metadata !5371, metadata !DIExpression()), !dbg !6849
  %106 = getelementptr inbounds %class.Element, %class.Element* %1, i64 0, i32 3, i64 1, !dbg !6851
  %107 = load i32, i32* %106, align 4, !dbg !6851, !tbaa !5084
  %108 = icmp eq i32 %107, 0, !dbg !6852
  br i1 %108, label %175, label %109, !dbg !6853

109:                                              ; preds = %105
  %110 = getelementptr inbounds %class.Element, %class.Element* %1, i64 0, i32 1, i64 1, !dbg !6854
  %111 = load %"class.Element::Port"*, %"class.Element::Port"** %110, align 8, !dbg !6854, !tbaa !5154
  call void @llvm.dbg.value(metadata %"class.Element::Port"* undef, metadata !5378, metadata !DIExpression()), !dbg !6855
  %112 = getelementptr inbounds %"class.Element::Port", %"class.Element::Port"* %111, i64 0, i32 1, !dbg !6857
  %113 = load i32, i32* %112, align 8, !dbg !6857, !tbaa !5416
  %114 = icmp sgt i32 %113, -1, !dbg !6858
  br i1 %114, label %115, label %175, !dbg !6859

115:                                              ; preds = %109
  %116 = getelementptr inbounds %class.Element, %class.Element* %1, i64 1, i32 1, i64 1, !dbg !6860
  %117 = bitcast %"class.Element::Port"** %116 to i32*, !dbg !6860
  %118 = load i32, i32* %117, align 8, !dbg !6860, !tbaa !5130
  call void @llvm.dbg.value(metadata %class.Timer* %101, metadata !5486, metadata !DIExpression()), !dbg !6861
  call void @llvm.dbg.value(metadata i32 %118, metadata !5489, metadata !DIExpression()), !dbg !6861
  %119 = bitcast %class.Timestamp* %8 to i8*, !dbg !6863
  call void @llvm.lifetime.start.p0i8(i64 8, i8* nonnull %119) #14, !dbg !6863
  %120 = zext i32 %118 to i64, !dbg !6864
  call void @llvm.dbg.value(metadata i64 %120, metadata !5494, metadata !DIExpression()), !dbg !6865
  %121 = mul nuw nsw i64 %120, 1000000, !dbg !6867
  call void @llvm.dbg.value(metadata i64 %121, metadata !5497, metadata !DIExpression()), !dbg !6865
  %122 = getelementptr inbounds %class.Timestamp, %class.Timestamp* %8, i64 0, i32 0, i32 0, !dbg !6863
  store i64 %121, i64* %122, align 8, !dbg !6863
  call void @_ZN5Timer14schedule_afterERK9Timestamp(%class.Timer* nonnull %101, %class.Timestamp* nonnull dereferenceable(8) %8), !dbg !6868
  call void @llvm.lifetime.end.p0i8(i64 8, i8* nonnull %119) #14, !dbg !6868
  br label %175, !dbg !6869

123:                                              ; preds = %4
  %124 = bitcast %class.SecondsArg* %11 to i8*, !dbg !6870
  call void @llvm.lifetime.start.p0i8(i64 8, i8* nonnull %124) #14, !dbg !6870
  call void @llvm.dbg.value(metadata %class.SecondsArg* %11, metadata !6872, metadata !DIExpression()), !dbg !6877
  call void @llvm.dbg.value(metadata i32 3, metadata !6875, metadata !DIExpression()), !dbg !6877
  %125 = getelementptr inbounds %class.SecondsArg, %class.SecondsArg* %11, i64 0, i32 0, !dbg !6879
  store i32 3, i32* %125, align 4, !dbg !6879, !tbaa !6880
  %126 = getelementptr inbounds %class.Element, %class.Element* %1, i64 1, i32 1, i64 1, !dbg !6882
  %127 = bitcast %"class.Element::Port"** %126 to i32*, !dbg !6882
  %128 = call zeroext i1 @_ZN10SecondsArg16parse_saturatingERK6StringRjRK10ArgContext(%class.SecondsArg* nonnull %11, %class.String* nonnull dereferenceable(24) %0, i32* nonnull dereferenceable(4) %127, %class.ArgContext* nonnull dereferenceable(32) @blank_args), !dbg !6883
  call void @llvm.lifetime.end.p0i8(i64 8, i8* nonnull %124) #14, !dbg !6884
  br i1 %128, label %175, label %129, !dbg !6885

129:                                              ; preds = %123
  %130 = call i32 (%class.ErrorHandler*, i8*, ...) @_ZN12ErrorHandler5errorEPKcz(%class.ErrorHandler* %3, i8* getelementptr inbounds ([33 x i8], [33 x i8]* @.str.29, i64 0, i64 0)), !dbg !6886
  br label %175, !dbg !6887

131:                                              ; preds = %4
  %132 = getelementptr inbounds %class.ICMPPingSource, %class.ICMPPingSource* %12, i64 0, i32 3, !dbg !6888
  store i32 0, i32* %132, align 4, !dbg !6889, !tbaa !5447
  %133 = getelementptr inbounds %class.Element, %class.Element* %1, i64 1, i32 5, !dbg !6890
  %134 = bitcast i32* %133 to %"struct.ICMPPingSource::ReceiverInfo"**, !dbg !6890
  %135 = load %"struct.ICMPPingSource::ReceiverInfo"*, %"struct.ICMPPingSource::ReceiverInfo"** %134, align 8, !dbg !6890, !tbaa !5048
  call void @llvm.dbg.value(metadata %"struct.ICMPPingSource::ReceiverInfo"* %135, metadata !6640, metadata !DIExpression()), !dbg !6891
  %136 = icmp eq %"struct.ICMPPingSource::ReceiverInfo"* %135, null, !dbg !6892
  br i1 %136, label %140, label %137, !dbg !6893

137:                                              ; preds = %131
  %138 = bitcast %"struct.ICMPPingSource::ReceiverInfo"* %135 to i8*, !dbg !6894
  tail call void @llvm.memset.p0i8.i64(i8* nonnull align 8 dereferenceable(524320) %138, i8 0, i64 524320, i1 false), !dbg !6894
  %139 = load i32, i32* %132, align 4, !dbg !6895, !tbaa !5447
  br label %140, !dbg !6894

140:                                              ; preds = %131, %137
  %141 = phi i32 [ 0, %131 ], [ %139, %137 ], !dbg !6895
  %142 = getelementptr inbounds %class.Element, %class.Element* %1, i64 1, i32 1, !dbg !6897
  %143 = bitcast [2 x %"class.Element::Port"*]* %142 to i32*, !dbg !6897
  %144 = load i32, i32* %143, align 8, !dbg !6897, !tbaa !5010
  %145 = icmp slt i32 %141, %144, !dbg !6898
  br i1 %145, label %146, label %175, !dbg !6899

146:                                              ; preds = %140
  %147 = getelementptr inbounds %class.Element, %class.Element* %1, i64 1, i32 4, !dbg !6900
  %148 = bitcast %class.Router** %147 to i8*, !dbg !6900
  %149 = load i8, i8* %148, align 8, !dbg !6900, !tbaa !5160, !range !5235
  %150 = icmp eq i8 %149, 0, !dbg !6900
  br i1 %150, label %175, label %151, !dbg !6901

151:                                              ; preds = %146
  %152 = getelementptr inbounds %class.Element, %class.Element* %1, i64 1, i32 2, !dbg !6902
  %153 = bitcast [4 x %"class.Element::Port"]* %152 to %class.Timer*, !dbg !6902
  call void @llvm.dbg.value(metadata %class.Timer* %153, metadata !5097, metadata !DIExpression()), !dbg !6903
  %154 = bitcast [4 x %"class.Element::Port"]* %152 to i32*, !dbg !6905
  %155 = load i32, i32* %154, align 8, !dbg !6905, !tbaa !5106
  %156 = icmp eq i32 %155, 0, !dbg !6906
  br i1 %156, label %157, label %175, !dbg !6907

157:                                              ; preds = %151
  call void @llvm.dbg.value(metadata %class.Element* %1, metadata !5457, metadata !DIExpression()), !dbg !6908
  call void @llvm.dbg.value(metadata i32 0, metadata !5461, metadata !DIExpression()), !dbg !6908
  call void @llvm.dbg.value(metadata %class.Element* %1, metadata !5464, metadata !DIExpression()), !dbg !6910
  call void @llvm.dbg.value(metadata i1 true, metadata !5470, metadata !DIExpression()), !dbg !6910
  call void @llvm.dbg.value(metadata i32 0, metadata !5471, metadata !DIExpression()), !dbg !6910
  call void @llvm.dbg.value(metadata %class.Element* %1, metadata !5365, metadata !DIExpression()), !dbg !6912
  call void @llvm.dbg.value(metadata i1 true, metadata !5371, metadata !DIExpression()), !dbg !6912
  %158 = getelementptr inbounds %class.Element, %class.Element* %1, i64 0, i32 3, i64 1, !dbg !6914
  %159 = load i32, i32* %158, align 4, !dbg !6914, !tbaa !5084
  %160 = icmp eq i32 %159, 0, !dbg !6915
  br i1 %160, label %175, label %161, !dbg !6916

161:                                              ; preds = %157
  %162 = getelementptr inbounds %class.Element, %class.Element* %1, i64 0, i32 1, i64 1, !dbg !6917
  %163 = load %"class.Element::Port"*, %"class.Element::Port"** %162, align 8, !dbg !6917, !tbaa !5154
  call void @llvm.dbg.value(metadata %"class.Element::Port"* undef, metadata !5378, metadata !DIExpression()), !dbg !6918
  %164 = getelementptr inbounds %"class.Element::Port", %"class.Element::Port"* %163, i64 0, i32 1, !dbg !6920
  %165 = load i32, i32* %164, align 8, !dbg !6920, !tbaa !5416
  %166 = icmp sgt i32 %165, -1, !dbg !6921
  br i1 %166, label %167, label %175, !dbg !6922

167:                                              ; preds = %161
  %168 = getelementptr inbounds %class.Element, %class.Element* %1, i64 1, i32 1, i64 1, !dbg !6923
  %169 = bitcast %"class.Element::Port"** %168 to i32*, !dbg !6923
  %170 = load i32, i32* %169, align 8, !dbg !6923, !tbaa !5130
  call void @llvm.dbg.value(metadata %class.Timer* %153, metadata !5486, metadata !DIExpression()), !dbg !6924
  call void @llvm.dbg.value(metadata i32 %170, metadata !5489, metadata !DIExpression()), !dbg !6924
  %171 = bitcast %class.Timestamp* %9 to i8*, !dbg !6926
  call void @llvm.lifetime.start.p0i8(i64 8, i8* nonnull %171) #14, !dbg !6926
  %172 = zext i32 %170 to i64, !dbg !6927
  call void @llvm.dbg.value(metadata i64 %172, metadata !5494, metadata !DIExpression()), !dbg !6928
  %173 = mul nuw nsw i64 %172, 1000000, !dbg !6930
  call void @llvm.dbg.value(metadata i64 %173, metadata !5497, metadata !DIExpression()), !dbg !6928
  %174 = getelementptr inbounds %class.Timestamp, %class.Timestamp* %9, i64 0, i32 0, i32 0, !dbg !6926
  store i64 %173, i64* %174, align 8, !dbg !6926
  call void @_ZN5Timer14schedule_afterERK9Timestamp(%class.Timer* nonnull %153, %class.Timestamp* nonnull dereferenceable(8) %9), !dbg !6931
  call void @llvm.lifetime.end.p0i8(i64 8, i8* nonnull %171) #14, !dbg !6931
  br label %175, !dbg !6932

175:                                              ; preds = %29, %25, %105, %99, %157, %151, %33, %4, %140, %161, %167, %146, %123, %109, %115, %94, %88, %52, %46, %39, %45, %129, %86, %56, %50, %18
  %176 = phi i32 [ %130, %129 ], [ %87, %86 ], [ %57, %56 ], [ %51, %50 ], [ %19, %18 ], [ 0, %45 ], [ 0, %39 ], [ 0, %46 ], [ 0, %52 ], [ 0, %88 ], [ 0, %94 ], [ 0, %115 ], [ 0, %109 ], [ 0, %99 ], [ 0, %123 ], [ 0, %146 ], [ 0, %167 ], [ 0, %161 ], [ 0, %151 ], [ 0, %140 ], [ -1, %4 ], [ 0, %33 ], [ 0, %25 ], [ 0, %29 ], [ 0, %105 ], [ 0, %157 ], !dbg !6933
  ret i32 %176, !dbg !6934
}

declare zeroext i1 @_ZN7BoolArg5parseERK6StringRbRK10ArgContext(%class.String* dereferenceable(24), i8* dereferenceable(1), %class.ArgContext* dereferenceable(32)) local_unnamed_addr #2

declare void @_ZN5Timer10unscheduleEv(%class.Timer*) local_unnamed_addr #2

declare zeroext i1 @_ZN10SecondsArg16parse_saturatingERK6StringRjRK10ArgContext(%class.SecondsArg*, %class.String* dereferenceable(24), i32* dereferenceable(4), %class.ArgContext* dereferenceable(32)) local_unnamed_addr #2

; Function Attrs: sspstrong uwtable
define dso_local void @_ZN14ICMPPingSource12add_handlersEv(%class.ICMPPingSource* %0) unnamed_addr #0 align 2 !dbg !6935 {
  call void @llvm.dbg.value(metadata %class.ICMPPingSource* %0, metadata !6937, metadata !DIExpression()), !dbg !6938
  %2 = bitcast %class.ICMPPingSource* %0 to %class.Element*, !dbg !6939
  tail call void @_ZN7Element16add_read_handlerEPKcPF6StringPS_PvEij(%class.Element* %2, i8* getelementptr inbounds ([7 x i8], [7 x i8]* @.str.30, i64 0, i64 0), void (%class.String*, %class.Element*, i8*)* nonnull @_ZN14ICMPPingSource12read_handlerEP7ElementPv, i32 0, i32 16384), !dbg !6939
  tail call void @_ZN7Element17add_write_handlerEPKcPFiRK6StringPS_PvP12ErrorHandlerEij(%class.Element* %2, i8* getelementptr inbounds ([7 x i8], [7 x i8]* @.str.30, i64 0, i64 0), i32 (%class.String*, %class.Element*, i8*, %class.ErrorHandler*)* nonnull @_ZN14ICMPPingSource13write_handlerERK6StringP7ElementPvP12ErrorHandler, i32 0, i32 0), !dbg !6940
  tail call void @_ZN7Element16add_read_handlerEPKcPF6StringPS_PvEij(%class.Element* %2, i8* getelementptr inbounds ([4 x i8], [4 x i8]* @.str.31, i64 0, i64 0), void (%class.String*, %class.Element*, i8*)* nonnull @_ZN14ICMPPingSource12read_handlerEP7ElementPv, i32 9, i32 2048), !dbg !6941
  tail call void @_ZN7Element17add_write_handlerEPKcPFiRK6StringPS_PvP12ErrorHandlerEij(%class.Element* %2, i8* getelementptr inbounds ([4 x i8], [4 x i8]* @.str.31, i64 0, i64 0), i32 (%class.String*, %class.Element*, i8*, %class.ErrorHandler*)* nonnull @_ZN14ICMPPingSource13write_handlerERK6StringP7ElementPvP12ErrorHandler, i32 9, i32 0), !dbg !6942
  tail call void @_ZN7Element16add_read_handlerEPKcPF6StringPS_PvEij(%class.Element* %2, i8* getelementptr inbounds ([4 x i8], [4 x i8]* @.str.32, i64 0, i64 0), void (%class.String*, %class.Element*, i8*)* nonnull @_ZN14ICMPPingSource12read_handlerEP7ElementPv, i32 10, i32 2048), !dbg !6943
  tail call void @_ZN7Element17add_write_handlerEPKcPFiRK6StringPS_PvP12ErrorHandlerEij(%class.Element* %2, i8* getelementptr inbounds ([4 x i8], [4 x i8]* @.str.32, i64 0, i64 0), i32 (%class.String*, %class.Element*, i8*, %class.ErrorHandler*)* nonnull @_ZN14ICMPPingSource13write_handlerERK6StringP7ElementPvP12ErrorHandler, i32 10, i32 0), !dbg !6944
  tail call void @_ZN7Element16add_read_handlerEPKcPF6StringPS_PvEij(%class.Element* %2, i8* getelementptr inbounds ([6 x i8], [6 x i8]* @.str.33, i64 0, i64 0), void (%class.String*, %class.Element*, i8*)* nonnull @_ZN14ICMPPingSource12read_handlerEP7ElementPv, i32 4, i32 0), !dbg !6945
  tail call void @_ZN7Element17add_write_handlerEPKcPFiRK6StringPS_PvP12ErrorHandlerEij(%class.Element* %2, i8* getelementptr inbounds ([6 x i8], [6 x i8]* @.str.34, i64 0, i64 0), i32 (%class.String*, %class.Element*, i8*, %class.ErrorHandler*)* nonnull @_ZN14ICMPPingSource13write_handlerERK6StringP7ElementPvP12ErrorHandler, i32 1, i32 2048), !dbg !6946
  tail call void @_ZN7Element17add_write_handlerEPKcPFiRK6StringPS_PvP12ErrorHandlerEij(%class.Element* %2, i8* getelementptr inbounds ([9 x i8], [9 x i8]* @.str.35, i64 0, i64 0), i32 (%class.String*, %class.Element*, i8*, %class.ErrorHandler*)* nonnull @_ZN14ICMPPingSource13write_handlerERK6StringP7ElementPvP12ErrorHandler, i32 2, i32 0), !dbg !6947
  tail call void @_ZN7Element17add_write_handlerEPKcPFiRK6StringPS_PvP12ErrorHandlerEij(%class.Element* %2, i8* getelementptr inbounds ([13 x i8], [13 x i8]* @.str.36, i64 0, i64 0), i32 (%class.String*, %class.Element*, i8*, %class.ErrorHandler*)* nonnull @_ZN14ICMPPingSource13write_handlerERK6StringP7ElementPvP12ErrorHandler, i32 3, i32 8192), !dbg !6948
  call void @llvm.dbg.value(metadata %class.Element* %2, metadata !5503, metadata !DIExpression()), !dbg !6949
  %3 = getelementptr inbounds %class.ICMPPingSource, %class.ICMPPingSource* %0, i64 0, i32 0, i32 3, i64 0, !dbg !6952
  %4 = load i32, i32* %3, align 8, !dbg !6952, !tbaa !5084
  %5 = icmp sgt i32 %4, 0, !dbg !6953
  br i1 %5, label %6, label %7, !dbg !6954

6:                                                ; preds = %1
  tail call void @_ZN7Element16add_read_handlerEPKcPF6StringPS_PvEij(%class.Element* %2, i8* getelementptr inbounds ([8 x i8], [8 x i8]* @.str.16, i64 0, i64 0), void (%class.String*, %class.Element*, i8*)* nonnull @_ZN14ICMPPingSource12read_handlerEP7ElementPv, i32 5, i32 0), !dbg !6955
  tail call void @_ZN7Element16add_read_handlerEPKcPF6StringPS_PvEij(%class.Element* %2, i8* getelementptr inbounds ([8 x i8], [8 x i8]* @.str.37, i64 0, i64 0), void (%class.String*, %class.Element*, i8*)* nonnull @_ZN14ICMPPingSource12read_handlerEP7ElementPv, i32 6, i32 0), !dbg !6957
  tail call void @_ZN7Element16add_read_handlerEPKcPF6StringPS_PvEij(%class.Element* %2, i8* getelementptr inbounds ([8 x i8], [8 x i8]* @.str.38, i64 0, i64 0), void (%class.String*, %class.Element*, i8*)* nonnull @_ZN14ICMPPingSource12read_handlerEP7ElementPv, i32 7, i32 0), !dbg !6958
  tail call void @_ZN7Element16add_read_handlerEPKcPF6StringPS_PvEij(%class.Element* %2, i8* getelementptr inbounds ([8 x i8], [8 x i8]* @.str.39, i64 0, i64 0), void (%class.String*, %class.Element*, i8*)* nonnull @_ZN14ICMPPingSource12read_handlerEP7ElementPv, i32 8, i32 0), !dbg !6959
  br label %7, !dbg !6960

7:                                                ; preds = %6, %1
  ret void, !dbg !6961
}

declare void @_ZN7Element16add_read_handlerEPKcPF6StringPS_PvEij(%class.Element*, i8*, void (%class.String*, %class.Element*, i8*)*, i32, i32) local_unnamed_addr #2

declare void @_ZN7Element17add_write_handlerEPKcPFiRK6StringPS_PvP12ErrorHandlerEij(%class.Element*, i8*, i32 (%class.String*, %class.Element*, i8*, %class.ErrorHandler*)*, i32, i32) local_unnamed_addr #2

declare %class.Packet* @_ZN7Element13simple_actionEP6Packet(%class.Element*, %class.Packet*) unnamed_addr #2

declare zeroext i1 @_ZN7Element8run_taskEP4Task(%class.Element*, %class.Task*) unnamed_addr #2

declare void @_ZN7Element8selectedEii(%class.Element*, i32, i32) unnamed_addr #2

declare void @_ZN7Element8selectedEi(%class.Element*, i32) unnamed_addr #2

; Function Attrs: nounwind sspstrong uwtable
define linkonce_odr dso_local i8* @_ZNK14ICMPPingSource10class_nameEv(%class.ICMPPingSource* %0) unnamed_addr #4 comdat align 2 !dbg !6962 {
  call void @llvm.dbg.value(metadata %class.ICMPPingSource* %0, metadata !6964, metadata !DIExpression()), !dbg !6966
  ret i8* getelementptr inbounds ([15 x i8], [15 x i8]* @.str.47, i64 0, i64 0), !dbg !6967
}

; Function Attrs: nounwind sspstrong uwtable
define linkonce_odr dso_local i8* @_ZNK14ICMPPingSource10port_countEv(%class.ICMPPingSource* %0) unnamed_addr #4 comdat align 2 !dbg !6968 {
  call void @llvm.dbg.value(metadata %class.ICMPPingSource* %0, metadata !6970, metadata !DIExpression()), !dbg !6971
  ret i8* getelementptr inbounds ([6 x i8], [6 x i8]* @.str.48, i64 0, i64 0), !dbg !6972
}

; Function Attrs: nounwind sspstrong uwtable
define linkonce_odr dso_local i8* @_ZNK14ICMPPingSource10processingEv(%class.ICMPPingSource* %0) unnamed_addr #4 comdat align 2 !dbg !6973 {
  call void @llvm.dbg.value(metadata %class.ICMPPingSource* %0, metadata !6975, metadata !DIExpression()), !dbg !6976
  ret i8* getelementptr inbounds ([4 x i8], [4 x i8]* @.str.49, i64 0, i64 0), !dbg !6977
}

declare i8* @_ZNK7Element9flow_codeEv(%class.Element*) unnamed_addr #2

declare i8* @_ZNK7Element5flagsEv(%class.Element*) unnamed_addr #2

declare i8* @_ZN7Element4castEPKc(%class.Element*, i8*) unnamed_addr #2

declare i8* @_ZN7Element9port_castEbiPKc(%class.Element*, i1 zeroext, i32, i8*) unnamed_addr #2

declare i32 @_ZNK7Element15configure_phaseEv(%class.Element*) unnamed_addr #2

declare void @_ZN7Element10take_stateEPS_P12ErrorHandler(%class.Element*, %class.Element*, %class.ErrorHandler*) unnamed_addr #2

declare %class.Element* @_ZNK7Element15hotswap_elementEv(%class.Element*) unnamed_addr #2

declare void @_ZNK7Element11declarationEv(%class.String* sret, %class.Element*) unnamed_addr #2

declare zeroext i1 @_ZNK7Element20can_live_reconfigureEv(%class.Element*) unnamed_addr #2

declare i32 @_ZN7Element16live_reconfigureER6VectorI6StringEP12ErrorHandler(%class.Element*, %class.Vector.0* dereferenceable(16), %class.ErrorHandler*) unnamed_addr #2

declare i32 @_ZN7Element5llrpcEjPv(%class.Element*, i32, i8*) unnamed_addr #2

; Function Attrs: noinline noreturn nounwind
define linkonce_odr hidden void @__clang_call_terminate(i8* %0) local_unnamed_addr #10 comdat {
  %2 = tail call i8* @__cxa_begin_catch(i8* %0) #14
  tail call void @_ZSt9terminatev() #15
  unreachable
}

declare i8* @__cxa_begin_catch(i8*) local_unnamed_addr

declare void @_ZSt9terminatev() local_unnamed_addr

; Function Attrs: noreturn nounwind
declare void @__assert_fail(i8*, i8*, i32, i8*) local_unnamed_addr #11

declare void @_ZN6String11delete_memoEPNS_6memo_tE(%"struct.String::memo_t"*) local_unnamed_addr #2

declare void @_ZN5Timer14schedule_afterERK9Timestamp(%class.Timer*, %class.Timestamp* dereferenceable(8)) local_unnamed_addr #2

declare void @_ZN6String6appendEPKciPNS_6memo_tE(%class.String*, i8*, i32, %"struct.String::memo_t"*) local_unnamed_addr #2

declare %class.WritablePacket* @_ZN6Packet4makeEjPKvjj(i32, i8*, i32, i32) local_unnamed_addr #2

declare void @_ZN9Timestamp10assign_nowEbbb(%class.Timestamp*, i1 zeroext, i1 zeroext, i1 zeroext) local_unnamed_addr #2

declare void @_ZN6Router15adjust_runcountEi(%class.Router*, i32) local_unnamed_addr #2

; Function Attrs: noinline nounwind optnone sspstrong uwtable
define linkonce_odr dso_local dereferenceable(16) %"class.Element::Port"* @_ZNK7Element4portEbi(%class.Element* %0, i1 zeroext %1, i32 %2) local_unnamed_addr #12 comdat align 2 !dbg !6978 {
  %4 = alloca %class.Element*, align 8
  %5 = alloca i8, align 1
  %6 = alloca i32, align 4
  store %class.Element* %0, %class.Element** %4, align 8, !tbaa !5154
  call void @llvm.dbg.declare(metadata %class.Element** %4, metadata !6983, metadata !DIExpression()), !dbg !6986
  %7 = zext i1 %1 to i8
  store i8 %7, i8* %5, align 1, !tbaa !6987
  call void @llvm.dbg.declare(metadata i8* %5, metadata !6984, metadata !DIExpression()), !dbg !6988
  store i32 %2, i32* %6, align 4, !tbaa !5084
  call void @llvm.dbg.declare(metadata i32* %6, metadata !6985, metadata !DIExpression()), !dbg !6989
  %8 = load %class.Element*, %class.Element** %4, align 8
  %9 = load i32, i32* %6, align 4, !dbg !6990, !tbaa !5084
  %10 = getelementptr inbounds %class.Element, %class.Element* %8, i32 0, i32 3, !dbg !6990
  %11 = load i8, i8* %5, align 1, !dbg !6990, !tbaa !6987, !range !5235
  %12 = trunc i8 %11 to i1, !dbg !6990
  %13 = zext i1 %12 to i64, !dbg !6990
  %14 = getelementptr inbounds [2 x i32], [2 x i32]* %10, i64 0, i64 %13, !dbg !6990
  %15 = load i32, i32* %14, align 4, !dbg !6990, !tbaa !5084
  %16 = icmp ult i32 %9, %15, !dbg !6990
  br i1 %16, label %17, label %18, !dbg !6990

17:                                               ; preds = %3
  br label %19, !dbg !6990

18:                                               ; preds = %3
  call void @__assert_fail(i8* getelementptr inbounds ([47 x i8], [47 x i8]* @.str.42, i64 0, i64 0), i8* getelementptr inbounds ([30 x i8], [30 x i8]* @.str.43, i64 0, i64 0), i32 437, i8* getelementptr inbounds ([52 x i8], [52 x i8]* @__PRETTY_FUNCTION__._ZNK7Element4portEbi, i64 0, i64 0)) #15, !dbg !6990
  unreachable, !dbg !6990

19:                                               ; preds = %17
  %20 = getelementptr inbounds %class.Element, %class.Element* %8, i32 0, i32 1, !dbg !6991
  %21 = load i8, i8* %5, align 1, !dbg !6992, !tbaa !6987, !range !5235
  %22 = trunc i8 %21 to i1, !dbg !6992
  %23 = zext i1 %22 to i64, !dbg !6991
  %24 = getelementptr inbounds [2 x %"class.Element::Port"*], [2 x %"class.Element::Port"*]* %20, i64 0, i64 %23, !dbg !6991
  %25 = load %"class.Element::Port"*, %"class.Element::Port"** %24, align 8, !dbg !6991, !tbaa !5154
  %26 = load i32, i32* %6, align 4, !dbg !6993, !tbaa !5084
  %27 = sext i32 %26 to i64, !dbg !6991
  %28 = getelementptr inbounds %"class.Element::Port", %"class.Element::Port"* %25, i64 %27, !dbg !6991
  ret %"class.Element::Port"* %28, !dbg !6994
}

declare void @_ZN5Timer18schedule_at_steadyERK9Timestamp(%class.Timer*, %class.Timestamp* dereferenceable(8)) local_unnamed_addr #2

declare i8* @_ZNK6Packet16transport_headerEv(%class.Packet*) local_unnamed_addr #2

; Function Attrs: inlinehint sspstrong uwtable
define linkonce_odr dso_local i32 @_ZNK9Timestamp3secEv(%class.Timestamp* %0) #13 comdat align 2 !dbg !6995 {
  call void @llvm.dbg.value(metadata %class.Timestamp* %0, metadata !6997, metadata !DIExpression()), !dbg !6998
  %2 = getelementptr inbounds %class.Timestamp, %class.Timestamp* %0, i64 0, i32 0, i32 0, !dbg !6999
  %3 = load i64, i64* %2, align 8, !dbg !6999, !tbaa !6098
  %4 = icmp slt i64 %3, 0, !dbg !6999
  br i1 %4, label %5, label %9, !dbg !7001, !prof !7002, !misexpect !7003

5:                                                ; preds = %1
  %6 = xor i64 %3, -1, !dbg !7004
  call void @llvm.dbg.value(metadata i64 %6, metadata !6157, metadata !DIExpression()), !dbg !7005
  call void @llvm.dbg.value(metadata i32 1000000000, metadata !6160, metadata !DIExpression()), !dbg !7005
  call void @llvm.dbg.value(metadata i64 %6, metadata !6163, metadata !DIExpression()), !dbg !7007
  call void @llvm.dbg.value(metadata i32 1000000000, metadata !6168, metadata !DIExpression()), !dbg !7007
  %7 = sdiv i64 %6, 1000000000, !dbg !7009
  %8 = xor i64 %7, -1, !dbg !7010
  br label %11, !dbg !7011

9:                                                ; preds = %1
  call void @llvm.dbg.value(metadata i64 %3, metadata !6157, metadata !DIExpression()), !dbg !7012
  call void @llvm.dbg.value(metadata i32 1000000000, metadata !6160, metadata !DIExpression()), !dbg !7012
  call void @llvm.dbg.value(metadata i64 %3, metadata !6163, metadata !DIExpression()), !dbg !7014
  call void @llvm.dbg.value(metadata i32 1000000000, metadata !6168, metadata !DIExpression()), !dbg !7014
  %10 = udiv i64 %3, 1000000000, !dbg !7016
  br label %11, !dbg !7017

11:                                               ; preds = %9, %5
  %12 = phi i64 [ %8, %5 ], [ %10, %9 ]
  %13 = trunc i64 %12 to i32, !dbg !7018
  ret i32 %13, !dbg !7019
}

declare void @_ZN11StringAccum11hard_appendEPKci(%class.StringAccum*, i8*, i32) local_unnamed_addr #2

declare !dbg !4157 dereferenceable(16) %class.StringAccum* @_ZlsR11StringAccuml(%class.StringAccum* dereferenceable(16), i64) local_unnamed_addr #2

; Function Attrs: nobuiltin nounwind
declare void @_ZdaPv(i8*) local_unnamed_addr #5

declare zeroext i1 @_ZN12IPAddressArg5parseERK6StringR9IPAddressRK10ArgContext(%class.String* dereferenceable(24), %class.IPAddress* dereferenceable(4), %class.ArgContext* dereferenceable(32)) local_unnamed_addr #2

; Function Attrs: noinline optnone sspstrong uwtable
define linkonce_odr dso_local void @_Z14args_base_readI7in_addrEvP4ArgsPKciRT_(%class.Args* %0, i8* %1, i32 %2, %struct.in_addr* dereferenceable(4) %3) local_unnamed_addr #9 comdat !dbg !7020 {
  %5 = alloca %class.Args*, align 8
  %6 = alloca i8*, align 8
  %7 = alloca i32, align 4
  %8 = alloca %struct.in_addr*, align 8
  store %class.Args* %0, %class.Args** %5, align 8, !tbaa !5154
  call void @llvm.dbg.declare(metadata %class.Args** %5, metadata !7022, metadata !DIExpression()), !dbg !7026
  store i8* %1, i8** %6, align 8, !tbaa !5154
  call void @llvm.dbg.declare(metadata i8** %6, metadata !7023, metadata !DIExpression()), !dbg !7027
  store i32 %2, i32* %7, align 4, !tbaa !5084
  call void @llvm.dbg.declare(metadata i32* %7, metadata !7024, metadata !DIExpression()), !dbg !7028
  store %struct.in_addr* %3, %struct.in_addr** %8, align 8, !tbaa !5154
  call void @llvm.dbg.declare(metadata %struct.in_addr** %8, metadata !7025, metadata !DIExpression()), !dbg !7029
  %9 = load %class.Args*, %class.Args** %5, align 8, !dbg !7030, !tbaa !5154
  %10 = load i8*, i8** %6, align 8, !dbg !7031, !tbaa !5154
  %11 = load i32, i32* %7, align 4, !dbg !7032, !tbaa !5084
  %12 = load %struct.in_addr*, %struct.in_addr** %8, align 8, !dbg !7033, !tbaa !5154
  call void @_ZN4Args9base_readI7in_addrEEvPKciRT_(%class.Args* %9, i8* %10, i32 %11, %struct.in_addr* dereferenceable(4) %12), !dbg !7034
  ret void, !dbg !7035
}

; Function Attrs: sspstrong uwtable
define linkonce_odr dso_local void @_ZN4Args9base_readI7in_addrEEvPKciRT_(%class.Args* %0, i8* %1, i32 %2, %struct.in_addr* dereferenceable(4) %3) local_unnamed_addr #0 comdat align 2 personality i8* bitcast (i32 (...)* @__gxx_personality_v0 to i8*) !dbg !7036 {
  %5 = alloca %"struct.Args::Slot"*, align 8
  %6 = alloca %class.String, align 8
  call void @llvm.dbg.value(metadata %class.Args* %0, metadata !7041, metadata !DIExpression()), !dbg !7050
  call void @llvm.dbg.value(metadata i8* %1, metadata !7042, metadata !DIExpression()), !dbg !7050
  call void @llvm.dbg.value(metadata i32 %2, metadata !7043, metadata !DIExpression()), !dbg !7050
  call void @llvm.dbg.value(metadata %struct.in_addr* %3, metadata !7044, metadata !DIExpression()), !dbg !7050
  %7 = bitcast %"struct.Args::Slot"** %5 to i8*, !dbg !7051
  call void @llvm.lifetime.start.p0i8(i64 8, i8* nonnull %7) #14, !dbg !7051
  %8 = bitcast %class.String* %6 to i8*, !dbg !7052
  call void @llvm.lifetime.start.p0i8(i64 24, i8* nonnull %8) #14, !dbg !7052
  call void @llvm.dbg.declare(metadata %class.String* %6, metadata !7046, metadata !DIExpression()), !dbg !7053
  call void @llvm.dbg.value(metadata %"struct.Args::Slot"** %5, metadata !7045, metadata !DIExpression(DW_OP_deref)), !dbg !7050
  call void @_ZN4Args4findEPKciRPNS_4SlotE(%class.String* nonnull sret %6, %class.Args* %0, i8* %1, i32 %2, %"struct.Args::Slot"** nonnull dereferenceable(8) %5), !dbg !7054
  call void @llvm.dbg.value(metadata %class.String* %6, metadata !7055, metadata !DIExpression()), !dbg !7058
  %9 = getelementptr inbounds %class.String, %class.String* %6, i64 0, i32 0, i32 1, !dbg !7060
  %10 = load i32, i32* %9, align 8, !dbg !7060, !tbaa !5042
  %11 = icmp eq i32 %10, 0, !dbg !7061
  %12 = select i1 %11, { i64, i64 } zeroinitializer, { i64, i64 } { i64 ptrtoint (i32 (%class.String*)* @_ZNK6String6lengthEv to i64), i64 0 }, !dbg !7062
  %13 = extractvalue { i64, i64 } %12, 0, !dbg !7053
  %14 = icmp eq i64 %13, 0, !dbg !7053
  br i1 %14, label %47, label %15, !dbg !7052

15:                                               ; preds = %4
  call void @llvm.dbg.value(metadata %struct.in_addr* %3, metadata !7063, metadata !DIExpression()), !dbg !7079
  call void @llvm.dbg.value(metadata %class.Args* %0, metadata !7078, metadata !DIExpression()), !dbg !7079
  call void @llvm.dbg.value(metadata %class.Args* %0, metadata !7081, metadata !DIExpression()), !dbg !7088
  call void @llvm.dbg.value(metadata %struct.in_addr* %3, metadata !7087, metadata !DIExpression()), !dbg !7088
  %16 = bitcast %struct.in_addr* %3 to i8*, !dbg !7090
  %17 = invoke i8* @_ZN4Args11simple_slotEPvm(%class.Args* nonnull %0, i8* nonnull %16, i64 4)
          to label %18 unwind label %27, !dbg !7092

18:                                               ; preds = %15
  call void @llvm.dbg.value(metadata i8* %17, metadata !7048, metadata !DIExpression()), !dbg !7093
  %19 = icmp eq i8* %17, null, !dbg !7094
  br i1 %19, label %24, label %20, !dbg !7095

20:                                               ; preds = %18
  call void @llvm.dbg.value(metadata i8* %17, metadata !7048, metadata !DIExpression()), !dbg !7093
  call void @llvm.dbg.value(metadata %class.String* %6, metadata !7096, metadata !DIExpression()), !dbg !7105
  call void @llvm.dbg.value(metadata i8* %17, metadata !7103, metadata !DIExpression()), !dbg !7105
  call void @llvm.dbg.value(metadata %class.Args* %0, metadata !7104, metadata !DIExpression()), !dbg !7105
  %21 = bitcast %class.Args* %0 to %class.ArgContext*, !dbg !7107
  call void @llvm.dbg.value(metadata %class.String* %6, metadata !6715, metadata !DIExpression()), !dbg !7108
  call void @llvm.dbg.value(metadata i8* %17, metadata !6734, metadata !DIExpression()), !dbg !7108
  call void @llvm.dbg.value(metadata %class.ArgContext* %21, metadata !6735, metadata !DIExpression()), !dbg !7108
  %22 = bitcast i8* %17 to %class.IPAddress*, !dbg !7110
  %23 = invoke zeroext i1 @_ZN12IPAddressArg5parseERK6StringR9IPAddressRK10ArgContext(%class.String* nonnull dereferenceable(24) %6, %class.IPAddress* nonnull dereferenceable(4) %22, %class.ArgContext* nonnull dereferenceable(32) %21)
          to label %24 unwind label %27, !dbg !7111

24:                                               ; preds = %20, %18
  %25 = phi i1 [ false, %18 ], [ %23, %20 ], !dbg !7093
  %26 = load %"struct.Args::Slot"*, %"struct.Args::Slot"** %5, align 8, !dbg !7112, !tbaa !5154
  call void @llvm.dbg.value(metadata %"struct.Args::Slot"* %26, metadata !7045, metadata !DIExpression()), !dbg !7050
  invoke void @_ZN4Args9postparseEbPNS_4SlotE(%class.Args* nonnull %0, i1 zeroext %25, %"struct.Args::Slot"* %26)
          to label %47 unwind label %27, !dbg !7113

27:                                               ; preds = %20, %15, %24
  %28 = landingpad { i8*, i32 }
          cleanup, !dbg !7114
  call void @llvm.dbg.value(metadata %class.String* %6, metadata !5057, metadata !DIExpression()) #14, !dbg !7115
  call void @llvm.dbg.value(metadata %class.String* %6, metadata !5063, metadata !DIExpression()) #14, !dbg !7117
  %29 = getelementptr inbounds %class.String, %class.String* %6, i64 0, i32 0, i32 2, !dbg !7119
  %30 = load %"struct.String::memo_t"*, %"struct.String::memo_t"** %29, align 8, !dbg !7119, !tbaa !5046
  %31 = icmp eq %"struct.String::memo_t"* %30, null, !dbg !7120
  br i1 %31, label %46, label %32, !dbg !7121

32:                                               ; preds = %27
  %33 = getelementptr inbounds %"struct.String::memo_t", %"struct.String::memo_t"* %30, i64 0, i32 0, !dbg !7122
  %34 = load volatile i32, i32* %33, align 4, !dbg !7122, !tbaa !5075
  %35 = icmp eq i32 %34, 0, !dbg !7122
  br i1 %35, label %36, label %37, !dbg !7122

36:                                               ; preds = %32
  call void @__assert_fail(i8* getelementptr inbounds ([18 x i8], [18 x i8]* @.str.40, i64 0, i64 0), i8* getelementptr inbounds ([29 x i8], [29 x i8]* @.str.41, i64 0, i64 0), i32 273, i8* getelementptr inbounds ([27 x i8], [27 x i8]* @__PRETTY_FUNCTION__._ZNK6String5derefEv, i64 0, i64 0)) #15, !dbg !7122
  unreachable, !dbg !7122

37:                                               ; preds = %32
  call void @llvm.dbg.value(metadata i32* %33, metadata !5077, metadata !DIExpression()) #14, !dbg !7123
  %38 = load volatile i32, i32* %33, align 4, !dbg !7125, !tbaa !5084
  %39 = add i32 %38, -1, !dbg !7125
  store volatile i32 %39, i32* %33, align 4, !dbg !7125, !tbaa !5084
  %40 = icmp eq i32 %39, 0, !dbg !7126
  br i1 %40, label %41, label %42, !dbg !7127

41:                                               ; preds = %37
  invoke void @_ZN6String11delete_memoEPNS_6memo_tE(%"struct.String::memo_t"* nonnull %30)
          to label %42 unwind label %43, !dbg !7128

42:                                               ; preds = %41, %37
  store %"struct.String::memo_t"* null, %"struct.String::memo_t"** %29, align 8, !dbg !7129, !tbaa !5046
  br label %46, !dbg !7130

43:                                               ; preds = %41
  %44 = landingpad { i8*, i32 }
          catch i8* null, !dbg !7131
  %45 = extractvalue { i8*, i32 } %44, 0, !dbg !7131
  call void @__clang_call_terminate(i8* %45) #15, !dbg !7131
  unreachable, !dbg !7131

46:                                               ; preds = %27, %42
  call void @llvm.lifetime.end.p0i8(i64 24, i8* nonnull %8) #14, !dbg !7052
  call void @llvm.lifetime.end.p0i8(i64 8, i8* nonnull %7) #14, !dbg !7132
  resume { i8*, i32 } %28, !dbg !7132

47:                                               ; preds = %24, %4
  call void @llvm.dbg.value(metadata %class.String* %6, metadata !5057, metadata !DIExpression()) #14, !dbg !7133
  call void @llvm.dbg.value(metadata %class.String* %6, metadata !5063, metadata !DIExpression()) #14, !dbg !7135
  %48 = getelementptr inbounds %class.String, %class.String* %6, i64 0, i32 0, i32 2, !dbg !7137
  %49 = load %"struct.String::memo_t"*, %"struct.String::memo_t"** %48, align 8, !dbg !7137, !tbaa !5046
  %50 = icmp eq %"struct.String::memo_t"* %49, null, !dbg !7138
  br i1 %50, label %65, label %51, !dbg !7139

51:                                               ; preds = %47
  %52 = getelementptr inbounds %"struct.String::memo_t", %"struct.String::memo_t"* %49, i64 0, i32 0, !dbg !7140
  %53 = load volatile i32, i32* %52, align 4, !dbg !7140, !tbaa !5075
  %54 = icmp eq i32 %53, 0, !dbg !7140
  br i1 %54, label %55, label %56, !dbg !7140

55:                                               ; preds = %51
  call void @__assert_fail(i8* getelementptr inbounds ([18 x i8], [18 x i8]* @.str.40, i64 0, i64 0), i8* getelementptr inbounds ([29 x i8], [29 x i8]* @.str.41, i64 0, i64 0), i32 273, i8* getelementptr inbounds ([27 x i8], [27 x i8]* @__PRETTY_FUNCTION__._ZNK6String5derefEv, i64 0, i64 0)) #15, !dbg !7140
  unreachable, !dbg !7140

56:                                               ; preds = %51
  call void @llvm.dbg.value(metadata i32* %52, metadata !5077, metadata !DIExpression()) #14, !dbg !7141
  %57 = load volatile i32, i32* %52, align 4, !dbg !7143, !tbaa !5084
  %58 = add i32 %57, -1, !dbg !7143
  store volatile i32 %58, i32* %52, align 4, !dbg !7143, !tbaa !5084
  %59 = icmp eq i32 %58, 0, !dbg !7144
  br i1 %59, label %60, label %61, !dbg !7145

60:                                               ; preds = %56
  invoke void @_ZN6String11delete_memoEPNS_6memo_tE(%"struct.String::memo_t"* nonnull %49)
          to label %61 unwind label %62, !dbg !7146

61:                                               ; preds = %60, %56
  store %"struct.String::memo_t"* null, %"struct.String::memo_t"** %48, align 8, !dbg !7147, !tbaa !5046
  br label %65, !dbg !7148

62:                                               ; preds = %60
  %63 = landingpad { i8*, i32 }
          catch i8* null, !dbg !7149
  %64 = extractvalue { i8*, i32 } %63, 0, !dbg !7149
  call void @__clang_call_terminate(i8* %64) #15, !dbg !7149
  unreachable, !dbg !7149

65:                                               ; preds = %47, %61
  call void @llvm.lifetime.end.p0i8(i64 24, i8* nonnull %8) #14, !dbg !7052
  call void @llvm.lifetime.end.p0i8(i64 8, i8* nonnull %7) #14, !dbg !7132
  ret void, !dbg !7132
}

declare void @_ZN4Args4findEPKciRPNS_4SlotE(%class.String* sret, %class.Args*, i8*, i32, %"struct.Args::Slot"** dereferenceable(8)) local_unnamed_addr #2

declare void @_ZN4Args9postparseEbPNS_4SlotE(%class.Args*, i1 zeroext, %"struct.Args::Slot"*) local_unnamed_addr #2

declare i8* @_ZN4Args11simple_slotEPvm(%class.Args*, i8*, i64) local_unnamed_addr #2

; Function Attrs: noinline optnone sspstrong uwtable
define linkonce_odr dso_local void @_Z14args_base_readI10SecondsArgjEvP4ArgsPKciT_RT0_(%class.Args* %0, i8* %1, i32 %2, i64 %3, i32* dereferenceable(4) %4) local_unnamed_addr #9 comdat !dbg !7150 {
  %6 = alloca %class.SecondsArg, align 4
  %7 = alloca %class.Args*, align 8
  %8 = alloca i8*, align 8
  %9 = alloca i32, align 4
  %10 = alloca i32*, align 8
  %11 = alloca %class.SecondsArg, align 4
  %12 = bitcast %class.SecondsArg* %6 to i64*
  store i64 %3, i64* %12, align 4
  store %class.Args* %0, %class.Args** %7, align 8, !tbaa !5154
  call void @llvm.dbg.declare(metadata %class.Args** %7, metadata !7152, metadata !DIExpression()), !dbg !7157
  store i8* %1, i8** %8, align 8, !tbaa !5154
  call void @llvm.dbg.declare(metadata i8** %8, metadata !7153, metadata !DIExpression()), !dbg !7158
  store i32 %2, i32* %9, align 4, !tbaa !5084
  call void @llvm.dbg.declare(metadata i32* %9, metadata !7154, metadata !DIExpression()), !dbg !7159
  call void @llvm.dbg.declare(metadata %class.SecondsArg* %6, metadata !7155, metadata !DIExpression()), !dbg !7160
  store i32* %4, i32** %10, align 8, !tbaa !5154
  call void @llvm.dbg.declare(metadata i32** %10, metadata !7156, metadata !DIExpression()), !dbg !7161
  %13 = load %class.Args*, %class.Args** %7, align 8, !dbg !7162, !tbaa !5154
  %14 = load i8*, i8** %8, align 8, !dbg !7163, !tbaa !5154
  %15 = load i32, i32* %9, align 4, !dbg !7164, !tbaa !5084
  %16 = bitcast %class.SecondsArg* %11 to i8*, !dbg !7165
  %17 = bitcast %class.SecondsArg* %6 to i8*, !dbg !7165
  call void @llvm.memcpy.p0i8.p0i8.i64(i8* align 4 %16, i8* align 4 %17, i64 8, i1 false), !dbg !7165
  %18 = load i32*, i32** %10, align 8, !dbg !7166, !tbaa !5154
  %19 = bitcast %class.SecondsArg* %11 to i64*, !dbg !7167
  %20 = load i64, i64* %19, align 4, !dbg !7167
  call void @_ZN4Args9base_readI10SecondsArgjEEvPKciT_RT0_(%class.Args* %13, i8* %14, i32 %15, i64 %20, i32* dereferenceable(4) %18), !dbg !7167
  ret void, !dbg !7168
}

; Function Attrs: sspstrong uwtable
define linkonce_odr dso_local void @_ZN4Args9base_readI10SecondsArgjEEvPKciT_RT0_(%class.Args* %0, i8* %1, i32 %2, i64 %3, i32* dereferenceable(4) %4) local_unnamed_addr #0 comdat align 2 personality i8* bitcast (i32 (...)* @__gxx_personality_v0 to i8*) !dbg !7169 {
  %6 = alloca i64, align 8
  %7 = alloca %"struct.Args::Slot"*, align 8
  %8 = alloca %class.String, align 8
  call void @llvm.dbg.value(metadata i64 %3, metadata !7177, metadata !DIExpression()), !dbg !7184
  call void @llvm.dbg.value(metadata %class.Args* %0, metadata !7174, metadata !DIExpression()), !dbg !7184
  call void @llvm.dbg.value(metadata i8* %1, metadata !7175, metadata !DIExpression()), !dbg !7184
  call void @llvm.dbg.value(metadata i32 %2, metadata !7176, metadata !DIExpression()), !dbg !7184
  call void @llvm.dbg.value(metadata i32* %4, metadata !7178, metadata !DIExpression()), !dbg !7184
  %9 = bitcast %"struct.Args::Slot"** %7 to i8*, !dbg !7185
  call void @llvm.lifetime.start.p0i8(i64 8, i8* nonnull %9) #14, !dbg !7185
  %10 = bitcast %class.String* %8 to i8*, !dbg !7186
  call void @llvm.lifetime.start.p0i8(i64 24, i8* nonnull %10) #14, !dbg !7186
  call void @llvm.dbg.declare(metadata %class.String* %8, metadata !7180, metadata !DIExpression()), !dbg !7187
  call void @llvm.dbg.value(metadata %"struct.Args::Slot"** %7, metadata !7179, metadata !DIExpression(DW_OP_deref)), !dbg !7184
  call void @_ZN4Args4findEPKciRPNS_4SlotE(%class.String* nonnull sret %8, %class.Args* %0, i8* %1, i32 %2, %"struct.Args::Slot"** nonnull dereferenceable(8) %7), !dbg !7188
  call void @llvm.dbg.value(metadata %class.String* %8, metadata !7055, metadata !DIExpression()), !dbg !7189
  %11 = getelementptr inbounds %class.String, %class.String* %8, i64 0, i32 0, i32 1, !dbg !7191
  %12 = load i32, i32* %11, align 8, !dbg !7191, !tbaa !5042
  %13 = icmp eq i32 %12, 0, !dbg !7192
  %14 = select i1 %13, { i64, i64 } zeroinitializer, { i64, i64 } { i64 ptrtoint (i32 (%class.String*)* @_ZNK6String6lengthEv to i64), i64 0 }, !dbg !7193
  %15 = extractvalue { i64, i64 } %14, 0, !dbg !7187
  %16 = icmp eq i64 %15, 0, !dbg !7187
  br i1 %16, label %52, label %17, !dbg !7186

17:                                               ; preds = %5
  call void @llvm.dbg.value(metadata i32* %4, metadata !7194, metadata !DIExpression()), !dbg !7204
  call void @llvm.dbg.value(metadata %class.Args* %0, metadata !7203, metadata !DIExpression()), !dbg !7204
  call void @llvm.dbg.value(metadata %class.Args* %0, metadata !7206, metadata !DIExpression()), !dbg !7213
  call void @llvm.dbg.value(metadata i32* %4, metadata !7212, metadata !DIExpression()), !dbg !7213
  %18 = bitcast i32* %4 to i8*, !dbg !7215
  %19 = invoke i8* @_ZN4Args11simple_slotEPvm(%class.Args* nonnull %0, i8* nonnull %18, i64 4)
          to label %20 unwind label %32, !dbg !7217

20:                                               ; preds = %17
  call void @llvm.dbg.value(metadata i8* %19, metadata !7182, metadata !DIExpression()), !dbg !7218
  %21 = icmp eq i8* %19, null, !dbg !7219
  br i1 %21, label %29, label %22, !dbg !7220

22:                                               ; preds = %20
  %23 = bitcast i8* %19 to i32*, !dbg !7221
  call void @llvm.dbg.value(metadata i32* %23, metadata !7182, metadata !DIExpression()), !dbg !7218
  %24 = bitcast i64* %6 to i8*
  call void @llvm.lifetime.start.p0i8(i64 8, i8* nonnull %24)
  %25 = bitcast i64* %6 to %class.SecondsArg*
  store i64 %3, i64* %6, align 8
  call void @llvm.dbg.declare(metadata %class.SecondsArg* %25, metadata !7222, metadata !DIExpression()), !dbg !7231
  call void @llvm.dbg.value(metadata %class.String* %8, metadata !7228, metadata !DIExpression()), !dbg !7233
  call void @llvm.dbg.value(metadata i32* %23, metadata !7229, metadata !DIExpression()), !dbg !7233
  call void @llvm.dbg.value(metadata %class.Args* %0, metadata !7230, metadata !DIExpression()), !dbg !7233
  %26 = bitcast %class.Args* %0 to %class.ArgContext*, !dbg !7234
  %27 = invoke zeroext i1 @_ZN10SecondsArg5parseERK6StringRjRK10ArgContext(%class.SecondsArg* nonnull %25, %class.String* nonnull dereferenceable(24) %8, i32* nonnull dereferenceable(4) %23, %class.ArgContext* nonnull dereferenceable(32) %26)
          to label %28 unwind label %32, !dbg !7235

28:                                               ; preds = %22
  call void @llvm.lifetime.end.p0i8(i64 8, i8* nonnull %24), !dbg !7236
  br label %29, !dbg !7236

29:                                               ; preds = %28, %20
  %30 = phi i1 [ false, %20 ], [ %27, %28 ], !dbg !7218
  %31 = load %"struct.Args::Slot"*, %"struct.Args::Slot"** %7, align 8, !dbg !7237, !tbaa !5154
  call void @llvm.dbg.value(metadata %"struct.Args::Slot"* %31, metadata !7179, metadata !DIExpression()), !dbg !7184
  invoke void @_ZN4Args9postparseEbPNS_4SlotE(%class.Args* nonnull %0, i1 zeroext %30, %"struct.Args::Slot"* %31)
          to label %52 unwind label %32, !dbg !7238

32:                                               ; preds = %22, %17, %29
  %33 = landingpad { i8*, i32 }
          cleanup, !dbg !7239
  call void @llvm.dbg.value(metadata %class.String* %8, metadata !5057, metadata !DIExpression()) #14, !dbg !7240
  call void @llvm.dbg.value(metadata %class.String* %8, metadata !5063, metadata !DIExpression()) #14, !dbg !7242
  %34 = getelementptr inbounds %class.String, %class.String* %8, i64 0, i32 0, i32 2, !dbg !7244
  %35 = load %"struct.String::memo_t"*, %"struct.String::memo_t"** %34, align 8, !dbg !7244, !tbaa !5046
  %36 = icmp eq %"struct.String::memo_t"* %35, null, !dbg !7245
  br i1 %36, label %51, label %37, !dbg !7246

37:                                               ; preds = %32
  %38 = getelementptr inbounds %"struct.String::memo_t", %"struct.String::memo_t"* %35, i64 0, i32 0, !dbg !7247
  %39 = load volatile i32, i32* %38, align 4, !dbg !7247, !tbaa !5075
  %40 = icmp eq i32 %39, 0, !dbg !7247
  br i1 %40, label %41, label %42, !dbg !7247

41:                                               ; preds = %37
  call void @__assert_fail(i8* getelementptr inbounds ([18 x i8], [18 x i8]* @.str.40, i64 0, i64 0), i8* getelementptr inbounds ([29 x i8], [29 x i8]* @.str.41, i64 0, i64 0), i32 273, i8* getelementptr inbounds ([27 x i8], [27 x i8]* @__PRETTY_FUNCTION__._ZNK6String5derefEv, i64 0, i64 0)) #15, !dbg !7247
  unreachable, !dbg !7247

42:                                               ; preds = %37
  call void @llvm.dbg.value(metadata i32* %38, metadata !5077, metadata !DIExpression()) #14, !dbg !7248
  %43 = load volatile i32, i32* %38, align 4, !dbg !7250, !tbaa !5084
  %44 = add i32 %43, -1, !dbg !7250
  store volatile i32 %44, i32* %38, align 4, !dbg !7250, !tbaa !5084
  %45 = icmp eq i32 %44, 0, !dbg !7251
  br i1 %45, label %46, label %47, !dbg !7252

46:                                               ; preds = %42
  invoke void @_ZN6String11delete_memoEPNS_6memo_tE(%"struct.String::memo_t"* nonnull %35)
          to label %47 unwind label %48, !dbg !7253

47:                                               ; preds = %46, %42
  store %"struct.String::memo_t"* null, %"struct.String::memo_t"** %34, align 8, !dbg !7254, !tbaa !5046
  br label %51, !dbg !7255

48:                                               ; preds = %46
  %49 = landingpad { i8*, i32 }
          catch i8* null, !dbg !7256
  %50 = extractvalue { i8*, i32 } %49, 0, !dbg !7256
  call void @__clang_call_terminate(i8* %50) #15, !dbg !7256
  unreachable, !dbg !7256

51:                                               ; preds = %32, %47
  call void @llvm.lifetime.end.p0i8(i64 24, i8* nonnull %10) #14, !dbg !7186
  call void @llvm.lifetime.end.p0i8(i64 8, i8* nonnull %9) #14, !dbg !7257
  resume { i8*, i32 } %33, !dbg !7257

52:                                               ; preds = %29, %5
  call void @llvm.dbg.value(metadata %class.String* %8, metadata !5057, metadata !DIExpression()) #14, !dbg !7258
  call void @llvm.dbg.value(metadata %class.String* %8, metadata !5063, metadata !DIExpression()) #14, !dbg !7260
  %53 = getelementptr inbounds %class.String, %class.String* %8, i64 0, i32 0, i32 2, !dbg !7262
  %54 = load %"struct.String::memo_t"*, %"struct.String::memo_t"** %53, align 8, !dbg !7262, !tbaa !5046
  %55 = icmp eq %"struct.String::memo_t"* %54, null, !dbg !7263
  br i1 %55, label %70, label %56, !dbg !7264

56:                                               ; preds = %52
  %57 = getelementptr inbounds %"struct.String::memo_t", %"struct.String::memo_t"* %54, i64 0, i32 0, !dbg !7265
  %58 = load volatile i32, i32* %57, align 4, !dbg !7265, !tbaa !5075
  %59 = icmp eq i32 %58, 0, !dbg !7265
  br i1 %59, label %60, label %61, !dbg !7265

60:                                               ; preds = %56
  call void @__assert_fail(i8* getelementptr inbounds ([18 x i8], [18 x i8]* @.str.40, i64 0, i64 0), i8* getelementptr inbounds ([29 x i8], [29 x i8]* @.str.41, i64 0, i64 0), i32 273, i8* getelementptr inbounds ([27 x i8], [27 x i8]* @__PRETTY_FUNCTION__._ZNK6String5derefEv, i64 0, i64 0)) #15, !dbg !7265
  unreachable, !dbg !7265

61:                                               ; preds = %56
  call void @llvm.dbg.value(metadata i32* %57, metadata !5077, metadata !DIExpression()) #14, !dbg !7266
  %62 = load volatile i32, i32* %57, align 4, !dbg !7268, !tbaa !5084
  %63 = add i32 %62, -1, !dbg !7268
  store volatile i32 %63, i32* %57, align 4, !dbg !7268, !tbaa !5084
  %64 = icmp eq i32 %63, 0, !dbg !7269
  br i1 %64, label %65, label %66, !dbg !7270

65:                                               ; preds = %61
  invoke void @_ZN6String11delete_memoEPNS_6memo_tE(%"struct.String::memo_t"* nonnull %54)
          to label %66 unwind label %67, !dbg !7271

66:                                               ; preds = %65, %61
  store %"struct.String::memo_t"* null, %"struct.String::memo_t"** %53, align 8, !dbg !7272, !tbaa !5046
  br label %70, !dbg !7273

67:                                               ; preds = %65
  %68 = landingpad { i8*, i32 }
          catch i8* null, !dbg !7274
  %69 = extractvalue { i8*, i32 } %68, 0, !dbg !7274
  call void @__clang_call_terminate(i8* %69) #15, !dbg !7274
  unreachable, !dbg !7274

70:                                               ; preds = %52, %66
  call void @llvm.lifetime.end.p0i8(i64 24, i8* nonnull %10) #14, !dbg !7186
  call void @llvm.lifetime.end.p0i8(i64 8, i8* nonnull %9) #14, !dbg !7257
  ret void, !dbg !7257
}

declare zeroext i1 @_ZN10SecondsArg5parseERK6StringRjRK10ArgContext(%class.SecondsArg*, %class.String* dereferenceable(24), i32* dereferenceable(4), %class.ArgContext* dereferenceable(32)) local_unnamed_addr #2

; Function Attrs: noinline optnone sspstrong uwtable
define linkonce_odr dso_local void @_Z14args_base_readItEvP4ArgsPKciRT_(%class.Args* %0, i8* %1, i32 %2, i16* dereferenceable(2) %3) local_unnamed_addr #9 comdat !dbg !7275 {
  %5 = alloca %class.Args*, align 8
  %6 = alloca i8*, align 8
  %7 = alloca i32, align 4
  %8 = alloca i16*, align 8
  store %class.Args* %0, %class.Args** %5, align 8, !tbaa !5154
  call void @llvm.dbg.declare(metadata %class.Args** %5, metadata !7277, metadata !DIExpression()), !dbg !7281
  store i8* %1, i8** %6, align 8, !tbaa !5154
  call void @llvm.dbg.declare(metadata i8** %6, metadata !7278, metadata !DIExpression()), !dbg !7282
  store i32 %2, i32* %7, align 4, !tbaa !5084
  call void @llvm.dbg.declare(metadata i32* %7, metadata !7279, metadata !DIExpression()), !dbg !7283
  store i16* %3, i16** %8, align 8, !tbaa !5154
  call void @llvm.dbg.declare(metadata i16** %8, metadata !7280, metadata !DIExpression()), !dbg !7284
  %9 = load %class.Args*, %class.Args** %5, align 8, !dbg !7285, !tbaa !5154
  %10 = load i8*, i8** %6, align 8, !dbg !7286, !tbaa !5154
  %11 = load i32, i32* %7, align 4, !dbg !7287, !tbaa !5084
  %12 = load i16*, i16** %8, align 8, !dbg !7288, !tbaa !5154
  call void @_ZN4Args9base_readItEEvPKciRT_(%class.Args* %9, i8* %10, i32 %11, i16* dereferenceable(2) %12), !dbg !7289
  ret void, !dbg !7290
}

; Function Attrs: sspstrong uwtable
define linkonce_odr dso_local void @_ZN4Args9base_readItEEvPKciRT_(%class.Args* %0, i8* %1, i32 %2, i16* dereferenceable(2) %3) local_unnamed_addr #0 comdat align 2 personality i8* bitcast (i32 (...)* @__gxx_personality_v0 to i8*) !dbg !7291 {
  %5 = alloca [1 x i32], align 4
  call void @llvm.dbg.declare(metadata [1 x i32]* %5, metadata !7305, metadata !DIExpression()), !dbg !7319
  %6 = alloca i64, align 8
  %7 = alloca %"struct.Args::Slot"*, align 8
  %8 = alloca %class.String, align 8
  call void @llvm.dbg.value(metadata %class.Args* %0, metadata !7296, metadata !DIExpression()), !dbg !7348
  call void @llvm.dbg.value(metadata i8* %1, metadata !7297, metadata !DIExpression()), !dbg !7348
  call void @llvm.dbg.value(metadata i32 %2, metadata !7298, metadata !DIExpression()), !dbg !7348
  call void @llvm.dbg.value(metadata i16* %3, metadata !7299, metadata !DIExpression()), !dbg !7348
  %9 = bitcast %"struct.Args::Slot"** %7 to i8*, !dbg !7349
  call void @llvm.lifetime.start.p0i8(i64 8, i8* nonnull %9) #14, !dbg !7349
  %10 = bitcast %class.String* %8 to i8*, !dbg !7350
  call void @llvm.lifetime.start.p0i8(i64 24, i8* nonnull %10) #14, !dbg !7350
  call void @llvm.dbg.declare(metadata %class.String* %8, metadata !7301, metadata !DIExpression()), !dbg !7351
  call void @llvm.dbg.value(metadata %"struct.Args::Slot"** %7, metadata !7300, metadata !DIExpression(DW_OP_deref)), !dbg !7348
  call void @_ZN4Args4findEPKciRPNS_4SlotE(%class.String* nonnull sret %8, %class.Args* %0, i8* %1, i32 %2, %"struct.Args::Slot"** nonnull dereferenceable(8) %7), !dbg !7352
  call void @llvm.dbg.value(metadata %class.String* %8, metadata !7055, metadata !DIExpression()), !dbg !7353
  %11 = getelementptr inbounds %class.String, %class.String* %8, i64 0, i32 0, i32 1, !dbg !7355
  %12 = load i32, i32* %11, align 8, !dbg !7355, !tbaa !5042
  %13 = icmp eq i32 %12, 0, !dbg !7356
  %14 = select i1 %13, { i64, i64 } zeroinitializer, { i64, i64 } { i64 ptrtoint (i32 (%class.String*)* @_ZNK6String6lengthEv to i64), i64 0 }, !dbg !7357
  %15 = extractvalue { i64, i64 } %14, 0, !dbg !7351
  %16 = icmp eq i64 %15, 0, !dbg !7351
  br i1 %16, label %79, label %17, !dbg !7350

17:                                               ; preds = %4
  call void @llvm.dbg.value(metadata i16* %3, metadata !7358, metadata !DIExpression()), !dbg !7365
  call void @llvm.dbg.value(metadata %class.Args* %0, metadata !7364, metadata !DIExpression()), !dbg !7365
  call void @llvm.dbg.value(metadata %class.Args* %0, metadata !7367, metadata !DIExpression()), !dbg !7374
  call void @llvm.dbg.value(metadata i16* %3, metadata !7373, metadata !DIExpression()), !dbg !7374
  %18 = bitcast i16* %3 to i8*, !dbg !7376
  %19 = invoke i8* @_ZN4Args11simple_slotEPvm(%class.Args* nonnull %0, i8* nonnull %18, i64 2)
          to label %20 unwind label %59, !dbg !7378

20:                                               ; preds = %17
  %21 = bitcast i8* %19 to i16*, !dbg !7379
  call void @llvm.dbg.value(metadata i16* %21, metadata !7303, metadata !DIExpression()), !dbg !7380
  %22 = icmp eq i8* %19, null, !dbg !7381
  br i1 %22, label %56, label %23, !dbg !7382

23:                                               ; preds = %20
  %24 = bitcast i64* %6 to i8*, !dbg !7383
  call void @llvm.lifetime.start.p0i8(i64 8, i8* nonnull %24), !dbg !7383
  call void @llvm.dbg.value(metadata i64 0, metadata !7343, metadata !DIExpression()), !dbg !7383
  store i64 0, i64* %6, align 8
  call void @llvm.dbg.value(metadata %class.String* %8, metadata !7344, metadata !DIExpression()), !dbg !7383
  call void @llvm.dbg.value(metadata i16* %21, metadata !7345, metadata !DIExpression()), !dbg !7383
  call void @llvm.dbg.value(metadata %class.Args* %0, metadata !7346, metadata !DIExpression()), !dbg !7383
  %25 = bitcast i64* %6 to %class.IntArg*, !dbg !7384
  %26 = bitcast %class.Args* %0 to %class.ArgContext*, !dbg !7385
  call void @llvm.dbg.value(metadata %class.IntArg* %25, metadata !7325, metadata !DIExpression()), !dbg !7386
  call void @llvm.dbg.value(metadata %class.String* %8, metadata !7326, metadata !DIExpression()), !dbg !7386
  call void @llvm.dbg.value(metadata i16* %21, metadata !7327, metadata !DIExpression()), !dbg !7386
  call void @llvm.dbg.value(metadata %class.ArgContext* %26, metadata !7328, metadata !DIExpression()), !dbg !7386
  call void @llvm.dbg.value(metadata %class.IntArg* %25, metadata !7313, metadata !DIExpression()), !dbg !7387
  call void @llvm.dbg.value(metadata %class.String* %8, metadata !7314, metadata !DIExpression()), !dbg !7387
  call void @llvm.dbg.value(metadata %class.ArgContext* %26, metadata !7316, metadata !DIExpression()), !dbg !7387
  call void @llvm.dbg.value(metadata i8 0, metadata !7317, metadata !DIExpression()), !dbg !7387
  call void @llvm.dbg.value(metadata i32 1, metadata !7318, metadata !DIExpression()), !dbg !7387
  %27 = bitcast [1 x i32]* %5 to i8*, !dbg !7388
  call void @llvm.lifetime.start.p0i8(i64 4, i8* nonnull %27) #14, !dbg !7388
  call void @llvm.dbg.value(metadata %class.String* %8, metadata !6766, metadata !DIExpression()), !dbg !7389
  %28 = getelementptr inbounds %class.String, %class.String* %8, i64 0, i32 0, i32 0, !dbg !7392
  %29 = load i8*, i8** %28, align 8, !dbg !7392, !tbaa !5039
  call void @llvm.dbg.value(metadata %class.String* %8, metadata !6773, metadata !DIExpression()), !dbg !7393
  %30 = load i32, i32* %11, align 8, !dbg !7395, !tbaa !5042
  %31 = sext i32 %30 to i64, !dbg !7396
  %32 = getelementptr inbounds i8, i8* %29, i64 %31, !dbg !7396
  %33 = getelementptr inbounds [1 x i32], [1 x i32]* %5, i64 0, i64 0, !dbg !7397
  call void @llvm.dbg.value(metadata i64* %6, metadata !7343, metadata !DIExpression(DW_OP_deref)), !dbg !7383
  %34 = invoke i8* @_ZN6IntArg5parseEPKcS1_biPji(%class.IntArg* nonnull %25, i8* %29, i8* %32, i1 zeroext false, i32 2, i32* nonnull %33, i32 1)
          to label %35 unwind label %59, !dbg !7398

35:                                               ; preds = %23
  call void @llvm.dbg.value(metadata %class.String* %8, metadata !6773, metadata !DIExpression()), !dbg !7399
  %36 = load i8*, i8** %28, align 8, !dbg !7401, !tbaa !5039
  %37 = load i32, i32* %11, align 8, !dbg !7402, !tbaa !5042
  %38 = sext i32 %37 to i64, !dbg !7403
  %39 = getelementptr inbounds i8, i8* %36, i64 %38, !dbg !7403
  %40 = icmp eq i8* %34, %39, !dbg !7404
  %41 = getelementptr inbounds %class.IntArg, %class.IntArg* %25, i64 0, i32 1, !dbg !7387
  br i1 %40, label %43, label %42, !dbg !7405

42:                                               ; preds = %35
  store i32 22, i32* %41, align 4, !dbg !7406, !tbaa !6790
  br label %45, !dbg !7407

43:                                               ; preds = %35
  %44 = load i32, i32* %41, align 4, !dbg !7409, !tbaa !6790
  switch i32 %44, label %45 [
    i32 0, label %47
    i32 34, label %47
  ], !dbg !7407

45:                                               ; preds = %43, %42
  invoke void (%class.ArgContext*, i8*, ...) @_ZNK10ArgContext5errorEPKcz(%class.ArgContext* nonnull %26, i8* getelementptr inbounds ([15 x i8], [15 x i8]* @.str.50, i64 0, i64 0))
          to label %46 unwind label %59, !dbg !7410

46:                                               ; preds = %45
  call void @llvm.lifetime.end.p0i8(i64 4, i8* nonnull %27) #14, !dbg !7412
  br label %54, !dbg !7413

47:                                               ; preds = %43, %43
  call void @llvm.dbg.value(metadata i32* %33, metadata !7414, metadata !DIExpression()), !dbg !7421
  call void @llvm.dbg.value(metadata i32* %33, metadata !7423, metadata !DIExpression()), !dbg !7431
  %48 = load i32, i32* %33, align 4, !dbg !7433, !tbaa !5084
  call void @llvm.lifetime.end.p0i8(i64 4, i8* nonnull %27) #14, !dbg !7412
  switch i32 %44, label %54 [
    i32 34, label %49
    i32 0, label %52
  ], !dbg !7434

49:                                               ; preds = %47
  %50 = and i32 %48, 65535, !dbg !7435
  %51 = zext i32 %50 to i64, !dbg !7435
  call void @llvm.dbg.value(metadata i64* %6, metadata !7343, metadata !DIExpression(DW_OP_deref)), !dbg !7383
  invoke void @_ZN6IntArg11range_errorERK10ArgContextbx(%class.IntArg* nonnull %25, %class.ArgContext* nonnull dereferenceable(32) %26, i1 zeroext false, i64 %51)
          to label %54 unwind label %59, !dbg !7438

52:                                               ; preds = %47
  %53 = trunc i32 %48 to i16, !dbg !7433
