; ModuleID = '../elements/local/tcpack.cc'
source_filename = "../elements/local/tcpack.cc"
target datalayout = "e-m:e-p270:32:32-p271:32:32-p272:64:64-i64:64-f80:128-n8:16:32:64-S128"
target triple = "x86_64-pc-linux-gnu"

%class.TCPAck = type <{ %class.Element.base, [4 x i8], %class.Timer, i8, i8, [2 x i8], i32, %class.TCPBuffer*, i32, [4 x i8] }>
%class.Element.base = type <{ i32 (...)**, [2 x %"class.Element::Port"*], [4 x %"class.Element::Port"], [2 x i32], %class.Router*, i32 }>
%"class.Element::Port" = type <{ %class.Element*, i32, [4 x i8] }>
%class.Element = type <{ i32 (...)**, [2 x %"class.Element::Port"*], [4 x %"class.Element::Port"], [2 x i32], %class.Router*, i32, [4 x i8] }>
%class.Router = type { %class.Master*, %class.atomic_uint32_t, i32, i8, i32, %class.atomic_uint32_t, %class.Vector, %class.Vector.0, %class.Vector.0, %class.Vector.2, %class.Vector.5, %class.Vector.6, i32, %class.Vector.5, [2 x %class.Vector.5], %class.Vector.5, %class.Vector.8, %class.Vector.5, %class.Vector.0, %class.Vector.5, %class.Vector.5, %class.Vector.5, %class.Vector.5, %class.Handler**, i32, i32, %class.Vector.0, %class.Vector.12, %class.Element*, %class.String, %"struct.Router::notifier_signals_t"*, %class.HashMap_ArenaFactory*, %class.Router*, %class.ThreadSched*, %class.NameInfo*, %class.Vector.5, %class.Vector.0, %class.Router* }
%class.Master = type opaque
%class.atomic_uint32_t = type { i32 }
%class.Vector = type { %class.vector_memory }
%class.vector_memory = type { %struct.char_array*, i32, i32 }
%struct.char_array = type { [8 x i8] }
%class.Vector.2 = type { %class.vector_memory.3 }
%class.vector_memory.3 = type { %struct.char_array.4*, i32, i32 }
%struct.char_array.4 = type opaque
%class.Vector.6 = type { %class.vector_memory.7 }
%class.vector_memory.7 = type { %"struct.Router::element_landmark_t"*, i32, i32 }
%"struct.Router::element_landmark_t" = type { i32, %class.String }
%class.Vector.8 = type { %class.vector_memory.9 }
%class.vector_memory.9 = type { %struct.char_array.10*, i32, i32 }
%struct.char_array.10 = type { [16 x i8] }
%class.Handler = type <{ %class.String, %union.anon, %union.anon.11, i8*, i8*, i32, i32, i32, [4 x i8] }>
%union.anon = type { i32 (i32, %class.String*, %class.Element*, %class.Handler*, %class.ErrorHandler*)* }
%class.ErrorHandler = type <{ i32 (...)**, i32, [4 x i8] }>
%union.anon.11 = type { i32 (i32, %class.String*, %class.Element*, %class.Handler*, %class.ErrorHandler*)* }
%class.Vector.12 = type { %class.vector_memory }
%class.String = type { %"struct.String::rep_t" }
%"struct.String::rep_t" = type { i8*, i32, %"struct.String::memo_t"* }
%"struct.String::memo_t" = type { i32, i32, i32, [8 x i8] }
%"struct.Router::notifier_signals_t" = type { %class.String, i32, [128 x %class.atomic_uint32_t], %"struct.Router::notifier_signals_t"* }
%class.HashMap_ArenaFactory = type opaque
%class.ThreadSched = type { i32 (...)** }
%class.NameInfo = type opaque
%class.Vector.5 = type { %class.vector_memory.3 }
%class.Vector.0 = type { %class.vector_memory.1 }
%class.vector_memory.1 = type { %class.String*, i32, i32 }
%class.Timer = type { i32, %class.Timestamp, %union.anon.13, i8*, %class.Element*, %class.RouterThread* }
%class.Timestamp = type { %"union.Timestamp::rep_t" }
%"union.Timestamp::rep_t" = type { i64 }
%union.anon.13 = type { void (%class.Timer*, i8*)* }
%class.RouterThread = type { %struct.TaskLink, i8, [7 x i8], %class.TimerSet, %class.SelectSet, [32 x i8], %class.Spinlock, %class.atomic_uint32_t, %class.atomic_uint32_t, %"union.Task::Pending", %"union.Task::Pending"*, %class.SpinlockIRQ, [31 x i8], %class.Master*, i32, i8, i32, i32, [40 x i8] }
%struct.TaskLink = type <{ %struct.TaskLink*, %struct.TaskLink*, i32, [4 x i8] }>
%class.TimerSet = type <{ %class.Timestamp, i32, i32, i32, [4 x i8], %class.Vector.14, %class.Vector.15, %class.SimpleSpinlock, [7 x i8], %class.Timestamp, i32, [4 x i8] }>
%class.Vector.14 = type { %class.vector_memory.9 }
%class.Vector.15 = type { %class.vector_memory }
%class.SimpleSpinlock = type { i8 }
%class.SelectSet = type { [2 x i32], i8, %class.Vector.16, %class.Vector.17 }
%class.Vector.16 = type { %class.vector_memory }
%class.Vector.17 = type { %class.vector_memory.18 }
%class.vector_memory.18 = type { %struct.char_array.19*, i32, i32 }
%struct.char_array.19 = type opaque
%class.Spinlock = type { i8 }
%"union.Task::Pending" = type { %class.Task* }
%class.Task = type { %struct.TaskLink.base, i32, i32, %"union.Task::Status", i1 (%class.Task*, i8*)*, i8*, %class.RouterThread*, %class.Element*, %"union.Task::Pending" }
%struct.TaskLink.base = type <{ %struct.TaskLink*, %struct.TaskLink*, i32 }>
%"union.Task::Status" = type { i32 }
%class.SpinlockIRQ = type { i8 }
%class.TCPBuffer = type <{ %class.Element.base, [4 x i8], %"class.TCPBuffer::TCPBufferElt"*, i32, i32, i8, i8, i8, [5 x i8] }>
%"class.TCPBuffer::TCPBufferElt" = type { %class.Packet*, %"class.TCPBuffer::TCPBufferElt"**, %"class.TCPBuffer::TCPBufferElt"*, %"class.TCPBuffer::TCPBufferElt"* }
%class.Packet = type { %class.atomic_uint32_t, %class.Packet*, i8*, i8*, i8*, i8*, %"struct.Packet::AllAnno", void (i8*, i64, i8*)*, i8* }
%"struct.Packet::AllAnno" = type { %"union.Packet::Anno", i8*, i8*, i8*, i32, [8 x i8], %class.Packet*, %class.Packet* }
%"union.Packet::Anno" = type { [6 x i64] }
%class.Args = type { %class.ArgContext.base, i8, i8, i8, %class.Vector.0*, %class.Vector.5, %"struct.Args::Slot"*, [48 x i8] }
%class.ArgContext.base = type <{ %class.Element*, %class.ErrorHandler*, i8*, i8 }>
%"struct.Args::Slot" = type { i32 (...)**, %"struct.Args::Slot"* }
%class.ElementCastTracker = type { %class.ElementTracker, %class.String }
%class.ElementTracker = type { %class.RouterVisitor, %class.Bitvector, %class.Vector }
%class.RouterVisitor = type { i32 (...)** }
%class.Bitvector = type { i32, i32*, [2 x i32] }
%class.WritablePacket = type { %class.Packet }
%struct.click_ip = type { i8, i8, i16, i16, i16, i8, i8, i16, %struct.in_addr, %struct.in_addr }
%struct.in_addr = type { i32 }
%class.SecondsArg = type { i32, i32 }
%class.ArgContext = type <{ %class.Element*, %class.ErrorHandler*, i8*, i8, [7 x i8] }>

$_ZNK7Element6outputEi = comdat any

$_ZNK7Element4Port4pushEP6Packet = comdat any

$_ZNK7Element5inputEi = comdat any

$_ZN9TCPBuffer19next_missing_seq_noEjRj = comdat any

$_ZNK6TCPAck10class_nameEv = comdat any

$_ZNK6TCPAck10port_countEv = comdat any

$_ZNK6TCPAck10processingEv = comdat any

$__clang_call_terminate = comdat any

$_ZN14ElementTrackerD2Ev = comdat any

$_ZN14ElementTrackerD0Ev = comdat any

$_ZNK7Element4portEbi = comdat any

$_Z14args_base_readI10SecondsArgjEvP4ArgsPKciT_RT0_ = comdat any

$_ZN4Args9base_readI10SecondsArgjEEvPKciT_RT0_ = comdat any

$_ZNK6String6lengthEv = comdat any

$_ZTV14ElementTracker = comdat any

$_ZTS14ElementTracker = comdat any

$_ZTI14ElementTracker = comdat any

@_ZTV6TCPAck = dso_local unnamed_addr constant { [29 x i8*] } { [29 x i8*] [i8* null, i8* bitcast ({ i8*, i8*, i8* }* @_ZTI6TCPAck to i8*), i8* bitcast (void (%class.TCPAck*)* @_ZN6TCPAckD2Ev to i8*), i8* bitcast (void (%class.TCPAck*)* @_ZN6TCPAckD0Ev to i8*), i8* bitcast (void (%class.TCPAck*, i32, %class.Packet*)* @_ZN6TCPAck4pushEiP6Packet to i8*), i8* bitcast (%class.Packet* (%class.TCPAck*, i32)* @_ZN6TCPAck4pullEi to i8*), i8* bitcast (%class.Packet* (%class.Element*, %class.Packet*)* @_ZN7Element13simple_actionEP6Packet to i8*), i8* bitcast (i1 (%class.Element*, %class.Task*)* @_ZN7Element8run_taskEP4Task to i8*), i8* bitcast (void (%class.TCPAck*, %class.Timer*)* @_ZN6TCPAck9run_timerEP5Timer to i8*), i8* bitcast (void (%class.Element*, i32, i32)* @_ZN7Element8selectedEii to i8*), i8* bitcast (void (%class.Element*, i32)* @_ZN7Element8selectedEi to i8*), i8* bitcast (i8* (%class.TCPAck*)* @_ZNK6TCPAck10class_nameEv to i8*), i8* bitcast (i8* (%class.TCPAck*)* @_ZNK6TCPAck10port_countEv to i8*), i8* bitcast (i8* (%class.TCPAck*)* @_ZNK6TCPAck10processingEv to i8*), i8* bitcast (i8* (%class.Element*)* @_ZNK7Element9flow_codeEv to i8*), i8* bitcast (i8* (%class.Element*)* @_ZNK7Element5flagsEv to i8*), i8* bitcast (i8* (%class.Element*, i8*)* @_ZN7Element4castEPKc to i8*), i8* bitcast (i8* (%class.Element*, i1, i32, i8*)* @_ZN7Element9port_castEbiPKc to i8*), i8* bitcast (i32 (%class.Element*)* @_ZNK7Element15configure_phaseEv to i8*), i8* bitcast (i32 (%class.TCPAck*, %class.Vector.0*, %class.ErrorHandler*)* @_ZN6TCPAck9configureER6VectorI6StringEP12ErrorHandler to i8*), i8* bitcast (void (%class.Element*)* @_ZN7Element12add_handlersEv to i8*), i8* bitcast (i32 (%class.TCPAck*, %class.ErrorHandler*)* @_ZN6TCPAck10initializeEP12ErrorHandler to i8*), i8* bitcast (void (%class.Element*, %class.Element*, %class.ErrorHandler*)* @_ZN7Element10take_stateEPS_P12ErrorHandler to i8*), i8* bitcast (%class.Element* (%class.Element*)* @_ZNK7Element15hotswap_elementEv to i8*), i8* bitcast (void (%class.Element*, i32)* @_ZN7Element7cleanupENS_12CleanupStageE to i8*), i8* bitcast (void (%class.String*, %class.Element*)* @_ZNK7Element11declarationEv to i8*), i8* bitcast (i1 (%class.Element*)* @_ZNK7Element20can_live_reconfigureEv to i8*), i8* bitcast (i32 (%class.Element*, %class.Vector.0*, %class.ErrorHandler*)* @_ZN7Element16live_reconfigureER6VectorI6StringEP12ErrorHandler to i8*), i8* bitcast (i32 (%class.Element*, i32, i8*)* @_ZN7Element5llrpcEjPv to i8*)] }, align 8
@.str = private unnamed_addr constant [6 x i8] c"DELAY\00", align 1
@.str.1 = private unnamed_addr constant [10 x i8] c"TCPBuffer\00", align 1
@.str.2 = private unnamed_addr constant [34 x i8] c"flow-based router context failure\00", align 1
@.str.3 = private unnamed_addr constant [37 x i8] c"need at least 1 downstream TCPBuffer\00", align 1
@.str.4 = private unnamed_addr constant [2 x i8] c"v\00", align 1
@.str.5 = private unnamed_addr constant [28 x i8] c"../elements/local/tcpack.cc\00", align 1
@__PRETTY_FUNCTION__._ZN6TCPAck4iputEP6Packet = private unnamed_addr constant [28 x i8] c"bool TCPAck::iput(Packet *)\00", align 1
@.str.6 = private unnamed_addr constant [54 x i8] c"seqno < ack_nxt: out of order or retransmitted packet\00", align 1
@.str.7 = private unnamed_addr constant [27 x i8] c"TCPAck: cannot make packet\00", align 1
@_ZTVN10__cxxabiv120__si_class_type_infoE = external global i8*
@_ZTS6TCPAck = dso_local constant [8 x i8] c"6TCPAck\00", align 1
@_ZTI7Element = external constant i8*
@_ZTI6TCPAck = dso_local constant { i8*, i8*, i8* } { i8* bitcast (i8** getelementptr inbounds (i8*, i8** @_ZTVN10__cxxabiv120__si_class_type_infoE, i64 2) to i8*), i8* getelementptr inbounds ([8 x i8], [8 x i8]* @_ZTS6TCPAck, i32 0, i32 0), i8* bitcast (i8** @_ZTI7Element to i8*) }, align 8
@_ZTV18ElementCastTracker = external unnamed_addr constant { [5 x i8*] }, align 8
@_ZTV14ElementTracker = linkonce_odr dso_local unnamed_addr constant { [5 x i8*] } { [5 x i8*] [i8* null, i8* bitcast ({ i8*, i8*, i8* }* @_ZTI14ElementTracker to i8*), i8* bitcast (void (%class.ElementTracker*)* @_ZN14ElementTrackerD2Ev to i8*), i8* bitcast (void (%class.ElementTracker*)* @_ZN14ElementTrackerD0Ev to i8*), i8* bitcast (i1 (%class.RouterVisitor*, %class.Element*, i1, i32, %class.Element*, i32, i32)* @_ZN13RouterVisitor5visitEP7ElementbiS1_ii to i8*)] }, comdat, align 8
@_ZTS14ElementTracker = linkonce_odr dso_local constant [17 x i8] c"14ElementTracker\00", comdat, align 1
@_ZTI13RouterVisitor = external constant i8*
@_ZTI14ElementTracker = linkonce_odr dso_local constant { i8*, i8*, i8* } { i8* bitcast (i8** getelementptr inbounds (i8*, i8** @_ZTVN10__cxxabiv120__si_class_type_infoE, i64 2) to i8*), i8* getelementptr inbounds ([17 x i8], [17 x i8]* @_ZTS14ElementTracker, i32 0, i32 0), i8* bitcast (i8** @_ZTI13RouterVisitor to i8*) }, comdat, align 8
@.str.8 = private unnamed_addr constant [18 x i8] c"_r.memo->refcount\00", align 1
@.str.9 = private unnamed_addr constant [29 x i8] c"../dummy_inc/click/string.hh\00", align 1
@__PRETTY_FUNCTION__._ZNK6String5derefEv = private unnamed_addr constant [27 x i8] c"void String::deref() const\00", align 1
@.str.10 = private unnamed_addr constant [47 x i8] c"(unsigned) port < (unsigned) _nports[isoutput]\00", align 1
@.str.11 = private unnamed_addr constant [30 x i8] c"../dummy_inc/click/element.hh\00", align 1
@__PRETTY_FUNCTION__._ZNK7Element4portEbi = private unnamed_addr constant [52 x i8] c"const Element::Port &Element::port(bool, int) const\00", align 1
@.str.12 = private unnamed_addr constant [8 x i8] c"_e && p\00", align 1
@__PRETTY_FUNCTION__._ZNK7Element4Port4pushEP6Packet = private unnamed_addr constant [41 x i8] c"void Element::Port::push(Packet *) const\00", align 1
@.str.13 = private unnamed_addr constant [3 x i8] c"_e\00", align 1
@__PRETTY_FUNCTION__._ZNK7Element4Port4pullEv = private unnamed_addr constant [36 x i8] c"Packet *Element::Port::pull() const\00", align 1
@.str.14 = private unnamed_addr constant [7 x i8] c"TCPAck\00", align 1
@.str.15 = private unnamed_addr constant [4 x i8] c"2/3\00", align 1
@.str.16 = private unnamed_addr constant [7 x i8] c"aa/aah\00", align 1

@_ZN6TCPAckC1Ev = dso_local unnamed_addr alias void (%class.TCPAck*), void (%class.TCPAck*)* @_ZN6TCPAckC2Ev
@_ZN6TCPAckD1Ev = dso_local unnamed_addr alias void (%class.TCPAck*), void (%class.TCPAck*)* @_ZN6TCPAckD2Ev

; Function Attrs: sspstrong uwtable
define dso_local void @_ZN6TCPAckC2Ev(%class.TCPAck* %0) unnamed_addr #0 align 2 personality i8* bitcast (i32 (...)* @__gxx_personality_v0 to i8*) !dbg !2384 {
  call void @llvm.dbg.value(metadata %class.TCPAck* %0, metadata !4663, metadata !DIExpression()), !dbg !4665
  %2 = bitcast %class.TCPAck* %0 to %class.Element*, !dbg !4666
  tail call void @_ZN7ElementC2Ev(%class.Element* %2), !dbg !4667
  %3 = getelementptr %class.TCPAck, %class.TCPAck* %0, i64 0, i32 0, i32 0, !dbg !4666
  store i32 (...)** bitcast (i8** getelementptr inbounds ({ [29 x i8*] }, { [29 x i8*] }* @_ZTV6TCPAck, i64 0, inrange i32 0, i64 2) to i32 (...)**), i32 (...)*** %3, align 8, !dbg !4666, !tbaa !4668
  %4 = getelementptr inbounds %class.TCPAck, %class.TCPAck* %0, i64 0, i32 2, !dbg !4671
  invoke void @_ZN5TimerC1EP7Element(%class.Timer* nonnull %4, %class.Element* %2)
          to label %5 unwind label %6, !dbg !4671

5:                                                ; preds = %1
  ret void, !dbg !4672

6:                                                ; preds = %1
  %7 = landingpad { i8*, i32 }
          cleanup, !dbg !4672
  tail call void @_ZN7ElementD2Ev(%class.Element* %2) #13, !dbg !4673
  resume { i8*, i32 } %7, !dbg !4673
}

; Function Attrs: nounwind readnone speculatable willreturn
declare void @llvm.dbg.declare(metadata, metadata, metadata) #1

declare void @_ZN7ElementC2Ev(%class.Element*) unnamed_addr #2

declare void @_ZN5TimerC1EP7Element(%class.Timer*, %class.Element*) unnamed_addr #2

declare i32 @__gxx_personality_v0(...)

; Function Attrs: nounwind
declare void @_ZN7ElementD2Ev(%class.Element*) unnamed_addr #3

; Function Attrs: nounwind sspstrong uwtable
define dso_local void @_ZN6TCPAckD2Ev(%class.TCPAck* %0) unnamed_addr #4 align 2 personality i32 (...)* @__gxx_personality_v0 !dbg !4675 {
  call void @llvm.dbg.value(metadata %class.TCPAck* %0, metadata !4677, metadata !DIExpression()), !dbg !4678
  %2 = getelementptr %class.TCPAck, %class.TCPAck* %0, i64 0, i32 0, i32 0, !dbg !4679
  store i32 (...)** bitcast (i8** getelementptr inbounds ({ [29 x i8*] }, { [29 x i8*] }* @_ZTV6TCPAck, i64 0, inrange i32 0, i64 2) to i32 (...)**), i32 (...)*** %2, align 8, !dbg !4679, !tbaa !4668
  %3 = getelementptr inbounds %class.TCPAck, %class.TCPAck* %0, i64 0, i32 2, !dbg !4680
  call void @llvm.dbg.value(metadata %class.Timer* %3, metadata !4682, metadata !DIExpression()) #13, !dbg !4685
  call void @llvm.dbg.value(metadata %class.Timer* %3, metadata !4687, metadata !DIExpression()) #13, !dbg !4691
  %4 = getelementptr inbounds %class.Timer, %class.Timer* %3, i64 0, i32 0, !dbg !4695
  %5 = load i32, i32* %4, align 8, !dbg !4695, !tbaa !4696
  %6 = icmp eq i32 %5, 0, !dbg !4702
  br i1 %6, label %11, label %7, !dbg !4703

7:                                                ; preds = %1
  invoke void @_ZN5Timer10unscheduleEv(%class.Timer* nonnull %3)
          to label %11 unwind label %8, !dbg !4704

8:                                                ; preds = %7
  %9 = landingpad { i8*, i32 }
          catch i8* null, !dbg !4705
  %10 = extractvalue { i8*, i32 } %9, 0, !dbg !4705
  tail call void @__clang_call_terminate(i8* %10) #14, !dbg !4705
  unreachable, !dbg !4705

11:                                               ; preds = %1, %7
  %12 = bitcast %class.TCPAck* %0 to %class.Element*, !dbg !4680
  tail call void @_ZN7ElementD2Ev(%class.Element* %12) #13, !dbg !4680
  ret void, !dbg !4706
}

; Function Attrs: nounwind sspstrong uwtable
define dso_local void @_ZN6TCPAckD0Ev(%class.TCPAck* %0) unnamed_addr #4 align 2 personality i32 (...)* @__gxx_personality_v0 !dbg !4707 {
  call void @llvm.dbg.value(metadata %class.TCPAck* %0, metadata !4709, metadata !DIExpression()), !dbg !4710
  call void @llvm.dbg.value(metadata %class.TCPAck* %0, metadata !4677, metadata !DIExpression()) #13, !dbg !4711
  %2 = getelementptr %class.TCPAck, %class.TCPAck* %0, i64 0, i32 0, i32 0, !dbg !4713
  store i32 (...)** bitcast (i8** getelementptr inbounds ({ [29 x i8*] }, { [29 x i8*] }* @_ZTV6TCPAck, i64 0, inrange i32 0, i64 2) to i32 (...)**), i32 (...)*** %2, align 8, !dbg !4713, !tbaa !4668
  %3 = getelementptr inbounds %class.TCPAck, %class.TCPAck* %0, i64 0, i32 2, !dbg !4714
  call void @llvm.dbg.value(metadata %class.Timer* %3, metadata !4682, metadata !DIExpression()) #13, !dbg !4715
  call void @llvm.dbg.value(metadata %class.Timer* %3, metadata !4687, metadata !DIExpression()) #13, !dbg !4717
  %4 = getelementptr inbounds %class.Timer, %class.Timer* %3, i64 0, i32 0, !dbg !4719
  %5 = load i32, i32* %4, align 8, !dbg !4719, !tbaa !4696
  %6 = icmp eq i32 %5, 0, !dbg !4720
  br i1 %6, label %11, label %7, !dbg !4721

7:                                                ; preds = %1
  invoke void @_ZN5Timer10unscheduleEv(%class.Timer* nonnull %3)
          to label %11 unwind label %8, !dbg !4722

8:                                                ; preds = %7
  %9 = landingpad { i8*, i32 }
          catch i8* null, !dbg !4723
  %10 = extractvalue { i8*, i32 } %9, 0, !dbg !4723
  tail call void @__clang_call_terminate(i8* %10) #14, !dbg !4723
  unreachable, !dbg !4723

11:                                               ; preds = %1, %7
  %12 = bitcast %class.TCPAck* %0 to %class.Element*, !dbg !4714
  tail call void @_ZN7ElementD2Ev(%class.Element* %12) #13, !dbg !4714
  %13 = bitcast %class.TCPAck* %0 to i8*, !dbg !4724
  tail call void @_ZdlPv(i8* %13) #15, !dbg !4724
  ret void, !dbg !4725
}

; Function Attrs: nobuiltin nounwind
declare void @_ZdlPv(i8*) local_unnamed_addr #5

; Function Attrs: sspstrong uwtable
define dso_local i32 @_ZN6TCPAck9configureER6VectorI6StringEP12ErrorHandler(%class.TCPAck* %0, %class.Vector.0* dereferenceable(16) %1, %class.ErrorHandler* %2) unnamed_addr #0 align 2 personality i8* bitcast (i32 (...)* @__gxx_personality_v0 to i8*) !dbg !4726 {
  %4 = alloca %class.Args, align 8
  call void @llvm.dbg.value(metadata %class.TCPAck* %0, metadata !4728, metadata !DIExpression()), !dbg !4731
  call void @llvm.dbg.value(metadata %class.Vector.0* %1, metadata !4729, metadata !DIExpression()), !dbg !4731
  call void @llvm.dbg.value(metadata %class.ErrorHandler* %2, metadata !4730, metadata !DIExpression()), !dbg !4731
  %5 = getelementptr inbounds %class.TCPAck, %class.TCPAck* %0, i64 0, i32 8, !dbg !4732
  store i32 20, i32* %5, align 8, !dbg !4733, !tbaa !4734
  %6 = bitcast %class.Args* %4 to i8*, !dbg !4737
  call void @llvm.lifetime.start.p0i8(i64 112, i8* nonnull %6) #13, !dbg !4737
  %7 = bitcast %class.TCPAck* %0 to %class.Element*, !dbg !4738
  call void @_ZN4ArgsC1ERK6VectorI6StringEPK7ElementP12ErrorHandler(%class.Args* nonnull %4, %class.Vector.0* nonnull dereferenceable(16) %1, %class.Element* %7, %class.ErrorHandler* %2), !dbg !4737
  call void @llvm.dbg.value(metadata i64 3, metadata !4739, metadata !DIExpression()), !dbg !4748
  call void @llvm.dbg.value(metadata %class.Args* %4, metadata !4745, metadata !DIExpression()), !dbg !4748
  call void @llvm.dbg.value(metadata i8* getelementptr inbounds ([6 x i8], [6 x i8]* @.str, i64 0, i64 0), metadata !4746, metadata !DIExpression()), !dbg !4748
  call void @llvm.dbg.value(metadata i32* %5, metadata !4747, metadata !DIExpression()), !dbg !4748
  call void @llvm.dbg.value(metadata i64 3, metadata !4750, metadata !DIExpression()), !dbg !4760
  call void @llvm.dbg.value(metadata %class.Args* %4, metadata !4756, metadata !DIExpression()), !dbg !4760
  call void @llvm.dbg.value(metadata i8* getelementptr inbounds ([6 x i8], [6 x i8]* @.str, i64 0, i64 0), metadata !4757, metadata !DIExpression()), !dbg !4760
  call void @llvm.dbg.value(metadata i32 0, metadata !4758, metadata !DIExpression()), !dbg !4760
  call void @llvm.dbg.value(metadata i32* %5, metadata !4759, metadata !DIExpression()), !dbg !4760
  invoke void @_Z14args_base_readI10SecondsArgjEvP4ArgsPKciT_RT0_(%class.Args* nonnull %4, i8* getelementptr inbounds ([6 x i8], [6 x i8]* @.str, i64 0, i64 0), i32 0, i64 3, i32* nonnull dereferenceable(4) %5)
          to label %8 unwind label %11, !dbg !4762

8:                                                ; preds = %3
  %9 = invoke i32 @_ZN4Args8completeEv(%class.Args* nonnull %4)
          to label %10 unwind label %11, !dbg !4763

10:                                               ; preds = %8
  call void @_ZN4ArgsD1Ev(%class.Args* nonnull %4) #13, !dbg !4764
  call void @llvm.lifetime.end.p0i8(i64 112, i8* nonnull %6) #13, !dbg !4764
  ret i32 %9, !dbg !4764

11:                                               ; preds = %3, %8
  %12 = landingpad { i8*, i32 }
          cleanup, !dbg !4765
  call void @_ZN4ArgsD1Ev(%class.Args* nonnull %4) #13, !dbg !4764
  call void @llvm.lifetime.end.p0i8(i64 112, i8* nonnull %6) #13, !dbg !4764
  resume { i8*, i32 } %12, !dbg !4764
}

; Function Attrs: argmemonly nounwind willreturn
declare void @llvm.lifetime.start.p0i8(i64 immarg, i8* nocapture) #6

declare void @_ZN4ArgsC1ERK6VectorI6StringEPK7ElementP12ErrorHandler(%class.Args*, %class.Vector.0* dereferenceable(16), %class.Element*, %class.ErrorHandler*) unnamed_addr #2

declare i32 @_ZN4Args8completeEv(%class.Args*) local_unnamed_addr #2

; Function Attrs: nounwind
declare void @_ZN4ArgsD1Ev(%class.Args*) unnamed_addr #3

; Function Attrs: argmemonly nounwind willreturn
declare void @llvm.lifetime.end.p0i8(i64 immarg, i8* nocapture) #6

; Function Attrs: sspstrong uwtable
define dso_local i32 @_ZN6TCPAck10initializeEP12ErrorHandler(%class.TCPAck* %0, %class.ErrorHandler* %1) unnamed_addr #0 align 2 personality i8* bitcast (i32 (...)* @__gxx_personality_v0 to i8*) !dbg !4766 {
  %3 = alloca %class.Timestamp, align 8
  %4 = alloca %class.ElementCastTracker, align 8
  call void @llvm.dbg.value(metadata %class.TCPAck* %0, metadata !4768, metadata !DIExpression()), !dbg !4772
  call void @llvm.dbg.value(metadata %class.ErrorHandler* %1, metadata !4769, metadata !DIExpression()), !dbg !4772
  %5 = bitcast %class.ElementCastTracker* %4 to i8*, !dbg !4773
  call void @llvm.lifetime.start.p0i8(i64 72, i8* nonnull %5) #13, !dbg !4773
  call void @llvm.dbg.declare(metadata %class.ElementCastTracker* %4, metadata !4770, metadata !DIExpression()), !dbg !4774
  %6 = bitcast %class.TCPAck* %0 to %class.Element*, !dbg !4775
  call void @llvm.dbg.value(metadata %class.Element* %6, metadata !4776, metadata !DIExpression()), !dbg !4783
  %7 = getelementptr inbounds %class.TCPAck, %class.TCPAck* %0, i64 0, i32 0, i32 4, !dbg !4785
  %8 = load %class.Router*, %class.Router** %7, align 8, !dbg !4785, !tbaa !4786
  call void @llvm.dbg.value(metadata %class.String* undef, metadata !4788, metadata !DIExpression()), !dbg !4794
  call void @llvm.dbg.value(metadata i8* getelementptr inbounds ([10 x i8], [10 x i8]* @.str.1, i64 0, i64 0), metadata !4791, metadata !DIExpression()), !dbg !4794
  call void @llvm.dbg.value(metadata i32 9, metadata !4792, metadata !DIExpression()), !dbg !4794
  call void @llvm.dbg.value(metadata %"struct.String::memo_t"* null, metadata !4793, metadata !DIExpression()), !dbg !4794
  call void @llvm.dbg.value(metadata %class.ElementCastTracker* %4, metadata !4803, metadata !DIExpression()), !dbg !4813
  call void @llvm.dbg.value(metadata %class.Router* %8, metadata !4810, metadata !DIExpression()), !dbg !4813
  call void @llvm.dbg.value(metadata %class.String* undef, metadata !4811, metadata !DIExpression()), !dbg !4813
  %9 = getelementptr inbounds %class.ElementCastTracker, %class.ElementCastTracker* %4, i64 0, i32 0, !dbg !4815
  invoke void @_ZN14ElementTrackerC2EP6Router(%class.ElementTracker* nonnull %9, %class.Router* %8)
          to label %10 unwind label %23, !dbg !4816

10:                                               ; preds = %2
  %11 = getelementptr inbounds %class.ElementCastTracker, %class.ElementCastTracker* %4, i64 0, i32 0, i32 0, i32 0, !dbg !4815
  store i32 (...)** bitcast (i8** getelementptr inbounds ({ [5 x i8*] }, { [5 x i8*] }* @_ZTV18ElementCastTracker, i64 0, inrange i32 0, i64 2) to i32 (...)**), i32 (...)*** %11, align 8, !dbg !4815, !tbaa !4668
  %12 = getelementptr inbounds %class.ElementCastTracker, %class.ElementCastTracker* %4, i64 0, i32 1, !dbg !4817
  call void @llvm.dbg.value(metadata %class.String* %12, metadata !4818, metadata !DIExpression()), !dbg !4822
  call void @llvm.dbg.value(metadata %class.String* undef, metadata !4821, metadata !DIExpression()), !dbg !4822
  call void @llvm.dbg.value(metadata %class.String* %12, metadata !4824, metadata !DIExpression()), !dbg !4828
  call void @llvm.dbg.value(metadata %class.String* undef, metadata !4827, metadata !DIExpression()), !dbg !4828
  call void @llvm.dbg.value(metadata %class.String* %12, metadata !4788, metadata !DIExpression()), !dbg !4831
  call void @llvm.dbg.value(metadata i8* undef, metadata !4791, metadata !DIExpression()), !dbg !4831
  call void @llvm.dbg.value(metadata i32 9, metadata !4792, metadata !DIExpression()), !dbg !4831
  call void @llvm.dbg.value(metadata %"struct.String::memo_t"* null, metadata !4793, metadata !DIExpression()), !dbg !4831
  %13 = bitcast %class.String* %12 to i64*, !dbg !4833
  store i64 ptrtoint ([10 x i8]* @.str.1 to i64), i64* %13, align 8, !dbg !4833, !tbaa !4834
  %14 = getelementptr inbounds %class.ElementCastTracker, %class.ElementCastTracker* %4, i64 0, i32 1, i32 0, i32 1, !dbg !4837
  store i32 9, i32* %14, align 8, !dbg !4838, !tbaa !4839
  %15 = getelementptr inbounds %class.ElementCastTracker, %class.ElementCastTracker* %4, i64 0, i32 1, i32 0, i32 2, !dbg !4840
  store %"struct.String::memo_t"* null, %"struct.String::memo_t"** %15, align 8, !dbg !4842, !tbaa !4843
  call void @llvm.dbg.value(metadata %class.Element* %6, metadata !4776, metadata !DIExpression()), !dbg !4844
  %16 = load %class.Router*, %class.Router** %7, align 8, !dbg !4847, !tbaa !4786
  %17 = getelementptr inbounds %class.ElementCastTracker, %class.ElementCastTracker* %4, i64 0, i32 0, i32 0, !dbg !4848
  call void @llvm.dbg.value(metadata %class.Router* %16, metadata !4849, metadata !DIExpression()), !dbg !4855
  call void @llvm.dbg.value(metadata %class.Element* %6, metadata !4852, metadata !DIExpression()), !dbg !4855
  call void @llvm.dbg.value(metadata i32 0, metadata !4853, metadata !DIExpression()), !dbg !4855
  call void @llvm.dbg.value(metadata %class.RouterVisitor* %17, metadata !4854, metadata !DIExpression()), !dbg !4855
  %18 = invoke i32 @_ZNK6Router5visitEP7ElementbiP13RouterVisitor(%class.Router* %16, %class.Element* %6, i1 zeroext true, i32 0, %class.RouterVisitor* nonnull %17)
          to label %19 unwind label %27, !dbg !4857

19:                                               ; preds = %10
  %20 = icmp slt i32 %18, 0, !dbg !4858
  br i1 %20, label %21, label %62, !dbg !4859

21:                                               ; preds = %19
  %22 = invoke i32 (%class.ErrorHandler*, i8*, ...) @_ZN12ErrorHandler5errorEPKcz(%class.ErrorHandler* %1, i8* getelementptr inbounds ([34 x i8], [34 x i8]* @.str.2, i64 0, i64 0))
          to label %92 unwind label %27, !dbg !4860

23:                                               ; preds = %2
  %24 = landingpad { i8*, i32 }
          cleanup, !dbg !4861
  %25 = extractvalue { i8*, i32 } %24, 0, !dbg !4861
  %26 = extractvalue { i8*, i32 } %24, 1, !dbg !4861
  call void @llvm.dbg.value(metadata %class.String* undef, metadata !4862, metadata !DIExpression()) #13, !dbg !4865
  call void @llvm.dbg.value(metadata %class.String* undef, metadata !4867, metadata !DIExpression()) #13, !dbg !4870
  br label %126, !dbg !4774

27:                                               ; preds = %84, %68, %10, %78, %71, %66, %21
  %28 = landingpad { i8*, i32 }
          cleanup, !dbg !4873
  %29 = extractvalue { i8*, i32 } %28, 0, !dbg !4873
  %30 = extractvalue { i8*, i32 } %28, 1, !dbg !4873
  call void @llvm.dbg.value(metadata %class.ElementCastTracker* %4, metadata !4874, metadata !DIExpression()) #13, !dbg !4880
  store i32 (...)** bitcast (i8** getelementptr inbounds ({ [5 x i8*] }, { [5 x i8*] }* @_ZTV18ElementCastTracker, i64 0, inrange i32 0, i64 2) to i32 (...)**), i32 (...)*** %11, align 8, !dbg !4882, !tbaa !4668
  call void @llvm.dbg.value(metadata %class.ElementCastTracker* %4, metadata !4862, metadata !DIExpression(DW_OP_plus_uconst, 48, DW_OP_stack_value)) #13, !dbg !4883
  call void @llvm.dbg.value(metadata %class.ElementCastTracker* %4, metadata !4867, metadata !DIExpression(DW_OP_plus_uconst, 48, DW_OP_stack_value)) #13, !dbg !4886
  %31 = load %"struct.String::memo_t"*, %"struct.String::memo_t"** %15, align 8, !dbg !4888, !tbaa !4843
  %32 = icmp eq %"struct.String::memo_t"* %31, null, !dbg !4890
  br i1 %32, label %47, label %33, !dbg !4891

33:                                               ; preds = %27
  %34 = getelementptr inbounds %"struct.String::memo_t", %"struct.String::memo_t"* %31, i64 0, i32 0, !dbg !4892
  %35 = load volatile i32, i32* %34, align 4, !dbg !4892, !tbaa !4894
  %36 = icmp eq i32 %35, 0, !dbg !4892
  br i1 %36, label %37, label %38, !dbg !4892

37:                                               ; preds = %33
  call void @__assert_fail(i8* getelementptr inbounds ([18 x i8], [18 x i8]* @.str.8, i64 0, i64 0), i8* getelementptr inbounds ([29 x i8], [29 x i8]* @.str.9, i64 0, i64 0), i32 273, i8* getelementptr inbounds ([27 x i8], [27 x i8]* @__PRETTY_FUNCTION__._ZNK6String5derefEv, i64 0, i64 0)) #14, !dbg !4892
  unreachable, !dbg !4892

38:                                               ; preds = %33
  call void @llvm.dbg.value(metadata i32* %34, metadata !4896, metadata !DIExpression()) #13, !dbg !4899
  %39 = load volatile i32, i32* %34, align 4, !dbg !4902, !tbaa !4903
  %40 = add i32 %39, -1, !dbg !4902
  store volatile i32 %40, i32* %34, align 4, !dbg !4902, !tbaa !4903
  %41 = icmp eq i32 %40, 0, !dbg !4904
  br i1 %41, label %42, label %43, !dbg !4905

42:                                               ; preds = %38
  invoke void @_ZN6String11delete_memoEPNS_6memo_tE(%"struct.String::memo_t"* nonnull %31)
          to label %43 unwind label %44, !dbg !4906

43:                                               ; preds = %42, %38
  store %"struct.String::memo_t"* null, %"struct.String::memo_t"** %15, align 8, !dbg !4907, !tbaa !4843
  br label %47, !dbg !4908

44:                                               ; preds = %42
  %45 = landingpad { i8*, i32 }
          catch i8* null, !dbg !4909
  %46 = extractvalue { i8*, i32 } %45, 0, !dbg !4909
  call void @__clang_call_terminate(i8* %46) #14, !dbg !4909
  unreachable, !dbg !4909

47:                                               ; preds = %43, %27
  call void @llvm.dbg.value(metadata %class.ElementCastTracker* %4, metadata !4910, metadata !DIExpression()) #13, !dbg !5071
  store i32 (...)** bitcast (i8** getelementptr inbounds ({ [5 x i8*] }, { [5 x i8*] }* @_ZTV14ElementTracker, i64 0, inrange i32 0, i64 2) to i32 (...)**), i32 (...)*** %11, align 8, !dbg !5073, !tbaa !4668
  %48 = getelementptr inbounds %class.ElementCastTracker, %class.ElementCastTracker* %4, i64 0, i32 0, i32 2, !dbg !5074
  call void @llvm.dbg.value(metadata %class.Vector* %48, metadata !5076, metadata !DIExpression()) #13, !dbg !5081
  call void @llvm.dbg.value(metadata %class.Vector* %48, metadata !5083, metadata !DIExpression()) #13, !dbg !5088
  %49 = bitcast %class.Vector* %48 to i8**, !dbg !5091
  %50 = load i8*, i8** %49, align 8, !dbg !5093, !tbaa !5094
  %51 = icmp eq i8* %50, null, !dbg !5093
  br i1 %51, label %53, label %52, !dbg !5093

52:                                               ; preds = %47
  call void @_ZdaPv(i8* nonnull %50) #15, !dbg !5093
  br label %53, !dbg !5093

53:                                               ; preds = %52, %47
  call void @llvm.dbg.value(metadata %class.ElementCastTracker* %4, metadata !5096, metadata !DIExpression(DW_OP_plus_uconst, 8, DW_OP_stack_value)) #13, !dbg !5100
  %54 = getelementptr inbounds %class.ElementCastTracker, %class.ElementCastTracker* %4, i64 0, i32 0, i32 1, i32 1, !dbg !5102
  %55 = load i32*, i32** %54, align 8, !dbg !5102, !tbaa !5105
  %56 = getelementptr inbounds %class.ElementCastTracker, %class.ElementCastTracker* %4, i64 0, i32 0, i32 1, i32 2, i64 0, !dbg !5107
  %57 = icmp eq i32* %55, %56, !dbg !5108
  %58 = icmp eq i32* %55, null, !dbg !5109
  %59 = or i1 %57, %58, !dbg !5110
  br i1 %59, label %126, label %60, !dbg !5110

60:                                               ; preds = %53
  %61 = bitcast i32* %55 to i8*, !dbg !5109
  call void @_ZdaPv(i8* %61) #15, !dbg !5109
  br label %126, !dbg !5109

62:                                               ; preds = %19
  call void @llvm.dbg.value(metadata %class.ElementTracker* %9, metadata !5111, metadata !DIExpression()), !dbg !5115
  call void @llvm.dbg.value(metadata %class.ElementTracker* %9, metadata !5118, metadata !DIExpression(DW_OP_plus_uconst, 32, DW_OP_stack_value)), !dbg !5122
  %63 = getelementptr inbounds %class.ElementCastTracker, %class.ElementCastTracker* %4, i64 0, i32 0, i32 2, i32 0, i32 1, !dbg !5124
  %64 = load i32, i32* %63, align 8, !dbg !5124, !tbaa !5125
  %65 = icmp slt i32 %64, 1, !dbg !5127
  br i1 %65, label %66, label %68, !dbg !5128

66:                                               ; preds = %62
  %67 = invoke i32 (%class.ErrorHandler*, i8*, ...) @_ZN12ErrorHandler5errorEPKcz(%class.ErrorHandler* %1, i8* getelementptr inbounds ([37 x i8], [37 x i8]* @.str.3, i64 0, i64 0))
          to label %92 unwind label %27, !dbg !5129

68:                                               ; preds = %62
  call void @llvm.dbg.value(metadata %class.ElementTracker* %9, metadata !5130, metadata !DIExpression()), !dbg !5134
  call void @llvm.dbg.value(metadata i32 0, metadata !5133, metadata !DIExpression()), !dbg !5134
  %69 = getelementptr inbounds %class.ElementCastTracker, %class.ElementCastTracker* %4, i64 0, i32 0, i32 2, !dbg !5136
  %70 = invoke dereferenceable(8) %class.Element** @_ZNK6VectorIP7ElementEixEi(%class.Vector* nonnull %69, i32 0)
          to label %71 unwind label %27, !dbg !5136

71:                                               ; preds = %68
  %72 = load %class.Element*, %class.Element** %70, align 8, !dbg !5136, !tbaa !5137
  %73 = bitcast %class.Element* %72 to i8* (%class.Element*, i8*)***, !dbg !5138
  %74 = load i8* (%class.Element*, i8*)**, i8* (%class.Element*, i8*)*** %73, align 8, !dbg !5138, !tbaa !4668
  %75 = getelementptr inbounds i8* (%class.Element*, i8*)*, i8* (%class.Element*, i8*)** %74, i64 14, !dbg !5138
  %76 = load i8* (%class.Element*, i8*)*, i8* (%class.Element*, i8*)** %75, align 8, !dbg !5138
  %77 = invoke i8* %76(%class.Element* %72, i8* getelementptr inbounds ([10 x i8], [10 x i8]* @.str.1, i64 0, i64 0))
          to label %78 unwind label %27, !dbg !5138

78:                                               ; preds = %71
  %79 = getelementptr inbounds %class.TCPAck, %class.TCPAck* %0, i64 0, i32 7, !dbg !5139
  %80 = bitcast %class.TCPBuffer** %79 to i8**, !dbg !5140
  store i8* %77, i8** %80, align 8, !dbg !5140, !tbaa !5141
  %81 = getelementptr inbounds %class.TCPAck, %class.TCPAck* %0, i64 0, i32 3, !dbg !5142
  store i8 0, i8* %81, align 8, !dbg !5143, !tbaa !5144
  %82 = getelementptr inbounds %class.TCPAck, %class.TCPAck* %0, i64 0, i32 4, !dbg !5145
  store i8 0, i8* %82, align 1, !dbg !5146, !tbaa !5147
  %83 = getelementptr inbounds %class.TCPAck, %class.TCPAck* %0, i64 0, i32 2, !dbg !5148
  invoke void @_ZN5Timer10initializeEP7Elementb(%class.Timer* nonnull %83, %class.Element* nonnull %6, i1 zeroext false)
          to label %84 unwind label %27, !dbg !5149

84:                                               ; preds = %78
  %85 = getelementptr inbounds %class.TCPAck, %class.TCPAck* %0, i64 0, i32 8, !dbg !5150
  %86 = load i32, i32* %85, align 8, !dbg !5150, !tbaa !4734
  call void @llvm.dbg.value(metadata %class.Timer* %83, metadata !5151, metadata !DIExpression()), !dbg !5155
  call void @llvm.dbg.value(metadata i32 %86, metadata !5154, metadata !DIExpression()), !dbg !5155
  %87 = bitcast %class.Timestamp* %3 to i8*, !dbg !5157
  call void @llvm.lifetime.start.p0i8(i64 8, i8* nonnull %87) #13, !dbg !5157
  %88 = zext i32 %86 to i64, !dbg !5158
  call void @llvm.dbg.value(metadata i64 %88, metadata !5159, metadata !DIExpression()), !dbg !5163
  %89 = mul nuw nsw i64 %88, 1000000, !dbg !5165
  call void @llvm.dbg.value(metadata i64 %89, metadata !5162, metadata !DIExpression()), !dbg !5163
  %90 = getelementptr inbounds %class.Timestamp, %class.Timestamp* %3, i64 0, i32 0, i32 0, !dbg !5157
  store i64 %89, i64* %90, align 8, !dbg !5157
  invoke void @_ZN5Timer14schedule_afterERK9Timestamp(%class.Timer* nonnull %83, %class.Timestamp* nonnull dereferenceable(8) %3)
          to label %91 unwind label %27, !dbg !5166

91:                                               ; preds = %84
  call void @llvm.lifetime.end.p0i8(i64 8, i8* nonnull %87) #13, !dbg !5166
  br label %92, !dbg !5167

92:                                               ; preds = %91, %66, %21
  %93 = phi i32 [ %22, %21 ], [ %67, %66 ], [ 0, %91 ], !dbg !4772
  call void @llvm.dbg.value(metadata %class.ElementCastTracker* %4, metadata !4874, metadata !DIExpression()) #13, !dbg !5168
  store i32 (...)** bitcast (i8** getelementptr inbounds ({ [5 x i8*] }, { [5 x i8*] }* @_ZTV18ElementCastTracker, i64 0, inrange i32 0, i64 2) to i32 (...)**), i32 (...)*** %11, align 8, !dbg !5170, !tbaa !4668
  call void @llvm.dbg.value(metadata %class.ElementCastTracker* %4, metadata !4862, metadata !DIExpression(DW_OP_plus_uconst, 48, DW_OP_stack_value)) #13, !dbg !5171
  call void @llvm.dbg.value(metadata %class.ElementCastTracker* %4, metadata !4867, metadata !DIExpression(DW_OP_plus_uconst, 48, DW_OP_stack_value)) #13, !dbg !5173
  %94 = load %"struct.String::memo_t"*, %"struct.String::memo_t"** %15, align 8, !dbg !5175, !tbaa !4843
  %95 = icmp eq %"struct.String::memo_t"* %94, null, !dbg !5176
  br i1 %95, label %110, label %96, !dbg !5177

96:                                               ; preds = %92
  %97 = getelementptr inbounds %"struct.String::memo_t", %"struct.String::memo_t"* %94, i64 0, i32 0, !dbg !5178
  %98 = load volatile i32, i32* %97, align 4, !dbg !5178, !tbaa !4894
  %99 = icmp eq i32 %98, 0, !dbg !5178
  br i1 %99, label %100, label %101, !dbg !5178

100:                                              ; preds = %96
  call void @__assert_fail(i8* getelementptr inbounds ([18 x i8], [18 x i8]* @.str.8, i64 0, i64 0), i8* getelementptr inbounds ([29 x i8], [29 x i8]* @.str.9, i64 0, i64 0), i32 273, i8* getelementptr inbounds ([27 x i8], [27 x i8]* @__PRETTY_FUNCTION__._ZNK6String5derefEv, i64 0, i64 0)) #14, !dbg !5178
  unreachable, !dbg !5178

101:                                              ; preds = %96
  call void @llvm.dbg.value(metadata i32* %97, metadata !4896, metadata !DIExpression()) #13, !dbg !5179
  %102 = load volatile i32, i32* %97, align 4, !dbg !5181, !tbaa !4903
  %103 = add i32 %102, -1, !dbg !5181
  store volatile i32 %103, i32* %97, align 4, !dbg !5181, !tbaa !4903
  %104 = icmp eq i32 %103, 0, !dbg !5182
  br i1 %104, label %105, label %106, !dbg !5183

105:                                              ; preds = %101
  invoke void @_ZN6String11delete_memoEPNS_6memo_tE(%"struct.String::memo_t"* nonnull %94)
          to label %106 unwind label %107, !dbg !5184

106:                                              ; preds = %105, %101
  store %"struct.String::memo_t"* null, %"struct.String::memo_t"** %15, align 8, !dbg !5185, !tbaa !4843
  br label %110, !dbg !5186

107:                                              ; preds = %105
  %108 = landingpad { i8*, i32 }
          catch i8* null, !dbg !5187
  %109 = extractvalue { i8*, i32 } %108, 0, !dbg !5187
  call void @__clang_call_terminate(i8* %109) #14, !dbg !5187
  unreachable, !dbg !5187

110:                                              ; preds = %106, %92
  call void @llvm.dbg.value(metadata %class.ElementCastTracker* %4, metadata !4910, metadata !DIExpression()) #13, !dbg !5188
  store i32 (...)** bitcast (i8** getelementptr inbounds ({ [5 x i8*] }, { [5 x i8*] }* @_ZTV14ElementTracker, i64 0, inrange i32 0, i64 2) to i32 (...)**), i32 (...)*** %11, align 8, !dbg !5190, !tbaa !4668
  %111 = getelementptr inbounds %class.ElementCastTracker, %class.ElementCastTracker* %4, i64 0, i32 0, i32 2, !dbg !5191
  call void @llvm.dbg.value(metadata %class.Vector* %111, metadata !5076, metadata !DIExpression()) #13, !dbg !5192
  call void @llvm.dbg.value(metadata %class.Vector* %111, metadata !5083, metadata !DIExpression()) #13, !dbg !5194
  %112 = bitcast %class.Vector* %111 to i8**, !dbg !5196
  %113 = load i8*, i8** %112, align 8, !dbg !5197, !tbaa !5094
  %114 = icmp eq i8* %113, null, !dbg !5197
  br i1 %114, label %116, label %115, !dbg !5197

115:                                              ; preds = %110
  call void @_ZdaPv(i8* nonnull %113) #15, !dbg !5197
  br label %116, !dbg !5197

116:                                              ; preds = %115, %110
  call void @llvm.dbg.value(metadata %class.ElementCastTracker* %4, metadata !5096, metadata !DIExpression(DW_OP_plus_uconst, 8, DW_OP_stack_value)) #13, !dbg !5198
  %117 = getelementptr inbounds %class.ElementCastTracker, %class.ElementCastTracker* %4, i64 0, i32 0, i32 1, i32 1, !dbg !5200
  %118 = load i32*, i32** %117, align 8, !dbg !5200, !tbaa !5105
  %119 = getelementptr inbounds %class.ElementCastTracker, %class.ElementCastTracker* %4, i64 0, i32 0, i32 1, i32 2, i64 0, !dbg !5201
  %120 = icmp eq i32* %118, %119, !dbg !5202
  %121 = icmp eq i32* %118, null, !dbg !5203
  %122 = or i1 %120, %121, !dbg !5204
  br i1 %122, label %125, label %123, !dbg !5204

123:                                              ; preds = %116
  %124 = bitcast i32* %118 to i8*, !dbg !5203
  call void @_ZdaPv(i8* %124) #15, !dbg !5203
  br label %125, !dbg !5203

125:                                              ; preds = %116, %123
  call void @llvm.lifetime.end.p0i8(i64 72, i8* nonnull %5) #13, !dbg !4861
  ret i32 %93, !dbg !4861

126:                                              ; preds = %60, %53, %23
  %127 = phi i8* [ %25, %23 ], [ %29, %53 ], [ %29, %60 ], !dbg !4772
  %128 = phi i32 [ %26, %23 ], [ %30, %53 ], [ %30, %60 ], !dbg !4772
  call void @llvm.lifetime.end.p0i8(i64 72, i8* nonnull %5) #13, !dbg !4861
  %129 = insertvalue { i8*, i32 } undef, i8* %127, 0, !dbg !4861
  %130 = insertvalue { i8*, i32 } %129, i32 %128, 1, !dbg !4861
  resume { i8*, i32 } %130, !dbg !4861
}

declare i32 @_ZN12ErrorHandler5errorEPKcz(%class.ErrorHandler*, i8*, ...) local_unnamed_addr #2

declare void @_ZN5Timer10initializeEP7Elementb(%class.Timer*, %class.Element*, i1 zeroext) local_unnamed_addr #2

; Function Attrs: sspstrong uwtable
define dso_local void @_ZN6TCPAck4pushEiP6Packet(%class.TCPAck* %0, i32 %1, %class.Packet* %2) unnamed_addr #0 align 2 !dbg !5205 {
  call void @llvm.dbg.value(metadata %class.TCPAck* %0, metadata !5207, metadata !DIExpression()), !dbg !5211
  call void @llvm.dbg.value(metadata i32 %1, metadata !5208, metadata !DIExpression()), !dbg !5211
  call void @llvm.dbg.value(metadata %class.Packet* %2, metadata !5209, metadata !DIExpression()), !dbg !5211
  %4 = icmp eq i32 %1, 0, !dbg !5212
  br i1 %4, label %32, label %5, !dbg !5214

5:                                                ; preds = %3
  call void @llvm.dbg.value(metadata %class.TCPAck* %0, metadata !5215, metadata !DIExpression()), !dbg !5221
  call void @llvm.dbg.value(metadata %class.Packet* %2, metadata !5218, metadata !DIExpression()), !dbg !5221
  call void @llvm.dbg.value(metadata %class.Packet* %2, metadata !5223, metadata !DIExpression()), !dbg !5226
  %6 = tail call i8* @_ZNK6Packet16transport_headerEv(%class.Packet* %2), !dbg !5228
  call void @llvm.dbg.value(metadata i8* %6, metadata !5219, metadata !DIExpression()), !dbg !5221
  %7 = getelementptr inbounds i8, i8* %6, i64 13, !dbg !5229
  %8 = load i8, i8* %7, align 1, !dbg !5229, !tbaa !5231
  %9 = and i8 %8, 18, !dbg !5234
  %10 = icmp eq i8 %9, 18, !dbg !5235
  br i1 %10, label %11, label %18, !dbg !5236

11:                                               ; preds = %5
  call void @llvm.dbg.value(metadata i8* %6, metadata !5219, metadata !DIExpression()), !dbg !5221
  %12 = getelementptr inbounds i8, i8* %6, i64 8, !dbg !5237
  %13 = bitcast i8* %12 to i32*, !dbg !5237
  %14 = load i32, i32* %13, align 4, !dbg !5237, !tbaa !5239
  call void @llvm.dbg.value(metadata i32 %14, metadata !5240, metadata !DIExpression()) #13, !dbg !5246
  %15 = tail call i32 @llvm.bswap.i32(i32 %14) #13, !dbg !5248
  %16 = getelementptr inbounds %class.TCPAck, %class.TCPAck* %0, i64 0, i32 6, !dbg !5249
  store i32 %15, i32* %16, align 4, !dbg !5250, !tbaa !5251
  %17 = getelementptr inbounds %class.TCPAck, %class.TCPAck* %0, i64 0, i32 3, !dbg !5252
  store i8 1, i8* %17, align 8, !dbg !5253, !tbaa !5144
  br label %22, !dbg !5254

18:                                               ; preds = %5
  %19 = getelementptr inbounds %class.TCPAck, %class.TCPAck* %0, i64 0, i32 3, !dbg !5255
  %20 = load i8, i8* %19, align 8, !dbg !5257, !tbaa !5144, !range !5258
  %21 = icmp eq i8 %20, 0, !dbg !5236
  br i1 %21, label %37, label %22, !dbg !5254

22:                                               ; preds = %11, %18
  %23 = getelementptr inbounds %class.TCPAck, %class.TCPAck* %0, i64 0, i32 4, !dbg !5259
  store i8 0, i8* %23, align 1, !dbg !5260, !tbaa !5147
  %24 = tail call %class.WritablePacket* @_ZN6Packet9uniqueifyEv(%class.Packet* %2), !dbg !5261
  call void @llvm.dbg.value(metadata %class.WritablePacket* %24, metadata !5262, metadata !DIExpression()), !dbg !5266
  %25 = getelementptr %class.WritablePacket, %class.WritablePacket* %24, i64 0, i32 0, !dbg !5268
  call void @llvm.dbg.value(metadata %class.Packet* %25, metadata !5223, metadata !DIExpression()), !dbg !5269
  %26 = tail call i8* @_ZNK6Packet16transport_headerEv(%class.Packet* %25), !dbg !5271
  call void @llvm.dbg.value(metadata i8* %26, metadata !5220, metadata !DIExpression()), !dbg !5221
  %27 = getelementptr inbounds %class.TCPAck, %class.TCPAck* %0, i64 0, i32 6, !dbg !5272
  %28 = load i32, i32* %27, align 4, !dbg !5272, !tbaa !5251
  call void @llvm.dbg.value(metadata i32 %28, metadata !5240, metadata !DIExpression()) #13, !dbg !5273
  %29 = tail call i32 @llvm.bswap.i32(i32 %28) #13, !dbg !5275
  %30 = getelementptr inbounds i8, i8* %26, i64 8, !dbg !5276
  %31 = bitcast i8* %30 to i32*, !dbg !5276
  store i32 %29, i32* %31, align 4, !dbg !5277, !tbaa !5239
  call void @llvm.dbg.value(metadata i1 %33, metadata !5210, metadata !DIExpression()), !dbg !5211
  br label %34, !dbg !5278

32:                                               ; preds = %3
  %33 = tail call zeroext i1 @_ZN6TCPAck4iputEP6Packet(%class.TCPAck* %0, %class.Packet* %2), !dbg !5279
  call void @llvm.dbg.value(metadata i1 %33, metadata !5210, metadata !DIExpression()), !dbg !5211
  call void @llvm.dbg.value(metadata i1 %33, metadata !5210, metadata !DIExpression()), !dbg !5211
  br i1 %33, label %34, label %37, !dbg !5278

34:                                               ; preds = %22, %32
  %35 = bitcast %class.TCPAck* %0 to %class.Element*, !dbg !5280
  %36 = tail call dereferenceable(16) %"class.Element::Port"* @_ZNK7Element6outputEi(%class.Element* %35, i32 %1), !dbg !5280
  tail call void @_ZNK7Element4Port4pushEP6Packet(%"class.Element::Port"* nonnull %36, %class.Packet* %2), !dbg !5282
  br label %38, !dbg !5280

37:                                               ; preds = %18, %32
  tail call void @_ZN6Packet4killEv(%class.Packet* %2), !dbg !5283
  br label %38

38:                                               ; preds = %37, %34
  ret void, !dbg !5284
}

; Function Attrs: sspstrong uwtable
define dso_local zeroext i1 @_ZN6TCPAck4iputEP6Packet(%class.TCPAck* %0, %class.Packet* %1) local_unnamed_addr #0 align 2 !dbg !5285 {
  %3 = alloca %class.Timestamp, align 8
  call void @llvm.dbg.value(metadata %class.TCPAck* %0, metadata !5287, metadata !DIExpression()), !dbg !5293
  call void @llvm.dbg.value(metadata %class.Packet* %1, metadata !5288, metadata !DIExpression()), !dbg !5293
  call void @llvm.dbg.value(metadata %class.Packet* %1, metadata !5223, metadata !DIExpression()), !dbg !5294
  %4 = tail call i8* @_ZNK6Packet16transport_headerEv(%class.Packet* %1), !dbg !5296
  call void @llvm.dbg.value(metadata i8* %4, metadata !5289, metadata !DIExpression()), !dbg !5293
  %5 = getelementptr inbounds %class.TCPAck, %class.TCPAck* %0, i64 0, i32 3, !dbg !5297
  %6 = load i8, i8* %5, align 8, !dbg !5297, !tbaa !5144, !range !5258
  %7 = icmp eq i8 %6, 0, !dbg !5297
  %8 = getelementptr inbounds i8, i8* %4, i64 13, !dbg !5293
  %9 = load i8, i8* %8, align 1, !dbg !5293, !tbaa !5231
  br i1 %7, label %10, label %20, !dbg !5299

10:                                               ; preds = %2
  %11 = and i8 %9, 18, !dbg !5300
  %12 = icmp eq i8 %11, 18, !dbg !5301
  br i1 %12, label %13, label %77, !dbg !5302

13:                                               ; preds = %10
  %14 = getelementptr inbounds i8, i8* %4, i64 4, !dbg !5303
  %15 = bitcast i8* %14 to i32*, !dbg !5303
  %16 = load i32, i32* %15, align 4, !dbg !5303, !tbaa !5305
  call void @llvm.dbg.value(metadata i32 %16, metadata !5240, metadata !DIExpression()) #13, !dbg !5306
  %17 = tail call i32 @llvm.bswap.i32(i32 %16) #13, !dbg !5308
  %18 = add i32 %17, 1, !dbg !5309
  %19 = getelementptr inbounds %class.TCPAck, %class.TCPAck* %0, i64 0, i32 6, !dbg !5310
  store i32 %18, i32* %19, align 4, !dbg !5311, !tbaa !5251
  store i8 1, i8* %5, align 8, !dbg !5312, !tbaa !5144
  br label %20, !dbg !5313

20:                                               ; preds = %2, %13
  %21 = and i8 %9, 7, !dbg !5314
  %22 = icmp eq i8 %21, 0, !dbg !5316
  br i1 %22, label %23, label %77, !dbg !5317

23:                                               ; preds = %20
  call void @llvm.dbg.value(metadata %class.Packet* %1, metadata !5318, metadata !DIExpression()), !dbg !5325
  %24 = tail call i8* @_ZNK6Packet16transport_headerEv(%class.Packet* %1), !dbg !5327
  call void @llvm.dbg.value(metadata i8* %24, metadata !5324, metadata !DIExpression()), !dbg !5325
  %25 = getelementptr inbounds i8, i8* %24, i64 4, !dbg !5328
  %26 = bitcast i8* %25 to i32*, !dbg !5328
  %27 = load i32, i32* %26, align 4, !dbg !5328, !tbaa !5305
  call void @llvm.dbg.value(metadata i32 %27, metadata !5240, metadata !DIExpression()) #13, !dbg !5329
  %28 = tail call i32 @llvm.bswap.i32(i32 %27) #13, !dbg !5331
  %29 = getelementptr inbounds %class.TCPAck, %class.TCPAck* %0, i64 0, i32 6, !dbg !5332
  %30 = load i32, i32* %29, align 4, !dbg !5332, !tbaa !5251
  %31 = icmp eq i32 %28, %30, !dbg !5333
  br i1 %31, label %32, label %63, !dbg !5334

32:                                               ; preds = %23
  call void @llvm.dbg.value(metadata %class.Packet* %1, metadata !5335, metadata !DIExpression()), !dbg !5342
  %33 = tail call %struct.click_ip* @_ZNK6Packet9ip_headerEv(%class.Packet* %1), !dbg !5344
  call void @llvm.dbg.value(metadata %struct.click_ip* %33, metadata !5339, metadata !DIExpression()), !dbg !5342
  %34 = tail call i8* @_ZNK6Packet16transport_headerEv(%class.Packet* %1), !dbg !5345
  call void @llvm.dbg.value(metadata i8* %34, metadata !5340, metadata !DIExpression()), !dbg !5342
  %35 = getelementptr inbounds %struct.click_ip, %struct.click_ip* %33, i64 0, i32 2, !dbg !5346
  %36 = load i16, i16* %35, align 2, !dbg !5346, !tbaa !5347
  %37 = tail call i16 @llvm.bswap.i16(i16 %36) #13
  %38 = zext i16 %37 to i32, !dbg !5346
  %39 = getelementptr %struct.click_ip, %struct.click_ip* %33, i64 0, i32 0, !dbg !5350
  %40 = load i8, i8* %39, align 4, !dbg !5350
  %41 = shl i8 %40, 2, !dbg !5351
  %42 = and i8 %41, 60, !dbg !5351
  %43 = zext i8 %42 to i32, !dbg !5351
  %44 = sub nsw i32 %38, %43, !dbg !5352
  %45 = getelementptr inbounds i8, i8* %34, i64 12, !dbg !5353
  %46 = load i8, i8* %45, align 4, !dbg !5353
  %47 = lshr i8 %46, 4, !dbg !5353
  %48 = shl nuw nsw i8 %47, 2, !dbg !5354
  %49 = zext i8 %48 to i32, !dbg !5354
  call void @llvm.dbg.value(metadata i32 undef, metadata !5341, metadata !DIExpression()), !dbg !5342
  %50 = getelementptr inbounds i8, i8* %34, i64 13, !dbg !5355
  %51 = load i8, i8* %50, align 1, !dbg !5355, !tbaa !5231
  %52 = and i8 %51, 3, !dbg !5357
  %53 = icmp ne i8 %52, 0, !dbg !5357
  %54 = zext i1 %53 to i32, !dbg !5357
  call void @llvm.dbg.value(metadata i32 undef, metadata !5341, metadata !DIExpression()), !dbg !5342
  %55 = load i32, i32* %29, align 4, !dbg !5358, !tbaa !5251
  %56 = add i32 %44, %55, !dbg !5359
  %57 = sub i32 %56, %49, !dbg !5357
  %58 = add i32 %57, %54, !dbg !5358
  store i32 %58, i32* %29, align 4, !dbg !5358, !tbaa !5251
  %59 = getelementptr inbounds %class.TCPAck, %class.TCPAck* %0, i64 0, i32 7, !dbg !5360
  %60 = load %class.TCPBuffer*, %class.TCPBuffer** %59, align 8, !dbg !5360, !tbaa !5141
  %61 = tail call zeroext i1 @_ZN9TCPBuffer19next_missing_seq_noEjRj(%class.TCPBuffer* %60, i32 %58, i32* nonnull dereferenceable(4) %29), !dbg !5361
  call void @llvm.dbg.value(metadata i1 %61, metadata !5290, metadata !DIExpression()), !dbg !5362
  br i1 %61, label %64, label %62, !dbg !5363

62:                                               ; preds = %32
  tail call void @__assert_fail(i8* getelementptr inbounds ([2 x i8], [2 x i8]* @.str.4, i64 0, i64 0), i8* getelementptr inbounds ([28 x i8], [28 x i8]* @.str.5, i64 0, i64 0), i32 122, i8* getelementptr inbounds ([28 x i8], [28 x i8]* @__PRETTY_FUNCTION__._ZN6TCPAck4iputEP6Packet, i64 0, i64 0)) #14, !dbg !5363
  unreachable, !dbg !5363

63:                                               ; preds = %23
  tail call void (i8*, ...) @click_chatter(i8* getelementptr inbounds ([54 x i8], [54 x i8]* @.str.6, i64 0, i64 0)), !dbg !5364
  br label %64

64:                                               ; preds = %32, %63
  %65 = getelementptr inbounds %class.TCPAck, %class.TCPAck* %0, i64 0, i32 4, !dbg !5366
  store i8 1, i8* %65, align 1, !dbg !5367, !tbaa !5147
  %66 = getelementptr inbounds %class.TCPAck, %class.TCPAck* %0, i64 0, i32 2, !dbg !5368
  call void @llvm.dbg.value(metadata %class.Timer* %66, metadata !4687, metadata !DIExpression()), !dbg !5370
  %67 = getelementptr inbounds %class.Timer, %class.Timer* %66, i64 0, i32 0, !dbg !5372
  %68 = load i32, i32* %67, align 8, !dbg !5372, !tbaa !4696
  %69 = icmp eq i32 %68, 0, !dbg !5373
  br i1 %69, label %70, label %77, !dbg !5374

70:                                               ; preds = %64
  %71 = getelementptr inbounds %class.TCPAck, %class.TCPAck* %0, i64 0, i32 8, !dbg !5375
  %72 = load i32, i32* %71, align 8, !dbg !5375, !tbaa !4734
  call void @llvm.dbg.value(metadata %class.Timer* %66, metadata !5151, metadata !DIExpression()), !dbg !5376
  call void @llvm.dbg.value(metadata i32 %72, metadata !5154, metadata !DIExpression()), !dbg !5376
  %73 = bitcast %class.Timestamp* %3 to i8*, !dbg !5378
  call void @llvm.lifetime.start.p0i8(i64 8, i8* nonnull %73) #13, !dbg !5378
  %74 = zext i32 %72 to i64, !dbg !5379
  call void @llvm.dbg.value(metadata i64 %74, metadata !5159, metadata !DIExpression()), !dbg !5380
  %75 = mul nuw nsw i64 %74, 1000000, !dbg !5382
  call void @llvm.dbg.value(metadata i64 %75, metadata !5162, metadata !DIExpression()), !dbg !5380
  %76 = getelementptr inbounds %class.Timestamp, %class.Timestamp* %3, i64 0, i32 0, i32 0, !dbg !5378
  store i64 %75, i64* %76, align 8, !dbg !5378
  call void @_ZN5Timer14schedule_afterERK9Timestamp(%class.Timer* nonnull %66, %class.Timestamp* nonnull dereferenceable(8) %3), !dbg !5383
  call void @llvm.lifetime.end.p0i8(i64 8, i8* nonnull %73) #13, !dbg !5383
  br label %77, !dbg !5384

77:                                               ; preds = %10, %64, %70, %20
  %78 = phi i1 [ true, %20 ], [ true, %70 ], [ true, %64 ], [ false, %10 ], !dbg !5293
  ret i1 %78, !dbg !5385
}

; Function Attrs: sspstrong uwtable
define dso_local zeroext i1 @_ZN6TCPAck4oputEP6Packet(%class.TCPAck* nocapture %0, %class.Packet* %1) local_unnamed_addr #0 align 2 !dbg !5216 {
  call void @llvm.dbg.value(metadata %class.TCPAck* %0, metadata !5215, metadata !DIExpression()), !dbg !5386
  call void @llvm.dbg.value(metadata %class.Packet* %1, metadata !5218, metadata !DIExpression()), !dbg !5386
  call void @llvm.dbg.value(metadata %class.Packet* %1, metadata !5223, metadata !DIExpression()), !dbg !5387
  %3 = tail call i8* @_ZNK6Packet16transport_headerEv(%class.Packet* %1), !dbg !5389
  call void @llvm.dbg.value(metadata i8* %3, metadata !5219, metadata !DIExpression()), !dbg !5386
  %4 = getelementptr inbounds i8, i8* %3, i64 13, !dbg !5390
  %5 = load i8, i8* %4, align 1, !dbg !5390, !tbaa !5231
  %6 = and i8 %5, 18, !dbg !5391
  %7 = icmp eq i8 %6, 18, !dbg !5392
  br i1 %7, label %8, label %15, !dbg !5393

8:                                                ; preds = %2
  call void @llvm.dbg.value(metadata i8* %3, metadata !5219, metadata !DIExpression()), !dbg !5386
  %9 = getelementptr inbounds i8, i8* %3, i64 8, !dbg !5394
  %10 = bitcast i8* %9 to i32*, !dbg !5394
  %11 = load i32, i32* %10, align 4, !dbg !5394, !tbaa !5239
  call void @llvm.dbg.value(metadata i32 %11, metadata !5240, metadata !DIExpression()) #13, !dbg !5395
  %12 = tail call i32 @llvm.bswap.i32(i32 %11) #13, !dbg !5397
  %13 = getelementptr inbounds %class.TCPAck, %class.TCPAck* %0, i64 0, i32 6, !dbg !5398
  store i32 %12, i32* %13, align 4, !dbg !5399, !tbaa !5251
  %14 = getelementptr inbounds %class.TCPAck, %class.TCPAck* %0, i64 0, i32 3, !dbg !5400
  store i8 1, i8* %14, align 8, !dbg !5401, !tbaa !5144
  br label %19, !dbg !5402

15:                                               ; preds = %2
  %16 = getelementptr inbounds %class.TCPAck, %class.TCPAck* %0, i64 0, i32 3, !dbg !5403
  %17 = load i8, i8* %16, align 8, !dbg !5404, !tbaa !5144, !range !5258
  %18 = icmp eq i8 %17, 0, !dbg !5393
  br i1 %18, label %29, label %19, !dbg !5402

19:                                               ; preds = %8, %15
  %20 = getelementptr inbounds %class.TCPAck, %class.TCPAck* %0, i64 0, i32 4, !dbg !5405
  store i8 0, i8* %20, align 1, !dbg !5406, !tbaa !5147
  %21 = tail call %class.WritablePacket* @_ZN6Packet9uniqueifyEv(%class.Packet* %1), !dbg !5407
  call void @llvm.dbg.value(metadata %class.WritablePacket* %21, metadata !5262, metadata !DIExpression()), !dbg !5408
  %22 = getelementptr %class.WritablePacket, %class.WritablePacket* %21, i64 0, i32 0, !dbg !5410
  call void @llvm.dbg.value(metadata %class.Packet* %22, metadata !5223, metadata !DIExpression()), !dbg !5411
  %23 = tail call i8* @_ZNK6Packet16transport_headerEv(%class.Packet* %22), !dbg !5413
  call void @llvm.dbg.value(metadata i8* %23, metadata !5220, metadata !DIExpression()), !dbg !5386
  %24 = getelementptr inbounds %class.TCPAck, %class.TCPAck* %0, i64 0, i32 6, !dbg !5414
  %25 = load i32, i32* %24, align 4, !dbg !5414, !tbaa !5251
  call void @llvm.dbg.value(metadata i32 %25, metadata !5240, metadata !DIExpression()) #13, !dbg !5415
  %26 = tail call i32 @llvm.bswap.i32(i32 %25) #13, !dbg !5417
  %27 = getelementptr inbounds i8, i8* %23, i64 8, !dbg !5418
  %28 = bitcast i8* %27 to i32*, !dbg !5418
  store i32 %26, i32* %28, align 4, !dbg !5419, !tbaa !5239
  br label %29

29:                                               ; preds = %15, %19
  %30 = phi i1 [ true, %19 ], [ false, %15 ], !dbg !5386
  ret i1 %30, !dbg !5420
}

; Function Attrs: noinline optnone sspstrong uwtable
define linkonce_odr dso_local dereferenceable(16) %"class.Element::Port"* @_ZNK7Element6outputEi(%class.Element* %0, i32 %1) local_unnamed_addr #7 comdat align 2 !dbg !5421 {
  %3 = alloca %class.Element*, align 8
  %4 = alloca i32, align 4
  store %class.Element* %0, %class.Element** %3, align 8, !tbaa !5137
  call void @llvm.dbg.declare(metadata %class.Element** %3, metadata !5458, metadata !DIExpression()), !dbg !5460
  store i32 %1, i32* %4, align 4, !tbaa !4903
  call void @llvm.dbg.declare(metadata i32* %4, metadata !5459, metadata !DIExpression()), !dbg !5461
  %5 = load %class.Element*, %class.Element** %3, align 8
  %6 = load i32, i32* %4, align 4, !dbg !5462, !tbaa !4903
  %7 = call dereferenceable(16) %"class.Element::Port"* @_ZNK7Element4portEbi(%class.Element* %5, i1 zeroext true, i32 %6), !dbg !5463
  ret %"class.Element::Port"* %7, !dbg !5464
}

; Function Attrs: noinline optnone sspstrong uwtable
define linkonce_odr dso_local void @_ZNK7Element4Port4pushEP6Packet(%"class.Element::Port"* %0, %class.Packet* %1) local_unnamed_addr #7 comdat align 2 !dbg !5465 {
  %3 = alloca %"class.Element::Port"*, align 8
  %4 = alloca %class.Packet*, align 8
  store %"class.Element::Port"* %0, %"class.Element::Port"** %3, align 8, !tbaa !5137
  call void @llvm.dbg.declare(metadata %"class.Element::Port"** %3, metadata !5467, metadata !DIExpression()), !dbg !5470
  store %class.Packet* %1, %class.Packet** %4, align 8, !tbaa !5137
  call void @llvm.dbg.declare(metadata %class.Packet** %4, metadata !5469, metadata !DIExpression()), !dbg !5471
  %5 = load %"class.Element::Port"*, %"class.Element::Port"** %3, align 8
  %6 = getelementptr inbounds %"class.Element::Port", %"class.Element::Port"* %5, i32 0, i32 0, !dbg !5472
  %7 = load %class.Element*, %class.Element** %6, align 8, !dbg !5472, !tbaa !5473
  %8 = icmp ne %class.Element* %7, null, !dbg !5472
  br i1 %8, label %9, label %12, !dbg !5472

9:                                                ; preds = %2
  %10 = load %class.Packet*, %class.Packet** %4, align 8, !dbg !5472, !tbaa !5137
  %11 = icmp ne %class.Packet* %10, null, !dbg !5472
  br label %12

12:                                               ; preds = %9, %2
  %13 = phi i1 [ false, %2 ], [ %11, %9 ], !dbg !5470
  br i1 %13, label %14, label %15, !dbg !5472

14:                                               ; preds = %12
  br label %16, !dbg !5472

15:                                               ; preds = %12
  call void @__assert_fail(i8* getelementptr inbounds ([8 x i8], [8 x i8]* @.str.12, i64 0, i64 0), i8* getelementptr inbounds ([30 x i8], [30 x i8]* @.str.11, i64 0, i64 0), i32 611, i8* getelementptr inbounds ([41 x i8], [41 x i8]* @__PRETTY_FUNCTION__._ZNK7Element4Port4pushEP6Packet, i64 0, i64 0)) #14, !dbg !5472
  unreachable, !dbg !5472

16:                                               ; preds = %14
  %17 = getelementptr inbounds %"class.Element::Port", %"class.Element::Port"* %5, i32 0, i32 0, !dbg !5475
  %18 = load %class.Element*, %class.Element** %17, align 8, !dbg !5475, !tbaa !5473
  %19 = getelementptr inbounds %"class.Element::Port", %"class.Element::Port"* %5, i32 0, i32 1, !dbg !5476
  %20 = load i32, i32* %19, align 8, !dbg !5476, !tbaa !5477
  %21 = load %class.Packet*, %class.Packet** %4, align 8, !dbg !5478, !tbaa !5137
  %22 = bitcast %class.Element* %18 to void (%class.Element*, i32, %class.Packet*)***, !dbg !5479
  %23 = load void (%class.Element*, i32, %class.Packet*)**, void (%class.Element*, i32, %class.Packet*)*** %22, align 8, !dbg !5479, !tbaa !4668
  %24 = getelementptr inbounds void (%class.Element*, i32, %class.Packet*)*, void (%class.Element*, i32, %class.Packet*)** %23, i64 2, !dbg !5479
  %25 = load void (%class.Element*, i32, %class.Packet*)*, void (%class.Element*, i32, %class.Packet*)** %24, align 8, !dbg !5479
  call void %25(%class.Element* %18, i32 %20, %class.Packet* %21), !dbg !5479
  ret void, !dbg !5480
}

declare void @_ZN6Packet4killEv(%class.Packet*) local_unnamed_addr #2

; Function Attrs: sspstrong uwtable
define dso_local %class.Packet* @_ZN6TCPAck4pullEi(%class.TCPAck* %0, i32 %1) unnamed_addr #0 align 2 !dbg !5481 {
  call void @llvm.dbg.value(metadata %class.TCPAck* %0, metadata !5483, metadata !DIExpression()), !dbg !5487
  call void @llvm.dbg.value(metadata i32 %1, metadata !5484, metadata !DIExpression()), !dbg !5487
  %3 = bitcast %class.TCPAck* %0 to %class.Element*, !dbg !5488
  %4 = tail call dereferenceable(16) %"class.Element::Port"* @_ZNK7Element5inputEi(%class.Element* %3, i32 %1), !dbg !5488
  call void @llvm.dbg.value(metadata %"class.Element::Port"* %4, metadata !5489, metadata !DIExpression()), !dbg !5493
  %5 = getelementptr inbounds %"class.Element::Port", %"class.Element::Port"* %4, i64 0, i32 0, !dbg !5495
  %6 = load %class.Element*, %class.Element** %5, align 8, !dbg !5495, !tbaa !5473
  %7 = icmp eq %class.Element* %6, null, !dbg !5495
  br i1 %7, label %8, label %9, !dbg !5495

8:                                                ; preds = %2
  tail call void @__assert_fail(i8* getelementptr inbounds ([3 x i8], [3 x i8]* @.str.13, i64 0, i64 0), i8* getelementptr inbounds ([30 x i8], [30 x i8]* @.str.11, i64 0, i64 0), i32 657, i8* getelementptr inbounds ([36 x i8], [36 x i8]* @__PRETTY_FUNCTION__._ZNK7Element4Port4pullEv, i64 0, i64 0)) #14, !dbg !5495
  unreachable, !dbg !5495

9:                                                ; preds = %2
  %10 = getelementptr inbounds %"class.Element::Port", %"class.Element::Port"* %4, i64 0, i32 1, !dbg !5496
  %11 = load i32, i32* %10, align 8, !dbg !5496, !tbaa !5477
  %12 = bitcast %class.Element* %6 to %class.Packet* (%class.Element*, i32)***, !dbg !5497
  %13 = load %class.Packet* (%class.Element*, i32)**, %class.Packet* (%class.Element*, i32)*** %12, align 8, !dbg !5497, !tbaa !4668
  %14 = getelementptr inbounds %class.Packet* (%class.Element*, i32)*, %class.Packet* (%class.Element*, i32)** %13, i64 3, !dbg !5497
  %15 = load %class.Packet* (%class.Element*, i32)*, %class.Packet* (%class.Element*, i32)** %14, align 8, !dbg !5497
  %16 = tail call %class.Packet* %15(%class.Element* nonnull %6, i32 %11), !dbg !5497
  call void @llvm.dbg.value(metadata %class.Packet* %16, metadata !5492, metadata !DIExpression()), !dbg !5493
  call void @llvm.dbg.value(metadata %class.Packet* %16, metadata !5486, metadata !DIExpression()), !dbg !5487
  %17 = icmp eq %class.Packet* %16, null, !dbg !5498
  br i1 %17, label %50, label %18, !dbg !5500

18:                                               ; preds = %9
  %19 = icmp eq i32 %1, 0, !dbg !5501
  br i1 %19, label %47, label %20, !dbg !5504

20:                                               ; preds = %18
  call void @llvm.dbg.value(metadata %class.TCPAck* %0, metadata !5215, metadata !DIExpression()), !dbg !5505
  call void @llvm.dbg.value(metadata %class.Packet* %16, metadata !5218, metadata !DIExpression()), !dbg !5505
  call void @llvm.dbg.value(metadata %class.Packet* %16, metadata !5223, metadata !DIExpression()), !dbg !5507
  %21 = tail call i8* @_ZNK6Packet16transport_headerEv(%class.Packet* nonnull %16), !dbg !5509
  call void @llvm.dbg.value(metadata i8* %21, metadata !5219, metadata !DIExpression()), !dbg !5505
  %22 = getelementptr inbounds i8, i8* %21, i64 13, !dbg !5510
  %23 = load i8, i8* %22, align 1, !dbg !5510, !tbaa !5231
  %24 = and i8 %23, 18, !dbg !5511
  %25 = icmp eq i8 %24, 18, !dbg !5512
  br i1 %25, label %26, label %33, !dbg !5513

26:                                               ; preds = %20
  call void @llvm.dbg.value(metadata i8* %21, metadata !5219, metadata !DIExpression()), !dbg !5505
  %27 = getelementptr inbounds i8, i8* %21, i64 8, !dbg !5514
  %28 = bitcast i8* %27 to i32*, !dbg !5514
  %29 = load i32, i32* %28, align 4, !dbg !5514, !tbaa !5239
  call void @llvm.dbg.value(metadata i32 %29, metadata !5240, metadata !DIExpression()) #13, !dbg !5515
  %30 = tail call i32 @llvm.bswap.i32(i32 %29) #13, !dbg !5517
  %31 = getelementptr inbounds %class.TCPAck, %class.TCPAck* %0, i64 0, i32 6, !dbg !5518
  store i32 %30, i32* %31, align 4, !dbg !5519, !tbaa !5251
  %32 = getelementptr inbounds %class.TCPAck, %class.TCPAck* %0, i64 0, i32 3, !dbg !5520
  store i8 1, i8* %32, align 8, !dbg !5521, !tbaa !5144
  br label %37, !dbg !5522

33:                                               ; preds = %20
  %34 = getelementptr inbounds %class.TCPAck, %class.TCPAck* %0, i64 0, i32 3, !dbg !5523
  %35 = load i8, i8* %34, align 8, !dbg !5524, !tbaa !5144, !range !5258
  %36 = icmp eq i8 %35, 0, !dbg !5513
  br i1 %36, label %49, label %37, !dbg !5522

37:                                               ; preds = %26, %33
  %38 = getelementptr inbounds %class.TCPAck, %class.TCPAck* %0, i64 0, i32 4, !dbg !5525
  store i8 0, i8* %38, align 1, !dbg !5526, !tbaa !5147
  %39 = tail call %class.WritablePacket* @_ZN6Packet9uniqueifyEv(%class.Packet* nonnull %16), !dbg !5527
  call void @llvm.dbg.value(metadata %class.WritablePacket* %39, metadata !5262, metadata !DIExpression()), !dbg !5528
  %40 = getelementptr %class.WritablePacket, %class.WritablePacket* %39, i64 0, i32 0, !dbg !5530
  call void @llvm.dbg.value(metadata %class.Packet* %40, metadata !5223, metadata !DIExpression()), !dbg !5531
  %41 = tail call i8* @_ZNK6Packet16transport_headerEv(%class.Packet* %40), !dbg !5533
  call void @llvm.dbg.value(metadata i8* %41, metadata !5220, metadata !DIExpression()), !dbg !5505
  %42 = getelementptr inbounds %class.TCPAck, %class.TCPAck* %0, i64 0, i32 6, !dbg !5534
  %43 = load i32, i32* %42, align 4, !dbg !5534, !tbaa !5251
  call void @llvm.dbg.value(metadata i32 %43, metadata !5240, metadata !DIExpression()) #13, !dbg !5535
  %44 = tail call i32 @llvm.bswap.i32(i32 %43) #13, !dbg !5537
  %45 = getelementptr inbounds i8, i8* %41, i64 8, !dbg !5538
  %46 = bitcast i8* %45 to i32*, !dbg !5538
  store i32 %44, i32* %46, align 4, !dbg !5539, !tbaa !5239
  call void @llvm.dbg.value(metadata i1 %48, metadata !5485, metadata !DIExpression()), !dbg !5487
  br label %50, !dbg !5540

47:                                               ; preds = %18
  %48 = tail call zeroext i1 @_ZN6TCPAck4iputEP6Packet(%class.TCPAck* %0, %class.Packet* nonnull %16), !dbg !5541
  call void @llvm.dbg.value(metadata i1 %48, metadata !5485, metadata !DIExpression()), !dbg !5487
  call void @llvm.dbg.value(metadata i1 %48, metadata !5485, metadata !DIExpression()), !dbg !5487
  br i1 %48, label %50, label %49, !dbg !5540

49:                                               ; preds = %33, %47
  tail call void @_ZN6Packet4killEv(%class.Packet* nonnull %16), !dbg !5542
  br label %50, !dbg !5545

50:                                               ; preds = %37, %9, %47, %49
  %51 = phi %class.Packet* [ null, %49 ], [ %16, %47 ], [ null, %9 ], [ %16, %37 ], !dbg !5487
  ret %class.Packet* %51, !dbg !5546
}

; Function Attrs: noinline nounwind optnone sspstrong uwtable
define linkonce_odr dso_local dereferenceable(16) %"class.Element::Port"* @_ZNK7Element5inputEi(%class.Element* %0, i32 %1) local_unnamed_addr #8 comdat align 2 !dbg !5547 {
  %3 = alloca %class.Element*, align 8
  %4 = alloca i32, align 4
  store %class.Element* %0, %class.Element** %3, align 8, !tbaa !5137
  call void @llvm.dbg.declare(metadata %class.Element** %3, metadata !5550, metadata !DIExpression()), !dbg !5552
  store i32 %1, i32* %4, align 4, !tbaa !4903
  call void @llvm.dbg.declare(metadata i32* %4, metadata !5551, metadata !DIExpression()), !dbg !5553
  %5 = load %class.Element*, %class.Element** %3, align 8
  %6 = load i32, i32* %4, align 4, !dbg !5554, !tbaa !4903
  %7 = call dereferenceable(16) %"class.Element::Port"* @_ZNK7Element4portEbi(%class.Element* %5, i1 zeroext false, i32 %6), !dbg !5555
  ret %"class.Element::Port"* %7, !dbg !5556
}

; Function Attrs: inlinehint sspstrong uwtable
define linkonce_odr dso_local zeroext i1 @_ZN9TCPBuffer19next_missing_seq_noEjRj(%class.TCPBuffer* %0, i32 %1, i32* dereferenceable(4) %2) local_unnamed_addr #9 comdat align 2 !dbg !5557 {
  call void @llvm.dbg.value(metadata %class.TCPBuffer* %0, metadata !5563, metadata !DIExpression()), !dbg !5597
  call void @llvm.dbg.value(metadata i32 %1, metadata !5564, metadata !DIExpression()), !dbg !5597
  call void @llvm.dbg.value(metadata i32* %2, metadata !5565, metadata !DIExpression()), !dbg !5597
  %4 = getelementptr inbounds %class.TCPBuffer, %class.TCPBuffer* %0, i64 0, i32 2, !dbg !5598
  %5 = load %"class.TCPBuffer::TCPBufferElt"*, %"class.TCPBuffer::TCPBufferElt"** %4, align 8, !dbg !5598, !tbaa !5599
  call void @llvm.dbg.value(metadata %"class.TCPBuffer::TCPBufferElt"* %5, metadata !5566, metadata !DIExpression()), !dbg !5597
  %6 = getelementptr inbounds %class.TCPBuffer, %class.TCPBuffer* %0, i64 0, i32 4, !dbg !5601
  %7 = load i32, i32* %6, align 4, !dbg !5601, !tbaa !5602
  call void @llvm.dbg.value(metadata i32 %7, metadata !5591, metadata !DIExpression()), !dbg !5597
  %8 = icmp eq %"class.TCPBuffer::TCPBufferElt"* %5, null, !dbg !5603
  br i1 %8, label %79, label %9, !dbg !5604

9:                                                ; preds = %3
  call void @llvm.dbg.value(metadata %"class.TCPBuffer::TCPBufferElt"* %5, metadata !5605, metadata !DIExpression()), !dbg !5609
  call void @llvm.dbg.value(metadata %class.Packet* undef, metadata !5592, metadata !DIExpression()), !dbg !5611
  %10 = getelementptr inbounds %class.TCPBuffer, %class.TCPBuffer* %0, i64 0, i32 6, !dbg !5612
  %11 = load i8, i8* %10, align 1, !dbg !5612, !tbaa !5613, !range !5258
  %12 = icmp eq i8 %11, 0, !dbg !5612
  br i1 %12, label %13, label %21, !dbg !5612

13:                                               ; preds = %9
  %14 = getelementptr inbounds %"class.TCPBuffer::TCPBufferElt", %"class.TCPBuffer::TCPBufferElt"* %5, i64 0, i32 0, !dbg !5614
  %15 = load %class.Packet*, %class.Packet** %14, align 8, !dbg !5614, !tbaa !5615
  call void @llvm.dbg.value(metadata %class.Packet* %15, metadata !5592, metadata !DIExpression()), !dbg !5611
  call void @llvm.dbg.value(metadata %class.Packet* %15, metadata !5318, metadata !DIExpression()), !dbg !5617
  %16 = tail call i8* @_ZNK6Packet16transport_headerEv(%class.Packet* %15), !dbg !5619
  call void @llvm.dbg.value(metadata i8* %16, metadata !5324, metadata !DIExpression()), !dbg !5617
  %17 = getelementptr inbounds i8, i8* %16, i64 4, !dbg !5620
  %18 = bitcast i8* %17 to i32*, !dbg !5620
  %19 = load i32, i32* %18, align 4, !dbg !5620, !tbaa !5305
  call void @llvm.dbg.value(metadata i32 %19, metadata !5240, metadata !DIExpression()) #13, !dbg !5621
  %20 = tail call i32 @llvm.bswap.i32(i32 %19) #13, !dbg !5623
  br label %21, !dbg !5612

21:                                               ; preds = %13, %9
  %22 = phi i32 [ %7, %9 ], [ %20, %13 ]
  br label %23, !dbg !5624

23:                                               ; preds = %21, %45
  %24 = phi %"class.TCPBuffer::TCPBufferElt"* [ %77, %45 ], [ %5, %21 ]
  %25 = phi i32 [ %75, %45 ], [ %22, %21 ]
  call void @llvm.dbg.value(metadata %"class.TCPBuffer::TCPBufferElt"* %24, metadata !5566, metadata !DIExpression()), !dbg !5597
  call void @llvm.dbg.value(metadata i32 %25, metadata !5591, metadata !DIExpression()), !dbg !5597
  call void @llvm.dbg.value(metadata %"class.TCPBuffer::TCPBufferElt"* %24, metadata !5605, metadata !DIExpression()), !dbg !5625
  %26 = getelementptr inbounds %"class.TCPBuffer::TCPBufferElt", %"class.TCPBuffer::TCPBufferElt"* %24, i64 0, i32 0, !dbg !5627
  %27 = load %class.Packet*, %class.Packet** %26, align 8, !dbg !5627, !tbaa !5615
  call void @llvm.dbg.value(metadata %class.Packet* %27, metadata !5595, metadata !DIExpression()), !dbg !5628
  call void @llvm.dbg.value(metadata %class.Packet* %27, metadata !5318, metadata !DIExpression()), !dbg !5629
  %28 = tail call i8* @_ZNK6Packet16transport_headerEv(%class.Packet* %27), !dbg !5632
  call void @llvm.dbg.value(metadata i8* %28, metadata !5324, metadata !DIExpression()), !dbg !5629
  %29 = getelementptr inbounds i8, i8* %28, i64 4, !dbg !5633
  %30 = bitcast i8* %29 to i32*, !dbg !5633
  %31 = load i32, i32* %30, align 4, !dbg !5633, !tbaa !5305
  call void @llvm.dbg.value(metadata i32 %31, metadata !5240, metadata !DIExpression()) #13, !dbg !5634
  %32 = tail call i32 @llvm.bswap.i32(i32 %31) #13, !dbg !5636
  %33 = icmp eq i32 %32, %25, !dbg !5637
  br i1 %33, label %45, label %34, !dbg !5624

34:                                               ; preds = %23
  %35 = sub i32 %25, %1, !dbg !5638
  %36 = icmp sgt i32 %35, -1, !dbg !5638
  br i1 %36, label %91, label %37, !dbg !5641

37:                                               ; preds = %34
  call void @llvm.dbg.value(metadata %class.Packet* %27, metadata !5318, metadata !DIExpression()), !dbg !5642
  %38 = tail call i8* @_ZNK6Packet16transport_headerEv(%class.Packet* %27), !dbg !5645
  call void @llvm.dbg.value(metadata i8* %38, metadata !5324, metadata !DIExpression()), !dbg !5642
  %39 = getelementptr inbounds i8, i8* %38, i64 4, !dbg !5646
  %40 = bitcast i8* %39 to i32*, !dbg !5646
  %41 = load i32, i32* %40, align 4, !dbg !5646, !tbaa !5305
  call void @llvm.dbg.value(metadata i32 %41, metadata !5240, metadata !DIExpression()) #13, !dbg !5647
  %42 = tail call i32 @llvm.bswap.i32(i32 %41) #13, !dbg !5649
  %43 = sub i32 %42, %1, !dbg !5650
  %44 = icmp sgt i32 %43, 0, !dbg !5650
  br i1 %44, label %91, label %45, !dbg !5651

45:                                               ; preds = %37, %23
  call void @llvm.dbg.value(metadata %class.Packet* %27, metadata !5318, metadata !DIExpression()), !dbg !5652
  %46 = tail call i8* @_ZNK6Packet16transport_headerEv(%class.Packet* %27), !dbg !5654
  call void @llvm.dbg.value(metadata i8* %46, metadata !5324, metadata !DIExpression()), !dbg !5652
  %47 = getelementptr inbounds i8, i8* %46, i64 4, !dbg !5655
  %48 = bitcast i8* %47 to i32*, !dbg !5655
  %49 = load i32, i32* %48, align 4, !dbg !5655, !tbaa !5305
  call void @llvm.dbg.value(metadata i32 %49, metadata !5240, metadata !DIExpression()) #13, !dbg !5656
  %50 = tail call i32 @llvm.bswap.i32(i32 %49) #13, !dbg !5658
  call void @llvm.dbg.value(metadata %class.Packet* %27, metadata !5335, metadata !DIExpression()), !dbg !5659
  %51 = tail call %struct.click_ip* @_ZNK6Packet9ip_headerEv(%class.Packet* %27), !dbg !5661
  call void @llvm.dbg.value(metadata %struct.click_ip* %51, metadata !5339, metadata !DIExpression()), !dbg !5659
  %52 = tail call i8* @_ZNK6Packet16transport_headerEv(%class.Packet* %27), !dbg !5662
  call void @llvm.dbg.value(metadata i8* %52, metadata !5340, metadata !DIExpression()), !dbg !5659
  %53 = getelementptr inbounds %struct.click_ip, %struct.click_ip* %51, i64 0, i32 2, !dbg !5663
  %54 = load i16, i16* %53, align 2, !dbg !5663, !tbaa !5347
  %55 = tail call i16 @llvm.bswap.i16(i16 %54) #13
  %56 = zext i16 %55 to i32, !dbg !5663
  %57 = getelementptr %struct.click_ip, %struct.click_ip* %51, i64 0, i32 0, !dbg !5664
  %58 = load i8, i8* %57, align 4, !dbg !5664
  %59 = shl i8 %58, 2, !dbg !5665
  %60 = and i8 %59, 60, !dbg !5665
  %61 = zext i8 %60 to i32, !dbg !5665
  %62 = getelementptr inbounds i8, i8* %52, i64 12, !dbg !5666
  %63 = load i8, i8* %62, align 4, !dbg !5666
  %64 = lshr i8 %63, 4, !dbg !5666
  %65 = shl nuw nsw i8 %64, 2, !dbg !5667
  %66 = zext i8 %65 to i32, !dbg !5667
  call void @llvm.dbg.value(metadata i32 undef, metadata !5341, metadata !DIExpression()), !dbg !5659
  %67 = getelementptr inbounds i8, i8* %52, i64 13, !dbg !5668
  %68 = load i8, i8* %67, align 1, !dbg !5668, !tbaa !5231
  %69 = and i8 %68, 3, !dbg !5669
  %70 = icmp ne i8 %69, 0, !dbg !5669
  %71 = zext i1 %70 to i32, !dbg !5669
  %72 = add i32 %50, %56, !dbg !5670
  %73 = sub i32 %72, %61, !dbg !5671
  %74 = sub i32 %73, %66, !dbg !5669
  %75 = add i32 %74, %71, !dbg !5672
  call void @llvm.dbg.value(metadata i32 %75, metadata !5591, metadata !DIExpression()), !dbg !5597
  call void @llvm.dbg.value(metadata %"class.TCPBuffer::TCPBufferElt"* %24, metadata !5673, metadata !DIExpression()), !dbg !5676
  %76 = getelementptr inbounds %"class.TCPBuffer::TCPBufferElt", %"class.TCPBuffer::TCPBufferElt"* %24, i64 0, i32 2, !dbg !5678
  %77 = load %"class.TCPBuffer::TCPBufferElt"*, %"class.TCPBuffer::TCPBufferElt"** %76, align 8, !dbg !5678, !tbaa !5679
  call void @llvm.dbg.value(metadata %"class.TCPBuffer::TCPBufferElt"* %77, metadata !5566, metadata !DIExpression()), !dbg !5597
  %78 = icmp eq %"class.TCPBuffer::TCPBufferElt"* %77, null, !dbg !5680
  br i1 %78, label %79, label %23, !dbg !5681

79:                                               ; preds = %45, %3
  %80 = phi i32 [ %7, %3 ], [ %75, %45 ], !dbg !5597
  call void @llvm.dbg.value(metadata i32 %80, metadata !5591, metadata !DIExpression()), !dbg !5597
  %81 = getelementptr inbounds %class.TCPBuffer, %class.TCPBuffer* %0, i64 0, i32 6, !dbg !5682
  %82 = load i8, i8* %81, align 1, !dbg !5682, !tbaa !5613, !range !5258
  %83 = icmp eq i8 %82, 0, !dbg !5682
  br i1 %83, label %84, label %87, !dbg !5684

84:                                               ; preds = %79
  %85 = load %"class.TCPBuffer::TCPBufferElt"*, %"class.TCPBuffer::TCPBufferElt"** %4, align 8, !dbg !5685, !tbaa !5599
  %86 = icmp eq %"class.TCPBuffer::TCPBufferElt"* %85, null, !dbg !5685
  br i1 %86, label %93, label %87, !dbg !5686

87:                                               ; preds = %84, %79
  %88 = sub i32 %80, %1, !dbg !5687
  %89 = icmp sgt i32 %88, -1, !dbg !5687
  %90 = select i1 %89, i32 %80, i32 %1, !dbg !5690
  br label %91, !dbg !5690

91:                                               ; preds = %37, %34, %87
  %92 = phi i32 [ %90, %87 ], [ %1, %37 ], [ %25, %34 ]
  store i32 %92, i32* %2, align 4, !dbg !5597, !tbaa !4903
  br label %93, !dbg !5691

93:                                               ; preds = %91, %84
  %94 = phi i1 [ false, %84 ], [ true, %91 ], !dbg !5597
  ret i1 %94, !dbg !5691
}

; Function Attrs: noreturn nounwind
declare void @__assert_fail(i8*, i8*, i32, i8*) local_unnamed_addr #10

declare !dbg !1259 void @click_chatter(i8*, ...) local_unnamed_addr #2

declare %class.WritablePacket* @_ZN6Packet9uniqueifyEv(%class.Packet*) local_unnamed_addr #2

; Function Attrs: sspstrong uwtable
define dso_local void @_ZN6TCPAck9run_timerEP5Timer(%class.TCPAck* %0, %class.Timer* nocapture readnone %1) unnamed_addr #0 align 2 !dbg !5692 {
  call void @llvm.dbg.value(metadata %class.TCPAck* %0, metadata !5694, metadata !DIExpression()), !dbg !5696
  call void @llvm.dbg.value(metadata %class.Timer* undef, metadata !5695, metadata !DIExpression()), !dbg !5696
  %3 = getelementptr inbounds %class.TCPAck, %class.TCPAck* %0, i64 0, i32 4, !dbg !5697
  %4 = load i8, i8* %3, align 1, !dbg !5697, !tbaa !5147, !range !5258
  %5 = icmp eq i8 %4, 0, !dbg !5697
  br i1 %5, label %7, label %6, !dbg !5699

6:                                                ; preds = %2
  tail call void @_ZN6TCPAck8send_ackEv(%class.TCPAck* nonnull %0), !dbg !5700
  store i8 0, i8* %3, align 1, !dbg !5702, !tbaa !5147
  br label %7, !dbg !5703

7:                                                ; preds = %2, %6
  ret void, !dbg !5704
}

; Function Attrs: sspstrong uwtable
define dso_local void @_ZN6TCPAck8send_ackEv(%class.TCPAck* %0) local_unnamed_addr #0 align 2 !dbg !5705 {
  call void @llvm.dbg.value(metadata %class.TCPAck* %0, metadata !5707, metadata !DIExpression()), !dbg !5711
  call void @llvm.dbg.value(metadata i32 40, metadata !5712, metadata !DIExpression()), !dbg !5715
  %2 = tail call %class.WritablePacket* @_ZN6Packet4makeEjPKvjj(i32 28, i8* null, i32 40, i32 0), !dbg !5717
  call void @llvm.dbg.value(metadata %class.WritablePacket* %2, metadata !5710, metadata !DIExpression()), !dbg !5711
  %3 = icmp eq %class.WritablePacket* %2, null, !dbg !5718
  br i1 %3, label %4, label %5, !dbg !5720

4:                                                ; preds = %1
  tail call void (i8*, ...) @click_chatter(i8* getelementptr inbounds ([27 x i8], [27 x i8]* @.str.7, i64 0, i64 0)), !dbg !5721
  br label %48, !dbg !5723

5:                                                ; preds = %1
  %6 = tail call i8* @_ZNK14WritablePacket4dataEv(%class.WritablePacket* nonnull %2), !dbg !5724
  %7 = getelementptr %class.WritablePacket, %class.WritablePacket* %2, i64 0, i32 0, !dbg !5725
  %8 = tail call i32 @_ZNK6Packet6lengthEv(%class.Packet* %7), !dbg !5725
  %9 = zext i32 %8 to i64, !dbg !5726
  tail call void @llvm.memset.p0i8.i64(i8* align 1 %6, i8 0, i64 %9, i1 false), !dbg !5727
  %10 = tail call i8* @_ZNK14WritablePacket4dataEv(%class.WritablePacket* nonnull %2), !dbg !5728
  %11 = bitcast i8* %10 to %struct.click_ip*, !dbg !5729
  call void @llvm.dbg.value(metadata %struct.click_ip* %11, metadata !5708, metadata !DIExpression()), !dbg !5711
  call void @llvm.dbg.value(metadata i8* %10, metadata !5709, metadata !DIExpression(DW_OP_plus_uconst, 20, DW_OP_stack_value)), !dbg !5711
  store i8 69, i8* %10, align 4, !dbg !5730
  %12 = getelementptr inbounds i8, i8* %10, i64 1, !dbg !5731
  store i8 16, i8* %12, align 1, !dbg !5732, !tbaa !5733
  %13 = tail call i32 @_ZNK6Packet6lengthEv(%class.Packet* %7), !dbg !5734
  %14 = trunc i32 %13 to i16, !dbg !5734
  %15 = tail call i16 @llvm.bswap.i16(i16 %14) #13
  %16 = getelementptr inbounds i8, i8* %10, i64 2, !dbg !5735
  %17 = bitcast i8* %16 to i16*, !dbg !5735
  store i16 %15, i16* %17, align 2, !dbg !5736, !tbaa !5347
  %18 = getelementptr inbounds i8, i8* %10, i64 4, !dbg !5737
  %19 = bitcast i8* %18 to i16*, !dbg !5737
  store i16 0, i16* %19, align 4, !dbg !5738, !tbaa !5739
  %20 = getelementptr inbounds i8, i8* %10, i64 6, !dbg !5740
  %21 = bitcast i8* %20 to i16*, !dbg !5740
  store i16 64, i16* %21, align 2, !dbg !5741, !tbaa !5742
  %22 = getelementptr inbounds i8, i8* %10, i64 8, !dbg !5743
  store i8 -1, i8* %22, align 4, !dbg !5744, !tbaa !5745
  %23 = getelementptr inbounds i8, i8* %10, i64 9, !dbg !5746
  store i8 6, i8* %23, align 1, !dbg !5747, !tbaa !5748
  %24 = getelementptr inbounds i8, i8* %10, i64 10, !dbg !5749
  %25 = bitcast i8* %24 to i16*, !dbg !5749
  store i16 0, i16* %25, align 2, !dbg !5750, !tbaa !5751
  %26 = getelementptr inbounds %class.TCPAck, %class.TCPAck* %0, i64 0, i32 6, !dbg !5752
  %27 = load i32, i32* %26, align 4, !dbg !5752, !tbaa !5251
  call void @llvm.dbg.value(metadata i32 %27, metadata !5240, metadata !DIExpression()) #13, !dbg !5753
  %28 = tail call i32 @llvm.bswap.i32(i32 %27) #13, !dbg !5755
  %29 = getelementptr inbounds i8, i8* %10, i64 28, !dbg !5756
  %30 = bitcast i8* %29 to i32*, !dbg !5756
  store i32 %28, i32* %30, align 4, !dbg !5757, !tbaa !5239
  %31 = getelementptr inbounds i8, i8* %10, i64 32, !dbg !5758
  %32 = load i8, i8* %31, align 4, !dbg !5759
  %33 = and i8 %32, 15, !dbg !5759
  %34 = or i8 %33, 80, !dbg !5759
  store i8 %34, i8* %31, align 4, !dbg !5759
  %35 = getelementptr inbounds i8, i8* %10, i64 33, !dbg !5760
  store i8 16, i8* %35, align 1, !dbg !5761, !tbaa !5231
  %36 = getelementptr inbounds i8, i8* %10, i64 34, !dbg !5762
  %37 = bitcast i8* %36 to i16*, !dbg !5762
  store i16 30845, i16* %37, align 2, !dbg !5763, !tbaa !5764
  %38 = getelementptr inbounds i8, i8* %10, i64 36, !dbg !5765
  %39 = bitcast i8* %38 to i16*, !dbg !5765
  store i16 0, i16* %39, align 4, !dbg !5766, !tbaa !5767
  %40 = getelementptr inbounds i8, i8* %10, i64 38, !dbg !5768
  %41 = bitcast i8* %40 to i16*, !dbg !5768
  store i16 0, i16* %41, align 2, !dbg !5769, !tbaa !5770
  %42 = load i8, i8* %10, align 4, !dbg !5771
  %43 = shl i8 %42, 2, !dbg !5772
  %44 = and i8 %43, 60, !dbg !5772
  %45 = zext i8 %44 to i32, !dbg !5772
  tail call void @_ZN6Packet13set_ip_headerEPK8click_ipj(%class.Packet* %7, %struct.click_ip* nonnull %11, i32 %45), !dbg !5773
  %46 = bitcast %class.TCPAck* %0 to %class.Element*, !dbg !5774
  %47 = tail call dereferenceable(16) %"class.Element::Port"* @_ZNK7Element6outputEi(%class.Element* %46, i32 2), !dbg !5774
  tail call void @_ZNK7Element4Port4pushEP6Packet(%"class.Element::Port"* nonnull %47, %class.Packet* %7), !dbg !5775
  br label %48, !dbg !5776

48:                                               ; preds = %5, %4
  ret void, !dbg !5776
}

declare i8* @_ZNK14WritablePacket4dataEv(%class.WritablePacket*) local_unnamed_addr #2

declare i32 @_ZNK6Packet6lengthEv(%class.Packet*) local_unnamed_addr #2

; Function Attrs: argmemonly nounwind willreturn
declare void @llvm.memset.p0i8.i64(i8* nocapture writeonly, i8, i64, i1 immarg) #6

declare void @_ZN6Packet13set_ip_headerEPK8click_ipj(%class.Packet*, %struct.click_ip*, i32) local_unnamed_addr #2

declare %class.Packet* @_ZN7Element13simple_actionEP6Packet(%class.Element*, %class.Packet*) unnamed_addr #2

declare zeroext i1 @_ZN7Element8run_taskEP4Task(%class.Element*, %class.Task*) unnamed_addr #2

declare void @_ZN7Element8selectedEii(%class.Element*, i32, i32) unnamed_addr #2

declare void @_ZN7Element8selectedEi(%class.Element*, i32) unnamed_addr #2

; Function Attrs: nounwind sspstrong uwtable
define linkonce_odr dso_local i8* @_ZNK6TCPAck10class_nameEv(%class.TCPAck* %0) unnamed_addr #4 comdat align 2 !dbg !5777 {
  call void @llvm.dbg.value(metadata %class.TCPAck* %0, metadata !5779, metadata !DIExpression()), !dbg !5781
  ret i8* getelementptr inbounds ([7 x i8], [7 x i8]* @.str.14, i64 0, i64 0), !dbg !5782
}

; Function Attrs: nounwind sspstrong uwtable
define linkonce_odr dso_local i8* @_ZNK6TCPAck10port_countEv(%class.TCPAck* %0) unnamed_addr #4 comdat align 2 !dbg !5783 {
  call void @llvm.dbg.value(metadata %class.TCPAck* %0, metadata !5785, metadata !DIExpression()), !dbg !5786
  ret i8* getelementptr inbounds ([4 x i8], [4 x i8]* @.str.15, i64 0, i64 0), !dbg !5787
}

; Function Attrs: nounwind sspstrong uwtable
define linkonce_odr dso_local i8* @_ZNK6TCPAck10processingEv(%class.TCPAck* %0) unnamed_addr #4 comdat align 2 !dbg !5788 {
  call void @llvm.dbg.value(metadata %class.TCPAck* %0, metadata !5790, metadata !DIExpression()), !dbg !5791
  ret i8* getelementptr inbounds ([7 x i8], [7 x i8]* @.str.16, i64 0, i64 0), !dbg !5792
}

declare i8* @_ZNK7Element9flow_codeEv(%class.Element*) unnamed_addr #2

declare i8* @_ZNK7Element5flagsEv(%class.Element*) unnamed_addr #2

declare i8* @_ZN7Element4castEPKc(%class.Element*, i8*) unnamed_addr #2

declare i8* @_ZN7Element9port_castEbiPKc(%class.Element*, i1 zeroext, i32, i8*) unnamed_addr #2

declare i32 @_ZNK7Element15configure_phaseEv(%class.Element*) unnamed_addr #2

declare void @_ZN7Element12add_handlersEv(%class.Element*) unnamed_addr #2

declare void @_ZN7Element10take_stateEPS_P12ErrorHandler(%class.Element*, %class.Element*, %class.ErrorHandler*) unnamed_addr #2

declare %class.Element* @_ZNK7Element15hotswap_elementEv(%class.Element*) unnamed_addr #2

declare void @_ZN7Element7cleanupENS_12CleanupStageE(%class.Element*, i32) unnamed_addr #2

declare void @_ZNK7Element11declarationEv(%class.String* sret, %class.Element*) unnamed_addr #2

declare zeroext i1 @_ZNK7Element20can_live_reconfigureEv(%class.Element*) unnamed_addr #2

declare i32 @_ZN7Element16live_reconfigureER6VectorI6StringEP12ErrorHandler(%class.Element*, %class.Vector.0* dereferenceable(16), %class.ErrorHandler*) unnamed_addr #2

declare i32 @_ZN7Element5llrpcEjPv(%class.Element*, i32, i8*) unnamed_addr #2

; Function Attrs: noinline noreturn nounwind
define linkonce_odr hidden void @__clang_call_terminate(i8* %0) local_unnamed_addr #11 comdat {
  %2 = tail call i8* @__cxa_begin_catch(i8* %0) #13
  tail call void @_ZSt9terminatev() #14
  unreachable
}

declare i8* @__cxa_begin_catch(i8*) local_unnamed_addr

declare void @_ZSt9terminatev() local_unnamed_addr

declare void @_ZN5Timer10unscheduleEv(%class.Timer*) local_unnamed_addr #2

declare void @_ZN14ElementTrackerC2EP6Router(%class.ElementTracker*, %class.Router*) unnamed_addr #2

; Function Attrs: inlinehint nounwind sspstrong uwtable
define linkonce_odr dso_local void @_ZN14ElementTrackerD2Ev(%class.ElementTracker* %0) unnamed_addr #12 comdat align 2 personality i32 (...)* @__gxx_personality_v0 !dbg !4911 {
  call void @llvm.dbg.value(metadata %class.ElementTracker* %0, metadata !4910, metadata !DIExpression()), !dbg !5793
  %2 = getelementptr %class.ElementTracker, %class.ElementTracker* %0, i64 0, i32 0, i32 0, !dbg !5794
  store i32 (...)** bitcast (i8** getelementptr inbounds ({ [5 x i8*] }, { [5 x i8*] }* @_ZTV14ElementTracker, i64 0, inrange i32 0, i64 2) to i32 (...)**), i32 (...)*** %2, align 8, !dbg !5794, !tbaa !4668
  %3 = getelementptr inbounds %class.ElementTracker, %class.ElementTracker* %0, i64 0, i32 2, !dbg !5795
  call void @llvm.dbg.value(metadata %class.Vector* %3, metadata !5076, metadata !DIExpression()) #13, !dbg !5796
  call void @llvm.dbg.value(metadata %class.Vector* %3, metadata !5083, metadata !DIExpression()) #13, !dbg !5798
  %4 = bitcast %class.Vector* %3 to i8**, !dbg !5800
  %5 = load i8*, i8** %4, align 8, !dbg !5801, !tbaa !5094
  %6 = icmp eq i8* %5, null, !dbg !5801
  br i1 %6, label %8, label %7, !dbg !5801

7:                                                ; preds = %1
  tail call void @_ZdaPv(i8* nonnull %5) #15, !dbg !5801
  br label %8, !dbg !5801

8:                                                ; preds = %1, %7
  call void @llvm.dbg.value(metadata %class.ElementTracker* %0, metadata !5096, metadata !DIExpression(DW_OP_plus_uconst, 8, DW_OP_stack_value)) #13, !dbg !5802
  %9 = getelementptr inbounds %class.ElementTracker, %class.ElementTracker* %0, i64 0, i32 1, i32 1, !dbg !5804
  %10 = load i32*, i32** %9, align 8, !dbg !5804, !tbaa !5105
  %11 = getelementptr inbounds %class.ElementTracker, %class.ElementTracker* %0, i64 0, i32 1, i32 2, i64 0, !dbg !5805
  %12 = icmp eq i32* %10, %11, !dbg !5806
  %13 = icmp eq i32* %10, null, !dbg !5807
  %14 = or i1 %12, %13, !dbg !5808
  br i1 %14, label %17, label %15, !dbg !5808

15:                                               ; preds = %8
  %16 = bitcast i32* %10 to i8*, !dbg !5807
  tail call void @_ZdaPv(i8* %16) #15, !dbg !5807
  br label %17, !dbg !5807

17:                                               ; preds = %8, %15
  ret void, !dbg !5794
}

; Function Attrs: inlinehint nounwind sspstrong uwtable
define linkonce_odr dso_local void @_ZN14ElementTrackerD0Ev(%class.ElementTracker* %0) unnamed_addr #12 comdat align 2 personality i32 (...)* @__gxx_personality_v0 !dbg !5809 {
  call void @llvm.dbg.value(metadata %class.ElementTracker* %0, metadata !5811, metadata !DIExpression()), !dbg !5812
  call void @llvm.dbg.value(metadata %class.ElementTracker* %0, metadata !4910, metadata !DIExpression()) #13, !dbg !5813
  %2 = getelementptr %class.ElementTracker, %class.ElementTracker* %0, i64 0, i32 0, i32 0, !dbg !5815
  store i32 (...)** bitcast (i8** getelementptr inbounds ({ [5 x i8*] }, { [5 x i8*] }* @_ZTV14ElementTracker, i64 0, inrange i32 0, i64 2) to i32 (...)**), i32 (...)*** %2, align 8, !dbg !5815, !tbaa !4668
  %3 = getelementptr inbounds %class.ElementTracker, %class.ElementTracker* %0, i64 0, i32 2, !dbg !5816
  call void @llvm.dbg.value(metadata %class.Vector* %3, metadata !5076, metadata !DIExpression()) #13, !dbg !5817
  call void @llvm.dbg.value(metadata %class.Vector* %3, metadata !5083, metadata !DIExpression()) #13, !dbg !5819
  %4 = bitcast %class.Vector* %3 to i8**, !dbg !5821
  %5 = load i8*, i8** %4, align 8, !dbg !5822, !tbaa !5094
  %6 = icmp eq i8* %5, null, !dbg !5822
  br i1 %6, label %8, label %7, !dbg !5822

7:                                                ; preds = %1
  tail call void @_ZdaPv(i8* nonnull %5) #15, !dbg !5822
  br label %8, !dbg !5822

8:                                                ; preds = %7, %1
  call void @llvm.dbg.value(metadata %class.ElementTracker* %0, metadata !5096, metadata !DIExpression(DW_OP_plus_uconst, 8, DW_OP_stack_value)) #13, !dbg !5823
  %9 = getelementptr inbounds %class.ElementTracker, %class.ElementTracker* %0, i64 0, i32 1, i32 1, !dbg !5825
  %10 = load i32*, i32** %9, align 8, !dbg !5825, !tbaa !5105
  %11 = getelementptr inbounds %class.ElementTracker, %class.ElementTracker* %0, i64 0, i32 1, i32 2, i64 0, !dbg !5826
  %12 = icmp eq i32* %10, %11, !dbg !5827
  %13 = icmp eq i32* %10, null, !dbg !5828
  %14 = or i1 %12, %13, !dbg !5829
  br i1 %14, label %17, label %15, !dbg !5829

15:                                               ; preds = %8
  %16 = bitcast i32* %10 to i8*, !dbg !5828
  tail call void @_ZdaPv(i8* %16) #15, !dbg !5828
  br label %17, !dbg !5828

17:                                               ; preds = %8, %15
  %18 = bitcast %class.ElementTracker* %0 to i8*, !dbg !5830
  tail call void @_ZdlPv(i8* %18) #15, !dbg !5830
  ret void, !dbg !5830
}

declare zeroext i1 @_ZN13RouterVisitor5visitEP7ElementbiS1_ii(%class.RouterVisitor*, %class.Element*, i1 zeroext, i32, %class.Element*, i32, i32) unnamed_addr #2

; Function Attrs: nobuiltin nounwind
declare void @_ZdaPv(i8*) local_unnamed_addr #5

declare void @_ZN6String11delete_memoEPNS_6memo_tE(%"struct.String::memo_t"*) local_unnamed_addr #2

declare i32 @_ZNK6Router5visitEP7ElementbiP13RouterVisitor(%class.Router*, %class.Element*, i1 zeroext, i32, %class.RouterVisitor*) local_unnamed_addr #2

declare dereferenceable(8) %class.Element** @_ZNK6VectorIP7ElementEixEi(%class.Vector*, i32) local_unnamed_addr #2

declare void @_ZN5Timer14schedule_afterERK9Timestamp(%class.Timer*, %class.Timestamp* dereferenceable(8)) local_unnamed_addr #2

; Function Attrs: noinline nounwind optnone sspstrong uwtable
define linkonce_odr dso_local dereferenceable(16) %"class.Element::Port"* @_ZNK7Element4portEbi(%class.Element* %0, i1 zeroext %1, i32 %2) local_unnamed_addr #8 comdat align 2 !dbg !5831 {
  %4 = alloca %class.Element*, align 8
  %5 = alloca i8, align 1
  %6 = alloca i32, align 4
  store %class.Element* %0, %class.Element** %4, align 8, !tbaa !5137
  call void @llvm.dbg.declare(metadata %class.Element** %4, metadata !5836, metadata !DIExpression()), !dbg !5839
  %7 = zext i1 %1 to i8
  store i8 %7, i8* %5, align 1, !tbaa !5840
  call void @llvm.dbg.declare(metadata i8* %5, metadata !5837, metadata !DIExpression()), !dbg !5841
  store i32 %2, i32* %6, align 4, !tbaa !4903
  call void @llvm.dbg.declare(metadata i32* %6, metadata !5838, metadata !DIExpression()), !dbg !5842
  %8 = load %class.Element*, %class.Element** %4, align 8
  %9 = load i32, i32* %6, align 4, !dbg !5843, !tbaa !4903
  %10 = getelementptr inbounds %class.Element, %class.Element* %8, i32 0, i32 3, !dbg !5843
  %11 = load i8, i8* %5, align 1, !dbg !5843, !tbaa !5840, !range !5258
  %12 = trunc i8 %11 to i1, !dbg !5843
  %13 = zext i1 %12 to i64, !dbg !5843
  %14 = getelementptr inbounds [2 x i32], [2 x i32]* %10, i64 0, i64 %13, !dbg !5843
  %15 = load i32, i32* %14, align 4, !dbg !5843, !tbaa !4903
  %16 = icmp ult i32 %9, %15, !dbg !5843
  br i1 %16, label %17, label %18, !dbg !5843

17:                                               ; preds = %3
  br label %19, !dbg !5843

18:                                               ; preds = %3
  call void @__assert_fail(i8* getelementptr inbounds ([47 x i8], [47 x i8]* @.str.10, i64 0, i64 0), i8* getelementptr inbounds ([30 x i8], [30 x i8]* @.str.11, i64 0, i64 0), i32 437, i8* getelementptr inbounds ([52 x i8], [52 x i8]* @__PRETTY_FUNCTION__._ZNK7Element4portEbi, i64 0, i64 0)) #14, !dbg !5843
  unreachable, !dbg !5843

19:                                               ; preds = %17
  %20 = getelementptr inbounds %class.Element, %class.Element* %8, i32 0, i32 1, !dbg !5844
  %21 = load i8, i8* %5, align 1, !dbg !5845, !tbaa !5840, !range !5258
  %22 = trunc i8 %21 to i1, !dbg !5845
  %23 = zext i1 %22 to i64, !dbg !5844
  %24 = getelementptr inbounds [2 x %"class.Element::Port"*], [2 x %"class.Element::Port"*]* %20, i64 0, i64 %23, !dbg !5844
  %25 = load %"class.Element::Port"*, %"class.Element::Port"** %24, align 8, !dbg !5844, !tbaa !5137
  %26 = load i32, i32* %6, align 4, !dbg !5846, !tbaa !4903
  %27 = sext i32 %26 to i64, !dbg !5844
  %28 = getelementptr inbounds %"class.Element::Port", %"class.Element::Port"* %25, i64 %27, !dbg !5844
  ret %"class.Element::Port"* %28, !dbg !5847
}

declare i8* @_ZNK6Packet16transport_headerEv(%class.Packet*) local_unnamed_addr #2

declare %struct.click_ip* @_ZNK6Packet9ip_headerEv(%class.Packet*) local_unnamed_addr #2

declare %class.WritablePacket* @_ZN6Packet4makeEjPKvjj(i32, i8*, i32, i32) local_unnamed_addr #2

; Function Attrs: argmemonly nounwind willreturn
declare void @llvm.memcpy.p0i8.p0i8.i64(i8* noalias nocapture writeonly, i8* noalias nocapture readonly, i64, i1 immarg) #6

; Function Attrs: noinline optnone sspstrong uwtable
define linkonce_odr dso_local void @_Z14args_base_readI10SecondsArgjEvP4ArgsPKciT_RT0_(%class.Args* %0, i8* %1, i32 %2, i64 %3, i32* dereferenceable(4) %4) local_unnamed_addr #7 comdat !dbg !5848 {
  %6 = alloca %class.SecondsArg, align 4
  %7 = alloca %class.Args*, align 8
  %8 = alloca i8*, align 8
  %9 = alloca i32, align 4
  %10 = alloca i32*, align 8
  %11 = alloca %class.SecondsArg, align 4
  %12 = bitcast %class.SecondsArg* %6 to i64*
  store i64 %3, i64* %12, align 4
  store %class.Args* %0, %class.Args** %7, align 8, !tbaa !5137
  call void @llvm.dbg.declare(metadata %class.Args** %7, metadata !5850, metadata !DIExpression()), !dbg !5855
  store i8* %1, i8** %8, align 8, !tbaa !5137
  call void @llvm.dbg.declare(metadata i8** %8, metadata !5851, metadata !DIExpression()), !dbg !5856
  store i32 %2, i32* %9, align 4, !tbaa !4903
  call void @llvm.dbg.declare(metadata i32* %9, metadata !5852, metadata !DIExpression()), !dbg !5857
  call void @llvm.dbg.declare(metadata %class.SecondsArg* %6, metadata !5853, metadata !DIExpression()), !dbg !5858
  store i32* %4, i32** %10, align 8, !tbaa !5137
  call void @llvm.dbg.declare(metadata i32** %10, metadata !5854, metadata !DIExpression()), !dbg !5859
  %13 = load %class.Args*, %class.Args** %7, align 8, !dbg !5860, !tbaa !5137
  %14 = load i8*, i8** %8, align 8, !dbg !5861, !tbaa !5137
  %15 = load i32, i32* %9, align 4, !dbg !5862, !tbaa !4903
  %16 = bitcast %class.SecondsArg* %11 to i8*, !dbg !5863
  %17 = bitcast %class.SecondsArg* %6 to i8*, !dbg !5863
  call void @llvm.memcpy.p0i8.p0i8.i64(i8* align 4 %16, i8* align 4 %17, i64 8, i1 false), !dbg !5863
  %18 = load i32*, i32** %10, align 8, !dbg !5864, !tbaa !5137
  %19 = bitcast %class.SecondsArg* %11 to i64*, !dbg !5865
  %20 = load i64, i64* %19, align 4, !dbg !5865
  call void @_ZN4Args9base_readI10SecondsArgjEEvPKciT_RT0_(%class.Args* %13, i8* %14, i32 %15, i64 %20, i32* dereferenceable(4) %18), !dbg !5865
  ret void, !dbg !5866
}

; Function Attrs: sspstrong uwtable
define linkonce_odr dso_local void @_ZN4Args9base_readI10SecondsArgjEEvPKciT_RT0_(%class.Args* %0, i8* %1, i32 %2, i64 %3, i32* dereferenceable(4) %4) local_unnamed_addr #0 comdat align 2 personality i8* bitcast (i32 (...)* @__gxx_personality_v0 to i8*) !dbg !5867 {
  %6 = alloca i64, align 8
  %7 = alloca %"struct.Args::Slot"*, align 8
  %8 = alloca %class.String, align 8
  call void @llvm.dbg.value(metadata i64 %3, metadata !5875, metadata !DIExpression()), !dbg !5882
  call void @llvm.dbg.value(metadata %class.Args* %0, metadata !5872, metadata !DIExpression()), !dbg !5882
  call void @llvm.dbg.value(metadata i8* %1, metadata !5873, metadata !DIExpression()), !dbg !5882
  call void @llvm.dbg.value(metadata i32 %2, metadata !5874, metadata !DIExpression()), !dbg !5882
  call void @llvm.dbg.value(metadata i32* %4, metadata !5876, metadata !DIExpression()), !dbg !5882
  %9 = bitcast %"struct.Args::Slot"** %7 to i8*, !dbg !5883
  call void @llvm.lifetime.start.p0i8(i64 8, i8* nonnull %9) #13, !dbg !5883
  %10 = bitcast %class.String* %8 to i8*, !dbg !5884
  call void @llvm.lifetime.start.p0i8(i64 24, i8* nonnull %10) #13, !dbg !5884
  call void @llvm.dbg.declare(metadata %class.String* %8, metadata !5878, metadata !DIExpression()), !dbg !5885
  call void @llvm.dbg.value(metadata %"struct.Args::Slot"** %7, metadata !5877, metadata !DIExpression(DW_OP_deref)), !dbg !5882
  call void @_ZN4Args4findEPKciRPNS_4SlotE(%class.String* nonnull sret %8, %class.Args* %0, i8* %1, i32 %2, %"struct.Args::Slot"** nonnull dereferenceable(8) %7), !dbg !5886
  call void @llvm.dbg.value(metadata %class.String* %8, metadata !5887, metadata !DIExpression()), !dbg !5890
  %11 = getelementptr inbounds %class.String, %class.String* %8, i64 0, i32 0, i32 1, !dbg !5892
  %12 = load i32, i32* %11, align 8, !dbg !5892, !tbaa !4839
  %13 = icmp eq i32 %12, 0, !dbg !5893
  %14 = select i1 %13, { i64, i64 } zeroinitializer, { i64, i64 } { i64 ptrtoint (i32 (%class.String*)* @_ZNK6String6lengthEv to i64), i64 0 }, !dbg !5894
  %15 = extractvalue { i64, i64 } %14, 0, !dbg !5885
  %16 = icmp eq i64 %15, 0, !dbg !5885
  br i1 %16, label %52, label %17, !dbg !5884

17:                                               ; preds = %5
  call void @llvm.dbg.value(metadata i32* %4, metadata !5895, metadata !DIExpression()), !dbg !5907
  call void @llvm.dbg.value(metadata %class.Args* %0, metadata !5906, metadata !DIExpression()), !dbg !5907
  call void @llvm.dbg.value(metadata %class.Args* %0, metadata !5909, metadata !DIExpression()), !dbg !5916
  call void @llvm.dbg.value(metadata i32* %4, metadata !5915, metadata !DIExpression()), !dbg !5916
  %18 = bitcast i32* %4 to i8*, !dbg !5918
  %19 = invoke i8* @_ZN4Args11simple_slotEPvm(%class.Args* nonnull %0, i8* nonnull %18, i64 4)
          to label %20 unwind label %32, !dbg !5920

20:                                               ; preds = %17
  call void @llvm.dbg.value(metadata i8* %19, metadata !5880, metadata !DIExpression()), !dbg !5921
  %21 = icmp eq i8* %19, null, !dbg !5922
  br i1 %21, label %29, label %22, !dbg !5923

22:                                               ; preds = %20
  %23 = bitcast i8* %19 to i32*, !dbg !5924
  call void @llvm.dbg.value(metadata i32* %23, metadata !5880, metadata !DIExpression()), !dbg !5921
  %24 = bitcast i64* %6 to i8*
  call void @llvm.lifetime.start.p0i8(i64 8, i8* nonnull %24)
  %25 = bitcast i64* %6 to %class.SecondsArg*
  store i64 %3, i64* %6, align 8
  call void @llvm.dbg.declare(metadata %class.SecondsArg* %25, metadata !5925, metadata !DIExpression()), !dbg !5934
  call void @llvm.dbg.value(metadata %class.String* %8, metadata !5931, metadata !DIExpression()), !dbg !5936
  call void @llvm.dbg.value(metadata i32* %23, metadata !5932, metadata !DIExpression()), !dbg !5936
  call void @llvm.dbg.value(metadata %class.Args* %0, metadata !5933, metadata !DIExpression()), !dbg !5936
  %26 = bitcast %class.Args* %0 to %class.ArgContext*, !dbg !5937
  %27 = invoke zeroext i1 @_ZN10SecondsArg5parseERK6StringRjRK10ArgContext(%class.SecondsArg* nonnull %25, %class.String* nonnull dereferenceable(24) %8, i32* nonnull dereferenceable(4) %23, %class.ArgContext* nonnull dereferenceable(32) %26)
          to label %28 unwind label %32, !dbg !5938

28:                                               ; preds = %22
  call void @llvm.lifetime.end.p0i8(i64 8, i8* nonnull %24), !dbg !5939
  br label %29, !dbg !5939

29:                                               ; preds = %28, %20
  %30 = phi i1 [ false, %20 ], [ %27, %28 ], !dbg !5921
  %31 = load %"struct.Args::Slot"*, %"struct.Args::Slot"** %7, align 8, !dbg !5940, !tbaa !5137
  call void @llvm.dbg.value(metadata %"struct.Args::Slot"* %31, metadata !5877, metadata !DIExpression()), !dbg !5882
  invoke void @_ZN4Args9postparseEbPNS_4SlotE(%class.Args* nonnull %0, i1 zeroext %30, %"struct.Args::Slot"* %31)
          to label %52 unwind label %32, !dbg !5941

32:                                               ; preds = %22, %17, %29
  %33 = landingpad { i8*, i32 }
          cleanup, !dbg !5942
  call void @llvm.dbg.value(metadata %class.String* %8, metadata !4862, metadata !DIExpression()) #13, !dbg !5943
  call void @llvm.dbg.value(metadata %class.String* %8, metadata !4867, metadata !DIExpression()) #13, !dbg !5945
  %34 = getelementptr inbounds %class.String, %class.String* %8, i64 0, i32 0, i32 2, !dbg !5947
  %35 = load %"struct.String::memo_t"*, %"struct.String::memo_t"** %34, align 8, !dbg !5947, !tbaa !4843
  %36 = icmp eq %"struct.String::memo_t"* %35, null, !dbg !5948
  br i1 %36, label %51, label %37, !dbg !5949

37:                                               ; preds = %32
  %38 = getelementptr inbounds %"struct.String::memo_t", %"struct.String::memo_t"* %35, i64 0, i32 0, !dbg !5950
  %39 = load volatile i32, i32* %38, align 4, !dbg !5950, !tbaa !4894
  %40 = icmp eq i32 %39, 0, !dbg !5950
  br i1 %40, label %41, label %42, !dbg !5950

41:                                               ; preds = %37
  call void @__assert_fail(i8* getelementptr inbounds ([18 x i8], [18 x i8]* @.str.8, i64 0, i64 0), i8* getelementptr inbounds ([29 x i8], [29 x i8]* @.str.9, i64 0, i64 0), i32 273, i8* getelementptr inbounds ([27 x i8], [27 x i8]* @__PRETTY_FUNCTION__._ZNK6String5derefEv, i64 0, i64 0)) #14, !dbg !5950
  unreachable, !dbg !5950

42:                                               ; preds = %37
  call void @llvm.dbg.value(metadata i32* %38, metadata !4896, metadata !DIExpression()) #13, !dbg !5951
  %43 = load volatile i32, i32* %38, align 4, !dbg !5953, !tbaa !4903
  %44 = add i32 %43, -1, !dbg !5953
  store volatile i32 %44, i32* %38, align 4, !dbg !5953, !tbaa !4903
  %45 = icmp eq i32 %44, 0, !dbg !5954
  br i1 %45, label %46, label %47, !dbg !5955

46:                                               ; preds = %42
  invoke void @_ZN6String11delete_memoEPNS_6memo_tE(%"struct.String::memo_t"* nonnull %35)
          to label %47 unwind label %48, !dbg !5956

47:                                               ; preds = %46, %42
  store %"struct.String::memo_t"* null, %"struct.String::memo_t"** %34, align 8, !dbg !5957, !tbaa !4843
  br label %51, !dbg !5958

48:                                               ; preds = %46
  %49 = landingpad { i8*, i32 }
          catch i8* null, !dbg !5959
  %50 = extractvalue { i8*, i32 } %49, 0, !dbg !5959
  call void @__clang_call_terminate(i8* %50) #14, !dbg !5959
  unreachable, !dbg !5959

51:                                               ; preds = %32, %47
  call void @llvm.lifetime.end.p0i8(i64 24, i8* nonnull %10) #13, !dbg !5884
  call void @llvm.lifetime.end.p0i8(i64 8, i8* nonnull %9) #13, !dbg !5960
  resume { i8*, i32 } %33, !dbg !5960

52:                                               ; preds = %29, %5
  call void @llvm.dbg.value(metadata %class.String* %8, metadata !4862, metadata !DIExpression()) #13, !dbg !5961
  call void @llvm.dbg.value(metadata %class.String* %8, metadata !4867, metadata !DIExpression()) #13, !dbg !5963
  %53 = getelementptr inbounds %class.String, %class.String* %8, i64 0, i32 0, i32 2, !dbg !5965
  %54 = load %"struct.String::memo_t"*, %"struct.String::memo_t"** %53, align 8, !dbg !5965, !tbaa !4843
  %55 = icmp eq %"struct.String::memo_t"* %54, null, !dbg !5966
  br i1 %55, label %70, label %56, !dbg !5967

56:                                               ; preds = %52
  %57 = getelementptr inbounds %"struct.String::memo_t", %"struct.String::memo_t"* %54, i64 0, i32 0, !dbg !5968
  %58 = load volatile i32, i32* %57, align 4, !dbg !5968, !tbaa !4894
  %59 = icmp eq i32 %58, 0, !dbg !5968
  br i1 %59, label %60, label %61, !dbg !5968

60:                                               ; preds = %56
  call void @__assert_fail(i8* getelementptr inbounds ([18 x i8], [18 x i8]* @.str.8, i64 0, i64 0), i8* getelementptr inbounds ([29 x i8], [29 x i8]* @.str.9, i64 0, i64 0), i32 273, i8* getelementptr inbounds ([27 x i8], [27 x i8]* @__PRETTY_FUNCTION__._ZNK6String5derefEv, i64 0, i64 0)) #14, !dbg !5968
  unreachable, !dbg !5968

61:                                               ; preds = %56
  call void @llvm.dbg.value(metadata i32* %57, metadata !4896, metadata !DIExpression()) #13, !dbg !5969
  %62 = load volatile i32, i32* %57, align 4, !dbg !5971, !tbaa !4903
  %63 = add i32 %62, -1, !dbg !5971
  store volatile i32 %63, i32* %57, align 4, !dbg !5971, !tbaa !4903
  %64 = icmp eq i32 %63, 0, !dbg !5972
  br i1 %64, label %65, label %66, !dbg !5973

65:                                               ; preds = %61
  invoke void @_ZN6String11delete_memoEPNS_6memo_tE(%"struct.String::memo_t"* nonnull %54)
          to label %66 unwind label %67, !dbg !5974

66:                                               ; preds = %65, %61
  store %"struct.String::memo_t"* null, %"struct.String::memo_t"** %53, align 8, !dbg !5975, !tbaa !4843
  br label %70, !dbg !5976

67:                                               ; preds = %65
  %68 = landingpad { i8*, i32 }
          catch i8* null, !dbg !5977
  %69 = extractvalue { i8*, i32 } %68, 0, !dbg !5977
  call void @__clang_call_terminate(i8* %69) #14, !dbg !5977
  unreachable, !dbg !5977

70:                                               ; preds = %52, %66
  call void @llvm.lifetime.end.p0i8(i64 24, i8* nonnull %10) #13, !dbg !5884
  call void @llvm.lifetime.end.p0i8(i64 8, i8* nonnull %9) #13, !dbg !5960
  ret void, !dbg !5960
}

declare void @_ZN4Args4findEPKciRPNS_4SlotE(%class.String* sret, %class.Args*, i8*, i32, %"struct.Args::Slot"** dereferenceable(8)) local_unnamed_addr #2

declare void @_ZN4Args9postparseEbPNS_4SlotE(%class.Args*, i1 zeroext, %"struct.Args::Slot"*) local_unnamed_addr #2

; Function Attrs: inlinehint nounwind sspstrong uwtable
define linkonce_odr dso_local i32 @_ZNK6String6lengthEv(%class.String* %0) #12 comdat align 2 !dbg !5978 {
  call void @llvm.dbg.value(metadata %class.String* %0, metadata !5980, metadata !DIExpression()), !dbg !5981
  %2 = getelementptr inbounds %class.String, %class.String* %0, i64 0, i32 0, i32 1, !dbg !5982
  %3 = load i32, i32* %2, align 8, !dbg !5982, !tbaa !4839
  ret i32 %3, !dbg !5983
}

declare i8* @_ZN4Args11simple_slotEPvm(%class.Args*, i8*, i64) local_unnamed_addr #2

declare zeroext i1 @_ZN10SecondsArg5parseERK6StringRjRK10ArgContext(%class.SecondsArg*, %class.String* dereferenceable(24), i32* dereferenceable(4), %class.ArgContext* dereferenceable(32)) local_unnamed_addr #2

; Function Attrs: nounwind readnone speculatable willreturn
declare void @llvm.dbg.value(metadata, metadata, metadata) #1

; Function Attrs: nounwind readnone speculatable willreturn
declare i32 @llvm.bswap.i32(i32) #1

; Function Attrs: nounwind readnone speculatable willreturn
declare i16 @llvm.bswap.i16(i16) #1

attributes #0 = { sspstrong uwtable "correctly-rounded-divide-sqrt-fp-math"="false" "disable-tail-calls"="false" "frame-pointer"="none" "less-precise-fpmad"="false" "min-legal-vector-width"="0" "no-infs-fp-math"="false" "no-jump-tables"="false" "no-nans-fp-math"="false" "no-signed-zeros-fp-math"="false" "no-trapping-math"="false" "stack-protector-buffer-size"="8" "target-cpu"="x86-64" "target-features"="+cx8,+fxsr,+mmx,+sse,+sse2,+x87" "unsafe-fp-math"="false" "use-soft-float"="false" }
attributes #1 = { nounwind readnone speculatable willreturn }
attributes #2 = { "correctly-rounded-divide-sqrt-fp-math"="false" "disable-tail-calls"="false" "frame-pointer"="none" "less-precise-fpmad"="false" "no-infs-fp-math"="false" "no-nans-fp-math"="false" "no-signed-zeros-fp-math"="false" "no-trapping-math"="false" "stack-protector-buffer-size"="8" "target-cpu"="x86-64" "target-features"="+cx8,+fxsr,+mmx,+sse,+sse2,+x87" "unsafe-fp-math"="false" "use-soft-float"="false" }
attributes #3 = { nounwind "correctly-rounded-divide-sqrt-fp-math"="false" "disable-tail-calls"="false" "frame-pointer"="none" "less-precise-fpmad"="false" "no-infs-fp-math"="false" "no-nans-fp-math"="false" "no-signed-zeros-fp-math"="false" "no-trapping-math"="false" "stack-protector-buffer-size"="8" "target-cpu"="x86-64" "target-features"="+cx8,+fxsr,+mmx,+sse,+sse2,+x87" "unsafe-fp-math"="false" "use-soft-float"="false" }
attributes #4 = { nounwind sspstrong uwtable "correctly-rounded-divide-sqrt-fp-math"="false" "disable-tail-calls"="false" "frame-pointer"="none" "less-precise-fpmad"="false" "min-legal-vector-width"="0" "no-infs-fp-math"="false" "no-jump-tables"="false" "no-nans-fp-math"="false" "no-signed-zeros-fp-math"="false" "no-trapping-math"="false" "stack-protector-buffer-size"="8" "target-cpu"="x86-64" "target-features"="+cx8,+fxsr,+mmx,+sse,+sse2,+x87" "unsafe-fp-math"="false" "use-soft-float"="false" }
attributes #5 = { nobuiltin nounwind "correctly-rounded-divide-sqrt-fp-math"="false" "disable-tail-calls"="false" "frame-pointer"="none" "less-precise-fpmad"="false" "no-infs-fp-math"="false" "no-nans-fp-math"="false" "no-signed-zeros-fp-math"="false" "no-trapping-math"="false" "stack-protector-buffer-size"="8" "target-cpu"="x86-64" "target-features"="+cx8,+fxsr,+mmx,+sse,+sse2,+x87" "unsafe-fp-math"="false" "use-soft-float"="false" }
attributes #6 = { argmemonly nounwind willreturn }
attributes #7 = { noinline optnone sspstrong uwtable "correctly-rounded-divide-sqrt-fp-math"="false" "disable-tail-calls"="false" "frame-pointer"="none" "less-precise-fpmad"="false" "min-legal-vector-width"="0" "no-infs-fp-math"="false" "no-jump-tables"="false" "no-nans-fp-math"="false" "no-signed-zeros-fp-math"="false" "no-trapping-math"="false" "stack-protector-buffer-size"="8" "target-cpu"="x86-64" "target-features"="+cx8,+fxsr,+mmx,+sse,+sse2,+x87" "unsafe-fp-math"="false" "use-soft-float"="false" }
attributes #8 = { noinline nounwind optnone sspstrong uwtable "correctly-rounded-divide-sqrt-fp-math"="false" "disable-tail-calls"="false" "frame-pointer"="none" "less-precise-fpmad"="false" "min-legal-vector-width"="0" "no-infs-fp-math"="false" "no-jump-tables"="false" "no-nans-fp-math"="false" "no-signed-zeros-fp-math"="false" "no-trapping-math"="false" "stack-protector-buffer-size"="8" "target-cpu"="x86-64" "target-features"="+cx8,+fxsr,+mmx,+sse,+sse2,+x87" "unsafe-fp-math"="false" "use-soft-float"="false" }
attributes #9 = { inlinehint sspstrong uwtable "correctly-rounded-divide-sqrt-fp-math"="false" "disable-tail-calls"="false" "frame-pointer"="none" "less-precise-fpmad"="false" "min-legal-vector-width"="0" "no-infs-fp-math"="false" "no-jump-tables"="false" "no-nans-fp-math"="false" "no-signed-zeros-fp-math"="false" "no-trapping-math"="false" "stack-protector-buffer-size"="8" "target-cpu"="x86-64" "target-features"="+cx8,+fxsr,+mmx,+sse,+sse2,+x87" "unsafe-fp-math"="false" "use-soft-float"="false" }
attributes #10 = { noreturn nounwind "correctly-rounded-divide-sqrt-fp-math"="false" "disable-tail-calls"="false" "frame-pointer"="none" "less-precise-fpmad"="false" "no-infs-fp-math"="false" "no-nans-fp-math"="false" "no-signed-zeros-fp-math"="false" "no-trapping-math"="false" "stack-protector-buffer-size"="8" "target-cpu"="x86-64" "target-features"="+cx8,+fxsr,+mmx,+sse,+sse2,+x87" "unsafe-fp-math"="false" "use-soft-float"="false" }
attributes #11 = { noinline noreturn nounwind }
attributes #12 = { inlinehint nounwind sspstrong uwtable "correctly-rounded-divide-sqrt-fp-math"="false" "disable-tail-calls"="false" "frame-pointer"="none" "less-precise-fpmad"="false" "min-legal-vector-width"="0" "no-infs-fp-math"="false" "no-jump-tables"="false" "no-nans-fp-math"="false" "no-signed-zeros-fp-math"="false" "no-trapping-math"="false" "stack-protector-buffer-size"="8" "target-cpu"="x86-64" "target-features"="+cx8,+fxsr,+mmx,+sse,+sse2,+x87" "unsafe-fp-math"="false" "use-soft-float"="false" }
attributes #13 = { nounwind }
attributes #14 = { noreturn nounwind }
attributes #15 = { builtin nounwind }

!llvm.dbg.cu = !{!0}
!llvm.module.flags = !{!2378, !2379, !2380, !2381, !2382}
!llvm.ident = !{!2383}

!0 = distinct !DICompileUnit(language: DW_LANG_C_plus_plus_14, file: !1, producer: "clang version 10.0.0 ", isOptimized: true, runtimeVersion: 0, emissionKind: FullDebug, enums: !2, retainedTypes: !1190, imports: !1758, splitDebugInlining: false, nameTableKind: None)
!1 = !DIFile(filename: "../elements/local/tcpack.cc", directory: "/home/john/projects/click/ir-dir")
!2 = !{!3, !870, !1175, !1186}
!3 = !DICompositeType(tag: DW_TAG_enumeration_type, name: "PacketType", scope: !5, file: !4, line: 368, baseType: !16, size: 32, elements: !1167, identifier: "_ZTSN6Packet10PacketTypeE")
!4 = !DIFile(filename: "../dummy_inc/click/packet.hh", directory: "/home/john/projects/click/ir-dir")
!5 = distinct !DICompositeType(tag: DW_TAG_class_type, name: "Packet", file: !4, line: 35, size: 1344, flags: DIFlagTypePassByReference | DIFlagNonTrivial, elements: !6, identifier: "_ZTS6Packet")
!6 = !{!7, !77, !79, !82, !83, !84, !85, !128, !136, !137, !239, !242, !245, !248, !251, !255, !259, !262, !265, !270, !271, !274, !275, !276, !277, !278, !279, !282, !285, !288, !289, !292, !293, !296, !299, !300, !301, !302, !305, !308, !311, !314, !315, !316, !319, !320, !321, !324, !325, !326, !327, !328, !329, !330, !331, !332, !333, !334, !335, !336, !337, !338, !339, !344, !347, !352, !353, !354, !357, !362, !363, !364, !367, !370, !375, !380, !385, !390, !394, !911, !915, !918, !924, !927, !930, !933, !936, !940, !943, !944, !945, !946, !1036, !1039, !1040, !1043, !1047, !1052, !1056, !1061, !1064, !1067, !1070, !1073, !1079, !1082, !1085, !1088, !1091, !1094, !1097, !1100, !1103, !1106, !1107, !1110, !1114, !1115, !1116, !1117, !1118, !1119, !1120, !1121, !1122, !1123, !1124, !1125, !1126, !1127, !1128, !1129, !1130, !1131, !1132, !1133, !1134, !1135, !1136, !1137, !1138, !1139, !1140, !1141, !1142, !1143, !1144, !1145, !1146, !1147, !1148, !1151, !1152, !1156, !1159, !1162, !1165, !1166}
!7 = !DIDerivedType(tag: DW_TAG_member, name: "_use_count", scope: !5, file: !4, line: 731, baseType: !8, size: 32)
!8 = distinct !DICompositeType(tag: DW_TAG_class_type, name: "atomic_uint32_t", file: !9, line: 52, size: 32, flags: DIFlagTypePassByValue, elements: !10, identifier: "_ZTS15atomic_uint32_t")
!9 = !DIFile(filename: "../dummy_inc/click/atomic.hh", directory: "/home/john/projects/click/ir-dir")
!10 = !{!11, !17, !22, !23, !28, !35, !36, !37, !38, !41, !44, !45, !46, !49, !50, !54, !57, !60, !65, !68, !71, !74}
!11 = !DIDerivedType(tag: DW_TAG_member, name: "_val", scope: !8, file: !9, line: 91, baseType: !12, size: 32)
!12 = !DIDerivedType(tag: DW_TAG_typedef, name: "uint32_t", file: !13, line: 26, baseType: !14)
!13 = !DIFile(filename: "/usr/include/bits/stdint-uintn.h", directory: "")
!14 = !DIDerivedType(tag: DW_TAG_typedef, name: "__uint32_t", file: !15, line: 42, baseType: !16)
!15 = !DIFile(filename: "/usr/include/bits/types.h", directory: "")
!16 = !DIBasicType(name: "unsigned int", size: 32, encoding: DW_ATE_unsigned)
!17 = !DISubprogram(name: "value", linkageName: "_ZNK15atomic_uint32_t5valueEv", scope: !8, file: !9, line: 57, type: !18, scopeLine: 57, flags: DIFlagPublic | DIFlagPrototyped, spFlags: DISPFlagOptimized)
!18 = !DISubroutineType(types: !19)
!19 = !{!12, !20}
!20 = !DIDerivedType(tag: DW_TAG_pointer_type, baseType: !21, size: 64, flags: DIFlagArtificial | DIFlagObjectPointer)
!21 = !DIDerivedType(tag: DW_TAG_const_type, baseType: !8)
!22 = !DISubprogram(name: "operator unsigned int", linkageName: "_ZNK15atomic_uint32_tcvjEv", scope: !8, file: !9, line: 58, type: !18, scopeLine: 58, flags: DIFlagPublic | DIFlagPrototyped, spFlags: DISPFlagOptimized)
!23 = !DISubprogram(name: "operator=", linkageName: "_ZN15atomic_uint32_taSEj", scope: !8, file: !9, line: 60, type: !24, scopeLine: 60, flags: DIFlagPublic | DIFlagPrototyped, spFlags: DISPFlagOptimized)
!24 = !DISubroutineType(types: !25)
!25 = !{!26, !27, !12}
!26 = !DIDerivedType(tag: DW_TAG_reference_type, baseType: !8, size: 64)
!27 = !DIDerivedType(tag: DW_TAG_pointer_type, baseType: !8, size: 64, flags: DIFlagArtificial | DIFlagObjectPointer)
!28 = !DISubprogram(name: "operator+=", linkageName: "_ZN15atomic_uint32_tpLEi", scope: !8, file: !9, line: 62, type: !29, scopeLine: 62, flags: DIFlagPublic | DIFlagPrototyped, spFlags: DISPFlagOptimized)
!29 = !DISubroutineType(types: !30)
!30 = !{!26, !27, !31}
!31 = !DIDerivedType(tag: DW_TAG_typedef, name: "int32_t", file: !32, line: 26, baseType: !33)
!32 = !DIFile(filename: "/usr/include/bits/stdint-intn.h", directory: "")
!33 = !DIDerivedType(tag: DW_TAG_typedef, name: "__int32_t", file: !15, line: 41, baseType: !34)
!34 = !DIBasicType(name: "int", size: 32, encoding: DW_ATE_signed)
!35 = !DISubprogram(name: "operator-=", linkageName: "_ZN15atomic_uint32_tmIEi", scope: !8, file: !9, line: 63, type: !29, scopeLine: 63, flags: DIFlagPublic | DIFlagPrototyped, spFlags: DISPFlagOptimized)
!36 = !DISubprogram(name: "operator|=", linkageName: "_ZN15atomic_uint32_toREj", scope: !8, file: !9, line: 64, type: !24, scopeLine: 64, flags: DIFlagPublic | DIFlagPrototyped, spFlags: DISPFlagOptimized)
!37 = !DISubprogram(name: "operator&=", linkageName: "_ZN15atomic_uint32_taNEj", scope: !8, file: !9, line: 65, type: !24, scopeLine: 65, flags: DIFlagPublic | DIFlagPrototyped, spFlags: DISPFlagOptimized)
!38 = !DISubprogram(name: "operator++", linkageName: "_ZN15atomic_uint32_tppEv", scope: !8, file: !9, line: 67, type: !39, scopeLine: 67, flags: DIFlagPublic | DIFlagPrototyped, spFlags: DISPFlagOptimized)
!39 = !DISubroutineType(types: !40)
!40 = !{null, !27}
!41 = !DISubprogram(name: "operator++", linkageName: "_ZN15atomic_uint32_tppEi", scope: !8, file: !9, line: 68, type: !42, scopeLine: 68, flags: DIFlagPublic | DIFlagPrototyped, spFlags: DISPFlagOptimized)
!42 = !DISubroutineType(types: !43)
!43 = !{null, !27, !34}
!44 = !DISubprogram(name: "operator--", linkageName: "_ZN15atomic_uint32_tmmEv", scope: !8, file: !9, line: 69, type: !39, scopeLine: 69, flags: DIFlagPublic | DIFlagPrototyped, spFlags: DISPFlagOptimized)
!45 = !DISubprogram(name: "operator--", linkageName: "_ZN15atomic_uint32_tmmEi", scope: !8, file: !9, line: 70, type: !42, scopeLine: 70, flags: DIFlagPublic | DIFlagPrototyped, spFlags: DISPFlagOptimized)
!46 = !DISubprogram(name: "swap", linkageName: "_ZN15atomic_uint32_t4swapEj", scope: !8, file: !9, line: 72, type: !47, scopeLine: 72, flags: DIFlagPublic | DIFlagPrototyped, spFlags: DISPFlagOptimized)
!47 = !DISubroutineType(types: !48)
!48 = !{!12, !27, !12}
!49 = !DISubprogram(name: "fetch_and_add", linkageName: "_ZN15atomic_uint32_t13fetch_and_addEj", scope: !8, file: !9, line: 73, type: !47, scopeLine: 73, flags: DIFlagPublic | DIFlagPrototyped, spFlags: DISPFlagOptimized)
!50 = !DISubprogram(name: "dec_and_test", linkageName: "_ZN15atomic_uint32_t12dec_and_testEv", scope: !8, file: !9, line: 74, type: !51, scopeLine: 74, flags: DIFlagPublic | DIFlagPrototyped, spFlags: DISPFlagOptimized)
!51 = !DISubroutineType(types: !52)
!52 = !{!53, !27}
!53 = !DIBasicType(name: "bool", size: 8, encoding: DW_ATE_boolean)
!54 = !DISubprogram(name: "compare_swap", linkageName: "_ZN15atomic_uint32_t12compare_swapEjj", scope: !8, file: !9, line: 75, type: !55, scopeLine: 75, flags: DIFlagPublic | DIFlagPrototyped, spFlags: DISPFlagOptimized)
!55 = !DISubroutineType(types: !56)
!56 = !{!12, !27, !12, !12}
!57 = !DISubprogram(name: "compare_and_swap", linkageName: "_ZN15atomic_uint32_t16compare_and_swapEjj", scope: !8, file: !9, line: 76, type: !58, scopeLine: 76, flags: DIFlagPublic | DIFlagPrototyped, spFlags: DISPFlagOptimized)
!58 = !DISubroutineType(types: !59)
!59 = !{!53, !27, !12, !12}
!60 = !DISubprogram(name: "swap", linkageName: "_ZN15atomic_uint32_t4swapERVjj", scope: !8, file: !9, line: 78, type: !61, scopeLine: 78, flags: DIFlagPublic | DIFlagPrototyped | DIFlagStaticMember, spFlags: DISPFlagOptimized)
!61 = !DISubroutineType(types: !62)
!62 = !{!12, !63, !12}
!63 = !DIDerivedType(tag: DW_TAG_reference_type, baseType: !64, size: 64)
!64 = !DIDerivedType(tag: DW_TAG_volatile_type, baseType: !12)
!65 = !DISubprogram(name: "inc", linkageName: "_ZN15atomic_uint32_t3incERVj", scope: !8, file: !9, line: 79, type: !66, scopeLine: 79, flags: DIFlagPublic | DIFlagPrototyped | DIFlagStaticMember, spFlags: DISPFlagOptimized)
!66 = !DISubroutineType(types: !67)
!67 = !{null, !63}
!68 = !DISubprogram(name: "dec_and_test", linkageName: "_ZN15atomic_uint32_t12dec_and_testERVj", scope: !8, file: !9, line: 80, type: !69, scopeLine: 80, flags: DIFlagPublic | DIFlagPrototyped | DIFlagStaticMember, spFlags: DISPFlagOptimized)
!69 = !DISubroutineType(types: !70)
!70 = !{!53, !63}
!71 = !DISubprogram(name: "compare_swap", linkageName: "_ZN15atomic_uint32_t12compare_swapERVjjj", scope: !8, file: !9, line: 81, type: !72, scopeLine: 81, flags: DIFlagPublic | DIFlagPrototyped | DIFlagStaticMember, spFlags: DISPFlagOptimized)
!72 = !DISubroutineType(types: !73)
!73 = !{!12, !63, !12, !12}
!74 = !DISubprogram(name: "compare_and_swap", linkageName: "_ZN15atomic_uint32_t16compare_and_swapERVjjj", scope: !8, file: !9, line: 82, type: !75, scopeLine: 82, flags: DIFlagPublic | DIFlagPrototyped | DIFlagStaticMember, spFlags: DISPFlagOptimized)
!75 = !DISubroutineType(types: !76)
!76 = !{!53, !63, !12, !12}
!77 = !DIDerivedType(tag: DW_TAG_member, name: "_data_packet", scope: !5, file: !4, line: 732, baseType: !78, size: 64, offset: 64)
!78 = !DIDerivedType(tag: DW_TAG_pointer_type, baseType: !5, size: 64)
!79 = !DIDerivedType(tag: DW_TAG_member, name: "_head", scope: !5, file: !4, line: 734, baseType: !80, size: 64, offset: 128)
!80 = !DIDerivedType(tag: DW_TAG_pointer_type, baseType: !81, size: 64)
!81 = !DIBasicType(name: "unsigned char", size: 8, encoding: DW_ATE_unsigned_char)
!82 = !DIDerivedType(tag: DW_TAG_member, name: "_data", scope: !5, file: !4, line: 735, baseType: !80, size: 64, offset: 192)
!83 = !DIDerivedType(tag: DW_TAG_member, name: "_tail", scope: !5, file: !4, line: 736, baseType: !80, size: 64, offset: 256)
!84 = !DIDerivedType(tag: DW_TAG_member, name: "_end", scope: !5, file: !4, line: 737, baseType: !80, size: 64, offset: 320)
!85 = !DIDerivedType(tag: DW_TAG_member, name: "_aa", scope: !5, file: !4, line: 741, baseType: !86, size: 832, offset: 384)
!86 = distinct !DICompositeType(tag: DW_TAG_structure_type, name: "AllAnno", scope: !5, file: !4, line: 716, size: 832, flags: DIFlagTypePassByValue, elements: !87, identifier: "_ZTSN6Packet7AllAnnoE")
!87 = !{!88, !118, !119, !120, !121, !122, !126, !127}
!88 = !DIDerivedType(tag: DW_TAG_member, name: "cb", scope: !86, file: !4, line: 717, baseType: !89, size: 384)
!89 = distinct !DICompositeType(tag: DW_TAG_union_type, name: "Anno", scope: !5, file: !4, line: 702, size: 384, flags: DIFlagTypePassByValue, elements: !90, identifier: "_ZTSN6Packet4AnnoE")
!90 = !{!91, !96, !100, !107, !111}
!91 = !DIDerivedType(tag: DW_TAG_member, name: "c", scope: !89, file: !4, line: 703, baseType: !92, size: 384)
!92 = !DICompositeType(tag: DW_TAG_array_type, baseType: !93, size: 384, elements: !94)
!93 = !DIBasicType(name: "char", size: 8, encoding: DW_ATE_signed_char)
!94 = !{!95}
!95 = !DISubrange(count: 48)
!96 = !DIDerivedType(tag: DW_TAG_member, name: "u8", scope: !89, file: !4, line: 704, baseType: !97, size: 384)
!97 = !DICompositeType(tag: DW_TAG_array_type, baseType: !98, size: 384, elements: !94)
!98 = !DIDerivedType(tag: DW_TAG_typedef, name: "uint8_t", file: !13, line: 24, baseType: !99)
!99 = !DIDerivedType(tag: DW_TAG_typedef, name: "__uint8_t", file: !15, line: 38, baseType: !81)
!100 = !DIDerivedType(tag: DW_TAG_member, name: "u16", scope: !89, file: !4, line: 705, baseType: !101, size: 384)
!101 = !DICompositeType(tag: DW_TAG_array_type, baseType: !102, size: 384, elements: !105)
!102 = !DIDerivedType(tag: DW_TAG_typedef, name: "uint16_t", file: !13, line: 25, baseType: !103)
!103 = !DIDerivedType(tag: DW_TAG_typedef, name: "__uint16_t", file: !15, line: 40, baseType: !104)
!104 = !DIBasicType(name: "unsigned short", size: 16, encoding: DW_ATE_unsigned)
!105 = !{!106}
!106 = !DISubrange(count: 24)
!107 = !DIDerivedType(tag: DW_TAG_member, name: "u32", scope: !89, file: !4, line: 706, baseType: !108, size: 384)
!108 = !DICompositeType(tag: DW_TAG_array_type, baseType: !12, size: 384, elements: !109)
!109 = !{!110}
!110 = !DISubrange(count: 12)
!111 = !DIDerivedType(tag: DW_TAG_member, name: "u64", scope: !89, file: !4, line: 708, baseType: !112, size: 384)
!112 = !DICompositeType(tag: DW_TAG_array_type, baseType: !113, size: 384, elements: !116)
!113 = !DIDerivedType(tag: DW_TAG_typedef, name: "uint64_t", file: !13, line: 27, baseType: !114)
!114 = !DIDerivedType(tag: DW_TAG_typedef, name: "__uint64_t", file: !15, line: 45, baseType: !115)
!115 = !DIBasicType(name: "long unsigned int", size: 64, encoding: DW_ATE_unsigned)
!116 = !{!117}
!117 = !DISubrange(count: 6)
!118 = !DIDerivedType(tag: DW_TAG_member, name: "mac", scope: !86, file: !4, line: 718, baseType: !80, size: 64, offset: 384)
!119 = !DIDerivedType(tag: DW_TAG_member, name: "nh", scope: !86, file: !4, line: 719, baseType: !80, size: 64, offset: 448)
!120 = !DIDerivedType(tag: DW_TAG_member, name: "h", scope: !86, file: !4, line: 720, baseType: !80, size: 64, offset: 512)
!121 = !DIDerivedType(tag: DW_TAG_member, name: "pkt_type", scope: !86, file: !4, line: 721, baseType: !3, size: 32, offset: 576)
!122 = !DIDerivedType(tag: DW_TAG_member, name: "timestamp", scope: !86, file: !4, line: 722, baseType: !123, size: 64, offset: 608)
!123 = !DICompositeType(tag: DW_TAG_array_type, baseType: !93, size: 64, elements: !124)
!124 = !{!125}
!125 = !DISubrange(count: 8)
!126 = !DIDerivedType(tag: DW_TAG_member, name: "next", scope: !86, file: !4, line: 723, baseType: !78, size: 64, offset: 704)
!127 = !DIDerivedType(tag: DW_TAG_member, name: "prev", scope: !86, file: !4, line: 724, baseType: !78, size: 64, offset: 768)
!128 = !DIDerivedType(tag: DW_TAG_member, name: "_destructor", scope: !5, file: !4, line: 746, baseType: !129, size: 64, offset: 1216)
!129 = !DIDerivedType(tag: DW_TAG_typedef, name: "buffer_destructor_type", scope: !5, file: !4, line: 65, baseType: !130)
!130 = !DIDerivedType(tag: DW_TAG_pointer_type, baseType: !131, size: 64)
!131 = !DISubroutineType(types: !132)
!132 = !{null, !80, !133, !135}
!133 = !DIDerivedType(tag: DW_TAG_typedef, name: "size_t", file: !134, line: 46, baseType: !115)
!134 = !DIFile(filename: "/usr/lib/clang/10.0.0/include/stddef.h", directory: "")
!135 = !DIDerivedType(tag: DW_TAG_pointer_type, baseType: null, size: 64)
!136 = !DIDerivedType(tag: DW_TAG_member, name: "_destructor_argument", scope: !5, file: !4, line: 747, baseType: !135, size: 64, offset: 1280)
!137 = !DISubprogram(name: "make", linkageName: "_ZN6Packet4makeEjPKvjj", scope: !5, file: !4, line: 52, type: !138, scopeLine: 52, flags: DIFlagPublic | DIFlagPrototyped | DIFlagStaticMember, spFlags: DISPFlagOptimized)
!138 = !DISubroutineType(types: !139)
!139 = !{!140, !12, !237, !12, !12}
!140 = !DIDerivedType(tag: DW_TAG_pointer_type, baseType: !141, size: 64)
!141 = distinct !DICompositeType(tag: DW_TAG_class_type, name: "WritablePacket", file: !4, line: 778, size: 1344, flags: DIFlagTypePassByReference | DIFlagNonTrivial, elements: !142, identifier: "_ZTS14WritablePacket")
!142 = !{!143, !144, !149, !150, !151, !152, !153, !158, !159, !182, !187, !188, !193, !211, !216, !217, !221, !222, !227, !228, !231, !234}
!143 = !DIDerivedType(tag: DW_TAG_inheritance, scope: !141, baseType: !5, flags: DIFlagPublic, extraData: i32 0)
!144 = !DISubprogram(name: "data", linkageName: "_ZNK14WritablePacket4dataEv", scope: !141, file: !4, line: 780, type: !145, scopeLine: 780, flags: DIFlagPublic | DIFlagPrototyped, spFlags: DISPFlagOptimized)
!145 = !DISubroutineType(types: !146)
!146 = !{!80, !147}
!147 = !DIDerivedType(tag: DW_TAG_pointer_type, baseType: !148, size: 64, flags: DIFlagArtificial | DIFlagObjectPointer)
!148 = !DIDerivedType(tag: DW_TAG_const_type, baseType: !141)
!149 = !DISubprogram(name: "end_data", linkageName: "_ZNK14WritablePacket8end_dataEv", scope: !141, file: !4, line: 781, type: !145, scopeLine: 781, flags: DIFlagPublic | DIFlagPrototyped, spFlags: DISPFlagOptimized)
!150 = !DISubprogram(name: "buffer", linkageName: "_ZNK14WritablePacket6bufferEv", scope: !141, file: !4, line: 782, type: !145, scopeLine: 782, flags: DIFlagPublic | DIFlagPrototyped, spFlags: DISPFlagOptimized)
!151 = !DISubprogram(name: "end_buffer", linkageName: "_ZNK14WritablePacket10end_bufferEv", scope: !141, file: !4, line: 783, type: !145, scopeLine: 783, flags: DIFlagPublic | DIFlagPrototyped, spFlags: DISPFlagOptimized)
!152 = !DISubprogram(name: "mac_header", linkageName: "_ZNK14WritablePacket10mac_headerEv", scope: !141, file: !4, line: 784, type: !145, scopeLine: 784, flags: DIFlagPublic | DIFlagPrototyped, spFlags: DISPFlagOptimized)
!153 = !DISubprogram(name: "ether_header", linkageName: "_ZNK14WritablePacket12ether_headerEv", scope: !141, file: !4, line: 785, type: !154, scopeLine: 785, flags: DIFlagPublic | DIFlagPrototyped, spFlags: DISPFlagOptimized)
!154 = !DISubroutineType(types: !155)
!155 = !{!156, !147}
!156 = !DIDerivedType(tag: DW_TAG_pointer_type, baseType: !157, size: 64)
!157 = !DICompositeType(tag: DW_TAG_structure_type, name: "click_ether", file: !4, line: 24, flags: DIFlagFwdDecl, identifier: "_ZTS11click_ether")
!158 = !DISubprogram(name: "network_header", linkageName: "_ZNK14WritablePacket14network_headerEv", scope: !141, file: !4, line: 786, type: !145, scopeLine: 786, flags: DIFlagPublic | DIFlagPrototyped, spFlags: DISPFlagOptimized)
!159 = !DISubprogram(name: "ip_header", linkageName: "_ZNK14WritablePacket9ip_headerEv", scope: !141, file: !4, line: 787, type: !160, scopeLine: 787, flags: DIFlagPublic | DIFlagPrototyped, spFlags: DISPFlagOptimized)
!160 = !DISubroutineType(types: !161)
!161 = !{!162, !147}
!162 = !DIDerivedType(tag: DW_TAG_pointer_type, baseType: !163, size: 64)
!163 = distinct !DICompositeType(tag: DW_TAG_structure_type, name: "click_ip", file: !164, line: 23, size: 160, flags: DIFlagTypePassByValue, elements: !165, identifier: "_ZTS8click_ip")
!164 = !DIFile(filename: "../dummy_inc/clicknet/ip.h", directory: "/home/john/projects/click/ir-dir")
!165 = !{!166, !167, !168, !169, !170, !171, !172, !173, !174, !175, !181}
!166 = !DIDerivedType(tag: DW_TAG_member, name: "ip_hl", scope: !163, file: !164, line: 28, baseType: !16, size: 4, flags: DIFlagBitField, extraData: i64 0)
!167 = !DIDerivedType(tag: DW_TAG_member, name: "ip_v", scope: !163, file: !164, line: 29, baseType: !16, size: 4, offset: 4, flags: DIFlagBitField, extraData: i64 0)
!168 = !DIDerivedType(tag: DW_TAG_member, name: "ip_tos", scope: !163, file: !164, line: 33, baseType: !98, size: 8, offset: 8)
!169 = !DIDerivedType(tag: DW_TAG_member, name: "ip_len", scope: !163, file: !164, line: 40, baseType: !102, size: 16, offset: 16)
!170 = !DIDerivedType(tag: DW_TAG_member, name: "ip_id", scope: !163, file: !164, line: 41, baseType: !102, size: 16, offset: 32)
!171 = !DIDerivedType(tag: DW_TAG_member, name: "ip_off", scope: !163, file: !164, line: 42, baseType: !102, size: 16, offset: 48)
!172 = !DIDerivedType(tag: DW_TAG_member, name: "ip_ttl", scope: !163, file: !164, line: 47, baseType: !98, size: 8, offset: 64)
!173 = !DIDerivedType(tag: DW_TAG_member, name: "ip_p", scope: !163, file: !164, line: 48, baseType: !98, size: 8, offset: 72)
!174 = !DIDerivedType(tag: DW_TAG_member, name: "ip_sum", scope: !163, file: !164, line: 49, baseType: !102, size: 16, offset: 80)
!175 = !DIDerivedType(tag: DW_TAG_member, name: "ip_src", scope: !163, file: !164, line: 50, baseType: !176, size: 32, offset: 96)
!176 = distinct !DICompositeType(tag: DW_TAG_structure_type, name: "in_addr", file: !177, line: 31, size: 32, flags: DIFlagTypePassByValue, elements: !178, identifier: "_ZTS7in_addr")
!177 = !DIFile(filename: "/usr/include/netinet/in.h", directory: "")
!178 = !{!179}
!179 = !DIDerivedType(tag: DW_TAG_member, name: "s_addr", scope: !176, file: !177, line: 33, baseType: !180, size: 32)
!180 = !DIDerivedType(tag: DW_TAG_typedef, name: "in_addr_t", file: !177, line: 30, baseType: !12)
!181 = !DIDerivedType(tag: DW_TAG_member, name: "ip_dst", scope: !163, file: !164, line: 51, baseType: !176, size: 32, offset: 128)
!182 = !DISubprogram(name: "ip6_header", linkageName: "_ZNK14WritablePacket10ip6_headerEv", scope: !141, file: !4, line: 788, type: !183, scopeLine: 788, flags: DIFlagPublic | DIFlagPrototyped, spFlags: DISPFlagOptimized)
!183 = !DISubroutineType(types: !184)
!184 = !{!185, !147}
!185 = !DIDerivedType(tag: DW_TAG_pointer_type, baseType: !186, size: 64)
!186 = !DICompositeType(tag: DW_TAG_structure_type, name: "click_ip6", file: !4, line: 27, flags: DIFlagFwdDecl, identifier: "_ZTS9click_ip6")
!187 = !DISubprogram(name: "transport_header", linkageName: "_ZNK14WritablePacket16transport_headerEv", scope: !141, file: !4, line: 789, type: !145, scopeLine: 789, flags: DIFlagPublic | DIFlagPrototyped, spFlags: DISPFlagOptimized)
!188 = !DISubprogram(name: "icmp_header", linkageName: "_ZNK14WritablePacket11icmp_headerEv", scope: !141, file: !4, line: 790, type: !189, scopeLine: 790, flags: DIFlagPublic | DIFlagPrototyped, spFlags: DISPFlagOptimized)
!189 = !DISubroutineType(types: !190)
!190 = !{!191, !147}
!191 = !DIDerivedType(tag: DW_TAG_pointer_type, baseType: !192, size: 64)
!192 = !DICompositeType(tag: DW_TAG_structure_type, name: "click_icmp", file: !4, line: 26, flags: DIFlagFwdDecl, identifier: "_ZTS10click_icmp")
!193 = !DISubprogram(name: "tcp_header", linkageName: "_ZNK14WritablePacket10tcp_headerEv", scope: !141, file: !4, line: 791, type: !194, scopeLine: 791, flags: DIFlagPublic | DIFlagPrototyped, spFlags: DISPFlagOptimized)
!194 = !DISubroutineType(types: !195)
!195 = !{!196, !147}
!196 = !DIDerivedType(tag: DW_TAG_pointer_type, baseType: !197, size: 64)
!197 = distinct !DICompositeType(tag: DW_TAG_structure_type, name: "click_tcp", file: !198, line: 24, size: 160, flags: DIFlagTypePassByValue, elements: !199, identifier: "_ZTS9click_tcp")
!198 = !DIFile(filename: "../dummy_inc/clicknet/tcp.h", directory: "/home/john/projects/click/ir-dir")
!199 = !{!200, !201, !202, !204, !205, !206, !207, !208, !209, !210}
!200 = !DIDerivedType(tag: DW_TAG_member, name: "th_sport", scope: !197, file: !198, line: 25, baseType: !102, size: 16)
!201 = !DIDerivedType(tag: DW_TAG_member, name: "th_dport", scope: !197, file: !198, line: 26, baseType: !102, size: 16, offset: 16)
!202 = !DIDerivedType(tag: DW_TAG_member, name: "th_seq", scope: !197, file: !198, line: 27, baseType: !203, size: 32, offset: 32)
!203 = !DIDerivedType(tag: DW_TAG_typedef, name: "tcp_seq_t", file: !198, line: 22, baseType: !12)
!204 = !DIDerivedType(tag: DW_TAG_member, name: "th_ack", scope: !197, file: !198, line: 28, baseType: !203, size: 32, offset: 64)
!205 = !DIDerivedType(tag: DW_TAG_member, name: "th_flags2", scope: !197, file: !198, line: 30, baseType: !16, size: 4, offset: 96, flags: DIFlagBitField, extraData: i64 96)
!206 = !DIDerivedType(tag: DW_TAG_member, name: "th_off", scope: !197, file: !198, line: 31, baseType: !16, size: 4, offset: 100, flags: DIFlagBitField, extraData: i64 96)
!207 = !DIDerivedType(tag: DW_TAG_member, name: "th_flags", scope: !197, file: !198, line: 39, baseType: !98, size: 8, offset: 104)
!208 = !DIDerivedType(tag: DW_TAG_member, name: "th_win", scope: !197, file: !198, line: 48, baseType: !102, size: 16, offset: 112)
!209 = !DIDerivedType(tag: DW_TAG_member, name: "th_sum", scope: !197, file: !198, line: 49, baseType: !102, size: 16, offset: 128)
!210 = !DIDerivedType(tag: DW_TAG_member, name: "th_urp", scope: !197, file: !198, line: 50, baseType: !102, size: 16, offset: 144)
!211 = !DISubprogram(name: "udp_header", linkageName: "_ZNK14WritablePacket10udp_headerEv", scope: !141, file: !4, line: 792, type: !212, scopeLine: 792, flags: DIFlagPublic | DIFlagPrototyped, spFlags: DISPFlagOptimized)
!212 = !DISubroutineType(types: !213)
!213 = !{!214, !147}
!214 = !DIDerivedType(tag: DW_TAG_pointer_type, baseType: !215, size: 64)
!215 = !DICompositeType(tag: DW_TAG_structure_type, name: "click_udp", file: !4, line: 29, flags: DIFlagFwdDecl, identifier: "_ZTS9click_udp")
!216 = !DISubprogram(name: "buffer_data", linkageName: "_ZNK14WritablePacket11buffer_dataEv", scope: !141, file: !4, line: 795, type: !145, scopeLine: 795, flags: DIFlagPublic | DIFlagPrototyped, spFlags: DISPFlagOptimized)
!217 = !DISubprogram(name: "WritablePacket", scope: !141, file: !4, line: 800, type: !218, scopeLine: 800, flags: DIFlagPrototyped, spFlags: DISPFlagOptimized)
!218 = !DISubroutineType(types: !219)
!219 = !{null, !220}
!220 = !DIDerivedType(tag: DW_TAG_pointer_type, baseType: !141, size: 64, flags: DIFlagArtificial | DIFlagObjectPointer)
!221 = !DISubprogram(name: "initialize", linkageName: "_ZN14WritablePacket10initializeEv", scope: !141, file: !4, line: 802, type: !218, scopeLine: 802, flags: DIFlagPrototyped, spFlags: DISPFlagOptimized)
!222 = !DISubprogram(name: "WritablePacket", scope: !141, file: !4, line: 804, type: !223, scopeLine: 804, flags: DIFlagPrototyped, spFlags: DISPFlagOptimized)
!223 = !DISubroutineType(types: !224)
!224 = !{null, !220, !225}
!225 = !DIDerivedType(tag: DW_TAG_reference_type, baseType: !226, size: 64)
!226 = !DIDerivedType(tag: DW_TAG_const_type, baseType: !5)
!227 = !DISubprogram(name: "~WritablePacket", scope: !141, file: !4, line: 805, type: !218, scopeLine: 805, flags: DIFlagPrototyped, spFlags: DISPFlagOptimized)
!228 = !DISubprogram(name: "pool_allocate", linkageName: "_ZN14WritablePacket13pool_allocateEb", scope: !141, file: !4, line: 808, type: !229, scopeLine: 808, flags: DIFlagPrototyped | DIFlagStaticMember, spFlags: DISPFlagOptimized)
!229 = !DISubroutineType(types: !230)
!230 = !{!140, !53}
!231 = !DISubprogram(name: "pool_allocate", linkageName: "_ZN14WritablePacket13pool_allocateEjjj", scope: !141, file: !4, line: 809, type: !232, scopeLine: 809, flags: DIFlagPrototyped | DIFlagStaticMember, spFlags: DISPFlagOptimized)
!232 = !DISubroutineType(types: !233)
!233 = !{!140, !12, !12, !12}
!234 = !DISubprogram(name: "recycle", linkageName: "_ZN14WritablePacket7recycleEPS_", scope: !141, file: !4, line: 811, type: !235, scopeLine: 811, flags: DIFlagPrototyped | DIFlagStaticMember, spFlags: DISPFlagOptimized)
!235 = !DISubroutineType(types: !236)
!236 = !{null, !140}
!237 = !DIDerivedType(tag: DW_TAG_pointer_type, baseType: !238, size: 64)
!238 = !DIDerivedType(tag: DW_TAG_const_type, baseType: null)
!239 = !DISubprogram(name: "make", linkageName: "_ZN6Packet4makeEPKvj", scope: !5, file: !4, line: 54, type: !240, scopeLine: 54, flags: DIFlagPublic | DIFlagPrototyped | DIFlagStaticMember, spFlags: DISPFlagOptimized)
!240 = !DISubroutineType(types: !241)
!241 = !{!140, !237, !12}
!242 = !DISubprogram(name: "make", linkageName: "_ZN6Packet4makeEj", scope: !5, file: !4, line: 55, type: !243, scopeLine: 55, flags: DIFlagPublic | DIFlagPrototyped | DIFlagStaticMember, spFlags: DISPFlagOptimized)
!243 = !DISubroutineType(types: !244)
!244 = !{!140, !12}
!245 = !DISubprogram(name: "make", linkageName: "_ZN6Packet4makeEPhjPFvS0_mPvES1_ii", scope: !5, file: !4, line: 66, type: !246, scopeLine: 66, flags: DIFlagPublic | DIFlagPrototyped | DIFlagStaticMember, spFlags: DISPFlagOptimized)
!246 = !DISubroutineType(types: !247)
!247 = !{!140, !80, !12, !129, !135, !34, !34}
!248 = !DISubprogram(name: "static_cleanup", linkageName: "_ZN6Packet14static_cleanupEv", scope: !5, file: !4, line: 71, type: !249, scopeLine: 71, flags: DIFlagPublic | DIFlagPrototyped | DIFlagStaticMember, spFlags: DISPFlagOptimized)
!249 = !DISubroutineType(types: !250)
!250 = !{null}
!251 = !DISubprogram(name: "kill", linkageName: "_ZN6Packet4killEv", scope: !5, file: !4, line: 73, type: !252, scopeLine: 73, flags: DIFlagPublic | DIFlagPrototyped, spFlags: DISPFlagOptimized)
!252 = !DISubroutineType(types: !253)
!253 = !{null, !254}
!254 = !DIDerivedType(tag: DW_TAG_pointer_type, baseType: !5, size: 64, flags: DIFlagArtificial | DIFlagObjectPointer)
!255 = !DISubprogram(name: "shared", linkageName: "_ZNK6Packet6sharedEv", scope: !5, file: !4, line: 75, type: !256, scopeLine: 75, flags: DIFlagPublic | DIFlagPrototyped, spFlags: DISPFlagOptimized)
!256 = !DISubroutineType(types: !257)
!257 = !{!53, !258}
!258 = !DIDerivedType(tag: DW_TAG_pointer_type, baseType: !226, size: 64, flags: DIFlagArtificial | DIFlagObjectPointer)
!259 = !DISubprogram(name: "clone", linkageName: "_ZN6Packet5cloneEv", scope: !5, file: !4, line: 76, type: !260, scopeLine: 76, flags: DIFlagPublic | DIFlagPrototyped, spFlags: DISPFlagOptimized)
!260 = !DISubroutineType(types: !261)
!261 = !{!78, !254}
!262 = !DISubprogram(name: "uniqueify", linkageName: "_ZN6Packet9uniqueifyEv", scope: !5, file: !4, line: 77, type: !263, scopeLine: 77, flags: DIFlagPublic | DIFlagPrototyped, spFlags: DISPFlagOptimized)
!263 = !DISubroutineType(types: !264)
!264 = !{!140, !254}
!265 = !DISubprogram(name: "data", linkageName: "_ZNK6Packet4dataEv", scope: !5, file: !4, line: 79, type: !266, scopeLine: 79, flags: DIFlagPublic | DIFlagPrototyped, spFlags: DISPFlagOptimized)
!266 = !DISubroutineType(types: !267)
!267 = !{!268, !258}
!268 = !DIDerivedType(tag: DW_TAG_pointer_type, baseType: !269, size: 64)
!269 = !DIDerivedType(tag: DW_TAG_const_type, baseType: !81)
!270 = !DISubprogram(name: "end_data", linkageName: "_ZNK6Packet8end_dataEv", scope: !5, file: !4, line: 80, type: !266, scopeLine: 80, flags: DIFlagPublic | DIFlagPrototyped, spFlags: DISPFlagOptimized)
!271 = !DISubprogram(name: "length", linkageName: "_ZNK6Packet6lengthEv", scope: !5, file: !4, line: 81, type: !272, scopeLine: 81, flags: DIFlagPublic | DIFlagPrototyped, spFlags: DISPFlagOptimized)
!272 = !DISubroutineType(types: !273)
!273 = !{!12, !258}
!274 = !DISubprogram(name: "headroom", linkageName: "_ZNK6Packet8headroomEv", scope: !5, file: !4, line: 82, type: !272, scopeLine: 82, flags: DIFlagPublic | DIFlagPrototyped, spFlags: DISPFlagOptimized)
!275 = !DISubprogram(name: "tailroom", linkageName: "_ZNK6Packet8tailroomEv", scope: !5, file: !4, line: 83, type: !272, scopeLine: 83, flags: DIFlagPublic | DIFlagPrototyped, spFlags: DISPFlagOptimized)
!276 = !DISubprogram(name: "buffer", linkageName: "_ZNK6Packet6bufferEv", scope: !5, file: !4, line: 84, type: !266, scopeLine: 84, flags: DIFlagPublic | DIFlagPrototyped, spFlags: DISPFlagOptimized)
!277 = !DISubprogram(name: "end_buffer", linkageName: "_ZNK6Packet10end_bufferEv", scope: !5, file: !4, line: 85, type: !266, scopeLine: 85, flags: DIFlagPublic | DIFlagPrototyped, spFlags: DISPFlagOptimized)
!278 = !DISubprogram(name: "buffer_length", linkageName: "_ZNK6Packet13buffer_lengthEv", scope: !5, file: !4, line: 86, type: !272, scopeLine: 86, flags: DIFlagPublic | DIFlagPrototyped, spFlags: DISPFlagOptimized)
!279 = !DISubprogram(name: "buffer_destructor", linkageName: "_ZNK6Packet17buffer_destructorEv", scope: !5, file: !4, line: 97, type: !280, scopeLine: 97, flags: DIFlagPublic | DIFlagPrototyped, spFlags: DISPFlagOptimized)
!280 = !DISubroutineType(types: !281)
!281 = !{!129, !258}
!282 = !DISubprogram(name: "set_buffer_destructor", linkageName: "_ZN6Packet21set_buffer_destructorEPFvPhmPvE", scope: !5, file: !4, line: 101, type: !283, scopeLine: 101, flags: DIFlagPublic | DIFlagPrototyped, spFlags: DISPFlagOptimized)
!283 = !DISubroutineType(types: !284)
!284 = !{null, !254, !129}
!285 = !DISubprogram(name: "destructor_argument", linkageName: "_ZN6Packet19destructor_argumentEv", scope: !5, file: !4, line: 105, type: !286, scopeLine: 105, flags: DIFlagPublic | DIFlagPrototyped, spFlags: DISPFlagOptimized)
!286 = !DISubroutineType(types: !287)
!287 = !{!135, !254}
!288 = !DISubprogram(name: "reset_buffer", linkageName: "_ZN6Packet12reset_bufferEv", scope: !5, file: !4, line: 109, type: !252, scopeLine: 109, flags: DIFlagPublic | DIFlagPrototyped, spFlags: DISPFlagOptimized)
!289 = !DISubprogram(name: "push", linkageName: "_ZN6Packet4pushEj", scope: !5, file: !4, line: 141, type: !290, scopeLine: 141, flags: DIFlagPublic | DIFlagPrototyped, spFlags: DISPFlagOptimized)
!290 = !DISubroutineType(types: !291)
!291 = !{!140, !254, !12}
!292 = !DISubprogram(name: "push_mac_header", linkageName: "_ZN6Packet15push_mac_headerEj", scope: !5, file: !4, line: 152, type: !290, scopeLine: 152, flags: DIFlagPublic | DIFlagPrototyped, spFlags: DISPFlagOptimized)
!293 = !DISubprogram(name: "nonunique_push", linkageName: "_ZN6Packet14nonunique_pushEj", scope: !5, file: !4, line: 171, type: !294, scopeLine: 171, flags: DIFlagPublic | DIFlagPrototyped, spFlags: DISPFlagOptimized)
!294 = !DISubroutineType(types: !295)
!295 = !{!78, !254, !12}
!296 = !DISubprogram(name: "pull", linkageName: "_ZN6Packet4pullEj", scope: !5, file: !4, line: 187, type: !297, scopeLine: 187, flags: DIFlagPublic | DIFlagPrototyped, spFlags: DISPFlagOptimized)
!297 = !DISubroutineType(types: !298)
!298 = !{null, !254, !12}
!299 = !DISubprogram(name: "put", linkageName: "_ZN6Packet3putEj", scope: !5, file: !4, line: 213, type: !290, scopeLine: 213, flags: DIFlagPublic | DIFlagPrototyped, spFlags: DISPFlagOptimized)
!300 = !DISubprogram(name: "nonunique_put", linkageName: "_ZN6Packet13nonunique_putEj", scope: !5, file: !4, line: 230, type: !294, scopeLine: 230, flags: DIFlagPublic | DIFlagPrototyped, spFlags: DISPFlagOptimized)
!301 = !DISubprogram(name: "take", linkageName: "_ZN6Packet4takeEj", scope: !5, file: !4, line: 245, type: !297, scopeLine: 245, flags: DIFlagPublic | DIFlagPrototyped, spFlags: DISPFlagOptimized)
!302 = !DISubprogram(name: "shift_data", linkageName: "_ZN6Packet10shift_dataEib", scope: !5, file: !4, line: 269, type: !303, scopeLine: 269, flags: DIFlagPublic | DIFlagPrototyped, spFlags: DISPFlagOptimized)
!303 = !DISubroutineType(types: !304)
!304 = !{!78, !254, !34, !53}
!305 = !DISubprogram(name: "shrink_data", linkageName: "_ZN6Packet11shrink_dataEPKhj", scope: !5, file: !4, line: 271, type: !306, scopeLine: 271, flags: DIFlagPublic | DIFlagPrototyped, spFlags: DISPFlagOptimized)
!306 = !DISubroutineType(types: !307)
!307 = !{null, !254, !268, !12}
!308 = !DISubprogram(name: "change_headroom_and_length", linkageName: "_ZN6Packet26change_headroom_and_lengthEjj", scope: !5, file: !4, line: 272, type: !309, scopeLine: 272, flags: DIFlagPublic | DIFlagPrototyped, spFlags: DISPFlagOptimized)
!309 = !DISubroutineType(types: !310)
!310 = !{null, !254, !12, !12}
!311 = !DISubprogram(name: "copy", linkageName: "_ZN6Packet4copyEPS_i", scope: !5, file: !4, line: 274, type: !312, scopeLine: 274, flags: DIFlagPublic | DIFlagPrototyped, spFlags: DISPFlagOptimized)
!312 = !DISubroutineType(types: !313)
!313 = !{!53, !254, !78, !34}
!314 = !DISubprogram(name: "has_mac_header", linkageName: "_ZNK6Packet14has_mac_headerEv", scope: !5, file: !4, line: 279, type: !256, scopeLine: 279, flags: DIFlagPublic | DIFlagPrototyped, spFlags: DISPFlagOptimized)
!315 = !DISubprogram(name: "mac_header", linkageName: "_ZNK6Packet10mac_headerEv", scope: !5, file: !4, line: 280, type: !266, scopeLine: 280, flags: DIFlagPublic | DIFlagPrototyped, spFlags: DISPFlagOptimized)
!316 = !DISubprogram(name: "mac_header_offset", linkageName: "_ZNK6Packet17mac_header_offsetEv", scope: !5, file: !4, line: 281, type: !317, scopeLine: 281, flags: DIFlagPublic | DIFlagPrototyped, spFlags: DISPFlagOptimized)
!317 = !DISubroutineType(types: !318)
!318 = !{!34, !258}
!319 = !DISubprogram(name: "mac_header_length", linkageName: "_ZNK6Packet17mac_header_lengthEv", scope: !5, file: !4, line: 282, type: !272, scopeLine: 282, flags: DIFlagPublic | DIFlagPrototyped, spFlags: DISPFlagOptimized)
!320 = !DISubprogram(name: "mac_length", linkageName: "_ZNK6Packet10mac_lengthEv", scope: !5, file: !4, line: 283, type: !317, scopeLine: 283, flags: DIFlagPublic | DIFlagPrototyped, spFlags: DISPFlagOptimized)
!321 = !DISubprogram(name: "set_mac_header", linkageName: "_ZN6Packet14set_mac_headerEPKh", scope: !5, file: !4, line: 284, type: !322, scopeLine: 284, flags: DIFlagPublic | DIFlagPrototyped, spFlags: DISPFlagOptimized)
!322 = !DISubroutineType(types: !323)
!323 = !{null, !254, !268}
!324 = !DISubprogram(name: "set_mac_header", linkageName: "_ZN6Packet14set_mac_headerEPKhj", scope: !5, file: !4, line: 285, type: !306, scopeLine: 285, flags: DIFlagPublic | DIFlagPrototyped, spFlags: DISPFlagOptimized)
!325 = !DISubprogram(name: "clear_mac_header", linkageName: "_ZN6Packet16clear_mac_headerEv", scope: !5, file: !4, line: 286, type: !252, scopeLine: 286, flags: DIFlagPublic | DIFlagPrototyped, spFlags: DISPFlagOptimized)
!326 = !DISubprogram(name: "has_network_header", linkageName: "_ZNK6Packet18has_network_headerEv", scope: !5, file: !4, line: 288, type: !256, scopeLine: 288, flags: DIFlagPublic | DIFlagPrototyped, spFlags: DISPFlagOptimized)
!327 = !DISubprogram(name: "network_header", linkageName: "_ZNK6Packet14network_headerEv", scope: !5, file: !4, line: 289, type: !266, scopeLine: 289, flags: DIFlagPublic | DIFlagPrototyped, spFlags: DISPFlagOptimized)
!328 = !DISubprogram(name: "network_header_offset", linkageName: "_ZNK6Packet21network_header_offsetEv", scope: !5, file: !4, line: 290, type: !317, scopeLine: 290, flags: DIFlagPublic | DIFlagPrototyped, spFlags: DISPFlagOptimized)
!329 = !DISubprogram(name: "network_header_length", linkageName: "_ZNK6Packet21network_header_lengthEv", scope: !5, file: !4, line: 291, type: !272, scopeLine: 291, flags: DIFlagPublic | DIFlagPrototyped, spFlags: DISPFlagOptimized)
!330 = !DISubprogram(name: "network_length", linkageName: "_ZNK6Packet14network_lengthEv", scope: !5, file: !4, line: 292, type: !317, scopeLine: 292, flags: DIFlagPublic | DIFlagPrototyped, spFlags: DISPFlagOptimized)
!331 = !DISubprogram(name: "set_network_header", linkageName: "_ZN6Packet18set_network_headerEPKhj", scope: !5, file: !4, line: 293, type: !306, scopeLine: 293, flags: DIFlagPublic | DIFlagPrototyped, spFlags: DISPFlagOptimized)
!332 = !DISubprogram(name: "set_network_header_length", linkageName: "_ZN6Packet25set_network_header_lengthEj", scope: !5, file: !4, line: 294, type: !297, scopeLine: 294, flags: DIFlagPublic | DIFlagPrototyped, spFlags: DISPFlagOptimized)
!333 = !DISubprogram(name: "clear_network_header", linkageName: "_ZN6Packet20clear_network_headerEv", scope: !5, file: !4, line: 295, type: !252, scopeLine: 295, flags: DIFlagPublic | DIFlagPrototyped, spFlags: DISPFlagOptimized)
!334 = !DISubprogram(name: "has_transport_header", linkageName: "_ZNK6Packet20has_transport_headerEv", scope: !5, file: !4, line: 297, type: !256, scopeLine: 297, flags: DIFlagPublic | DIFlagPrototyped, spFlags: DISPFlagOptimized)
!335 = !DISubprogram(name: "transport_header", linkageName: "_ZNK6Packet16transport_headerEv", scope: !5, file: !4, line: 298, type: !266, scopeLine: 298, flags: DIFlagPublic | DIFlagPrototyped, spFlags: DISPFlagOptimized)
!336 = !DISubprogram(name: "transport_header_offset", linkageName: "_ZNK6Packet23transport_header_offsetEv", scope: !5, file: !4, line: 299, type: !317, scopeLine: 299, flags: DIFlagPublic | DIFlagPrototyped, spFlags: DISPFlagOptimized)
!337 = !DISubprogram(name: "transport_length", linkageName: "_ZNK6Packet16transport_lengthEv", scope: !5, file: !4, line: 300, type: !317, scopeLine: 300, flags: DIFlagPublic | DIFlagPrototyped, spFlags: DISPFlagOptimized)
!338 = !DISubprogram(name: "clear_transport_header", linkageName: "_ZN6Packet22clear_transport_headerEv", scope: !5, file: !4, line: 301, type: !252, scopeLine: 301, flags: DIFlagPublic | DIFlagPrototyped, spFlags: DISPFlagOptimized)
!339 = !DISubprogram(name: "ether_header", linkageName: "_ZNK6Packet12ether_headerEv", scope: !5, file: !4, line: 304, type: !340, scopeLine: 304, flags: DIFlagPublic | DIFlagPrototyped, spFlags: DISPFlagOptimized)
!340 = !DISubroutineType(types: !341)
!341 = !{!342, !258}
!342 = !DIDerivedType(tag: DW_TAG_pointer_type, baseType: !343, size: 64)
!343 = !DIDerivedType(tag: DW_TAG_const_type, baseType: !157)
!344 = !DISubprogram(name: "set_ether_header", linkageName: "_ZN6Packet16set_ether_headerEPK11click_ether", scope: !5, file: !4, line: 305, type: !345, scopeLine: 305, flags: DIFlagPublic | DIFlagPrototyped, spFlags: DISPFlagOptimized)
!345 = !DISubroutineType(types: !346)
!346 = !{null, !254, !342}
!347 = !DISubprogram(name: "ip_header", linkageName: "_ZNK6Packet9ip_headerEv", scope: !5, file: !4, line: 307, type: !348, scopeLine: 307, flags: DIFlagPublic | DIFlagPrototyped, spFlags: DISPFlagOptimized)
!348 = !DISubroutineType(types: !349)
!349 = !{!350, !258}
!350 = !DIDerivedType(tag: DW_TAG_pointer_type, baseType: !351, size: 64)
!351 = !DIDerivedType(tag: DW_TAG_const_type, baseType: !163)
!352 = !DISubprogram(name: "ip_header_offset", linkageName: "_ZNK6Packet16ip_header_offsetEv", scope: !5, file: !4, line: 308, type: !317, scopeLine: 308, flags: DIFlagPublic | DIFlagPrototyped, spFlags: DISPFlagOptimized)
!353 = !DISubprogram(name: "ip_header_length", linkageName: "_ZNK6Packet16ip_header_lengthEv", scope: !5, file: !4, line: 309, type: !272, scopeLine: 309, flags: DIFlagPublic | DIFlagPrototyped, spFlags: DISPFlagOptimized)
!354 = !DISubprogram(name: "set_ip_header", linkageName: "_ZN6Packet13set_ip_headerEPK8click_ipj", scope: !5, file: !4, line: 310, type: !355, scopeLine: 310, flags: DIFlagPublic | DIFlagPrototyped, spFlags: DISPFlagOptimized)
!355 = !DISubroutineType(types: !356)
!356 = !{null, !254, !350, !12}
!357 = !DISubprogram(name: "ip6_header", linkageName: "_ZNK6Packet10ip6_headerEv", scope: !5, file: !4, line: 312, type: !358, scopeLine: 312, flags: DIFlagPublic | DIFlagPrototyped, spFlags: DISPFlagOptimized)
!358 = !DISubroutineType(types: !359)
!359 = !{!360, !258}
!360 = !DIDerivedType(tag: DW_TAG_pointer_type, baseType: !361, size: 64)
!361 = !DIDerivedType(tag: DW_TAG_const_type, baseType: !186)
!362 = !DISubprogram(name: "ip6_header_offset", linkageName: "_ZNK6Packet17ip6_header_offsetEv", scope: !5, file: !4, line: 313, type: !317, scopeLine: 313, flags: DIFlagPublic | DIFlagPrototyped, spFlags: DISPFlagOptimized)
!363 = !DISubprogram(name: "ip6_header_length", linkageName: "_ZNK6Packet17ip6_header_lengthEv", scope: !5, file: !4, line: 314, type: !272, scopeLine: 314, flags: DIFlagPublic | DIFlagPrototyped, spFlags: DISPFlagOptimized)
!364 = !DISubprogram(name: "set_ip6_header", linkageName: "_ZN6Packet14set_ip6_headerEPK9click_ip6", scope: !5, file: !4, line: 315, type: !365, scopeLine: 315, flags: DIFlagPublic | DIFlagPrototyped, spFlags: DISPFlagOptimized)
!365 = !DISubroutineType(types: !366)
!366 = !{null, !254, !360}
!367 = !DISubprogram(name: "set_ip6_header", linkageName: "_ZN6Packet14set_ip6_headerEPK9click_ip6j", scope: !5, file: !4, line: 316, type: !368, scopeLine: 316, flags: DIFlagPublic | DIFlagPrototyped, spFlags: DISPFlagOptimized)
!368 = !DISubroutineType(types: !369)
!369 = !{null, !254, !360, !12}
!370 = !DISubprogram(name: "icmp_header", linkageName: "_ZNK6Packet11icmp_headerEv", scope: !5, file: !4, line: 318, type: !371, scopeLine: 318, flags: DIFlagPublic | DIFlagPrototyped, spFlags: DISPFlagOptimized)
!371 = !DISubroutineType(types: !372)
!372 = !{!373, !258}
!373 = !DIDerivedType(tag: DW_TAG_pointer_type, baseType: !374, size: 64)
!374 = !DIDerivedType(tag: DW_TAG_const_type, baseType: !192)
!375 = !DISubprogram(name: "tcp_header", linkageName: "_ZNK6Packet10tcp_headerEv", scope: !5, file: !4, line: 319, type: !376, scopeLine: 319, flags: DIFlagPublic | DIFlagPrototyped, spFlags: DISPFlagOptimized)
!376 = !DISubroutineType(types: !377)
!377 = !{!378, !258}
!378 = !DIDerivedType(tag: DW_TAG_pointer_type, baseType: !379, size: 64)
!379 = !DIDerivedType(tag: DW_TAG_const_type, baseType: !197)
!380 = !DISubprogram(name: "udp_header", linkageName: "_ZNK6Packet10udp_headerEv", scope: !5, file: !4, line: 320, type: !381, scopeLine: 320, flags: DIFlagPublic | DIFlagPrototyped, spFlags: DISPFlagOptimized)
!381 = !DISubroutineType(types: !382)
!382 = !{!383, !258}
!383 = !DIDerivedType(tag: DW_TAG_pointer_type, baseType: !384, size: 64)
!384 = !DIDerivedType(tag: DW_TAG_const_type, baseType: !215)
!385 = !DISubprogram(name: "xanno", linkageName: "_ZNK6Packet5xannoEv", scope: !5, file: !4, line: 340, type: !386, scopeLine: 340, flags: DIFlagPrototyped, spFlags: DISPFlagOptimized)
!386 = !DISubroutineType(types: !387)
!387 = !{!388, !258}
!388 = !DIDerivedType(tag: DW_TAG_pointer_type, baseType: !389, size: 64)
!389 = !DIDerivedType(tag: DW_TAG_const_type, baseType: !89)
!390 = !DISubprogram(name: "xanno", linkageName: "_ZN6Packet5xannoEv", scope: !5, file: !4, line: 341, type: !391, scopeLine: 341, flags: DIFlagPrototyped, spFlags: DISPFlagOptimized)
!391 = !DISubroutineType(types: !392)
!392 = !{!393, !254}
!393 = !DIDerivedType(tag: DW_TAG_pointer_type, baseType: !89, size: 64)
!394 = !DISubprogram(name: "timestamp_anno", linkageName: "_ZNK6Packet14timestamp_annoEv", scope: !5, file: !4, line: 354, type: !395, scopeLine: 354, flags: DIFlagPublic | DIFlagPrototyped, spFlags: DISPFlagOptimized)
!395 = !DISubroutineType(types: !396)
!396 = !{!397, !258}
!397 = !DIDerivedType(tag: DW_TAG_reference_type, baseType: !398, size: 64)
!398 = !DIDerivedType(tag: DW_TAG_const_type, baseType: !399)
!399 = distinct !DICompositeType(tag: DW_TAG_class_type, name: "Timestamp", file: !400, line: 122, size: 64, flags: DIFlagTypePassByValue | DIFlagNonTrivial, elements: !401, identifier: "_ZTS9Timestamp")
!400 = !DIFile(filename: "../dummy_inc/click/timestamp.hh", directory: "/home/john/projects/click/ir-dir")
!401 = !{!402, !409, !413, !416, !419, !422, !425, !429, !441, !452, !457, !466, !475, !478, !479, !482, !483, !484, !485, !488, !491, !492, !493, !494, !497, !498, !501, !504, !508, !509, !510, !513, !514, !515, !520, !524, !527, !530, !533, !536, !537, !538, !539, !540, !543, !544, !547, !548, !549, !550, !551, !552, !553, !556, !557, !558, !559, !560, !561, !562, !563, !564, !854, !855, !858, !859, !860, !861, !862, !863, !864, !867, !876, !879, !880, !883, !886, !887, !888, !889, !890, !891, !892, !895, !899, !902, !905, !908}
!402 = !DIDerivedType(tag: DW_TAG_member, name: "_t", scope: !399, file: !400, line: 672, baseType: !403, size: 64)
!403 = distinct !DICompositeType(tag: DW_TAG_union_type, name: "rep_t", scope: !399, file: !400, line: 539, size: 64, flags: DIFlagTypePassByValue, elements: !404, identifier: "_ZTSN9Timestamp5rep_tE")
!404 = !{!405}
!405 = !DIDerivedType(tag: DW_TAG_member, name: "x", scope: !403, file: !400, line: 541, baseType: !406, size: 64)
!406 = !DIDerivedType(tag: DW_TAG_typedef, name: "int64_t", file: !32, line: 27, baseType: !407)
!407 = !DIDerivedType(tag: DW_TAG_typedef, name: "__int64_t", file: !15, line: 44, baseType: !408)
!408 = !DIBasicType(name: "long int", size: 64, encoding: DW_ATE_signed)
!409 = !DISubprogram(name: "Timestamp", scope: !399, file: !400, line: 174, type: !410, scopeLine: 174, flags: DIFlagPublic | DIFlagPrototyped, spFlags: DISPFlagOptimized)
!410 = !DISubroutineType(types: !411)
!411 = !{null, !412}
!412 = !DIDerivedType(tag: DW_TAG_pointer_type, baseType: !399, size: 64, flags: DIFlagArtificial | DIFlagObjectPointer)
!413 = !DISubprogram(name: "Timestamp", scope: !399, file: !400, line: 187, type: !414, scopeLine: 187, flags: DIFlagPublic | DIFlagExplicit | DIFlagPrototyped, spFlags: DISPFlagOptimized)
!414 = !DISubroutineType(types: !415)
!415 = !{null, !412, !408, !12}
!416 = !DISubprogram(name: "Timestamp", scope: !399, file: !400, line: 191, type: !417, scopeLine: 191, flags: DIFlagPublic | DIFlagExplicit | DIFlagPrototyped, spFlags: DISPFlagOptimized)
!417 = !DISubroutineType(types: !418)
!418 = !{null, !412, !34, !12}
!419 = !DISubprogram(name: "Timestamp", scope: !399, file: !400, line: 195, type: !420, scopeLine: 195, flags: DIFlagPublic | DIFlagExplicit | DIFlagPrototyped, spFlags: DISPFlagOptimized)
!420 = !DISubroutineType(types: !421)
!421 = !{null, !412, !115, !12}
!422 = !DISubprogram(name: "Timestamp", scope: !399, file: !400, line: 199, type: !423, scopeLine: 199, flags: DIFlagPublic | DIFlagExplicit | DIFlagPrototyped, spFlags: DISPFlagOptimized)
!423 = !DISubroutineType(types: !424)
!424 = !{null, !412, !16, !12}
!425 = !DISubprogram(name: "Timestamp", scope: !399, file: !400, line: 203, type: !426, scopeLine: 203, flags: DIFlagPublic | DIFlagExplicit | DIFlagPrototyped, spFlags: DISPFlagOptimized)
!426 = !DISubroutineType(types: !427)
!427 = !{null, !412, !428}
!428 = !DIBasicType(name: "double", size: 64, encoding: DW_ATE_float)
!429 = !DISubprogram(name: "Timestamp", scope: !399, file: !400, line: 206, type: !430, scopeLine: 206, flags: DIFlagPublic | DIFlagPrototyped, spFlags: DISPFlagOptimized)
!430 = !DISubroutineType(types: !431)
!431 = !{null, !412, !432}
!432 = !DIDerivedType(tag: DW_TAG_reference_type, baseType: !433, size: 64)
!433 = !DIDerivedType(tag: DW_TAG_const_type, baseType: !434)
!434 = distinct !DICompositeType(tag: DW_TAG_structure_type, name: "timeval", file: !435, line: 8, size: 128, flags: DIFlagTypePassByValue, elements: !436, identifier: "_ZTS7timeval")
!435 = !DIFile(filename: "/usr/include/bits/types/struct_timeval.h", directory: "")
!436 = !{!437, !439}
!437 = !DIDerivedType(tag: DW_TAG_member, name: "tv_sec", scope: !434, file: !435, line: 10, baseType: !438, size: 64)
!438 = !DIDerivedType(tag: DW_TAG_typedef, name: "__time_t", file: !15, line: 160, baseType: !408)
!439 = !DIDerivedType(tag: DW_TAG_member, name: "tv_usec", scope: !434, file: !435, line: 11, baseType: !440, size: 64, offset: 64)
!440 = !DIDerivedType(tag: DW_TAG_typedef, name: "__suseconds_t", file: !15, line: 162, baseType: !408)
!441 = !DISubprogram(name: "Timestamp", scope: !399, file: !400, line: 208, type: !442, scopeLine: 208, flags: DIFlagPublic | DIFlagPrototyped, spFlags: DISPFlagOptimized)
!442 = !DISubroutineType(types: !443)
!443 = !{null, !412, !444}
!444 = !DIDerivedType(tag: DW_TAG_reference_type, baseType: !445, size: 64)
!445 = !DIDerivedType(tag: DW_TAG_const_type, baseType: !446)
!446 = distinct !DICompositeType(tag: DW_TAG_structure_type, name: "timespec", file: !447, line: 10, size: 128, flags: DIFlagTypePassByValue, elements: !448, identifier: "_ZTS8timespec")
!447 = !DIFile(filename: "/usr/include/bits/types/struct_timespec.h", directory: "")
!448 = !{!449, !450}
!449 = !DIDerivedType(tag: DW_TAG_member, name: "tv_sec", scope: !446, file: !447, line: 12, baseType: !438, size: 64)
!450 = !DIDerivedType(tag: DW_TAG_member, name: "tv_nsec", scope: !446, file: !447, line: 16, baseType: !451, size: 64, offset: 64)
!451 = !DIDerivedType(tag: DW_TAG_typedef, name: "__syscall_slong_t", file: !15, line: 196, baseType: !408)
!452 = !DISubprogram(name: "Timestamp", scope: !399, file: !400, line: 212, type: !453, scopeLine: 212, flags: DIFlagPublic | DIFlagPrototyped, spFlags: DISPFlagOptimized)
!453 = !DISubroutineType(types: !454)
!454 = !{null, !412, !455}
!455 = !DIDerivedType(tag: DW_TAG_reference_type, baseType: !456, size: 64)
!456 = !DIDerivedType(tag: DW_TAG_const_type, baseType: !403)
!457 = !DISubprogram(name: "Timestamp", scope: !399, file: !400, line: 217, type: !458, scopeLine: 217, flags: DIFlagPublic | DIFlagPrototyped, spFlags: DISPFlagOptimized)
!458 = !DISubroutineType(types: !459)
!459 = !{null, !412, !460}
!460 = !DIDerivedType(tag: DW_TAG_reference_type, baseType: !461, size: 64)
!461 = !DIDerivedType(tag: DW_TAG_const_type, baseType: !462)
!462 = !DIDerivedType(tag: DW_TAG_typedef, name: "uninitialized_t", scope: !399, file: !400, line: 168, baseType: !463)
!463 = distinct !DICompositeType(tag: DW_TAG_structure_type, name: "uninitialized_type", file: !464, line: 317, size: 8, flags: DIFlagTypePassByValue, elements: !465, identifier: "_ZTS18uninitialized_type")
!464 = !DIFile(filename: "../dummy_inc/click/config.h", directory: "/home/john/projects/click/ir-dir")
!465 = !{}
!466 = !DISubprogram(name: "operator int (Timestamp::*)() const", linkageName: "_ZNK9TimestampcvMS_KFivEEv", scope: !399, file: !400, line: 222, type: !467, scopeLine: 222, flags: DIFlagPublic | DIFlagPrototyped, spFlags: DISPFlagOptimized)
!467 = !DISubroutineType(types: !468)
!468 = !{!469, !474}
!469 = !DIDerivedType(tag: DW_TAG_typedef, name: "unspecified_bool_type", scope: !399, file: !400, line: 221, baseType: !470)
!470 = !DIDerivedType(tag: DW_TAG_ptr_to_member_type, baseType: !471, size: 128, extraData: !399)
!471 = !DISubroutineType(types: !472)
!472 = !{!473, !474}
!473 = !DIDerivedType(tag: DW_TAG_typedef, name: "seconds_type", scope: !399, file: !400, line: 125, baseType: !31)
!474 = !DIDerivedType(tag: DW_TAG_pointer_type, baseType: !398, size: 64, flags: DIFlagArtificial | DIFlagObjectPointer)
!475 = !DISubprogram(name: "is_negative", linkageName: "_ZNK9Timestamp11is_negativeEv", scope: !399, file: !400, line: 225, type: !476, scopeLine: 225, flags: DIFlagPublic | DIFlagPrototyped, spFlags: DISPFlagOptimized)
!476 = !DISubroutineType(types: !477)
!477 = !{!53, !474}
!478 = !DISubprogram(name: "sec", linkageName: "_ZNK9Timestamp3secEv", scope: !399, file: !400, line: 233, type: !471, scopeLine: 233, flags: DIFlagPublic | DIFlagPrototyped, spFlags: DISPFlagOptimized)
!479 = !DISubprogram(name: "subsec", linkageName: "_ZNK9Timestamp6subsecEv", scope: !399, file: !400, line: 234, type: !480, scopeLine: 234, flags: DIFlagPublic | DIFlagPrototyped, spFlags: DISPFlagOptimized)
!480 = !DISubroutineType(types: !481)
!481 = !{!12, !474}
!482 = !DISubprogram(name: "msec", linkageName: "_ZNK9Timestamp4msecEv", scope: !399, file: !400, line: 235, type: !480, scopeLine: 235, flags: DIFlagPublic | DIFlagPrototyped, spFlags: DISPFlagOptimized)
!483 = !DISubprogram(name: "usec", linkageName: "_ZNK9Timestamp4usecEv", scope: !399, file: !400, line: 236, type: !480, scopeLine: 236, flags: DIFlagPublic | DIFlagPrototyped, spFlags: DISPFlagOptimized)
!484 = !DISubprogram(name: "nsec", linkageName: "_ZNK9Timestamp4nsecEv", scope: !399, file: !400, line: 237, type: !480, scopeLine: 237, flags: DIFlagPublic | DIFlagPrototyped, spFlags: DISPFlagOptimized)
!485 = !DISubprogram(name: "set_sec", linkageName: "_ZN9Timestamp7set_secEi", scope: !399, file: !400, line: 239, type: !486, scopeLine: 239, flags: DIFlagPublic | DIFlagPrototyped, spFlags: DISPFlagOptimized)
!486 = !DISubroutineType(types: !487)
!487 = !{null, !412, !473}
!488 = !DISubprogram(name: "set_subsec", linkageName: "_ZN9Timestamp10set_subsecEj", scope: !399, file: !400, line: 240, type: !489, scopeLine: 240, flags: DIFlagPublic | DIFlagPrototyped, spFlags: DISPFlagOptimized)
!489 = !DISubroutineType(types: !490)
!490 = !{null, !412, !12}
!491 = !DISubprogram(name: "msec1", linkageName: "_ZNK9Timestamp5msec1Ev", scope: !399, file: !400, line: 242, type: !471, scopeLine: 242, flags: DIFlagPublic | DIFlagPrototyped, spFlags: DISPFlagOptimized)
!492 = !DISubprogram(name: "usec1", linkageName: "_ZNK9Timestamp5usec1Ev", scope: !399, file: !400, line: 243, type: !471, scopeLine: 243, flags: DIFlagPublic | DIFlagPrototyped, spFlags: DISPFlagOptimized)
!493 = !DISubprogram(name: "nsec1", linkageName: "_ZNK9Timestamp5nsec1Ev", scope: !399, file: !400, line: 244, type: !471, scopeLine: 244, flags: DIFlagPublic | DIFlagPrototyped, spFlags: DISPFlagOptimized)
!494 = !DISubprogram(name: "timeval", linkageName: "_ZNK9Timestamp7timevalEv", scope: !399, file: !400, line: 250, type: !495, scopeLine: 250, flags: DIFlagPublic | DIFlagPrototyped, spFlags: DISPFlagOptimized)
!495 = !DISubroutineType(types: !496)
!496 = !{!434, !474}
!497 = !DISubprogram(name: "timeval_ceil", linkageName: "_ZNK9Timestamp12timeval_ceilEv", scope: !399, file: !400, line: 251, type: !495, scopeLine: 251, flags: DIFlagPublic | DIFlagPrototyped, spFlags: DISPFlagOptimized)
!498 = !DISubprogram(name: "timespec", linkageName: "_ZNK9Timestamp8timespecEv", scope: !399, file: !400, line: 257, type: !499, scopeLine: 257, flags: DIFlagPublic | DIFlagPrototyped, spFlags: DISPFlagOptimized)
!499 = !DISubroutineType(types: !500)
!500 = !{!446, !474}
!501 = !DISubprogram(name: "doubleval", linkageName: "_ZNK9Timestamp9doublevalEv", scope: !399, file: !400, line: 262, type: !502, scopeLine: 262, flags: DIFlagPublic | DIFlagPrototyped, spFlags: DISPFlagOptimized)
!502 = !DISubroutineType(types: !503)
!503 = !{!428, !474}
!504 = !DISubprogram(name: "msecval", linkageName: "_ZNK9Timestamp7msecvalEv", scope: !399, file: !400, line: 265, type: !505, scopeLine: 265, flags: DIFlagPublic | DIFlagPrototyped, spFlags: DISPFlagOptimized)
!505 = !DISubroutineType(types: !506)
!506 = !{!507, !474}
!507 = !DIDerivedType(tag: DW_TAG_typedef, name: "value_type", scope: !399, file: !400, line: 128, baseType: !406)
!508 = !DISubprogram(name: "usecval", linkageName: "_ZNK9Timestamp7usecvalEv", scope: !399, file: !400, line: 273, type: !505, scopeLine: 273, flags: DIFlagPublic | DIFlagPrototyped, spFlags: DISPFlagOptimized)
!509 = !DISubprogram(name: "nsecval", linkageName: "_ZNK9Timestamp7nsecvalEv", scope: !399, file: !400, line: 281, type: !505, scopeLine: 281, flags: DIFlagPublic | DIFlagPrototyped, spFlags: DISPFlagOptimized)
!510 = !DISubprogram(name: "msec_ceil", linkageName: "_ZNK9Timestamp9msec_ceilEv", scope: !399, file: !400, line: 290, type: !511, scopeLine: 290, flags: DIFlagPublic | DIFlagPrototyped, spFlags: DISPFlagOptimized)
!511 = !DISubroutineType(types: !512)
!512 = !{!399, !474}
!513 = !DISubprogram(name: "usec_ceil", linkageName: "_ZNK9Timestamp9usec_ceilEv", scope: !399, file: !400, line: 295, type: !511, scopeLine: 295, flags: DIFlagPublic | DIFlagPrototyped, spFlags: DISPFlagOptimized)
!514 = !DISubprogram(name: "nsec_ceil", linkageName: "_ZNK9Timestamp9nsec_ceilEv", scope: !399, file: !400, line: 304, type: !511, scopeLine: 304, flags: DIFlagPublic | DIFlagPrototyped, spFlags: DISPFlagOptimized)
!515 = !DISubprogram(name: "make_jiffies", linkageName: "_ZN9Timestamp12make_jiffiesEj", scope: !399, file: !400, line: 310, type: !516, scopeLine: 310, flags: DIFlagPublic | DIFlagPrototyped | DIFlagStaticMember, spFlags: DISPFlagOptimized)
!516 = !DISubroutineType(types: !517)
!517 = !{!399, !518}
!518 = !DIDerivedType(tag: DW_TAG_typedef, name: "click_jiffies_t", file: !519, line: 477, baseType: !16)
!519 = !DIFile(filename: "../dummy_inc/click/glue.hh", directory: "/home/john/projects/click/ir-dir")
!520 = !DISubprogram(name: "make_jiffies", linkageName: "_ZN9Timestamp12make_jiffiesEi", scope: !399, file: !400, line: 312, type: !521, scopeLine: 312, flags: DIFlagPublic | DIFlagPrototyped | DIFlagStaticMember, spFlags: DISPFlagOptimized)
!521 = !DISubroutineType(types: !522)
!522 = !{!399, !523}
!523 = !DIDerivedType(tag: DW_TAG_typedef, name: "click_jiffies_difference_t", file: !519, line: 478, baseType: !34)
!524 = !DISubprogram(name: "jiffies", linkageName: "_ZNK9Timestamp7jiffiesEv", scope: !399, file: !400, line: 314, type: !525, scopeLine: 314, flags: DIFlagPublic | DIFlagPrototyped, spFlags: DISPFlagOptimized)
!525 = !DISubroutineType(types: !526)
!526 = !{!518, !474}
!527 = !DISubprogram(name: "make_sec", linkageName: "_ZN9Timestamp8make_secEi", scope: !399, file: !400, line: 318, type: !528, scopeLine: 318, flags: DIFlagPublic | DIFlagPrototyped | DIFlagStaticMember, spFlags: DISPFlagOptimized)
!528 = !DISubroutineType(types: !529)
!529 = !{!399, !473}
!530 = !DISubprogram(name: "make_msec", linkageName: "_ZN9Timestamp9make_msecEij", scope: !399, file: !400, line: 324, type: !531, scopeLine: 324, flags: DIFlagPublic | DIFlagPrototyped | DIFlagStaticMember, spFlags: DISPFlagOptimized)
!531 = !DISubroutineType(types: !532)
!532 = !{!399, !473, !12}
!533 = !DISubprogram(name: "make_msec", linkageName: "_ZN9Timestamp9make_msecEl", scope: !399, file: !400, line: 328, type: !534, scopeLine: 328, flags: DIFlagPublic | DIFlagPrototyped | DIFlagStaticMember, spFlags: DISPFlagOptimized)
!534 = !DISubroutineType(types: !535)
!535 = !{!399, !507}
!536 = !DISubprogram(name: "make_usec", linkageName: "_ZN9Timestamp9make_usecEij", scope: !399, file: !400, line: 341, type: !531, scopeLine: 341, flags: DIFlagPublic | DIFlagPrototyped | DIFlagStaticMember, spFlags: DISPFlagOptimized)
!537 = !DISubprogram(name: "make_usec", linkageName: "_ZN9Timestamp9make_usecEl", scope: !399, file: !400, line: 345, type: !534, scopeLine: 345, flags: DIFlagPublic | DIFlagPrototyped | DIFlagStaticMember, spFlags: DISPFlagOptimized)
!538 = !DISubprogram(name: "make_nsec", linkageName: "_ZN9Timestamp9make_nsecEij", scope: !399, file: !400, line: 358, type: !531, scopeLine: 358, flags: DIFlagPublic | DIFlagPrototyped | DIFlagStaticMember, spFlags: DISPFlagOptimized)
!539 = !DISubprogram(name: "make_nsec", linkageName: "_ZN9Timestamp9make_nsecEl", scope: !399, file: !400, line: 362, type: !534, scopeLine: 362, flags: DIFlagPublic | DIFlagPrototyped | DIFlagStaticMember, spFlags: DISPFlagOptimized)
!540 = !DISubprogram(name: "epsilon", linkageName: "_ZN9Timestamp7epsilonEv", scope: !399, file: !400, line: 375, type: !541, scopeLine: 375, flags: DIFlagPublic | DIFlagPrototyped | DIFlagStaticMember, spFlags: DISPFlagOptimized)
!541 = !DISubroutineType(types: !542)
!542 = !{!399}
!543 = !DISubprogram(name: "clear", linkageName: "_ZN9Timestamp5clearEv", scope: !399, file: !400, line: 380, type: !410, scopeLine: 380, flags: DIFlagPublic | DIFlagPrototyped, spFlags: DISPFlagOptimized)
!544 = !DISubprogram(name: "assign", linkageName: "_ZN9Timestamp6assignEij", scope: !399, file: !400, line: 388, type: !545, scopeLine: 388, flags: DIFlagPublic | DIFlagPrototyped, spFlags: DISPFlagOptimized)
!545 = !DISubroutineType(types: !546)
!546 = !{null, !412, !473, !12}
!547 = !DISubprogram(name: "assign_usec", linkageName: "_ZN9Timestamp11assign_usecEij", scope: !399, file: !400, line: 397, type: !545, scopeLine: 397, flags: DIFlagPublic | DIFlagPrototyped, spFlags: DISPFlagOptimized)
!548 = !DISubprogram(name: "assign_nsec", linkageName: "_ZN9Timestamp11assign_nsecEij", scope: !399, file: !400, line: 401, type: !545, scopeLine: 401, flags: DIFlagPublic | DIFlagPrototyped, spFlags: DISPFlagOptimized)
!549 = !DISubprogram(name: "set", linkageName: "_ZN9Timestamp3setEij", scope: !399, file: !400, line: 408, type: !545, scopeLine: 408, flags: DIFlagPublic | DIFlagPrototyped, spFlags: DISPFlagOptimized)
!550 = !DISubprogram(name: "set_usec", linkageName: "_ZN9Timestamp8set_usecEij", scope: !399, file: !400, line: 411, type: !545, scopeLine: 411, flags: DIFlagPublic | DIFlagPrototyped, spFlags: DISPFlagOptimized)
!551 = !DISubprogram(name: "set_nsec", linkageName: "_ZN9Timestamp8set_nsecEij", scope: !399, file: !400, line: 414, type: !545, scopeLine: 414, flags: DIFlagPublic | DIFlagPrototyped, spFlags: DISPFlagOptimized)
!552 = !DISubprogram(name: "set_now", linkageName: "_ZN9Timestamp7set_nowEv", scope: !399, file: !400, line: 417, type: !410, scopeLine: 417, flags: DIFlagPublic | DIFlagPrototyped, spFlags: DISPFlagOptimized)
!553 = !DISubprogram(name: "set_timeval_ioctl", linkageName: "_ZN9Timestamp17set_timeval_ioctlEii", scope: !399, file: !400, line: 420, type: !554, scopeLine: 420, flags: DIFlagPublic | DIFlagPrototyped, spFlags: DISPFlagOptimized)
!554 = !DISubroutineType(types: !555)
!555 = !{!34, !412, !34, !34}
!556 = !DISubprogram(name: "now", linkageName: "_ZN9Timestamp3nowEv", scope: !399, file: !400, line: 432, type: !541, scopeLine: 432, flags: DIFlagPublic | DIFlagPrototyped | DIFlagStaticMember, spFlags: DISPFlagOptimized)
!557 = !DISubprogram(name: "assign_now", linkageName: "_ZN9Timestamp10assign_nowEv", scope: !399, file: !400, line: 438, type: !410, scopeLine: 438, flags: DIFlagPublic | DIFlagPrototyped, spFlags: DISPFlagOptimized)
!558 = !DISubprogram(name: "recent", linkageName: "_ZN9Timestamp6recentEv", scope: !399, file: !400, line: 446, type: !541, scopeLine: 446, flags: DIFlagPublic | DIFlagPrototyped | DIFlagStaticMember, spFlags: DISPFlagOptimized)
!559 = !DISubprogram(name: "assign_recent", linkageName: "_ZN9Timestamp13assign_recentEv", scope: !399, file: !400, line: 452, type: !410, scopeLine: 452, flags: DIFlagPublic | DIFlagPrototyped, spFlags: DISPFlagOptimized)
!560 = !DISubprogram(name: "now_steady", linkageName: "_ZN9Timestamp10now_steadyEv", scope: !399, file: !400, line: 466, type: !541, scopeLine: 466, flags: DIFlagPublic | DIFlagPrototyped | DIFlagStaticMember, spFlags: DISPFlagOptimized)
!561 = !DISubprogram(name: "assign_now_steady", linkageName: "_ZN9Timestamp17assign_now_steadyEv", scope: !399, file: !400, line: 472, type: !410, scopeLine: 472, flags: DIFlagPublic | DIFlagPrototyped, spFlags: DISPFlagOptimized)
!562 = !DISubprogram(name: "recent_steady", linkageName: "_ZN9Timestamp13recent_steadyEv", scope: !399, file: !400, line: 481, type: !541, scopeLine: 481, flags: DIFlagPublic | DIFlagPrototyped | DIFlagStaticMember, spFlags: DISPFlagOptimized)
!563 = !DISubprogram(name: "assign_recent_steady", linkageName: "_ZN9Timestamp20assign_recent_steadyEv", scope: !399, file: !400, line: 487, type: !410, scopeLine: 487, flags: DIFlagPublic | DIFlagPrototyped, spFlags: DISPFlagOptimized)
!564 = !DISubprogram(name: "unparse", linkageName: "_ZNK9Timestamp7unparseEv", scope: !399, file: !400, line: 496, type: !565, scopeLine: 496, flags: DIFlagPublic | DIFlagPrototyped, spFlags: DISPFlagOptimized)
!565 = !DISubroutineType(types: !566)
!566 = !{!567, !474}
!567 = distinct !DICompositeType(tag: DW_TAG_class_type, name: "String", file: !568, line: 19, size: 192, flags: DIFlagTypePassByReference | DIFlagNonTrivial, elements: !569, identifier: "_ZTS6String")
!568 = !DIFile(filename: "../dummy_inc/click/string.hh", directory: "/home/john/projects/click/ir-dir")
!569 = !{!570, !575, !589, !590, !594, !598, !600, !601, !605, !610, !614, !617, !620, !623, !626, !629, !632, !635, !638, !641, !644, !647, !650, !654, !658, !661, !662, !665, !668, !669, !672, !675, !678, !682, !686, !690, !693, !694, !699, !702, !703, !707, !708, !711, !712, !715, !716, !719, !722, !725, !728, !731, !734, !737, !740, !743, !746, !749, !752, !753, !754, !755, !758, !761, !762, !763, !764, !765, !766, !767, !771, !774, !777, !780, !781, !782, !783, !784, !785, !788, !792, !793, !794, !795, !798, !799, !800, !801, !802, !803, !806, !807, !808, !809, !812, !815, !816, !819, !822, !825, !828, !831, !834, !837, !838, !839, !840, !843, !846, !849, !850, !851}
!570 = !DIDerivedType(tag: DW_TAG_member, name: "bool_data", scope: !567, file: !568, line: 184, baseType: !571, flags: DIFlagPublic | DIFlagStaticMember)
!571 = !DICompositeType(tag: DW_TAG_array_type, baseType: !572, size: 88, elements: !573)
!572 = !DIDerivedType(tag: DW_TAG_const_type, baseType: !93)
!573 = !{!574}
!574 = !DISubrange(count: 11)
!575 = !DIDerivedType(tag: DW_TAG_member, name: "_r", scope: !567, file: !568, line: 211, baseType: !576, size: 192)
!576 = distinct !DICompositeType(tag: DW_TAG_structure_type, name: "rep_t", scope: !567, file: !568, line: 204, size: 192, flags: DIFlagTypePassByValue, elements: !577, identifier: "_ZTSN6String5rep_tE")
!577 = !{!578, !580, !581}
!578 = !DIDerivedType(tag: DW_TAG_member, name: "data", scope: !576, file: !568, line: 205, baseType: !579, size: 64)
!579 = !DIDerivedType(tag: DW_TAG_pointer_type, baseType: !572, size: 64)
!580 = !DIDerivedType(tag: DW_TAG_member, name: "length", scope: !576, file: !568, line: 206, baseType: !34, size: 32, offset: 64)
!581 = !DIDerivedType(tag: DW_TAG_member, name: "memo", scope: !576, file: !568, line: 207, baseType: !582, size: 64, offset: 128)
!582 = !DIDerivedType(tag: DW_TAG_pointer_type, baseType: !583, size: 64)
!583 = distinct !DICompositeType(tag: DW_TAG_structure_type, name: "memo_t", scope: !567, file: !568, line: 189, size: 160, flags: DIFlagTypePassByValue, elements: !584, identifier: "_ZTSN6String6memo_tE")
!584 = !{!585, !586, !587, !588}
!585 = !DIDerivedType(tag: DW_TAG_member, name: "refcount", scope: !583, file: !568, line: 190, baseType: !64, size: 32)
!586 = !DIDerivedType(tag: DW_TAG_member, name: "capacity", scope: !583, file: !568, line: 191, baseType: !12, size: 32, offset: 32)
!587 = !DIDerivedType(tag: DW_TAG_member, name: "dirty", scope: !583, file: !568, line: 192, baseType: !64, size: 32, offset: 64)
!588 = !DIDerivedType(tag: DW_TAG_member, name: "real_data", scope: !583, file: !568, line: 197, baseType: !123, size: 64, offset: 96)
!589 = !DIDerivedType(tag: DW_TAG_member, name: "null_data", scope: !567, file: !568, line: 292, baseType: !572, flags: DIFlagStaticMember)
!590 = !DIDerivedType(tag: DW_TAG_member, name: "oom_data", scope: !567, file: !568, line: 293, baseType: !591, flags: DIFlagStaticMember)
!591 = !DICompositeType(tag: DW_TAG_array_type, baseType: !572, size: 120, elements: !592)
!592 = !{!593}
!593 = !DISubrange(count: 15)
!594 = !DIDerivedType(tag: DW_TAG_member, name: "int_data", scope: !567, file: !568, line: 294, baseType: !595, flags: DIFlagStaticMember)
!595 = !DICompositeType(tag: DW_TAG_array_type, baseType: !572, size: 160, elements: !596)
!596 = !{!597}
!597 = !DISubrange(count: 20)
!598 = !DIDerivedType(tag: DW_TAG_member, name: "null_string_rep", scope: !567, file: !568, line: 295, baseType: !599, flags: DIFlagStaticMember)
!599 = !DIDerivedType(tag: DW_TAG_const_type, baseType: !576)
!600 = !DIDerivedType(tag: DW_TAG_member, name: "oom_string_rep", scope: !567, file: !568, line: 296, baseType: !599, flags: DIFlagStaticMember)
!601 = !DISubprogram(name: "String", scope: !567, file: !568, line: 39, type: !602, scopeLine: 39, flags: DIFlagPublic | DIFlagPrototyped, spFlags: DISPFlagOptimized)
!602 = !DISubroutineType(types: !603)
!603 = !{null, !604}
!604 = !DIDerivedType(tag: DW_TAG_pointer_type, baseType: !567, size: 64, flags: DIFlagArtificial | DIFlagObjectPointer)
!605 = !DISubprogram(name: "String", scope: !567, file: !568, line: 40, type: !606, scopeLine: 40, flags: DIFlagPublic | DIFlagPrototyped, spFlags: DISPFlagOptimized)
!606 = !DISubroutineType(types: !607)
!607 = !{null, !604, !608}
!608 = !DIDerivedType(tag: DW_TAG_reference_type, baseType: !609, size: 64)
!609 = !DIDerivedType(tag: DW_TAG_const_type, baseType: !567)
!610 = !DISubprogram(name: "String", scope: !567, file: !568, line: 42, type: !611, scopeLine: 42, flags: DIFlagPublic | DIFlagPrototyped, spFlags: DISPFlagOptimized)
!611 = !DISubroutineType(types: !612)
!612 = !{null, !604, !613}
!613 = !DIDerivedType(tag: DW_TAG_rvalue_reference_type, baseType: !567, size: 64)
!614 = !DISubprogram(name: "String", scope: !567, file: !568, line: 44, type: !615, scopeLine: 44, flags: DIFlagPublic | DIFlagPrototyped, spFlags: DISPFlagOptimized)
!615 = !DISubroutineType(types: !616)
!616 = !{null, !604, !579}
!617 = !DISubprogram(name: "String", scope: !567, file: !568, line: 45, type: !618, scopeLine: 45, flags: DIFlagPublic | DIFlagPrototyped, spFlags: DISPFlagOptimized)
!618 = !DISubroutineType(types: !619)
!619 = !{null, !604, !579, !34}
!620 = !DISubprogram(name: "String", scope: !567, file: !568, line: 46, type: !621, scopeLine: 46, flags: DIFlagPublic | DIFlagPrototyped, spFlags: DISPFlagOptimized)
!621 = !DISubroutineType(types: !622)
!622 = !{null, !604, !268, !34}
!623 = !DISubprogram(name: "String", scope: !567, file: !568, line: 47, type: !624, scopeLine: 47, flags: DIFlagPublic | DIFlagPrototyped, spFlags: DISPFlagOptimized)
!624 = !DISubroutineType(types: !625)
!625 = !{null, !604, !579, !579}
!626 = !DISubprogram(name: "String", scope: !567, file: !568, line: 48, type: !627, scopeLine: 48, flags: DIFlagPublic | DIFlagPrototyped, spFlags: DISPFlagOptimized)
!627 = !DISubroutineType(types: !628)
!628 = !{null, !604, !268, !268}
!629 = !DISubprogram(name: "String", scope: !567, file: !568, line: 49, type: !630, scopeLine: 49, flags: DIFlagPublic | DIFlagExplicit | DIFlagPrototyped, spFlags: DISPFlagOptimized)
!630 = !DISubroutineType(types: !631)
!631 = !{null, !604, !53}
!632 = !DISubprogram(name: "String", scope: !567, file: !568, line: 50, type: !633, scopeLine: 50, flags: DIFlagPublic | DIFlagExplicit | DIFlagPrototyped, spFlags: DISPFlagOptimized)
!633 = !DISubroutineType(types: !634)
!634 = !{null, !604, !93}
!635 = !DISubprogram(name: "String", scope: !567, file: !568, line: 51, type: !636, scopeLine: 51, flags: DIFlagPublic | DIFlagExplicit | DIFlagPrototyped, spFlags: DISPFlagOptimized)
!636 = !DISubroutineType(types: !637)
!637 = !{null, !604, !81}
!638 = !DISubprogram(name: "String", scope: !567, file: !568, line: 52, type: !639, scopeLine: 52, flags: DIFlagPublic | DIFlagExplicit | DIFlagPrototyped, spFlags: DISPFlagOptimized)
!639 = !DISubroutineType(types: !640)
!640 = !{null, !604, !34}
!641 = !DISubprogram(name: "String", scope: !567, file: !568, line: 53, type: !642, scopeLine: 53, flags: DIFlagPublic | DIFlagExplicit | DIFlagPrototyped, spFlags: DISPFlagOptimized)
!642 = !DISubroutineType(types: !643)
!643 = !{null, !604, !16}
!644 = !DISubprogram(name: "String", scope: !567, file: !568, line: 54, type: !645, scopeLine: 54, flags: DIFlagPublic | DIFlagExplicit | DIFlagPrototyped, spFlags: DISPFlagOptimized)
!645 = !DISubroutineType(types: !646)
!646 = !{null, !604, !408}
!647 = !DISubprogram(name: "String", scope: !567, file: !568, line: 55, type: !648, scopeLine: 55, flags: DIFlagPublic | DIFlagExplicit | DIFlagPrototyped, spFlags: DISPFlagOptimized)
!648 = !DISubroutineType(types: !649)
!649 = !{null, !604, !115}
!650 = !DISubprogram(name: "String", scope: !567, file: !568, line: 57, type: !651, scopeLine: 57, flags: DIFlagPublic | DIFlagExplicit | DIFlagPrototyped, spFlags: DISPFlagOptimized)
!651 = !DISubroutineType(types: !652)
!652 = !{null, !604, !653}
!653 = !DIBasicType(name: "long long int", size: 64, encoding: DW_ATE_signed)
!654 = !DISubprogram(name: "String", scope: !567, file: !568, line: 58, type: !655, scopeLine: 58, flags: DIFlagPublic | DIFlagExplicit | DIFlagPrototyped, spFlags: DISPFlagOptimized)
!655 = !DISubroutineType(types: !656)
!656 = !{null, !604, !657}
!657 = !DIBasicType(name: "long long unsigned int", size: 64, encoding: DW_ATE_unsigned)
!658 = !DISubprogram(name: "String", scope: !567, file: !568, line: 65, type: !659, scopeLine: 65, flags: DIFlagPublic | DIFlagExplicit | DIFlagPrototyped, spFlags: DISPFlagOptimized)
!659 = !DISubroutineType(types: !660)
!660 = !{null, !604, !428}
!661 = !DISubprogram(name: "~String", scope: !567, file: !568, line: 67, type: !602, scopeLine: 67, flags: DIFlagPublic | DIFlagPrototyped, spFlags: DISPFlagOptimized)
!662 = !DISubprogram(name: "make_empty", linkageName: "_ZN6String10make_emptyEv", scope: !567, file: !568, line: 69, type: !663, scopeLine: 69, flags: DIFlagPublic | DIFlagPrototyped | DIFlagStaticMember, spFlags: DISPFlagOptimized)
!663 = !DISubroutineType(types: !664)
!664 = !{!608}
!665 = !DISubprogram(name: "make_uninitialized", linkageName: "_ZN6String18make_uninitializedEi", scope: !567, file: !568, line: 70, type: !666, scopeLine: 70, flags: DIFlagPublic | DIFlagPrototyped | DIFlagStaticMember, spFlags: DISPFlagOptimized)
!666 = !DISubroutineType(types: !667)
!667 = !{!567, !34}
!668 = !DISubprogram(name: "make_garbage", linkageName: "_ZN6String12make_garbageEi", scope: !567, file: !568, line: 71, type: !666, scopeLine: 71, flags: DIFlagPublic | DIFlagPrototyped | DIFlagStaticMember, spFlags: DISPFlagOptimized)
!669 = !DISubprogram(name: "make_stable", linkageName: "_ZN6String11make_stableEPKc", scope: !567, file: !568, line: 72, type: !670, scopeLine: 72, flags: DIFlagPublic | DIFlagPrototyped | DIFlagStaticMember, spFlags: DISPFlagOptimized)
!670 = !DISubroutineType(types: !671)
!671 = !{!567, !579}
!672 = !DISubprogram(name: "make_stable", linkageName: "_ZN6String11make_stableEPKci", scope: !567, file: !568, line: 73, type: !673, scopeLine: 73, flags: DIFlagPublic | DIFlagPrototyped | DIFlagStaticMember, spFlags: DISPFlagOptimized)
!673 = !DISubroutineType(types: !674)
!674 = !{!567, !579, !34}
!675 = !DISubprogram(name: "make_stable", linkageName: "_ZN6String11make_stableEPKcS1_", scope: !567, file: !568, line: 74, type: !676, scopeLine: 74, flags: DIFlagPublic | DIFlagPrototyped | DIFlagStaticMember, spFlags: DISPFlagOptimized)
!676 = !DISubroutineType(types: !677)
!677 = !{!567, !579, !579}
!678 = !DISubprogram(name: "make_numeric", linkageName: "_ZN6String12make_numericElib", scope: !567, file: !568, line: 75, type: !679, scopeLine: 75, flags: DIFlagPublic | DIFlagPrototyped | DIFlagStaticMember, spFlags: DISPFlagOptimized)
!679 = !DISubroutineType(types: !680)
!680 = !{!567, !681, !34, !53}
!681 = !DIDerivedType(tag: DW_TAG_typedef, name: "intmax_t", scope: !567, file: !568, line: 27, baseType: !406)
!682 = !DISubprogram(name: "make_numeric", linkageName: "_ZN6String12make_numericEmib", scope: !567, file: !568, line: 76, type: !683, scopeLine: 76, flags: DIFlagPublic | DIFlagPrototyped | DIFlagStaticMember, spFlags: DISPFlagOptimized)
!683 = !DISubroutineType(types: !684)
!684 = !{!567, !685, !34, !53}
!685 = !DIDerivedType(tag: DW_TAG_typedef, name: "uintmax_t", scope: !567, file: !568, line: 28, baseType: !113)
!686 = !DISubprogram(name: "data", linkageName: "_ZNK6String4dataEv", scope: !567, file: !568, line: 78, type: !687, scopeLine: 78, flags: DIFlagPublic | DIFlagPrototyped, spFlags: DISPFlagOptimized)
!687 = !DISubroutineType(types: !688)
!688 = !{!579, !689}
!689 = !DIDerivedType(tag: DW_TAG_pointer_type, baseType: !609, size: 64, flags: DIFlagArtificial | DIFlagObjectPointer)
!690 = !DISubprogram(name: "length", linkageName: "_ZNK6String6lengthEv", scope: !567, file: !568, line: 79, type: !691, scopeLine: 79, flags: DIFlagPublic | DIFlagPrototyped, spFlags: DISPFlagOptimized)
!691 = !DISubroutineType(types: !692)
!692 = !{!34, !689}
!693 = !DISubprogram(name: "c_str", linkageName: "_ZNK6String5c_strEv", scope: !567, file: !568, line: 81, type: !687, scopeLine: 81, flags: DIFlagPublic | DIFlagPrototyped, spFlags: DISPFlagOptimized)
!694 = !DISubprogram(name: "operator int (String::*)() const", linkageName: "_ZNK6StringcvMS_KFivEEv", scope: !567, file: !568, line: 83, type: !695, scopeLine: 83, flags: DIFlagPublic | DIFlagPrototyped, spFlags: DISPFlagOptimized)
!695 = !DISubroutineType(types: !696)
!696 = !{!697, !689}
!697 = !DIDerivedType(tag: DW_TAG_typedef, name: "unspecified_bool_type", scope: !567, file: !568, line: 24, baseType: !698)
!698 = !DIDerivedType(tag: DW_TAG_ptr_to_member_type, baseType: !691, size: 128, extraData: !567)
!699 = !DISubprogram(name: "empty", linkageName: "_ZNK6String5emptyEv", scope: !567, file: !568, line: 84, type: !700, scopeLine: 84, flags: DIFlagPublic | DIFlagPrototyped, spFlags: DISPFlagOptimized)
!700 = !DISubroutineType(types: !701)
!701 = !{!53, !689}
!702 = !DISubprogram(name: "operator!", linkageName: "_ZNK6StringntEv", scope: !567, file: !568, line: 85, type: !700, scopeLine: 85, flags: DIFlagPublic | DIFlagPrototyped, spFlags: DISPFlagOptimized)
!703 = !DISubprogram(name: "begin", linkageName: "_ZNK6String5beginEv", scope: !567, file: !568, line: 87, type: !704, scopeLine: 87, flags: DIFlagPublic | DIFlagPrototyped, spFlags: DISPFlagOptimized)
!704 = !DISubroutineType(types: !705)
!705 = !{!706, !689}
!706 = !DIDerivedType(tag: DW_TAG_typedef, name: "const_iterator", scope: !567, file: !568, line: 21, baseType: !579)
!707 = !DISubprogram(name: "end", linkageName: "_ZNK6String3endEv", scope: !567, file: !568, line: 88, type: !704, scopeLine: 88, flags: DIFlagPublic | DIFlagPrototyped, spFlags: DISPFlagOptimized)
!708 = !DISubprogram(name: "operator[]", linkageName: "_ZNK6StringixEi", scope: !567, file: !568, line: 90, type: !709, scopeLine: 90, flags: DIFlagPublic | DIFlagPrototyped, spFlags: DISPFlagOptimized)
!709 = !DISubroutineType(types: !710)
!710 = !{!93, !689, !34}
!711 = !DISubprogram(name: "at", linkageName: "_ZNK6String2atEi", scope: !567, file: !568, line: 91, type: !709, scopeLine: 91, flags: DIFlagPublic | DIFlagPrototyped, spFlags: DISPFlagOptimized)
!712 = !DISubprogram(name: "front", linkageName: "_ZNK6String5frontEv", scope: !567, file: !568, line: 92, type: !713, scopeLine: 92, flags: DIFlagPublic | DIFlagPrototyped, spFlags: DISPFlagOptimized)
!713 = !DISubroutineType(types: !714)
!714 = !{!93, !689}
!715 = !DISubprogram(name: "back", linkageName: "_ZNK6String4backEv", scope: !567, file: !568, line: 93, type: !713, scopeLine: 93, flags: DIFlagPublic | DIFlagPrototyped, spFlags: DISPFlagOptimized)
!716 = !DISubprogram(name: "hashcode", linkageName: "_ZN6String8hashcodeEPKcS1_", scope: !567, file: !568, line: 95, type: !717, scopeLine: 95, flags: DIFlagPublic | DIFlagPrototyped | DIFlagStaticMember, spFlags: DISPFlagOptimized)
!717 = !DISubroutineType(types: !718)
!718 = !{!12, !579, !579}
!719 = !DISubprogram(name: "hashcode", linkageName: "_ZN6String8hashcodeEPKhS1_", scope: !567, file: !568, line: 96, type: !720, scopeLine: 96, flags: DIFlagPublic | DIFlagPrototyped | DIFlagStaticMember, spFlags: DISPFlagOptimized)
!720 = !DISubroutineType(types: !721)
!721 = !{!12, !268, !268}
!722 = !DISubprogram(name: "hashcode", linkageName: "_ZNK6String8hashcodeEv", scope: !567, file: !568, line: 98, type: !723, scopeLine: 98, flags: DIFlagPublic | DIFlagPrototyped, spFlags: DISPFlagOptimized)
!723 = !DISubroutineType(types: !724)
!724 = !{!12, !689}
!725 = !DISubprogram(name: "substring", linkageName: "_ZNK6String9substringEPKcS1_", scope: !567, file: !568, line: 100, type: !726, scopeLine: 100, flags: DIFlagPublic | DIFlagPrototyped, spFlags: DISPFlagOptimized)
!726 = !DISubroutineType(types: !727)
!727 = !{!567, !689, !579, !579}
!728 = !DISubprogram(name: "substring", linkageName: "_ZNK6String9substringEii", scope: !567, file: !568, line: 101, type: !729, scopeLine: 101, flags: DIFlagPublic | DIFlagPrototyped, spFlags: DISPFlagOptimized)
!729 = !DISubroutineType(types: !730)
!730 = !{!567, !689, !34, !34}
!731 = !DISubprogram(name: "substring", linkageName: "_ZNK6String9substringEi", scope: !567, file: !568, line: 102, type: !732, scopeLine: 102, flags: DIFlagPublic | DIFlagPrototyped, spFlags: DISPFlagOptimized)
!732 = !DISubroutineType(types: !733)
!733 = !{!567, !689, !34}
!734 = !DISubprogram(name: "trim_space", linkageName: "_ZNK6String10trim_spaceEv", scope: !567, file: !568, line: 103, type: !735, scopeLine: 103, flags: DIFlagPublic | DIFlagPrototyped, spFlags: DISPFlagOptimized)
!735 = !DISubroutineType(types: !736)
!736 = !{!567, !689}
!737 = !DISubprogram(name: "equals", linkageName: "_ZNK6String6equalsERKS_", scope: !567, file: !568, line: 105, type: !738, scopeLine: 105, flags: DIFlagPublic | DIFlagPrototyped, spFlags: DISPFlagOptimized)
!738 = !DISubroutineType(types: !739)
!739 = !{!53, !689, !608}
!740 = !DISubprogram(name: "equals", linkageName: "_ZNK6String6equalsEPKci", scope: !567, file: !568, line: 106, type: !741, scopeLine: 106, flags: DIFlagPublic | DIFlagPrototyped, spFlags: DISPFlagOptimized)
!741 = !DISubroutineType(types: !742)
!742 = !{!53, !689, !579, !34}
!743 = !DISubprogram(name: "compare", linkageName: "_ZN6String7compareERKS_S1_", scope: !567, file: !568, line: 107, type: !744, scopeLine: 107, flags: DIFlagPublic | DIFlagPrototyped | DIFlagStaticMember, spFlags: DISPFlagOptimized)
!744 = !DISubroutineType(types: !745)
!745 = !{!34, !608, !608}
!746 = !DISubprogram(name: "compare", linkageName: "_ZNK6String7compareERKS_", scope: !567, file: !568, line: 108, type: !747, scopeLine: 108, flags: DIFlagPublic | DIFlagPrototyped, spFlags: DISPFlagOptimized)
!747 = !DISubroutineType(types: !748)
!748 = !{!34, !689, !608}
!749 = !DISubprogram(name: "compare", linkageName: "_ZNK6String7compareEPKci", scope: !567, file: !568, line: 109, type: !750, scopeLine: 109, flags: DIFlagPublic | DIFlagPrototyped, spFlags: DISPFlagOptimized)
!750 = !DISubroutineType(types: !751)
!751 = !{!34, !689, !579, !34}
!752 = !DISubprogram(name: "starts_with", linkageName: "_ZNK6String11starts_withERKS_", scope: !567, file: !568, line: 110, type: !738, scopeLine: 110, flags: DIFlagPublic | DIFlagPrototyped, spFlags: DISPFlagOptimized)
!753 = !DISubprogram(name: "starts_with", linkageName: "_ZNK6String11starts_withEPKci", scope: !567, file: !568, line: 111, type: !741, scopeLine: 111, flags: DIFlagPublic | DIFlagPrototyped, spFlags: DISPFlagOptimized)
!754 = !DISubprogram(name: "glob_match", linkageName: "_ZNK6String10glob_matchERKS_", scope: !567, file: !568, line: 112, type: !738, scopeLine: 112, flags: DIFlagPublic | DIFlagPrototyped, spFlags: DISPFlagOptimized)
!755 = !DISubprogram(name: "find_left", linkageName: "_ZNK6String9find_leftEci", scope: !567, file: !568, line: 125, type: !756, scopeLine: 125, flags: DIFlagPublic | DIFlagPrototyped, spFlags: DISPFlagOptimized)
!756 = !DISubroutineType(types: !757)
!757 = !{!34, !689, !93, !34}
!758 = !DISubprogram(name: "find_left", linkageName: "_ZNK6String9find_leftERKS_i", scope: !567, file: !568, line: 126, type: !759, scopeLine: 126, flags: DIFlagPublic | DIFlagPrototyped, spFlags: DISPFlagOptimized)
!759 = !DISubroutineType(types: !760)
!760 = !{!34, !689, !608, !34}
!761 = !DISubprogram(name: "find_right", linkageName: "_ZNK6String10find_rightEci", scope: !567, file: !568, line: 127, type: !756, scopeLine: 127, flags: DIFlagPublic | DIFlagPrototyped, spFlags: DISPFlagOptimized)
!762 = !DISubprogram(name: "lower", linkageName: "_ZNK6String5lowerEv", scope: !567, file: !568, line: 129, type: !735, scopeLine: 129, flags: DIFlagPublic | DIFlagPrototyped, spFlags: DISPFlagOptimized)
!763 = !DISubprogram(name: "upper", linkageName: "_ZNK6String5upperEv", scope: !567, file: !568, line: 130, type: !735, scopeLine: 130, flags: DIFlagPublic | DIFlagPrototyped, spFlags: DISPFlagOptimized)
!764 = !DISubprogram(name: "printable", linkageName: "_ZNK6String9printableEv", scope: !567, file: !568, line: 131, type: !735, scopeLine: 131, flags: DIFlagPublic | DIFlagPrototyped, spFlags: DISPFlagOptimized)
!765 = !DISubprogram(name: "quoted_hex", linkageName: "_ZNK6String10quoted_hexEv", scope: !567, file: !568, line: 132, type: !735, scopeLine: 132, flags: DIFlagPublic | DIFlagPrototyped, spFlags: DISPFlagOptimized)
!766 = !DISubprogram(name: "encode_json", linkageName: "_ZNK6String11encode_jsonEv", scope: !567, file: !568, line: 133, type: !735, scopeLine: 133, flags: DIFlagPublic | DIFlagPrototyped, spFlags: DISPFlagOptimized)
!767 = !DISubprogram(name: "operator=", linkageName: "_ZN6StringaSERKS_", scope: !567, file: !568, line: 135, type: !768, scopeLine: 135, flags: DIFlagPublic | DIFlagPrototyped, spFlags: DISPFlagOptimized)
!768 = !DISubroutineType(types: !769)
!769 = !{!770, !604, !608}
!770 = !DIDerivedType(tag: DW_TAG_reference_type, baseType: !567, size: 64)
!771 = !DISubprogram(name: "operator=", linkageName: "_ZN6StringaSEOS_", scope: !567, file: !568, line: 137, type: !772, scopeLine: 137, flags: DIFlagPublic | DIFlagPrototyped, spFlags: DISPFlagOptimized)
!772 = !DISubroutineType(types: !773)
!773 = !{!770, !604, !613}
!774 = !DISubprogram(name: "operator=", linkageName: "_ZN6StringaSEPKc", scope: !567, file: !568, line: 139, type: !775, scopeLine: 139, flags: DIFlagPublic | DIFlagPrototyped, spFlags: DISPFlagOptimized)
!775 = !DISubroutineType(types: !776)
!776 = !{!770, !604, !579}
!777 = !DISubprogram(name: "swap", linkageName: "_ZN6String4swapERS_", scope: !567, file: !568, line: 141, type: !778, scopeLine: 141, flags: DIFlagPublic | DIFlagPrototyped, spFlags: DISPFlagOptimized)
!778 = !DISubroutineType(types: !779)
!779 = !{null, !604, !770}
!780 = !DISubprogram(name: "append", linkageName: "_ZN6String6appendERKS_", scope: !567, file: !568, line: 143, type: !606, scopeLine: 143, flags: DIFlagPublic | DIFlagPrototyped, spFlags: DISPFlagOptimized)
!781 = !DISubprogram(name: "append", linkageName: "_ZN6String6appendEPKc", scope: !567, file: !568, line: 144, type: !615, scopeLine: 144, flags: DIFlagPublic | DIFlagPrototyped, spFlags: DISPFlagOptimized)
!782 = !DISubprogram(name: "append", linkageName: "_ZN6String6appendEPKci", scope: !567, file: !568, line: 145, type: !618, scopeLine: 145, flags: DIFlagPublic | DIFlagPrototyped, spFlags: DISPFlagOptimized)
!783 = !DISubprogram(name: "append", linkageName: "_ZN6String6appendEPKcS1_", scope: !567, file: !568, line: 146, type: !624, scopeLine: 146, flags: DIFlagPublic | DIFlagPrototyped, spFlags: DISPFlagOptimized)
!784 = !DISubprogram(name: "append", linkageName: "_ZN6String6appendEc", scope: !567, file: !568, line: 147, type: !633, scopeLine: 147, flags: DIFlagPublic | DIFlagPrototyped, spFlags: DISPFlagOptimized)
!785 = !DISubprogram(name: "append_fill", linkageName: "_ZN6String11append_fillEii", scope: !567, file: !568, line: 148, type: !786, scopeLine: 148, flags: DIFlagPublic | DIFlagPrototyped, spFlags: DISPFlagOptimized)
!786 = !DISubroutineType(types: !787)
!787 = !{null, !604, !34, !34}
!788 = !DISubprogram(name: "append_uninitialized", linkageName: "_ZN6String20append_uninitializedEi", scope: !567, file: !568, line: 149, type: !789, scopeLine: 149, flags: DIFlagPublic | DIFlagPrototyped, spFlags: DISPFlagOptimized)
!789 = !DISubroutineType(types: !790)
!790 = !{!791, !604, !34}
!791 = !DIDerivedType(tag: DW_TAG_pointer_type, baseType: !93, size: 64)
!792 = !DISubprogram(name: "append_garbage", linkageName: "_ZN6String14append_garbageEi", scope: !567, file: !568, line: 150, type: !789, scopeLine: 150, flags: DIFlagPublic | DIFlagPrototyped, spFlags: DISPFlagOptimized)
!793 = !DISubprogram(name: "operator+=", linkageName: "_ZN6StringpLERKS_", scope: !567, file: !568, line: 152, type: !768, scopeLine: 152, flags: DIFlagPublic | DIFlagPrototyped, spFlags: DISPFlagOptimized)
!794 = !DISubprogram(name: "operator+=", linkageName: "_ZN6StringpLEPKc", scope: !567, file: !568, line: 153, type: !775, scopeLine: 153, flags: DIFlagPublic | DIFlagPrototyped, spFlags: DISPFlagOptimized)
!795 = !DISubprogram(name: "operator+=", linkageName: "_ZN6StringpLEc", scope: !567, file: !568, line: 154, type: !796, scopeLine: 154, flags: DIFlagPublic | DIFlagPrototyped, spFlags: DISPFlagOptimized)
!796 = !DISubroutineType(types: !797)
!797 = !{!770, !604, !93}
!798 = !DISubprogram(name: "is_shared", linkageName: "_ZNK6String9is_sharedEv", scope: !567, file: !568, line: 160, type: !700, scopeLine: 160, flags: DIFlagPublic | DIFlagPrototyped, spFlags: DISPFlagOptimized)
!799 = !DISubprogram(name: "is_stable", linkageName: "_ZNK6String9is_stableEv", scope: !567, file: !568, line: 161, type: !700, scopeLine: 161, flags: DIFlagPublic | DIFlagPrototyped, spFlags: DISPFlagOptimized)
!800 = !DISubprogram(name: "unique", linkageName: "_ZNK6String6uniqueEv", scope: !567, file: !568, line: 163, type: !735, scopeLine: 163, flags: DIFlagPublic | DIFlagPrototyped, spFlags: DISPFlagOptimized)
!801 = !DISubprogram(name: "unshared", linkageName: "_ZNK6String8unsharedEv", scope: !567, file: !568, line: 164, type: !735, scopeLine: 164, flags: DIFlagPublic | DIFlagPrototyped, spFlags: DISPFlagOptimized)
!802 = !DISubprogram(name: "compact", linkageName: "_ZNK6String7compactEv", scope: !567, file: !568, line: 165, type: !735, scopeLine: 165, flags: DIFlagPublic | DIFlagPrototyped, spFlags: DISPFlagOptimized)
!803 = !DISubprogram(name: "mutable_data", linkageName: "_ZN6String12mutable_dataEv", scope: !567, file: !568, line: 167, type: !804, scopeLine: 167, flags: DIFlagPublic | DIFlagPrototyped, spFlags: DISPFlagOptimized)
!804 = !DISubroutineType(types: !805)
!805 = !{!791, !604}
!806 = !DISubprogram(name: "mutable_c_str", linkageName: "_ZN6String13mutable_c_strEv", scope: !567, file: !568, line: 168, type: !804, scopeLine: 168, flags: DIFlagPublic | DIFlagPrototyped, spFlags: DISPFlagOptimized)
!807 = !DISubprogram(name: "make_out_of_memory", linkageName: "_ZN6String18make_out_of_memoryEv", scope: !567, file: !568, line: 170, type: !663, scopeLine: 170, flags: DIFlagPublic | DIFlagPrototyped | DIFlagStaticMember, spFlags: DISPFlagOptimized)
!808 = !DISubprogram(name: "out_of_memory", linkageName: "_ZNK6String13out_of_memoryEv", scope: !567, file: !568, line: 171, type: !700, scopeLine: 171, flags: DIFlagPublic | DIFlagPrototyped, spFlags: DISPFlagOptimized)
!809 = !DISubprogram(name: "out_of_memory_data", linkageName: "_ZN6String18out_of_memory_dataEv", scope: !567, file: !568, line: 172, type: !810, scopeLine: 172, flags: DIFlagPublic | DIFlagPrototyped | DIFlagStaticMember, spFlags: DISPFlagOptimized)
!810 = !DISubroutineType(types: !811)
!811 = !{!579}
!812 = !DISubprogram(name: "out_of_memory_length", linkageName: "_ZN6String20out_of_memory_lengthEv", scope: !567, file: !568, line: 173, type: !813, scopeLine: 173, flags: DIFlagPublic | DIFlagPrototyped | DIFlagStaticMember, spFlags: DISPFlagOptimized)
!813 = !DISubroutineType(types: !814)
!814 = !{!34}
!815 = !DISubprogram(name: "empty_data", linkageName: "_ZN6String10empty_dataEv", scope: !567, file: !568, line: 174, type: !810, scopeLine: 174, flags: DIFlagPublic | DIFlagPrototyped | DIFlagStaticMember, spFlags: DISPFlagOptimized)
!816 = !DISubprogram(name: "skip_utf8_char", linkageName: "_ZN6String14skip_utf8_charEPKcS1_", scope: !567, file: !568, line: 180, type: !817, scopeLine: 180, flags: DIFlagPublic | DIFlagPrototyped | DIFlagStaticMember, spFlags: DISPFlagOptimized)
!817 = !DISubroutineType(types: !818)
!818 = !{!579, !579, !579}
!819 = !DISubprogram(name: "skip_utf8_char", linkageName: "_ZN6String14skip_utf8_charEPKhS1_", scope: !567, file: !568, line: 181, type: !820, scopeLine: 181, flags: DIFlagPublic | DIFlagPrototyped | DIFlagStaticMember, spFlags: DISPFlagOptimized)
!820 = !DISubroutineType(types: !821)
!821 = !{!268, !268, !268}
!822 = !DISubprogram(name: "assign_memo", linkageName: "_ZNK6String11assign_memoEPKciPNS_6memo_tE", scope: !567, file: !568, line: 256, type: !823, scopeLine: 256, flags: DIFlagPrototyped, spFlags: DISPFlagOptimized)
!823 = !DISubroutineType(types: !824)
!824 = !{null, !689, !579, !34, !582}
!825 = !DISubprogram(name: "String", scope: !567, file: !568, line: 263, type: !826, scopeLine: 263, flags: DIFlagPrototyped, spFlags: DISPFlagOptimized)
!826 = !DISubroutineType(types: !827)
!827 = !{null, !604, !579, !34, !582}
!828 = !DISubprogram(name: "assign", linkageName: "_ZNK6String6assignERKS_", scope: !567, file: !568, line: 267, type: !829, scopeLine: 267, flags: DIFlagPrototyped, spFlags: DISPFlagOptimized)
!829 = !DISubroutineType(types: !830)
!830 = !{null, !689, !608}
!831 = !DISubprogram(name: "deref", linkageName: "_ZNK6String5derefEv", scope: !567, file: !568, line: 271, type: !832, scopeLine: 271, flags: DIFlagPrototyped, spFlags: DISPFlagOptimized)
!832 = !DISubroutineType(types: !833)
!833 = !{null, !689}
!834 = !DISubprogram(name: "assign", linkageName: "_ZN6String6assignEPKcib", scope: !567, file: !568, line: 280, type: !835, scopeLine: 280, flags: DIFlagPrototyped, spFlags: DISPFlagOptimized)
!835 = !DISubroutineType(types: !836)
!836 = !{null, !604, !579, !34, !53}
!837 = !DISubprogram(name: "assign_out_of_memory", linkageName: "_ZN6String20assign_out_of_memoryEv", scope: !567, file: !568, line: 281, type: !602, scopeLine: 281, flags: DIFlagPrototyped, spFlags: DISPFlagOptimized)
!838 = !DISubprogram(name: "append", linkageName: "_ZN6String6appendEPKciPNS_6memo_tE", scope: !567, file: !568, line: 282, type: !826, scopeLine: 282, flags: DIFlagPrototyped, spFlags: DISPFlagOptimized)
!839 = !DISubprogram(name: "hard_make_stable", linkageName: "_ZN6String16hard_make_stableEPKci", scope: !567, file: !568, line: 283, type: !673, scopeLine: 283, flags: DIFlagPrototyped | DIFlagStaticMember, spFlags: DISPFlagOptimized)
!840 = !DISubprogram(name: "absent_memo", linkageName: "_ZN6String11absent_memoEv", scope: !567, file: !568, line: 284, type: !841, scopeLine: 284, flags: DIFlagPrototyped | DIFlagStaticMember, spFlags: DISPFlagOptimized)
!841 = !DISubroutineType(types: !842)
!842 = !{!582}
!843 = !DISubprogram(name: "create_memo", linkageName: "_ZN6String11create_memoEPcii", scope: !567, file: !568, line: 287, type: !844, scopeLine: 287, flags: DIFlagPrototyped | DIFlagStaticMember, spFlags: DISPFlagOptimized)
!844 = !DISubroutineType(types: !845)
!845 = !{!582, !791, !34, !34}
!846 = !DISubprogram(name: "delete_memo", linkageName: "_ZN6String11delete_memoEPNS_6memo_tE", scope: !567, file: !568, line: 288, type: !847, scopeLine: 288, flags: DIFlagPrototyped | DIFlagStaticMember, spFlags: DISPFlagOptimized)
!847 = !DISubroutineType(types: !848)
!848 = !{null, !582}
!849 = !DISubprogram(name: "hard_c_str", linkageName: "_ZNK6String10hard_c_strEv", scope: !567, file: !568, line: 289, type: !687, scopeLine: 289, flags: DIFlagPrototyped, spFlags: DISPFlagOptimized)
!850 = !DISubprogram(name: "hard_equals", linkageName: "_ZNK6String11hard_equalsEPKci", scope: !567, file: !568, line: 290, type: !741, scopeLine: 290, flags: DIFlagPrototyped, spFlags: DISPFlagOptimized)
!851 = !DISubprogram(name: "make_claim", linkageName: "_ZN6String10make_claimEPcii", scope: !567, file: !568, line: 299, type: !852, scopeLine: 299, flags: DIFlagPrototyped | DIFlagStaticMember, spFlags: DISPFlagOptimized)
!852 = !DISubroutineType(types: !853)
!853 = !{!567, !791, !34, !34}
!854 = !DISubprogram(name: "unparse_interval", linkageName: "_ZNK9Timestamp16unparse_intervalEv", scope: !399, file: !400, line: 501, type: !565, scopeLine: 501, flags: DIFlagPublic | DIFlagPrototyped, spFlags: DISPFlagOptimized)
!855 = !DISubprogram(name: "msec_to_subsec", linkageName: "_ZN9Timestamp14msec_to_subsecEj", scope: !399, file: !400, line: 510, type: !856, scopeLine: 510, flags: DIFlagPublic | DIFlagPrototyped | DIFlagStaticMember, spFlags: DISPFlagOptimized)
!856 = !DISubroutineType(types: !857)
!857 = !{!12, !12}
!858 = !DISubprogram(name: "usec_to_subsec", linkageName: "_ZN9Timestamp14usec_to_subsecEj", scope: !399, file: !400, line: 514, type: !856, scopeLine: 514, flags: DIFlagPublic | DIFlagPrototyped | DIFlagStaticMember, spFlags: DISPFlagOptimized)
!859 = !DISubprogram(name: "nsec_to_subsec", linkageName: "_ZN9Timestamp14nsec_to_subsecEj", scope: !399, file: !400, line: 518, type: !856, scopeLine: 518, flags: DIFlagPublic | DIFlagPrototyped | DIFlagStaticMember, spFlags: DISPFlagOptimized)
!860 = !DISubprogram(name: "subsec_to_msec", linkageName: "_ZN9Timestamp14subsec_to_msecEj", scope: !399, file: !400, line: 522, type: !856, scopeLine: 522, flags: DIFlagPublic | DIFlagPrototyped | DIFlagStaticMember, spFlags: DISPFlagOptimized)
!861 = !DISubprogram(name: "subsec_to_usec", linkageName: "_ZN9Timestamp14subsec_to_usecEj", scope: !399, file: !400, line: 526, type: !856, scopeLine: 526, flags: DIFlagPublic | DIFlagPrototyped | DIFlagStaticMember, spFlags: DISPFlagOptimized)
!862 = !DISubprogram(name: "subsec_to_nsec", linkageName: "_ZN9Timestamp14subsec_to_nsecEj", scope: !399, file: !400, line: 530, type: !856, scopeLine: 530, flags: DIFlagPublic | DIFlagPrototyped | DIFlagStaticMember, spFlags: DISPFlagOptimized)
!863 = !DISubprogram(name: "warp_class", linkageName: "_ZN9Timestamp10warp_classEv", scope: !399, file: !400, line: 581, type: !813, scopeLine: 581, flags: DIFlagPublic | DIFlagPrototyped | DIFlagStaticMember, spFlags: DISPFlagOptimized)
!864 = !DISubprogram(name: "warp_speed", linkageName: "_ZN9Timestamp10warp_speedEv", scope: !399, file: !400, line: 588, type: !865, scopeLine: 588, flags: DIFlagPublic | DIFlagPrototyped | DIFlagStaticMember, spFlags: DISPFlagOptimized)
!865 = !DISubroutineType(types: !866)
!866 = !{!428}
!867 = !DISubprogram(name: "warp_set_class", linkageName: "_ZN9Timestamp14warp_set_classENS_15warp_class_typeEd", scope: !399, file: !400, line: 621, type: !868, scopeLine: 621, flags: DIFlagPublic | DIFlagPrototyped | DIFlagStaticMember, spFlags: DISPFlagOptimized)
!868 = !DISubroutineType(types: !869)
!869 = !{null, !870, !428}
!870 = !DICompositeType(tag: DW_TAG_enumeration_type, name: "warp_class_type", scope: !399, file: !400, line: 571, baseType: !16, size: 32, elements: !871, identifier: "_ZTSN9Timestamp15warp_class_typeE")
!871 = !{!872, !873, !874, !875}
!872 = !DIEnumerator(name: "warp_none", value: 0, isUnsigned: true)
!873 = !DIEnumerator(name: "warp_linear", value: 1, isUnsigned: true)
!874 = !DIEnumerator(name: "warp_nowait", value: 2, isUnsigned: true)
!875 = !DIEnumerator(name: "warp_simulation", value: 3, isUnsigned: true)
!876 = !DISubprogram(name: "warp_set_now", linkageName: "_ZN9Timestamp12warp_set_nowERKS_S1_", scope: !399, file: !400, line: 628, type: !877, scopeLine: 628, flags: DIFlagPublic | DIFlagPrototyped | DIFlagStaticMember, spFlags: DISPFlagOptimized)
!877 = !DISubroutineType(types: !878)
!878 = !{null, !397, !397}
!879 = !DISubprogram(name: "warp_real_delay", linkageName: "_ZNK9Timestamp15warp_real_delayEv", scope: !399, file: !400, line: 632, type: !511, scopeLine: 632, flags: DIFlagPublic | DIFlagPrototyped, spFlags: DISPFlagOptimized)
!880 = !DISubprogram(name: "warp_jumping", linkageName: "_ZN9Timestamp12warp_jumpingEv", scope: !399, file: !400, line: 635, type: !881, scopeLine: 635, flags: DIFlagPublic | DIFlagPrototyped | DIFlagStaticMember, spFlags: DISPFlagOptimized)
!881 = !DISubroutineType(types: !882)
!882 = !{!53}
!883 = !DISubprogram(name: "warp_jump_steady", linkageName: "_ZN9Timestamp16warp_jump_steadyERKS_", scope: !399, file: !400, line: 640, type: !884, scopeLine: 640, flags: DIFlagPublic | DIFlagPrototyped | DIFlagStaticMember, spFlags: DISPFlagOptimized)
!884 = !DISubroutineType(types: !885)
!885 = !{null, !397}
!886 = !DISubprogram(name: "now_unwarped", linkageName: "_ZN9Timestamp12now_unwarpedEv", scope: !399, file: !400, line: 647, type: !541, scopeLine: 647, flags: DIFlagPublic | DIFlagPrototyped | DIFlagStaticMember, spFlags: DISPFlagOptimized)
!887 = !DISubprogram(name: "assign_now_unwarped", linkageName: "_ZN9Timestamp19assign_now_unwarpedEv", scope: !399, file: !400, line: 653, type: !410, scopeLine: 653, flags: DIFlagPublic | DIFlagPrototyped, spFlags: DISPFlagOptimized)
!888 = !DISubprogram(name: "now_steady_unwarped", linkageName: "_ZN9Timestamp19now_steady_unwarpedEv", scope: !399, file: !400, line: 659, type: !541, scopeLine: 659, flags: DIFlagPublic | DIFlagPrototyped | DIFlagStaticMember, spFlags: DISPFlagOptimized)
!889 = !DISubprogram(name: "assign_now_steady_unwarped", linkageName: "_ZN9Timestamp26assign_now_steady_unwarpedEv", scope: !399, file: !400, line: 666, type: !410, scopeLine: 666, flags: DIFlagPublic | DIFlagPrototyped, spFlags: DISPFlagOptimized)
!890 = !DISubprogram(name: "add_fix", linkageName: "_ZN9Timestamp7add_fixEv", scope: !399, file: !400, line: 674, type: !410, scopeLine: 674, flags: DIFlagPrototyped, spFlags: DISPFlagOptimized)
!891 = !DISubprogram(name: "sub_fix", linkageName: "_ZN9Timestamp7sub_fixEv", scope: !399, file: !400, line: 686, type: !410, scopeLine: 686, flags: DIFlagPrototyped, spFlags: DISPFlagOptimized)
!892 = !DISubprogram(name: "value_div", linkageName: "_ZN9Timestamp9value_divElj", scope: !399, file: !400, line: 698, type: !893, scopeLine: 698, flags: DIFlagPrototyped | DIFlagStaticMember, spFlags: DISPFlagOptimized)
!893 = !DISubroutineType(types: !894)
!894 = !{!507, !507, !12}
!895 = !DISubprogram(name: "value_div_mod", linkageName: "_ZN9Timestamp13value_div_modERiS0_lj", scope: !399, file: !400, line: 702, type: !896, scopeLine: 702, flags: DIFlagPrototyped | DIFlagStaticMember, spFlags: DISPFlagOptimized)
!896 = !DISubroutineType(types: !897)
!897 = !{null, !898, !898, !507, !12}
!898 = !DIDerivedType(tag: DW_TAG_reference_type, baseType: !31, size: 64)
!899 = !DISubprogram(name: "assign_now", linkageName: "_ZN9Timestamp10assign_nowEbbb", scope: !399, file: !400, line: 709, type: !900, scopeLine: 709, flags: DIFlagPrototyped, spFlags: DISPFlagOptimized)
!900 = !DISubroutineType(types: !901)
!901 = !{null, !412, !53, !53, !53}
!902 = !DISubprogram(name: "warp_adjust", linkageName: "_ZN9Timestamp11warp_adjustEbRKS_S1_", scope: !399, file: !400, line: 712, type: !903, scopeLine: 712, flags: DIFlagPrototyped | DIFlagStaticMember, spFlags: DISPFlagOptimized)
!903 = !DISubroutineType(types: !904)
!904 = !{null, !53, !397, !397}
!905 = !DISubprogram(name: "warped", linkageName: "_ZNK9Timestamp6warpedEb", scope: !399, file: !400, line: 713, type: !906, scopeLine: 713, flags: DIFlagPrototyped, spFlags: DISPFlagOptimized)
!906 = !DISubroutineType(types: !907)
!907 = !{!399, !474, !53}
!908 = !DISubprogram(name: "warp", linkageName: "_ZN9Timestamp4warpEbb", scope: !399, file: !400, line: 714, type: !909, scopeLine: 714, flags: DIFlagPrototyped, spFlags: DISPFlagOptimized)
!909 = !DISubroutineType(types: !910)
!910 = !{null, !412, !53, !53}
!911 = !DISubprogram(name: "timestamp_anno", linkageName: "_ZN6Packet14timestamp_annoEv", scope: !5, file: !4, line: 356, type: !912, scopeLine: 356, flags: DIFlagPublic | DIFlagPrototyped, spFlags: DISPFlagOptimized)
!912 = !DISubroutineType(types: !913)
!913 = !{!914, !254}
!914 = !DIDerivedType(tag: DW_TAG_reference_type, baseType: !399, size: 64)
!915 = !DISubprogram(name: "set_timestamp_anno", linkageName: "_ZN6Packet18set_timestamp_annoERK9Timestamp", scope: !5, file: !4, line: 359, type: !916, scopeLine: 359, flags: DIFlagPublic | DIFlagPrototyped, spFlags: DISPFlagOptimized)
!916 = !DISubroutineType(types: !917)
!917 = !{null, !254, !397}
!918 = !DISubprogram(name: "device_anno", linkageName: "_ZNK6Packet11device_annoEv", scope: !5, file: !4, line: 362, type: !919, scopeLine: 362, flags: DIFlagPublic | DIFlagPrototyped, spFlags: DISPFlagOptimized)
!919 = !DISubroutineType(types: !920)
!920 = !{!921, !258}
!921 = !DIDerivedType(tag: DW_TAG_pointer_type, baseType: !922, size: 64)
!922 = !DIDerivedType(tag: DW_TAG_typedef, name: "net_device", file: !519, line: 326, baseType: !923)
!923 = !DICompositeType(tag: DW_TAG_structure_type, name: "device", file: !519, line: 326, flags: DIFlagFwdDecl, identifier: "_ZTS6device")
!924 = !DISubprogram(name: "set_device_anno", linkageName: "_ZN6Packet15set_device_annoEP6device", scope: !5, file: !4, line: 364, type: !925, scopeLine: 364, flags: DIFlagPublic | DIFlagPrototyped, spFlags: DISPFlagOptimized)
!925 = !DISubroutineType(types: !926)
!926 = !{null, !254, !921}
!927 = !DISubprogram(name: "packet_type_anno", linkageName: "_ZNK6Packet16packet_type_annoEv", scope: !5, file: !4, line: 383, type: !928, scopeLine: 383, flags: DIFlagPublic | DIFlagPrototyped, spFlags: DISPFlagOptimized)
!928 = !DISubroutineType(types: !929)
!929 = !{!3, !258}
!930 = !DISubprogram(name: "set_packet_type_anno", linkageName: "_ZN6Packet20set_packet_type_annoENS_10PacketTypeE", scope: !5, file: !4, line: 385, type: !931, scopeLine: 385, flags: DIFlagPublic | DIFlagPrototyped, spFlags: DISPFlagOptimized)
!931 = !DISubroutineType(types: !932)
!932 = !{null, !254, !3}
!933 = !DISubprogram(name: "next", linkageName: "_ZNK6Packet4nextEv", scope: !5, file: !4, line: 410, type: !934, scopeLine: 410, flags: DIFlagPublic | DIFlagPrototyped, spFlags: DISPFlagOptimized)
!934 = !DISubroutineType(types: !935)
!935 = !{!78, !258}
!936 = !DISubprogram(name: "next", linkageName: "_ZN6Packet4nextEv", scope: !5, file: !4, line: 412, type: !937, scopeLine: 412, flags: DIFlagPublic | DIFlagPrototyped, spFlags: DISPFlagOptimized)
!937 = !DISubroutineType(types: !938)
!938 = !{!939, !254}
!939 = !DIDerivedType(tag: DW_TAG_reference_type, baseType: !78, size: 64)
!940 = !DISubprogram(name: "set_next", linkageName: "_ZN6Packet8set_nextEPS_", scope: !5, file: !4, line: 414, type: !941, scopeLine: 414, flags: DIFlagPublic | DIFlagPrototyped, spFlags: DISPFlagOptimized)
!941 = !DISubroutineType(types: !942)
!942 = !{null, !254, !78}
!943 = !DISubprogram(name: "prev", linkageName: "_ZNK6Packet4prevEv", scope: !5, file: !4, line: 417, type: !934, scopeLine: 417, flags: DIFlagPublic | DIFlagPrototyped, spFlags: DISPFlagOptimized)
!944 = !DISubprogram(name: "prev", linkageName: "_ZN6Packet4prevEv", scope: !5, file: !4, line: 419, type: !937, scopeLine: 419, flags: DIFlagPublic | DIFlagPrototyped, spFlags: DISPFlagOptimized)
!945 = !DISubprogram(name: "set_prev", linkageName: "_ZN6Packet8set_prevEPS_", scope: !5, file: !4, line: 421, type: !941, scopeLine: 421, flags: DIFlagPublic | DIFlagPrototyped, spFlags: DISPFlagOptimized)
!946 = !DISubprogram(name: "dst_ip_anno", linkageName: "_ZNK6Packet11dst_ip_annoEv", scope: !5, file: !4, line: 431, type: !947, scopeLine: 431, flags: DIFlagPublic | DIFlagPrototyped, spFlags: DISPFlagOptimized)
!947 = !DISubroutineType(types: !948)
!948 = !{!949, !258}
!949 = distinct !DICompositeType(tag: DW_TAG_class_type, name: "IPAddress", file: !950, line: 15, size: 32, flags: DIFlagTypePassByValue | DIFlagNonTrivial, elements: !951, identifier: "_ZTS9IPAddress")
!950 = !DIFile(filename: "../dummy_inc/click/ipaddress.hh", directory: "/home/john/projects/click/ir-dir")
!951 = !{!952, !953, !957, !960, !963, !966, !969, !972, !975, !978, !983, !986, !989, !994, !997, !998, !999, !1000, !1003, !1004, !1007, !1010, !1011, !1014, !1017, !1020, !1021, !1025, !1026, !1027, !1030, !1031, !1034, !1035}
!952 = !DIDerivedType(tag: DW_TAG_member, name: "_addr", scope: !949, file: !950, line: 152, baseType: !12, size: 32)
!953 = !DISubprogram(name: "IPAddress", scope: !949, file: !950, line: 20, type: !954, scopeLine: 20, flags: DIFlagPublic | DIFlagPrototyped, spFlags: DISPFlagOptimized)
!954 = !DISubroutineType(types: !955)
!955 = !{null, !956}
!956 = !DIDerivedType(tag: DW_TAG_pointer_type, baseType: !949, size: 64, flags: DIFlagArtificial | DIFlagObjectPointer)
!957 = !DISubprogram(name: "IPAddress", scope: !949, file: !950, line: 25, type: !958, scopeLine: 25, flags: DIFlagPublic | DIFlagPrototyped, spFlags: DISPFlagOptimized)
!958 = !DISubroutineType(types: !959)
!959 = !{null, !956, !16}
!960 = !DISubprogram(name: "IPAddress", scope: !949, file: !950, line: 29, type: !961, scopeLine: 29, flags: DIFlagPublic | DIFlagExplicit | DIFlagPrototyped, spFlags: DISPFlagOptimized)
!961 = !DISubroutineType(types: !962)
!962 = !{null, !956, !34}
!963 = !DISubprogram(name: "IPAddress", scope: !949, file: !950, line: 33, type: !964, scopeLine: 33, flags: DIFlagPublic | DIFlagExplicit | DIFlagPrototyped, spFlags: DISPFlagOptimized)
!964 = !DISubroutineType(types: !965)
!965 = !{null, !956, !115}
!966 = !DISubprogram(name: "IPAddress", scope: !949, file: !950, line: 37, type: !967, scopeLine: 37, flags: DIFlagPublic | DIFlagExplicit | DIFlagPrototyped, spFlags: DISPFlagOptimized)
!967 = !DISubroutineType(types: !968)
!968 = !{null, !956, !408}
!969 = !DISubprogram(name: "IPAddress", scope: !949, file: !950, line: 42, type: !970, scopeLine: 42, flags: DIFlagPublic | DIFlagPrototyped, spFlags: DISPFlagOptimized)
!970 = !DISubroutineType(types: !971)
!971 = !{null, !956, !176}
!972 = !DISubprogram(name: "IPAddress", scope: !949, file: !950, line: 50, type: !973, scopeLine: 50, flags: DIFlagPublic | DIFlagExplicit | DIFlagPrototyped, spFlags: DISPFlagOptimized)
!973 = !DISubroutineType(types: !974)
!974 = !{null, !956, !268}
!975 = !DISubprogram(name: "IPAddress", scope: !949, file: !950, line: 63, type: !976, scopeLine: 63, flags: DIFlagPublic | DIFlagExplicit | DIFlagPrototyped, spFlags: DISPFlagOptimized)
!976 = !DISubroutineType(types: !977)
!977 = !{null, !956, !608}
!978 = !DISubprogram(name: "IPAddress", scope: !949, file: !950, line: 66, type: !979, scopeLine: 66, flags: DIFlagPublic | DIFlagPrototyped, spFlags: DISPFlagOptimized)
!979 = !DISubroutineType(types: !980)
!980 = !{null, !956, !981}
!981 = !DIDerivedType(tag: DW_TAG_reference_type, baseType: !982, size: 64)
!982 = !DIDerivedType(tag: DW_TAG_const_type, baseType: !463)
!983 = !DISubprogram(name: "make_prefix", linkageName: "_ZN9IPAddress11make_prefixEi", scope: !949, file: !950, line: 78, type: !984, scopeLine: 78, flags: DIFlagPublic | DIFlagPrototyped | DIFlagStaticMember, spFlags: DISPFlagOptimized)
!984 = !DISubroutineType(types: !985)
!985 = !{!949, !34}
!986 = !DISubprogram(name: "make_broadcast", linkageName: "_ZN9IPAddress14make_broadcastEv", scope: !949, file: !950, line: 81, type: !987, scopeLine: 81, flags: DIFlagPublic | DIFlagPrototyped | DIFlagStaticMember, spFlags: DISPFlagOptimized)
!987 = !DISubroutineType(types: !988)
!988 = !{!949}
!989 = !DISubprogram(name: "empty", linkageName: "_ZNK9IPAddress5emptyEv", scope: !949, file: !950, line: 86, type: !990, scopeLine: 86, flags: DIFlagPublic | DIFlagPrototyped, spFlags: DISPFlagOptimized)
!990 = !DISubroutineType(types: !991)
!991 = !{!53, !992}
!992 = !DIDerivedType(tag: DW_TAG_pointer_type, baseType: !993, size: 64, flags: DIFlagArtificial | DIFlagObjectPointer)
!993 = !DIDerivedType(tag: DW_TAG_const_type, baseType: !949)
!994 = !DISubprogram(name: "addr", linkageName: "_ZNK9IPAddress4addrEv", scope: !949, file: !950, line: 91, type: !995, scopeLine: 91, flags: DIFlagPublic | DIFlagPrototyped, spFlags: DISPFlagOptimized)
!995 = !DISubroutineType(types: !996)
!996 = !{!12, !992}
!997 = !DISubprogram(name: "operator unsigned int", linkageName: "_ZNK9IPAddresscvjEv", scope: !949, file: !950, line: 99, type: !995, scopeLine: 99, flags: DIFlagPublic | DIFlagPrototyped, spFlags: DISPFlagOptimized)
!998 = !DISubprogram(name: "is_multicast", linkageName: "_ZNK9IPAddress12is_multicastEv", scope: !949, file: !950, line: 106, type: !990, scopeLine: 106, flags: DIFlagPublic | DIFlagPrototyped, spFlags: DISPFlagOptimized)
!999 = !DISubprogram(name: "is_link_local", linkageName: "_ZNK9IPAddress13is_link_localEv", scope: !949, file: !950, line: 110, type: !990, scopeLine: 110, flags: DIFlagPublic | DIFlagPrototyped, spFlags: DISPFlagOptimized)
!1000 = !DISubprogram(name: "in_addr", linkageName: "_ZNK9IPAddress7in_addrEv", scope: !949, file: !950, line: 114, type: !1001, scopeLine: 114, flags: DIFlagPublic | DIFlagPrototyped, spFlags: DISPFlagOptimized)
!1001 = !DISubroutineType(types: !1002)
!1002 = !{!176, !992}
!1003 = !DISubprogram(name: "operator in_addr", linkageName: "_ZNK9IPAddresscv7in_addrEv", scope: !949, file: !950, line: 115, type: !1001, scopeLine: 115, flags: DIFlagPublic | DIFlagPrototyped, spFlags: DISPFlagOptimized)
!1004 = !DISubprogram(name: "data", linkageName: "_ZN9IPAddress4dataEv", scope: !949, file: !950, line: 117, type: !1005, scopeLine: 117, flags: DIFlagPublic | DIFlagPrototyped, spFlags: DISPFlagOptimized)
!1005 = !DISubroutineType(types: !1006)
!1006 = !{!80, !956}
!1007 = !DISubprogram(name: "data", linkageName: "_ZNK9IPAddress4dataEv", scope: !949, file: !950, line: 118, type: !1008, scopeLine: 118, flags: DIFlagPublic | DIFlagPrototyped, spFlags: DISPFlagOptimized)
!1008 = !DISubroutineType(types: !1009)
!1009 = !{!268, !992}
!1010 = !DISubprogram(name: "hashcode", linkageName: "_ZNK9IPAddress8hashcodeEv", scope: !949, file: !950, line: 120, type: !995, scopeLine: 120, flags: DIFlagPublic | DIFlagPrototyped, spFlags: DISPFlagOptimized)
!1011 = !DISubprogram(name: "mask_to_prefix_len", linkageName: "_ZNK9IPAddress18mask_to_prefix_lenEv", scope: !949, file: !950, line: 122, type: !1012, scopeLine: 122, flags: DIFlagPublic | DIFlagPrototyped, spFlags: DISPFlagOptimized)
!1012 = !DISubroutineType(types: !1013)
!1013 = !{!34, !992}
!1014 = !DISubprogram(name: "matches_prefix", linkageName: "_ZNK9IPAddress14matches_prefixES_S_", scope: !949, file: !950, line: 123, type: !1015, scopeLine: 123, flags: DIFlagPublic | DIFlagPrototyped, spFlags: DISPFlagOptimized)
!1015 = !DISubroutineType(types: !1016)
!1016 = !{!53, !992, !949, !949}
!1017 = !DISubprogram(name: "mask_as_specific", linkageName: "_ZNK9IPAddress16mask_as_specificES_", scope: !949, file: !950, line: 124, type: !1018, scopeLine: 124, flags: DIFlagPublic | DIFlagPrototyped, spFlags: DISPFlagOptimized)
!1018 = !DISubroutineType(types: !1019)
!1019 = !{!53, !992, !949}
!1020 = !DISubprogram(name: "mask_more_specific", linkageName: "_ZNK9IPAddress18mask_more_specificES_", scope: !949, file: !950, line: 125, type: !1018, scopeLine: 125, flags: DIFlagPublic | DIFlagPrototyped, spFlags: DISPFlagOptimized)
!1021 = !DISubprogram(name: "operator&=", linkageName: "_ZN9IPAddressaNES_", scope: !949, file: !950, line: 137, type: !1022, scopeLine: 137, flags: DIFlagPublic | DIFlagPrototyped, spFlags: DISPFlagOptimized)
!1022 = !DISubroutineType(types: !1023)
!1023 = !{!1024, !956, !949}
!1024 = !DIDerivedType(tag: DW_TAG_reference_type, baseType: !949, size: 64)
!1025 = !DISubprogram(name: "operator|=", linkageName: "_ZN9IPAddressoRES_", scope: !949, file: !950, line: 138, type: !1022, scopeLine: 138, flags: DIFlagPublic | DIFlagPrototyped, spFlags: DISPFlagOptimized)
!1026 = !DISubprogram(name: "operator^=", linkageName: "_ZN9IPAddresseOES_", scope: !949, file: !950, line: 139, type: !1022, scopeLine: 139, flags: DIFlagPublic | DIFlagPrototyped, spFlags: DISPFlagOptimized)
!1027 = !DISubprogram(name: "unparse", linkageName: "_ZNK9IPAddress7unparseEv", scope: !949, file: !950, line: 141, type: !1028, scopeLine: 141, flags: DIFlagPublic | DIFlagPrototyped, spFlags: DISPFlagOptimized)
!1028 = !DISubroutineType(types: !1029)
!1029 = !{!567, !992}
!1030 = !DISubprogram(name: "unparse_mask", linkageName: "_ZNK9IPAddress12unparse_maskEv", scope: !949, file: !950, line: 142, type: !1028, scopeLine: 142, flags: DIFlagPublic | DIFlagPrototyped, spFlags: DISPFlagOptimized)
!1031 = !DISubprogram(name: "unparse_with_mask", linkageName: "_ZNK9IPAddress17unparse_with_maskES_", scope: !949, file: !950, line: 143, type: !1032, scopeLine: 143, flags: DIFlagPublic | DIFlagPrototyped, spFlags: DISPFlagOptimized)
!1032 = !DISubroutineType(types: !1033)
!1033 = !{!567, !992, !949}
!1034 = !DISubprogram(name: "s", linkageName: "_ZNK9IPAddress1sEv", scope: !949, file: !950, line: 145, type: !1028, scopeLine: 145, flags: DIFlagPublic | DIFlagPrototyped, spFlags: DISPFlagOptimized)
!1035 = !DISubprogram(name: "operator String", linkageName: "_ZNK9IPAddresscv6StringEv", scope: !949, file: !950, line: 146, type: !1028, scopeLine: 146, flags: DIFlagPublic | DIFlagPrototyped, spFlags: DISPFlagOptimized)
!1036 = !DISubprogram(name: "set_dst_ip_anno", linkageName: "_ZN6Packet15set_dst_ip_annoE9IPAddress", scope: !5, file: !4, line: 436, type: !1037, scopeLine: 436, flags: DIFlagPublic | DIFlagPrototyped, spFlags: DISPFlagOptimized)
!1037 = !DISubroutineType(types: !1038)
!1038 = !{null, !254, !949}
!1039 = !DISubprogram(name: "anno", linkageName: "_ZN6Packet4annoEv", scope: !5, file: !4, line: 441, type: !286, scopeLine: 441, flags: DIFlagPublic | DIFlagPrototyped, spFlags: DISPFlagOptimized)
!1040 = !DISubprogram(name: "anno", linkageName: "_ZNK6Packet4annoEv", scope: !5, file: !4, line: 444, type: !1041, scopeLine: 444, flags: DIFlagPublic | DIFlagPrototyped, spFlags: DISPFlagOptimized)
!1041 = !DISubroutineType(types: !1042)
!1042 = !{!237, !258}
!1043 = !DISubprogram(name: "anno_u8", linkageName: "_ZN6Packet7anno_u8Ev", scope: !5, file: !4, line: 447, type: !1044, scopeLine: 447, flags: DIFlagPublic | DIFlagPrototyped, spFlags: DISPFlagOptimized)
!1044 = !DISubroutineType(types: !1045)
!1045 = !{!1046, !254}
!1046 = !DIDerivedType(tag: DW_TAG_pointer_type, baseType: !98, size: 64)
!1047 = !DISubprogram(name: "anno_u8", linkageName: "_ZNK6Packet7anno_u8Ev", scope: !5, file: !4, line: 450, type: !1048, scopeLine: 450, flags: DIFlagPublic | DIFlagPrototyped, spFlags: DISPFlagOptimized)
!1048 = !DISubroutineType(types: !1049)
!1049 = !{!1050, !258}
!1050 = !DIDerivedType(tag: DW_TAG_pointer_type, baseType: !1051, size: 64)
!1051 = !DIDerivedType(tag: DW_TAG_const_type, baseType: !98)
!1052 = !DISubprogram(name: "anno_u32", linkageName: "_ZN6Packet8anno_u32Ev", scope: !5, file: !4, line: 453, type: !1053, scopeLine: 453, flags: DIFlagPublic | DIFlagPrototyped, spFlags: DISPFlagOptimized)
!1053 = !DISubroutineType(types: !1054)
!1054 = !{!1055, !254}
!1055 = !DIDerivedType(tag: DW_TAG_pointer_type, baseType: !12, size: 64)
!1056 = !DISubprogram(name: "anno_u32", linkageName: "_ZNK6Packet8anno_u32Ev", scope: !5, file: !4, line: 456, type: !1057, scopeLine: 456, flags: DIFlagPublic | DIFlagPrototyped, spFlags: DISPFlagOptimized)
!1057 = !DISubroutineType(types: !1058)
!1058 = !{!1059, !258}
!1059 = !DIDerivedType(tag: DW_TAG_pointer_type, baseType: !1060, size: 64)
!1060 = !DIDerivedType(tag: DW_TAG_const_type, baseType: !12)
!1061 = !DISubprogram(name: "anno_u8", linkageName: "_ZNK6Packet7anno_u8Ei", scope: !5, file: !4, line: 460, type: !1062, scopeLine: 460, flags: DIFlagPublic | DIFlagPrototyped, spFlags: DISPFlagOptimized)
!1062 = !DISubroutineType(types: !1063)
!1063 = !{!98, !258, !34}
!1064 = !DISubprogram(name: "set_anno_u8", linkageName: "_ZN6Packet11set_anno_u8Eih", scope: !5, file: !4, line: 469, type: !1065, scopeLine: 469, flags: DIFlagPublic | DIFlagPrototyped, spFlags: DISPFlagOptimized)
!1065 = !DISubroutineType(types: !1066)
!1066 = !{null, !254, !34, !98}
!1067 = !DISubprogram(name: "anno_u16", linkageName: "_ZNK6Packet8anno_u16Ei", scope: !5, file: !4, line: 479, type: !1068, scopeLine: 479, flags: DIFlagPublic | DIFlagPrototyped, spFlags: DISPFlagOptimized)
!1068 = !DISubroutineType(types: !1069)
!1069 = !{!102, !258, !34}
!1070 = !DISubprogram(name: "set_anno_u16", linkageName: "_ZN6Packet12set_anno_u16Eit", scope: !5, file: !4, line: 494, type: !1071, scopeLine: 494, flags: DIFlagPublic | DIFlagPrototyped, spFlags: DISPFlagOptimized)
!1071 = !DISubroutineType(types: !1072)
!1072 = !{null, !254, !34, !102}
!1073 = !DISubprogram(name: "anno_s16", linkageName: "_ZNK6Packet8anno_s16Ei", scope: !5, file: !4, line: 507, type: !1074, scopeLine: 507, flags: DIFlagPublic | DIFlagPrototyped, spFlags: DISPFlagOptimized)
!1074 = !DISubroutineType(types: !1075)
!1075 = !{!1076, !258, !34}
!1076 = !DIDerivedType(tag: DW_TAG_typedef, name: "int16_t", file: !32, line: 25, baseType: !1077)
!1077 = !DIDerivedType(tag: DW_TAG_typedef, name: "__int16_t", file: !15, line: 39, baseType: !1078)
!1078 = !DIBasicType(name: "short", size: 16, encoding: DW_ATE_signed)
!1079 = !DISubprogram(name: "set_anno_s16", linkageName: "_ZN6Packet12set_anno_s16Eis", scope: !5, file: !4, line: 522, type: !1080, scopeLine: 522, flags: DIFlagPublic | DIFlagPrototyped, spFlags: DISPFlagOptimized)
!1080 = !DISubroutineType(types: !1081)
!1081 = !{null, !254, !34, !1076}
!1082 = !DISubprogram(name: "anno_u32", linkageName: "_ZNK6Packet8anno_u32Ei", scope: !5, file: !4, line: 535, type: !1083, scopeLine: 535, flags: DIFlagPublic | DIFlagPrototyped, spFlags: DISPFlagOptimized)
!1083 = !DISubroutineType(types: !1084)
!1084 = !{!12, !258, !34}
!1085 = !DISubprogram(name: "set_anno_u32", linkageName: "_ZN6Packet12set_anno_u32Eij", scope: !5, file: !4, line: 550, type: !1086, scopeLine: 550, flags: DIFlagPublic | DIFlagPrototyped, spFlags: DISPFlagOptimized)
!1086 = !DISubroutineType(types: !1087)
!1087 = !{null, !254, !34, !12}
!1088 = !DISubprogram(name: "anno_s32", linkageName: "_ZNK6Packet8anno_s32Ei", scope: !5, file: !4, line: 556, type: !1089, scopeLine: 556, flags: DIFlagPublic | DIFlagPrototyped, spFlags: DISPFlagOptimized)
!1089 = !DISubroutineType(types: !1090)
!1090 = !{!31, !258, !34}
!1091 = !DISubprogram(name: "set_anno_s32", linkageName: "_ZN6Packet12set_anno_s32Eii", scope: !5, file: !4, line: 571, type: !1092, scopeLine: 571, flags: DIFlagPublic | DIFlagPrototyped, spFlags: DISPFlagOptimized)
!1092 = !DISubroutineType(types: !1093)
!1093 = !{null, !254, !34, !31}
!1094 = !DISubprogram(name: "anno_u64", linkageName: "_ZNK6Packet8anno_u64Ei", scope: !5, file: !4, line: 585, type: !1095, scopeLine: 585, flags: DIFlagPublic | DIFlagPrototyped, spFlags: DISPFlagOptimized)
!1095 = !DISubroutineType(types: !1096)
!1096 = !{!113, !258, !34}
!1097 = !DISubprogram(name: "set_anno_u64", linkageName: "_ZN6Packet12set_anno_u64Eim", scope: !5, file: !4, line: 600, type: !1098, scopeLine: 600, flags: DIFlagPublic | DIFlagPrototyped, spFlags: DISPFlagOptimized)
!1098 = !DISubroutineType(types: !1099)
!1099 = !{null, !254, !34, !113}
!1100 = !DISubprogram(name: "anno_ptr", linkageName: "_ZNK6Packet8anno_ptrEi", scope: !5, file: !4, line: 614, type: !1101, scopeLine: 614, flags: DIFlagPublic | DIFlagPrototyped, spFlags: DISPFlagOptimized)
!1101 = !DISubroutineType(types: !1102)
!1102 = !{!135, !258, !34}
!1103 = !DISubprogram(name: "set_anno_ptr", linkageName: "_ZN6Packet12set_anno_ptrEiPKv", scope: !5, file: !4, line: 629, type: !1104, scopeLine: 629, flags: DIFlagPublic | DIFlagPrototyped, spFlags: DISPFlagOptimized)
!1104 = !DISubroutineType(types: !1105)
!1105 = !{null, !254, !34, !237}
!1106 = !DISubprogram(name: "data_packet", linkageName: "_ZN6Packet11data_packetEv", scope: !5, file: !4, line: 638, type: !260, scopeLine: 638, flags: DIFlagPublic | DIFlagPrototyped, spFlags: DISPFlagOptimized)
!1107 = !DISubprogram(name: "clear_annotations", linkageName: "_ZN6Packet17clear_annotationsEb", scope: !5, file: !4, line: 643, type: !1108, scopeLine: 643, flags: DIFlagPublic | DIFlagPrototyped, spFlags: DISPFlagOptimized)
!1108 = !DISubroutineType(types: !1109)
!1109 = !{null, !254, !53}
!1110 = !DISubprogram(name: "copy_annotations", linkageName: "_ZN6Packet16copy_annotationsEPKS_", scope: !5, file: !4, line: 644, type: !1111, scopeLine: 644, flags: DIFlagPublic | DIFlagPrototyped, spFlags: DISPFlagOptimized)
!1111 = !DISubroutineType(types: !1112)
!1112 = !{null, !254, !1113}
!1113 = !DIDerivedType(tag: DW_TAG_pointer_type, baseType: !226, size: 64)
!1114 = !DISubprogram(name: "buffer_data", linkageName: "_ZNK6Packet11buffer_dataEv", scope: !5, file: !4, line: 661, type: !266, scopeLine: 661, flags: DIFlagPublic | DIFlagPrototyped, spFlags: DISPFlagOptimized)
!1115 = !DISubprogram(name: "addr_anno", linkageName: "_ZN6Packet9addr_annoEv", scope: !5, file: !4, line: 662, type: !286, scopeLine: 662, flags: DIFlagPublic | DIFlagPrototyped, spFlags: DISPFlagOptimized)
!1116 = !DISubprogram(name: "addr_anno", linkageName: "_ZNK6Packet9addr_annoEv", scope: !5, file: !4, line: 663, type: !1041, scopeLine: 663, flags: DIFlagPublic | DIFlagPrototyped, spFlags: DISPFlagOptimized)
!1117 = !DISubprogram(name: "user_anno", linkageName: "_ZN6Packet9user_annoEv", scope: !5, file: !4, line: 664, type: !286, scopeLine: 664, flags: DIFlagPublic | DIFlagPrototyped, spFlags: DISPFlagOptimized)
!1118 = !DISubprogram(name: "user_anno", linkageName: "_ZNK6Packet9user_annoEv", scope: !5, file: !4, line: 665, type: !1041, scopeLine: 665, flags: DIFlagPublic | DIFlagPrototyped, spFlags: DISPFlagOptimized)
!1119 = !DISubprogram(name: "user_anno_u8", linkageName: "_ZN6Packet12user_anno_u8Ev", scope: !5, file: !4, line: 666, type: !1044, scopeLine: 666, flags: DIFlagPublic | DIFlagPrototyped, spFlags: DISPFlagOptimized)
!1120 = !DISubprogram(name: "user_anno_u8", linkageName: "_ZNK6Packet12user_anno_u8Ev", scope: !5, file: !4, line: 667, type: !1048, scopeLine: 667, flags: DIFlagPublic | DIFlagPrototyped, spFlags: DISPFlagOptimized)
!1121 = !DISubprogram(name: "user_anno_u32", linkageName: "_ZN6Packet13user_anno_u32Ev", scope: !5, file: !4, line: 668, type: !1053, scopeLine: 668, flags: DIFlagPublic | DIFlagPrototyped, spFlags: DISPFlagOptimized)
!1122 = !DISubprogram(name: "user_anno_u32", linkageName: "_ZNK6Packet13user_anno_u32Ev", scope: !5, file: !4, line: 669, type: !1057, scopeLine: 669, flags: DIFlagPublic | DIFlagPrototyped, spFlags: DISPFlagOptimized)
!1123 = !DISubprogram(name: "user_anno_u8", linkageName: "_ZNK6Packet12user_anno_u8Ei", scope: !5, file: !4, line: 670, type: !1062, scopeLine: 670, flags: DIFlagPublic | DIFlagPrototyped, spFlags: DISPFlagOptimized)
!1124 = !DISubprogram(name: "set_user_anno_u8", linkageName: "_ZN6Packet16set_user_anno_u8Eih", scope: !5, file: !4, line: 671, type: !1065, scopeLine: 671, flags: DIFlagPublic | DIFlagPrototyped, spFlags: DISPFlagOptimized)
!1125 = !DISubprogram(name: "user_anno_u16", linkageName: "_ZNK6Packet13user_anno_u16Ei", scope: !5, file: !4, line: 672, type: !1068, scopeLine: 672, flags: DIFlagPublic | DIFlagPrototyped, spFlags: DISPFlagOptimized)
!1126 = !DISubprogram(name: "set_user_anno_u16", linkageName: "_ZN6Packet17set_user_anno_u16Eit", scope: !5, file: !4, line: 673, type: !1071, scopeLine: 673, flags: DIFlagPublic | DIFlagPrototyped, spFlags: DISPFlagOptimized)
!1127 = !DISubprogram(name: "user_anno_u32", linkageName: "_ZNK6Packet13user_anno_u32Ei", scope: !5, file: !4, line: 674, type: !1083, scopeLine: 674, flags: DIFlagPublic | DIFlagPrototyped, spFlags: DISPFlagOptimized)
!1128 = !DISubprogram(name: "set_user_anno_u32", linkageName: "_ZN6Packet17set_user_anno_u32Eij", scope: !5, file: !4, line: 675, type: !1086, scopeLine: 675, flags: DIFlagPublic | DIFlagPrototyped, spFlags: DISPFlagOptimized)
!1129 = !DISubprogram(name: "user_anno_s32", linkageName: "_ZNK6Packet13user_anno_s32Ei", scope: !5, file: !4, line: 676, type: !1089, scopeLine: 676, flags: DIFlagPublic | DIFlagPrototyped, spFlags: DISPFlagOptimized)
!1130 = !DISubprogram(name: "set_user_anno_s32", linkageName: "_ZN6Packet17set_user_anno_s32Eii", scope: !5, file: !4, line: 677, type: !1092, scopeLine: 677, flags: DIFlagPublic | DIFlagPrototyped, spFlags: DISPFlagOptimized)
!1131 = !DISubprogram(name: "user_anno_u64", linkageName: "_ZNK6Packet13user_anno_u64Ei", scope: !5, file: !4, line: 679, type: !1095, scopeLine: 679, flags: DIFlagPublic | DIFlagPrototyped, spFlags: DISPFlagOptimized)
!1132 = !DISubprogram(name: "set_user_anno_u64", linkageName: "_ZN6Packet17set_user_anno_u64Eim", scope: !5, file: !4, line: 680, type: !1098, scopeLine: 680, flags: DIFlagPublic | DIFlagPrototyped, spFlags: DISPFlagOptimized)
!1133 = !DISubprogram(name: "all_user_anno", linkageName: "_ZNK6Packet13all_user_annoEv", scope: !5, file: !4, line: 682, type: !1048, scopeLine: 682, flags: DIFlagPublic | DIFlagPrototyped, spFlags: DISPFlagOptimized)
!1134 = !DISubprogram(name: "all_user_anno", linkageName: "_ZN6Packet13all_user_annoEv", scope: !5, file: !4, line: 683, type: !1044, scopeLine: 683, flags: DIFlagPublic | DIFlagPrototyped, spFlags: DISPFlagOptimized)
