; ModuleID = '../elements/local/webgen.cc'
source_filename = "../elements/local/webgen.cc"
target datalayout = "e-m:e-p270:32:32-p271:32:32-p272:64:64-i64:64-f80:128-n8:16:32:64-S128"
target triple = "x86_64-pc-linux-gnu"

%class.WebGen = type { %class.Element.base, %class.Timer, %class.IPAddress, %class.IPAddress, %class.IPAddress, %class.atomic_uint32_t, [1024 x %"class.WebGen::CB"*], %"class.WebGen::CB"*, %"class.WebGen::CB"*, %"class.WebGen::CB"*, i32, %class.Timestamp, %class.Timestamp, %struct.anon }
%class.Element.base = type <{ i32 (...)**, [2 x %"class.Element::Port"*], [4 x %"class.Element::Port"], [2 x i32], %class.Router*, i32 }>
%"class.Element::Port" = type <{ %class.Element*, i32, [4 x i8] }>
%class.Element = type <{ i32 (...)**, [2 x %"class.Element::Port"*], [4 x %"class.Element::Port"], [2 x i32], %class.Router*, i32, [4 x i8] }>
%class.Router = type opaque
%class.Timer = type { i32, %class.Timestamp, %union.anon, i8*, %class.Element*, %class.RouterThread* }
%union.anon = type { void (%class.Timer*, i8*)* }
%class.RouterThread = type opaque
%class.IPAddress = type { i32 }
%class.atomic_uint32_t = type { i32 }
%"class.WebGen::CB" = type { %class.IPAddress, i16, i16, i32, i32, i32, i32, i32, i8, i8, %class.Timestamp, [64 x i8], i32, %"class.WebGen::CB"*, %"class.WebGen::CB"**, %"class.WebGen::CB"*, %"class.WebGen::CB"* }
%class.Timestamp = type { %"union.Timestamp::rep_t" }
%"union.Timestamp::rep_t" = type { i64 }
%struct.anon = type { i32, i32, i32, i32 }
%class.Vector = type { %class.vector_memory }
%class.vector_memory = type { %class.String*, i32, i32 }
%class.String = type { %"struct.String::rep_t" }
%"struct.String::rep_t" = type { i8*, i32, %"struct.String::memo_t"* }
%"struct.String::memo_t" = type { i32, i32, i32, [8 x i8] }
%class.ErrorHandler = type <{ i32 (...)**, i32, [4 x i8] }>
%class.Args = type { %class.ArgContext.base, i8, i8, i8, %class.Vector*, %class.Vector.0, %"struct.Args::Slot"*, [48 x i8] }
%class.ArgContext.base = type <{ %class.Element*, %class.ErrorHandler*, i8*, i8 }>
%class.Vector.0 = type { %class.vector_memory.1 }
%class.vector_memory.1 = type { %struct.char_array*, i32, i32 }
%struct.char_array = type opaque
%"struct.Args::Slot" = type { i32 (...)**, %"struct.Args::Slot"* }
%class.Packet = type { %class.atomic_uint32_t, %class.Packet*, i8*, i8*, i8*, i8*, %"struct.Packet::AllAnno", void (i8*, i64, i8*)*, i8* }
%"struct.Packet::AllAnno" = type { %"union.Packet::Anno", i8*, i8*, i8*, i32, [8 x i8], %class.Packet*, %class.Packet* }
%"union.Packet::Anno" = type { [6 x i64] }
%class.WritablePacket = type { %class.Packet }
%struct.click_ip = type { i8, i8, i16, i16, i16, i8, i8, i16, %struct.in_addr, %struct.in_addr }
%struct.in_addr = type { i32 }
%class.Task = type opaque
%class.IPPrefixArg = type { i8 }
%class.ArgContext = type <{ %class.Element*, %class.ErrorHandler*, i8*, i8, [7 x i8] }>
%class.IntArg = type { i32, i32 }

$_ZNK7Element6outputEi = comdat any

$_ZNK7Element4Port4pushEP6Packet = comdat any

$_ZN9Timestamp10assign_nowEv = comdat any

$_ZNK6WebGen10class_nameEv = comdat any

$_ZNK6WebGen10port_countEv = comdat any

$_ZNK6WebGen10processingEv = comdat any

$__clang_call_terminate = comdat any

$_ZNK7Element4portEbi = comdat any

$_Z14args_base_readI11IPPrefixArg9IPAddressS1_EvP4ArgsPKciT_RT0_RT1_ = comdat any

$_ZN4Args9base_readI11IPPrefixArg9IPAddressS2_EEvPKciT_RT0_RT1_ = comdat any

$_ZNK6String6lengthEv = comdat any

$_Z14args_base_readI9IPAddressEvP4ArgsPKciRT_ = comdat any

$_ZN4Args9base_readI9IPAddressEEvPKciRT_ = comdat any

$_Z14args_base_readIiEvP4ArgsPKciRT_ = comdat any

$_ZN4Args9base_readIiEEvPKciRT_ = comdat any

@_ZTV6WebGen = dso_local unnamed_addr constant { [29 x i8*] } { [29 x i8*] [i8* null, i8* bitcast ({ i8*, i8*, i8* }* @_ZTI6WebGen to i8*), i8* bitcast (void (%class.WebGen*)* @_ZN6WebGenD2Ev to i8*), i8* bitcast (void (%class.WebGen*)* @_ZN6WebGenD0Ev to i8*), i8* bitcast (void (%class.Element*, i32, %class.Packet*)* @_ZN7Element4pushEiP6Packet to i8*), i8* bitcast (%class.Packet* (%class.Element*, i32)* @_ZN7Element4pullEi to i8*), i8* bitcast (%class.Packet* (%class.WebGen*, %class.Packet*)* @_ZN6WebGen13simple_actionEP6Packet to i8*), i8* bitcast (i1 (%class.Element*, %class.Task*)* @_ZN7Element8run_taskEP4Task to i8*), i8* bitcast (void (%class.WebGen*, %class.Timer*)* @_ZN6WebGen9run_timerEP5Timer to i8*), i8* bitcast (void (%class.Element*, i32, i32)* @_ZN7Element8selectedEii to i8*), i8* bitcast (void (%class.Element*, i32)* @_ZN7Element8selectedEi to i8*), i8* bitcast (i8* (%class.WebGen*)* @_ZNK6WebGen10class_nameEv to i8*), i8* bitcast (i8* (%class.WebGen*)* @_ZNK6WebGen10port_countEv to i8*), i8* bitcast (i8* (%class.WebGen*)* @_ZNK6WebGen10processingEv to i8*), i8* bitcast (i8* (%class.Element*)* @_ZNK7Element9flow_codeEv to i8*), i8* bitcast (i8* (%class.Element*)* @_ZNK7Element5flagsEv to i8*), i8* bitcast (i8* (%class.Element*, i8*)* @_ZN7Element4castEPKc to i8*), i8* bitcast (i8* (%class.Element*, i1, i32, i8*)* @_ZN7Element9port_castEbiPKc to i8*), i8* bitcast (i32 (%class.Element*)* @_ZNK7Element15configure_phaseEv to i8*), i8* bitcast (i32 (%class.WebGen*, %class.Vector*, %class.ErrorHandler*)* @_ZN6WebGen9configureER6VectorI6StringEP12ErrorHandler to i8*), i8* bitcast (void (%class.Element*)* @_ZN7Element12add_handlersEv to i8*), i8* bitcast (i32 (%class.WebGen*, %class.ErrorHandler*)* @_ZN6WebGen10initializeEP12ErrorHandler to i8*), i8* bitcast (void (%class.Element*, %class.Element*, %class.ErrorHandler*)* @_ZN7Element10take_stateEPS_P12ErrorHandler to i8*), i8* bitcast (%class.Element* (%class.Element*)* @_ZNK7Element15hotswap_elementEv to i8*), i8* bitcast (void (%class.WebGen*, i32)* @_ZN6WebGen7cleanupEN7Element12CleanupStageE to i8*), i8* bitcast (void (%class.String*, %class.Element*)* @_ZNK7Element11declarationEv to i8*), i8* bitcast (i1 (%class.Element*)* @_ZNK7Element20can_live_reconfigureEv to i8*), i8* bitcast (i32 (%class.Element*, %class.Vector*, %class.ErrorHandler*)* @_ZN7Element16live_reconfigureER6VectorI6StringEP12ErrorHandler to i8*), i8* bitcast (i32 (%class.Element*, i32, i8*)* @_ZN7Element5llrpcEjPv to i8*)] }, align 8
@.str = private unnamed_addr constant [7 x i8] c"PREFIX\00", align 1
@.str.1 = private unnamed_addr constant [4 x i8] c"DST\00", align 1
@.str.2 = private unnamed_addr constant [5 x i8] c"RATE\00", align 1
@.str.4 = private unnamed_addr constant [18 x i8] c"Allocated %d CBs\0A\00", align 1
@.str.5 = private unnamed_addr constant [38 x i8] c"Not enough memory for dummy elements\0A\00", align 1
@.str.6 = private unnamed_addr constant [41 x i8] c"init: %d  comp: %5d  tmo: %5d  rst: %5d\0A\00", align 1
@.str.7 = private unnamed_addr constant [22 x i8] c"out of available CBs\0A\00", align 1
@.str.8 = private unnamed_addr constant [35 x i8] c"GET /spec/%d/%d-%d-%d HTTP/1.0\0D\0A\0D\0A\00", align 1
@.str.9 = private unnamed_addr constant [16 x i8] c"!next && !pprev\00", align 1
@.str.10 = private unnamed_addr constant [28 x i8] c"../elements/local/webgen.cc\00", align 1
@__PRETTY_FUNCTION__._ZN6WebGen2CB11add_to_listEPPS0_ = private unnamed_addr constant [44 x i8] c"void WebGen::CB::add_to_list(WebGen::CB **)\00", align 1
@_ZTVN10__cxxabiv120__si_class_type_infoE = external global i8*
@_ZTS6WebGen = dso_local constant [8 x i8] c"6WebGen\00", align 1
@_ZTI7Element = external constant i8*
@_ZTI6WebGen = dso_local constant { i8*, i8*, i8* } { i8* bitcast (i8** getelementptr inbounds (i8*, i8** @_ZTVN10__cxxabiv120__si_class_type_infoE, i64 2) to i8*), i8* getelementptr inbounds ([8 x i8], [8 x i8]* @_ZTS6WebGen, i32 0, i32 0), i8* bitcast (i8** @_ZTI7Element to i8*) }, align 8
@.str.11 = private unnamed_addr constant [47 x i8] c"(unsigned) port < (unsigned) _nports[isoutput]\00", align 1
@.str.12 = private unnamed_addr constant [30 x i8] c"../dummy_inc/click/element.hh\00", align 1
@__PRETTY_FUNCTION__._ZNK7Element4portEbi = private unnamed_addr constant [52 x i8] c"const Element::Port &Element::port(bool, int) const\00", align 1
@.str.13 = private unnamed_addr constant [8 x i8] c"_e && p\00", align 1
@__PRETTY_FUNCTION__._ZNK7Element4Port4pushEP6Packet = private unnamed_addr constant [41 x i8] c"void Element::Port::push(Packet *) const\00", align 1
@.str.14 = private unnamed_addr constant [7 x i8] c"WebGen\00", align 1
@_ZN7Element9PORTS_1_1E = external constant [0 x i8], align 1
@_ZN7Element4PUSHE = external constant [0 x i8], align 1
@.str.15 = private unnamed_addr constant [18 x i8] c"_r.memo->refcount\00", align 1
@.str.16 = private unnamed_addr constant [29 x i8] c"../dummy_inc/click/string.hh\00", align 1
@__PRETTY_FUNCTION__._ZNK6String5derefEv = private unnamed_addr constant [27 x i8] c"void String::deref() const\00", align 1
@.str.17 = private unnamed_addr constant [15 x i8] c"invalid number\00", align 1

@_ZN6WebGenC1Ev = dso_local unnamed_addr alias void (%class.WebGen*), void (%class.WebGen*)* @_ZN6WebGenC2Ev
@_ZN6WebGenD1Ev = dso_local unnamed_addr alias void (%class.WebGen*), void (%class.WebGen*)* @_ZN6WebGenD2Ev
@_ZN6WebGen2CBC1Ev = dso_local unnamed_addr alias void (%"class.WebGen::CB"*), void (%"class.WebGen::CB"*)* @_ZN6WebGen2CBC2Ev

; Function Attrs: sspstrong uwtable
define dso_local void @_ZN6WebGenC2Ev(%class.WebGen* %0) unnamed_addr #0 align 2 personality i8* bitcast (i32 (...)* @__gxx_personality_v0 to i8*) !dbg !2705 {
  call void @llvm.dbg.value(metadata %class.WebGen* %0, metadata !2707, metadata !DIExpression()), !dbg !2709
  %2 = bitcast %class.WebGen* %0 to %class.Element*, !dbg !2710
  tail call void @_ZN7ElementC2Ev(%class.Element* %2), !dbg !2711
  %3 = getelementptr %class.WebGen, %class.WebGen* %0, i64 0, i32 0, i32 0, !dbg !2710
  store i32 (...)** bitcast (i8** getelementptr inbounds ({ [29 x i8*] }, { [29 x i8*] }* @_ZTV6WebGen, i64 0, inrange i32 0, i64 2) to i32 (...)**), i32 (...)*** %3, align 8, !dbg !2710, !tbaa !2712
  %4 = getelementptr inbounds %class.WebGen, %class.WebGen* %0, i64 0, i32 1, !dbg !2715
  invoke void @_ZN5TimerC1EP7Element(%class.Timer* nonnull %4, %class.Element* %2)
          to label %5 unwind label %13, !dbg !2715

5:                                                ; preds = %1
  call void @llvm.dbg.value(metadata %class.WebGen* %0, metadata !2716, metadata !DIExpression(DW_OP_plus_uconst, 160, DW_OP_stack_value)), !dbg !2719
  %6 = getelementptr inbounds %class.WebGen, %class.WebGen* %0, i64 0, i32 2, i32 0, !dbg !2721
  store i32 0, i32* %6, align 4, !dbg !2721, !tbaa !2722
  call void @llvm.dbg.value(metadata %class.WebGen* %0, metadata !2716, metadata !DIExpression(DW_OP_plus_uconst, 164, DW_OP_stack_value)), !dbg !2726
  %7 = getelementptr inbounds %class.WebGen, %class.WebGen* %0, i64 0, i32 3, i32 0, !dbg !2728
  store i32 0, i32* %7, align 4, !dbg !2728, !tbaa !2722
  call void @llvm.dbg.value(metadata %class.WebGen* %0, metadata !2716, metadata !DIExpression(DW_OP_plus_uconst, 168, DW_OP_stack_value)), !dbg !2729
  %8 = getelementptr inbounds %class.WebGen, %class.WebGen* %0, i64 0, i32 4, i32 0, !dbg !2731
  store i32 0, i32* %8, align 4, !dbg !2731, !tbaa !2722
  call void @llvm.dbg.value(metadata %class.WebGen* %0, metadata !2732, metadata !DIExpression(DW_OP_plus_uconst, 8400, DW_OP_stack_value)), !dbg !2736
  call void @llvm.dbg.value(metadata %class.WebGen* %0, metadata !2738, metadata !DIExpression(DW_OP_plus_uconst, 8400, DW_OP_stack_value)), !dbg !2743
  call void @llvm.dbg.value(metadata i32 0, metadata !2741, metadata !DIExpression()), !dbg !2743
  call void @llvm.dbg.value(metadata i32 0, metadata !2742, metadata !DIExpression()), !dbg !2743
  %9 = getelementptr inbounds %class.WebGen, %class.WebGen* %0, i64 0, i32 11, i32 0, i32 0, !dbg !2746
  call void @llvm.dbg.value(metadata %class.WebGen* %0, metadata !2732, metadata !DIExpression(DW_OP_plus_uconst, 8408, DW_OP_stack_value)), !dbg !2747
  call void @llvm.dbg.value(metadata %class.WebGen* %0, metadata !2738, metadata !DIExpression(DW_OP_plus_uconst, 8408, DW_OP_stack_value)), !dbg !2749
  call void @llvm.dbg.value(metadata i32 0, metadata !2741, metadata !DIExpression()), !dbg !2749
  call void @llvm.dbg.value(metadata i32 0, metadata !2742, metadata !DIExpression()), !dbg !2749
  %10 = getelementptr inbounds %class.WebGen, %class.WebGen* %0, i64 0, i32 6, i64 0, !dbg !2751
  %11 = bitcast %"class.WebGen::CB"** %10 to i8*, !dbg !2753
  call void @llvm.memset.p0i8.i64(i8* nonnull align 8 dereferenceable(8216) %11, i8 0, i64 8216, i1 false), !dbg !2754
  %12 = bitcast i64* %9 to i8*, !dbg !2753
  call void @llvm.memset.p0i8.i64(i8* nonnull align 8 dereferenceable(32) %12, i8 0, i64 32, i1 false), !dbg !2755
  ret void, !dbg !2753

13:                                               ; preds = %1
  %14 = landingpad { i8*, i32 }
          cleanup, !dbg !2753
  tail call void @_ZN7ElementD2Ev(%class.Element* %2) #18, !dbg !2756
  resume { i8*, i32 } %14, !dbg !2756
}

; Function Attrs: nounwind readnone speculatable willreturn
declare void @llvm.dbg.declare(metadata, metadata, metadata) #1

declare void @_ZN7ElementC2Ev(%class.Element*) unnamed_addr #2

declare void @_ZN5TimerC1EP7Element(%class.Timer*, %class.Element*) unnamed_addr #2

declare i32 @__gxx_personality_v0(...)

; Function Attrs: argmemonly nounwind willreturn
declare void @llvm.memset.p0i8.i64(i8* nocapture writeonly, i8, i64, i1 immarg) #3

; Function Attrs: nounwind
declare void @_ZN7ElementD2Ev(%class.Element*) unnamed_addr #4

; Function Attrs: nounwind sspstrong uwtable
define dso_local void @_ZN6WebGenD2Ev(%class.WebGen* %0) unnamed_addr #5 align 2 personality i32 (...)* @__gxx_personality_v0 !dbg !2757 {
  call void @llvm.dbg.value(metadata %class.WebGen* %0, metadata !2759, metadata !DIExpression()), !dbg !2760
  %2 = getelementptr %class.WebGen, %class.WebGen* %0, i64 0, i32 0, i32 0, !dbg !2761
  store i32 (...)** bitcast (i8** getelementptr inbounds ({ [29 x i8*] }, { [29 x i8*] }* @_ZTV6WebGen, i64 0, inrange i32 0, i64 2) to i32 (...)**), i32 (...)*** %2, align 8, !dbg !2761, !tbaa !2712
  %3 = getelementptr inbounds %class.WebGen, %class.WebGen* %0, i64 0, i32 1, !dbg !2762
  call void @llvm.dbg.value(metadata %class.Timer* %3, metadata !2764, metadata !DIExpression()) #18, !dbg !2767
  call void @llvm.dbg.value(metadata %class.Timer* %3, metadata !2769, metadata !DIExpression()) #18, !dbg !2773
  %4 = getelementptr inbounds %class.Timer, %class.Timer* %3, i64 0, i32 0, !dbg !2777
  %5 = load i32, i32* %4, align 8, !dbg !2777, !tbaa !2778
  %6 = icmp eq i32 %5, 0, !dbg !2782
  br i1 %6, label %11, label %7, !dbg !2783

7:                                                ; preds = %1
  invoke void @_ZN5Timer10unscheduleEv(%class.Timer* nonnull %3)
          to label %11 unwind label %8, !dbg !2784

8:                                                ; preds = %7
  %9 = landingpad { i8*, i32 }
          catch i8* null, !dbg !2785
  %10 = extractvalue { i8*, i32 } %9, 0, !dbg !2785
  tail call void @__clang_call_terminate(i8* %10) #19, !dbg !2785
  unreachable, !dbg !2785

11:                                               ; preds = %1, %7
  %12 = bitcast %class.WebGen* %0 to %class.Element*, !dbg !2762
  tail call void @_ZN7ElementD2Ev(%class.Element* %12) #18, !dbg !2762
  ret void, !dbg !2786
}

; Function Attrs: nounwind sspstrong uwtable
define dso_local void @_ZN6WebGenD0Ev(%class.WebGen* %0) unnamed_addr #5 align 2 personality i32 (...)* @__gxx_personality_v0 !dbg !2787 {
  call void @llvm.dbg.value(metadata %class.WebGen* %0, metadata !2789, metadata !DIExpression()), !dbg !2790
  call void @llvm.dbg.value(metadata %class.WebGen* %0, metadata !2759, metadata !DIExpression()) #18, !dbg !2791
  %2 = getelementptr %class.WebGen, %class.WebGen* %0, i64 0, i32 0, i32 0, !dbg !2793
  store i32 (...)** bitcast (i8** getelementptr inbounds ({ [29 x i8*] }, { [29 x i8*] }* @_ZTV6WebGen, i64 0, inrange i32 0, i64 2) to i32 (...)**), i32 (...)*** %2, align 8, !dbg !2793, !tbaa !2712
  %3 = getelementptr inbounds %class.WebGen, %class.WebGen* %0, i64 0, i32 1, !dbg !2794
  call void @llvm.dbg.value(metadata %class.Timer* %3, metadata !2764, metadata !DIExpression()) #18, !dbg !2795
  call void @llvm.dbg.value(metadata %class.Timer* %3, metadata !2769, metadata !DIExpression()) #18, !dbg !2797
  %4 = getelementptr inbounds %class.Timer, %class.Timer* %3, i64 0, i32 0, !dbg !2799
  %5 = load i32, i32* %4, align 8, !dbg !2799, !tbaa !2778
  %6 = icmp eq i32 %5, 0, !dbg !2800
  br i1 %6, label %11, label %7, !dbg !2801

7:                                                ; preds = %1
  invoke void @_ZN5Timer10unscheduleEv(%class.Timer* nonnull %3)
          to label %11 unwind label %8, !dbg !2802

8:                                                ; preds = %7
  %9 = landingpad { i8*, i32 }
          catch i8* null, !dbg !2803
  %10 = extractvalue { i8*, i32 } %9, 0, !dbg !2803
  tail call void @__clang_call_terminate(i8* %10) #19, !dbg !2803
  unreachable, !dbg !2803

11:                                               ; preds = %1, %7
  %12 = bitcast %class.WebGen* %0 to %class.Element*, !dbg !2794
  tail call void @_ZN7ElementD2Ev(%class.Element* %12) #18, !dbg !2794
  %13 = bitcast %class.WebGen* %0 to i8*, !dbg !2804
  tail call void @_ZdlPv(i8* %13) #20, !dbg !2804
  ret void, !dbg !2805
}

; Function Attrs: nobuiltin nounwind
declare void @_ZdlPv(i8*) local_unnamed_addr #6

; Function Attrs: sspstrong uwtable
define dso_local i32 @_ZN6WebGen9configureER6VectorI6StringEP12ErrorHandler(%class.WebGen* %0, %class.Vector* dereferenceable(16) %1, %class.ErrorHandler* %2) unnamed_addr #0 align 2 personality i8* bitcast (i32 (...)* @__gxx_personality_v0 to i8*) !dbg !2806 {
  %4 = alloca i32, align 4
  %5 = alloca %class.Args, align 8
  call void @llvm.dbg.value(metadata %class.WebGen* %0, metadata !2808, metadata !DIExpression()), !dbg !2813
  call void @llvm.dbg.value(metadata %class.Vector* %1, metadata !2809, metadata !DIExpression()), !dbg !2813
  call void @llvm.dbg.value(metadata %class.ErrorHandler* %2, metadata !2810, metadata !DIExpression()), !dbg !2813
  %6 = bitcast i32* %4 to i8*, !dbg !2814
  call void @llvm.lifetime.start.p0i8(i64 4, i8* nonnull %6) #18, !dbg !2814
  %7 = bitcast %class.Args* %5 to i8*, !dbg !2815
  call void @llvm.lifetime.start.p0i8(i64 112, i8* nonnull %7) #18, !dbg !2815
  %8 = bitcast %class.WebGen* %0 to %class.Element*, !dbg !2816
  call void @_ZN4ArgsC1ERK6VectorI6StringEPK7ElementP12ErrorHandler(%class.Args* nonnull %5, %class.Vector* nonnull dereferenceable(16) %1, %class.Element* %8, %class.ErrorHandler* %2), !dbg !2815
  %9 = getelementptr inbounds %class.WebGen, %class.WebGen* %0, i64 0, i32 2, !dbg !2817
  %10 = getelementptr inbounds %class.WebGen, %class.WebGen* %0, i64 0, i32 3, !dbg !2818
  call void @llvm.dbg.value(metadata i8 1, metadata !2819, metadata !DIExpression()), !dbg !2829
  call void @llvm.dbg.value(metadata %class.Args* %5, metadata !2825, metadata !DIExpression()), !dbg !2829
  call void @llvm.dbg.value(metadata i8* getelementptr inbounds ([7 x i8], [7 x i8]* @.str, i64 0, i64 0), metadata !2826, metadata !DIExpression()), !dbg !2829
  call void @llvm.dbg.value(metadata %class.IPAddress* %9, metadata !2827, metadata !DIExpression()), !dbg !2829
  call void @llvm.dbg.value(metadata %class.IPAddress* %10, metadata !2828, metadata !DIExpression()), !dbg !2829
  call void @llvm.dbg.value(metadata i8 1, metadata !2831, metadata !DIExpression()), !dbg !2842
  call void @llvm.dbg.value(metadata %class.Args* %5, metadata !2837, metadata !DIExpression()), !dbg !2842
  call void @llvm.dbg.value(metadata i8* getelementptr inbounds ([7 x i8], [7 x i8]* @.str, i64 0, i64 0), metadata !2838, metadata !DIExpression()), !dbg !2842
  call void @llvm.dbg.value(metadata i32 3, metadata !2839, metadata !DIExpression()), !dbg !2842
  call void @llvm.dbg.value(metadata %class.IPAddress* %9, metadata !2840, metadata !DIExpression()), !dbg !2842
  call void @llvm.dbg.value(metadata %class.IPAddress* %10, metadata !2841, metadata !DIExpression()), !dbg !2842
  invoke void @_Z14args_base_readI11IPPrefixArg9IPAddressS1_EvP4ArgsPKciT_RT0_RT1_(%class.Args* nonnull %5, i8* getelementptr inbounds ([7 x i8], [7 x i8]* @.str, i64 0, i64 0), i32 3, i8 1, %class.IPAddress* nonnull dereferenceable(4) %9, %class.IPAddress* nonnull dereferenceable(4) %10)
          to label %11 unwind label %20, !dbg !2844

11:                                               ; preds = %3
  %12 = getelementptr inbounds %class.WebGen, %class.WebGen* %0, i64 0, i32 4, !dbg !2845
  call void @llvm.dbg.value(metadata %class.Args* %5, metadata !2846, metadata !DIExpression()), !dbg !2854
  call void @llvm.dbg.value(metadata i8* getelementptr inbounds ([4 x i8], [4 x i8]* @.str.1, i64 0, i64 0), metadata !2852, metadata !DIExpression()), !dbg !2854
  call void @llvm.dbg.value(metadata %class.IPAddress* %12, metadata !2853, metadata !DIExpression()), !dbg !2854
  call void @llvm.dbg.value(metadata %class.Args* %5, metadata !2856, metadata !DIExpression()), !dbg !2865
  call void @llvm.dbg.value(metadata i8* getelementptr inbounds ([4 x i8], [4 x i8]* @.str.1, i64 0, i64 0), metadata !2862, metadata !DIExpression()), !dbg !2865
  call void @llvm.dbg.value(metadata i32 3, metadata !2863, metadata !DIExpression()), !dbg !2865
  call void @llvm.dbg.value(metadata %class.IPAddress* %12, metadata !2864, metadata !DIExpression()), !dbg !2865
  invoke void @_Z14args_base_readI9IPAddressEvP4ArgsPKciRT_(%class.Args* nonnull %5, i8* getelementptr inbounds ([4 x i8], [4 x i8]* @.str.1, i64 0, i64 0), i32 3, %class.IPAddress* nonnull dereferenceable(4) %12)
          to label %13 unwind label %20, !dbg !2867

13:                                               ; preds = %11
  call void @llvm.dbg.value(metadata %class.Args* %5, metadata !2868, metadata !DIExpression()), !dbg !2876
  call void @llvm.dbg.value(metadata i8* getelementptr inbounds ([5 x i8], [5 x i8]* @.str.2, i64 0, i64 0), metadata !2874, metadata !DIExpression()), !dbg !2876
  call void @llvm.dbg.value(metadata i32* %4, metadata !2875, metadata !DIExpression()), !dbg !2876
  call void @llvm.dbg.value(metadata %class.Args* %5, metadata !2878, metadata !DIExpression()), !dbg !2887
  call void @llvm.dbg.value(metadata i8* getelementptr inbounds ([5 x i8], [5 x i8]* @.str.2, i64 0, i64 0), metadata !2884, metadata !DIExpression()), !dbg !2887
  call void @llvm.dbg.value(metadata i32 3, metadata !2885, metadata !DIExpression()), !dbg !2887
  call void @llvm.dbg.value(metadata i32* %4, metadata !2886, metadata !DIExpression()), !dbg !2887
  invoke void @_Z14args_base_readIiEvP4ArgsPKciRT_(%class.Args* nonnull %5, i8* getelementptr inbounds ([5 x i8], [5 x i8]* @.str.2, i64 0, i64 0), i32 3, i32* nonnull dereferenceable(4) %4)
          to label %14 unwind label %20, !dbg !2889

14:                                               ; preds = %13
  %15 = invoke i32 @_ZN4Args8completeEv(%class.Args* nonnull %5)
          to label %16 unwind label %20, !dbg !2890

16:                                               ; preds = %14
  call void @llvm.dbg.value(metadata i32 %15, metadata !2811, metadata !DIExpression()), !dbg !2813
  call void @_ZN4ArgsD1Ev(%class.Args* nonnull %5) #18, !dbg !2891
  call void @llvm.lifetime.end.p0i8(i64 112, i8* nonnull %7) #18, !dbg !2891
  %17 = load i32, i32* %4, align 4, !dbg !2892, !tbaa !2893
  call void @llvm.dbg.value(metadata i32 %17, metadata !2812, metadata !DIExpression()), !dbg !2813
  %18 = sdiv i32 1000000, %17, !dbg !2894
  %19 = getelementptr inbounds %class.WebGen, %class.WebGen* %0, i64 0, i32 10, !dbg !2895
  store i32 %18, i32* %19, align 8, !dbg !2896, !tbaa !2897
  call void @llvm.lifetime.end.p0i8(i64 4, i8* nonnull %6) #18, !dbg !2901
  ret i32 %15, !dbg !2902

20:                                               ; preds = %11, %3, %13, %14
  %21 = landingpad { i8*, i32 }
          cleanup, !dbg !2901
  call void @_ZN4ArgsD1Ev(%class.Args* nonnull %5) #18, !dbg !2891
  call void @llvm.lifetime.end.p0i8(i64 112, i8* nonnull %7) #18, !dbg !2891
  call void @llvm.lifetime.end.p0i8(i64 4, i8* nonnull %6) #18, !dbg !2901
  resume { i8*, i32 } %21, !dbg !2901
}

; Function Attrs: argmemonly nounwind willreturn
declare void @llvm.lifetime.start.p0i8(i64 immarg, i8* nocapture) #3

declare void @_ZN4ArgsC1ERK6VectorI6StringEPK7ElementP12ErrorHandler(%class.Args*, %class.Vector* dereferenceable(16), %class.Element*, %class.ErrorHandler*) unnamed_addr #2

declare i32 @_ZN4Args8completeEv(%class.Args*) local_unnamed_addr #2

; Function Attrs: nounwind
declare void @_ZN4ArgsD1Ev(%class.Args*) unnamed_addr #4

; Function Attrs: argmemonly nounwind willreturn
declare void @llvm.lifetime.end.p0i8(i64 immarg, i8* nocapture) #3

; Function Attrs: nounwind sspstrong uwtable
define dso_local i32 @_ZN6WebGen8pick_srcEv(%class.WebGen* nocapture readonly %0) local_unnamed_addr #5 align 2 !dbg !2903 {
  call void @llvm.dbg.value(metadata %class.WebGen* %0, metadata !2905, metadata !DIExpression()), !dbg !2908
  call void @llvm.dbg.value(metadata %class.WebGen* %0, metadata !2909, metadata !DIExpression(DW_OP_plus_uconst, 164, DW_OP_stack_value)), !dbg !2913
  %2 = getelementptr inbounds %class.WebGen, %class.WebGen* %0, i64 0, i32 3, i32 0, !dbg !2915
  %3 = load i32, i32* %2, align 4, !dbg !2915, !tbaa !2722
  call void @llvm.dbg.value(metadata i32 %3, metadata !2907, metadata !DIExpression()), !dbg !2908
  %4 = tail call i64 @random() #18, !dbg !2916
  %5 = trunc i64 %4 to i32, !dbg !2916
  %6 = xor i32 %3, -1, !dbg !2921
  %7 = and i32 %5, %6, !dbg !2922
  call void @llvm.dbg.value(metadata %class.WebGen* %0, metadata !2909, metadata !DIExpression(DW_OP_plus_uconst, 160, DW_OP_stack_value)), !dbg !2923
  %8 = getelementptr inbounds %class.WebGen, %class.WebGen* %0, i64 0, i32 2, i32 0, !dbg !2925
  %9 = load i32, i32* %8, align 4, !dbg !2925, !tbaa !2722
  %10 = and i32 %9, %3, !dbg !2926
  %11 = or i32 %7, %10, !dbg !2927
  call void @llvm.dbg.value(metadata i32 %11, metadata !2906, metadata !DIExpression()), !dbg !2908
  ret i32 %11, !dbg !2928
}

; Function Attrs: norecurse nounwind readnone sspstrong uwtable
define dso_local i32 @_ZN6WebGen8connhashEjt(%class.WebGen* nocapture readnone %0, i32 %1, i16 zeroext %2) local_unnamed_addr #7 align 2 !dbg !2929 {
  call void @llvm.dbg.value(metadata %class.WebGen* undef, metadata !2931, metadata !DIExpression()), !dbg !2934
  call void @llvm.dbg.value(metadata i32 %1, metadata !2932, metadata !DIExpression()), !dbg !2934
  call void @llvm.dbg.value(metadata i16 %2, metadata !2933, metadata !DIExpression()), !dbg !2934
  %4 = zext i16 %2 to i32, !dbg !2935
  %5 = xor i32 %4, %1, !dbg !2936
  %6 = and i32 %5, 1023, !dbg !2937
  ret i32 %6, !dbg !2938
}

; Function Attrs: sspstrong uwtable
define dso_local i32 @_ZN6WebGen10initializeEP12ErrorHandler(%class.WebGen* %0, %class.ErrorHandler* nocapture readnone %1) unnamed_addr #0 align 2 personality i8* bitcast (i32 (...)* @__gxx_personality_v0 to i8*) !dbg !2939 {
  %3 = alloca %class.Timestamp, align 8
  call void @llvm.dbg.declare(metadata %class.Timestamp* %3, metadata !2950, metadata !DIExpression()), !dbg !2953
  %4 = alloca %class.Timestamp, align 8
  call void @llvm.dbg.declare(metadata %class.Timestamp* %4, metadata !2955, metadata !DIExpression()), !dbg !2958
  %5 = alloca %class.Timestamp, align 8
  call void @llvm.dbg.value(metadata %class.WebGen* %0, metadata !2941, metadata !DIExpression()), !dbg !2964
  call void @llvm.dbg.value(metadata %class.ErrorHandler* undef, metadata !2942, metadata !DIExpression()), !dbg !2964
  %6 = getelementptr inbounds %class.WebGen, %class.WebGen* %0, i64 0, i32 1, !dbg !2965
  %7 = bitcast %class.WebGen* %0 to %class.Element*, !dbg !2966
  tail call void @_ZN5Timer10initializeEP7Elementb(%class.Timer* nonnull %6, %class.Element* %7, i1 zeroext false), !dbg !2967
  call void @llvm.dbg.value(metadata %class.Timer* %6, metadata !2962, metadata !DIExpression()), !dbg !2968
  %8 = bitcast %class.Timestamp* %5 to i8*, !dbg !2969
  call void @llvm.lifetime.start.p0i8(i64 8, i8* nonnull %8) #18, !dbg !2969
  %9 = bitcast %class.Timestamp* %4 to i8*, !dbg !2970
  call void @llvm.lifetime.start.p0i8(i64 8, i8* nonnull %9), !dbg !2970
  call void @llvm.dbg.value(metadata %class.Timestamp* %4, metadata !2973, metadata !DIExpression()), !dbg !2970
  call void @_ZN9Timestamp10assign_nowEbbb(%class.Timestamp* nonnull %4, i1 zeroext true, i1 zeroext true, i1 zeroext false), !dbg !2975
  %10 = getelementptr inbounds %class.Timestamp, %class.Timestamp* %4, i64 0, i32 0, i32 0, !dbg !2976
  %11 = load i64, i64* %10, align 8, !dbg !2976
  call void @llvm.lifetime.end.p0i8(i64 8, i8* nonnull %9), !dbg !2976
  %12 = getelementptr inbounds %class.Timestamp, %class.Timestamp* %5, i64 0, i32 0, i32 0, !dbg !2969
  store i64 %11, i64* %12, align 8, !dbg !2969
  call void @_ZN5Timer18schedule_at_steadyERK9Timestamp(%class.Timer* nonnull %6, %class.Timestamp* nonnull dereferenceable(8) %5), !dbg !2977
  call void @llvm.lifetime.end.p0i8(i64 8, i8* nonnull %8) #18, !dbg !2977
  %13 = getelementptr inbounds %class.WebGen, %class.WebGen* %0, i64 0, i32 10, !dbg !2978
  %14 = load i32, i32* %13, align 8, !dbg !2978, !tbaa !2897
  %15 = sdiv i32 1000000, %14, !dbg !2979
  %16 = mul nsw i32 %15, 10, !dbg !2980
  call void @llvm.dbg.value(metadata i32 %16, metadata !2943, metadata !DIExpression()), !dbg !2964
  call void @llvm.dbg.value(metadata i32 0, metadata !2944, metadata !DIExpression()), !dbg !2981
  %17 = icmp sgt i32 %15, 0, !dbg !2982
  br i1 %17, label %18, label %50, !dbg !2983

18:                                               ; preds = %2
  %19 = getelementptr inbounds %class.WebGen, %class.WebGen* %0, i64 0, i32 7, !dbg !2984
  %20 = bitcast %"class.WebGen::CB"** %19 to i8**, !dbg !2985
  br label %21, !dbg !2983

21:                                               ; preds = %18, %47
  %22 = phi i32 [ 0, %18 ], [ %48, %47 ]
  call void @llvm.dbg.value(metadata i32 %22, metadata !2944, metadata !DIExpression()), !dbg !2981
  %23 = call dereferenceable(144) i8* @_Znwm(i64 144) #21, !dbg !2991
  call void @llvm.dbg.value(metadata i8* %23, metadata !2992, metadata !DIExpression()), !dbg !2995
  call void @llvm.dbg.value(metadata i8* %23, metadata !2716, metadata !DIExpression()), !dbg !2997
  %24 = bitcast i8* %23 to i32*, !dbg !2999
  store i32 0, i32* %24, align 4, !dbg !2999, !tbaa !2722
  %25 = getelementptr inbounds i8, i8* %23, i64 32, !dbg !3000
  %26 = bitcast i8* %25 to %class.Timestamp*, !dbg !3000
  call void @llvm.dbg.value(metadata %class.Timestamp* %26, metadata !2732, metadata !DIExpression()), !dbg !3001
  call void @llvm.dbg.value(metadata %class.Timestamp* %26, metadata !2738, metadata !DIExpression()), !dbg !3003
  call void @llvm.dbg.value(metadata i32 0, metadata !2741, metadata !DIExpression()), !dbg !3003
  call void @llvm.dbg.value(metadata i32 0, metadata !2742, metadata !DIExpression()), !dbg !3003
  %27 = bitcast i8* %25 to i64*, !dbg !3005
  store i64 0, i64* %27, align 8, !dbg !3006, !tbaa !3007
  %28 = getelementptr inbounds i8, i8* %23, i64 112, !dbg !3008
  %29 = bitcast i8* %28 to %"class.WebGen::CB"**, !dbg !3008
  call void @llvm.memset.p0i8.i64(i8* nonnull align 8 dereferenceable(32) %28, i8 0, i64 32, i1 false), !dbg !3010
  invoke void @_ZN9Timestamp10assign_nowEv(%class.Timestamp* nonnull %26)
          to label %32 unwind label %30, !dbg !3011

30:                                               ; preds = %21
  %31 = landingpad { i8*, i32 }
          cleanup, !dbg !3012
  br label %92, !dbg !3013

32:                                               ; preds = %21
  call void @llvm.dbg.value(metadata i8* %23, metadata !2946, metadata !DIExpression()), !dbg !2984
  call void @llvm.dbg.value(metadata i8* %23, metadata !2988, metadata !DIExpression()) #18, !dbg !2985
  call void @llvm.dbg.value(metadata %"class.WebGen::CB"** %19, metadata !2989, metadata !DIExpression()) #18, !dbg !2985
  %33 = load %"class.WebGen::CB"*, %"class.WebGen::CB"** %29, align 8, !dbg !3014, !tbaa !3015
  %34 = icmp eq %"class.WebGen::CB"* %33, null, !dbg !3014
  br i1 %34, label %35, label %40, !dbg !3014

35:                                               ; preds = %32
  %36 = getelementptr inbounds i8, i8* %23, i64 120, !dbg !3014
  %37 = bitcast i8* %36 to %"class.WebGen::CB"***, !dbg !3014
  %38 = load %"class.WebGen::CB"**, %"class.WebGen::CB"*** %37, align 8, !dbg !3014, !tbaa !3018
  %39 = icmp eq %"class.WebGen::CB"** %38, null, !dbg !3014
  br i1 %39, label %41, label %40, !dbg !3014

40:                                               ; preds = %35, %32
  call void @__assert_fail(i8* getelementptr inbounds ([16 x i8], [16 x i8]* @.str.9, i64 0, i64 0), i8* getelementptr inbounds ([28 x i8], [28 x i8]* @.str.10, i64 0, i64 0), i32 515, i8* getelementptr inbounds ([44 x i8], [44 x i8]* @__PRETTY_FUNCTION__._ZN6WebGen2CB11add_to_listEPPS0_, i64 0, i64 0)) #19, !dbg !3014
  unreachable, !dbg !3014

41:                                               ; preds = %35
  %42 = load %"class.WebGen::CB"*, %"class.WebGen::CB"** %19, align 8, !dbg !3019, !tbaa !3020
  store %"class.WebGen::CB"* %42, %"class.WebGen::CB"** %29, align 8, !dbg !3021, !tbaa !3015
  %43 = icmp eq %"class.WebGen::CB"* %42, null, !dbg !3022
  br i1 %43, label %47, label %44, !dbg !3024

44:                                               ; preds = %41
  %45 = getelementptr inbounds %"class.WebGen::CB", %"class.WebGen::CB"* %42, i64 0, i32 14, !dbg !3025
  %46 = bitcast %"class.WebGen::CB"*** %45 to i8**, !dbg !3026
  store i8* %28, i8** %46, align 8, !dbg !3026, !tbaa !3018
  br label %47, !dbg !3027

47:                                               ; preds = %44, %41
  store %"class.WebGen::CB"** %19, %"class.WebGen::CB"*** %37, align 8, !dbg !3028, !tbaa !3018
  store i8* %23, i8** %20, align 8, !dbg !3029, !tbaa !3020
  %48 = add nuw nsw i32 %22, 1, !dbg !3030
  call void @llvm.dbg.value(metadata i32 %48, metadata !2944, metadata !DIExpression()), !dbg !2981
  %49 = icmp slt i32 %48, %16, !dbg !2982
  br i1 %49, label %21, label %50, !dbg !2983, !llvm.loop !3031

50:                                               ; preds = %47, %2
  call void (i8*, ...) @click_chatter(i8* getelementptr inbounds ([18 x i8], [18 x i8]* @.str.4, i64 0, i64 0), i32 %16), !dbg !3033
  %51 = bitcast %class.Timestamp* %3 to i8*, !dbg !3034
  call void @llvm.lifetime.start.p0i8(i64 8, i8* nonnull %51), !dbg !3034
  call void @_ZN9Timestamp10assign_nowEv(%class.Timestamp* nonnull %3), !dbg !3034
  %52 = getelementptr inbounds %class.Timestamp, %class.Timestamp* %3, i64 0, i32 0, i32 0, !dbg !3035
  %53 = load i64, i64* %52, align 8, !dbg !3035
  call void @llvm.lifetime.end.p0i8(i64 8, i8* nonnull %51), !dbg !3035
  call void @llvm.dbg.value(metadata i64 %53, metadata !2949, metadata !DIExpression()), !dbg !2964
  %54 = getelementptr inbounds %class.WebGen, %class.WebGen* %0, i64 0, i32 12, i32 0, i32 0, !dbg !3036
  store i64 %53, i64* %54, align 8, !dbg !3036, !tbaa.struct !3037
  %55 = getelementptr inbounds %class.WebGen, %class.WebGen* %0, i64 0, i32 11, i32 0, i32 0, !dbg !3040
  store i64 %53, i64* %55, align 8, !dbg !3040, !tbaa.struct !3037
  %56 = call dereferenceable(144) i8* @_Znwm(i64 144) #21, !dbg !3041
  call void @llvm.dbg.value(metadata i8* %56, metadata !2992, metadata !DIExpression()), !dbg !3042
  call void @llvm.dbg.value(metadata i8* %56, metadata !2716, metadata !DIExpression()), !dbg !3044
  %57 = bitcast i8* %56 to i32*, !dbg !3046
  store i32 0, i32* %57, align 4, !dbg !3046, !tbaa !2722
  %58 = getelementptr inbounds i8, i8* %56, i64 32, !dbg !3047
  %59 = bitcast i8* %58 to %class.Timestamp*, !dbg !3047
  call void @llvm.dbg.value(metadata %class.Timestamp* %59, metadata !2732, metadata !DIExpression()), !dbg !3048
  call void @llvm.dbg.value(metadata %class.Timestamp* %59, metadata !2738, metadata !DIExpression()), !dbg !3050
  call void @llvm.dbg.value(metadata i32 0, metadata !2741, metadata !DIExpression()), !dbg !3050
  call void @llvm.dbg.value(metadata i32 0, metadata !2742, metadata !DIExpression()), !dbg !3050
  %60 = bitcast i8* %58 to i64*, !dbg !3052
  store i64 0, i64* %60, align 8, !dbg !3053, !tbaa !3007
  %61 = getelementptr inbounds i8, i8* %56, i64 112, !dbg !3054
  call void @llvm.memset.p0i8.i64(i8* nonnull align 8 dereferenceable(32) %61, i8 0, i64 32, i1 false), !dbg !3055
  invoke void @_ZN9Timestamp10assign_nowEv(%class.Timestamp* nonnull %59)
          to label %62 unwind label %77, !dbg !3056

62:                                               ; preds = %50
  %63 = getelementptr inbounds %class.WebGen, %class.WebGen* %0, i64 0, i32 8, !dbg !3057
  %64 = bitcast %"class.WebGen::CB"** %63 to i8**, !dbg !3058
  store i8* %56, i8** %64, align 8, !dbg !3058, !tbaa !3059
  %65 = call dereferenceable(144) i8* @_Znwm(i64 144) #21, !dbg !3060
  call void @llvm.dbg.value(metadata i8* %65, metadata !2992, metadata !DIExpression()), !dbg !3061
  call void @llvm.dbg.value(metadata i8* %65, metadata !2716, metadata !DIExpression()), !dbg !3063
  %66 = bitcast i8* %65 to i32*, !dbg !3065
  store i32 0, i32* %66, align 4, !dbg !3065, !tbaa !2722
  %67 = getelementptr inbounds i8, i8* %65, i64 32, !dbg !3066
  %68 = bitcast i8* %67 to %class.Timestamp*, !dbg !3066
  call void @llvm.dbg.value(metadata %class.Timestamp* %68, metadata !2732, metadata !DIExpression()), !dbg !3067
  call void @llvm.dbg.value(metadata %class.Timestamp* %68, metadata !2738, metadata !DIExpression()), !dbg !3069
  call void @llvm.dbg.value(metadata i32 0, metadata !2741, metadata !DIExpression()), !dbg !3069
  call void @llvm.dbg.value(metadata i32 0, metadata !2742, metadata !DIExpression()), !dbg !3069
  %69 = bitcast i8* %67 to i64*, !dbg !3071
  store i64 0, i64* %69, align 8, !dbg !3072, !tbaa !3007
  %70 = getelementptr inbounds i8, i8* %65, i64 112, !dbg !3073
  call void @llvm.memset.p0i8.i64(i8* nonnull align 8 dereferenceable(32) %70, i8 0, i64 32, i1 false), !dbg !3074
  invoke void @_ZN9Timestamp10assign_nowEv(%class.Timestamp* nonnull %68)
          to label %71 unwind label %79, !dbg !3075

71:                                               ; preds = %62
  %72 = getelementptr inbounds %class.WebGen, %class.WebGen* %0, i64 0, i32 9, !dbg !3076
  %73 = bitcast %"class.WebGen::CB"** %72 to i8**, !dbg !3077
  store i8* %65, i8** %73, align 8, !dbg !3077, !tbaa !3078
  %74 = load %"class.WebGen::CB"*, %"class.WebGen::CB"** %63, align 8, !dbg !3079, !tbaa !3059
  %75 = icmp eq %"class.WebGen::CB"* %74, null, !dbg !3079
  br i1 %75, label %76, label %81, !dbg !3081

76:                                               ; preds = %71
  call void (i8*, ...) @click_chatter(i8* getelementptr inbounds ([38 x i8], [38 x i8]* @.str.5, i64 0, i64 0)), !dbg !3082
  br label %90, !dbg !3084

77:                                               ; preds = %50
  %78 = landingpad { i8*, i32 }
          cleanup, !dbg !3085
  br label %92, !dbg !3041

79:                                               ; preds = %62
  %80 = landingpad { i8*, i32 }
          cleanup, !dbg !3085
  br label %92, !dbg !3060

81:                                               ; preds = %71
  %82 = ptrtoint %"class.WebGen::CB"* %74 to i64, !dbg !3081
  %83 = getelementptr inbounds %"class.WebGen::CB", %"class.WebGen::CB"* %74, i64 0, i32 15, !dbg !3086
  %84 = bitcast %"class.WebGen::CB"** %83 to i8**, !dbg !3087
  store i8* %65, i8** %84, align 8, !dbg !3087, !tbaa !3088
  %85 = getelementptr inbounds %"class.WebGen::CB", %"class.WebGen::CB"* %74, i64 0, i32 16, !dbg !3089
  store %"class.WebGen::CB"* null, %"class.WebGen::CB"** %85, align 8, !dbg !3090, !tbaa !3091
  %86 = getelementptr inbounds i8, i8* %65, i64 128, !dbg !3092
  %87 = bitcast i8* %86 to %"class.WebGen::CB"**, !dbg !3092
  store %"class.WebGen::CB"* null, %"class.WebGen::CB"** %87, align 8, !dbg !3093, !tbaa !3088
  %88 = getelementptr inbounds i8, i8* %65, i64 136, !dbg !3094
  %89 = bitcast i8* %88 to i64*, !dbg !3095
  store i64 %82, i64* %89, align 8, !dbg !3095, !tbaa !3091
  br label %90, !dbg !3096

90:                                               ; preds = %76, %81
  %91 = phi i32 [ 0, %81 ], [ 12, %76 ]
  ret i32 %91, !dbg !3085

92:                                               ; preds = %77, %79, %30
  %93 = phi { i8*, i32 } [ %78, %77 ], [ %80, %79 ], [ %31, %30 ]
  %94 = phi i8* [ %56, %77 ], [ %65, %79 ], [ %23, %30 ]
  call void @_ZdlPv(i8* nonnull %94) #20, !dbg !2964
  resume { i8*, i32 } %93, !dbg !3085
}

declare void @_ZN5Timer10initializeEP7Elementb(%class.Timer*, %class.Element*, i1 zeroext) local_unnamed_addr #2

; Function Attrs: nobuiltin nofree
declare noalias nonnull i8* @_Znwm(i64) local_unnamed_addr #8

declare !dbg !1267 void @click_chatter(i8*, ...) local_unnamed_addr #2

; Function Attrs: nounwind sspstrong uwtable
define dso_local void @_ZN6WebGen2CB11add_to_listEPPS0_(%"class.WebGen::CB"* %0, %"class.WebGen::CB"** %1) local_unnamed_addr #5 align 2 !dbg !2986 {
  call void @llvm.dbg.value(metadata %"class.WebGen::CB"* %0, metadata !2988, metadata !DIExpression()), !dbg !3097
  call void @llvm.dbg.value(metadata %"class.WebGen::CB"** %1, metadata !2989, metadata !DIExpression()), !dbg !3097
  %3 = getelementptr inbounds %"class.WebGen::CB", %"class.WebGen::CB"* %0, i64 0, i32 13, !dbg !3098
  %4 = load %"class.WebGen::CB"*, %"class.WebGen::CB"** %3, align 8, !dbg !3098, !tbaa !3015
  %5 = icmp eq %"class.WebGen::CB"* %4, null, !dbg !3098
  br i1 %5, label %6, label %10, !dbg !3098

6:                                                ; preds = %2
  %7 = getelementptr inbounds %"class.WebGen::CB", %"class.WebGen::CB"* %0, i64 0, i32 14, !dbg !3098
  %8 = load %"class.WebGen::CB"**, %"class.WebGen::CB"*** %7, align 8, !dbg !3098, !tbaa !3018
  %9 = icmp eq %"class.WebGen::CB"** %8, null, !dbg !3098
  br i1 %9, label %11, label %10, !dbg !3098

10:                                               ; preds = %2, %6
  tail call void @__assert_fail(i8* getelementptr inbounds ([16 x i8], [16 x i8]* @.str.9, i64 0, i64 0), i8* getelementptr inbounds ([28 x i8], [28 x i8]* @.str.10, i64 0, i64 0), i32 515, i8* getelementptr inbounds ([44 x i8], [44 x i8]* @__PRETTY_FUNCTION__._ZN6WebGen2CB11add_to_listEPPS0_, i64 0, i64 0)) #19, !dbg !3098
  unreachable, !dbg !3098

11:                                               ; preds = %6
  %12 = load %"class.WebGen::CB"*, %"class.WebGen::CB"** %1, align 8, !dbg !3099, !tbaa !3020
  store %"class.WebGen::CB"* %12, %"class.WebGen::CB"** %3, align 8, !dbg !3100, !tbaa !3015
  %13 = icmp eq %"class.WebGen::CB"* %12, null, !dbg !3101
  br i1 %13, label %16, label %14, !dbg !3102

14:                                               ; preds = %11
  %15 = getelementptr inbounds %"class.WebGen::CB", %"class.WebGen::CB"* %12, i64 0, i32 14, !dbg !3103
  store %"class.WebGen::CB"** %3, %"class.WebGen::CB"*** %15, align 8, !dbg !3104, !tbaa !3018
  br label %16, !dbg !3105

16:                                               ; preds = %11, %14
  store %"class.WebGen::CB"** %1, %"class.WebGen::CB"*** %7, align 8, !dbg !3106, !tbaa !3018
  store %"class.WebGen::CB"* %0, %"class.WebGen::CB"** %1, align 8, !dbg !3107, !tbaa !3020
  ret void, !dbg !3108
}

; Function Attrs: argmemonly nounwind willreturn
declare void @llvm.memcpy.p0i8.p0i8.i64(i8* noalias nocapture writeonly, i8* noalias nocapture readonly, i64, i1 immarg) #3

; Function Attrs: sspstrong uwtable
define dso_local void @_ZN6WebGen7cleanupEN7Element12CleanupStageE(%class.WebGen* nocapture %0, i32 %1) unnamed_addr #0 align 2 !dbg !3109 {
  %3 = alloca %class.Timestamp, align 8
  call void @llvm.dbg.declare(metadata %class.Timestamp* %3, metadata !2950, metadata !DIExpression()), !dbg !3118
  call void @llvm.dbg.value(metadata %class.WebGen* %0, metadata !3111, metadata !DIExpression()), !dbg !3126
  call void @llvm.dbg.value(metadata i32 %1, metadata !3112, metadata !DIExpression()), !dbg !3126
  call void @llvm.dbg.value(metadata i32 0, metadata !3113, metadata !DIExpression()), !dbg !3126
  %4 = getelementptr inbounds %class.WebGen, %class.WebGen* %0, i64 0, i32 7, !dbg !3127
  call void @llvm.dbg.value(metadata %"class.WebGen::CB"* undef, metadata !3114, metadata !DIExpression()), !dbg !3126
  br label %5, !dbg !3128

5:                                                ; preds = %16, %2
  %6 = phi i64 [ %17, %16 ], [ 0, %2 ]
  %7 = phi %"class.WebGen::CB"** [ %18, %16 ], [ %4, %2 ]
  %8 = load %"class.WebGen::CB"*, %"class.WebGen::CB"** %7, align 8, !dbg !3126, !tbaa !3020
  call void @llvm.dbg.value(metadata i64 %6, metadata !3113, metadata !DIExpression()), !dbg !3126
  call void @llvm.dbg.value(metadata %"class.WebGen::CB"* %8, metadata !3114, metadata !DIExpression()), !dbg !3126
  %9 = icmp eq %"class.WebGen::CB"* %8, null, !dbg !3129
  br i1 %9, label %16, label %10, !dbg !3130

10:                                               ; preds = %5, %10
  %11 = phi %"class.WebGen::CB"* [ %13, %10 ], [ %8, %5 ]
  call void @llvm.dbg.value(metadata %"class.WebGen::CB"* %11, metadata !3114, metadata !DIExpression()), !dbg !3126
  call void @llvm.dbg.value(metadata %"class.WebGen::CB"* %11, metadata !3115, metadata !DIExpression()), !dbg !3131
  %12 = getelementptr inbounds %"class.WebGen::CB", %"class.WebGen::CB"* %11, i64 0, i32 13, !dbg !3132
  %13 = load %"class.WebGen::CB"*, %"class.WebGen::CB"** %12, align 8, !dbg !3132, !tbaa !3015
  call void @llvm.dbg.value(metadata %"class.WebGen::CB"* %13, metadata !3114, metadata !DIExpression()), !dbg !3126
  %14 = bitcast %"class.WebGen::CB"* %11 to i8*, !dbg !3133
  tail call void @_ZdlPv(i8* %14) #20, !dbg !3133
  %15 = icmp eq %"class.WebGen::CB"* %13, null, !dbg !3129
  br i1 %15, label %16, label %10, !dbg !3130, !llvm.loop !3134

16:                                               ; preds = %10, %5
  %17 = add nuw nsw i64 %6, 1, !dbg !3136
  call void @llvm.dbg.value(metadata i64 %17, metadata !3113, metadata !DIExpression()), !dbg !3126
  %18 = getelementptr inbounds %class.WebGen, %class.WebGen* %0, i64 0, i32 6, i64 %6, !dbg !3137
  call void @llvm.dbg.value(metadata %"class.WebGen::CB"* undef, metadata !3114, metadata !DIExpression()), !dbg !3126
  %19 = icmp eq i64 %17, 1025, !dbg !3138
  br i1 %19, label %20, label %5, !dbg !3139, !llvm.loop !3140

20:                                               ; preds = %16
  %21 = getelementptr inbounds %class.WebGen, %class.WebGen* %0, i64 0, i32 8, !dbg !3142
  %22 = load %"class.WebGen::CB"*, %"class.WebGen::CB"** %21, align 8, !dbg !3142, !tbaa !3059
  %23 = icmp eq %"class.WebGen::CB"* %22, null, !dbg !3143
  br i1 %23, label %26, label %24, !dbg !3143

24:                                               ; preds = %20
  %25 = bitcast %"class.WebGen::CB"* %22 to i8*, !dbg !3143
  tail call void @_ZdlPv(i8* %25) #20, !dbg !3143
  br label %26, !dbg !3143

26:                                               ; preds = %24, %20
  %27 = getelementptr inbounds %class.WebGen, %class.WebGen* %0, i64 0, i32 9, !dbg !3144
  %28 = load %"class.WebGen::CB"*, %"class.WebGen::CB"** %27, align 8, !dbg !3144, !tbaa !3078
  %29 = icmp eq %"class.WebGen::CB"* %28, null, !dbg !3145
  br i1 %29, label %32, label %30, !dbg !3145

30:                                               ; preds = %26
  %31 = bitcast %"class.WebGen::CB"* %28 to i8*, !dbg !3145
  tail call void @_ZdlPv(i8* %31) #20, !dbg !3145
  br label %32, !dbg !3145

32:                                               ; preds = %30, %26
  %33 = icmp sgt i32 %1, 3, !dbg !3146
  br i1 %33, label %34, label %49, !dbg !3147

34:                                               ; preds = %32
  call void @llvm.dbg.value(metadata %class.WebGen* %0, metadata !3122, metadata !DIExpression()), !dbg !3148
  %35 = bitcast %class.Timestamp* %3 to i8*, !dbg !3149
  call void @llvm.lifetime.start.p0i8(i64 8, i8* nonnull %35), !dbg !3149
  call void @_ZN9Timestamp10assign_nowEv(%class.Timestamp* nonnull %3), !dbg !3149
  %36 = getelementptr inbounds %class.Timestamp, %class.Timestamp* %3, i64 0, i32 0, i32 0, !dbg !3150
  %37 = load i64, i64* %36, align 8, !dbg !3150
  call void @llvm.lifetime.end.p0i8(i64 8, i8* nonnull %35), !dbg !3150
  call void @llvm.dbg.value(metadata i64 %37, metadata !3123, metadata !DIExpression()), !dbg !3148
  %38 = getelementptr inbounds %class.WebGen, %class.WebGen* %0, i64 0, i32 13, !dbg !3151
  %39 = getelementptr inbounds %struct.anon, %struct.anon* %38, i64 0, i32 0, !dbg !3152
  %40 = load i32, i32* %39, align 8, !dbg !3152, !tbaa !3153
  %41 = getelementptr inbounds %class.WebGen, %class.WebGen* %0, i64 0, i32 13, i32 1, !dbg !3154
  %42 = load i32, i32* %41, align 4, !dbg !3154, !tbaa !3155
  %43 = getelementptr inbounds %class.WebGen, %class.WebGen* %0, i64 0, i32 13, i32 3, !dbg !3156
  %44 = load i32, i32* %43, align 4, !dbg !3156, !tbaa !3157
  %45 = getelementptr inbounds %class.WebGen, %class.WebGen* %0, i64 0, i32 13, i32 2, !dbg !3158
  %46 = load i32, i32* %45, align 8, !dbg !3158, !tbaa !3159
  call void (i8*, ...) @click_chatter(i8* getelementptr inbounds ([41 x i8], [41 x i8]* @.str.6, i64 0, i64 0), i32 %40, i32 %42, i32 %44, i32 %46), !dbg !3160
  %47 = getelementptr inbounds %class.WebGen, %class.WebGen* %0, i64 0, i32 12, i32 0, i32 0, !dbg !3161
  store i64 %37, i64* %47, align 8, !dbg !3161, !tbaa.struct !3037
  %48 = bitcast %struct.anon* %38 to i8*, !dbg !3162
  call void @llvm.memset.p0i8.i64(i8* nonnull align 8 dereferenceable(16) %48, i8 0, i64 16, i1 false), !dbg !3162
  br label %49, !dbg !3163

49:                                               ; preds = %34, %32
  ret void, !dbg !3164
}

; Function Attrs: sspstrong uwtable
define dso_local void @_ZN6WebGen13do_perf_statsEv(%class.WebGen* nocapture %0) local_unnamed_addr #0 align 2 !dbg !3120 {
  %2 = alloca %class.Timestamp, align 8
  call void @llvm.dbg.declare(metadata %class.Timestamp* %2, metadata !2950, metadata !DIExpression()), !dbg !3165
  call void @llvm.dbg.value(metadata %class.WebGen* %0, metadata !3122, metadata !DIExpression()), !dbg !3167
  %3 = bitcast %class.Timestamp* %2 to i8*, !dbg !3168
  call void @llvm.lifetime.start.p0i8(i64 8, i8* nonnull %3), !dbg !3168
  call void @_ZN9Timestamp10assign_nowEv(%class.Timestamp* nonnull %2), !dbg !3168
  %4 = getelementptr inbounds %class.Timestamp, %class.Timestamp* %2, i64 0, i32 0, i32 0, !dbg !3169
  %5 = load i64, i64* %4, align 8, !dbg !3169
  call void @llvm.lifetime.end.p0i8(i64 8, i8* nonnull %3), !dbg !3169
  call void @llvm.dbg.value(metadata i64 %5, metadata !3123, metadata !DIExpression()), !dbg !3167
  %6 = getelementptr inbounds %class.WebGen, %class.WebGen* %0, i64 0, i32 13, !dbg !3170
  %7 = getelementptr inbounds %struct.anon, %struct.anon* %6, i64 0, i32 0, !dbg !3171
  %8 = load i32, i32* %7, align 8, !dbg !3171, !tbaa !3153
  %9 = getelementptr inbounds %class.WebGen, %class.WebGen* %0, i64 0, i32 13, i32 1, !dbg !3172
  %10 = load i32, i32* %9, align 4, !dbg !3172, !tbaa !3155
  %11 = getelementptr inbounds %class.WebGen, %class.WebGen* %0, i64 0, i32 13, i32 3, !dbg !3173
  %12 = load i32, i32* %11, align 4, !dbg !3173, !tbaa !3157
  %13 = getelementptr inbounds %class.WebGen, %class.WebGen* %0, i64 0, i32 13, i32 2, !dbg !3174
  %14 = load i32, i32* %13, align 8, !dbg !3174, !tbaa !3159
  call void (i8*, ...) @click_chatter(i8* getelementptr inbounds ([41 x i8], [41 x i8]* @.str.6, i64 0, i64 0), i32 %8, i32 %10, i32 %12, i32 %14), !dbg !3175
  %15 = getelementptr inbounds %class.WebGen, %class.WebGen* %0, i64 0, i32 12, i32 0, i32 0, !dbg !3176
  store i64 %5, i64* %15, align 8, !dbg !3176, !tbaa.struct !3037
  %16 = bitcast %struct.anon* %6 to i8*, !dbg !3177
  call void @llvm.memset.p0i8.i64(i8* nonnull align 8 dereferenceable(16) %16, i8 0, i64 16, i1 false), !dbg !3177
  ret void, !dbg !3178
}

; Function Attrs: nounwind sspstrong uwtable
define dso_local void @_ZN6WebGen7recycleEPNS_2CBE(%class.WebGen* %0, %"class.WebGen::CB"* %1) local_unnamed_addr #5 align 2 !dbg !3179 {
  call void @llvm.dbg.value(metadata %class.WebGen* %0, metadata !3181, metadata !DIExpression()), !dbg !3183
  call void @llvm.dbg.value(metadata %"class.WebGen::CB"* %1, metadata !3182, metadata !DIExpression()), !dbg !3183
  call void @llvm.dbg.value(metadata %"class.WebGen::CB"* %1, metadata !3184, metadata !DIExpression()) #18, !dbg !3187
  %3 = getelementptr inbounds %"class.WebGen::CB", %"class.WebGen::CB"* %1, i64 0, i32 15, !dbg !3189
  %4 = load %"class.WebGen::CB"*, %"class.WebGen::CB"** %3, align 8, !dbg !3189, !tbaa !3088
  %5 = icmp eq %"class.WebGen::CB"* %4, null, !dbg !3189
  %6 = ptrtoint %"class.WebGen::CB"* %4 to i64, !dbg !3191
  br i1 %5, label %13, label %7, !dbg !3191

7:                                                ; preds = %2
  %8 = getelementptr inbounds %"class.WebGen::CB", %"class.WebGen::CB"* %1, i64 0, i32 16, !dbg !3192
  %9 = bitcast %"class.WebGen::CB"** %8 to i64*, !dbg !3192
  %10 = load i64, i64* %9, align 8, !dbg !3192, !tbaa !3091
  %11 = getelementptr inbounds %"class.WebGen::CB", %"class.WebGen::CB"* %4, i64 0, i32 16, !dbg !3193
  %12 = bitcast %"class.WebGen::CB"** %11 to i64*, !dbg !3194
  store i64 %10, i64* %12, align 8, !dbg !3194, !tbaa !3091
  br label %13, !dbg !3195

13:                                               ; preds = %7, %2
  %14 = getelementptr inbounds %"class.WebGen::CB", %"class.WebGen::CB"* %1, i64 0, i32 16, !dbg !3196
  %15 = load %"class.WebGen::CB"*, %"class.WebGen::CB"** %14, align 8, !dbg !3196, !tbaa !3091
  %16 = icmp eq %"class.WebGen::CB"* %15, null, !dbg !3196
  br i1 %16, label %20, label %17, !dbg !3198

17:                                               ; preds = %13
  %18 = getelementptr inbounds %"class.WebGen::CB", %"class.WebGen::CB"* %15, i64 0, i32 15, !dbg !3199
  %19 = bitcast %"class.WebGen::CB"** %18 to i64*, !dbg !3200
  store i64 %6, i64* %19, align 8, !dbg !3200, !tbaa !3088
  br label %20, !dbg !3201

20:                                               ; preds = %13, %17
  %21 = bitcast %"class.WebGen::CB"** %3 to i8*, !dbg !3202
  tail call void @llvm.memset.p0i8.i64(i8* nonnull align 8 dereferenceable(16) %21, i8 0, i64 16, i1 false) #18, !dbg !3203
  call void @llvm.dbg.value(metadata %"class.WebGen::CB"* %1, metadata !3204, metadata !DIExpression()) #18, !dbg !3207
  %22 = getelementptr inbounds %"class.WebGen::CB", %"class.WebGen::CB"* %1, i64 0, i32 13, !dbg !3209
  %23 = load %"class.WebGen::CB"*, %"class.WebGen::CB"** %22, align 8, !dbg !3209, !tbaa !3015
  %24 = icmp eq %"class.WebGen::CB"* %23, null, !dbg !3209
  %25 = ptrtoint %"class.WebGen::CB"* %23 to i64, !dbg !3211
  br i1 %24, label %32, label %26, !dbg !3211

26:                                               ; preds = %20
  %27 = getelementptr inbounds %"class.WebGen::CB", %"class.WebGen::CB"* %1, i64 0, i32 14, !dbg !3212
  %28 = bitcast %"class.WebGen::CB"*** %27 to i64*, !dbg !3212
  %29 = load i64, i64* %28, align 8, !dbg !3212, !tbaa !3018
  %30 = getelementptr inbounds %"class.WebGen::CB", %"class.WebGen::CB"* %23, i64 0, i32 14, !dbg !3213
  %31 = bitcast %"class.WebGen::CB"*** %30 to i64*, !dbg !3214
  store i64 %29, i64* %31, align 8, !dbg !3214, !tbaa !3018
  br label %32, !dbg !3215

32:                                               ; preds = %26, %20
  %33 = getelementptr inbounds %"class.WebGen::CB", %"class.WebGen::CB"* %1, i64 0, i32 14, !dbg !3216
  %34 = load %"class.WebGen::CB"**, %"class.WebGen::CB"*** %33, align 8, !dbg !3216, !tbaa !3018
  %35 = icmp eq %"class.WebGen::CB"** %34, null, !dbg !3216
  br i1 %35, label %38, label %36, !dbg !3218

36:                                               ; preds = %32
  %37 = bitcast %"class.WebGen::CB"** %34 to i64*, !dbg !3219
  store i64 %25, i64* %37, align 8, !dbg !3219, !tbaa !3020
  br label %38, !dbg !3220

38:                                               ; preds = %32, %36
  %39 = bitcast %"class.WebGen::CB"** %22 to i8*, !dbg !3221
  tail call void @llvm.memset.p0i8.i64(i8* nonnull align 8 dereferenceable(16) %39, i8 0, i64 16, i1 false) #18, !dbg !3222
  %40 = getelementptr inbounds %class.WebGen, %class.WebGen* %0, i64 0, i32 7, !dbg !3223
  call void @llvm.dbg.value(metadata %"class.WebGen::CB"* %1, metadata !2988, metadata !DIExpression()) #18, !dbg !3224
  call void @llvm.dbg.value(metadata %"class.WebGen::CB"** %40, metadata !2989, metadata !DIExpression()) #18, !dbg !3224
  %41 = load %"class.WebGen::CB"*, %"class.WebGen::CB"** %40, align 8, !dbg !3226, !tbaa !3020
  store %"class.WebGen::CB"* %41, %"class.WebGen::CB"** %22, align 8, !dbg !3227, !tbaa !3015
  %42 = icmp eq %"class.WebGen::CB"* %41, null, !dbg !3228
  br i1 %42, label %45, label %43, !dbg !3229

43:                                               ; preds = %38
  %44 = getelementptr inbounds %"class.WebGen::CB", %"class.WebGen::CB"* %41, i64 0, i32 14, !dbg !3230
  store %"class.WebGen::CB"** %22, %"class.WebGen::CB"*** %44, align 8, !dbg !3231, !tbaa !3018
  br label %45, !dbg !3232

45:                                               ; preds = %38, %43
  store %"class.WebGen::CB"** %40, %"class.WebGen::CB"*** %33, align 8, !dbg !3233, !tbaa !3018
  store %"class.WebGen::CB"* %1, %"class.WebGen::CB"** %40, align 8, !dbg !3234, !tbaa !3020
  ret void, !dbg !3235
}

; Function Attrs: nofree norecurse nounwind sspstrong uwtable
define dso_local void @_ZN6WebGen2CB13rexmit_unlinkEv(%"class.WebGen::CB"* nocapture %0) local_unnamed_addr #9 align 2 !dbg !3185 {
  call void @llvm.dbg.value(metadata %"class.WebGen::CB"* %0, metadata !3184, metadata !DIExpression()), !dbg !3236
  %2 = getelementptr inbounds %"class.WebGen::CB", %"class.WebGen::CB"* %0, i64 0, i32 15, !dbg !3237
  %3 = load %"class.WebGen::CB"*, %"class.WebGen::CB"** %2, align 8, !dbg !3237, !tbaa !3088
  %4 = icmp eq %"class.WebGen::CB"* %3, null, !dbg !3237
  %5 = ptrtoint %"class.WebGen::CB"* %3 to i64, !dbg !3238
  br i1 %4, label %12, label %6, !dbg !3238

6:                                                ; preds = %1
  %7 = getelementptr inbounds %"class.WebGen::CB", %"class.WebGen::CB"* %0, i64 0, i32 16, !dbg !3239
  %8 = bitcast %"class.WebGen::CB"** %7 to i64*, !dbg !3239
  %9 = load i64, i64* %8, align 8, !dbg !3239, !tbaa !3091
  %10 = getelementptr inbounds %"class.WebGen::CB", %"class.WebGen::CB"* %3, i64 0, i32 16, !dbg !3240
  %11 = bitcast %"class.WebGen::CB"** %10 to i64*, !dbg !3241
  store i64 %9, i64* %11, align 8, !dbg !3241, !tbaa !3091
  br label %12, !dbg !3242

12:                                               ; preds = %1, %6
  %13 = getelementptr inbounds %"class.WebGen::CB", %"class.WebGen::CB"* %0, i64 0, i32 16, !dbg !3243
  %14 = load %"class.WebGen::CB"*, %"class.WebGen::CB"** %13, align 8, !dbg !3243, !tbaa !3091
  %15 = icmp eq %"class.WebGen::CB"* %14, null, !dbg !3243
  br i1 %15, label %19, label %16, !dbg !3244

16:                                               ; preds = %12
  %17 = getelementptr inbounds %"class.WebGen::CB", %"class.WebGen::CB"* %14, i64 0, i32 15, !dbg !3245
  %18 = bitcast %"class.WebGen::CB"** %17 to i64*, !dbg !3246
  store i64 %5, i64* %18, align 8, !dbg !3246, !tbaa !3088
  br label %19, !dbg !3247

19:                                               ; preds = %12, %16
  %20 = bitcast %"class.WebGen::CB"** %2 to i8*, !dbg !3248
  call void @llvm.memset.p0i8.i64(i8* nonnull align 8 dereferenceable(16) %20, i8 0, i64 16, i1 false), !dbg !3249
  ret void, !dbg !3248
}

; Function Attrs: nofree norecurse nounwind sspstrong uwtable
define dso_local void @_ZN6WebGen2CB16remove_from_listEv(%"class.WebGen::CB"* nocapture %0) local_unnamed_addr #9 align 2 !dbg !3205 {
  call void @llvm.dbg.value(metadata %"class.WebGen::CB"* %0, metadata !3204, metadata !DIExpression()), !dbg !3250
  %2 = getelementptr inbounds %"class.WebGen::CB", %"class.WebGen::CB"* %0, i64 0, i32 13, !dbg !3251
  %3 = load %"class.WebGen::CB"*, %"class.WebGen::CB"** %2, align 8, !dbg !3251, !tbaa !3015
  %4 = icmp eq %"class.WebGen::CB"* %3, null, !dbg !3251
  %5 = ptrtoint %"class.WebGen::CB"* %3 to i64, !dbg !3252
  br i1 %4, label %12, label %6, !dbg !3252

6:                                                ; preds = %1
  %7 = getelementptr inbounds %"class.WebGen::CB", %"class.WebGen::CB"* %0, i64 0, i32 14, !dbg !3253
  %8 = bitcast %"class.WebGen::CB"*** %7 to i64*, !dbg !3253
  %9 = load i64, i64* %8, align 8, !dbg !3253, !tbaa !3018
  %10 = getelementptr inbounds %"class.WebGen::CB", %"class.WebGen::CB"* %3, i64 0, i32 14, !dbg !3254
  %11 = bitcast %"class.WebGen::CB"*** %10 to i64*, !dbg !3255
  store i64 %9, i64* %11, align 8, !dbg !3255, !tbaa !3018
  br label %12, !dbg !3256

12:                                               ; preds = %1, %6
  %13 = getelementptr inbounds %"class.WebGen::CB", %"class.WebGen::CB"* %0, i64 0, i32 14, !dbg !3257
  %14 = load %"class.WebGen::CB"**, %"class.WebGen::CB"*** %13, align 8, !dbg !3257, !tbaa !3018
  %15 = icmp eq %"class.WebGen::CB"** %14, null, !dbg !3257
  br i1 %15, label %18, label %16, !dbg !3258

16:                                               ; preds = %12
  %17 = bitcast %"class.WebGen::CB"** %14 to i64*, !dbg !3259
  store i64 %5, i64* %17, align 8, !dbg !3259, !tbaa !3020
  br label %18, !dbg !3260

18:                                               ; preds = %12, %16
  %19 = bitcast %"class.WebGen::CB"** %2 to i8*, !dbg !3261
  call void @llvm.memset.p0i8.i64(i8* nonnull align 8 dereferenceable(16) %19, i8 0, i64 16, i1 false), !dbg !3262
  ret void, !dbg !3261
}

; Function Attrs: sspstrong uwtable
define dso_local void @_ZN6WebGen9run_timerEP5Timer(%class.WebGen* %0, %class.Timer* nocapture readnone %1) unnamed_addr #0 align 2 !dbg !3263 {
  %3 = alloca %class.Timestamp, align 8
  call void @llvm.dbg.declare(metadata %class.Timestamp* %3, metadata !2950, metadata !DIExpression()), !dbg !3274
  %4 = alloca %class.Timestamp, align 8
  %5 = alloca %class.Timestamp, align 8
  call void @llvm.dbg.declare(metadata %class.Timestamp* %5, metadata !2950, metadata !DIExpression()), !dbg !3278
  call void @llvm.dbg.value(metadata %class.WebGen* %0, metadata !3265, metadata !DIExpression()), !dbg !3280
  call void @llvm.dbg.value(metadata %class.Timer* undef, metadata !3266, metadata !DIExpression()), !dbg !3280
  %6 = bitcast %class.Timestamp* %5 to i8*, !dbg !3281
  call void @llvm.lifetime.start.p0i8(i64 8, i8* nonnull %6), !dbg !3281
  call void @_ZN9Timestamp10assign_nowEv(%class.Timestamp* nonnull %5), !dbg !3281
  %7 = getelementptr inbounds %class.Timestamp, %class.Timestamp* %5, i64 0, i32 0, i32 0, !dbg !3282
  %8 = load i64, i64* %7, align 8, !dbg !3282
  call void @llvm.lifetime.end.p0i8(i64 8, i8* nonnull %6), !dbg !3282
  call void @llvm.dbg.value(metadata i64 %8, metadata !3268, metadata !DIExpression()), !dbg !3280
  %9 = icmp slt i64 %8, 0, !dbg !3283
  %10 = udiv i64 %8, 1000000000, !dbg !3297
  %11 = xor i64 %8, -1, !dbg !3283
  %12 = sdiv i64 %11, 1000000000, !dbg !3311
  %13 = xor i64 %12, 4294967295, !dbg !3283
  %14 = getelementptr inbounds %class.WebGen, %class.WebGen* %0, i64 0, i32 11, i32 0, i32 0, !dbg !3314
  %15 = trunc i64 %8 to i32, !dbg !3316
  %16 = getelementptr inbounds %class.WebGen, %class.WebGen* %0, i64 0, i32 10, !dbg !3280
  %17 = getelementptr inbounds %class.WebGen, %class.WebGen* %0, i64 0, i32 7, !dbg !3325
  %18 = getelementptr inbounds %class.WebGen, %class.WebGen* %0, i64 0, i32 3, i32 0, !dbg !3326
  %19 = getelementptr inbounds %class.WebGen, %class.WebGen* %0, i64 0, i32 2, i32 0, !dbg !3329
  %20 = getelementptr inbounds %class.WebGen, %class.WebGen* %0, i64 0, i32 13, i32 0, !dbg !3331
  %21 = select i1 %9, i64 %13, i64 %10, !dbg !3283
  %22 = trunc i64 %21 to i32, !dbg !3283
  %23 = add i32 %22, 1, !dbg !3332
  %24 = mul i32 %22, -1000000000, !dbg !3316
  %25 = add i32 %24, %15, !dbg !3316
  %26 = udiv i32 %25, 1000, !dbg !3333
  br label %27, !dbg !3338

27:                                               ; preds = %139, %2
  call void @llvm.dbg.value(metadata %class.WebGen* %0, metadata !3295, metadata !DIExpression(DW_OP_plus_uconst, 8400, DW_OP_stack_value)), !dbg !3332
  call void @llvm.dbg.value(metadata %class.WebGen* %0, metadata !3287, metadata !DIExpression(DW_OP_plus_uconst, 8400, DW_OP_stack_value)), !dbg !3339
  %28 = load i64, i64* %14, align 8, !dbg !3340, !tbaa !3007
  %29 = icmp slt i64 %28, 0, !dbg !3340
  br i1 %29, label %30, label %38, !dbg !3341, !prof !3342, !misexpect !3343

30:                                               ; preds = %27
  %31 = xor i64 %28, -1, !dbg !3344
  call void @llvm.dbg.value(metadata i64 %31, metadata !3308, metadata !DIExpression()), !dbg !3345
  call void @llvm.dbg.value(metadata i32 1000000000, metadata !3309, metadata !DIExpression()), !dbg !3345
  call void @llvm.dbg.value(metadata i64 %31, metadata !3303, metadata !DIExpression()), !dbg !3347
  call void @llvm.dbg.value(metadata i32 1000000000, metadata !3304, metadata !DIExpression()), !dbg !3347
  %32 = sdiv i64 %31, 1000000000, !dbg !3349
  %33 = trunc i64 %32 to i32, !dbg !3314
  %34 = add i32 %23, %33, !dbg !3350
  call void @llvm.dbg.value(metadata i32 undef, metadata !3336, metadata !DIExpression()), !dbg !3333
  call void @llvm.dbg.value(metadata %class.WebGen* %0, metadata !3323, metadata !DIExpression(DW_OP_plus_uconst, 8400, DW_OP_stack_value)), !dbg !3351
  call void @llvm.dbg.value(metadata %class.WebGen* %0, metadata !3319, metadata !DIExpression(DW_OP_plus_uconst, 8400, DW_OP_stack_value)), !dbg !3353
  call void @llvm.dbg.value(metadata %class.WebGen* %0, metadata !3287, metadata !DIExpression(DW_OP_plus_uconst, 8400, DW_OP_stack_value)), !dbg !3355
  %35 = xor i64 %28, -1, !dbg !3357
  call void @llvm.dbg.value(metadata i64 %35, metadata !3308, metadata !DIExpression()), !dbg !3358
  call void @llvm.dbg.value(metadata i32 1000000000, metadata !3309, metadata !DIExpression()), !dbg !3358
  call void @llvm.dbg.value(metadata i64 %35, metadata !3303, metadata !DIExpression()), !dbg !3360
  call void @llvm.dbg.value(metadata i32 1000000000, metadata !3304, metadata !DIExpression()), !dbg !3360
  %36 = sdiv i64 %35, 1000000000, !dbg !3362
  %37 = xor i64 %36, -1, !dbg !3363
  br label %43, !dbg !3364

38:                                               ; preds = %27
  call void @llvm.dbg.value(metadata i64 %28, metadata !3308, metadata !DIExpression()), !dbg !3365
  call void @llvm.dbg.value(metadata i32 1000000000, metadata !3309, metadata !DIExpression()), !dbg !3365
  call void @llvm.dbg.value(metadata i64 %28, metadata !3303, metadata !DIExpression()), !dbg !3367
  call void @llvm.dbg.value(metadata i32 1000000000, metadata !3304, metadata !DIExpression()), !dbg !3367
  %39 = udiv i64 %28, 1000000000, !dbg !3369
  %40 = trunc i64 %39 to i32, !dbg !3314
  %41 = sub nsw i32 %22, %40, !dbg !3350
  call void @llvm.dbg.value(metadata i32 undef, metadata !3336, metadata !DIExpression()), !dbg !3333
  call void @llvm.dbg.value(metadata %class.WebGen* %0, metadata !3323, metadata !DIExpression(DW_OP_plus_uconst, 8400, DW_OP_stack_value)), !dbg !3351
  call void @llvm.dbg.value(metadata %class.WebGen* %0, metadata !3319, metadata !DIExpression(DW_OP_plus_uconst, 8400, DW_OP_stack_value)), !dbg !3353
  call void @llvm.dbg.value(metadata %class.WebGen* %0, metadata !3287, metadata !DIExpression(DW_OP_plus_uconst, 8400, DW_OP_stack_value)), !dbg !3355
  call void @llvm.dbg.value(metadata i64 %28, metadata !3308, metadata !DIExpression()), !dbg !3370
  call void @llvm.dbg.value(metadata i32 1000000000, metadata !3309, metadata !DIExpression()), !dbg !3370
  call void @llvm.dbg.value(metadata i64 %28, metadata !3303, metadata !DIExpression()), !dbg !3372
  call void @llvm.dbg.value(metadata i32 1000000000, metadata !3304, metadata !DIExpression()), !dbg !3372
  %42 = udiv i64 %28, 1000000000, !dbg !3374
  br label %43, !dbg !3375

43:                                               ; preds = %30, %38
  %44 = phi i32 [ %34, %30 ], [ %41, %38 ]
  %45 = phi i64 [ %37, %30 ], [ %42, %38 ]
  %46 = mul nsw i32 %44, 1000000, !dbg !3376
  %47 = trunc i64 %45 to i32, !dbg !3377
  %48 = trunc i64 %28 to i32, !dbg !3378
  %49 = mul i32 %47, -1000000000, !dbg !3378
  %50 = add i32 %49, %48, !dbg !3378
  call void @llvm.dbg.value(metadata i32 %50, metadata !3336, metadata !DIExpression()), !dbg !3379
  %51 = udiv i32 %50, 1000, !dbg !3381
  %52 = add i32 %26, %46, !dbg !3382
  %53 = sub i32 %52, %51, !dbg !3383
  %54 = load i32, i32* %16, align 8, !dbg !3384, !tbaa !2897
  %55 = icmp sgt i32 %53, %54, !dbg !3385
  br i1 %55, label %56, label %140, !dbg !3338

56:                                               ; preds = %43
  %57 = sext i32 %54 to i64, !dbg !3386
  call void @llvm.dbg.value(metadata i64 %57, metadata !3387, metadata !DIExpression()), !dbg !3391
  %58 = mul nsw i64 %57, 1000, !dbg !3393
  call void @llvm.dbg.value(metadata i64 %58, metadata !3390, metadata !DIExpression()), !dbg !3391
  call void @llvm.dbg.value(metadata %class.WebGen* %0, metadata !3394, metadata !DIExpression(DW_OP_plus_uconst, 8400, DW_OP_stack_value)), !dbg !3400
  call void @llvm.dbg.value(metadata %class.Timestamp* undef, metadata !3399, metadata !DIExpression()), !dbg !3400
  %59 = add nsw i64 %58, %28, !dbg !3402
  store i64 %59, i64* %14, align 8, !dbg !3402, !tbaa !3007
  %60 = load %"class.WebGen::CB"*, %"class.WebGen::CB"** %17, align 8, !dbg !3403, !tbaa !3404
  call void @llvm.dbg.value(metadata %"class.WebGen::CB"* %60, metadata !3267, metadata !DIExpression()), !dbg !3280
  %61 = icmp eq %"class.WebGen::CB"* %60, null, !dbg !3405
  br i1 %61, label %138, label %62, !dbg !3406

62:                                               ; preds = %56
  call void @llvm.dbg.value(metadata %"class.WebGen::CB"* %60, metadata !3204, metadata !DIExpression()) #18, !dbg !3407
  %63 = getelementptr inbounds %"class.WebGen::CB", %"class.WebGen::CB"* %60, i64 0, i32 13, !dbg !3409
  %64 = load %"class.WebGen::CB"*, %"class.WebGen::CB"** %63, align 8, !dbg !3409, !tbaa !3015
  %65 = icmp eq %"class.WebGen::CB"* %64, null, !dbg !3409
  %66 = ptrtoint %"class.WebGen::CB"* %64 to i64, !dbg !3410
  br i1 %65, label %73, label %67, !dbg !3410

67:                                               ; preds = %62
  %68 = getelementptr inbounds %"class.WebGen::CB", %"class.WebGen::CB"* %60, i64 0, i32 14, !dbg !3411
  %69 = bitcast %"class.WebGen::CB"*** %68 to i64*, !dbg !3411
  %70 = load i64, i64* %69, align 8, !dbg !3411, !tbaa !3018
  %71 = getelementptr inbounds %"class.WebGen::CB", %"class.WebGen::CB"* %64, i64 0, i32 14, !dbg !3412
  %72 = bitcast %"class.WebGen::CB"*** %71 to i64*, !dbg !3413
  store i64 %70, i64* %72, align 8, !dbg !3413, !tbaa !3018
  br label %73, !dbg !3414

73:                                               ; preds = %67, %62
  %74 = getelementptr inbounds %"class.WebGen::CB", %"class.WebGen::CB"* %60, i64 0, i32 14, !dbg !3415
  %75 = load %"class.WebGen::CB"**, %"class.WebGen::CB"*** %74, align 8, !dbg !3415, !tbaa !3018
  %76 = icmp eq %"class.WebGen::CB"** %75, null, !dbg !3415
  br i1 %76, label %79, label %77, !dbg !3416

77:                                               ; preds = %73
  %78 = bitcast %"class.WebGen::CB"** %75 to i64*, !dbg !3417
  store i64 %66, i64* %78, align 8, !dbg !3417, !tbaa !3020
  br label %79, !dbg !3418

79:                                               ; preds = %73, %77
  %80 = bitcast %"class.WebGen::CB"** %63 to i8*, !dbg !3419
  call void @llvm.memset.p0i8.i64(i8* nonnull align 8 dereferenceable(16) %80, i8 0, i64 16, i1 false) #18, !dbg !3420
  call void @llvm.dbg.value(metadata %class.WebGen* %0, metadata !2905, metadata !DIExpression()) #18, !dbg !3421
  call void @llvm.dbg.value(metadata %class.WebGen* %0, metadata !2909, metadata !DIExpression(DW_OP_plus_uconst, 164, DW_OP_stack_value)) #18, !dbg !3326
  %81 = load i32, i32* %18, align 4, !dbg !3422, !tbaa !2722
  call void @llvm.dbg.value(metadata i32 %81, metadata !2907, metadata !DIExpression()) #18, !dbg !3421
  %82 = call i64 @random() #18, !dbg !3423
  %83 = trunc i64 %82 to i32, !dbg !3423
  %84 = xor i32 %81, -1, !dbg !3425
  %85 = and i32 %83, %84, !dbg !3426
  call void @llvm.dbg.value(metadata %class.WebGen* %0, metadata !2909, metadata !DIExpression(DW_OP_plus_uconst, 160, DW_OP_stack_value)) #18, !dbg !3329
  %86 = load i32, i32* %19, align 4, !dbg !3427, !tbaa !2722
  %87 = and i32 %86, %81, !dbg !3428
  %88 = or i32 %85, %87, !dbg !3429
  call void @llvm.dbg.value(metadata i32 %88, metadata !2906, metadata !DIExpression()) #18, !dbg !3421
  call void @llvm.dbg.value(metadata i32 %88, metadata !3430, metadata !DIExpression()), !dbg !3437
  call void @llvm.dbg.value(metadata %"class.WebGen::CB"* %60, metadata !3433, metadata !DIExpression()), !dbg !3437
  %89 = getelementptr inbounds %"class.WebGen::CB", %"class.WebGen::CB"* %60, i64 0, i32 0, i32 0, !dbg !3439
  store i32 %88, i32* %89, align 8, !dbg !3439, !tbaa.struct !3440
  %90 = getelementptr inbounds %"class.WebGen::CB", %"class.WebGen::CB"* %60, i64 0, i32 2, !dbg !3441
  store i16 20480, i16* %90, align 2, !dbg !3442, !tbaa !3443
  %91 = call i64 @random() #18, !dbg !3444
  %92 = trunc i64 %91 to i32, !dbg !3444
  %93 = and i32 %92, 268435455, !dbg !3446
  %94 = getelementptr inbounds %"class.WebGen::CB", %"class.WebGen::CB"* %60, i64 0, i32 3, !dbg !3447
  store i32 %93, i32* %94, align 8, !dbg !3448, !tbaa !3449
  %95 = getelementptr inbounds %"class.WebGen::CB", %"class.WebGen::CB"* %60, i64 0, i32 6, !dbg !3450
  store i32 0, i32* %95, align 4, !dbg !3451, !tbaa !3452
  %96 = getelementptr inbounds %"class.WebGen::CB", %"class.WebGen::CB"* %60, i64 0, i32 5, !dbg !3453
  store i32 %93, i32* %96, align 8, !dbg !3454, !tbaa !3455
  %97 = getelementptr inbounds %"class.WebGen::CB", %"class.WebGen::CB"* %60, i64 0, i32 4, !dbg !3456
  store i32 %93, i32* %97, align 4, !dbg !3457, !tbaa !3458
  %98 = call i64 @random() #18, !dbg !3459
  %99 = trunc i64 %98 to i32, !dbg !3459
  %100 = urem i32 %99, 60000, !dbg !3461
  %101 = trunc i32 %100 to i16, !dbg !3461
  %102 = add nuw i16 %101, 1024, !dbg !3461
  %103 = call i16 @llvm.bswap.i16(i16 %102) #18
  %104 = getelementptr inbounds %"class.WebGen::CB", %"class.WebGen::CB"* %60, i64 0, i32 1, !dbg !3462
  store i16 %103, i16* %104, align 4, !dbg !3463, !tbaa !3464
  %105 = getelementptr inbounds %"class.WebGen::CB", %"class.WebGen::CB"* %60, i64 0, i32 8, !dbg !3465
  %106 = load i8, i8* %105, align 4, !dbg !3466
  %107 = and i8 %106, -32, !dbg !3467
  store i8 %107, i8* %105, align 4, !dbg !3467
  %108 = getelementptr inbounds %"class.WebGen::CB", %"class.WebGen::CB"* %60, i64 0, i32 9, !dbg !3468
  store i8 0, i8* %108, align 1, !dbg !3469, !tbaa !3470
  %109 = call i32 @_Z12click_randomjj(i32 0, i32 9), !dbg !3471
  call void @llvm.dbg.value(metadata i32 %109, metadata !3434, metadata !DIExpression()), !dbg !3437
  %110 = call i32 @_Z12click_randomjj(i32 0, i32 8), !dbg !3472
  call void @llvm.dbg.value(metadata i32 %110, metadata !3435, metadata !DIExpression()), !dbg !3437
  %111 = call i32 @_Z12click_randomjj(i32 0, i32 2), !dbg !3473
  call void @llvm.dbg.value(metadata i32 %111, metadata !3436, metadata !DIExpression()), !dbg !3437
  %112 = getelementptr inbounds %"class.WebGen::CB", %"class.WebGen::CB"* %60, i64 0, i32 11, i64 0, !dbg !3474
  %113 = call i32 (i8*, i8*, ...) @sprintf(i8* nonnull %112, i8* nonnull dereferenceable(1) getelementptr inbounds ([35 x i8], [35 x i8]* @.str.8, i64 0, i64 0), i32 %109, i32 %109, i32 %111, i32 %110) #18, !dbg !3475
  %114 = call i64 @strlen(i8* nonnull %112) #22, !dbg !3476
  %115 = trunc i64 %114 to i32, !dbg !3476
  %116 = getelementptr inbounds %"class.WebGen::CB", %"class.WebGen::CB"* %60, i64 0, i32 12, !dbg !3477
  store i32 %115, i32* %116, align 8, !dbg !3478, !tbaa !3479
  call void @llvm.dbg.value(metadata %"class.WebGen::CB"* %60, metadata !2909, metadata !DIExpression()), !dbg !3480
  %117 = load i32, i32* %89, align 4, !dbg !3482, !tbaa !2722
  %118 = load i16, i16* %104, align 4, !dbg !3483, !tbaa !3464
  call void @llvm.dbg.value(metadata %class.WebGen* undef, metadata !2931, metadata !DIExpression()), !dbg !3484
  call void @llvm.dbg.value(metadata i32 %117, metadata !2932, metadata !DIExpression()), !dbg !3484
  call void @llvm.dbg.value(metadata i16 %118, metadata !2933, metadata !DIExpression()), !dbg !3484
  %119 = zext i16 %118 to i32, !dbg !3486
  %120 = xor i32 %117, %119, !dbg !3487
  %121 = and i32 %120, 1023, !dbg !3488
  call void @llvm.dbg.value(metadata i32 %121, metadata !3269, metadata !DIExpression()), !dbg !3331
  %122 = zext i32 %121 to i64, !dbg !3489
  %123 = getelementptr inbounds %class.WebGen, %class.WebGen* %0, i64 0, i32 6, i64 %122, !dbg !3489
  call void @llvm.dbg.value(metadata %"class.WebGen::CB"* %60, metadata !2988, metadata !DIExpression()) #18, !dbg !3490
  call void @llvm.dbg.value(metadata %"class.WebGen::CB"** %123, metadata !2989, metadata !DIExpression()) #18, !dbg !3490
  %124 = load %"class.WebGen::CB"*, %"class.WebGen::CB"** %63, align 8, !dbg !3492, !tbaa !3015
  %125 = icmp eq %"class.WebGen::CB"* %124, null, !dbg !3492
  br i1 %125, label %126, label %129, !dbg !3492

126:                                              ; preds = %79
  %127 = load %"class.WebGen::CB"**, %"class.WebGen::CB"*** %74, align 8, !dbg !3492, !tbaa !3018
  %128 = icmp eq %"class.WebGen::CB"** %127, null, !dbg !3492
  br i1 %128, label %130, label %129, !dbg !3492

129:                                              ; preds = %126, %79
  call void @__assert_fail(i8* getelementptr inbounds ([16 x i8], [16 x i8]* @.str.9, i64 0, i64 0), i8* getelementptr inbounds ([28 x i8], [28 x i8]* @.str.10, i64 0, i64 0), i32 515, i8* getelementptr inbounds ([44 x i8], [44 x i8]* @__PRETTY_FUNCTION__._ZN6WebGen2CB11add_to_listEPPS0_, i64 0, i64 0)) #19, !dbg !3492
  unreachable, !dbg !3492

130:                                              ; preds = %126
  %131 = load %"class.WebGen::CB"*, %"class.WebGen::CB"** %123, align 8, !dbg !3493, !tbaa !3020
  store %"class.WebGen::CB"* %131, %"class.WebGen::CB"** %63, align 8, !dbg !3494, !tbaa !3015
  %132 = icmp eq %"class.WebGen::CB"* %131, null, !dbg !3495
  br i1 %132, label %135, label %133, !dbg !3496

133:                                              ; preds = %130
  %134 = getelementptr inbounds %"class.WebGen::CB", %"class.WebGen::CB"* %131, i64 0, i32 14, !dbg !3497
  store %"class.WebGen::CB"** %63, %"class.WebGen::CB"*** %134, align 8, !dbg !3498, !tbaa !3018
  br label %135, !dbg !3499

135:                                              ; preds = %130, %133
  store %"class.WebGen::CB"** %123, %"class.WebGen::CB"*** %74, align 8, !dbg !3500, !tbaa !3018
  store %"class.WebGen::CB"* %60, %"class.WebGen::CB"** %123, align 8, !dbg !3501, !tbaa !3020
  call void @_ZN6WebGen8tcp_sendEPNS_2CBEP6Packet(%class.WebGen* nonnull %0, %"class.WebGen::CB"* nonnull %60, %class.Packet* null), !dbg !3502
  %136 = load i32, i32* %20, align 8, !dbg !3503, !tbaa !3153
  %137 = add nsw i32 %136, 1, !dbg !3503
  store i32 %137, i32* %20, align 8, !dbg !3503, !tbaa !3153
  br label %139, !dbg !3504

138:                                              ; preds = %56
  call void (i8*, ...) @click_chatter(i8* getelementptr inbounds ([22 x i8], [22 x i8]* @.str.7, i64 0, i64 0)), !dbg !3505
  br label %139

139:                                              ; preds = %138, %135
  br label %27, !dbg !3332, !llvm.loop !3507

140:                                              ; preds = %43
  %141 = trunc i64 %21 to i32, !dbg !3283
  %142 = getelementptr inbounds %class.WebGen, %class.WebGen* %0, i64 0, i32 9, !dbg !3509
  %143 = load %"class.WebGen::CB"*, %"class.WebGen::CB"** %142, align 8, !dbg !3509, !tbaa !3078
  %144 = getelementptr inbounds %"class.WebGen::CB", %"class.WebGen::CB"* %143, i64 0, i32 16, !dbg !3510
  %145 = load %"class.WebGen::CB"*, %"class.WebGen::CB"** %144, align 8, !dbg !3510, !tbaa !3091
  call void @llvm.dbg.value(metadata %"class.WebGen::CB"* %145, metadata !3273, metadata !DIExpression()), !dbg !3280
  %146 = getelementptr inbounds %class.WebGen, %class.WebGen* %0, i64 0, i32 8, !dbg !3511
  %147 = getelementptr inbounds %class.WebGen, %class.WebGen* %0, i64 0, i32 13, i32 3, !dbg !3513
  %148 = load %"class.WebGen::CB"*, %"class.WebGen::CB"** %146, align 8, !dbg !3518, !tbaa !3059
  %149 = getelementptr inbounds %"class.WebGen::CB", %"class.WebGen::CB"* %148, i64 0, i32 15, !dbg !3519
  %150 = load %"class.WebGen::CB"*, %"class.WebGen::CB"** %149, align 8, !dbg !3519, !tbaa !3088
  call void @llvm.dbg.value(metadata %"class.WebGen::CB"* %150, metadata !3267, metadata !DIExpression()), !dbg !3280
  %151 = icmp eq %"class.WebGen::CB"* %150, %143, !dbg !3520
  br i1 %151, label %243, label %152, !dbg !3522

152:                                              ; preds = %140
  %153 = add i32 %141, 1, !dbg !3523
  br label %154, !dbg !3525

154:                                              ; preds = %152, %237
  %155 = phi %"class.WebGen::CB"* [ %241, %237 ], [ %150, %152 ]
  call void @llvm.dbg.value(metadata %"class.WebGen::CB"* %155, metadata !3295, metadata !DIExpression(DW_OP_plus_uconst, 32, DW_OP_stack_value)), !dbg !3523
  call void @llvm.dbg.value(metadata %"class.WebGen::CB"* %155, metadata !3287, metadata !DIExpression(DW_OP_plus_uconst, 32, DW_OP_stack_value)), !dbg !3527
  %156 = getelementptr inbounds %"class.WebGen::CB", %"class.WebGen::CB"* %155, i64 0, i32 10, i32 0, i32 0, !dbg !3528
  %157 = load i64, i64* %156, align 8, !dbg !3528, !tbaa !3007
  %158 = icmp slt i64 %157, 0, !dbg !3528
  br i1 %158, label %159, label %167, !dbg !3525, !prof !3342, !misexpect !3343

159:                                              ; preds = %154
  %160 = xor i64 %157, -1, !dbg !3529
  call void @llvm.dbg.value(metadata i64 %160, metadata !3308, metadata !DIExpression()), !dbg !3530
  call void @llvm.dbg.value(metadata i32 1000000000, metadata !3309, metadata !DIExpression()), !dbg !3530
  call void @llvm.dbg.value(metadata i64 %160, metadata !3303, metadata !DIExpression()), !dbg !3532
  call void @llvm.dbg.value(metadata i32 1000000000, metadata !3304, metadata !DIExpression()), !dbg !3532
  %161 = sdiv i64 %160, 1000000000, !dbg !3534
  %162 = trunc i64 %161 to i32, !dbg !3535
  %163 = add i32 %153, %162, !dbg !3536
  call void @llvm.dbg.value(metadata i32 undef, metadata !3336, metadata !DIExpression()), !dbg !3537
  call void @llvm.dbg.value(metadata %"class.WebGen::CB"* %155, metadata !3323, metadata !DIExpression(DW_OP_plus_uconst, 32, DW_OP_stack_value)), !dbg !3540
  call void @llvm.dbg.value(metadata %"class.WebGen::CB"* %155, metadata !3319, metadata !DIExpression(DW_OP_plus_uconst, 32, DW_OP_stack_value)), !dbg !3542
  call void @llvm.dbg.value(metadata %"class.WebGen::CB"* %155, metadata !3287, metadata !DIExpression(DW_OP_plus_uconst, 32, DW_OP_stack_value)), !dbg !3544
  %164 = xor i64 %157, -1, !dbg !3546
  call void @llvm.dbg.value(metadata i64 %164, metadata !3308, metadata !DIExpression()), !dbg !3547
  call void @llvm.dbg.value(metadata i32 1000000000, metadata !3309, metadata !DIExpression()), !dbg !3547
  call void @llvm.dbg.value(metadata i64 %164, metadata !3303, metadata !DIExpression()), !dbg !3549
  call void @llvm.dbg.value(metadata i32 1000000000, metadata !3304, metadata !DIExpression()), !dbg !3549
  %165 = sdiv i64 %164, 1000000000, !dbg !3551
  %166 = xor i64 %165, -1, !dbg !3552
  br label %172, !dbg !3553

167:                                              ; preds = %154
  call void @llvm.dbg.value(metadata i64 %157, metadata !3308, metadata !DIExpression()), !dbg !3554
  call void @llvm.dbg.value(metadata i32 1000000000, metadata !3309, metadata !DIExpression()), !dbg !3554
  call void @llvm.dbg.value(metadata i64 %157, metadata !3303, metadata !DIExpression()), !dbg !3556
  call void @llvm.dbg.value(metadata i32 1000000000, metadata !3304, metadata !DIExpression()), !dbg !3556
  %168 = udiv i64 %157, 1000000000, !dbg !3558
  %169 = trunc i64 %168 to i32, !dbg !3535
  %170 = sub nsw i32 %141, %169, !dbg !3536
  call void @llvm.dbg.value(metadata i32 undef, metadata !3336, metadata !DIExpression()), !dbg !3537
  call void @llvm.dbg.value(metadata %"class.WebGen::CB"* %155, metadata !3323, metadata !DIExpression(DW_OP_plus_uconst, 32, DW_OP_stack_value)), !dbg !3540
  call void @llvm.dbg.value(metadata %"class.WebGen::CB"* %155, metadata !3319, metadata !DIExpression(DW_OP_plus_uconst, 32, DW_OP_stack_value)), !dbg !3542
  call void @llvm.dbg.value(metadata %"class.WebGen::CB"* %155, metadata !3287, metadata !DIExpression(DW_OP_plus_uconst, 32, DW_OP_stack_value)), !dbg !3544
  call void @llvm.dbg.value(metadata i64 %157, metadata !3308, metadata !DIExpression()), !dbg !3559
  call void @llvm.dbg.value(metadata i32 1000000000, metadata !3309, metadata !DIExpression()), !dbg !3559
  call void @llvm.dbg.value(metadata i64 %157, metadata !3303, metadata !DIExpression()), !dbg !3561
  call void @llvm.dbg.value(metadata i32 1000000000, metadata !3304, metadata !DIExpression()), !dbg !3561
  %171 = udiv i64 %157, 1000000000, !dbg !3563
  br label %172, !dbg !3564

172:                                              ; preds = %159, %167
  %173 = phi i32 [ %163, %159 ], [ %170, %167 ]
  %174 = phi i64 [ %166, %159 ], [ %171, %167 ]
  %175 = mul nsw i32 %173, 1000000, !dbg !3565
  %176 = trunc i64 %174 to i32, !dbg !3566
  %177 = trunc i64 %157 to i32, !dbg !3567
  %178 = mul i32 %176, -1000000000, !dbg !3567
  %179 = add i32 %178, %177, !dbg !3567
  call void @llvm.dbg.value(metadata i32 %179, metadata !3336, metadata !DIExpression()), !dbg !3568
  %180 = udiv i32 %179, 1000, !dbg !3570
  %181 = add i32 %26, %175, !dbg !3571
  %182 = sub i32 %181, %180, !dbg !3572
  %183 = icmp sgt i32 %182, 1000000, !dbg !3573
  br i1 %183, label %184, label %243, !dbg !3574

184:                                              ; preds = %172
  %185 = getelementptr inbounds %"class.WebGen::CB", %"class.WebGen::CB"* %155, i64 0, i32 9, !dbg !3575
  %186 = load i8, i8* %185, align 1, !dbg !3576, !tbaa !3470
  %187 = add i8 %186, 1, !dbg !3576
  store i8 %187, i8* %185, align 1, !dbg !3576, !tbaa !3470
  %188 = icmp sgt i8 %186, 5, !dbg !3577
  br i1 %188, label %189, label %234, !dbg !3578

189:                                              ; preds = %184
  %190 = load i32, i32* %147, align 4, !dbg !3579, !tbaa !3157
  %191 = add nsw i32 %190, 1, !dbg !3579
  store i32 %191, i32* %147, align 4, !dbg !3579, !tbaa !3157
  call void @llvm.dbg.value(metadata %class.WebGen* %0, metadata !3181, metadata !DIExpression()) #18, !dbg !3580
  call void @llvm.dbg.value(metadata %"class.WebGen::CB"* %155, metadata !3182, metadata !DIExpression()) #18, !dbg !3580
  call void @llvm.dbg.value(metadata %"class.WebGen::CB"* %155, metadata !3184, metadata !DIExpression()) #18, !dbg !3582
  %192 = getelementptr inbounds %"class.WebGen::CB", %"class.WebGen::CB"* %155, i64 0, i32 15, !dbg !3584
  %193 = load %"class.WebGen::CB"*, %"class.WebGen::CB"** %192, align 8, !dbg !3584, !tbaa !3088
  %194 = icmp eq %"class.WebGen::CB"* %193, null, !dbg !3584
  %195 = ptrtoint %"class.WebGen::CB"* %193 to i64, !dbg !3585
  br i1 %194, label %202, label %196, !dbg !3585

196:                                              ; preds = %189
  %197 = getelementptr inbounds %"class.WebGen::CB", %"class.WebGen::CB"* %155, i64 0, i32 16, !dbg !3586
  %198 = bitcast %"class.WebGen::CB"** %197 to i64*, !dbg !3586
  %199 = load i64, i64* %198, align 8, !dbg !3586, !tbaa !3091
  %200 = getelementptr inbounds %"class.WebGen::CB", %"class.WebGen::CB"* %193, i64 0, i32 16, !dbg !3587
  %201 = bitcast %"class.WebGen::CB"** %200 to i64*, !dbg !3588
  store i64 %199, i64* %201, align 8, !dbg !3588, !tbaa !3091
  br label %202, !dbg !3589

202:                                              ; preds = %196, %189
  %203 = getelementptr inbounds %"class.WebGen::CB", %"class.WebGen::CB"* %155, i64 0, i32 16, !dbg !3590
  %204 = load %"class.WebGen::CB"*, %"class.WebGen::CB"** %203, align 8, !dbg !3590, !tbaa !3091
  %205 = icmp eq %"class.WebGen::CB"* %204, null, !dbg !3590
  br i1 %205, label %209, label %206, !dbg !3591

206:                                              ; preds = %202
  %207 = getelementptr inbounds %"class.WebGen::CB", %"class.WebGen::CB"* %204, i64 0, i32 15, !dbg !3592
  %208 = bitcast %"class.WebGen::CB"** %207 to i64*, !dbg !3593
  store i64 %195, i64* %208, align 8, !dbg !3593, !tbaa !3088
  br label %209, !dbg !3594

209:                                              ; preds = %206, %202
  %210 = bitcast %"class.WebGen::CB"** %192 to i8*, !dbg !3595
  call void @llvm.memset.p0i8.i64(i8* nonnull align 8 dereferenceable(16) %210, i8 0, i64 16, i1 false) #18, !dbg !3596
  call void @llvm.dbg.value(metadata %"class.WebGen::CB"* %155, metadata !3204, metadata !DIExpression()) #18, !dbg !3597
  %211 = getelementptr inbounds %"class.WebGen::CB", %"class.WebGen::CB"* %155, i64 0, i32 13, !dbg !3599
  %212 = load %"class.WebGen::CB"*, %"class.WebGen::CB"** %211, align 8, !dbg !3599, !tbaa !3015
  %213 = icmp eq %"class.WebGen::CB"* %212, null, !dbg !3599
  %214 = ptrtoint %"class.WebGen::CB"* %212 to i64, !dbg !3600
  br i1 %213, label %221, label %215, !dbg !3600

215:                                              ; preds = %209
  %216 = getelementptr inbounds %"class.WebGen::CB", %"class.WebGen::CB"* %155, i64 0, i32 14, !dbg !3601
  %217 = bitcast %"class.WebGen::CB"*** %216 to i64*, !dbg !3601
  %218 = load i64, i64* %217, align 8, !dbg !3601, !tbaa !3018
  %219 = getelementptr inbounds %"class.WebGen::CB", %"class.WebGen::CB"* %212, i64 0, i32 14, !dbg !3602
  %220 = bitcast %"class.WebGen::CB"*** %219 to i64*, !dbg !3603
  store i64 %218, i64* %220, align 8, !dbg !3603, !tbaa !3018
  br label %221, !dbg !3604

221:                                              ; preds = %215, %209
  %222 = getelementptr inbounds %"class.WebGen::CB", %"class.WebGen::CB"* %155, i64 0, i32 14, !dbg !3605
  %223 = load %"class.WebGen::CB"**, %"class.WebGen::CB"*** %222, align 8, !dbg !3605, !tbaa !3018
  %224 = icmp eq %"class.WebGen::CB"** %223, null, !dbg !3605
  br i1 %224, label %227, label %225, !dbg !3606

225:                                              ; preds = %221
  %226 = bitcast %"class.WebGen::CB"** %223 to i64*, !dbg !3607
  store i64 %214, i64* %226, align 8, !dbg !3607, !tbaa !3020
  br label %227, !dbg !3608

227:                                              ; preds = %225, %221
  %228 = bitcast %"class.WebGen::CB"** %211 to i8*, !dbg !3609
  call void @llvm.memset.p0i8.i64(i8* nonnull align 8 dereferenceable(16) %228, i8 0, i64 16, i1 false) #18, !dbg !3610
  call void @llvm.dbg.value(metadata %"class.WebGen::CB"* %155, metadata !2988, metadata !DIExpression()) #18, !dbg !3611
  call void @llvm.dbg.value(metadata %"class.WebGen::CB"** %17, metadata !2989, metadata !DIExpression()) #18, !dbg !3611
  %229 = load %"class.WebGen::CB"*, %"class.WebGen::CB"** %17, align 8, !dbg !3613, !tbaa !3020
  store %"class.WebGen::CB"* %229, %"class.WebGen::CB"** %211, align 8, !dbg !3614, !tbaa !3015
  %230 = icmp eq %"class.WebGen::CB"* %229, null, !dbg !3615
  br i1 %230, label %233, label %231, !dbg !3616

231:                                              ; preds = %227
  %232 = getelementptr inbounds %"class.WebGen::CB", %"class.WebGen::CB"* %229, i64 0, i32 14, !dbg !3617
  store %"class.WebGen::CB"** %211, %"class.WebGen::CB"*** %232, align 8, !dbg !3618, !tbaa !3018
  br label %233, !dbg !3619

233:                                              ; preds = %227, %231
  store %"class.WebGen::CB"** %17, %"class.WebGen::CB"*** %222, align 8, !dbg !3620, !tbaa !3018
  store %"class.WebGen::CB"* %155, %"class.WebGen::CB"** %17, align 8, !dbg !3621, !tbaa !3020
  br label %235, !dbg !3622

234:                                              ; preds = %184
  call void @_ZN6WebGen8tcp_sendEPNS_2CBEP6Packet(%class.WebGen* nonnull %0, %"class.WebGen::CB"* nonnull %155, %class.Packet* null), !dbg !3623
  br label %235

235:                                              ; preds = %234, %233
  %236 = icmp eq %"class.WebGen::CB"* %155, %145, !dbg !3625
  br i1 %236, label %243, label %237, !dbg !3626, !llvm.loop !3627

237:                                              ; preds = %235
  %238 = load %"class.WebGen::CB"*, %"class.WebGen::CB"** %142, align 8, !dbg !3630, !tbaa !3078
  %239 = load %"class.WebGen::CB"*, %"class.WebGen::CB"** %146, align 8, !dbg !3518, !tbaa !3059
  %240 = getelementptr inbounds %"class.WebGen::CB", %"class.WebGen::CB"* %239, i64 0, i32 15, !dbg !3519
  %241 = load %"class.WebGen::CB"*, %"class.WebGen::CB"** %240, align 8, !dbg !3519, !tbaa !3088
  call void @llvm.dbg.value(metadata %"class.WebGen::CB"* %241, metadata !3267, metadata !DIExpression()), !dbg !3280
  %242 = icmp eq %"class.WebGen::CB"* %241, %238, !dbg !3520
  br i1 %242, label %243, label %154, !dbg !3522

243:                                              ; preds = %237, %172, %235, %140
  call void @llvm.dbg.value(metadata %class.WebGen* %0, metadata !3295, metadata !DIExpression(DW_OP_plus_uconst, 8408, DW_OP_stack_value)), !dbg !3631
  %244 = xor i64 %12, 4294967295, !dbg !3633
  %245 = select i1 %9, i64 %244, i64 %10, !dbg !3635, !prof !3342
  %246 = trunc i64 %245 to i32, !dbg !3636
  call void @llvm.dbg.value(metadata %class.WebGen* %0, metadata !3287, metadata !DIExpression(DW_OP_plus_uconst, 8408, DW_OP_stack_value)), !dbg !3637
  %247 = getelementptr inbounds %class.WebGen, %class.WebGen* %0, i64 0, i32 12, i32 0, i32 0, !dbg !3639
  %248 = load i64, i64* %247, align 8, !dbg !3639, !tbaa !3007
  %249 = icmp slt i64 %248, 0, !dbg !3639
  br i1 %249, label %250, label %254, !dbg !3640, !prof !3342, !misexpect !3343

250:                                              ; preds = %243
  %251 = xor i64 %248, -1, !dbg !3641
  call void @llvm.dbg.value(metadata i64 %251, metadata !3308, metadata !DIExpression()), !dbg !3642
  call void @llvm.dbg.value(metadata i32 1000000000, metadata !3309, metadata !DIExpression()), !dbg !3642
  call void @llvm.dbg.value(metadata i64 %251, metadata !3303, metadata !DIExpression()), !dbg !3644
  call void @llvm.dbg.value(metadata i32 1000000000, metadata !3304, metadata !DIExpression()), !dbg !3644
  %252 = sdiv i64 %251, 1000000000, !dbg !3646
  %253 = xor i64 %252, -1, !dbg !3647
  br label %256, !dbg !3648

254:                                              ; preds = %243
  call void @llvm.dbg.value(metadata i64 %248, metadata !3308, metadata !DIExpression()), !dbg !3649
  call void @llvm.dbg.value(metadata i32 1000000000, metadata !3309, metadata !DIExpression()), !dbg !3649
  call void @llvm.dbg.value(metadata i64 %248, metadata !3303, metadata !DIExpression()), !dbg !3651
  call void @llvm.dbg.value(metadata i32 1000000000, metadata !3304, metadata !DIExpression()), !dbg !3651
  %255 = udiv i64 %248, 1000000000, !dbg !3653
  br label %256, !dbg !3654

256:                                              ; preds = %254, %250
  %257 = phi i64 [ %253, %250 ], [ %255, %254 ]
  %258 = trunc i64 %257 to i32, !dbg !3655
  %259 = sub nsw i32 %246, %258, !dbg !3656
  %260 = mul nsw i32 %259, 1000000, !dbg !3657
  %261 = xor i64 %12, 4294967295, !dbg !3658
  %262 = select i1 %9, i64 %261, i64 %10, !dbg !3662, !prof !3342
  %263 = trunc i64 %262 to i32, !dbg !3663
  %264 = mul i32 %263, -1000000000, !dbg !3664
  %265 = add i32 %264, %15, !dbg !3664
  call void @llvm.dbg.value(metadata i32 %265, metadata !3336, metadata !DIExpression()), !dbg !3665
  %266 = udiv i32 %265, 1000, !dbg !3667
  call void @llvm.dbg.value(metadata %class.WebGen* %0, metadata !3323, metadata !DIExpression(DW_OP_plus_uconst, 8408, DW_OP_stack_value)), !dbg !3668
  call void @llvm.dbg.value(metadata %class.WebGen* %0, metadata !3319, metadata !DIExpression(DW_OP_plus_uconst, 8408, DW_OP_stack_value)), !dbg !3670
  call void @llvm.dbg.value(metadata %class.WebGen* %0, metadata !3287, metadata !DIExpression(DW_OP_plus_uconst, 8408, DW_OP_stack_value)), !dbg !3672
  br i1 %249, label %267, label %271, !dbg !3674, !prof !3342, !misexpect !3343

267:                                              ; preds = %256
  %268 = xor i64 %248, -1, !dbg !3675
  call void @llvm.dbg.value(metadata i64 %268, metadata !3308, metadata !DIExpression()), !dbg !3676
  call void @llvm.dbg.value(metadata i32 1000000000, metadata !3309, metadata !DIExpression()), !dbg !3676
  call void @llvm.dbg.value(metadata i64 %268, metadata !3303, metadata !DIExpression()), !dbg !3678
  call void @llvm.dbg.value(metadata i32 1000000000, metadata !3304, metadata !DIExpression()), !dbg !3678
  %269 = sdiv i64 %268, 1000000000, !dbg !3680
  %270 = xor i64 %269, -1, !dbg !3681
  br label %273, !dbg !3682

271:                                              ; preds = %256
  call void @llvm.dbg.value(metadata i64 %248, metadata !3308, metadata !DIExpression()), !dbg !3683
  call void @llvm.dbg.value(metadata i32 1000000000, metadata !3309, metadata !DIExpression()), !dbg !3683
  call void @llvm.dbg.value(metadata i64 %248, metadata !3303, metadata !DIExpression()), !dbg !3685
  call void @llvm.dbg.value(metadata i32 1000000000, metadata !3304, metadata !DIExpression()), !dbg !3685
  %272 = udiv i64 %248, 1000000000, !dbg !3687
  br label %273, !dbg !3688

273:                                              ; preds = %267, %271
  %274 = phi i64 [ %270, %267 ], [ %272, %271 ]
  %275 = trunc i64 %274 to i32, !dbg !3689
  %276 = trunc i64 %248 to i32, !dbg !3690
  %277 = mul i32 %275, -1000000000, !dbg !3690
  %278 = add i32 %277, %276, !dbg !3690
  call void @llvm.dbg.value(metadata i32 %278, metadata !3336, metadata !DIExpression()), !dbg !3691
  %279 = udiv i32 %278, 1000, !dbg !3693
  %280 = add i32 %266, %260, !dbg !3694
  %281 = sub i32 %280, %279, !dbg !3695
  %282 = icmp sgt i32 %281, 5000000, !dbg !3696
  br i1 %282, label %283, label %296, !dbg !3697

283:                                              ; preds = %273
  call void @llvm.dbg.value(metadata %class.WebGen* %0, metadata !3122, metadata !DIExpression()), !dbg !3698
  %284 = bitcast %class.Timestamp* %3 to i8*, !dbg !3699
  call void @llvm.lifetime.start.p0i8(i64 8, i8* nonnull %284), !dbg !3699
  call void @_ZN9Timestamp10assign_nowEv(%class.Timestamp* nonnull %3), !dbg !3699
  %285 = getelementptr inbounds %class.Timestamp, %class.Timestamp* %3, i64 0, i32 0, i32 0, !dbg !3700
  %286 = load i64, i64* %285, align 8, !dbg !3700
  call void @llvm.lifetime.end.p0i8(i64 8, i8* nonnull %284), !dbg !3700
  call void @llvm.dbg.value(metadata i64 %286, metadata !3123, metadata !DIExpression()), !dbg !3698
  %287 = getelementptr inbounds %class.WebGen, %class.WebGen* %0, i64 0, i32 13, !dbg !3701
  %288 = getelementptr inbounds %struct.anon, %struct.anon* %287, i64 0, i32 0, !dbg !3702
  %289 = load i32, i32* %288, align 8, !dbg !3702, !tbaa !3153
  %290 = getelementptr inbounds %class.WebGen, %class.WebGen* %0, i64 0, i32 13, i32 1, !dbg !3703
  %291 = load i32, i32* %290, align 4, !dbg !3703, !tbaa !3155
  %292 = load i32, i32* %147, align 4, !dbg !3704, !tbaa !3157
  %293 = getelementptr inbounds %class.WebGen, %class.WebGen* %0, i64 0, i32 13, i32 2, !dbg !3705
  %294 = load i32, i32* %293, align 8, !dbg !3705, !tbaa !3159
  call void (i8*, ...) @click_chatter(i8* getelementptr inbounds ([41 x i8], [41 x i8]* @.str.6, i64 0, i64 0), i32 %289, i32 %291, i32 %292, i32 %294), !dbg !3706
  store i64 %286, i64* %247, align 8, !dbg !3707, !tbaa.struct !3037
  %295 = bitcast %struct.anon* %287 to i8*, !dbg !3708
  call void @llvm.memset.p0i8.i64(i8* nonnull align 8 dereferenceable(16) %295, i8 0, i64 16, i1 false), !dbg !3708
  br label %296, !dbg !3709

296:                                              ; preds = %283, %273
  %297 = getelementptr inbounds %class.WebGen, %class.WebGen* %0, i64 0, i32 1, !dbg !3710
  call void @llvm.dbg.value(metadata %class.Timer* %297, metadata !3711, metadata !DIExpression()), !dbg !3715
  call void @llvm.dbg.value(metadata i32 1, metadata !3714, metadata !DIExpression()), !dbg !3715
  %298 = bitcast %class.Timestamp* %4 to i8*, !dbg !3717
  call void @llvm.lifetime.start.p0i8(i64 8, i8* nonnull %298) #18, !dbg !3717
  %299 = getelementptr inbounds %class.Timestamp, %class.Timestamp* %4, i64 0, i32 0, i32 0, !dbg !3717
  store i64 1000000, i64* %299, align 8, !dbg !3717
  call void @_ZN5Timer14schedule_afterERK9Timestamp(%class.Timer* nonnull %297, %class.Timestamp* nonnull dereferenceable(8) %4), !dbg !3718
  call void @llvm.lifetime.end.p0i8(i64 8, i8* nonnull %298) #18, !dbg !3718
  ret void, !dbg !3719
}

; Function Attrs: sspstrong uwtable
define dso_local void @_ZN6WebGen2CB5resetE9IPAddress(%"class.WebGen::CB"* nocapture %0, i32 %1) local_unnamed_addr #0 align 2 !dbg !3431 {
  call void @llvm.dbg.value(metadata i32 %1, metadata !3430, metadata !DIExpression()), !dbg !3720
  call void @llvm.dbg.value(metadata %"class.WebGen::CB"* %0, metadata !3433, metadata !DIExpression()), !dbg !3720
  %3 = getelementptr inbounds %"class.WebGen::CB", %"class.WebGen::CB"* %0, i64 0, i32 0, i32 0, !dbg !3721
  store i32 %1, i32* %3, align 8, !dbg !3721, !tbaa.struct !3440
  %4 = getelementptr inbounds %"class.WebGen::CB", %"class.WebGen::CB"* %0, i64 0, i32 2, !dbg !3722
  store i16 20480, i16* %4, align 2, !dbg !3723, !tbaa !3443
  %5 = tail call i64 @random() #18, !dbg !3724
  %6 = trunc i64 %5 to i32, !dbg !3724
  %7 = and i32 %6, 268435455, !dbg !3726
  %8 = getelementptr inbounds %"class.WebGen::CB", %"class.WebGen::CB"* %0, i64 0, i32 3, !dbg !3727
  store i32 %7, i32* %8, align 8, !dbg !3728, !tbaa !3449
  %9 = getelementptr inbounds %"class.WebGen::CB", %"class.WebGen::CB"* %0, i64 0, i32 6, !dbg !3729
  store i32 0, i32* %9, align 4, !dbg !3730, !tbaa !3452
  %10 = getelementptr inbounds %"class.WebGen::CB", %"class.WebGen::CB"* %0, i64 0, i32 5, !dbg !3731
  store i32 %7, i32* %10, align 8, !dbg !3732, !tbaa !3455
  %11 = getelementptr inbounds %"class.WebGen::CB", %"class.WebGen::CB"* %0, i64 0, i32 4, !dbg !3733
  store i32 %7, i32* %11, align 4, !dbg !3734, !tbaa !3458
  %12 = tail call i64 @random() #18, !dbg !3735
  %13 = trunc i64 %12 to i32, !dbg !3735
  %14 = urem i32 %13, 60000, !dbg !3737
  %15 = trunc i32 %14 to i16, !dbg !3737
  %16 = add nuw i16 %15, 1024, !dbg !3737
  %17 = tail call i16 @llvm.bswap.i16(i16 %16) #18
  %18 = getelementptr inbounds %"class.WebGen::CB", %"class.WebGen::CB"* %0, i64 0, i32 1, !dbg !3738
  store i16 %17, i16* %18, align 4, !dbg !3739, !tbaa !3464
  %19 = getelementptr inbounds %"class.WebGen::CB", %"class.WebGen::CB"* %0, i64 0, i32 8, !dbg !3740
  %20 = load i8, i8* %19, align 4, !dbg !3741
  %21 = and i8 %20, -32, !dbg !3742
  store i8 %21, i8* %19, align 4, !dbg !3742
  %22 = getelementptr inbounds %"class.WebGen::CB", %"class.WebGen::CB"* %0, i64 0, i32 9, !dbg !3743
  store i8 0, i8* %22, align 1, !dbg !3744, !tbaa !3470
  %23 = tail call i32 @_Z12click_randomjj(i32 0, i32 9), !dbg !3745
  call void @llvm.dbg.value(metadata i32 %23, metadata !3434, metadata !DIExpression()), !dbg !3720
  %24 = tail call i32 @_Z12click_randomjj(i32 0, i32 8), !dbg !3746
  call void @llvm.dbg.value(metadata i32 %24, metadata !3435, metadata !DIExpression()), !dbg !3720
  %25 = tail call i32 @_Z12click_randomjj(i32 0, i32 2), !dbg !3747
  call void @llvm.dbg.value(metadata i32 %25, metadata !3436, metadata !DIExpression()), !dbg !3720
  %26 = getelementptr inbounds %"class.WebGen::CB", %"class.WebGen::CB"* %0, i64 0, i32 11, i64 0, !dbg !3748
  %27 = tail call i32 (i8*, i8*, ...) @sprintf(i8* nonnull %26, i8* nonnull dereferenceable(1) getelementptr inbounds ([35 x i8], [35 x i8]* @.str.8, i64 0, i64 0), i32 %23, i32 %23, i32 %25, i32 %24) #18, !dbg !3749
  %28 = tail call i64 @strlen(i8* nonnull %26) #22, !dbg !3750
  %29 = trunc i64 %28 to i32, !dbg !3750
  %30 = getelementptr inbounds %"class.WebGen::CB", %"class.WebGen::CB"* %0, i64 0, i32 12, !dbg !3751
  store i32 %29, i32* %30, align 8, !dbg !3752, !tbaa !3479
  ret void, !dbg !3753
}

; Function Attrs: sspstrong uwtable
define dso_local void @_ZN6WebGen8tcp_sendEPNS_2CBEP6Packet(%class.WebGen* %0, %"class.WebGen::CB"* %1, %class.Packet* %2) local_unnamed_addr #0 align 2 !dbg !3754 {
  call void @llvm.dbg.value(metadata %class.WebGen* %0, metadata !3756, metadata !DIExpression()), !dbg !3765
  call void @llvm.dbg.value(metadata %"class.WebGen::CB"* %1, metadata !3757, metadata !DIExpression()), !dbg !3765
  call void @llvm.dbg.value(metadata %class.Packet* %2, metadata !3758, metadata !DIExpression()), !dbg !3765
  call void @llvm.dbg.value(metadata %class.WritablePacket* null, metadata !3762, metadata !DIExpression()), !dbg !3765
  %4 = getelementptr inbounds %"class.WebGen::CB", %"class.WebGen::CB"* %1, i64 0, i32 8, !dbg !3766
  %5 = load i8, i8* %4, align 4, !dbg !3766
  %6 = and i8 %5, 1, !dbg !3766
  %7 = icmp eq i8 %6, 0, !dbg !3768
  br i1 %7, label %22, label %8, !dbg !3769

8:                                                ; preds = %3
  %9 = getelementptr inbounds %"class.WebGen::CB", %"class.WebGen::CB"* %1, i64 0, i32 4, !dbg !3770
  %10 = load i32, i32* %9, align 4, !dbg !3770, !tbaa !3458
  %11 = getelementptr inbounds %"class.WebGen::CB", %"class.WebGen::CB"* %1, i64 0, i32 3, !dbg !3771
  %12 = load i32, i32* %11, align 8, !dbg !3771, !tbaa !3449
  %13 = xor i32 %12, -1, !dbg !3772
  %14 = add i32 %10, %13, !dbg !3772
  %15 = getelementptr inbounds %"class.WebGen::CB", %"class.WebGen::CB"* %1, i64 0, i32 12, !dbg !3773
  %16 = load i32, i32* %15, align 8, !dbg !3773, !tbaa !3479
  %17 = icmp ult i32 %14, %16, !dbg !3774
  br i1 %17, label %18, label %22, !dbg !3775

18:                                               ; preds = %8
  call void @llvm.dbg.value(metadata i32 %16, metadata !3759, metadata !DIExpression()), !dbg !3765
  %19 = add i32 %12, 1, !dbg !3776
  call void @llvm.dbg.value(metadata i32 %19, metadata !3761, metadata !DIExpression()), !dbg !3765
  %20 = add i32 %19, %16, !dbg !3778
  %21 = getelementptr inbounds %"class.WebGen::CB", %"class.WebGen::CB"* %1, i64 0, i32 5, !dbg !3779
  store i32 %20, i32* %21, align 8, !dbg !3780, !tbaa !3455
  br label %29, !dbg !3781

22:                                               ; preds = %3, %8
  call void @llvm.dbg.value(metadata i32 0, metadata !3759, metadata !DIExpression()), !dbg !3765
  %23 = getelementptr inbounds %"class.WebGen::CB", %"class.WebGen::CB"* %1, i64 0, i32 5, !dbg !3782
  %24 = load i32, i32* %23, align 8, !dbg !3782, !tbaa !3455
  %25 = lshr i8 %5, 2, !dbg !3784
  %26 = and i8 %25, 1, !dbg !3784
  %27 = zext i8 %26 to i32, !dbg !3785
  %28 = add i32 %24, %27, !dbg !3786
  call void @llvm.dbg.value(metadata i32 %28, metadata !3761, metadata !DIExpression()), !dbg !3765
  br label %29

29:                                               ; preds = %22, %18
  %30 = phi i32 [ %19, %18 ], [ %28, %22 ], !dbg !3787
  %31 = phi i32 [ %16, %18 ], [ 0, %22 ], !dbg !3787
  call void @llvm.dbg.value(metadata i32 %31, metadata !3759, metadata !DIExpression()), !dbg !3765
  call void @llvm.dbg.value(metadata i32 %30, metadata !3761, metadata !DIExpression()), !dbg !3765
  %32 = add i32 %31, 40, !dbg !3788
  call void @llvm.dbg.value(metadata i32 %32, metadata !3760, metadata !DIExpression()), !dbg !3765
  %33 = getelementptr inbounds %class.WebGen, %class.WebGen* %0, i64 0, i32 9, !dbg !3789
  %34 = load %"class.WebGen::CB"*, %"class.WebGen::CB"** %33, align 8, !dbg !3789, !tbaa !3078
  call void @llvm.dbg.value(metadata %"class.WebGen::CB"* %1, metadata !3790, metadata !DIExpression()), !dbg !3794
  call void @llvm.dbg.value(metadata %"class.WebGen::CB"* %34, metadata !3793, metadata !DIExpression()), !dbg !3794
  %35 = getelementptr inbounds %"class.WebGen::CB", %"class.WebGen::CB"* %1, i64 0, i32 10, !dbg !3796
  tail call void @_ZN9Timestamp10assign_nowEv(%class.Timestamp* nonnull %35), !dbg !3797
  call void @llvm.dbg.value(metadata %"class.WebGen::CB"* %1, metadata !3184, metadata !DIExpression()) #18, !dbg !3798
  %36 = getelementptr inbounds %"class.WebGen::CB", %"class.WebGen::CB"* %1, i64 0, i32 15, !dbg !3800
  %37 = load %"class.WebGen::CB"*, %"class.WebGen::CB"** %36, align 8, !dbg !3800, !tbaa !3088
  %38 = icmp eq %"class.WebGen::CB"* %37, null, !dbg !3800
  %39 = ptrtoint %"class.WebGen::CB"* %37 to i64, !dbg !3801
  br i1 %38, label %46, label %40, !dbg !3801

40:                                               ; preds = %29
  %41 = getelementptr inbounds %"class.WebGen::CB", %"class.WebGen::CB"* %1, i64 0, i32 16, !dbg !3802
  %42 = bitcast %"class.WebGen::CB"** %41 to i64*, !dbg !3802
  %43 = load i64, i64* %42, align 8, !dbg !3802, !tbaa !3091
  %44 = getelementptr inbounds %"class.WebGen::CB", %"class.WebGen::CB"* %37, i64 0, i32 16, !dbg !3803
  %45 = bitcast %"class.WebGen::CB"** %44 to i64*, !dbg !3804
  store i64 %43, i64* %45, align 8, !dbg !3804, !tbaa !3091
  br label %46, !dbg !3805

46:                                               ; preds = %40, %29
  %47 = getelementptr inbounds %"class.WebGen::CB", %"class.WebGen::CB"* %1, i64 0, i32 16, !dbg !3806
  %48 = load %"class.WebGen::CB"*, %"class.WebGen::CB"** %47, align 8, !dbg !3806, !tbaa !3091
  %49 = icmp eq %"class.WebGen::CB"* %48, null, !dbg !3806
  br i1 %49, label %53, label %50, !dbg !3807

50:                                               ; preds = %46
  %51 = getelementptr inbounds %"class.WebGen::CB", %"class.WebGen::CB"* %48, i64 0, i32 15, !dbg !3808
  %52 = bitcast %"class.WebGen::CB"** %51 to i64*, !dbg !3809
  store i64 %39, i64* %52, align 8, !dbg !3809, !tbaa !3088
  br label %53, !dbg !3810

53:                                               ; preds = %46, %50
  %54 = getelementptr inbounds %"class.WebGen::CB"*, %"class.WebGen::CB"** %36, i64 1, !dbg !3811
  %55 = bitcast %"class.WebGen::CB"** %54 to i64*, !dbg !3811
  store i64 0, i64* %55, align 8, !dbg !3811
  store %"class.WebGen::CB"* %34, %"class.WebGen::CB"** %36, align 8, !dbg !3812, !tbaa !3088
  %56 = getelementptr inbounds %"class.WebGen::CB", %"class.WebGen::CB"* %34, i64 0, i32 16, !dbg !3813
  %57 = load %"class.WebGen::CB"*, %"class.WebGen::CB"** %56, align 8, !dbg !3813, !tbaa !3091
  store %"class.WebGen::CB"* %57, %"class.WebGen::CB"** %47, align 8, !dbg !3814, !tbaa !3091
  %58 = getelementptr inbounds %"class.WebGen::CB", %"class.WebGen::CB"* %57, i64 0, i32 15, !dbg !3815
  store %"class.WebGen::CB"* %1, %"class.WebGen::CB"** %58, align 8, !dbg !3816, !tbaa !3088
  %59 = load %"class.WebGen::CB"*, %"class.WebGen::CB"** %36, align 8, !dbg !3817, !tbaa !3088
  %60 = getelementptr inbounds %"class.WebGen::CB", %"class.WebGen::CB"* %59, i64 0, i32 16, !dbg !3818
  store %"class.WebGen::CB"* %1, %"class.WebGen::CB"** %60, align 8, !dbg !3819, !tbaa !3091
  %61 = load i8, i8* %4, align 4, !dbg !3820
  %62 = and i8 %61, 1, !dbg !3820
  %63 = icmp eq i8 %62, 0, !dbg !3822
  br i1 %63, label %72, label %64, !dbg !3823

64:                                               ; preds = %53
  %65 = and i8 %61, 16, !dbg !3824
  %66 = icmp eq i8 %65, 0, !dbg !3825
  %67 = icmp eq i32 %31, 0, !dbg !3826
  %68 = and i1 %67, %66, !dbg !3827
  br i1 %68, label %69, label %72, !dbg !3827

69:                                               ; preds = %64
  %70 = icmp eq %class.Packet* %2, null, !dbg !3828
  br i1 %70, label %113, label %71, !dbg !3831

71:                                               ; preds = %69
  tail call void @_ZN6Packet4killEv(%class.Packet* nonnull %2), !dbg !3832
  br label %113, !dbg !3833

72:                                               ; preds = %53, %64
  %73 = and i8 %61, -17, !dbg !3834
  store i8 %73, i8* %4, align 4, !dbg !3834
  %74 = tail call %class.WritablePacket* @_ZN6WebGen12fixup_packetEP6Packetj(%class.WebGen* undef, %class.Packet* %2, i32 %32), !dbg !3835
  call void @llvm.dbg.value(metadata %class.WritablePacket* %74, metadata !3762, metadata !DIExpression()), !dbg !3765
  call void @llvm.dbg.value(metadata i8 0, metadata !3763, metadata !DIExpression()), !dbg !3765
  call void @llvm.dbg.value(metadata i32 0, metadata !3764, metadata !DIExpression()), !dbg !3765
  %75 = load i8, i8* %4, align 4, !dbg !3836
  %76 = and i8 %75, 1, !dbg !3836
  %77 = icmp eq i8 %76, 0, !dbg !3838
  br i1 %77, label %90, label %78, !dbg !3839

78:                                               ; preds = %72
  call void @llvm.dbg.value(metadata i8 16, metadata !3763, metadata !DIExpression()), !dbg !3765
  %79 = icmp eq i32 %31, 0, !dbg !3840
  %80 = select i1 %79, i8 16, i8 25, !dbg !3843
  call void @llvm.dbg.value(metadata i8 %80, metadata !3763, metadata !DIExpression()), !dbg !3765
  %81 = lshr i8 %75, 1, !dbg !3844
  %82 = and i8 %81, 1, !dbg !3844
  %83 = or i8 %82, %80, !dbg !3844
  call void @llvm.dbg.value(metadata i8 %83, metadata !3763, metadata !DIExpression()), !dbg !3765
  %84 = getelementptr inbounds %"class.WebGen::CB", %"class.WebGen::CB"* %1, i64 0, i32 7, !dbg !3845
  %85 = load i32, i32* %84, align 8, !dbg !3845, !tbaa !3846
  call void @llvm.dbg.value(metadata i32 %85, metadata !3764, metadata !DIExpression()), !dbg !3765
  call void @llvm.dbg.value(metadata i32 %85, metadata !3764, metadata !DIExpression()), !dbg !3765
  call void @llvm.dbg.value(metadata i8 %83, metadata !3763, metadata !DIExpression()), !dbg !3765
  %86 = and i8 %83, 1, !dbg !3847
  %87 = icmp eq i8 %86, 0, !dbg !3849
  br i1 %87, label %90, label %88, !dbg !3850

88:                                               ; preds = %78
  %89 = or i8 %75, 4, !dbg !3851
  store i8 %89, i8* %4, align 4, !dbg !3851
  br label %90, !dbg !3852

90:                                               ; preds = %72, %78, %88
  %91 = phi i8 [ %75, %78 ], [ %89, %88 ], [ %75, %72 ], !dbg !3853
  %92 = phi i32 [ %85, %78 ], [ %85, %88 ], [ 0, %72 ]
  %93 = phi i8 [ %83, %78 ], [ %83, %88 ], [ 2, %72 ]
  %94 = and i8 %91, 6, !dbg !3855
  %95 = icmp eq i8 %94, 6, !dbg !3855
  br i1 %95, label %96, label %101, !dbg !3855

96:                                               ; preds = %90
  %97 = or i8 %91, 8, !dbg !3856
  store i8 %97, i8* %4, align 4, !dbg !3856
  %98 = getelementptr inbounds %class.WebGen, %class.WebGen* %0, i64 0, i32 13, i32 1, !dbg !3858
  %99 = load i32, i32* %98, align 4, !dbg !3859, !tbaa !3155
  %100 = add nsw i32 %99, 1, !dbg !3859
  store i32 %100, i32* %98, align 4, !dbg !3859, !tbaa !3155
  br label %101, !dbg !3860

101:                                              ; preds = %90, %96
  %102 = getelementptr inbounds %"class.WebGen::CB", %"class.WebGen::CB"* %1, i64 0, i32 0, i32 0, !dbg !3861
  %103 = load i32, i32* %102, align 8, !dbg !3861, !tbaa.struct !3440
  %104 = getelementptr inbounds %"class.WebGen::CB", %"class.WebGen::CB"* %1, i64 0, i32 1, !dbg !3862
  %105 = load i16, i16* %104, align 4, !dbg !3862, !tbaa !3464
  %106 = getelementptr inbounds %class.WebGen, %class.WebGen* %0, i64 0, i32 4, i32 0, !dbg !3863
  %107 = load i32, i32* %106, align 8, !dbg !3863, !tbaa.struct !3440
  %108 = getelementptr inbounds %"class.WebGen::CB", %"class.WebGen::CB"* %1, i64 0, i32 2, !dbg !3864
  %109 = load i16, i16* %108, align 2, !dbg !3864, !tbaa !3443
  call void @llvm.dbg.value(metadata i32 %30, metadata !3865, metadata !DIExpression()) #18, !dbg !3871
  %110 = tail call i32 @llvm.bswap.i32(i32 %30) #18, !dbg !3873
  call void @llvm.dbg.value(metadata i32 %85, metadata !3865, metadata !DIExpression()) #18, !dbg !3874
  %111 = tail call i32 @llvm.bswap.i32(i32 %92) #18, !dbg !3876
  %112 = getelementptr inbounds %"class.WebGen::CB", %"class.WebGen::CB"* %1, i64 0, i32 11, i64 0, !dbg !3877
  tail call void @_ZN6WebGen10tcp_outputEP14WritablePacket9IPAddresstS2_tiicPci(%class.WebGen* nonnull %0, %class.WritablePacket* %74, i32 %103, i16 zeroext %105, i32 %107, i16 zeroext %109, i32 %110, i32 %111, i8 signext %93, i8* nonnull %112, i32 %31), !dbg !3878
  br label %113, !dbg !3879

113:                                              ; preds = %71, %69, %101
  ret void, !dbg !3879
}

; Function Attrs: norecurse nounwind readonly sspstrong uwtable
define dso_local %"class.WebGen::CB"* @_ZN6WebGen7find_cbEjtt(%class.WebGen* nocapture readonly %0, i32 %1, i16 zeroext %2, i16 zeroext %3) local_unnamed_addr #10 align 2 !dbg !3880 {
  call void @llvm.dbg.value(metadata %class.WebGen* %0, metadata !3882, metadata !DIExpression()), !dbg !3888
  call void @llvm.dbg.value(metadata i32 %1, metadata !3883, metadata !DIExpression()), !dbg !3888
  call void @llvm.dbg.value(metadata i16 %2, metadata !3884, metadata !DIExpression()), !dbg !3888
  call void @llvm.dbg.value(metadata i16 %3, metadata !3885, metadata !DIExpression()), !dbg !3888
  call void @llvm.dbg.value(metadata %class.WebGen* undef, metadata !2931, metadata !DIExpression()), !dbg !3889
  call void @llvm.dbg.value(metadata i32 %1, metadata !2932, metadata !DIExpression()), !dbg !3889
  call void @llvm.dbg.value(metadata i16 %2, metadata !2933, metadata !DIExpression()), !dbg !3889
  %5 = zext i16 %2 to i32, !dbg !3891
  %6 = xor i32 %5, %1, !dbg !3892
  %7 = and i32 %6, 1023, !dbg !3893
  call void @llvm.dbg.value(metadata i32 %7, metadata !3886, metadata !DIExpression()), !dbg !3888
  %8 = zext i32 %7 to i64, !dbg !3894
  %9 = getelementptr inbounds %class.WebGen, %class.WebGen* %0, i64 0, i32 6, i64 %8, !dbg !3894
  call void @llvm.dbg.value(metadata %"class.WebGen::CB"* undef, metadata !3887, metadata !DIExpression()), !dbg !3888
  %10 = load %"class.WebGen::CB"*, %"class.WebGen::CB"** %9, align 8, !dbg !3888, !tbaa !3020
  call void @llvm.dbg.value(metadata %"class.WebGen::CB"* %10, metadata !3887, metadata !DIExpression()), !dbg !3888
  %11 = icmp eq %"class.WebGen::CB"* %10, null, !dbg !3895
  br i1 %11, label %29, label %12, !dbg !3896

12:                                               ; preds = %4, %25
  %13 = phi %"class.WebGen::CB"* [ %27, %25 ], [ %10, %4 ]
  %14 = getelementptr inbounds %"class.WebGen::CB", %"class.WebGen::CB"* %13, i64 0, i32 1, !dbg !3897
  %15 = load i16, i16* %14, align 4, !dbg !3897, !tbaa !3464
  %16 = icmp eq i16 %15, %2, !dbg !3900
  br i1 %16, label %17, label %25, !dbg !3901

17:                                               ; preds = %12
  %18 = getelementptr inbounds %"class.WebGen::CB", %"class.WebGen::CB"* %13, i64 0, i32 2, !dbg !3902
  %19 = load i16, i16* %18, align 2, !dbg !3902, !tbaa !3443
  %20 = icmp eq i16 %19, %3, !dbg !3903
  br i1 %20, label %21, label %25, !dbg !3904

21:                                               ; preds = %17
  call void @llvm.dbg.value(metadata %"class.WebGen::CB"* %13, metadata !2909, metadata !DIExpression()), !dbg !3905
  %22 = getelementptr inbounds %"class.WebGen::CB", %"class.WebGen::CB"* %13, i64 0, i32 0, i32 0, !dbg !3907
  %23 = load i32, i32* %22, align 4, !dbg !3907, !tbaa !2722
  %24 = icmp eq i32 %23, %1, !dbg !3908
  br i1 %24, label %29, label %25, !dbg !3909

25:                                               ; preds = %21, %17, %12
  %26 = getelementptr inbounds %"class.WebGen::CB", %"class.WebGen::CB"* %13, i64 0, i32 13, !dbg !3910
  call void @llvm.dbg.value(metadata %"class.WebGen::CB"* undef, metadata !3887, metadata !DIExpression()), !dbg !3888
  %27 = load %"class.WebGen::CB"*, %"class.WebGen::CB"** %26, align 8, !dbg !3888, !tbaa !3020
  call void @llvm.dbg.value(metadata %"class.WebGen::CB"* %27, metadata !3887, metadata !DIExpression()), !dbg !3888
  %28 = icmp eq %"class.WebGen::CB"* %27, null, !dbg !3895
  br i1 %28, label %29, label %12, !dbg !3896, !llvm.loop !3911

29:                                               ; preds = %21, %25, %4
  %30 = phi %"class.WebGen::CB"* [ null, %4 ], [ null, %25 ], [ %13, %21 ], !dbg !3888
  ret %"class.WebGen::CB"* %30, !dbg !3913
}

; Function Attrs: sspstrong uwtable
define dso_local noalias %class.Packet* @_ZN6WebGen13simple_actionEP6Packet(%class.WebGen* %0, %class.Packet* %1) unnamed_addr #0 align 2 !dbg !3914 {
  call void @llvm.dbg.value(metadata %class.WebGen* %0, metadata !3916, metadata !DIExpression()), !dbg !3918
  call void @llvm.dbg.value(metadata %class.Packet* %1, metadata !3917, metadata !DIExpression()), !dbg !3918
  tail call void @_ZN6WebGen9tcp_inputEP6Packet(%class.WebGen* %0, %class.Packet* %1), !dbg !3919
  ret %class.Packet* null, !dbg !3920
}

; Function Attrs: sspstrong uwtable
define dso_local void @_ZN6WebGen9tcp_inputEP6Packet(%class.WebGen* %0, %class.Packet* %1) local_unnamed_addr #0 align 2 !dbg !3921 {
  call void @llvm.dbg.value(metadata %class.WebGen* %0, metadata !3923, metadata !DIExpression()), !dbg !3939
  call void @llvm.dbg.value(metadata %class.Packet* %1, metadata !3924, metadata !DIExpression()), !dbg !3939
  %3 = tail call i32 @_ZNK6Packet6lengthEv(%class.Packet* %1), !dbg !3940
  call void @llvm.dbg.value(metadata i32 %3, metadata !3927, metadata !DIExpression()), !dbg !3939
  %4 = icmp ult i32 %3, 40, !dbg !3941
  br i1 %4, label %245, label %5, !dbg !3943

5:                                                ; preds = %2
  %6 = tail call i8* @_ZNK6Packet4dataEv(%class.Packet* %1), !dbg !3944
  call void @llvm.dbg.value(metadata i8* %6, metadata !3928, metadata !DIExpression()), !dbg !3939
  %7 = getelementptr inbounds i8, i8* %6, i64 2, !dbg !3945
  %8 = bitcast i8* %7 to i16*, !dbg !3945
  %9 = load i16, i16* %8, align 2, !dbg !3945, !tbaa !3946
  %10 = tail call i16 @llvm.bswap.i16(i16 %9) #18
  %11 = zext i16 %10 to i32, !dbg !3945
  call void @llvm.dbg.value(metadata i32 %11, metadata !3929, metadata !DIExpression()), !dbg !3939
  %12 = load i8, i8* %6, align 4, !dbg !3949
  %13 = shl i8 %12, 2, !dbg !3950
  %14 = and i8 %13, 60, !dbg !3950
  %15 = zext i8 %14 to i32, !dbg !3950
  call void @llvm.dbg.value(metadata i32 %15, metadata !3930, metadata !DIExpression()), !dbg !3939
  %16 = icmp ult i8 %14, 20, !dbg !3951
  %17 = icmp ult i32 %11, %15, !dbg !3953
  %18 = or i1 %16, %17, !dbg !3954
  %19 = icmp ult i32 %3, %11, !dbg !3955
  %20 = or i1 %19, %18, !dbg !3954
  br i1 %20, label %21, label %22, !dbg !3954

21:                                               ; preds = %5
  tail call void @_ZN6Packet4killEv(%class.Packet* %1), !dbg !3956
  br label %245, !dbg !3958

22:                                               ; preds = %5
  %23 = zext i8 %14 to i64, !dbg !3959
  %24 = getelementptr inbounds i8, i8* %6, i64 %23, !dbg !3960
  call void @llvm.dbg.value(metadata i8* %24, metadata !3931, metadata !DIExpression()), !dbg !3939
  %25 = getelementptr inbounds i8, i8* %24, i64 12, !dbg !3961
  %26 = load i8, i8* %25, align 4, !dbg !3961
  %27 = lshr i8 %26, 4, !dbg !3961
  %28 = shl nuw nsw i8 %27, 2, !dbg !3962
  %29 = zext i8 %28 to i32, !dbg !3962
  call void @llvm.dbg.value(metadata i32 %29, metadata !3932, metadata !DIExpression()), !dbg !3939
  %30 = sub nsw i32 %11, %15, !dbg !3963
  %31 = sub nsw i32 %30, %29, !dbg !3964
  call void @llvm.dbg.value(metadata i32 %31, metadata !3933, metadata !DIExpression()), !dbg !3939
  %32 = getelementptr inbounds i8, i8* %6, i64 16, !dbg !3965
  %33 = bitcast i8* %32 to i32*, !dbg !3966
  %34 = load i32, i32* %33, align 4, !dbg !3966, !tbaa !3967
  %35 = getelementptr inbounds i8, i8* %24, i64 2, !dbg !3968
  %36 = bitcast i8* %35 to i16*, !dbg !3968
  %37 = load i16, i16* %36, align 2, !dbg !3968, !tbaa !3969
  %38 = bitcast i8* %24 to i16*, !dbg !3971
  %39 = load i16, i16* %38, align 4, !dbg !3971, !tbaa !3972
  call void @llvm.dbg.value(metadata %class.WebGen* %0, metadata !3882, metadata !DIExpression()), !dbg !3973
  call void @llvm.dbg.value(metadata i32 %34, metadata !3883, metadata !DIExpression()), !dbg !3973
  call void @llvm.dbg.value(metadata i16 %37, metadata !3884, metadata !DIExpression()), !dbg !3973
  call void @llvm.dbg.value(metadata i16 %39, metadata !3885, metadata !DIExpression()), !dbg !3973
  call void @llvm.dbg.value(metadata %class.WebGen* undef, metadata !2931, metadata !DIExpression()), !dbg !3975
  call void @llvm.dbg.value(metadata i32 %34, metadata !2932, metadata !DIExpression()), !dbg !3975
  call void @llvm.dbg.value(metadata i16 %37, metadata !2933, metadata !DIExpression()), !dbg !3975
  %40 = zext i16 %37 to i32, !dbg !3977
  %41 = xor i32 %34, %40, !dbg !3978
  %42 = and i32 %41, 1023, !dbg !3979
  call void @llvm.dbg.value(metadata i32 %42, metadata !3886, metadata !DIExpression()), !dbg !3973
  %43 = zext i32 %42 to i64, !dbg !3980
  %44 = getelementptr inbounds %class.WebGen, %class.WebGen* %0, i64 0, i32 6, i64 %43, !dbg !3980
  call void @llvm.dbg.value(metadata %"class.WebGen::CB"* undef, metadata !3887, metadata !DIExpression()), !dbg !3973
  %45 = load %"class.WebGen::CB"*, %"class.WebGen::CB"** %44, align 8, !dbg !3973, !tbaa !3020
  call void @llvm.dbg.value(metadata %"class.WebGen::CB"* %45, metadata !3887, metadata !DIExpression()), !dbg !3973
  %46 = icmp eq %"class.WebGen::CB"* %45, null, !dbg !3981
  br i1 %46, label %64, label %47, !dbg !3982

47:                                               ; preds = %22, %60
  %48 = phi %"class.WebGen::CB"* [ %62, %60 ], [ %45, %22 ]
  %49 = getelementptr inbounds %"class.WebGen::CB", %"class.WebGen::CB"* %48, i64 0, i32 1, !dbg !3983
  %50 = load i16, i16* %49, align 4, !dbg !3983, !tbaa !3464
  %51 = icmp eq i16 %50, %37, !dbg !3984
  br i1 %51, label %52, label %60, !dbg !3985

52:                                               ; preds = %47
  %53 = getelementptr inbounds %"class.WebGen::CB", %"class.WebGen::CB"* %48, i64 0, i32 2, !dbg !3986
  %54 = load i16, i16* %53, align 2, !dbg !3986, !tbaa !3443
  %55 = icmp eq i16 %54, %39, !dbg !3987
  br i1 %55, label %56, label %60, !dbg !3988

56:                                               ; preds = %52
  call void @llvm.dbg.value(metadata %"class.WebGen::CB"* %48, metadata !2909, metadata !DIExpression()), !dbg !3989
  %57 = getelementptr inbounds %"class.WebGen::CB", %"class.WebGen::CB"* %48, i64 0, i32 0, i32 0, !dbg !3991
  %58 = load i32, i32* %57, align 4, !dbg !3991, !tbaa !2722
  %59 = icmp eq i32 %58, %34, !dbg !3992
  br i1 %59, label %78, label %60, !dbg !3993

60:                                               ; preds = %56, %52, %47
  %61 = getelementptr inbounds %"class.WebGen::CB", %"class.WebGen::CB"* %48, i64 0, i32 13, !dbg !3994
  call void @llvm.dbg.value(metadata %"class.WebGen::CB"* undef, metadata !3887, metadata !DIExpression()), !dbg !3973
  %62 = load %"class.WebGen::CB"*, %"class.WebGen::CB"** %61, align 8, !dbg !3973, !tbaa !3020
  call void @llvm.dbg.value(metadata %"class.WebGen::CB"* %62, metadata !3887, metadata !DIExpression()), !dbg !3973
  %63 = icmp eq %"class.WebGen::CB"* %62, null, !dbg !3981
  br i1 %63, label %64, label %47, !dbg !3982, !llvm.loop !3995

64:                                               ; preds = %60, %22
  call void @llvm.dbg.value(metadata %"class.WebGen::CB"* %48, metadata !3934, metadata !DIExpression()), !dbg !3939
  call void @llvm.dbg.value(metadata i8* %24, metadata !3931, metadata !DIExpression()), !dbg !3939
  call void @llvm.dbg.value(metadata i32 40, metadata !3935, metadata !DIExpression()), !dbg !3997
  %65 = tail call %class.WritablePacket* @_ZN6WebGen12fixup_packetEP6Packetj(%class.WebGen* undef, %class.Packet* %1, i32 40), !dbg !3998
  call void @llvm.dbg.value(metadata %class.WritablePacket* %65, metadata !3938, metadata !DIExpression()), !dbg !3997
  %66 = load i32, i32* %33, align 4, !dbg !3999, !tbaa.struct !3440
  %67 = load i16, i16* %36, align 2, !dbg !4000, !tbaa !3969
  %68 = getelementptr inbounds i8, i8* %6, i64 12, !dbg !4001
  %69 = bitcast i8* %68 to i32*, !dbg !4001
  %70 = load i32, i32* %69, align 4, !dbg !4001, !tbaa.struct !3440
  %71 = load i16, i16* %38, align 4, !dbg !4002, !tbaa !3972
  %72 = getelementptr inbounds i8, i8* %24, i64 8, !dbg !4003
  %73 = bitcast i8* %72 to i32*, !dbg !4003
  %74 = load i32, i32* %73, align 4, !dbg !4003, !tbaa !4004
  %75 = getelementptr inbounds i8, i8* %24, i64 4, !dbg !4005
  %76 = bitcast i8* %75 to i32*, !dbg !4005
  %77 = load i32, i32* %76, align 4, !dbg !4005, !tbaa !4006
  tail call void @_ZN6WebGen10tcp_outputEP14WritablePacket9IPAddresstS2_tiicPci(%class.WebGen* %0, %class.WritablePacket* %65, i32 %66, i16 zeroext %67, i32 %70, i16 zeroext %71, i32 %74, i32 %77, i8 signext 4, i8* null, i32 0), !dbg !4007
  br label %245

78:                                               ; preds = %56
  call void @llvm.dbg.value(metadata %"class.WebGen::CB"* %48, metadata !3934, metadata !DIExpression()), !dbg !3939
  %79 = getelementptr inbounds i8, i8* %24, i64 4, !dbg !4008
  %80 = bitcast i8* %79 to i32*, !dbg !4008
  %81 = load i32, i32* %80, align 4, !dbg !4008, !tbaa !4006
  call void @llvm.dbg.value(metadata i32 %81, metadata !3865, metadata !DIExpression()) #18, !dbg !4009
  %82 = tail call i32 @llvm.bswap.i32(i32 %81) #18, !dbg !4011
  call void @llvm.dbg.value(metadata i32 %82, metadata !3925, metadata !DIExpression()), !dbg !3939
  %83 = getelementptr inbounds i8, i8* %24, i64 8, !dbg !4012
  %84 = bitcast i8* %83 to i32*, !dbg !4012
  %85 = load i32, i32* %84, align 4, !dbg !4012, !tbaa !4004
  call void @llvm.dbg.value(metadata i32 %85, metadata !3865, metadata !DIExpression()) #18, !dbg !4013
  %86 = tail call i32 @llvm.bswap.i32(i32 %85) #18, !dbg !4015
  call void @llvm.dbg.value(metadata i32 %86, metadata !3926, metadata !DIExpression()), !dbg !3939
  %87 = getelementptr inbounds i8, i8* %24, i64 13, !dbg !4016
  %88 = load i8, i8* %87, align 1, !dbg !4016, !tbaa !4018
  %89 = and i8 %88, 20, !dbg !4019
  %90 = icmp eq i8 %89, 16, !dbg !4020
  br i1 %90, label %91, label %108, !dbg !4021

91:                                               ; preds = %78
  %92 = getelementptr inbounds %"class.WebGen::CB", %"class.WebGen::CB"* %48, i64 0, i32 3, !dbg !4022
  %93 = load i32, i32* %92, align 8, !dbg !4022, !tbaa !3449
  %94 = add i32 %93, 1, !dbg !4023
  %95 = icmp eq i32 %86, %94, !dbg !4024
  br i1 %95, label %96, label %108, !dbg !4025

96:                                               ; preds = %91
  %97 = getelementptr inbounds %"class.WebGen::CB", %"class.WebGen::CB"* %48, i64 0, i32 8, !dbg !4026
  %98 = load i8, i8* %97, align 4, !dbg !4026
  %99 = and i8 %98, 1, !dbg !4026
  %100 = icmp eq i8 %99, 0, !dbg !4027
  br i1 %100, label %101, label %108, !dbg !4028

101:                                              ; preds = %96
  %102 = getelementptr inbounds %"class.WebGen::CB", %"class.WebGen::CB"* %48, i64 0, i32 5, !dbg !4029
  store i32 %86, i32* %102, align 8, !dbg !4031, !tbaa !3455
  %103 = getelementptr inbounds %"class.WebGen::CB", %"class.WebGen::CB"* %48, i64 0, i32 4, !dbg !4032
  store i32 %86, i32* %103, align 4, !dbg !4033, !tbaa !3458
  %104 = getelementptr inbounds %"class.WebGen::CB", %"class.WebGen::CB"* %48, i64 0, i32 6, !dbg !4034
  store i32 %82, i32* %104, align 4, !dbg !4035, !tbaa !3452
  %105 = add i32 %82, 1, !dbg !4036
  %106 = getelementptr inbounds %"class.WebGen::CB", %"class.WebGen::CB"* %48, i64 0, i32 7, !dbg !4037
  store i32 %105, i32* %106, align 8, !dbg !4038, !tbaa !3846
  %107 = or i8 %98, 17, !dbg !4039
  store i8 %107, i8* %97, align 4, !dbg !4039
  br label %119, !dbg !4040

108:                                              ; preds = %96, %91, %78
  %109 = icmp sgt i32 %31, 0, !dbg !4041
  br i1 %109, label %110, label %119, !dbg !4043

110:                                              ; preds = %108
  %111 = getelementptr inbounds %"class.WebGen::CB", %"class.WebGen::CB"* %48, i64 0, i32 8, !dbg !4044
  %112 = load i8, i8* %111, align 4, !dbg !4046
  %113 = or i8 %112, 16, !dbg !4046
  store i8 %113, i8* %111, align 4, !dbg !4046
  %114 = add i32 %82, %31, !dbg !4047
  %115 = getelementptr inbounds %"class.WebGen::CB", %"class.WebGen::CB"* %48, i64 0, i32 7, !dbg !4049
  %116 = load i32, i32* %115, align 8, !dbg !4049, !tbaa !3846
  %117 = icmp ugt i32 %114, %116, !dbg !4050
  br i1 %117, label %118, label %119, !dbg !4051

118:                                              ; preds = %110
  store i32 %114, i32* %115, align 8, !dbg !4052, !tbaa !3846
  br label %119, !dbg !4054

119:                                              ; preds = %108, %118, %110, %101
  %120 = load i8, i8* %87, align 1, !dbg !4055, !tbaa !4018
  %121 = and i8 %120, 16, !dbg !4057
  %122 = icmp eq i8 %121, 0, !dbg !4058
  br i1 %122, label %128, label %123, !dbg !4059

123:                                              ; preds = %119
  %124 = getelementptr inbounds %"class.WebGen::CB", %"class.WebGen::CB"* %48, i64 0, i32 4, !dbg !4060
  %125 = load i32, i32* %124, align 4, !dbg !4060, !tbaa !3458
  %126 = icmp ugt i32 %86, %125, !dbg !4063
  br i1 %126, label %127, label %128, !dbg !4064

127:                                              ; preds = %123
  store i32 %86, i32* %124, align 4, !dbg !4065, !tbaa !3458
  br label %128, !dbg !4067

128:                                              ; preds = %119, %123, %127
  %129 = and i8 %120, 1, !dbg !4068
  %130 = icmp eq i8 %129, 0, !dbg !4070
  br i1 %130, label %145, label %131, !dbg !4071

131:                                              ; preds = %128
  %132 = add i32 %82, %31, !dbg !4072
  %133 = getelementptr inbounds %"class.WebGen::CB", %"class.WebGen::CB"* %48, i64 0, i32 7, !dbg !4073
  %134 = load i32, i32* %133, align 8, !dbg !4073, !tbaa !3846
  %135 = icmp eq i32 %132, %134, !dbg !4074
  br i1 %135, label %136, label %145, !dbg !4075

136:                                              ; preds = %131
  %137 = getelementptr inbounds %"class.WebGen::CB", %"class.WebGen::CB"* %48, i64 0, i32 8, !dbg !4076
  %138 = load i8, i8* %137, align 4, !dbg !4076
  %139 = and i8 %138, 2, !dbg !4076
  %140 = icmp eq i8 %139, 0, !dbg !4077
  br i1 %140, label %141, label %145, !dbg !4078

141:                                              ; preds = %136
  %142 = add i32 %132, 1, !dbg !4079
  store i32 %142, i32* %133, align 8, !dbg !4079, !tbaa !3846
  %143 = or i8 %138, 18, !dbg !4081
  store i8 %143, i8* %137, align 4, !dbg !4081
  %144 = load i8, i8* %87, align 1, !dbg !4082, !tbaa !4018
  br label %145, !dbg !4084

145:                                              ; preds = %128, %141, %136, %131
  %146 = phi i8 [ %120, %128 ], [ %144, %141 ], [ %120, %136 ], [ %120, %131 ], !dbg !4082
  %147 = and i8 %146, 4, !dbg !4085
  %148 = icmp eq i8 %147, 0, !dbg !4086
  br i1 %148, label %196, label %149, !dbg !4087

149:                                              ; preds = %145
  tail call void @_ZN6Packet4killEv(%class.Packet* %1), !dbg !4088
  call void @llvm.dbg.value(metadata %class.WebGen* %0, metadata !3181, metadata !DIExpression()) #18, !dbg !4090
  call void @llvm.dbg.value(metadata %"class.WebGen::CB"* %48, metadata !3182, metadata !DIExpression()) #18, !dbg !4090
  call void @llvm.dbg.value(metadata %"class.WebGen::CB"* %48, metadata !3184, metadata !DIExpression()) #18, !dbg !4092
  %150 = getelementptr inbounds %"class.WebGen::CB", %"class.WebGen::CB"* %48, i64 0, i32 15, !dbg !4094
  %151 = load %"class.WebGen::CB"*, %"class.WebGen::CB"** %150, align 8, !dbg !4094, !tbaa !3088
  %152 = icmp eq %"class.WebGen::CB"* %151, null, !dbg !4094
  %153 = ptrtoint %"class.WebGen::CB"* %151 to i64, !dbg !4095
  br i1 %152, label %160, label %154, !dbg !4095

154:                                              ; preds = %149
  %155 = getelementptr inbounds %"class.WebGen::CB", %"class.WebGen::CB"* %48, i64 0, i32 16, !dbg !4096
  %156 = bitcast %"class.WebGen::CB"** %155 to i64*, !dbg !4096
  %157 = load i64, i64* %156, align 8, !dbg !4096, !tbaa !3091
  %158 = getelementptr inbounds %"class.WebGen::CB", %"class.WebGen::CB"* %151, i64 0, i32 16, !dbg !4097
  %159 = bitcast %"class.WebGen::CB"** %158 to i64*, !dbg !4098
  store i64 %157, i64* %159, align 8, !dbg !4098, !tbaa !3091
  br label %160, !dbg !4099

160:                                              ; preds = %154, %149
  %161 = getelementptr inbounds %"class.WebGen::CB", %"class.WebGen::CB"* %48, i64 0, i32 16, !dbg !4100
  %162 = load %"class.WebGen::CB"*, %"class.WebGen::CB"** %161, align 8, !dbg !4100, !tbaa !3091
  %163 = icmp eq %"class.WebGen::CB"* %162, null, !dbg !4100
  br i1 %163, label %167, label %164, !dbg !4101

164:                                              ; preds = %160
  %165 = getelementptr inbounds %"class.WebGen::CB", %"class.WebGen::CB"* %162, i64 0, i32 15, !dbg !4102
  %166 = bitcast %"class.WebGen::CB"** %165 to i64*, !dbg !4103
  store i64 %153, i64* %166, align 8, !dbg !4103, !tbaa !3088
  br label %167, !dbg !4104

167:                                              ; preds = %164, %160
  %168 = bitcast %"class.WebGen::CB"** %150 to i8*, !dbg !4105
  tail call void @llvm.memset.p0i8.i64(i8* nonnull align 8 dereferenceable(16) %168, i8 0, i64 16, i1 false) #18, !dbg !4106
  call void @llvm.dbg.value(metadata %"class.WebGen::CB"* %48, metadata !3204, metadata !DIExpression()) #18, !dbg !4107
  %169 = getelementptr inbounds %"class.WebGen::CB", %"class.WebGen::CB"* %48, i64 0, i32 13, !dbg !4109
  %170 = load %"class.WebGen::CB"*, %"class.WebGen::CB"** %169, align 8, !dbg !4109, !tbaa !3015
  %171 = icmp eq %"class.WebGen::CB"* %170, null, !dbg !4109
  %172 = ptrtoint %"class.WebGen::CB"* %170 to i64, !dbg !4110
  br i1 %171, label %179, label %173, !dbg !4110

173:                                              ; preds = %167
  %174 = getelementptr inbounds %"class.WebGen::CB", %"class.WebGen::CB"* %48, i64 0, i32 14, !dbg !4111
  %175 = bitcast %"class.WebGen::CB"*** %174 to i64*, !dbg !4111
  %176 = load i64, i64* %175, align 8, !dbg !4111, !tbaa !3018
  %177 = getelementptr inbounds %"class.WebGen::CB", %"class.WebGen::CB"* %170, i64 0, i32 14, !dbg !4112
  %178 = bitcast %"class.WebGen::CB"*** %177 to i64*, !dbg !4113
  store i64 %176, i64* %178, align 8, !dbg !4113, !tbaa !3018
  br label %179, !dbg !4114

179:                                              ; preds = %173, %167
  %180 = getelementptr inbounds %"class.WebGen::CB", %"class.WebGen::CB"* %48, i64 0, i32 14, !dbg !4115
  %181 = load %"class.WebGen::CB"**, %"class.WebGen::CB"*** %180, align 8, !dbg !4115, !tbaa !3018
  %182 = icmp eq %"class.WebGen::CB"** %181, null, !dbg !4115
  br i1 %182, label %185, label %183, !dbg !4116

183:                                              ; preds = %179
  %184 = bitcast %"class.WebGen::CB"** %181 to i64*, !dbg !4117
  store i64 %172, i64* %184, align 8, !dbg !4117, !tbaa !3020
  br label %185, !dbg !4118

185:                                              ; preds = %183, %179
  %186 = bitcast %"class.WebGen::CB"** %169 to i8*, !dbg !4119
  tail call void @llvm.memset.p0i8.i64(i8* nonnull align 8 dereferenceable(16) %186, i8 0, i64 16, i1 false) #18, !dbg !4120
  %187 = getelementptr inbounds %class.WebGen, %class.WebGen* %0, i64 0, i32 7, !dbg !4121
  call void @llvm.dbg.value(metadata %"class.WebGen::CB"* %48, metadata !2988, metadata !DIExpression()) #18, !dbg !4122
  call void @llvm.dbg.value(metadata %"class.WebGen::CB"** %187, metadata !2989, metadata !DIExpression()) #18, !dbg !4122
  %188 = load %"class.WebGen::CB"*, %"class.WebGen::CB"** %187, align 8, !dbg !4124, !tbaa !3020
  store %"class.WebGen::CB"* %188, %"class.WebGen::CB"** %169, align 8, !dbg !4125, !tbaa !3015
  %189 = icmp eq %"class.WebGen::CB"* %188, null, !dbg !4126
  br i1 %189, label %192, label %190, !dbg !4127

190:                                              ; preds = %185
  %191 = getelementptr inbounds %"class.WebGen::CB", %"class.WebGen::CB"* %188, i64 0, i32 14, !dbg !4128
  store %"class.WebGen::CB"** %169, %"class.WebGen::CB"*** %191, align 8, !dbg !4129, !tbaa !3018
  br label %192, !dbg !4130

192:                                              ; preds = %185, %190
  store %"class.WebGen::CB"** %187, %"class.WebGen::CB"*** %180, align 8, !dbg !4131, !tbaa !3018
  store %"class.WebGen::CB"* %48, %"class.WebGen::CB"** %187, align 8, !dbg !4132, !tbaa !3020
  %193 = getelementptr inbounds %class.WebGen, %class.WebGen* %0, i64 0, i32 13, i32 2, !dbg !4133
  %194 = load i32, i32* %193, align 8, !dbg !4134, !tbaa !3159
  %195 = add nsw i32 %194, 1, !dbg !4134
  store i32 %195, i32* %193, align 8, !dbg !4134, !tbaa !3159
  br label %245, !dbg !4135

196:                                              ; preds = %145
  tail call void @_ZN6WebGen8tcp_sendEPNS_2CBEP6Packet(%class.WebGen* %0, %"class.WebGen::CB"* nonnull %48, %class.Packet* %1), !dbg !4136
  %197 = getelementptr inbounds %"class.WebGen::CB", %"class.WebGen::CB"* %48, i64 0, i32 8, !dbg !4137
  %198 = load i8, i8* %197, align 4, !dbg !4137
  %199 = and i8 %198, 8, !dbg !4137
  %200 = icmp eq i8 %199, 0, !dbg !4139
  br i1 %200, label %245, label %201, !dbg !4140

201:                                              ; preds = %196
  call void @llvm.dbg.value(metadata %class.WebGen* %0, metadata !3181, metadata !DIExpression()) #18, !dbg !4141
  call void @llvm.dbg.value(metadata %"class.WebGen::CB"* %48, metadata !3182, metadata !DIExpression()) #18, !dbg !4141
  call void @llvm.dbg.value(metadata %"class.WebGen::CB"* %48, metadata !3184, metadata !DIExpression()) #18, !dbg !4143
  %202 = getelementptr inbounds %"class.WebGen::CB", %"class.WebGen::CB"* %48, i64 0, i32 15, !dbg !4145
  %203 = load %"class.WebGen::CB"*, %"class.WebGen::CB"** %202, align 8, !dbg !4145, !tbaa !3088
  %204 = icmp eq %"class.WebGen::CB"* %203, null, !dbg !4145
  %205 = ptrtoint %"class.WebGen::CB"* %203 to i64, !dbg !4146
  br i1 %204, label %212, label %206, !dbg !4146

206:                                              ; preds = %201
  %207 = getelementptr inbounds %"class.WebGen::CB", %"class.WebGen::CB"* %48, i64 0, i32 16, !dbg !4147
  %208 = bitcast %"class.WebGen::CB"** %207 to i64*, !dbg !4147
  %209 = load i64, i64* %208, align 8, !dbg !4147, !tbaa !3091
  %210 = getelementptr inbounds %"class.WebGen::CB", %"class.WebGen::CB"* %203, i64 0, i32 16, !dbg !4148
  %211 = bitcast %"class.WebGen::CB"** %210 to i64*, !dbg !4149
  store i64 %209, i64* %211, align 8, !dbg !4149, !tbaa !3091
  br label %212, !dbg !4150

212:                                              ; preds = %206, %201
  %213 = getelementptr inbounds %"class.WebGen::CB", %"class.WebGen::CB"* %48, i64 0, i32 16, !dbg !4151
  %214 = load %"class.WebGen::CB"*, %"class.WebGen::CB"** %213, align 8, !dbg !4151, !tbaa !3091
  %215 = icmp eq %"class.WebGen::CB"* %214, null, !dbg !4151
  br i1 %215, label %219, label %216, !dbg !4152

216:                                              ; preds = %212
  %217 = getelementptr inbounds %"class.WebGen::CB", %"class.WebGen::CB"* %214, i64 0, i32 15, !dbg !4153
  %218 = bitcast %"class.WebGen::CB"** %217 to i64*, !dbg !4154
  store i64 %205, i64* %218, align 8, !dbg !4154, !tbaa !3088
  br label %219, !dbg !4155

219:                                              ; preds = %216, %212
  %220 = bitcast %"class.WebGen::CB"** %202 to i8*, !dbg !4156
  tail call void @llvm.memset.p0i8.i64(i8* nonnull align 8 dereferenceable(16) %220, i8 0, i64 16, i1 false) #18, !dbg !4157
  call void @llvm.dbg.value(metadata %"class.WebGen::CB"* %48, metadata !3204, metadata !DIExpression()) #18, !dbg !4158
  %221 = getelementptr inbounds %"class.WebGen::CB", %"class.WebGen::CB"* %48, i64 0, i32 13, !dbg !4160
  %222 = load %"class.WebGen::CB"*, %"class.WebGen::CB"** %221, align 8, !dbg !4160, !tbaa !3015
  %223 = icmp eq %"class.WebGen::CB"* %222, null, !dbg !4160
  %224 = ptrtoint %"class.WebGen::CB"* %222 to i64, !dbg !4161
  br i1 %223, label %231, label %225, !dbg !4161

225:                                              ; preds = %219
  %226 = getelementptr inbounds %"class.WebGen::CB", %"class.WebGen::CB"* %48, i64 0, i32 14, !dbg !4162
  %227 = bitcast %"class.WebGen::CB"*** %226 to i64*, !dbg !4162
  %228 = load i64, i64* %227, align 8, !dbg !4162, !tbaa !3018
  %229 = getelementptr inbounds %"class.WebGen::CB", %"class.WebGen::CB"* %222, i64 0, i32 14, !dbg !4163
  %230 = bitcast %"class.WebGen::CB"*** %229 to i64*, !dbg !4164
  store i64 %228, i64* %230, align 8, !dbg !4164, !tbaa !3018
  br label %231, !dbg !4165

231:                                              ; preds = %225, %219
  %232 = getelementptr inbounds %"class.WebGen::CB", %"class.WebGen::CB"* %48, i64 0, i32 14, !dbg !4166
  %233 = load %"class.WebGen::CB"**, %"class.WebGen::CB"*** %232, align 8, !dbg !4166, !tbaa !3018
  %234 = icmp eq %"class.WebGen::CB"** %233, null, !dbg !4166
  br i1 %234, label %237, label %235, !dbg !4167

235:                                              ; preds = %231
  %236 = bitcast %"class.WebGen::CB"** %233 to i64*, !dbg !4168
  store i64 %224, i64* %236, align 8, !dbg !4168, !tbaa !3020
  br label %237, !dbg !4169

237:                                              ; preds = %235, %231
  %238 = bitcast %"class.WebGen::CB"** %221 to i8*, !dbg !4170
  tail call void @llvm.memset.p0i8.i64(i8* nonnull align 8 dereferenceable(16) %238, i8 0, i64 16, i1 false) #18, !dbg !4171
  %239 = getelementptr inbounds %class.WebGen, %class.WebGen* %0, i64 0, i32 7, !dbg !4172
  call void @llvm.dbg.value(metadata %"class.WebGen::CB"* %48, metadata !2988, metadata !DIExpression()) #18, !dbg !4173
  call void @llvm.dbg.value(metadata %"class.WebGen::CB"** %239, metadata !2989, metadata !DIExpression()) #18, !dbg !4173
  %240 = load %"class.WebGen::CB"*, %"class.WebGen::CB"** %239, align 8, !dbg !4175, !tbaa !3020
  store %"class.WebGen::CB"* %240, %"class.WebGen::CB"** %221, align 8, !dbg !4176, !tbaa !3015
  %241 = icmp eq %"class.WebGen::CB"* %240, null, !dbg !4177
  br i1 %241, label %244, label %242, !dbg !4178

242:                                              ; preds = %237
  %243 = getelementptr inbounds %"class.WebGen::CB", %"class.WebGen::CB"* %240, i64 0, i32 14, !dbg !4179
  store %"class.WebGen::CB"** %221, %"class.WebGen::CB"*** %243, align 8, !dbg !4180, !tbaa !3018
  br label %244, !dbg !4181

244:                                              ; preds = %237, %242
  store %"class.WebGen::CB"** %239, %"class.WebGen::CB"*** %232, align 8, !dbg !4182, !tbaa !3018
  store %"class.WebGen::CB"* %48, %"class.WebGen::CB"** %239, align 8, !dbg !4183, !tbaa !3020
  br label %245, !dbg !4184

245:                                              ; preds = %21, %244, %196, %192, %64, %2
  ret void, !dbg !4185
}

declare i32 @_ZNK6Packet6lengthEv(%class.Packet*) local_unnamed_addr #2

declare i8* @_ZNK6Packet4dataEv(%class.Packet*) local_unnamed_addr #2

declare void @_ZN6Packet4killEv(%class.Packet*) local_unnamed_addr #2

; Function Attrs: sspstrong uwtable
define dso_local %class.WritablePacket* @_ZN6WebGen12fixup_packetEP6Packetj(%class.WebGen* nocapture readnone %0, %class.Packet* %1, i32 %2) local_unnamed_addr #0 align 2 !dbg !4186 {
  call void @llvm.dbg.value(metadata %class.WebGen* undef, metadata !4188, metadata !DIExpression()), !dbg !4193
  call void @llvm.dbg.value(metadata %class.Packet* %1, metadata !4189, metadata !DIExpression()), !dbg !4193
  call void @llvm.dbg.value(metadata i32 %2, metadata !4190, metadata !DIExpression()), !dbg !4193
  call void @llvm.dbg.value(metadata i32 34, metadata !4191, metadata !DIExpression()), !dbg !4193
  %4 = icmp eq %class.Packet* %1, null, !dbg !4194
  br i1 %4, label %28, label %5, !dbg !4194

5:                                                ; preds = %3
  %6 = tail call zeroext i1 @_ZNK6Packet6sharedEv(%class.Packet* nonnull %1), !dbg !4196
  br i1 %6, label %27, label %7, !dbg !4197

7:                                                ; preds = %5
  call void @llvm.dbg.value(metadata %class.Packet* %1, metadata !4198, metadata !DIExpression()), !dbg !4201
  %8 = tail call i8* @_ZNK6Packet4dataEv(%class.Packet* nonnull %1), !dbg !4203
  call void @llvm.dbg.value(metadata %class.Packet* %1, metadata !4204, metadata !DIExpression()), !dbg !4207
  %9 = getelementptr inbounds %class.Packet, %class.Packet* %1, i64 0, i32 2, !dbg !4209
  %10 = bitcast i8** %9 to i64*, !dbg !4209
  %11 = load i64, i64* %10, align 8, !dbg !4209, !tbaa !4210
  %12 = ptrtoint i8* %8 to i64, !dbg !4214
  %13 = sub i64 %12, %11, !dbg !4214
  %14 = trunc i64 %13 to i32, !dbg !4203
  %15 = icmp ult i32 %14, 34, !dbg !4215
  br i1 %15, label %27, label %16, !dbg !4216

16:                                               ; preds = %7
  %17 = tail call i32 @_ZNK6Packet6lengthEv(%class.Packet* nonnull %1), !dbg !4217
  call void @llvm.dbg.value(metadata %class.Packet* %1, metadata !4218, metadata !DIExpression()), !dbg !4221
  call void @llvm.dbg.value(metadata %class.Packet* %1, metadata !4223, metadata !DIExpression()), !dbg !4226
  %18 = getelementptr inbounds %class.Packet, %class.Packet* %1, i64 0, i32 5, !dbg !4228
  %19 = bitcast i8** %18 to i64*, !dbg !4228
  %20 = load i64, i64* %19, align 8, !dbg !4228, !tbaa !4229
  %21 = tail call i8* @_ZNK6Packet8end_dataEv(%class.Packet* nonnull %1), !dbg !4230
  %22 = ptrtoint i8* %21 to i64, !dbg !4231
  %23 = sub i64 %20, %22, !dbg !4231
  %24 = trunc i64 %23 to i32, !dbg !4232
  %25 = add i32 %17, %24, !dbg !4233
  %26 = icmp ult i32 %25, %2, !dbg !4234
  br i1 %26, label %27, label %30, !dbg !4235

27:                                               ; preds = %5, %7, %16
  tail call void @_ZN6Packet4killEv(%class.Packet* nonnull %1), !dbg !4236
  br label %28, !dbg !4239

28:                                               ; preds = %3, %27
  %29 = tail call %class.WritablePacket* @_ZN6Packet4makeEjPKvjj(i32 34, i8* null, i32 %2, i32 0), !dbg !4240
  call void @llvm.dbg.value(metadata %class.WritablePacket* %29, metadata !4192, metadata !DIExpression()), !dbg !4193
  br label %60, !dbg !4241

30:                                               ; preds = %16
  %31 = tail call %class.WritablePacket* @_ZN6Packet9uniqueifyEv(%class.Packet* nonnull %1), !dbg !4242
  call void @llvm.dbg.value(metadata %class.WritablePacket* %31, metadata !4192, metadata !DIExpression()), !dbg !4193
  %32 = getelementptr %class.WritablePacket, %class.WritablePacket* %31, i64 0, i32 0, !dbg !4244
  %33 = tail call i32 @_ZNK6Packet6lengthEv(%class.Packet* %32), !dbg !4244
  %34 = icmp ult i32 %33, %2, !dbg !4246
  %35 = tail call i32 @_ZNK6Packet6lengthEv(%class.Packet* %32), !dbg !4247
  br i1 %34, label %36, label %55, !dbg !4248

36:                                               ; preds = %30
  %37 = sub i32 %2, %35, !dbg !4249
  call void @llvm.dbg.value(metadata %class.Packet* %32, metadata !4250, metadata !DIExpression()), !dbg !4257
  call void @llvm.dbg.value(metadata i32 %37, metadata !4253, metadata !DIExpression()), !dbg !4257
  call void @llvm.dbg.value(metadata %class.Packet* %32, metadata !4218, metadata !DIExpression()), !dbg !4259
  call void @llvm.dbg.value(metadata %class.Packet* %32, metadata !4223, metadata !DIExpression()), !dbg !4261
  %38 = getelementptr inbounds %class.WritablePacket, %class.WritablePacket* %31, i64 0, i32 0, i32 5, !dbg !4263
  %39 = bitcast i8** %38 to i64*, !dbg !4263
  %40 = load i64, i64* %39, align 8, !dbg !4263, !tbaa !4229
  %41 = tail call i8* @_ZNK6Packet8end_dataEv(%class.Packet* %32), !dbg !4264
  %42 = ptrtoint i8* %41 to i64, !dbg !4265
  %43 = sub i64 %40, %42, !dbg !4265
  %44 = trunc i64 %43 to i32, !dbg !4266
  %45 = icmp ugt i32 %37, %44, !dbg !4267
  br i1 %45, label %53, label %46, !dbg !4268

46:                                               ; preds = %36
  %47 = tail call zeroext i1 @_ZNK6Packet6sharedEv(%class.Packet* nonnull %32), !dbg !4269
  br i1 %47, label %53, label %48, !dbg !4270

48:                                               ; preds = %46
  call void @llvm.dbg.value(metadata %class.WritablePacket* %31, metadata !4254, metadata !DIExpression()), !dbg !4271
  %49 = getelementptr inbounds %class.WritablePacket, %class.WritablePacket* %31, i64 0, i32 0, i32 4, !dbg !4272
  %50 = load i8*, i8** %49, align 8, !dbg !4273, !tbaa !4274
  %51 = zext i32 %37 to i64, !dbg !4273
  %52 = getelementptr inbounds i8, i8* %50, i64 %51, !dbg !4273
  store i8* %52, i8** %49, align 8, !dbg !4273, !tbaa !4274
  br label %60

53:                                               ; preds = %46, %36
  %54 = tail call %class.WritablePacket* @_ZN6Packet13expensive_putEj(%class.Packet* nonnull %32, i32 %37), !dbg !4275
  br label %60, !dbg !4276

55:                                               ; preds = %30
  %56 = icmp ugt i32 %35, %2, !dbg !4277
  br i1 %56, label %57, label %60, !dbg !4279

57:                                               ; preds = %55
  %58 = tail call i32 @_ZNK6Packet6lengthEv(%class.Packet* %32), !dbg !4280
  %59 = sub i32 %58, %2, !dbg !4281
  tail call void @_ZN6Packet4takeEj(%class.Packet* %32, i32 %59), !dbg !4282
  br label %60, !dbg !4283

60:                                               ; preds = %53, %48, %57, %55, %28
  %61 = phi %class.WritablePacket* [ %29, %28 ], [ %31, %57 ], [ %31, %55 ], [ %54, %53 ], [ %31, %48 ], !dbg !4284
  call void @llvm.dbg.value(metadata %class.WritablePacket* %61, metadata !4192, metadata !DIExpression()), !dbg !4193
  ret %class.WritablePacket* %61, !dbg !4285
}

; Function Attrs: sspstrong uwtable
define dso_local void @_ZN6WebGen10tcp_outputEP14WritablePacket9IPAddresstS2_tiicPci(%class.WebGen* %0, %class.WritablePacket* %1, i32 %2, i16 zeroext %3, i32 %4, i16 zeroext %5, i32 %6, i32 %7, i8 signext %8, i8* nocapture readonly %9, i32 %10) local_unnamed_addr #0 align 2 !dbg !4286 {
  %12 = alloca [9 x i8], align 1
  call void @llvm.dbg.value(metadata i32 %2, metadata !4290, metadata !DIExpression()), !dbg !4306
  call void @llvm.dbg.value(metadata i32 %4, metadata !4292, metadata !DIExpression()), !dbg !4306
  call void @llvm.dbg.value(metadata %class.WebGen* %0, metadata !4288, metadata !DIExpression()), !dbg !4306
  call void @llvm.dbg.value(metadata %class.WritablePacket* %1, metadata !4289, metadata !DIExpression()), !dbg !4306
  call void @llvm.dbg.value(metadata i16 %3, metadata !4291, metadata !DIExpression()), !dbg !4306
  call void @llvm.dbg.value(metadata i16 %5, metadata !4293, metadata !DIExpression()), !dbg !4306
  call void @llvm.dbg.value(metadata i32 %6, metadata !4294, metadata !DIExpression()), !dbg !4306
  call void @llvm.dbg.value(metadata i32 %7, metadata !4295, metadata !DIExpression()), !dbg !4306
  call void @llvm.dbg.value(metadata i8 %8, metadata !4296, metadata !DIExpression()), !dbg !4306
  call void @llvm.dbg.value(metadata i8* %9, metadata !4297, metadata !DIExpression()), !dbg !4306
  call void @llvm.dbg.value(metadata i32 %10, metadata !4298, metadata !DIExpression()), !dbg !4306
  %13 = getelementptr %class.WritablePacket, %class.WritablePacket* %1, i64 0, i32 0, !dbg !4307
  %14 = tail call i32 @_ZNK6Packet6lengthEv(%class.Packet* %13), !dbg !4307
  call void @llvm.dbg.value(metadata i32 %14, metadata !4299, metadata !DIExpression()), !dbg !4306
  %15 = tail call i8* @_ZNK14WritablePacket4dataEv(%class.WritablePacket* %1), !dbg !4308
  %16 = bitcast i8* %15 to %struct.click_ip*, !dbg !4309
  call void @llvm.dbg.value(metadata %struct.click_ip* %16, metadata !4300, metadata !DIExpression()), !dbg !4306
  store i8 69, i8* %15, align 4, !dbg !4310
  call void @llvm.dbg.value(metadata %class.WebGen* %0, metadata !4311, metadata !DIExpression(DW_OP_plus_uconst, 172, DW_OP_stack_value)), !dbg !4317
  call void @llvm.dbg.value(metadata i32 1, metadata !4314, metadata !DIExpression()), !dbg !4317
  call void @llvm.dbg.value(metadata %class.WebGen* %0, metadata !4319, metadata !DIExpression(DW_OP_plus_uconst, 172, DW_OP_stack_value)), !dbg !4323
  %17 = getelementptr inbounds %class.WebGen, %class.WebGen* %0, i64 0, i32 5, i32 0, !dbg !4325
  %18 = load i32, i32* %17, align 4, !dbg !4325, !tbaa !4326
  call void @llvm.dbg.value(metadata i32 %18, metadata !4315, metadata !DIExpression()), !dbg !4317
  %19 = add i32 %18, 1, !dbg !4327
  store i32 %19, i32* %17, align 4, !dbg !4327, !tbaa !4326
  %20 = trunc i32 %18 to i16, !dbg !4328
  %21 = tail call i16 @llvm.bswap.i16(i16 %20) #18
  %22 = getelementptr inbounds i8, i8* %15, i64 4, !dbg !4329
  %23 = bitcast i8* %22 to i16*, !dbg !4329
  store i16 %21, i16* %23, align 4, !dbg !4330, !tbaa !4331
  %24 = getelementptr inbounds i8, i8* %15, i64 9, !dbg !4332
  store i8 6, i8* %24, align 1, !dbg !4333, !tbaa !4334
  %25 = getelementptr inbounds i8, i8* %15, i64 12, !dbg !4335
  %26 = bitcast i8* %25 to i32*, !dbg !4335
  store i32 %2, i32* %26, align 4, !dbg !4335, !tbaa.struct !3440
  %27 = getelementptr inbounds i8, i8* %15, i64 16, !dbg !4336
  %28 = bitcast i8* %27 to i32*, !dbg !4336
  store i32 %4, i32* %28, align 4, !dbg !4336, !tbaa.struct !3440
  %29 = getelementptr inbounds i8, i8* %15, i64 1, !dbg !4337
  store i8 0, i8* %29, align 1, !dbg !4338, !tbaa !4339
  %30 = getelementptr inbounds i8, i8* %15, i64 6, !dbg !4340
  %31 = bitcast i8* %30 to i16*, !dbg !4340
  store i16 0, i16* %31, align 2, !dbg !4341, !tbaa !4342
  %32 = getelementptr inbounds i8, i8* %15, i64 8, !dbg !4343
  store i8 -6, i8* %32, align 4, !dbg !4344, !tbaa !4345
  tail call void @_ZN6Packet15set_dst_ip_annoE9IPAddress(%class.Packet* %13, i32 %4), !dbg !4346
  tail call void @_ZN6Packet13set_ip_headerEPK8click_ipj(%class.Packet* %13, %struct.click_ip* nonnull %16, i32 20), !dbg !4347
  %33 = getelementptr inbounds i8, i8* %15, i64 20, !dbg !4348
  call void @llvm.dbg.value(metadata i8* %33, metadata !4301, metadata !DIExpression()), !dbg !4306
  tail call void @llvm.memset.p0i8.i64(i8* nonnull align 4 dereferenceable(20) %33, i8 0, i64 20, i1 false), !dbg !4349
  %34 = icmp sgt i32 %10, 0, !dbg !4350
  br i1 %34, label %35, label %38, !dbg !4352

35:                                               ; preds = %11
  call void @llvm.dbg.value(metadata i8* %33, metadata !4301, metadata !DIExpression()), !dbg !4306
  %36 = getelementptr inbounds i8, i8* %15, i64 40, !dbg !4353
  %37 = zext i32 %10 to i64, !dbg !4354
  tail call void @llvm.memcpy.p0i8.p0i8.i64(i8* nonnull align 4 %36, i8* align 1 %9, i64 %37, i1 false), !dbg !4355
  br label %38, !dbg !4355

38:                                               ; preds = %35, %11
  %39 = bitcast i8* %33 to i16*, !dbg !4356
  store i16 %3, i16* %39, align 4, !dbg !4357, !tbaa !3972
  %40 = getelementptr inbounds i8, i8* %15, i64 22, !dbg !4358
  %41 = bitcast i8* %40 to i16*, !dbg !4358
  store i16 %5, i16* %41, align 2, !dbg !4359, !tbaa !3969
  %42 = getelementptr inbounds i8, i8* %15, i64 24, !dbg !4360
  %43 = bitcast i8* %42 to i32*, !dbg !4360
  store i32 %6, i32* %43, align 4, !dbg !4361, !tbaa !4006
  %44 = getelementptr inbounds i8, i8* %15, i64 28, !dbg !4362
  %45 = bitcast i8* %44 to i32*, !dbg !4362
  store i32 %7, i32* %45, align 4, !dbg !4363, !tbaa !4004
  %46 = getelementptr inbounds i8, i8* %15, i64 32, !dbg !4364
  store i8 80, i8* %46, align 4, !dbg !4365
  %47 = getelementptr inbounds i8, i8* %15, i64 33, !dbg !4366
  store i8 %8, i8* %47, align 1, !dbg !4367, !tbaa !4018
  %48 = getelementptr inbounds i8, i8* %15, i64 34, !dbg !4368
  %49 = bitcast i8* %48 to i16*, !dbg !4368
  store i16 240, i16* %49, align 2, !dbg !4369, !tbaa !4370
  %50 = getelementptr inbounds [9 x i8], [9 x i8]* %12, i64 0, i64 0, !dbg !4371
  call void @llvm.lifetime.start.p0i8(i64 9, i8* nonnull %50), !dbg !4371
  call void @llvm.dbg.declare(metadata [9 x i8]* %12, metadata !4302, metadata !DIExpression()), !dbg !4372
  call void @llvm.memcpy.p0i8.p0i8.i64(i8* nonnull align 1 dereferenceable(9) %50, i8* nonnull align 4 dereferenceable(9) %15, i64 9, i1 false), !dbg !4373
  tail call void @llvm.memset.p0i8.i64(i8* nonnull align 4 dereferenceable(9) %15, i8 0, i64 9, i1 false), !dbg !4374
  %51 = getelementptr inbounds i8, i8* %15, i64 10, !dbg !4375
  %52 = bitcast i8* %51 to i16*, !dbg !4375
  store i16 0, i16* %52, align 2, !dbg !4376, !tbaa !4377
  %53 = trunc i32 %14 to i16, !dbg !4378
  %54 = add i16 %53, -20, !dbg !4378
  %55 = tail call i16 @llvm.bswap.i16(i16 %54) #18
  %56 = getelementptr inbounds i8, i8* %15, i64 2, !dbg !4379
  %57 = bitcast i8* %56 to i16*, !dbg !4379
  store i16 %55, i16* %57, align 2, !dbg !4380, !tbaa !3946
  %58 = getelementptr inbounds i8, i8* %15, i64 36, !dbg !4381
  %59 = bitcast i8* %58 to i16*, !dbg !4381
  store i16 0, i16* %59, align 4, !dbg !4382, !tbaa !4383
  %60 = tail call zeroext i16 @click_in_cksum(i8* %15, i32 %14), !dbg !4384
  store i16 %60, i16* %59, align 4, !dbg !4385, !tbaa !4383
  call void @llvm.memcpy.p0i8.p0i8.i64(i8* nonnull align 4 dereferenceable(9) %15, i8* nonnull align 1 dereferenceable(9) %50, i64 9, i1 false), !dbg !4386
  %61 = tail call i16 @llvm.bswap.i16(i16 %53) #18
  store i16 %61, i16* %57, align 2, !dbg !4387, !tbaa !3946
  store i16 0, i16* %52, align 2, !dbg !4388, !tbaa !4377
  %62 = tail call zeroext i16 @click_in_cksum(i8* %15, i32 20), !dbg !4389
  store i16 %62, i16* %52, align 2, !dbg !4390, !tbaa !4377
  %63 = bitcast %class.WebGen* %0 to %class.Element*, !dbg !4391
  %64 = tail call dereferenceable(16) %"class.Element::Port"* @_ZNK7Element6outputEi(%class.Element* %63, i32 0), !dbg !4391
  tail call void @_ZNK7Element4Port4pushEP6Packet(%"class.Element::Port"* nonnull %64, %class.Packet* %13), !dbg !4392
  call void @llvm.lifetime.end.p0i8(i64 9, i8* nonnull %50), !dbg !4393
  ret void, !dbg !4393
}

declare zeroext i1 @_ZNK6Packet6sharedEv(%class.Packet*) local_unnamed_addr #2

declare %class.WritablePacket* @_ZN6Packet4makeEjPKvjj(i32, i8*, i32, i32) local_unnamed_addr #2

declare %class.WritablePacket* @_ZN6Packet9uniqueifyEv(%class.Packet*) local_unnamed_addr #2

declare void @_ZN6Packet4takeEj(%class.Packet*, i32) local_unnamed_addr #2

; Function Attrs: sspstrong uwtable
define dso_local void @_ZN6WebGen2CB13rexmit_updateEPS0_(%"class.WebGen::CB"* %0, %"class.WebGen::CB"* %1) local_unnamed_addr #0 align 2 !dbg !3791 {
  call void @llvm.dbg.value(metadata %"class.WebGen::CB"* %0, metadata !3790, metadata !DIExpression()), !dbg !4394
  call void @llvm.dbg.value(metadata %"class.WebGen::CB"* %1, metadata !3793, metadata !DIExpression()), !dbg !4394
  %3 = getelementptr inbounds %"class.WebGen::CB", %"class.WebGen::CB"* %0, i64 0, i32 10, !dbg !4395
  tail call void @_ZN9Timestamp10assign_nowEv(%class.Timestamp* nonnull %3), !dbg !4396
  call void @llvm.dbg.value(metadata %"class.WebGen::CB"* %0, metadata !3184, metadata !DIExpression()) #18, !dbg !4397
  %4 = getelementptr inbounds %"class.WebGen::CB", %"class.WebGen::CB"* %0, i64 0, i32 15, !dbg !4399
  %5 = load %"class.WebGen::CB"*, %"class.WebGen::CB"** %4, align 8, !dbg !4399, !tbaa !3088
  %6 = icmp eq %"class.WebGen::CB"* %5, null, !dbg !4399
  %7 = ptrtoint %"class.WebGen::CB"* %5 to i64, !dbg !4400
  br i1 %6, label %14, label %8, !dbg !4400

8:                                                ; preds = %2
  %9 = getelementptr inbounds %"class.WebGen::CB", %"class.WebGen::CB"* %0, i64 0, i32 16, !dbg !4401
  %10 = bitcast %"class.WebGen::CB"** %9 to i64*, !dbg !4401
  %11 = load i64, i64* %10, align 8, !dbg !4401, !tbaa !3091
  %12 = getelementptr inbounds %"class.WebGen::CB", %"class.WebGen::CB"* %5, i64 0, i32 16, !dbg !4402
  %13 = bitcast %"class.WebGen::CB"** %12 to i64*, !dbg !4403
  store i64 %11, i64* %13, align 8, !dbg !4403, !tbaa !3091
  br label %14, !dbg !4404

14:                                               ; preds = %8, %2
  %15 = getelementptr inbounds %"class.WebGen::CB", %"class.WebGen::CB"* %0, i64 0, i32 16, !dbg !4405
  %16 = load %"class.WebGen::CB"*, %"class.WebGen::CB"** %15, align 8, !dbg !4405, !tbaa !3091
  %17 = icmp eq %"class.WebGen::CB"* %16, null, !dbg !4405
  br i1 %17, label %21, label %18, !dbg !4406

18:                                               ; preds = %14
  %19 = getelementptr inbounds %"class.WebGen::CB", %"class.WebGen::CB"* %16, i64 0, i32 15, !dbg !4407
  %20 = bitcast %"class.WebGen::CB"** %19 to i64*, !dbg !4408
  store i64 %7, i64* %20, align 8, !dbg !4408, !tbaa !3088
  br label %21, !dbg !4409

21:                                               ; preds = %14, %18
  %22 = getelementptr inbounds %"class.WebGen::CB"*, %"class.WebGen::CB"** %4, i64 1, !dbg !4410
  %23 = bitcast %"class.WebGen::CB"** %22 to i64*, !dbg !4410
  store i64 0, i64* %23, align 8, !dbg !4410
  store %"class.WebGen::CB"* %1, %"class.WebGen::CB"** %4, align 8, !dbg !4411, !tbaa !3088
  %24 = getelementptr inbounds %"class.WebGen::CB", %"class.WebGen::CB"* %1, i64 0, i32 16, !dbg !4412
  %25 = load %"class.WebGen::CB"*, %"class.WebGen::CB"** %24, align 8, !dbg !4412, !tbaa !3091
  store %"class.WebGen::CB"* %25, %"class.WebGen::CB"** %15, align 8, !dbg !4413, !tbaa !3091
  %26 = getelementptr inbounds %"class.WebGen::CB", %"class.WebGen::CB"* %25, i64 0, i32 15, !dbg !4414
  store %"class.WebGen::CB"* %0, %"class.WebGen::CB"** %26, align 8, !dbg !4415, !tbaa !3088
  %27 = load %"class.WebGen::CB"*, %"class.WebGen::CB"** %4, align 8, !dbg !4416, !tbaa !3088
  %28 = getelementptr inbounds %"class.WebGen::CB", %"class.WebGen::CB"* %27, i64 0, i32 16, !dbg !4417
  store %"class.WebGen::CB"* %0, %"class.WebGen::CB"** %28, align 8, !dbg !4418, !tbaa !3091
  ret void, !dbg !4419
}

declare i8* @_ZNK14WritablePacket4dataEv(%class.WritablePacket*) local_unnamed_addr #2

declare void @_ZN6Packet15set_dst_ip_annoE9IPAddress(%class.Packet*, i32) local_unnamed_addr #2

declare void @_ZN6Packet13set_ip_headerEPK8click_ipj(%class.Packet*, %struct.click_ip*, i32) local_unnamed_addr #2

declare !dbg !1270 zeroext i16 @click_in_cksum(i8*, i32) local_unnamed_addr #2

; Function Attrs: noinline optnone sspstrong uwtable
define linkonce_odr dso_local dereferenceable(16) %"class.Element::Port"* @_ZNK7Element6outputEi(%class.Element* %0, i32 %1) local_unnamed_addr #11 comdat align 2 !dbg !4420 {
  %3 = alloca %class.Element*, align 8
  %4 = alloca i32, align 4
  store %class.Element* %0, %class.Element** %3, align 8, !tbaa !3020
  call void @llvm.dbg.declare(metadata %class.Element** %3, metadata !4458, metadata !DIExpression()), !dbg !4460
  store i32 %1, i32* %4, align 4, !tbaa !2893
  call void @llvm.dbg.declare(metadata i32* %4, metadata !4459, metadata !DIExpression()), !dbg !4461
  %5 = load %class.Element*, %class.Element** %3, align 8
  %6 = load i32, i32* %4, align 4, !dbg !4462, !tbaa !2893
  %7 = call dereferenceable(16) %"class.Element::Port"* @_ZNK7Element4portEbi(%class.Element* %5, i1 zeroext true, i32 %6), !dbg !4463
  ret %"class.Element::Port"* %7, !dbg !4464
}

; Function Attrs: noinline optnone sspstrong uwtable
define linkonce_odr dso_local void @_ZNK7Element4Port4pushEP6Packet(%"class.Element::Port"* %0, %class.Packet* %1) local_unnamed_addr #11 comdat align 2 !dbg !4465 {
  %3 = alloca %"class.Element::Port"*, align 8
  %4 = alloca %class.Packet*, align 8
  store %"class.Element::Port"* %0, %"class.Element::Port"** %3, align 8, !tbaa !3020
  call void @llvm.dbg.declare(metadata %"class.Element::Port"** %3, metadata !4467, metadata !DIExpression()), !dbg !4470
  store %class.Packet* %1, %class.Packet** %4, align 8, !tbaa !3020
  call void @llvm.dbg.declare(metadata %class.Packet** %4, metadata !4469, metadata !DIExpression()), !dbg !4471
  %5 = load %"class.Element::Port"*, %"class.Element::Port"** %3, align 8
  %6 = getelementptr inbounds %"class.Element::Port", %"class.Element::Port"* %5, i32 0, i32 0, !dbg !4472
  %7 = load %class.Element*, %class.Element** %6, align 8, !dbg !4472, !tbaa !4473
  %8 = icmp ne %class.Element* %7, null, !dbg !4472
  br i1 %8, label %9, label %12, !dbg !4472

9:                                                ; preds = %2
  %10 = load %class.Packet*, %class.Packet** %4, align 8, !dbg !4472, !tbaa !3020
  %11 = icmp ne %class.Packet* %10, null, !dbg !4472
  br label %12

12:                                               ; preds = %9, %2
  %13 = phi i1 [ false, %2 ], [ %11, %9 ], !dbg !4470
  br i1 %13, label %14, label %15, !dbg !4472

14:                                               ; preds = %12
  br label %16, !dbg !4472

15:                                               ; preds = %12
  call void @__assert_fail(i8* getelementptr inbounds ([8 x i8], [8 x i8]* @.str.13, i64 0, i64 0), i8* getelementptr inbounds ([30 x i8], [30 x i8]* @.str.12, i64 0, i64 0), i32 611, i8* getelementptr inbounds ([41 x i8], [41 x i8]* @__PRETTY_FUNCTION__._ZNK7Element4Port4pushEP6Packet, i64 0, i64 0)) #19, !dbg !4472
  unreachable, !dbg !4472

16:                                               ; preds = %14
  %17 = getelementptr inbounds %"class.Element::Port", %"class.Element::Port"* %5, i32 0, i32 0, !dbg !4475
  %18 = load %class.Element*, %class.Element** %17, align 8, !dbg !4475, !tbaa !4473
  %19 = getelementptr inbounds %"class.Element::Port", %"class.Element::Port"* %5, i32 0, i32 1, !dbg !4476
  %20 = load i32, i32* %19, align 8, !dbg !4476, !tbaa !4477
  %21 = load %class.Packet*, %class.Packet** %4, align 8, !dbg !4478, !tbaa !3020
  %22 = bitcast %class.Element* %18 to void (%class.Element*, i32, %class.Packet*)***, !dbg !4479
  %23 = load void (%class.Element*, i32, %class.Packet*)**, void (%class.Element*, i32, %class.Packet*)*** %22, align 8, !dbg !4479, !tbaa !2712
  %24 = getelementptr inbounds void (%class.Element*, i32, %class.Packet*)*, void (%class.Element*, i32, %class.Packet*)** %23, i64 2, !dbg !4479
  %25 = load void (%class.Element*, i32, %class.Packet*)*, void (%class.Element*, i32, %class.Packet*)** %24, align 8, !dbg !4479
  call void %25(%class.Element* %18, i32 %20, %class.Packet* %21), !dbg !4479
  ret void, !dbg !4480
}

; Function Attrs: sspstrong uwtable
define dso_local void @_ZN6WebGen2CBC2Ev(%"class.WebGen::CB"* %0) unnamed_addr #0 align 2 !dbg !2993 {
  call void @llvm.dbg.value(metadata %"class.WebGen::CB"* %0, metadata !2992, metadata !DIExpression()), !dbg !4481
  call void @llvm.dbg.value(metadata %"class.WebGen::CB"* %0, metadata !2716, metadata !DIExpression()), !dbg !4482
  %2 = getelementptr inbounds %"class.WebGen::CB", %"class.WebGen::CB"* %0, i64 0, i32 0, i32 0, !dbg !4484
  store i32 0, i32* %2, align 4, !dbg !4484, !tbaa !2722
  %3 = getelementptr inbounds %"class.WebGen::CB", %"class.WebGen::CB"* %0, i64 0, i32 10, !dbg !4485
  call void @llvm.dbg.value(metadata %class.Timestamp* %3, metadata !2732, metadata !DIExpression()), !dbg !4486
  call void @llvm.dbg.value(metadata %class.Timestamp* %3, metadata !2738, metadata !DIExpression()), !dbg !4488
  call void @llvm.dbg.value(metadata i32 0, metadata !2741, metadata !DIExpression()), !dbg !4488
  call void @llvm.dbg.value(metadata i32 0, metadata !2742, metadata !DIExpression()), !dbg !4488
  %4 = getelementptr inbounds %class.Timestamp, %class.Timestamp* %3, i64 0, i32 0, i32 0, !dbg !4490
  store i64 0, i64* %4, align 8, !dbg !4491, !tbaa !3007
  %5 = getelementptr inbounds %"class.WebGen::CB", %"class.WebGen::CB"* %0, i64 0, i32 13, !dbg !4492
  %6 = bitcast %"class.WebGen::CB"** %5 to i8*, !dbg !4493
  call void @llvm.memset.p0i8.i64(i8* nonnull align 8 dereferenceable(32) %6, i8 0, i64 32, i1 false), !dbg !4494
  tail call void @_ZN9Timestamp10assign_nowEv(%class.Timestamp* nonnull %3), !dbg !4493
  ret void, !dbg !4495
}

; Function Attrs: noinline optnone sspstrong uwtable
define linkonce_odr dso_local void @_ZN9Timestamp10assign_nowEv(%class.Timestamp* %0) local_unnamed_addr #11 comdat align 2 !dbg !4496 {
  %2 = alloca %class.Timestamp*, align 8
  store %class.Timestamp* %0, %class.Timestamp** %2, align 8, !tbaa !3020
  call void @llvm.dbg.declare(metadata %class.Timestamp** %2, metadata !4498, metadata !DIExpression()), !dbg !4499
  %3 = load %class.Timestamp*, %class.Timestamp** %2, align 8
  call void @_ZN9Timestamp10assign_nowEbbb(%class.Timestamp* %3, i1 zeroext false, i1 zeroext false, i1 zeroext false), !dbg !4500
  ret void, !dbg !4501
}

declare !dbg !1273 i32 @_Z12click_randomjj(i32, i32) local_unnamed_addr #2

; Function Attrs: nofree nounwind
declare i32 @sprintf(i8* noalias nocapture, i8* nocapture readonly, ...) local_unnamed_addr #12

; Function Attrs: argmemonly nofree nounwind readonly
declare i64 @strlen(i8* nocapture) local_unnamed_addr #13

; Function Attrs: noreturn nounwind
declare void @__assert_fail(i8*, i8*, i32, i8*) local_unnamed_addr #14

declare void @_ZN7Element4pushEiP6Packet(%class.Element*, i32, %class.Packet*) unnamed_addr #2

declare %class.Packet* @_ZN7Element4pullEi(%class.Element*, i32) unnamed_addr #2

declare zeroext i1 @_ZN7Element8run_taskEP4Task(%class.Element*, %class.Task*) unnamed_addr #2

declare void @_ZN7Element8selectedEii(%class.Element*, i32, i32) unnamed_addr #2

declare void @_ZN7Element8selectedEi(%class.Element*, i32) unnamed_addr #2

; Function Attrs: nounwind sspstrong uwtable
define linkonce_odr dso_local i8* @_ZNK6WebGen10class_nameEv(%class.WebGen* %0) unnamed_addr #5 comdat align 2 !dbg !4502 {
  call void @llvm.dbg.value(metadata %class.WebGen* %0, metadata !4504, metadata !DIExpression()), !dbg !4506
  ret i8* getelementptr inbounds ([7 x i8], [7 x i8]* @.str.14, i64 0, i64 0), !dbg !4507
}

; Function Attrs: nounwind sspstrong uwtable
define linkonce_odr dso_local i8* @_ZNK6WebGen10port_countEv(%class.WebGen* %0) unnamed_addr #5 comdat align 2 !dbg !4508 {
  call void @llvm.dbg.value(metadata %class.WebGen* %0, metadata !4510, metadata !DIExpression()), !dbg !4511
  ret i8* getelementptr inbounds ([0 x i8], [0 x i8]* @_ZN7Element9PORTS_1_1E, i64 0, i64 0), !dbg !4512
}

; Function Attrs: nounwind sspstrong uwtable
define linkonce_odr dso_local i8* @_ZNK6WebGen10processingEv(%class.WebGen* %0) unnamed_addr #5 comdat align 2 !dbg !4513 {
  call void @llvm.dbg.value(metadata %class.WebGen* %0, metadata !4515, metadata !DIExpression()), !dbg !4516
  ret i8* getelementptr inbounds ([0 x i8], [0 x i8]* @_ZN7Element4PUSHE, i64 0, i64 0), !dbg !4517
}

declare i8* @_ZNK7Element9flow_codeEv(%class.Element*) unnamed_addr #2

declare i8* @_ZNK7Element5flagsEv(%class.Element*) unnamed_addr #2

declare i8* @_ZN7Element4castEPKc(%class.Element*, i8*) unnamed_addr #2

declare i8* @_ZN7Element9port_castEbiPKc(%class.Element*, i1 zeroext, i32, i8*) unnamed_addr #2

declare i32 @_ZNK7Element15configure_phaseEv(%class.Element*) unnamed_addr #2

declare void @_ZN7Element12add_handlersEv(%class.Element*) unnamed_addr #2

declare void @_ZN7Element10take_stateEPS_P12ErrorHandler(%class.Element*, %class.Element*, %class.ErrorHandler*) unnamed_addr #2

declare %class.Element* @_ZNK7Element15hotswap_elementEv(%class.Element*) unnamed_addr #2

declare void @_ZNK7Element11declarationEv(%class.String* sret, %class.Element*) unnamed_addr #2

declare zeroext i1 @_ZNK7Element20can_live_reconfigureEv(%class.Element*) unnamed_addr #2

declare i32 @_ZN7Element16live_reconfigureER6VectorI6StringEP12ErrorHandler(%class.Element*, %class.Vector* dereferenceable(16), %class.ErrorHandler*) unnamed_addr #2

declare i32 @_ZN7Element5llrpcEjPv(%class.Element*, i32, i8*) unnamed_addr #2

; Function Attrs: noinline noreturn nounwind
define linkonce_odr hidden void @__clang_call_terminate(i8* %0) local_unnamed_addr #15 comdat {
  %2 = tail call i8* @__cxa_begin_catch(i8* %0) #18
  tail call void @_ZSt9terminatev() #19
  unreachable
}

declare i8* @__cxa_begin_catch(i8*) local_unnamed_addr

declare void @_ZSt9terminatev() local_unnamed_addr

declare void @_ZN5Timer10unscheduleEv(%class.Timer*) local_unnamed_addr #2

; Function Attrs: nounwind
declare !dbg !1276 i64 @random() local_unnamed_addr #4

declare void @_ZN5Timer18schedule_at_steadyERK9Timestamp(%class.Timer*, %class.Timestamp* dereferenceable(8)) local_unnamed_addr #2

declare void @_ZN9Timestamp10assign_nowEbbb(%class.Timestamp*, i1 zeroext, i1 zeroext, i1 zeroext) local_unnamed_addr #2

declare void @_ZN5Timer14schedule_afterERK9Timestamp(%class.Timer*, %class.Timestamp* dereferenceable(8)) local_unnamed_addr #2

declare i8* @_ZNK6Packet8end_dataEv(%class.Packet*) local_unnamed_addr #2

declare %class.WritablePacket* @_ZN6Packet13expensive_putEj(%class.Packet*, i32) local_unnamed_addr #2

; Function Attrs: noinline nounwind optnone sspstrong uwtable
define linkonce_odr dso_local dereferenceable(16) %"class.Element::Port"* @_ZNK7Element4portEbi(%class.Element* %0, i1 zeroext %1, i32 %2) local_unnamed_addr #16 comdat align 2 !dbg !4518 {
  %4 = alloca %class.Element*, align 8
  %5 = alloca i8, align 1
  %6 = alloca i32, align 4
  store %class.Element* %0, %class.Element** %4, align 8, !tbaa !3020
  call void @llvm.dbg.declare(metadata %class.Element** %4, metadata !4523, metadata !DIExpression()), !dbg !4526
  %7 = zext i1 %1 to i8
  store i8 %7, i8* %5, align 1, !tbaa !4527
  call void @llvm.dbg.declare(metadata i8* %5, metadata !4524, metadata !DIExpression()), !dbg !4529
  store i32 %2, i32* %6, align 4, !tbaa !2893
  call void @llvm.dbg.declare(metadata i32* %6, metadata !4525, metadata !DIExpression()), !dbg !4530
  %8 = load %class.Element*, %class.Element** %4, align 8
  %9 = load i32, i32* %6, align 4, !dbg !4531, !tbaa !2893
  %10 = getelementptr inbounds %class.Element, %class.Element* %8, i32 0, i32 3, !dbg !4531
  %11 = load i8, i8* %5, align 1, !dbg !4531, !tbaa !4527, !range !4532
  %12 = trunc i8 %11 to i1, !dbg !4531
  %13 = zext i1 %12 to i64, !dbg !4531
  %14 = getelementptr inbounds [2 x i32], [2 x i32]* %10, i64 0, i64 %13, !dbg !4531
  %15 = load i32, i32* %14, align 4, !dbg !4531, !tbaa !2893
  %16 = icmp ult i32 %9, %15, !dbg !4531
  br i1 %16, label %17, label %18, !dbg !4531

17:                                               ; preds = %3
  br label %19, !dbg !4531

18:                                               ; preds = %3
  call void @__assert_fail(i8* getelementptr inbounds ([47 x i8], [47 x i8]* @.str.11, i64 0, i64 0), i8* getelementptr inbounds ([30 x i8], [30 x i8]* @.str.12, i64 0, i64 0), i32 437, i8* getelementptr inbounds ([52 x i8], [52 x i8]* @__PRETTY_FUNCTION__._ZNK7Element4portEbi, i64 0, i64 0)) #19, !dbg !4531
  unreachable, !dbg !4531

19:                                               ; preds = %17
  %20 = getelementptr inbounds %class.Element, %class.Element* %8, i32 0, i32 1, !dbg !4533
  %21 = load i8, i8* %5, align 1, !dbg !4534, !tbaa !4527, !range !4532
  %22 = trunc i8 %21 to i1, !dbg !4534
  %23 = zext i1 %22 to i64, !dbg !4533
  %24 = getelementptr inbounds [2 x %"class.Element::Port"*], [2 x %"class.Element::Port"*]* %20, i64 0, i64 %23, !dbg !4533
  %25 = load %"class.Element::Port"*, %"class.Element::Port"** %24, align 8, !dbg !4533, !tbaa !3020
  %26 = load i32, i32* %6, align 4, !dbg !4535, !tbaa !2893
  %27 = sext i32 %26 to i64, !dbg !4533
  %28 = getelementptr inbounds %"class.Element::Port", %"class.Element::Port"* %25, i64 %27, !dbg !4533
  ret %"class.Element::Port"* %28, !dbg !4536
}

; Function Attrs: noinline optnone sspstrong uwtable
define linkonce_odr dso_local void @_Z14args_base_readI11IPPrefixArg9IPAddressS1_EvP4ArgsPKciT_RT0_RT1_(%class.Args* %0, i8* %1, i32 %2, i8 %3, %class.IPAddress* dereferenceable(4) %4, %class.IPAddress* dereferenceable(4) %5) local_unnamed_addr #11 comdat !dbg !4537 {
  %7 = alloca %class.IPPrefixArg, align 1
  %8 = alloca %class.Args*, align 8
  %9 = alloca i8*, align 8
  %10 = alloca i32, align 4
  %11 = alloca %class.IPAddress*, align 8
  %12 = alloca %class.IPAddress*, align 8
  %13 = alloca %class.IPPrefixArg, align 1
  %14 = getelementptr inbounds %class.IPPrefixArg, %class.IPPrefixArg* %7, i32 0, i32 0
  store i8 %3, i8* %14, align 1
  store %class.Args* %0, %class.Args** %8, align 8, !tbaa !3020
  call void @llvm.dbg.declare(metadata %class.Args** %8, metadata !4539, metadata !DIExpression()), !dbg !4545
  store i8* %1, i8** %9, align 8, !tbaa !3020
  call void @llvm.dbg.declare(metadata i8** %9, metadata !4540, metadata !DIExpression()), !dbg !4546
  store i32 %2, i32* %10, align 4, !tbaa !2893
  call void @llvm.dbg.declare(metadata i32* %10, metadata !4541, metadata !DIExpression()), !dbg !4547
  call void @llvm.dbg.declare(metadata %class.IPPrefixArg* %7, metadata !4542, metadata !DIExpression()), !dbg !4548
  store %class.IPAddress* %4, %class.IPAddress** %11, align 8, !tbaa !3020
  call void @llvm.dbg.declare(metadata %class.IPAddress** %11, metadata !4543, metadata !DIExpression()), !dbg !4549
  store %class.IPAddress* %5, %class.IPAddress** %12, align 8, !tbaa !3020
  call void @llvm.dbg.declare(metadata %class.IPAddress** %12, metadata !4544, metadata !DIExpression()), !dbg !4550
  %15 = load %class.Args*, %class.Args** %8, align 8, !dbg !4551, !tbaa !3020
  %16 = load i8*, i8** %9, align 8, !dbg !4552, !tbaa !3020
  %17 = load i32, i32* %10, align 4, !dbg !4553, !tbaa !2893
  %18 = bitcast %class.IPPrefixArg* %13 to i8*, !dbg !4554
  %19 = bitcast %class.IPPrefixArg* %7 to i8*, !dbg !4554
  call void @llvm.memcpy.p0i8.p0i8.i64(i8* align 1 %18, i8* align 1 %19, i64 1, i1 false), !dbg !4554, !tbaa.struct !4555
  %20 = load %class.IPAddress*, %class.IPAddress** %11, align 8, !dbg !4556, !tbaa !3020
  %21 = load %class.IPAddress*, %class.IPAddress** %12, align 8, !dbg !4557, !tbaa !3020
  %22 = getelementptr inbounds %class.IPPrefixArg, %class.IPPrefixArg* %13, i32 0, i32 0, !dbg !4558
  %23 = load i8, i8* %22, align 1, !dbg !4558
  call void @_ZN4Args9base_readI11IPPrefixArg9IPAddressS2_EEvPKciT_RT0_RT1_(%class.Args* %15, i8* %16, i32 %17, i8 %23, %class.IPAddress* dereferenceable(4) %20, %class.IPAddress* dereferenceable(4) %21), !dbg !4558
  ret void, !dbg !4559
}

; Function Attrs: sspstrong uwtable
define linkonce_odr dso_local void @_ZN4Args9base_readI11IPPrefixArg9IPAddressS2_EEvPKciT_RT0_RT1_(%class.Args* %0, i8* %1, i32 %2, i8 %3, %class.IPAddress* dereferenceable(4) %4, %class.IPAddress* dereferenceable(4) %5) local_unnamed_addr #0 comdat align 2 personality i8* bitcast (i32 (...)* @__gxx_personality_v0 to i8*) !dbg !4560 {
  %7 = alloca %class.IPPrefixArg, align 1
  call void @llvm.dbg.declare(metadata %class.IPPrefixArg* %7, metadata !4577, metadata !DIExpression()), !dbg !4592
  %8 = alloca %"struct.Args::Slot"*, align 8
  %9 = alloca %class.String, align 8
  call void @llvm.dbg.value(metadata i8 %3, metadata !4568, metadata !DIExpression()), !dbg !4594
  call void @llvm.dbg.value(metadata %class.Args* %0, metadata !4565, metadata !DIExpression()), !dbg !4594
  call void @llvm.dbg.value(metadata i8* %1, metadata !4566, metadata !DIExpression()), !dbg !4594
  call void @llvm.dbg.value(metadata i32 %2, metadata !4567, metadata !DIExpression()), !dbg !4594
  call void @llvm.dbg.value(metadata %class.IPAddress* %4, metadata !4569, metadata !DIExpression()), !dbg !4594
  call void @llvm.dbg.value(metadata %class.IPAddress* %5, metadata !4570, metadata !DIExpression()), !dbg !4594
  %10 = bitcast %"struct.Args::Slot"** %8 to i8*, !dbg !4595
  call void @llvm.lifetime.start.p0i8(i64 8, i8* nonnull %10) #18, !dbg !4595
  %11 = bitcast %class.String* %9 to i8*, !dbg !4596
  call void @llvm.lifetime.start.p0i8(i64 24, i8* nonnull %11) #18, !dbg !4596
  call void @llvm.dbg.declare(metadata %class.String* %9, metadata !4572, metadata !DIExpression()), !dbg !4597
  call void @llvm.dbg.value(metadata %"struct.Args::Slot"** %8, metadata !4571, metadata !DIExpression(DW_OP_deref)), !dbg !4594
  call void @_ZN4Args4findEPKciRPNS_4SlotE(%class.String* nonnull sret %9, %class.Args* %0, i8* %1, i32 %2, %"struct.Args::Slot"** nonnull dereferenceable(8) %8), !dbg !4598
  call void @llvm.dbg.value(metadata %class.String* %9, metadata !4599, metadata !DIExpression()), !dbg !4602
  %12 = getelementptr inbounds %class.String, %class.String* %9, i64 0, i32 0, i32 1, !dbg !4604
  %13 = load i32, i32* %12, align 8, !dbg !4604, !tbaa !4605
  %14 = icmp eq i32 %13, 0, !dbg !4608
  %15 = select i1 %14, { i64, i64 } zeroinitializer, { i64, i64 } { i64 ptrtoint (i32 (%class.String*)* @_ZNK6String6lengthEv to i64), i64 0 }, !dbg !4609
  %16 = extractvalue { i64, i64 } %15, 0, !dbg !4597
  %17 = icmp eq i64 %16, 0, !dbg !4597
  br i1 %17, label %62, label %18, !dbg !4596

18:                                               ; preds = %6
  call void @llvm.dbg.value(metadata %class.IPAddress* %4, metadata !4610, metadata !DIExpression()), !dbg !4618
  call void @llvm.dbg.value(metadata %class.Args* %0, metadata !4617, metadata !DIExpression()), !dbg !4618
  call void @llvm.dbg.value(metadata %class.Args* %0, metadata !4620, metadata !DIExpression()), !dbg !4627
  call void @llvm.dbg.value(metadata %class.IPAddress* %4, metadata !4626, metadata !DIExpression()), !dbg !4627
  %19 = bitcast %class.IPAddress* %4 to i8*, !dbg !4629
  %20 = invoke i8* @_ZN4Args11simple_slotEPvm(%class.Args* nonnull %0, i8* nonnull %19, i64 4)
          to label %21 unwind label %38, !dbg !4631

21:                                               ; preds = %18
  %22 = bitcast i8* %20 to %class.IPAddress*, !dbg !4632
  call void @llvm.dbg.value(metadata %class.IPAddress* %22, metadata !4574, metadata !DIExpression()), !dbg !4633
  call void @llvm.dbg.value(metadata %class.IPAddress* %5, metadata !4610, metadata !DIExpression()), !dbg !4634
  call void @llvm.dbg.value(metadata %class.Args* %0, metadata !4617, metadata !DIExpression()), !dbg !4634
  call void @llvm.dbg.value(metadata %class.Args* %0, metadata !4620, metadata !DIExpression()), !dbg !4636
  call void @llvm.dbg.value(metadata %class.IPAddress* %5, metadata !4626, metadata !DIExpression()), !dbg !4636
  %23 = bitcast %class.IPAddress* %5 to i8*, !dbg !4638
  %24 = invoke i8* @_ZN4Args11simple_slotEPvm(%class.Args* nonnull %0, i8* nonnull %23, i64 4)
          to label %25 unwind label %40, !dbg !4639

25:                                               ; preds = %21
  call void @llvm.dbg.value(metadata i8* %24, metadata !4576, metadata !DIExpression()), !dbg !4633
  %26 = icmp ne i8* %20, null, !dbg !4640
  %27 = icmp ne i8* %24, null, !dbg !4641
  %28 = and i1 %26, %27, !dbg !4642
  br i1 %28, label %29, label %35, !dbg !4642

29:                                               ; preds = %25
  %30 = bitcast i8* %24 to %class.IPAddress*, !dbg !4643
  call void @llvm.dbg.value(metadata %class.IPAddress* %30, metadata !4576, metadata !DIExpression()), !dbg !4633
  %31 = getelementptr inbounds %class.IPPrefixArg, %class.IPPrefixArg* %7, i64 0, i32 0
  call void @llvm.lifetime.start.p0i8(i64 1, i8* nonnull %31)
  store i8 %3, i8* %31, align 1
  call void @llvm.dbg.value(metadata %class.String* %9, metadata !4588, metadata !DIExpression()), !dbg !4644
  call void @llvm.dbg.value(metadata %class.IPAddress* %22, metadata !4589, metadata !DIExpression()), !dbg !4644
  call void @llvm.dbg.value(metadata %class.IPAddress* %30, metadata !4590, metadata !DIExpression()), !dbg !4644
  call void @llvm.dbg.value(metadata %class.Args* %0, metadata !4591, metadata !DIExpression()), !dbg !4644
  %32 = bitcast %class.Args* %0 to %class.ArgContext*, !dbg !4645
  %33 = invoke zeroext i1 @_ZNK11IPPrefixArg5parseERK6StringR9IPAddressS4_RK10ArgContext(%class.IPPrefixArg* nonnull %7, %class.String* nonnull dereferenceable(24) %9, %class.IPAddress* nonnull dereferenceable(4) %22, %class.IPAddress* nonnull dereferenceable(4) %30, %class.ArgContext* nonnull dereferenceable(32) %32)
          to label %34 unwind label %40, !dbg !4646

34:                                               ; preds = %29
  call void @llvm.lifetime.end.p0i8(i64 1, i8* nonnull %31), !dbg !4647
  br label %35, !dbg !4647

35:                                               ; preds = %34, %25
  %36 = phi i1 [ false, %25 ], [ %33, %34 ], !dbg !4633
  %37 = load %"struct.Args::Slot"*, %"struct.Args::Slot"** %8, align 8, !dbg !4648, !tbaa !3020
  call void @llvm.dbg.value(metadata %"struct.Args::Slot"* %37, metadata !4571, metadata !DIExpression()), !dbg !4594
  invoke void @_ZN4Args9postparseEbPNS_4SlotE(%class.Args* nonnull %0, i1 zeroext %36, %"struct.Args::Slot"* %37)
          to label %62 unwind label %40, !dbg !4649

38:                                               ; preds = %18
  %39 = landingpad { i8*, i32 }
          cleanup, !dbg !4650
  br label %42, !dbg !4650

40:                                               ; preds = %29, %21, %35
  %41 = landingpad { i8*, i32 }
          cleanup, !dbg !4650
  br label %42, !dbg !4651

42:                                               ; preds = %40, %38
  %43 = phi { i8*, i32 } [ %41, %40 ], [ %39, %38 ]
  call void @llvm.dbg.value(metadata %class.String* %9, metadata !4652, metadata !DIExpression()) #18, !dbg !4655
  call void @llvm.dbg.value(metadata %class.String* %9, metadata !4657, metadata !DIExpression()) #18, !dbg !4660
  %44 = getelementptr inbounds %class.String, %class.String* %9, i64 0, i32 0, i32 2, !dbg !4663
  %45 = load %"struct.String::memo_t"*, %"struct.String::memo_t"** %44, align 8, !dbg !4663, !tbaa !4665
  %46 = icmp eq %"struct.String::memo_t"* %45, null, !dbg !4666
  br i1 %46, label %61, label %47, !dbg !4667

47:                                               ; preds = %42
  %48 = getelementptr inbounds %"struct.String::memo_t", %"struct.String::memo_t"* %45, i64 0, i32 0, !dbg !4668
  %49 = load volatile i32, i32* %48, align 4, !dbg !4668, !tbaa !4670
  %50 = icmp eq i32 %49, 0, !dbg !4668
  br i1 %50, label %51, label %52, !dbg !4668

51:                                               ; preds = %47
  call void @__assert_fail(i8* getelementptr inbounds ([18 x i8], [18 x i8]* @.str.15, i64 0, i64 0), i8* getelementptr inbounds ([29 x i8], [29 x i8]* @.str.16, i64 0, i64 0), i32 273, i8* getelementptr inbounds ([27 x i8], [27 x i8]* @__PRETTY_FUNCTION__._ZNK6String5derefEv, i64 0, i64 0)) #19, !dbg !4668
  unreachable, !dbg !4668

52:                                               ; preds = %47
  call void @llvm.dbg.value(metadata i32* %48, metadata !4672, metadata !DIExpression()) #18, !dbg !4675
  %53 = load volatile i32, i32* %48, align 4, !dbg !4678, !tbaa !2893
  %54 = add i32 %53, -1, !dbg !4678
  store volatile i32 %54, i32* %48, align 4, !dbg !4678, !tbaa !2893
  %55 = icmp eq i32 %54, 0, !dbg !4679
  br i1 %55, label %56, label %57, !dbg !4680

56:                                               ; preds = %52
  invoke void @_ZN6String11delete_memoEPNS_6memo_tE(%"struct.String::memo_t"* nonnull %45)
          to label %57 unwind label %58, !dbg !4681

57:                                               ; preds = %56, %52
  store %"struct.String::memo_t"* null, %"struct.String::memo_t"** %44, align 8, !dbg !4682, !tbaa !4665
  br label %61, !dbg !4683

58:                                               ; preds = %56
  %59 = landingpad { i8*, i32 }
          catch i8* null, !dbg !4684
  %60 = extractvalue { i8*, i32 } %59, 0, !dbg !4684
  call void @__clang_call_terminate(i8* %60) #19, !dbg !4684
  unreachable, !dbg !4684

61:                                               ; preds = %42, %57
  call void @llvm.lifetime.end.p0i8(i64 24, i8* nonnull %11) #18, !dbg !4596
  call void @llvm.lifetime.end.p0i8(i64 8, i8* nonnull %10) #18, !dbg !4685
  resume { i8*, i32 } %43, !dbg !4685

62:                                               ; preds = %35, %6
  call void @llvm.dbg.value(metadata %class.String* %9, metadata !4652, metadata !DIExpression()) #18, !dbg !4686
  call void @llvm.dbg.value(metadata %class.String* %9, metadata !4657, metadata !DIExpression()) #18, !dbg !4688
  %63 = getelementptr inbounds %class.String, %class.String* %9, i64 0, i32 0, i32 2, !dbg !4690
  %64 = load %"struct.String::memo_t"*, %"struct.String::memo_t"** %63, align 8, !dbg !4690, !tbaa !4665
  %65 = icmp eq %"struct.String::memo_t"* %64, null, !dbg !4691
  br i1 %65, label %80, label %66, !dbg !4692

66:                                               ; preds = %62
  %67 = getelementptr inbounds %"struct.String::memo_t", %"struct.String::memo_t"* %64, i64 0, i32 0, !dbg !4693
  %68 = load volatile i32, i32* %67, align 4, !dbg !4693, !tbaa !4670
  %69 = icmp eq i32 %68, 0, !dbg !4693
  br i1 %69, label %70, label %71, !dbg !4693

70:                                               ; preds = %66
  call void @__assert_fail(i8* getelementptr inbounds ([18 x i8], [18 x i8]* @.str.15, i64 0, i64 0), i8* getelementptr inbounds ([29 x i8], [29 x i8]* @.str.16, i64 0, i64 0), i32 273, i8* getelementptr inbounds ([27 x i8], [27 x i8]* @__PRETTY_FUNCTION__._ZNK6String5derefEv, i64 0, i64 0)) #19, !dbg !4693
  unreachable, !dbg !4693

71:                                               ; preds = %66
  call void @llvm.dbg.value(metadata i32* %67, metadata !4672, metadata !DIExpression()) #18, !dbg !4694
  %72 = load volatile i32, i32* %67, align 4, !dbg !4696, !tbaa !2893
  %73 = add i32 %72, -1, !dbg !4696
  store volatile i32 %73, i32* %67, align 4, !dbg !4696, !tbaa !2893
  %74 = icmp eq i32 %73, 0, !dbg !4697
  br i1 %74, label %75, label %76, !dbg !4698

75:                                               ; preds = %71
  invoke void @_ZN6String11delete_memoEPNS_6memo_tE(%"struct.String::memo_t"* nonnull %64)
          to label %76 unwind label %77, !dbg !4699

76:                                               ; preds = %75, %71
  store %"struct.String::memo_t"* null, %"struct.String::memo_t"** %63, align 8, !dbg !4700, !tbaa !4665
  br label %80, !dbg !4701

77:                                               ; preds = %75
  %78 = landingpad { i8*, i32 }
          catch i8* null, !dbg !4702
  %79 = extractvalue { i8*, i32 } %78, 0, !dbg !4702
  call void @__clang_call_terminate(i8* %79) #19, !dbg !4702
  unreachable, !dbg !4702

80:                                               ; preds = %62, %76
  call void @llvm.lifetime.end.p0i8(i64 24, i8* nonnull %11) #18, !dbg !4596
  call void @llvm.lifetime.end.p0i8(i64 8, i8* nonnull %10) #18, !dbg !4685
  ret void, !dbg !4685
}

declare void @_ZN4Args4findEPKciRPNS_4SlotE(%class.String* sret, %class.Args*, i8*, i32, %"struct.Args::Slot"** dereferenceable(8)) local_unnamed_addr #2

declare void @_ZN4Args9postparseEbPNS_4SlotE(%class.Args*, i1 zeroext, %"struct.Args::Slot"*) local_unnamed_addr #2

; Function Attrs: inlinehint nounwind sspstrong uwtable
define linkonce_odr dso_local i32 @_ZNK6String6lengthEv(%class.String* %0) #17 comdat align 2 !dbg !4703 {
  call void @llvm.dbg.value(metadata %class.String* %0, metadata !4705, metadata !DIExpression()), !dbg !4706
  %2 = getelementptr inbounds %class.String, %class.String* %0, i64 0, i32 0, i32 1, !dbg !4707
  %3 = load i32, i32* %2, align 8, !dbg !4707, !tbaa !4605
  ret i32 %3, !dbg !4708
}

declare i8* @_ZN4Args11simple_slotEPvm(%class.Args*, i8*, i64) local_unnamed_addr #2

declare zeroext i1 @_ZNK11IPPrefixArg5parseERK6StringR9IPAddressS4_RK10ArgContext(%class.IPPrefixArg*, %class.String* dereferenceable(24), %class.IPAddress* dereferenceable(4), %class.IPAddress* dereferenceable(4), %class.ArgContext* dereferenceable(32)) local_unnamed_addr #2

declare void @_ZN6String11delete_memoEPNS_6memo_tE(%"struct.String::memo_t"*) local_unnamed_addr #2

; Function Attrs: noinline optnone sspstrong uwtable
define linkonce_odr dso_local void @_Z14args_base_readI9IPAddressEvP4ArgsPKciRT_(%class.Args* %0, i8* %1, i32 %2, %class.IPAddress* dereferenceable(4) %3) local_unnamed_addr #11 comdat !dbg !4709 {
  %5 = alloca %class.Args*, align 8
  %6 = alloca i8*, align 8
  %7 = alloca i32, align 4
  %8 = alloca %class.IPAddress*, align 8
  store %class.Args* %0, %class.Args** %5, align 8, !tbaa !3020
  call void @llvm.dbg.declare(metadata %class.Args** %5, metadata !4711, metadata !DIExpression()), !dbg !4715
  store i8* %1, i8** %6, align 8, !tbaa !3020
  call void @llvm.dbg.declare(metadata i8** %6, metadata !4712, metadata !DIExpression()), !dbg !4716
  store i32 %2, i32* %7, align 4, !tbaa !2893
  call void @llvm.dbg.declare(metadata i32* %7, metadata !4713, metadata !DIExpression()), !dbg !4717
  store %class.IPAddress* %3, %class.IPAddress** %8, align 8, !tbaa !3020
  call void @llvm.dbg.declare(metadata %class.IPAddress** %8, metadata !4714, metadata !DIExpression()), !dbg !4718
  %9 = load %class.Args*, %class.Args** %5, align 8, !dbg !4719, !tbaa !3020
  %10 = load i8*, i8** %6, align 8, !dbg !4720, !tbaa !3020
  %11 = load i32, i32* %7, align 4, !dbg !4721, !tbaa !2893
  %12 = load %class.IPAddress*, %class.IPAddress** %8, align 8, !dbg !4722, !tbaa !3020
  call void @_ZN4Args9base_readI9IPAddressEEvPKciRT_(%class.Args* %9, i8* %10, i32 %11, %class.IPAddress* dereferenceable(4) %12), !dbg !4723
  ret void, !dbg !4724
}

; Function Attrs: sspstrong uwtable
define linkonce_odr dso_local void @_ZN4Args9base_readI9IPAddressEEvPKciRT_(%class.Args* %0, i8* %1, i32 %2, %class.IPAddress* dereferenceable(4) %3) local_unnamed_addr #0 comdat align 2 personality i8* bitcast (i32 (...)* @__gxx_personality_v0 to i8*) !dbg !4725 {
  %5 = alloca %"struct.Args::Slot"*, align 8
  %6 = alloca %class.String, align 8
  call void @llvm.dbg.value(metadata %class.Args* %0, metadata !4730, metadata !DIExpression()), !dbg !4739
  call void @llvm.dbg.value(metadata i8* %1, metadata !4731, metadata !DIExpression()), !dbg !4739
  call void @llvm.dbg.value(metadata i32 %2, metadata !4732, metadata !DIExpression()), !dbg !4739
  call void @llvm.dbg.value(metadata %class.IPAddress* %3, metadata !4733, metadata !DIExpression()), !dbg !4739
  %7 = bitcast %"struct.Args::Slot"** %5 to i8*, !dbg !4740
  call void @llvm.lifetime.start.p0i8(i64 8, i8* nonnull %7) #18, !dbg !4740
  %8 = bitcast %class.String* %6 to i8*, !dbg !4741
  call void @llvm.lifetime.start.p0i8(i64 24, i8* nonnull %8) #18, !dbg !4741
  call void @llvm.dbg.declare(metadata %class.String* %6, metadata !4735, metadata !DIExpression()), !dbg !4742
  call void @llvm.dbg.value(metadata %"struct.Args::Slot"** %5, metadata !4734, metadata !DIExpression(DW_OP_deref)), !dbg !4739
  call void @_ZN4Args4findEPKciRPNS_4SlotE(%class.String* nonnull sret %6, %class.Args* %0, i8* %1, i32 %2, %"struct.Args::Slot"** nonnull dereferenceable(8) %5), !dbg !4743
  call void @llvm.dbg.value(metadata %class.String* %6, metadata !4599, metadata !DIExpression()), !dbg !4744
  %9 = getelementptr inbounds %class.String, %class.String* %6, i64 0, i32 0, i32 1, !dbg !4746
  %10 = load i32, i32* %9, align 8, !dbg !4746, !tbaa !4605
  %11 = icmp eq i32 %10, 0, !dbg !4747
  %12 = select i1 %11, { i64, i64 } zeroinitializer, { i64, i64 } { i64 ptrtoint (i32 (%class.String*)* @_ZNK6String6lengthEv to i64), i64 0 }, !dbg !4748
  %13 = extractvalue { i64, i64 } %12, 0, !dbg !4742
  %14 = icmp eq i64 %13, 0, !dbg !4742
  br i1 %14, label %47, label %15, !dbg !4741

15:                                               ; preds = %4
  call void @llvm.dbg.value(metadata %class.IPAddress* %3, metadata !4749, metadata !DIExpression()), !dbg !4776
  call void @llvm.dbg.value(metadata %class.Args* %0, metadata !4775, metadata !DIExpression()), !dbg !4776
  call void @llvm.dbg.value(metadata %class.Args* %0, metadata !4620, metadata !DIExpression()), !dbg !4778
  call void @llvm.dbg.value(metadata %class.IPAddress* %3, metadata !4626, metadata !DIExpression()), !dbg !4778
  %16 = bitcast %class.IPAddress* %3 to i8*, !dbg !4780
  %17 = invoke i8* @_ZN4Args11simple_slotEPvm(%class.Args* nonnull %0, i8* nonnull %16, i64 4)
          to label %18 unwind label %27, !dbg !4781

18:                                               ; preds = %15
  call void @llvm.dbg.value(metadata i8* %17, metadata !4737, metadata !DIExpression()), !dbg !4782
  %19 = icmp eq i8* %17, null, !dbg !4783
  br i1 %19, label %24, label %20, !dbg !4784

20:                                               ; preds = %18
  %21 = bitcast i8* %17 to %class.IPAddress*, !dbg !4785
  call void @llvm.dbg.value(metadata %class.IPAddress* %21, metadata !4737, metadata !DIExpression()), !dbg !4782
  call void @llvm.dbg.value(metadata %class.String* %6, metadata !4786, metadata !DIExpression()), !dbg !4795
  call void @llvm.dbg.value(metadata %class.IPAddress* %21, metadata !4793, metadata !DIExpression()), !dbg !4795
  call void @llvm.dbg.value(metadata %class.Args* %0, metadata !4794, metadata !DIExpression()), !dbg !4795
  %22 = bitcast %class.Args* %0 to %class.ArgContext*, !dbg !4797
  %23 = invoke zeroext i1 @_ZN12IPAddressArg5parseERK6StringR9IPAddressRK10ArgContext(%class.String* nonnull dereferenceable(24) %6, %class.IPAddress* nonnull dereferenceable(4) %21, %class.ArgContext* nonnull dereferenceable(32) %22)
          to label %24 unwind label %27, !dbg !4798

24:                                               ; preds = %20, %18
  %25 = phi i1 [ false, %18 ], [ %23, %20 ], !dbg !4782
  %26 = load %"struct.Args::Slot"*, %"struct.Args::Slot"** %5, align 8, !dbg !4799, !tbaa !3020
  call void @llvm.dbg.value(metadata %"struct.Args::Slot"* %26, metadata !4734, metadata !DIExpression()), !dbg !4739
  invoke void @_ZN4Args9postparseEbPNS_4SlotE(%class.Args* nonnull %0, i1 zeroext %25, %"struct.Args::Slot"* %26)
          to label %47 unwind label %27, !dbg !4800

27:                                               ; preds = %20, %15, %24
  %28 = landingpad { i8*, i32 }
          cleanup, !dbg !4801
  call void @llvm.dbg.value(metadata %class.String* %6, metadata !4652, metadata !DIExpression()) #18, !dbg !4802
  call void @llvm.dbg.value(metadata %class.String* %6, metadata !4657, metadata !DIExpression()) #18, !dbg !4804
  %29 = getelementptr inbounds %class.String, %class.String* %6, i64 0, i32 0, i32 2, !dbg !4806
  %30 = load %"struct.String::memo_t"*, %"struct.String::memo_t"** %29, align 8, !dbg !4806, !tbaa !4665
  %31 = icmp eq %"struct.String::memo_t"* %30, null, !dbg !4807
  br i1 %31, label %46, label %32, !dbg !4808

32:                                               ; preds = %27
  %33 = getelementptr inbounds %"struct.String::memo_t", %"struct.String::memo_t"* %30, i64 0, i32 0, !dbg !4809
  %34 = load volatile i32, i32* %33, align 4, !dbg !4809, !tbaa !4670
  %35 = icmp eq i32 %34, 0, !dbg !4809
  br i1 %35, label %36, label %37, !dbg !4809

36:                                               ; preds = %32
  call void @__assert_fail(i8* getelementptr inbounds ([18 x i8], [18 x i8]* @.str.15, i64 0, i64 0), i8* getelementptr inbounds ([29 x i8], [29 x i8]* @.str.16, i64 0, i64 0), i32 273, i8* getelementptr inbounds ([27 x i8], [27 x i8]* @__PRETTY_FUNCTION__._ZNK6String5derefEv, i64 0, i64 0)) #19, !dbg !4809
  unreachable, !dbg !4809

37:                                               ; preds = %32
  call void @llvm.dbg.value(metadata i32* %33, metadata !4672, metadata !DIExpression()) #18, !dbg !4810
  %38 = load volatile i32, i32* %33, align 4, !dbg !4812, !tbaa !2893
  %39 = add i32 %38, -1, !dbg !4812
  store volatile i32 %39, i32* %33, align 4, !dbg !4812, !tbaa !2893
  %40 = icmp eq i32 %39, 0, !dbg !4813
  br i1 %40, label %41, label %42, !dbg !4814

41:                                               ; preds = %37
  invoke void @_ZN6String11delete_memoEPNS_6memo_tE(%"struct.String::memo_t"* nonnull %30)
          to label %42 unwind label %43, !dbg !4815

42:                                               ; preds = %41, %37
  store %"struct.String::memo_t"* null, %"struct.String::memo_t"** %29, align 8, !dbg !4816, !tbaa !4665
  br label %46, !dbg !4817

43:                                               ; preds = %41
  %44 = landingpad { i8*, i32 }
          catch i8* null, !dbg !4818
  %45 = extractvalue { i8*, i32 } %44, 0, !dbg !4818
  call void @__clang_call_terminate(i8* %45) #19, !dbg !4818
  unreachable, !dbg !4818

46:                                               ; preds = %27, %42
  call void @llvm.lifetime.end.p0i8(i64 24, i8* nonnull %8) #18, !dbg !4741
  call void @llvm.lifetime.end.p0i8(i64 8, i8* nonnull %7) #18, !dbg !4819
  resume { i8*, i32 } %28, !dbg !4819

47:                                               ; preds = %24, %4
  call void @llvm.dbg.value(metadata %class.String* %6, metadata !4652, metadata !DIExpression()) #18, !dbg !4820
  call void @llvm.dbg.value(metadata %class.String* %6, metadata !4657, metadata !DIExpression()) #18, !dbg !4822
  %48 = getelementptr inbounds %class.String, %class.String* %6, i64 0, i32 0, i32 2, !dbg !4824
  %49 = load %"struct.String::memo_t"*, %"struct.String::memo_t"** %48, align 8, !dbg !4824, !tbaa !4665
  %50 = icmp eq %"struct.String::memo_t"* %49, null, !dbg !4825
  br i1 %50, label %65, label %51, !dbg !4826

51:                                               ; preds = %47
  %52 = getelementptr inbounds %"struct.String::memo_t", %"struct.String::memo_t"* %49, i64 0, i32 0, !dbg !4827
  %53 = load volatile i32, i32* %52, align 4, !dbg !4827, !tbaa !4670
  %54 = icmp eq i32 %53, 0, !dbg !4827
  br i1 %54, label %55, label %56, !dbg !4827

55:                                               ; preds = %51
  call void @__assert_fail(i8* getelementptr inbounds ([18 x i8], [18 x i8]* @.str.15, i64 0, i64 0), i8* getelementptr inbounds ([29 x i8], [29 x i8]* @.str.16, i64 0, i64 0), i32 273, i8* getelementptr inbounds ([27 x i8], [27 x i8]* @__PRETTY_FUNCTION__._ZNK6String5derefEv, i64 0, i64 0)) #19, !dbg !4827
  unreachable, !dbg !4827

56:                                               ; preds = %51
  call void @llvm.dbg.value(metadata i32* %52, metadata !4672, metadata !DIExpression()) #18, !dbg !4828
  %57 = load volatile i32, i32* %52, align 4, !dbg !4830, !tbaa !2893
  %58 = add i32 %57, -1, !dbg !4830
  store volatile i32 %58, i32* %52, align 4, !dbg !4830, !tbaa !2893
  %59 = icmp eq i32 %58, 0, !dbg !4831
  br i1 %59, label %60, label %61, !dbg !4832

60:                                               ; preds = %56
  invoke void @_ZN6String11delete_memoEPNS_6memo_tE(%"struct.String::memo_t"* nonnull %49)
          to label %61 unwind label %62, !dbg !4833

61:                                               ; preds = %60, %56
  store %"struct.String::memo_t"* null, %"struct.String::memo_t"** %48, align 8, !dbg !4834, !tbaa !4665
  br label %65, !dbg !4835

62:                                               ; preds = %60
  %63 = landingpad { i8*, i32 }
          catch i8* null, !dbg !4836
  %64 = extractvalue { i8*, i32 } %63, 0, !dbg !4836
  call void @__clang_call_terminate(i8* %64) #19, !dbg !4836
  unreachable, !dbg !4836

65:                                               ; preds = %47, %61
  call void @llvm.lifetime.end.p0i8(i64 24, i8* nonnull %8) #18, !dbg !4741
  call void @llvm.lifetime.end.p0i8(i64 8, i8* nonnull %7) #18, !dbg !4819
  ret void, !dbg !4819
}

declare zeroext i1 @_ZN12IPAddressArg5parseERK6StringR9IPAddressRK10ArgContext(%class.String* dereferenceable(24), %class.IPAddress* dereferenceable(4), %class.ArgContext* dereferenceable(32)) local_unnamed_addr #2

; Function Attrs: noinline optnone sspstrong uwtable
define linkonce_odr dso_local void @_Z14args_base_readIiEvP4ArgsPKciRT_(%class.Args* %0, i8* %1, i32 %2, i32* dereferenceable(4) %3) local_unnamed_addr #11 comdat !dbg !4837 {
  %5 = alloca %class.Args*, align 8
  %6 = alloca i8*, align 8
  %7 = alloca i32, align 4
  %8 = alloca i32*, align 8
  store %class.Args* %0, %class.Args** %5, align 8, !tbaa !3020
  call void @llvm.dbg.declare(metadata %class.Args** %5, metadata !4839, metadata !DIExpression()), !dbg !4843
  store i8* %1, i8** %6, align 8, !tbaa !3020
  call void @llvm.dbg.declare(metadata i8** %6, metadata !4840, metadata !DIExpression()), !dbg !4844
  store i32 %2, i32* %7, align 4, !tbaa !2893
  call void @llvm.dbg.declare(metadata i32* %7, metadata !4841, metadata !DIExpression()), !dbg !4845
  store i32* %3, i32** %8, align 8, !tbaa !3020
  call void @llvm.dbg.declare(metadata i32** %8, metadata !4842, metadata !DIExpression()), !dbg !4846
  %9 = load %class.Args*, %class.Args** %5, align 8, !dbg !4847, !tbaa !3020
  %10 = load i8*, i8** %6, align 8, !dbg !4848, !tbaa !3020
  %11 = load i32, i32* %7, align 4, !dbg !4849, !tbaa !2893
  %12 = load i32*, i32** %8, align 8, !dbg !4850, !tbaa !3020
  call void @_ZN4Args9base_readIiEEvPKciRT_(%class.Args* %9, i8* %10, i32 %11, i32* dereferenceable(4) %12), !dbg !4851
  ret void, !dbg !4852
}

; Function Attrs: sspstrong uwtable
define linkonce_odr dso_local void @_ZN4Args9base_readIiEEvPKciRT_(%class.Args* %0, i8* %1, i32 %2, i32* dereferenceable(4) %3) local_unnamed_addr #0 comdat align 2 personality i8* bitcast (i32 (...)* @__gxx_personality_v0 to i8*) !dbg !4853 {
  %5 = alloca [1 x i32], align 4
  call void @llvm.dbg.declare(metadata [1 x i32]* %5, metadata !1821, metadata !DIExpression()), !dbg !4867
  %6 = alloca i64, align 8
  %7 = alloca %"struct.Args::Slot"*, align 8
  %8 = alloca %class.String, align 8
  call void @llvm.dbg.value(metadata %class.Args* %0, metadata !4858, metadata !DIExpression()), !dbg !4896
  call void @llvm.dbg.value(metadata i8* %1, metadata !4859, metadata !DIExpression()), !dbg !4896
  call void @llvm.dbg.value(metadata i32 %2, metadata !4860, metadata !DIExpression()), !dbg !4896
  call void @llvm.dbg.value(metadata i32* %3, metadata !4861, metadata !DIExpression()), !dbg !4896
  %9 = bitcast %"struct.Args::Slot"** %7 to i8*, !dbg !4897
  call void @llvm.lifetime.start.p0i8(i64 8, i8* nonnull %9) #18, !dbg !4897
  %10 = bitcast %class.String* %8 to i8*, !dbg !4898
  call void @llvm.lifetime.start.p0i8(i64 24, i8* nonnull %10) #18, !dbg !4898
  call void @llvm.dbg.declare(metadata %class.String* %8, metadata !4863, metadata !DIExpression()), !dbg !4899
  call void @llvm.dbg.value(metadata %"struct.Args::Slot"** %7, metadata !4862, metadata !DIExpression(DW_OP_deref)), !dbg !4896
  call void @_ZN4Args4findEPKciRPNS_4SlotE(%class.String* nonnull sret %8, %class.Args* %0, i8* %1, i32 %2, %"struct.Args::Slot"** nonnull dereferenceable(8) %7), !dbg !4900
  call void @llvm.dbg.value(metadata %class.String* %8, metadata !4599, metadata !DIExpression()), !dbg !4901
  %11 = getelementptr inbounds %class.String, %class.String* %8, i64 0, i32 0, i32 1, !dbg !4903
  %12 = load i32, i32* %11, align 8, !dbg !4903, !tbaa !4605
  %13 = icmp eq i32 %12, 0, !dbg !4904
  %14 = select i1 %13, { i64, i64 } zeroinitializer, { i64, i64 } { i64 ptrtoint (i32 (%class.String*)* @_ZNK6String6lengthEv to i64), i64 0 }, !dbg !4905
  %15 = extractvalue { i64, i64 } %14, 0, !dbg !4899
  %16 = icmp eq i64 %15, 0, !dbg !4899
  br i1 %16, label %77, label %17, !dbg !4898

17:                                               ; preds = %4
  call void @llvm.dbg.value(metadata i32* %3, metadata !4906, metadata !DIExpression()), !dbg !4913
  call void @llvm.dbg.value(metadata %class.Args* %0, metadata !4912, metadata !DIExpression()), !dbg !4913
  call void @llvm.dbg.value(metadata %class.Args* %0, metadata !4915, metadata !DIExpression()), !dbg !4922
  call void @llvm.dbg.value(metadata i32* %3, metadata !4921, metadata !DIExpression()), !dbg !4922
  %18 = bitcast i32* %3 to i8*, !dbg !4924
  %19 = invoke i8* @_ZN4Args11simple_slotEPvm(%class.Args* nonnull %0, i8* nonnull %18, i64 4)
          to label %20 unwind label %57, !dbg !4926

20:                                               ; preds = %17
  %21 = bitcast i8* %19 to i32*, !dbg !4927
  call void @llvm.dbg.value(metadata i32* %21, metadata !4865, metadata !DIExpression()), !dbg !4928
  %22 = icmp eq i8* %19, null, !dbg !4929
  br i1 %22, label %54, label %23, !dbg !4930

23:                                               ; preds = %20
  %24 = bitcast i64* %6 to i8*, !dbg !4931
  call void @llvm.lifetime.start.p0i8(i64 8, i8* nonnull %24), !dbg !4931
  call void @llvm.dbg.value(metadata i64 0, metadata !4891, metadata !DIExpression()), !dbg !4931
  store i64 0, i64* %6, align 8
  call void @llvm.dbg.value(metadata %class.String* %8, metadata !4892, metadata !DIExpression()), !dbg !4931
  call void @llvm.dbg.value(metadata i32* %21, metadata !4893, metadata !DIExpression()), !dbg !4931
  call void @llvm.dbg.value(metadata %class.Args* %0, metadata !4894, metadata !DIExpression()), !dbg !4931
  %25 = bitcast i64* %6 to %class.IntArg*, !dbg !4932
  %26 = bitcast %class.Args* %0 to %class.ArgContext*, !dbg !4933
  call void @llvm.dbg.value(metadata %class.IntArg* %25, metadata !4873, metadata !DIExpression()), !dbg !4934
  call void @llvm.dbg.value(metadata %class.String* %8, metadata !4874, metadata !DIExpression()), !dbg !4934
  call void @llvm.dbg.value(metadata i32* %21, metadata !4875, metadata !DIExpression()), !dbg !4934
  call void @llvm.dbg.value(metadata %class.ArgContext* %26, metadata !4876, metadata !DIExpression()), !dbg !4934
  call void @llvm.dbg.value(metadata %class.IntArg* %25, metadata !1814, metadata !DIExpression()), !dbg !4935
  call void @llvm.dbg.value(metadata %class.String* %8, metadata !1816, metadata !DIExpression()), !dbg !4935
  call void @llvm.dbg.value(metadata %class.ArgContext* %26, metadata !1818, metadata !DIExpression()), !dbg !4935
  call void @llvm.dbg.value(metadata i8 1, metadata !1819, metadata !DIExpression()), !dbg !4935
  call void @llvm.dbg.value(metadata i32 1, metadata !1820, metadata !DIExpression()), !dbg !4935
  %27 = bitcast [1 x i32]* %5 to i8*, !dbg !4936
  call void @llvm.lifetime.start.p0i8(i64 4, i8* nonnull %27) #18, !dbg !4936
  call void @llvm.dbg.value(metadata %class.String* %8, metadata !4937, metadata !DIExpression()), !dbg !4940
  %28 = getelementptr inbounds %class.String, %class.String* %8, i64 0, i32 0, i32 0, !dbg !4943
  %29 = load i8*, i8** %28, align 8, !dbg !4943, !tbaa !4944
  call void @llvm.dbg.value(metadata %class.String* %8, metadata !4945, metadata !DIExpression()), !dbg !4948
  %30 = load i32, i32* %11, align 8, !dbg !4950, !tbaa !4605
  %31 = sext i32 %30 to i64, !dbg !4951
  %32 = getelementptr inbounds i8, i8* %29, i64 %31, !dbg !4951
  %33 = getelementptr inbounds [1 x i32], [1 x i32]* %5, i64 0, i64 0, !dbg !4952
  call void @llvm.dbg.value(metadata i64* %6, metadata !4891, metadata !DIExpression(DW_OP_deref)), !dbg !4931
  %34 = invoke i8* @_ZN6IntArg5parseEPKcS1_biPji(%class.IntArg* nonnull %25, i8* %29, i8* %32, i1 zeroext true, i32 4, i32* nonnull %33, i32 1)
          to label %35 unwind label %57, !dbg !4953

35:                                               ; preds = %23
  call void @llvm.dbg.value(metadata %class.String* %8, metadata !4945, metadata !DIExpression()), !dbg !4954
  %36 = load i8*, i8** %28, align 8, !dbg !4956, !tbaa !4944
  %37 = load i32, i32* %11, align 8, !dbg !4957, !tbaa !4605
  %38 = sext i32 %37 to i64, !dbg !4958
  %39 = getelementptr inbounds i8, i8* %36, i64 %38, !dbg !4958
  %40 = icmp eq i8* %34, %39, !dbg !4959
  %41 = getelementptr inbounds %class.IntArg, %class.IntArg* %25, i64 0, i32 1, !dbg !4935
  br i1 %40, label %43, label %42, !dbg !4960

42:                                               ; preds = %35
  store i32 22, i32* %41, align 4, !dbg !4961, !tbaa !4962
  br label %45, !dbg !4964

43:                                               ; preds = %35
  %44 = load i32, i32* %41, align 4, !dbg !4966, !tbaa !4962
  switch i32 %44, label %45 [
    i32 0, label %47
    i32 34, label %47
  ], !dbg !4964

45:                                               ; preds = %43, %42
  invoke void (%class.ArgContext*, i8*, ...) @_ZNK10ArgContext5errorEPKcz(%class.ArgContext* nonnull %26, i8* getelementptr inbounds ([15 x i8], [15 x i8]* @.str.17, i64 0, i64 0))
          to label %46 unwind label %57, !dbg !4967

46:                                               ; preds = %45
  call void @llvm.lifetime.end.p0i8(i64 4, i8* nonnull %27) #18, !dbg !4969
  br label %52, !dbg !4970

47:                                               ; preds = %43, %43
  call void @llvm.dbg.value(metadata i32* %33, metadata !4971, metadata !DIExpression()), !dbg !4983
  call void @llvm.dbg.value(metadata i32* %33, metadata !4985, metadata !DIExpression()), !dbg !4994
  %48 = load i32, i32* %33, align 4, !dbg !4996, !tbaa !2893
  call void @llvm.lifetime.end.p0i8(i64 4, i8* nonnull %27) #18, !dbg !4969
  switch i32 %44, label %52 [
    i32 34, label %49
    i32 0, label %51
  ], !dbg !4997

49:                                               ; preds = %47
  %50 = sext i32 %48 to i64, !dbg !4998
  call void @llvm.dbg.value(metadata i64* %6, metadata !4891, metadata !DIExpression(DW_OP_deref)), !dbg !4931
  invoke void @_ZN6IntArg11range_errorERK10ArgContextbx(%class.IntArg* nonnull %25, %class.ArgContext* nonnull dereferenceable(32) %26, i1 zeroext true, i64 %50)
          to label %52 unwind label %57, !dbg !5001

51:                                               ; preds = %47
  store i32 %48, i32* %21, align 4, !dbg !5002, !tbaa !2893
  br label %52, !dbg !5004

52:                                               ; preds = %49, %46, %47, %51
  %53 = phi i1 [ true, %51 ], [ false, %47 ], [ false, %46 ], [ false, %49 ], !dbg !5005
  call void @llvm.lifetime.end.p0i8(i64 8, i8* nonnull %24), !dbg !5006
  br label %54, !dbg !5006

54:                                               ; preds = %52, %20
  %55 = phi i1 [ false, %20 ], [ %53, %52 ], !dbg !4928
  %56 = load %"struct.Args::Slot"*, %"struct.Args::Slot"** %7, align 8, !dbg !5007, !tbaa !3020
  call void @llvm.dbg.value(metadata %"struct.Args::Slot"* %56, metadata !4862, metadata !DIExpression()), !dbg !4896
  invoke void @_ZN4Args9postparseEbPNS_4SlotE(%class.Args* nonnull %0, i1 zeroext %55, %"struct.Args::Slot"* %56)
          to label %77 unwind label %57, !dbg !5008

57:                                               ; preds = %49, %45, %23, %17, %54
  %58 = landingpad { i8*, i32 }
          cleanup, !dbg !5009
  call void @llvm.dbg.value(metadata %class.String* %8, metadata !4652, metadata !DIExpression()) #18, !dbg !5010
  call void @llvm.dbg.value(metadata %class.String* %8, metadata !4657, metadata !DIExpression()) #18, !dbg !5012
  %59 = getelementptr inbounds %class.String, %class.String* %8, i64 0, i32 0, i32 2, !dbg !5014
  %60 = load %"struct.String::memo_t"*, %"struct.String::memo_t"** %59, align 8, !dbg !5014, !tbaa !4665
  %61 = icmp eq %"struct.String::memo_t"* %60, null, !dbg !5015
  br i1 %61, label %76, label %62, !dbg !5016

62:                                               ; preds = %57
  %63 = getelementptr inbounds %"struct.String::memo_t", %"struct.String::memo_t"* %60, i64 0, i32 0, !dbg !5017
  %64 = load volatile i32, i32* %63, align 4, !dbg !5017, !tbaa !4670
  %65 = icmp eq i32 %64, 0, !dbg !5017
  br i1 %65, label %66, label %67, !dbg !5017

66:                                               ; preds = %62
  call void @__assert_fail(i8* getelementptr inbounds ([18 x i8], [18 x i8]* @.str.15, i64 0, i64 0), i8* getelementptr inbounds ([29 x i8], [29 x i8]* @.str.16, i64 0, i64 0), i32 273, i8* getelementptr inbounds ([27 x i8], [27 x i8]* @__PRETTY_FUNCTION__._ZNK6String5derefEv, i64 0, i64 0)) #19, !dbg !5017
  unreachable, !dbg !5017

67:                                               ; preds = %62
  call void @llvm.dbg.value(metadata i32* %63, metadata !4672, metadata !DIExpression()) #18, !dbg !5018
  %68 = load volatile i32, i32* %63, align 4, !dbg !5020, !tbaa !2893
  %69 = add i32 %68, -1, !dbg !5020
  store volatile i32 %69, i32* %63, align 4, !dbg !5020, !tbaa !2893
  %70 = icmp eq i32 %69, 0, !dbg !5021
  br i1 %70, label %71, label %72, !dbg !5022

71:                                               ; preds = %67
  invoke void @_ZN6String11delete_memoEPNS_6memo_tE(%"struct.String::memo_t"* nonnull %60)
          to label %72 unwind label %73, !dbg !5023

72:                                               ; preds = %71, %67
  store %"struct.String::memo_t"* null, %"struct.String::memo_t"** %59, align 8, !dbg !5024, !tbaa !4665
  br label %76, !dbg !5025

73:                                               ; preds = %71
  %74 = landingpad { i8*, i32 }
          catch i8* null, !dbg !5026
  %75 = extractvalue { i8*, i32 } %74, 0, !dbg !5026
  call void @__clang_call_terminate(i8* %75) #19, !dbg !5026
  unreachable, !dbg !5026

76:                                               ; preds = %57, %72
  call void @llvm.lifetime.end.p0i8(i64 24, i8* nonnull %10) #18, !dbg !4898
  call void @llvm.lifetime.end.p0i8(i64 8, i8* nonnull %9) #18, !dbg !5027
  resume { i8*, i32 } %58, !dbg !5027

77:                                               ; preds = %54, %4
  call void @llvm.dbg.value(metadata %class.String* %8, metadata !4652, metadata !DIExpression()) #18, !dbg !5028
  call void @llvm.dbg.value(metadata %class.String* %8, metadata !4657, metadata !DIExpression()) #18, !dbg !5030
  %78 = getelementptr inbounds %class.String, %class.String* %8, i64 0, i32 0, i32 2, !dbg !5032
  %79 = load %"struct.String::memo_t"*, %"struct.String::memo_t"** %78, align 8, !dbg !5032, !tbaa !4665
  %80 = icmp eq %"struct.String::memo_t"* %79, null, !dbg !5033
  br i1 %80, label %95, label %81, !dbg !5034

81:                                               ; preds = %77
  %82 = getelementptr inbounds %"struct.String::memo_t", %"struct.String::memo_t"* %79, i64 0, i32 0, !dbg !5035
  %83 = load volatile i32, i32* %82, align 4, !dbg !5035, !tbaa !4670
  %84 = icmp eq i32 %83, 0, !dbg !5035
  br i1 %84, label %85, label %86, !dbg !5035

85:                                               ; preds = %81
  call void @__assert_fail(i8* getelementptr inbounds ([18 x i8], [18 x i8]* @.str.15, i64 0, i64 0), i8* getelementptr inbounds ([29 x i8], [29 x i8]* @.str.16, i64 0, i64 0), i32 273, i8* getelementptr inbounds ([27 x i8], [27 x i8]* @__PRETTY_FUNCTION__._ZNK6String5derefEv, i64 0, i64 0)) #19, !dbg !5035
  unreachable, !dbg !5035

86:                                               ; preds = %81
  call void @llvm.dbg.value(metadata i32* %82, metadata !4672, metadata !DIExpression()) #18, !dbg !5036
  %87 = load volatile i32, i32* %82, align 4, !dbg !5038, !tbaa !2893
  %88 = add i32 %87, -1, !dbg !5038
  store volatile i32 %88, i32* %82, align 4, !dbg !5038, !tbaa !2893
  %89 = icmp eq i32 %88, 0, !dbg !5039
  br i1 %89, label %90, label %91, !dbg !5040

90:                                               ; preds = %86
  invoke void @_ZN6String11delete_memoEPNS_6memo_tE(%"struct.String::memo_t"* nonnull %79)
          to label %91 unwind label %92, !dbg !5041

91:                                               ; preds = %90, %86
  store %"struct.String::memo_t"* null, %"struct.String::memo_t"** %78, align 8, !dbg !5042, !tbaa !4665
  br label %95, !dbg !5043

92:                                               ; preds = %90
  %93 = landingpad { i8*, i32 }
          catch i8* null, !dbg !5044
  %94 = extractvalue { i8*, i32 } %93, 0, !dbg !5044
  call void @__clang_call_terminate(i8* %94) #19, !dbg !5044
  unreachable, !dbg !5044

95:                                               ; preds = %77, %91
  call void @llvm.lifetime.end.p0i8(i64 24, i8* nonnull %10) #18, !dbg !4898
  call void @llvm.lifetime.end.p0i8(i64 8, i8* nonnull %9) #18, !dbg !5027
  ret void, !dbg !5027
}

declare void @_ZN6IntArg11range_errorERK10ArgContextbx(%class.IntArg*, %class.ArgContext* dereferenceable(32), i1 zeroext, i64) local_unnamed_addr #2

declare i8* @_ZN6IntArg5parseEPKcS1_biPji(%class.IntArg*, i8*, i8*, i1 zeroext, i32, i32*, i32) local_unnamed_addr #2

declare void @_ZNK10ArgContext5errorEPKcz(%class.ArgContext*, i8*, ...) local_unnamed_addr #2

; Function Attrs: nounwind readnone speculatable willreturn
declare void @llvm.dbg.value(metadata, metadata, metadata) #1

; Function Attrs: nounwind readnone speculatable willreturn
declare i16 @llvm.bswap.i16(i16) #1

; Function Attrs: nounwind readnone speculatable willreturn
declare i32 @llvm.bswap.i32(i32) #1

attributes #0 = { sspstrong uwtable "correctly-rounded-divide-sqrt-fp-math"="false" "disable-tail-calls"="false" "frame-pointer"="none" "less-precise-fpmad"="false" "min-legal-vector-width"="0" "no-infs-fp-math"="false" "no-jump-tables"="false" "no-nans-fp-math"="false" "no-signed-zeros-fp-math"="false" "no-trapping-math"="false" "stack-protector-buffer-size"="8" "target-cpu"="x86-64" "target-features"="+cx8,+fxsr,+mmx,+sse,+sse2,+x87" "unsafe-fp-math"="false" "use-soft-float"="false" }
attributes #1 = { nounwind readnone speculatable willreturn }
attributes #2 = { "correctly-rounded-divide-sqrt-fp-math"="false" "disable-tail-calls"="false" "frame-pointer"="none" "less-precise-fpmad"="false" "no-infs-fp-math"="false" "no-nans-fp-math"="false" "no-signed-zeros-fp-math"="false" "no-trapping-math"="false" "stack-protector-buffer-size"="8" "target-cpu"="x86-64" "target-features"="+cx8,+fxsr,+mmx,+sse,+sse2,+x87" "unsafe-fp-math"="false" "use-soft-float"="false" }
attributes #3 = { argmemonly nounwind willreturn }
attributes #4 = { nounwind "correctly-rounded-divide-sqrt-fp-math"="false" "disable-tail-calls"="false" "frame-pointer"="none" "less-precise-fpmad"="false" "no-infs-fp-math"="false" "no-nans-fp-math"="false" "no-signed-zeros-fp-math"="false" "no-trapping-math"="false" "stack-protector-buffer-size"="8" "target-cpu"="x86-64" "target-features"="+cx8,+fxsr,+mmx,+sse,+sse2,+x87" "unsafe-fp-math"="false" "use-soft-float"="false" }
attributes #5 = { nounwind sspstrong uwtable "correctly-rounded-divide-sqrt-fp-math"="false" "disable-tail-calls"="false" "frame-pointer"="none" "less-precise-fpmad"="false" "min-legal-vector-width"="0" "no-infs-fp-math"="false" "no-jump-tables"="false" "no-nans-fp-math"="false" "no-signed-zeros-fp-math"="false" "no-trapping-math"="false" "stack-protector-buffer-size"="8" "target-cpu"="x86-64" "target-features"="+cx8,+fxsr,+mmx,+sse,+sse2,+x87" "unsafe-fp-math"="false" "use-soft-float"="false" }
attributes #6 = { nobuiltin nounwind "correctly-rounded-divide-sqrt-fp-math"="false" "disable-tail-calls"="false" "frame-pointer"="none" "less-precise-fpmad"="false" "no-infs-fp-math"="false" "no-nans-fp-math"="false" "no-signed-zeros-fp-math"="false" "no-trapping-math"="false" "stack-protector-buffer-size"="8" "target-cpu"="x86-64" "target-features"="+cx8,+fxsr,+mmx,+sse,+sse2,+x87" "unsafe-fp-math"="false" "use-soft-float"="false" }
attributes #7 = { norecurse nounwind readnone sspstrong uwtable "correctly-rounded-divide-sqrt-fp-math"="false" "disable-tail-calls"="false" "frame-pointer"="none" "less-precise-fpmad"="false" "min-legal-vector-width"="0" "no-infs-fp-math"="false" "no-jump-tables"="false" "no-nans-fp-math"="false" "no-signed-zeros-fp-math"="false" "no-trapping-math"="false" "stack-protector-buffer-size"="8" "target-cpu"="x86-64" "target-features"="+cx8,+fxsr,+mmx,+sse,+sse2,+x87" "unsafe-fp-math"="false" "use-soft-float"="false" }
attributes #8 = { nobuiltin nofree "correctly-rounded-divide-sqrt-fp-math"="false" "disable-tail-calls"="false" "frame-pointer"="none" "less-precise-fpmad"="false" "no-infs-fp-math"="false" "no-nans-fp-math"="false" "no-signed-zeros-fp-math"="false" "no-trapping-math"="false" "stack-protector-buffer-size"="8" "target-cpu"="x86-64" "target-features"="+cx8,+fxsr,+mmx,+sse,+sse2,+x87" "unsafe-fp-math"="false" "use-soft-float"="false" }
attributes #9 = { nofree norecurse nounwind sspstrong uwtable "correctly-rounded-divide-sqrt-fp-math"="false" "disable-tail-calls"="false" "frame-pointer"="none" "less-precise-fpmad"="false" "min-legal-vector-width"="0" "no-infs-fp-math"="false" "no-jump-tables"="false" "no-nans-fp-math"="false" "no-signed-zeros-fp-math"="false" "no-trapping-math"="false" "stack-protector-buffer-size"="8" "target-cpu"="x86-64" "target-features"="+cx8,+fxsr,+mmx,+sse,+sse2,+x87" "unsafe-fp-math"="false" "use-soft-float"="false" }
attributes #10 = { norecurse nounwind readonly sspstrong uwtable "correctly-rounded-divide-sqrt-fp-math"="false" "disable-tail-calls"="false" "frame-pointer"="none" "less-precise-fpmad"="false" "min-legal-vector-width"="0" "no-infs-fp-math"="false" "no-jump-tables"="false" "no-nans-fp-math"="false" "no-signed-zeros-fp-math"="false" "no-trapping-math"="false" "stack-protector-buffer-size"="8" "target-cpu"="x86-64" "target-features"="+cx8,+fxsr,+mmx,+sse,+sse2,+x87" "unsafe-fp-math"="false" "use-soft-float"="false" }
attributes #11 = { noinline optnone sspstrong uwtable "correctly-rounded-divide-sqrt-fp-math"="false" "disable-tail-calls"="false" "frame-pointer"="none" "less-precise-fpmad"="false" "min-legal-vector-width"="0" "no-infs-fp-math"="false" "no-jump-tables"="false" "no-nans-fp-math"="false" "no-signed-zeros-fp-math"="false" "no-trapping-math"="false" "stack-protector-buffer-size"="8" "target-cpu"="x86-64" "target-features"="+cx8,+fxsr,+mmx,+sse,+sse2,+x87" "unsafe-fp-math"="false" "use-soft-float"="false" }
attributes #12 = { nofree nounwind "correctly-rounded-divide-sqrt-fp-math"="false" "disable-tail-calls"="false" "frame-pointer"="none" "less-precise-fpmad"="false" "no-infs-fp-math"="false" "no-nans-fp-math"="false" "no-signed-zeros-fp-math"="false" "no-trapping-math"="false" "stack-protector-buffer-size"="8" "target-cpu"="x86-64" "target-features"="+cx8,+fxsr,+mmx,+sse,+sse2,+x87" "unsafe-fp-math"="false" "use-soft-float"="false" }
attributes #13 = { argmemonly nofree nounwind readonly "correctly-rounded-divide-sqrt-fp-math"="false" "disable-tail-calls"="false" "frame-pointer"="none" "less-precise-fpmad"="false" "no-infs-fp-math"="false" "no-nans-fp-math"="false" "no-signed-zeros-fp-math"="false" "no-trapping-math"="false" "stack-protector-buffer-size"="8" "target-cpu"="x86-64" "target-features"="+cx8,+fxsr,+mmx,+sse,+sse2,+x87" "unsafe-fp-math"="false" "use-soft-float"="false" }
attributes #14 = { noreturn nounwind "correctly-rounded-divide-sqrt-fp-math"="false" "disable-tail-calls"="false" "frame-pointer"="none" "less-precise-fpmad"="false" "no-infs-fp-math"="false" "no-nans-fp-math"="false" "no-signed-zeros-fp-math"="false" "no-trapping-math"="false" "stack-protector-buffer-size"="8" "target-cpu"="x86-64" "target-features"="+cx8,+fxsr,+mmx,+sse,+sse2,+x87" "unsafe-fp-math"="false" "use-soft-float"="false" }
attributes #15 = { noinline noreturn nounwind }
attributes #16 = { noinline nounwind optnone sspstrong uwtable "correctly-rounded-divide-sqrt-fp-math"="false" "disable-tail-calls"="false" "frame-pointer"="none" "less-precise-fpmad"="false" "min-legal-vector-width"="0" "no-infs-fp-math"="false" "no-jump-tables"="false" "no-nans-fp-math"="false" "no-signed-zeros-fp-math"="false" "no-trapping-math"="false" "stack-protector-buffer-size"="8" "target-cpu"="x86-64" "target-features"="+cx8,+fxsr,+mmx,+sse,+sse2,+x87" "unsafe-fp-math"="false" "use-soft-float"="false" }
attributes #17 = { inlinehint nounwind sspstrong uwtable "correctly-rounded-divide-sqrt-fp-math"="false" "disable-tail-calls"="false" "frame-pointer"="none" "less-precise-fpmad"="false" "min-legal-vector-width"="0" "no-infs-fp-math"="false" "no-jump-tables"="false" "no-nans-fp-math"="false" "no-signed-zeros-fp-math"="false" "no-trapping-math"="false" "stack-protector-buffer-size"="8" "target-cpu"="x86-64" "target-features"="+cx8,+fxsr,+mmx,+sse,+sse2,+x87" "unsafe-fp-math"="false" "use-soft-float"="false" }
attributes #18 = { nounwind }
attributes #19 = { noreturn nounwind }
attributes #20 = { builtin nounwind }
attributes #21 = { builtin }
attributes #22 = { nounwind readonly }

!llvm.dbg.cu = !{!0}
!llvm.module.flags = !{!2699, !2700, !2701, !2702, !2703}
!llvm.ident = !{!2704}

!0 = distinct !DICompileUnit(language: DW_LANG_C_plus_plus_14, file: !1, producer: "clang version 10.0.0 ", isOptimized: true, runtimeVersion: 0, emissionKind: FullDebug, enums: !2, retainedTypes: !1207, imports: !2080, splitDebugInlining: false, nameTableKind: None)
!1 = !DIFile(filename: "../elements/local/webgen.cc", directory: "/home/john/projects/click/ir-dir")
!2 = !{!3, !538, !550, !1187, !1198}
!3 = !DICompositeType(tag: DW_TAG_enumeration_type, name: "warp_class_type", scope: !5, file: !4, line: 571, baseType: !26, size: 32, elements: !533, identifier: "_ZTSN9Timestamp15warp_class_typeE")
!4 = !DIFile(filename: "../dummy_inc/click/timestamp.hh", directory: "/home/john/projects/click/ir-dir")
!5 = distinct !DICompositeType(tag: DW_TAG_class_type, name: "Timestamp", file: !4, line: 122, size: 64, flags: DIFlagTypePassByValue | DIFlagNonTrivial, elements: !6, identifier: "_ZTS9Timestamp")
!6 = !{!7, !16, !20, !27, !31, !35, !38, !42, !54, !65, !70, !79, !91, !95, !96, !99, !100, !101, !102, !105, !108, !109, !110, !111, !114, !115, !118, !121, !125, !126, !127, !130, !131, !132, !137, !141, !144, !147, !150, !153, !154, !155, !156, !157, !160, !161, !164, !165, !166, !167, !168, !169, !170, !173, !174, !175, !176, !177, !178, !179, !180, !181, !481, !482, !485, !486, !487, !488, !489, !490, !491, !494, !497, !501, !502, !505, !508, !509, !510, !511, !512, !513, !514, !517, !521, !524, !527, !530}
!7 = !DIDerivedType(tag: DW_TAG_member, name: "_t", scope: !5, file: !4, line: 672, baseType: !8, size: 64)
!8 = distinct !DICompositeType(tag: DW_TAG_union_type, name: "rep_t", scope: !5, file: !4, line: 539, size: 64, flags: DIFlagTypePassByValue, elements: !9, identifier: "_ZTSN9Timestamp5rep_tE")
!9 = !{!10}
!10 = !DIDerivedType(tag: DW_TAG_member, name: "x", scope: !8, file: !4, line: 541, baseType: !11, size: 64)
!11 = !DIDerivedType(tag: DW_TAG_typedef, name: "int64_t", file: !12, line: 27, baseType: !13)
!12 = !DIFile(filename: "/usr/include/bits/stdint-intn.h", directory: "")
!13 = !DIDerivedType(tag: DW_TAG_typedef, name: "__int64_t", file: !14, line: 44, baseType: !15)
!14 = !DIFile(filename: "/usr/include/bits/types.h", directory: "")
!15 = !DIBasicType(name: "long int", size: 64, encoding: DW_ATE_signed)
!16 = !DISubprogram(name: "Timestamp", scope: !5, file: !4, line: 174, type: !17, scopeLine: 174, flags: DIFlagPublic | DIFlagPrototyped, spFlags: DISPFlagOptimized)
!17 = !DISubroutineType(types: !18)
!18 = !{null, !19}
!19 = !DIDerivedType(tag: DW_TAG_pointer_type, baseType: !5, size: 64, flags: DIFlagArtificial | DIFlagObjectPointer)
!20 = !DISubprogram(name: "Timestamp", scope: !5, file: !4, line: 187, type: !21, scopeLine: 187, flags: DIFlagPublic | DIFlagExplicit | DIFlagPrototyped, spFlags: DISPFlagOptimized)
!21 = !DISubroutineType(types: !22)
!22 = !{null, !19, !15, !23}
!23 = !DIDerivedType(tag: DW_TAG_typedef, name: "uint32_t", file: !24, line: 26, baseType: !25)
!24 = !DIFile(filename: "/usr/include/bits/stdint-uintn.h", directory: "")
!25 = !DIDerivedType(tag: DW_TAG_typedef, name: "__uint32_t", file: !14, line: 42, baseType: !26)
!26 = !DIBasicType(name: "unsigned int", size: 32, encoding: DW_ATE_unsigned)
!27 = !DISubprogram(name: "Timestamp", scope: !5, file: !4, line: 191, type: !28, scopeLine: 191, flags: DIFlagPublic | DIFlagExplicit | DIFlagPrototyped, spFlags: DISPFlagOptimized)
!28 = !DISubroutineType(types: !29)
!29 = !{null, !19, !30, !23}
!30 = !DIBasicType(name: "int", size: 32, encoding: DW_ATE_signed)
!31 = !DISubprogram(name: "Timestamp", scope: !5, file: !4, line: 195, type: !32, scopeLine: 195, flags: DIFlagPublic | DIFlagExplicit | DIFlagPrototyped, spFlags: DISPFlagOptimized)
!32 = !DISubroutineType(types: !33)
!33 = !{null, !19, !34, !23}
!34 = !DIBasicType(name: "long unsigned int", size: 64, encoding: DW_ATE_unsigned)
!35 = !DISubprogram(name: "Timestamp", scope: !5, file: !4, line: 199, type: !36, scopeLine: 199, flags: DIFlagPublic | DIFlagExplicit | DIFlagPrototyped, spFlags: DISPFlagOptimized)
!36 = !DISubroutineType(types: !37)
!37 = !{null, !19, !26, !23}
!38 = !DISubprogram(name: "Timestamp", scope: !5, file: !4, line: 203, type: !39, scopeLine: 203, flags: DIFlagPublic | DIFlagExplicit | DIFlagPrototyped, spFlags: DISPFlagOptimized)
!39 = !DISubroutineType(types: !40)
!40 = !{null, !19, !41}
!41 = !DIBasicType(name: "double", size: 64, encoding: DW_ATE_float)
!42 = !DISubprogram(name: "Timestamp", scope: !5, file: !4, line: 206, type: !43, scopeLine: 206, flags: DIFlagPublic | DIFlagPrototyped, spFlags: DISPFlagOptimized)
!43 = !DISubroutineType(types: !44)
!44 = !{null, !19, !45}
!45 = !DIDerivedType(tag: DW_TAG_reference_type, baseType: !46, size: 64)
!46 = !DIDerivedType(tag: DW_TAG_const_type, baseType: !47)
!47 = distinct !DICompositeType(tag: DW_TAG_structure_type, name: "timeval", file: !48, line: 8, size: 128, flags: DIFlagTypePassByValue, elements: !49, identifier: "_ZTS7timeval")
!48 = !DIFile(filename: "/usr/include/bits/types/struct_timeval.h", directory: "")
!49 = !{!50, !52}
!50 = !DIDerivedType(tag: DW_TAG_member, name: "tv_sec", scope: !47, file: !48, line: 10, baseType: !51, size: 64)
!51 = !DIDerivedType(tag: DW_TAG_typedef, name: "__time_t", file: !14, line: 160, baseType: !15)
!52 = !DIDerivedType(tag: DW_TAG_member, name: "tv_usec", scope: !47, file: !48, line: 11, baseType: !53, size: 64, offset: 64)
!53 = !DIDerivedType(tag: DW_TAG_typedef, name: "__suseconds_t", file: !14, line: 162, baseType: !15)
!54 = !DISubprogram(name: "Timestamp", scope: !5, file: !4, line: 208, type: !55, scopeLine: 208, flags: DIFlagPublic | DIFlagPrototyped, spFlags: DISPFlagOptimized)
!55 = !DISubroutineType(types: !56)
!56 = !{null, !19, !57}
!57 = !DIDerivedType(tag: DW_TAG_reference_type, baseType: !58, size: 64)
!58 = !DIDerivedType(tag: DW_TAG_const_type, baseType: !59)
!59 = distinct !DICompositeType(tag: DW_TAG_structure_type, name: "timespec", file: !60, line: 10, size: 128, flags: DIFlagTypePassByValue, elements: !61, identifier: "_ZTS8timespec")
!60 = !DIFile(filename: "/usr/include/bits/types/struct_timespec.h", directory: "")
!61 = !{!62, !63}
!62 = !DIDerivedType(tag: DW_TAG_member, name: "tv_sec", scope: !59, file: !60, line: 12, baseType: !51, size: 64)
!63 = !DIDerivedType(tag: DW_TAG_member, name: "tv_nsec", scope: !59, file: !60, line: 16, baseType: !64, size: 64, offset: 64)
!64 = !DIDerivedType(tag: DW_TAG_typedef, name: "__syscall_slong_t", file: !14, line: 196, baseType: !15)
!65 = !DISubprogram(name: "Timestamp", scope: !5, file: !4, line: 212, type: !66, scopeLine: 212, flags: DIFlagPublic | DIFlagPrototyped, spFlags: DISPFlagOptimized)
!66 = !DISubroutineType(types: !67)
!67 = !{null, !19, !68}
!68 = !DIDerivedType(tag: DW_TAG_reference_type, baseType: !69, size: 64)
!69 = !DIDerivedType(tag: DW_TAG_const_type, baseType: !8)
!70 = !DISubprogram(name: "Timestamp", scope: !5, file: !4, line: 217, type: !71, scopeLine: 217, flags: DIFlagPublic | DIFlagPrototyped, spFlags: DISPFlagOptimized)
!71 = !DISubroutineType(types: !72)
!72 = !{null, !19, !73}
!73 = !DIDerivedType(tag: DW_TAG_reference_type, baseType: !74, size: 64)
!74 = !DIDerivedType(tag: DW_TAG_const_type, baseType: !75)
!75 = !DIDerivedType(tag: DW_TAG_typedef, name: "uninitialized_t", scope: !5, file: !4, line: 168, baseType: !76)
!76 = distinct !DICompositeType(tag: DW_TAG_structure_type, name: "uninitialized_type", file: !77, line: 317, size: 8, flags: DIFlagTypePassByValue, elements: !78, identifier: "_ZTS18uninitialized_type")
!77 = !DIFile(filename: "../dummy_inc/click/config.h", directory: "/home/john/projects/click/ir-dir")
!78 = !{}
!79 = !DISubprogram(name: "operator int (Timestamp::*)() const", linkageName: "_ZNK9TimestampcvMS_KFivEEv", scope: !5, file: !4, line: 222, type: !80, scopeLine: 222, flags: DIFlagPublic | DIFlagPrototyped, spFlags: DISPFlagOptimized)
!80 = !DISubroutineType(types: !81)
!81 = !{!82, !89}
!82 = !DIDerivedType(tag: DW_TAG_typedef, name: "unspecified_bool_type", scope: !5, file: !4, line: 221, baseType: !83)
!83 = !DIDerivedType(tag: DW_TAG_ptr_to_member_type, baseType: !84, size: 128, extraData: !5)
!84 = !DISubroutineType(types: !85)
!85 = !{!86, !89}
!86 = !DIDerivedType(tag: DW_TAG_typedef, name: "seconds_type", scope: !5, file: !4, line: 125, baseType: !87)
!87 = !DIDerivedType(tag: DW_TAG_typedef, name: "int32_t", file: !12, line: 26, baseType: !88)
!88 = !DIDerivedType(tag: DW_TAG_typedef, name: "__int32_t", file: !14, line: 41, baseType: !30)
!89 = !DIDerivedType(tag: DW_TAG_pointer_type, baseType: !90, size: 64, flags: DIFlagArtificial | DIFlagObjectPointer)
!90 = !DIDerivedType(tag: DW_TAG_const_type, baseType: !5)
!91 = !DISubprogram(name: "is_negative", linkageName: "_ZNK9Timestamp11is_negativeEv", scope: !5, file: !4, line: 225, type: !92, scopeLine: 225, flags: DIFlagPublic | DIFlagPrototyped, spFlags: DISPFlagOptimized)
!92 = !DISubroutineType(types: !93)
!93 = !{!94, !89}
!94 = !DIBasicType(name: "bool", size: 8, encoding: DW_ATE_boolean)
!95 = !DISubprogram(name: "sec", linkageName: "_ZNK9Timestamp3secEv", scope: !5, file: !4, line: 233, type: !84, scopeLine: 233, flags: DIFlagPublic | DIFlagPrototyped, spFlags: DISPFlagOptimized)
!96 = !DISubprogram(name: "subsec", linkageName: "_ZNK9Timestamp6subsecEv", scope: !5, file: !4, line: 234, type: !97, scopeLine: 234, flags: DIFlagPublic | DIFlagPrototyped, spFlags: DISPFlagOptimized)
!97 = !DISubroutineType(types: !98)
!98 = !{!23, !89}
!99 = !DISubprogram(name: "msec", linkageName: "_ZNK9Timestamp4msecEv", scope: !5, file: !4, line: 235, type: !97, scopeLine: 235, flags: DIFlagPublic | DIFlagPrototyped, spFlags: DISPFlagOptimized)
!100 = !DISubprogram(name: "usec", linkageName: "_ZNK9Timestamp4usecEv", scope: !5, file: !4, line: 236, type: !97, scopeLine: 236, flags: DIFlagPublic | DIFlagPrototyped, spFlags: DISPFlagOptimized)
!101 = !DISubprogram(name: "nsec", linkageName: "_ZNK9Timestamp4nsecEv", scope: !5, file: !4, line: 237, type: !97, scopeLine: 237, flags: DIFlagPublic | DIFlagPrototyped, spFlags: DISPFlagOptimized)
!102 = !DISubprogram(name: "set_sec", linkageName: "_ZN9Timestamp7set_secEi", scope: !5, file: !4, line: 239, type: !103, scopeLine: 239, flags: DIFlagPublic | DIFlagPrototyped, spFlags: DISPFlagOptimized)
!103 = !DISubroutineType(types: !104)
!104 = !{null, !19, !86}
!105 = !DISubprogram(name: "set_subsec", linkageName: "_ZN9Timestamp10set_subsecEj", scope: !5, file: !4, line: 240, type: !106, scopeLine: 240, flags: DIFlagPublic | DIFlagPrototyped, spFlags: DISPFlagOptimized)
!106 = !DISubroutineType(types: !107)
!107 = !{null, !19, !23}
!108 = !DISubprogram(name: "msec1", linkageName: "_ZNK9Timestamp5msec1Ev", scope: !5, file: !4, line: 242, type: !84, scopeLine: 242, flags: DIFlagPublic | DIFlagPrototyped, spFlags: DISPFlagOptimized)
!109 = !DISubprogram(name: "usec1", linkageName: "_ZNK9Timestamp5usec1Ev", scope: !5, file: !4, line: 243, type: !84, scopeLine: 243, flags: DIFlagPublic | DIFlagPrototyped, spFlags: DISPFlagOptimized)
!110 = !DISubprogram(name: "nsec1", linkageName: "_ZNK9Timestamp5nsec1Ev", scope: !5, file: !4, line: 244, type: !84, scopeLine: 244, flags: DIFlagPublic | DIFlagPrototyped, spFlags: DISPFlagOptimized)
!111 = !DISubprogram(name: "timeval", linkageName: "_ZNK9Timestamp7timevalEv", scope: !5, file: !4, line: 250, type: !112, scopeLine: 250, flags: DIFlagPublic | DIFlagPrototyped, spFlags: DISPFlagOptimized)
!112 = !DISubroutineType(types: !113)
!113 = !{!47, !89}
!114 = !DISubprogram(name: "timeval_ceil", linkageName: "_ZNK9Timestamp12timeval_ceilEv", scope: !5, file: !4, line: 251, type: !112, scopeLine: 251, flags: DIFlagPublic | DIFlagPrototyped, spFlags: DISPFlagOptimized)
!115 = !DISubprogram(name: "timespec", linkageName: "_ZNK9Timestamp8timespecEv", scope: !5, file: !4, line: 257, type: !116, scopeLine: 257, flags: DIFlagPublic | DIFlagPrototyped, spFlags: DISPFlagOptimized)
!116 = !DISubroutineType(types: !117)
!117 = !{!59, !89}
!118 = !DISubprogram(name: "doubleval", linkageName: "_ZNK9Timestamp9doublevalEv", scope: !5, file: !4, line: 262, type: !119, scopeLine: 262, flags: DIFlagPublic | DIFlagPrototyped, spFlags: DISPFlagOptimized)
!119 = !DISubroutineType(types: !120)
!120 = !{!41, !89}
!121 = !DISubprogram(name: "msecval", linkageName: "_ZNK9Timestamp7msecvalEv", scope: !5, file: !4, line: 265, type: !122, scopeLine: 265, flags: DIFlagPublic | DIFlagPrototyped, spFlags: DISPFlagOptimized)
!122 = !DISubroutineType(types: !123)
!123 = !{!124, !89}
!124 = !DIDerivedType(tag: DW_TAG_typedef, name: "value_type", scope: !5, file: !4, line: 128, baseType: !11)
!125 = !DISubprogram(name: "usecval", linkageName: "_ZNK9Timestamp7usecvalEv", scope: !5, file: !4, line: 273, type: !122, scopeLine: 273, flags: DIFlagPublic | DIFlagPrototyped, spFlags: DISPFlagOptimized)
!126 = !DISubprogram(name: "nsecval", linkageName: "_ZNK9Timestamp7nsecvalEv", scope: !5, file: !4, line: 281, type: !122, scopeLine: 281, flags: DIFlagPublic | DIFlagPrototyped, spFlags: DISPFlagOptimized)
!127 = !DISubprogram(name: "msec_ceil", linkageName: "_ZNK9Timestamp9msec_ceilEv", scope: !5, file: !4, line: 290, type: !128, scopeLine: 290, flags: DIFlagPublic | DIFlagPrototyped, spFlags: DISPFlagOptimized)
!128 = !DISubroutineType(types: !129)
!129 = !{!5, !89}
!130 = !DISubprogram(name: "usec_ceil", linkageName: "_ZNK9Timestamp9usec_ceilEv", scope: !5, file: !4, line: 295, type: !128, scopeLine: 295, flags: DIFlagPublic | DIFlagPrototyped, spFlags: DISPFlagOptimized)
!131 = !DISubprogram(name: "nsec_ceil", linkageName: "_ZNK9Timestamp9nsec_ceilEv", scope: !5, file: !4, line: 304, type: !128, scopeLine: 304, flags: DIFlagPublic | DIFlagPrototyped, spFlags: DISPFlagOptimized)
!132 = !DISubprogram(name: "make_jiffies", linkageName: "_ZN9Timestamp12make_jiffiesEj", scope: !5, file: !4, line: 310, type: !133, scopeLine: 310, flags: DIFlagPublic | DIFlagPrototyped | DIFlagStaticMember, spFlags: DISPFlagOptimized)
!133 = !DISubroutineType(types: !134)
!134 = !{!5, !135}
!135 = !DIDerivedType(tag: DW_TAG_typedef, name: "click_jiffies_t", file: !136, line: 477, baseType: !26)
!136 = !DIFile(filename: "../dummy_inc/click/glue.hh", directory: "/home/john/projects/click/ir-dir")
!137 = !DISubprogram(name: "make_jiffies", linkageName: "_ZN9Timestamp12make_jiffiesEi", scope: !5, file: !4, line: 312, type: !138, scopeLine: 312, flags: DIFlagPublic | DIFlagPrototyped | DIFlagStaticMember, spFlags: DISPFlagOptimized)
!138 = !DISubroutineType(types: !139)
!139 = !{!5, !140}
!140 = !DIDerivedType(tag: DW_TAG_typedef, name: "click_jiffies_difference_t", file: !136, line: 478, baseType: !30)
!141 = !DISubprogram(name: "jiffies", linkageName: "_ZNK9Timestamp7jiffiesEv", scope: !5, file: !4, line: 314, type: !142, scopeLine: 314, flags: DIFlagPublic | DIFlagPrototyped, spFlags: DISPFlagOptimized)
!142 = !DISubroutineType(types: !143)
!143 = !{!135, !89}
!144 = !DISubprogram(name: "make_sec", linkageName: "_ZN9Timestamp8make_secEi", scope: !5, file: !4, line: 318, type: !145, scopeLine: 318, flags: DIFlagPublic | DIFlagPrototyped | DIFlagStaticMember, spFlags: DISPFlagOptimized)
!145 = !DISubroutineType(types: !146)
!146 = !{!5, !86}
!147 = !DISubprogram(name: "make_msec", linkageName: "_ZN9Timestamp9make_msecEij", scope: !5, file: !4, line: 324, type: !148, scopeLine: 324, flags: DIFlagPublic | DIFlagPrototyped | DIFlagStaticMember, spFlags: DISPFlagOptimized)
!148 = !DISubroutineType(types: !149)
!149 = !{!5, !86, !23}
!150 = !DISubprogram(name: "make_msec", linkageName: "_ZN9Timestamp9make_msecEl", scope: !5, file: !4, line: 328, type: !151, scopeLine: 328, flags: DIFlagPublic | DIFlagPrototyped | DIFlagStaticMember, spFlags: DISPFlagOptimized)
!151 = !DISubroutineType(types: !152)
!152 = !{!5, !124}
!153 = !DISubprogram(name: "make_usec", linkageName: "_ZN9Timestamp9make_usecEij", scope: !5, file: !4, line: 341, type: !148, scopeLine: 341, flags: DIFlagPublic | DIFlagPrototyped | DIFlagStaticMember, spFlags: DISPFlagOptimized)
!154 = !DISubprogram(name: "make_usec", linkageName: "_ZN9Timestamp9make_usecEl", scope: !5, file: !4, line: 345, type: !151, scopeLine: 345, flags: DIFlagPublic | DIFlagPrototyped | DIFlagStaticMember, spFlags: DISPFlagOptimized)
!155 = !DISubprogram(name: "make_nsec", linkageName: "_ZN9Timestamp9make_nsecEij", scope: !5, file: !4, line: 358, type: !148, scopeLine: 358, flags: DIFlagPublic | DIFlagPrototyped | DIFlagStaticMember, spFlags: DISPFlagOptimized)
!156 = !DISubprogram(name: "make_nsec", linkageName: "_ZN9Timestamp9make_nsecEl", scope: !5, file: !4, line: 362, type: !151, scopeLine: 362, flags: DIFlagPublic | DIFlagPrototyped | DIFlagStaticMember, spFlags: DISPFlagOptimized)
!157 = !DISubprogram(name: "epsilon", linkageName: "_ZN9Timestamp7epsilonEv", scope: !5, file: !4, line: 375, type: !158, scopeLine: 375, flags: DIFlagPublic | DIFlagPrototyped | DIFlagStaticMember, spFlags: DISPFlagOptimized)
!158 = !DISubroutineType(types: !159)
!159 = !{!5}
!160 = !DISubprogram(name: "clear", linkageName: "_ZN9Timestamp5clearEv", scope: !5, file: !4, line: 380, type: !17, scopeLine: 380, flags: DIFlagPublic | DIFlagPrototyped, spFlags: DISPFlagOptimized)
!161 = !DISubprogram(name: "assign", linkageName: "_ZN9Timestamp6assignEij", scope: !5, file: !4, line: 388, type: !162, scopeLine: 388, flags: DIFlagPublic | DIFlagPrototyped, spFlags: DISPFlagOptimized)
!162 = !DISubroutineType(types: !163)
!163 = !{null, !19, !86, !23}
!164 = !DISubprogram(name: "assign_usec", linkageName: "_ZN9Timestamp11assign_usecEij", scope: !5, file: !4, line: 397, type: !162, scopeLine: 397, flags: DIFlagPublic | DIFlagPrototyped, spFlags: DISPFlagOptimized)
!165 = !DISubprogram(name: "assign_nsec", linkageName: "_ZN9Timestamp11assign_nsecEij", scope: !5, file: !4, line: 401, type: !162, scopeLine: 401, flags: DIFlagPublic | DIFlagPrototyped, spFlags: DISPFlagOptimized)
!166 = !DISubprogram(name: "set", linkageName: "_ZN9Timestamp3setEij", scope: !5, file: !4, line: 408, type: !162, scopeLine: 408, flags: DIFlagPublic | DIFlagPrototyped, spFlags: DISPFlagOptimized)
!167 = !DISubprogram(name: "set_usec", linkageName: "_ZN9Timestamp8set_usecEij", scope: !5, file: !4, line: 411, type: !162, scopeLine: 411, flags: DIFlagPublic | DIFlagPrototyped, spFlags: DISPFlagOptimized)
!168 = !DISubprogram(name: "set_nsec", linkageName: "_ZN9Timestamp8set_nsecEij", scope: !5, file: !4, line: 414, type: !162, scopeLine: 414, flags: DIFlagPublic | DIFlagPrototyped, spFlags: DISPFlagOptimized)
!169 = !DISubprogram(name: "set_now", linkageName: "_ZN9Timestamp7set_nowEv", scope: !5, file: !4, line: 417, type: !17, scopeLine: 417, flags: DIFlagPublic | DIFlagPrototyped, spFlags: DISPFlagOptimized)
!170 = !DISubprogram(name: "set_timeval_ioctl", linkageName: "_ZN9Timestamp17set_timeval_ioctlEii", scope: !5, file: !4, line: 420, type: !171, scopeLine: 420, flags: DIFlagPublic | DIFlagPrototyped, spFlags: DISPFlagOptimized)
!171 = !DISubroutineType(types: !172)
!172 = !{!30, !19, !30, !30}
!173 = !DISubprogram(name: "now", linkageName: "_ZN9Timestamp3nowEv", scope: !5, file: !4, line: 432, type: !158, scopeLine: 432, flags: DIFlagPublic | DIFlagPrototyped | DIFlagStaticMember, spFlags: DISPFlagOptimized)
!174 = !DISubprogram(name: "assign_now", linkageName: "_ZN9Timestamp10assign_nowEv", scope: !5, file: !4, line: 438, type: !17, scopeLine: 438, flags: DIFlagPublic | DIFlagPrototyped, spFlags: DISPFlagOptimized)
