; ModuleID = '../elements/tcpudp/fastudpsrcip6.cc'
source_filename = "../elements/tcpudp/fastudpsrcip6.cc"
target datalayout = "e-m:e-p270:32:32-p271:32:32-p272:64:64-i64:64-f80:128-n8:16:32:64-S128"
target triple = "x86_64-pc-linux-gnu"

%class.ArgContext = type <{ %class.Element*, %class.ErrorHandler*, i8*, i8, [7 x i8] }>
%class.Element = type <{ i32 (...)**, [2 x %"class.Element::Port"*], [4 x %"class.Element::Port"], [2 x i32], %class.Router*, i32, [4 x i8] }>
%"class.Element::Port" = type <{ %class.Element*, i32, [4 x i8] }>
%class.Router = type opaque
%class.ErrorHandler = type <{ i32 (...)**, i32, [4 x i8] }>
%class.FastUDPSourceIP6 = type <{ %class.Element.base, i8, [3 x i8], i32, %struct.click_ether, [2 x i8], %class.IP6Address, %class.IP6Address, i16, i16, i16, [2 x i8], i32, i8, [7 x i8], %class.Packet*, i32, i32, %class.GapRate, i32, i32, i8, [7 x i8] }>
%class.Element.base = type <{ i32 (...)**, [2 x %"class.Element::Port"*], [4 x %"class.Element::Port"], [2 x i32], %class.Router*, i32 }>
%struct.click_ether = type { [6 x i8], [6 x i8], i16 }
%class.IP6Address = type { %struct.in6_addr }
%struct.in6_addr = type { %union.anon }
%union.anon = type { [4 x i32] }
%class.Packet = type { %class.atomic_uint32_t, %class.Packet*, i8*, i8*, i8*, i8*, %"struct.Packet::AllAnno", void (i8*, i64, i8*)*, i8* }
%class.atomic_uint32_t = type { i32 }
%"struct.Packet::AllAnno" = type { %"union.Packet::Anno", i8*, i8*, i8*, i32, [8 x i8], %class.Packet*, %class.Packet* }
%"union.Packet::Anno" = type { [6 x i64] }
%class.GapRate = type { i32, i32, i32, i32 }
%class.Vector = type { %class.vector_memory }
%class.vector_memory = type { %class.String*, i32, i32 }
%class.String = type { %"struct.String::rep_t" }
%"struct.String::rep_t" = type { i8*, i32, %"struct.String::memo_t"* }
%"struct.String::memo_t" = type { i32, i32, i32, [8 x i8] }
%class.Args = type { %class.ArgContext.base, i8, i8, i8, %class.Vector*, %class.Vector.0, %"struct.Args::Slot"*, [48 x i8] }
%class.ArgContext.base = type <{ %class.Element*, %class.ErrorHandler*, i8*, i8 }>
%class.Vector.0 = type { %class.vector_memory.1 }
%class.vector_memory.1 = type { %struct.char_array*, i32, i32 }
%struct.char_array = type opaque
%"struct.Args::Slot" = type { i32 (...)**, %"struct.Args::Slot"* }
%class.WritablePacket = type { %class.Packet }
%struct.click_ip6 = type { %union.anon.2, %struct.in6_addr, %struct.in6_addr }
%union.anon.2 = type { %struct.anon.3 }
%struct.anon.3 = type { i32, i16, i8, i8 }
%class.Timestamp = type { %"union.Timestamp::rep_t" }
%"union.Timestamp::rep_t" = type { i64 }
%class.IntArg = type { i32, i32 }
%class.Task = type opaque
%class.Timer = type opaque
%class.EtherAddressArg = type { i32 }
%class.EtherAddress = type { [3 x i16] }
%class.IPPortArg = type { i32 }

$_ZNK16FastUDPSourceIP610class_nameEv = comdat any

$_ZNK16FastUDPSourceIP610port_countEv = comdat any

$_ZNK16FastUDPSourceIP610processingEv = comdat any

$_ZN9Timestamp10assign_nowEv = comdat any

$_Z14args_base_readIjEvP4ArgsPKciRT_ = comdat any

$_ZN4Args9base_readIjEEvPKciRT_ = comdat any

$_ZNK6String6lengthEv = comdat any

$__clang_call_terminate = comdat any

$_Z14args_base_readIiEvP4ArgsPKciRT_ = comdat any

$_ZN4Args9base_readIiEEvPKciRT_ = comdat any

$_Z14args_base_readI15EtherAddressArgA6_hEvP4ArgsPKciT_RT0_ = comdat any

$_ZN4Args9base_readI15EtherAddressArgA6_hEEvPKciT_RT0_ = comdat any

$_Z14args_base_readI10IP6AddressEvP4ArgsPKciRT_ = comdat any

$_ZN4Args9base_readI10IP6AddressEEvPKciRT_ = comdat any

$_Z14args_base_readI9IPPortArgtEvP4ArgsPKciT_RT0_ = comdat any

$_ZN4Args9base_readI9IPPortArgtEEvPKciT_RT0_ = comdat any

$_Z14args_base_readIbEvP4ArgsPKciRT_ = comdat any

$_ZN4Args9base_readIbEEvPKciRT_ = comdat any

@_ZN16FastUDPSourceIP68NO_LIMITE = dso_local local_unnamed_addr constant i32 -1, align 4, !dbg !0
@_ZTV16FastUDPSourceIP6 = dso_local unnamed_addr constant { [29 x i8*] } { [29 x i8*] [i8* null, i8* bitcast ({ i8*, i8*, i8* }* @_ZTI16FastUDPSourceIP6 to i8*), i8* bitcast (void (%class.FastUDPSourceIP6*)* @_ZN16FastUDPSourceIP6D2Ev to i8*), i8* bitcast (void (%class.FastUDPSourceIP6*)* @_ZN16FastUDPSourceIP6D0Ev to i8*), i8* bitcast (void (%class.Element*, i32, %class.Packet*)* @_ZN7Element4pushEiP6Packet to i8*), i8* bitcast (%class.Packet* (%class.FastUDPSourceIP6*, i32)* @_ZN16FastUDPSourceIP64pullEi to i8*), i8* bitcast (%class.Packet* (%class.Element*, %class.Packet*)* @_ZN7Element13simple_actionEP6Packet to i8*), i8* bitcast (i1 (%class.Element*, %class.Task*)* @_ZN7Element8run_taskEP4Task to i8*), i8* bitcast (void (%class.Element*, %class.Timer*)* @_ZN7Element9run_timerEP5Timer to i8*), i8* bitcast (void (%class.Element*, i32, i32)* @_ZN7Element8selectedEii to i8*), i8* bitcast (void (%class.Element*, i32)* @_ZN7Element8selectedEi to i8*), i8* bitcast (i8* (%class.FastUDPSourceIP6*)* @_ZNK16FastUDPSourceIP610class_nameEv to i8*), i8* bitcast (i8* (%class.FastUDPSourceIP6*)* @_ZNK16FastUDPSourceIP610port_countEv to i8*), i8* bitcast (i8* (%class.FastUDPSourceIP6*)* @_ZNK16FastUDPSourceIP610processingEv to i8*), i8* bitcast (i8* (%class.Element*)* @_ZNK7Element9flow_codeEv to i8*), i8* bitcast (i8* (%class.Element*)* @_ZNK7Element5flagsEv to i8*), i8* bitcast (i8* (%class.Element*, i8*)* @_ZN7Element4castEPKc to i8*), i8* bitcast (i8* (%class.Element*, i1, i32, i8*)* @_ZN7Element9port_castEbiPKc to i8*), i8* bitcast (i32 (%class.Element*)* @_ZNK7Element15configure_phaseEv to i8*), i8* bitcast (i32 (%class.FastUDPSourceIP6*, %class.Vector*, %class.ErrorHandler*)* @_ZN16FastUDPSourceIP69configureER6VectorI6StringEP12ErrorHandler to i8*), i8* bitcast (void (%class.FastUDPSourceIP6*)* @_ZN16FastUDPSourceIP612add_handlersEv to i8*), i8* bitcast (i32 (%class.FastUDPSourceIP6*, %class.ErrorHandler*)* @_ZN16FastUDPSourceIP610initializeEP12ErrorHandler to i8*), i8* bitcast (void (%class.Element*, %class.Element*, %class.ErrorHandler*)* @_ZN7Element10take_stateEPS_P12ErrorHandler to i8*), i8* bitcast (%class.Element* (%class.Element*)* @_ZNK7Element15hotswap_elementEv to i8*), i8* bitcast (void (%class.FastUDPSourceIP6*, i32)* @_ZN16FastUDPSourceIP67cleanupEN7Element12CleanupStageE to i8*), i8* bitcast (void (%class.String*, %class.Element*)* @_ZNK7Element11declarationEv to i8*), i8* bitcast (i1 (%class.Element*)* @_ZNK7Element20can_live_reconfigureEv to i8*), i8* bitcast (i32 (%class.Element*, %class.Vector*, %class.ErrorHandler*)* @_ZN7Element16live_reconfigureER6VectorI6StringEP12ErrorHandler to i8*), i8* bitcast (i32 (%class.Element*, i32, i8*)* @_ZN7Element5llrpcEjPv to i8*)] }, align 8
@.str = private unnamed_addr constant [5 x i8] c"RATE\00", align 1
@.str.1 = private unnamed_addr constant [6 x i8] c"LIMIT\00", align 1
@.str.2 = private unnamed_addr constant [7 x i8] c"LENGTH\00", align 1
@.str.3 = private unnamed_addr constant [7 x i8] c"SRCETH\00", align 1
@.str.4 = private unnamed_addr constant [7 x i8] c"SRCIP6\00", align 1
@.str.5 = private unnamed_addr constant [6 x i8] c"SPORT\00", align 1
@.str.6 = private unnamed_addr constant [7 x i8] c"DSTETH\00", align 1
@.str.7 = private unnamed_addr constant [7 x i8] c"DSTIP6\00", align 1
@.str.8 = private unnamed_addr constant [6 x i8] c"DPORT\00", align 1
@.str.9 = private unnamed_addr constant [9 x i8] c"CHECKSUM\00", align 1
@.str.10 = private unnamed_addr constant [9 x i8] c"INTERVAL\00", align 1
@.str.11 = private unnamed_addr constant [7 x i8] c"ACTIVE\00", align 1
@.str.12 = private unnamed_addr constant [46 x i8] c"warning: packet length < 60, defaulting to 60\00", align 1
@.str.13 = private unnamed_addr constant [6 x i8] c"count\00", align 1
@.str.14 = private unnamed_addr constant [5 x i8] c"rate\00", align 1
@.str.15 = private unnamed_addr constant [6 x i8] c"reset\00", align 1
@.str.16 = private unnamed_addr constant [7 x i8] c"active\00", align 1
@.str.17 = private unnamed_addr constant [6 x i8] c"limit\00", align 1
@_ZTVN10__cxxabiv120__si_class_type_infoE = external global i8*
@_ZTS16FastUDPSourceIP6 = dso_local constant [19 x i8] c"16FastUDPSourceIP6\00", align 1
@_ZTI7Element = external constant i8*
@_ZTI16FastUDPSourceIP6 = dso_local constant { i8*, i8*, i8* } { i8* bitcast (i8** getelementptr inbounds (i8*, i8** @_ZTVN10__cxxabiv120__si_class_type_infoE, i64 2) to i8*), i8* getelementptr inbounds ([19 x i8], [19 x i8]* @_ZTS16FastUDPSourceIP6, i32 0, i32 0), i8* bitcast (i8** @_ZTI7Element to i8*) }, align 8
@.str.20 = private unnamed_addr constant [2 x i8] c"0\00", align 1
@blank_args = external global %class.ArgContext, align 8
@.str.21 = private unnamed_addr constant [36 x i8] c"rate parameter must be integer >= 0\00", align 1
@.str.22 = private unnamed_addr constant [26 x i8] c"rate too large; max is %u\00", align 1
@.str.23 = private unnamed_addr constant [15 x i8] c"invalid number\00", align 1
@.str.24 = private unnamed_addr constant [33 x i8] c"active parameter must be boolean\00", align 1
@.str.25 = private unnamed_addr constant [37 x i8] c"limit parameter must be integer >= 0\00", align 1
@.str.26 = private unnamed_addr constant [17 x i8] c"FastUDPSourceIP6\00", align 1
@_ZN7Element9PORTS_0_1E = external constant [0 x i8], align 1
@_ZN7Element4PULLE = external constant [0 x i8], align 1
@.str.27 = private unnamed_addr constant [18 x i8] c"_r.memo->refcount\00", align 1
@.str.28 = private unnamed_addr constant [29 x i8] c"../dummy_inc/click/string.hh\00", align 1
@__PRETTY_FUNCTION__._ZNK6String5derefEv = private unnamed_addr constant [27 x i8] c"void String::deref() const\00", align 1

@_ZN16FastUDPSourceIP6C1Ev = dso_local unnamed_addr alias void (%class.FastUDPSourceIP6*), void (%class.FastUDPSourceIP6*)* @_ZN16FastUDPSourceIP6C2Ev
@_ZN16FastUDPSourceIP6D1Ev = dso_local unnamed_addr alias void (%class.FastUDPSourceIP6*), void (%class.FastUDPSourceIP6*)* @_ZN16FastUDPSourceIP6D2Ev

; Function Attrs: sspstrong uwtable
define dso_local void @_ZN16FastUDPSourceIP6C2Ev(%class.FastUDPSourceIP6* %0) unnamed_addr #0 align 2 personality i8* bitcast (i32 (...)* @__gxx_personality_v0 to i8*) !dbg !2944 {
  call void @llvm.dbg.value(metadata %class.FastUDPSourceIP6* %0, metadata !2946, metadata !DIExpression()), !dbg !2947
  %2 = bitcast %class.FastUDPSourceIP6* %0 to %class.Element*, !dbg !2948
  tail call void @_ZN7ElementC2Ev(%class.Element* %2), !dbg !2949
  %3 = getelementptr %class.FastUDPSourceIP6, %class.FastUDPSourceIP6* %0, i64 0, i32 0, i32 0, !dbg !2948
  store i32 (...)** bitcast (i8** getelementptr inbounds ({ [29 x i8*] }, { [29 x i8*] }* @_ZTV16FastUDPSourceIP6, i64 0, inrange i32 0, i64 2) to i32 (...)**), i32 (...)*** %3, align 8, !dbg !2948, !tbaa !2950
  %4 = getelementptr inbounds %class.FastUDPSourceIP6, %class.FastUDPSourceIP6* %0, i64 0, i32 6, !dbg !2949
  call void @llvm.dbg.value(metadata %class.IP6Address* %4, metadata !2953, metadata !DIExpression()) #12, !dbg !2956
  call void @llvm.dbg.value(metadata %class.FastUDPSourceIP6* %0, metadata !2953, metadata !DIExpression(DW_OP_plus_uconst, 148, DW_OP_stack_value)) #12, !dbg !2958
  %5 = getelementptr inbounds %class.FastUDPSourceIP6, %class.FastUDPSourceIP6* %0, i64 0, i32 15, !dbg !2960
  store %class.Packet* null, %class.Packet** %5, align 8, !dbg !2960, !tbaa !2961
  call void @llvm.dbg.value(metadata %class.FastUDPSourceIP6* %0, metadata !2972, metadata !DIExpression(DW_OP_plus_uconst, 200, DW_OP_stack_value)), !dbg !2976
  call void @llvm.dbg.value(metadata %class.FastUDPSourceIP6* %0, metadata !2978, metadata !DIExpression(DW_OP_plus_uconst, 200, DW_OP_stack_value)), !dbg !2982
  call void @llvm.dbg.value(metadata i32 0, metadata !2981, metadata !DIExpression()), !dbg !2982
  %6 = getelementptr inbounds %class.FastUDPSourceIP6, %class.FastUDPSourceIP6* %0, i64 0, i32 18, i32 3, !dbg !2985
  store i32 0, i32* %6, align 4, !dbg !2986, !tbaa !2987
  %7 = getelementptr inbounds %class.FastUDPSourceIP6, %class.FastUDPSourceIP6* %0, i64 0, i32 18, i32 0, !dbg !2988
  %8 = bitcast %class.IP6Address* %4 to i8*, !dbg !2989
  call void @llvm.memset.p0i8.i64(i8* nonnull align 4 dereferenceable(32) %8, i8 0, i64 32, i1 false), !dbg !2990
  store i32 -198967295, i32* %7, align 4, !dbg !2989, !tbaa !2992
  call void @llvm.dbg.value(metadata %class.FastUDPSourceIP6* %0, metadata !2993, metadata !DIExpression(DW_OP_plus_uconst, 200, DW_OP_stack_value)), !dbg !2996
  %9 = getelementptr inbounds %class.FastUDPSourceIP6, %class.FastUDPSourceIP6* %0, i64 0, i32 18, i32 2, !dbg !2998
  store i32 -1, i32* %9, align 4, !dbg !2999, !tbaa !3000
  %10 = getelementptr inbounds %class.FastUDPSourceIP6, %class.FastUDPSourceIP6* %0, i64 0, i32 1, !dbg !3001
  store i8 1, i8* %10, align 4, !dbg !3003, !tbaa !3004
  %11 = getelementptr inbounds %class.FastUDPSourceIP6, %class.FastUDPSourceIP6* %0, i64 0, i32 17, !dbg !3005
  store i32 0, i32* %11, align 4, !dbg !3006, !tbaa !3007
  %12 = getelementptr inbounds %class.FastUDPSourceIP6, %class.FastUDPSourceIP6* %0, i64 0, i32 16, !dbg !3008
  store i32 0, i32* %12, align 8, !dbg !3009, !tbaa !3010
  %13 = getelementptr inbounds %class.FastUDPSourceIP6, %class.FastUDPSourceIP6* %0, i64 0, i32 19, !dbg !3011
  store i32 0, i32* %13, align 8, !dbg !3012, !tbaa !3013
  ret void, !dbg !3014
}

; Function Attrs: nounwind readnone speculatable willreturn
declare void @llvm.dbg.declare(metadata, metadata, metadata) #1

declare void @_ZN7ElementC2Ev(%class.Element*) unnamed_addr #2

declare i32 @__gxx_personality_v0(...)

; Function Attrs: nounwind
declare void @_ZN7ElementD2Ev(%class.Element*) unnamed_addr #3

; Function Attrs: nounwind sspstrong uwtable
define dso_local void @_ZN16FastUDPSourceIP6D2Ev(%class.FastUDPSourceIP6* %0) unnamed_addr #4 align 2 !dbg !3015 {
  call void @llvm.dbg.value(metadata %class.FastUDPSourceIP6* %0, metadata !3017, metadata !DIExpression()), !dbg !3018
  %2 = bitcast %class.FastUDPSourceIP6* %0 to %class.Element*, !dbg !3019
  tail call void @_ZN7ElementD2Ev(%class.Element* %2) #12, !dbg !3019
  ret void, !dbg !3021
}

; Function Attrs: nounwind sspstrong uwtable
define dso_local void @_ZN16FastUDPSourceIP6D0Ev(%class.FastUDPSourceIP6* %0) unnamed_addr #4 align 2 !dbg !3022 {
  call void @llvm.dbg.value(metadata %class.FastUDPSourceIP6* %0, metadata !3024, metadata !DIExpression()), !dbg !3025
  call void @llvm.dbg.value(metadata %class.FastUDPSourceIP6* %0, metadata !3017, metadata !DIExpression()) #12, !dbg !3026
  %2 = bitcast %class.FastUDPSourceIP6* %0 to %class.Element*, !dbg !3028
  tail call void @_ZN7ElementD2Ev(%class.Element* %2) #12, !dbg !3028
  %3 = bitcast %class.FastUDPSourceIP6* %0 to i8*, !dbg !3029
  tail call void @_ZdlPv(i8* %3) #13, !dbg !3029
  ret void, !dbg !3030
}

; Function Attrs: nobuiltin nounwind
declare void @_ZdlPv(i8*) local_unnamed_addr #5

; Function Attrs: sspstrong uwtable
define dso_local i32 @_ZN16FastUDPSourceIP69configureER6VectorI6StringEP12ErrorHandler(%class.FastUDPSourceIP6* %0, %class.Vector* dereferenceable(16) %1, %class.ErrorHandler* %2) unnamed_addr #0 align 2 personality i8* bitcast (i32 (...)* @__gxx_personality_v0 to i8*) !dbg !3031 {
  %4 = alloca i32, align 4
  %5 = alloca i32, align 4
  %6 = alloca %class.Args, align 8
  call void @llvm.dbg.value(metadata %class.FastUDPSourceIP6* %0, metadata !3033, metadata !DIExpression()), !dbg !3038
  call void @llvm.dbg.value(metadata %class.Vector* %1, metadata !3034, metadata !DIExpression()), !dbg !3038
  call void @llvm.dbg.value(metadata %class.ErrorHandler* %2, metadata !3035, metadata !DIExpression()), !dbg !3038
  %7 = getelementptr inbounds %class.FastUDPSourceIP6, %class.FastUDPSourceIP6* %0, i64 0, i32 13, !dbg !3039
  store i8 1, i8* %7, align 8, !dbg !3040, !tbaa !3041
  %8 = getelementptr inbounds %class.FastUDPSourceIP6, %class.FastUDPSourceIP6* %0, i64 0, i32 21, !dbg !3042
  store i8 1, i8* %8, align 8, !dbg !3043, !tbaa !3044
  %9 = getelementptr inbounds %class.FastUDPSourceIP6, %class.FastUDPSourceIP6* %0, i64 0, i32 12, !dbg !3045
  store i32 0, i32* %9, align 4, !dbg !3046, !tbaa !3047
  %10 = bitcast i32* %4 to i8*, !dbg !3048
  call void @llvm.lifetime.start.p0i8(i64 4, i8* nonnull %10) #12, !dbg !3048
  %11 = bitcast i32* %5 to i8*, !dbg !3049
  call void @llvm.lifetime.start.p0i8(i64 4, i8* nonnull %11) #12, !dbg !3049
  %12 = bitcast %class.Args* %6 to i8*, !dbg !3050
  call void @llvm.lifetime.start.p0i8(i64 112, i8* nonnull %12) #12, !dbg !3050
  %13 = bitcast %class.FastUDPSourceIP6* %0 to %class.Element*, !dbg !3052
  call void @_ZN4ArgsC1ERK6VectorI6StringEPK7ElementP12ErrorHandler(%class.Args* nonnull %6, %class.Vector* nonnull dereferenceable(16) %1, %class.Element* %13, %class.ErrorHandler* %2), !dbg !3050
  call void @llvm.dbg.value(metadata %class.Args* %6, metadata !3053, metadata !DIExpression()), !dbg !3061
  call void @llvm.dbg.value(metadata i8* getelementptr inbounds ([5 x i8], [5 x i8]* @.str, i64 0, i64 0), metadata !3059, metadata !DIExpression()), !dbg !3061
  call void @llvm.dbg.value(metadata i32* %4, metadata !3060, metadata !DIExpression()), !dbg !3061
  call void @llvm.dbg.value(metadata %class.Args* %6, metadata !3063, metadata !DIExpression()), !dbg !3072
  call void @llvm.dbg.value(metadata i8* getelementptr inbounds ([5 x i8], [5 x i8]* @.str, i64 0, i64 0), metadata !3069, metadata !DIExpression()), !dbg !3072
  call void @llvm.dbg.value(metadata i32 3, metadata !3070, metadata !DIExpression()), !dbg !3072
  call void @llvm.dbg.value(metadata i32* %4, metadata !3071, metadata !DIExpression()), !dbg !3072
  invoke void @_Z14args_base_readIjEvP4ArgsPKciRT_(%class.Args* nonnull %6, i8* getelementptr inbounds ([5 x i8], [5 x i8]* @.str, i64 0, i64 0), i32 3, i32* nonnull dereferenceable(4) %4)
          to label %14 unwind label %36, !dbg !3074

14:                                               ; preds = %3
  call void @llvm.dbg.value(metadata %class.Args* %6, metadata !3075, metadata !DIExpression()), !dbg !3083
  call void @llvm.dbg.value(metadata i8* getelementptr inbounds ([6 x i8], [6 x i8]* @.str.1, i64 0, i64 0), metadata !3081, metadata !DIExpression()), !dbg !3083
  call void @llvm.dbg.value(metadata i32* %5, metadata !3082, metadata !DIExpression()), !dbg !3083
  call void @llvm.dbg.value(metadata %class.Args* %6, metadata !3085, metadata !DIExpression()), !dbg !3094
  call void @llvm.dbg.value(metadata i8* getelementptr inbounds ([6 x i8], [6 x i8]* @.str.1, i64 0, i64 0), metadata !3091, metadata !DIExpression()), !dbg !3094
  call void @llvm.dbg.value(metadata i32 3, metadata !3092, metadata !DIExpression()), !dbg !3094
  call void @llvm.dbg.value(metadata i32* %5, metadata !3093, metadata !DIExpression()), !dbg !3094
  invoke void @_Z14args_base_readIiEvP4ArgsPKciRT_(%class.Args* nonnull %6, i8* getelementptr inbounds ([6 x i8], [6 x i8]* @.str.1, i64 0, i64 0), i32 3, i32* nonnull dereferenceable(4) %5)
          to label %15 unwind label %36, !dbg !3096

15:                                               ; preds = %14
  %16 = getelementptr inbounds %class.FastUDPSourceIP6, %class.FastUDPSourceIP6* %0, i64 0, i32 3, !dbg !3097
  call void @llvm.dbg.value(metadata %class.Args* %6, metadata !3053, metadata !DIExpression()), !dbg !3098
  call void @llvm.dbg.value(metadata i8* getelementptr inbounds ([7 x i8], [7 x i8]* @.str.2, i64 0, i64 0), metadata !3059, metadata !DIExpression()), !dbg !3098
  call void @llvm.dbg.value(metadata i32* %16, metadata !3060, metadata !DIExpression()), !dbg !3098
  call void @llvm.dbg.value(metadata %class.Args* %6, metadata !3063, metadata !DIExpression()), !dbg !3100
  call void @llvm.dbg.value(metadata i8* getelementptr inbounds ([7 x i8], [7 x i8]* @.str.2, i64 0, i64 0), metadata !3069, metadata !DIExpression()), !dbg !3100
  call void @llvm.dbg.value(metadata i32 3, metadata !3070, metadata !DIExpression()), !dbg !3100
  call void @llvm.dbg.value(metadata i32* %16, metadata !3071, metadata !DIExpression()), !dbg !3100
  invoke void @_Z14args_base_readIjEvP4ArgsPKciRT_(%class.Args* nonnull %6, i8* getelementptr inbounds ([7 x i8], [7 x i8]* @.str.2, i64 0, i64 0), i32 3, i32* nonnull dereferenceable(4) %16)
          to label %17 unwind label %36, !dbg !3102

17:                                               ; preds = %15
  %18 = getelementptr inbounds %class.FastUDPSourceIP6, %class.FastUDPSourceIP6* %0, i64 0, i32 4, i32 1, !dbg !3103
  call void @llvm.dbg.value(metadata i32 0, metadata !3104, metadata !DIExpression()), !dbg !3113
  call void @llvm.dbg.value(metadata %class.Args* %6, metadata !3110, metadata !DIExpression()), !dbg !3113
  call void @llvm.dbg.value(metadata i8* getelementptr inbounds ([7 x i8], [7 x i8]* @.str.3, i64 0, i64 0), metadata !3111, metadata !DIExpression()), !dbg !3113
  call void @llvm.dbg.value(metadata [6 x i8]* %18, metadata !3112, metadata !DIExpression()), !dbg !3113
  call void @llvm.dbg.value(metadata i32 0, metadata !3115, metadata !DIExpression()), !dbg !3125
  call void @llvm.dbg.value(metadata %class.Args* %6, metadata !3121, metadata !DIExpression()), !dbg !3125
  call void @llvm.dbg.value(metadata i8* getelementptr inbounds ([7 x i8], [7 x i8]* @.str.3, i64 0, i64 0), metadata !3122, metadata !DIExpression()), !dbg !3125
  call void @llvm.dbg.value(metadata i32 3, metadata !3123, metadata !DIExpression()), !dbg !3125
  call void @llvm.dbg.value(metadata [6 x i8]* %18, metadata !3124, metadata !DIExpression()), !dbg !3125
  invoke void @_Z14args_base_readI15EtherAddressArgA6_hEvP4ArgsPKciT_RT0_(%class.Args* nonnull %6, i8* getelementptr inbounds ([7 x i8], [7 x i8]* @.str.3, i64 0, i64 0), i32 3, i32 0, [6 x i8]* nonnull dereferenceable(6) %18)
          to label %19 unwind label %36, !dbg !3127

19:                                               ; preds = %17
  %20 = getelementptr inbounds %class.FastUDPSourceIP6, %class.FastUDPSourceIP6* %0, i64 0, i32 6, !dbg !3128
  call void @llvm.dbg.value(metadata %class.Args* %6, metadata !3129, metadata !DIExpression()), !dbg !3137
  call void @llvm.dbg.value(metadata i8* getelementptr inbounds ([7 x i8], [7 x i8]* @.str.4, i64 0, i64 0), metadata !3135, metadata !DIExpression()), !dbg !3137
  call void @llvm.dbg.value(metadata %class.IP6Address* %20, metadata !3136, metadata !DIExpression()), !dbg !3137
  call void @llvm.dbg.value(metadata %class.Args* %6, metadata !3139, metadata !DIExpression()), !dbg !3148
  call void @llvm.dbg.value(metadata i8* getelementptr inbounds ([7 x i8], [7 x i8]* @.str.4, i64 0, i64 0), metadata !3145, metadata !DIExpression()), !dbg !3148
  call void @llvm.dbg.value(metadata i32 3, metadata !3146, metadata !DIExpression()), !dbg !3148
  call void @llvm.dbg.value(metadata %class.IP6Address* %20, metadata !3147, metadata !DIExpression()), !dbg !3148
  invoke void @_Z14args_base_readI10IP6AddressEvP4ArgsPKciRT_(%class.Args* nonnull %6, i8* getelementptr inbounds ([7 x i8], [7 x i8]* @.str.4, i64 0, i64 0), i32 3, %class.IP6Address* nonnull dereferenceable(16) %20)
          to label %21 unwind label %36, !dbg !3150

21:                                               ; preds = %19
  %22 = getelementptr inbounds %class.FastUDPSourceIP6, %class.FastUDPSourceIP6* %0, i64 0, i32 8, !dbg !3151
  call void @llvm.dbg.value(metadata i32 17, metadata !3152, metadata !DIExpression()), !dbg !3161
  call void @llvm.dbg.value(metadata %class.Args* %6, metadata !3158, metadata !DIExpression()), !dbg !3161
  call void @llvm.dbg.value(metadata i8* getelementptr inbounds ([6 x i8], [6 x i8]* @.str.5, i64 0, i64 0), metadata !3159, metadata !DIExpression()), !dbg !3161
  call void @llvm.dbg.value(metadata i16* %22, metadata !3160, metadata !DIExpression()), !dbg !3161
  call void @llvm.dbg.value(metadata i32 17, metadata !3163, metadata !DIExpression()), !dbg !3173
  call void @llvm.dbg.value(metadata %class.Args* %6, metadata !3169, metadata !DIExpression()), !dbg !3173
  call void @llvm.dbg.value(metadata i8* getelementptr inbounds ([6 x i8], [6 x i8]* @.str.5, i64 0, i64 0), metadata !3170, metadata !DIExpression()), !dbg !3173
  call void @llvm.dbg.value(metadata i32 3, metadata !3171, metadata !DIExpression()), !dbg !3173
  call void @llvm.dbg.value(metadata i16* %22, metadata !3172, metadata !DIExpression()), !dbg !3173
  invoke void @_Z14args_base_readI9IPPortArgtEvP4ArgsPKciT_RT0_(%class.Args* nonnull %6, i8* getelementptr inbounds ([6 x i8], [6 x i8]* @.str.5, i64 0, i64 0), i32 3, i32 17, i16* nonnull dereferenceable(2) %22)
          to label %23 unwind label %36, !dbg !3175

23:                                               ; preds = %21
  %24 = getelementptr inbounds %class.FastUDPSourceIP6, %class.FastUDPSourceIP6* %0, i64 0, i32 4, i32 0, !dbg !3176
  call void @llvm.dbg.value(metadata i32 0, metadata !3104, metadata !DIExpression()), !dbg !3177
  call void @llvm.dbg.value(metadata %class.Args* %6, metadata !3110, metadata !DIExpression()), !dbg !3177
  call void @llvm.dbg.value(metadata i8* getelementptr inbounds ([7 x i8], [7 x i8]* @.str.6, i64 0, i64 0), metadata !3111, metadata !DIExpression()), !dbg !3177
  call void @llvm.dbg.value(metadata [6 x i8]* %24, metadata !3112, metadata !DIExpression()), !dbg !3177
  call void @llvm.dbg.value(metadata i32 0, metadata !3115, metadata !DIExpression()), !dbg !3179
  call void @llvm.dbg.value(metadata %class.Args* %6, metadata !3121, metadata !DIExpression()), !dbg !3179
  call void @llvm.dbg.value(metadata i8* getelementptr inbounds ([7 x i8], [7 x i8]* @.str.6, i64 0, i64 0), metadata !3122, metadata !DIExpression()), !dbg !3179
  call void @llvm.dbg.value(metadata i32 3, metadata !3123, metadata !DIExpression()), !dbg !3179
  call void @llvm.dbg.value(metadata [6 x i8]* %24, metadata !3124, metadata !DIExpression()), !dbg !3179
  invoke void @_Z14args_base_readI15EtherAddressArgA6_hEvP4ArgsPKciT_RT0_(%class.Args* nonnull %6, i8* getelementptr inbounds ([7 x i8], [7 x i8]* @.str.6, i64 0, i64 0), i32 3, i32 0, [6 x i8]* nonnull dereferenceable(6) %24)
          to label %25 unwind label %36, !dbg !3181

25:                                               ; preds = %23
  %26 = getelementptr inbounds %class.FastUDPSourceIP6, %class.FastUDPSourceIP6* %0, i64 0, i32 7, !dbg !3182
  call void @llvm.dbg.value(metadata %class.Args* %6, metadata !3129, metadata !DIExpression()), !dbg !3183
  call void @llvm.dbg.value(metadata i8* getelementptr inbounds ([7 x i8], [7 x i8]* @.str.7, i64 0, i64 0), metadata !3135, metadata !DIExpression()), !dbg !3183
  call void @llvm.dbg.value(metadata %class.IP6Address* %26, metadata !3136, metadata !DIExpression()), !dbg !3183
  call void @llvm.dbg.value(metadata %class.Args* %6, metadata !3139, metadata !DIExpression()), !dbg !3185
  call void @llvm.dbg.value(metadata i8* getelementptr inbounds ([7 x i8], [7 x i8]* @.str.7, i64 0, i64 0), metadata !3145, metadata !DIExpression()), !dbg !3185
  call void @llvm.dbg.value(metadata i32 3, metadata !3146, metadata !DIExpression()), !dbg !3185
  call void @llvm.dbg.value(metadata %class.IP6Address* %26, metadata !3147, metadata !DIExpression()), !dbg !3185
  invoke void @_Z14args_base_readI10IP6AddressEvP4ArgsPKciRT_(%class.Args* nonnull %6, i8* getelementptr inbounds ([7 x i8], [7 x i8]* @.str.7, i64 0, i64 0), i32 3, %class.IP6Address* nonnull dereferenceable(16) %26)
          to label %27 unwind label %36, !dbg !3187

27:                                               ; preds = %25
  %28 = getelementptr inbounds %class.FastUDPSourceIP6, %class.FastUDPSourceIP6* %0, i64 0, i32 9, !dbg !3188
  call void @llvm.dbg.value(metadata i32 17, metadata !3152, metadata !DIExpression()), !dbg !3189
  call void @llvm.dbg.value(metadata %class.Args* %6, metadata !3158, metadata !DIExpression()), !dbg !3189
  call void @llvm.dbg.value(metadata i8* getelementptr inbounds ([6 x i8], [6 x i8]* @.str.8, i64 0, i64 0), metadata !3159, metadata !DIExpression()), !dbg !3189
  call void @llvm.dbg.value(metadata i16* %28, metadata !3160, metadata !DIExpression()), !dbg !3189
  call void @llvm.dbg.value(metadata i32 17, metadata !3163, metadata !DIExpression()), !dbg !3191
  call void @llvm.dbg.value(metadata %class.Args* %6, metadata !3169, metadata !DIExpression()), !dbg !3191
  call void @llvm.dbg.value(metadata i8* getelementptr inbounds ([6 x i8], [6 x i8]* @.str.8, i64 0, i64 0), metadata !3170, metadata !DIExpression()), !dbg !3191
  call void @llvm.dbg.value(metadata i32 3, metadata !3171, metadata !DIExpression()), !dbg !3191
  call void @llvm.dbg.value(metadata i16* %28, metadata !3172, metadata !DIExpression()), !dbg !3191
  invoke void @_Z14args_base_readI9IPPortArgtEvP4ArgsPKciT_RT0_(%class.Args* nonnull %6, i8* getelementptr inbounds ([6 x i8], [6 x i8]* @.str.8, i64 0, i64 0), i32 3, i32 17, i16* nonnull dereferenceable(2) %28)
          to label %29 unwind label %36, !dbg !3193

29:                                               ; preds = %27
  call void @llvm.dbg.value(metadata %class.Args* %6, metadata !3194, metadata !DIExpression()), !dbg !3202
  call void @llvm.dbg.value(metadata i8* getelementptr inbounds ([9 x i8], [9 x i8]* @.str.9, i64 0, i64 0), metadata !3200, metadata !DIExpression()), !dbg !3202
  call void @llvm.dbg.value(metadata i8* %7, metadata !3201, metadata !DIExpression()), !dbg !3202
  call void @llvm.dbg.value(metadata %class.Args* %6, metadata !3204, metadata !DIExpression()), !dbg !3213
  call void @llvm.dbg.value(metadata i8* getelementptr inbounds ([9 x i8], [9 x i8]* @.str.9, i64 0, i64 0), metadata !3210, metadata !DIExpression()), !dbg !3213
  call void @llvm.dbg.value(metadata i32 2, metadata !3211, metadata !DIExpression()), !dbg !3213
  call void @llvm.dbg.value(metadata i8* %7, metadata !3212, metadata !DIExpression()), !dbg !3213
  invoke void @_Z14args_base_readIbEvP4ArgsPKciRT_(%class.Args* nonnull %6, i8* getelementptr inbounds ([9 x i8], [9 x i8]* @.str.9, i64 0, i64 0), i32 2, i8* nonnull dereferenceable(1) %7)
          to label %30 unwind label %36, !dbg !3215

30:                                               ; preds = %29
  call void @llvm.dbg.value(metadata %class.Args* %6, metadata !3216, metadata !DIExpression()), !dbg !3222
  call void @llvm.dbg.value(metadata i8* getelementptr inbounds ([9 x i8], [9 x i8]* @.str.10, i64 0, i64 0), metadata !3220, metadata !DIExpression()), !dbg !3222
  call void @llvm.dbg.value(metadata i32* %9, metadata !3221, metadata !DIExpression()), !dbg !3222
  call void @llvm.dbg.value(metadata %class.Args* %6, metadata !3063, metadata !DIExpression()), !dbg !3224
  call void @llvm.dbg.value(metadata i8* getelementptr inbounds ([9 x i8], [9 x i8]* @.str.10, i64 0, i64 0), metadata !3069, metadata !DIExpression()), !dbg !3224
  call void @llvm.dbg.value(metadata i32 2, metadata !3070, metadata !DIExpression()), !dbg !3224
  call void @llvm.dbg.value(metadata i32* %9, metadata !3071, metadata !DIExpression()), !dbg !3224
  invoke void @_Z14args_base_readIjEvP4ArgsPKciRT_(%class.Args* nonnull %6, i8* getelementptr inbounds ([9 x i8], [9 x i8]* @.str.10, i64 0, i64 0), i32 2, i32* nonnull dereferenceable(4) %9)
          to label %31 unwind label %36, !dbg !3226

31:                                               ; preds = %30
  call void @llvm.dbg.value(metadata %class.Args* %6, metadata !3194, metadata !DIExpression()), !dbg !3227
  call void @llvm.dbg.value(metadata i8* getelementptr inbounds ([7 x i8], [7 x i8]* @.str.11, i64 0, i64 0), metadata !3200, metadata !DIExpression()), !dbg !3227
  call void @llvm.dbg.value(metadata i8* %8, metadata !3201, metadata !DIExpression()), !dbg !3227
  call void @llvm.dbg.value(metadata %class.Args* %6, metadata !3204, metadata !DIExpression()), !dbg !3229
  call void @llvm.dbg.value(metadata i8* getelementptr inbounds ([7 x i8], [7 x i8]* @.str.11, i64 0, i64 0), metadata !3210, metadata !DIExpression()), !dbg !3229
  call void @llvm.dbg.value(metadata i32 2, metadata !3211, metadata !DIExpression()), !dbg !3229
  call void @llvm.dbg.value(metadata i8* %8, metadata !3212, metadata !DIExpression()), !dbg !3229
  invoke void @_Z14args_base_readIbEvP4ArgsPKciRT_(%class.Args* nonnull %6, i8* getelementptr inbounds ([7 x i8], [7 x i8]* @.str.11, i64 0, i64 0), i32 2, i8* nonnull dereferenceable(1) %8)
          to label %32 unwind label %36, !dbg !3231

32:                                               ; preds = %31
  %33 = invoke i32 @_ZN4Args8completeEv(%class.Args* nonnull %6)
          to label %34 unwind label %36, !dbg !3232

34:                                               ; preds = %32
  %35 = icmp slt i32 %33, 0, !dbg !3233
  call void @_ZN4ArgsD1Ev(%class.Args* nonnull %6) #12, !dbg !3050
  call void @llvm.lifetime.end.p0i8(i64 112, i8* nonnull %12) #12, !dbg !3050
  br i1 %35, label %55, label %38, !dbg !3234

36:                                               ; preds = %27, %25, %23, %29, %21, %30, %19, %17, %31, %15, %14, %3, %32
  %37 = landingpad { i8*, i32 }
          cleanup, !dbg !3235
  call void @_ZN4ArgsD1Ev(%class.Args* nonnull %6) #12, !dbg !3050
  call void @llvm.lifetime.end.p0i8(i64 112, i8* nonnull %12) #12, !dbg !3050
  call void @llvm.lifetime.end.p0i8(i64 4, i8* nonnull %11) #12, !dbg !3236
  call void @llvm.lifetime.end.p0i8(i64 4, i8* nonnull %10) #12, !dbg !3236
  resume { i8*, i32 } %37, !dbg !3236

38:                                               ; preds = %34
  %39 = load i32, i32* %16, align 8, !dbg !3237, !tbaa !3239
  %40 = icmp ult i32 %39, 60, !dbg !3240
  br i1 %40, label %41, label %42, !dbg !3241

41:                                               ; preds = %38
  call void (i8*, ...) @click_chatter(i8* getelementptr inbounds ([46 x i8], [46 x i8]* @.str.12, i64 0, i64 0)), !dbg !3242
  store i32 60, i32* %16, align 8, !dbg !3244, !tbaa !3239
  br label %42, !dbg !3245

42:                                               ; preds = %41, %38
  %43 = getelementptr inbounds %class.FastUDPSourceIP6, %class.FastUDPSourceIP6* %0, i64 0, i32 4, i32 2, !dbg !3246
  store i16 -8826, i16* %43, align 4, !dbg !3247, !tbaa !3248
  %44 = load i32, i32* %4, align 4, !dbg !3249, !tbaa !3251
  call void @llvm.dbg.value(metadata i32 %44, metadata !3036, metadata !DIExpression()), !dbg !3038
  %45 = icmp eq i32 %44, 0, !dbg !3252
  %46 = getelementptr inbounds %class.FastUDPSourceIP6, %class.FastUDPSourceIP6* %0, i64 0, i32 1, !dbg !3253
  br i1 %45, label %49, label %47, !dbg !3254

47:                                               ; preds = %42
  store i8 1, i8* %46, align 4, !dbg !3255, !tbaa !3004
  %48 = getelementptr inbounds %class.FastUDPSourceIP6, %class.FastUDPSourceIP6* %0, i64 0, i32 18, !dbg !3257
  call void @llvm.dbg.value(metadata i32 %44, metadata !3036, metadata !DIExpression()), !dbg !3038
  call void @_ZN7GapRate8set_rateEjP12ErrorHandler(%class.GapRate* nonnull %48, i32 %44, %class.ErrorHandler* %2), !dbg !3258
  br label %50, !dbg !3259

49:                                               ; preds = %42
  store i8 0, i8* %46, align 4, !dbg !3260, !tbaa !3004
  br label %50

50:                                               ; preds = %49, %47
  %51 = load i32, i32* %5, align 4, !dbg !3262, !tbaa !3251
  call void @llvm.dbg.value(metadata i32 %51, metadata !3037, metadata !DIExpression()), !dbg !3038
  %52 = icmp sgt i32 %51, -1, !dbg !3263
  %53 = select i1 %52, i32 %51, i32 -1, !dbg !3262
  %54 = getelementptr inbounds %class.FastUDPSourceIP6, %class.FastUDPSourceIP6* %0, i64 0, i32 20, !dbg !3264
  store i32 %53, i32* %54, align 4, !dbg !3265, !tbaa !3266
  br label %55, !dbg !3267

55:                                               ; preds = %34, %50
  %56 = phi i32 [ 0, %50 ], [ -1, %34 ], !dbg !3038
  call void @llvm.lifetime.end.p0i8(i64 4, i8* nonnull %11) #12, !dbg !3236
  call void @llvm.lifetime.end.p0i8(i64 4, i8* nonnull %10) #12, !dbg !3236
  ret i32 %56, !dbg !3236
}

; Function Attrs: argmemonly nounwind willreturn
declare void @llvm.lifetime.start.p0i8(i64 immarg, i8* nocapture) #6

declare void @_ZN4ArgsC1ERK6VectorI6StringEPK7ElementP12ErrorHandler(%class.Args*, %class.Vector* dereferenceable(16), %class.Element*, %class.ErrorHandler*) unnamed_addr #2

declare i32 @_ZN4Args8completeEv(%class.Args*) local_unnamed_addr #2

; Function Attrs: nounwind
declare void @_ZN4ArgsD1Ev(%class.Args*) unnamed_addr #3

; Function Attrs: argmemonly nounwind willreturn
declare void @llvm.lifetime.end.p0i8(i64 immarg, i8* nocapture) #6

declare !dbg !1451 void @click_chatter(i8*, ...) local_unnamed_addr #2

declare void @_ZN7GapRate8set_rateEjP12ErrorHandler(%class.GapRate*, i32, %class.ErrorHandler*) local_unnamed_addr #2

; Function Attrs: sspstrong uwtable
define dso_local void @_ZN16FastUDPSourceIP610incr_portsEv(%class.FastUDPSourceIP6* nocapture %0) local_unnamed_addr #0 align 2 !dbg !3268 {
  call void @llvm.dbg.value(metadata %class.FastUDPSourceIP6* %0, metadata !3270, metadata !DIExpression()), !dbg !3274
  %2 = getelementptr inbounds %class.FastUDPSourceIP6, %class.FastUDPSourceIP6* %0, i64 0, i32 15, !dbg !3275
  %3 = load %class.Packet*, %class.Packet** %2, align 8, !dbg !3275, !tbaa !2961
  %4 = tail call %class.WritablePacket* @_ZN6Packet9uniqueifyEv(%class.Packet* %3), !dbg !3276
  call void @llvm.dbg.value(metadata %class.WritablePacket* %4, metadata !3271, metadata !DIExpression()), !dbg !3274
  %5 = getelementptr %class.WritablePacket, %class.WritablePacket* %4, i64 0, i32 0, !dbg !3277
  store %class.Packet* %5, %class.Packet** %2, align 8, !dbg !3278, !tbaa !2961
  %6 = tail call i8* @_ZNK14WritablePacket4dataEv(%class.WritablePacket* %4), !dbg !3279
  call void @llvm.dbg.value(metadata i8* %6, metadata !3272, metadata !DIExpression(DW_OP_plus_uconst, 14, DW_OP_stack_value)), !dbg !3274
  %7 = getelementptr inbounds i8, i8* %6, i64 54, !dbg !3280
  call void @llvm.dbg.value(metadata i8* %7, metadata !3273, metadata !DIExpression()), !dbg !3274
  %8 = getelementptr inbounds %class.FastUDPSourceIP6, %class.FastUDPSourceIP6* %0, i64 0, i32 10, !dbg !3281
  %9 = load i16, i16* %8, align 8, !dbg !3282, !tbaa !3283
  %10 = add i16 %9, 1, !dbg !3282
  store i16 %10, i16* %8, align 8, !dbg !3282, !tbaa !3283
  %11 = getelementptr inbounds %class.FastUDPSourceIP6, %class.FastUDPSourceIP6* %0, i64 0, i32 8, !dbg !3284
  %12 = load i16, i16* %11, align 4, !dbg !3284, !tbaa !3285
  %13 = add i16 %12, %10, !dbg !3284
  %14 = tail call i16 @llvm.bswap.i16(i16 %13) #12
  %15 = bitcast i8* %7 to i16*, !dbg !3286
  store i16 %14, i16* %15, align 2, !dbg !3287, !tbaa !3288
  %16 = getelementptr inbounds %class.FastUDPSourceIP6, %class.FastUDPSourceIP6* %0, i64 0, i32 9, !dbg !3290
  %17 = load i16, i16* %16, align 2, !dbg !3290, !tbaa !3291
  %18 = add i16 %17, %10, !dbg !3290
  %19 = tail call i16 @llvm.bswap.i16(i16 %18) #12
  %20 = getelementptr inbounds i8, i8* %6, i64 56, !dbg !3292
  %21 = bitcast i8* %20 to i16*, !dbg !3292
  store i16 %19, i16* %21, align 2, !dbg !3293, !tbaa !3294
  %22 = getelementptr inbounds i8, i8* %6, i64 60, !dbg !3295
  %23 = bitcast i8* %22 to i16*, !dbg !3295
  store i16 0, i16* %23, align 2, !dbg !3296, !tbaa !3297
  %24 = getelementptr inbounds %class.FastUDPSourceIP6, %class.FastUDPSourceIP6* %0, i64 0, i32 13, !dbg !3298
  %25 = load i8, i8* %24, align 8, !dbg !3298, !tbaa !3041, !range !3300
  %26 = icmp eq i8 %25, 0, !dbg !3298
  br i1 %26, label %39, label %27, !dbg !3301

27:                                               ; preds = %1
  call void @llvm.dbg.value(metadata i8* %6, metadata !3272, metadata !DIExpression(DW_OP_plus_uconst, 14, DW_OP_stack_value)), !dbg !3274
  call void @llvm.dbg.value(metadata i8* %6, metadata !3272, metadata !DIExpression(DW_OP_plus_uconst, 14, DW_OP_stack_value)), !dbg !3274
  call void @llvm.dbg.value(metadata i8* %7, metadata !3273, metadata !DIExpression()), !dbg !3274
  %28 = getelementptr inbounds i8, i8* %6, i64 22, !dbg !3302
  %29 = bitcast i8* %28 to %struct.in6_addr*, !dbg !3302
  %30 = getelementptr inbounds i8, i8* %6, i64 38, !dbg !3302
  %31 = bitcast i8* %30 to %struct.in6_addr*, !dbg !3302
  %32 = getelementptr inbounds i8, i8* %6, i64 18, !dbg !3302
  %33 = bitcast i8* %32 to i16*, !dbg !3302
  %34 = load i16, i16* %33, align 4, !dbg !3302, !tbaa !3304
  %35 = getelementptr inbounds i8, i8* %6, i64 20, !dbg !3302
  %36 = load i8, i8* %35, align 2, !dbg !3302, !tbaa !3304
  %37 = tail call zeroext i16 @in6_fast_cksum(%struct.in6_addr* nonnull %29, %struct.in6_addr* nonnull %31, i16 zeroext %34, i8 zeroext %36, i16 zeroext 0, i8* nonnull %7, i16 zeroext %34), !dbg !3302
  %38 = tail call i16 @llvm.bswap.i16(i16 %37) #12
  br label %39, !dbg !3305

39:                                               ; preds = %1, %27
  %40 = phi i16 [ %38, %27 ], [ 0, %1 ], !dbg !3306
  store i16 %40, i16* %23, align 2, !dbg !3306, !tbaa !3297
  ret void, !dbg !3307
}

declare %class.WritablePacket* @_ZN6Packet9uniqueifyEv(%class.Packet*) local_unnamed_addr #2

declare i8* @_ZNK14WritablePacket4dataEv(%class.WritablePacket*) local_unnamed_addr #2

declare !dbg !1454 zeroext i16 @in6_fast_cksum(%struct.in6_addr*, %struct.in6_addr*, i16 zeroext, i8 zeroext, i16 zeroext, i8*, i16 zeroext) local_unnamed_addr #2

; Function Attrs: sspstrong uwtable
define dso_local i32 @_ZN16FastUDPSourceIP610initializeEP12ErrorHandler(%class.FastUDPSourceIP6* nocapture %0, %class.ErrorHandler* nocapture readnone %1) unnamed_addr #0 align 2 !dbg !3308 {
  call void @llvm.dbg.value(metadata %class.FastUDPSourceIP6* %0, metadata !3310, metadata !DIExpression()), !dbg !3316
  call void @llvm.dbg.value(metadata %class.ErrorHandler* undef, metadata !3311, metadata !DIExpression()), !dbg !3316
  %3 = getelementptr inbounds %class.FastUDPSourceIP6, %class.FastUDPSourceIP6* %0, i64 0, i32 19, !dbg !3317
  store i32 0, i32* %3, align 8, !dbg !3318, !tbaa !3013
  %4 = getelementptr inbounds %class.FastUDPSourceIP6, %class.FastUDPSourceIP6* %0, i64 0, i32 10, !dbg !3319
  store i16 0, i16* %4, align 8, !dbg !3320, !tbaa !3283
  %5 = getelementptr inbounds %class.FastUDPSourceIP6, %class.FastUDPSourceIP6* %0, i64 0, i32 3, !dbg !3321
  %6 = load i32, i32* %5, align 8, !dbg !3321, !tbaa !3239
  call void @llvm.dbg.value(metadata i32 %6, metadata !3322, metadata !DIExpression()), !dbg !3325
  %7 = tail call %class.WritablePacket* @_ZN6Packet4makeEjPKvjj(i32 28, i8* null, i32 %6, i32 0), !dbg !3327
  call void @llvm.dbg.value(metadata %class.WritablePacket* %7, metadata !3312, metadata !DIExpression()), !dbg !3316
  %8 = getelementptr %class.WritablePacket, %class.WritablePacket* %7, i64 0, i32 0, !dbg !3328
  %9 = getelementptr inbounds %class.FastUDPSourceIP6, %class.FastUDPSourceIP6* %0, i64 0, i32 15, !dbg !3329
  store %class.Packet* %8, %class.Packet** %9, align 8, !dbg !3330, !tbaa !2961
  %10 = tail call i8* @_ZNK14WritablePacket4dataEv(%class.WritablePacket* %7), !dbg !3331
  %11 = getelementptr inbounds %class.FastUDPSourceIP6, %class.FastUDPSourceIP6* %0, i64 0, i32 4, i32 0, i64 0, !dbg !3332
  tail call void @llvm.memcpy.p0i8.p0i8.i64(i8* nonnull align 1 dereferenceable(14) %10, i8* nonnull align 4 dereferenceable(14) %11, i64 14, i1 false), !dbg !3332
  %12 = tail call i8* @_ZNK14WritablePacket4dataEv(%class.WritablePacket* %7), !dbg !3333
  %13 = getelementptr inbounds i8, i8* %12, i64 14, !dbg !3334
  %14 = bitcast i8* %13 to %struct.click_ip6*, !dbg !3335
  call void @llvm.dbg.value(metadata %struct.click_ip6* %14, metadata !3313, metadata !DIExpression()), !dbg !3316
  %15 = getelementptr inbounds i8, i8* %12, i64 54, !dbg !3336
  call void @llvm.dbg.value(metadata i8* %15, metadata !3314, metadata !DIExpression()), !dbg !3316
  %16 = bitcast i8* %13 to i32*, !dbg !3337
  store i32 96, i32* %16, align 4, !dbg !3338, !tbaa !3304
  %17 = load i32, i32* %5, align 8, !dbg !3339, !tbaa !3239
  %18 = trunc i32 %17 to i16, !dbg !3339
  %19 = add i16 %18, -54, !dbg !3339
  %20 = tail call i16 @llvm.bswap.i16(i16 %19) #12
  %21 = getelementptr inbounds i8, i8* %12, i64 18, !dbg !3340
  %22 = bitcast i8* %21 to i16*, !dbg !3340
  store i16 %20, i16* %22, align 4, !dbg !3341, !tbaa !3304
  %23 = getelementptr inbounds i8, i8* %12, i64 20, !dbg !3342
  store i8 17, i8* %23, align 2, !dbg !3343, !tbaa !3304
  %24 = getelementptr inbounds i8, i8* %12, i64 21, !dbg !3344
  store i8 -6, i8* %24, align 1, !dbg !3345, !tbaa !3304
  call void @llvm.dbg.value(metadata %class.FastUDPSourceIP6* %0, metadata !3346, metadata !DIExpression(DW_OP_plus_uconst, 132, DW_OP_stack_value)), !dbg !3349
  %25 = getelementptr inbounds %class.FastUDPSourceIP6, %class.FastUDPSourceIP6* %0, i64 0, i32 6, i32 0, !dbg !3351
  %26 = getelementptr inbounds i8, i8* %12, i64 22, !dbg !3352
  %27 = bitcast %struct.in6_addr* %25 to i8*, !dbg !3353
  tail call void @llvm.memcpy.p0i8.p0i8.i64(i8* nonnull align 4 dereferenceable(16) %26, i8* nonnull align 4 dereferenceable(16) %27, i64 16, i1 false), !dbg !3353, !tbaa.struct !3354
  %28 = getelementptr inbounds %class.FastUDPSourceIP6, %class.FastUDPSourceIP6* %0, i64 0, i32 7, !dbg !3355
  call void @llvm.dbg.value(metadata %class.IP6Address* %28, metadata !3346, metadata !DIExpression()), !dbg !3356
  %29 = getelementptr inbounds i8, i8* %12, i64 38, !dbg !3358
  %30 = bitcast %class.IP6Address* %28 to i8*, !dbg !3359
  tail call void @llvm.memcpy.p0i8.p0i8.i64(i8* nonnull align 4 dereferenceable(16) %29, i8* nonnull align 4 dereferenceable(16) %30, i64 16, i1 false), !dbg !3359, !tbaa.struct !3354
  %31 = load %class.Packet*, %class.Packet** %9, align 8, !dbg !3360, !tbaa !2961
  call void @llvm.dbg.value(metadata %class.Packet* %31, metadata !3361, metadata !DIExpression()), !dbg !3367
  call void @llvm.dbg.value(metadata %class.IP6Address* %28, metadata !3366, metadata !DIExpression()), !dbg !3367
  call void @llvm.dbg.value(metadata %class.Packet* %31, metadata !3369, metadata !DIExpression()), !dbg !3372
  %32 = tail call %"union.Packet::Anno"* @_ZN6Packet5xannoEv(%class.Packet* %31), !dbg !3374
  %33 = bitcast %"union.Packet::Anno"* %32 to i8*, !dbg !3374
  tail call void @llvm.memcpy.p0i8.p0i8.i64(i8* nonnull align 1 dereferenceable(16) %33, i8* nonnull align 1 dereferenceable(16) %30, i64 16, i1 false), !dbg !3375
  %34 = load %class.Packet*, %class.Packet** %9, align 8, !dbg !3376, !tbaa !2961
  tail call void @_ZN6Packet14set_ip6_headerEPK9click_ip6j(%class.Packet* %34, %struct.click_ip6* nonnull %14, i32 40), !dbg !3377
  %35 = getelementptr inbounds %class.FastUDPSourceIP6, %class.FastUDPSourceIP6* %0, i64 0, i32 8, !dbg !3378
  %36 = load i16, i16* %35, align 4, !dbg !3378, !tbaa !3285
  %37 = tail call i16 @llvm.bswap.i16(i16 %36) #12
  %38 = bitcast i8* %15 to i16*, !dbg !3379
  store i16 %37, i16* %38, align 2, !dbg !3380, !tbaa !3288
  %39 = getelementptr inbounds %class.FastUDPSourceIP6, %class.FastUDPSourceIP6* %0, i64 0, i32 9, !dbg !3381
  %40 = load i16, i16* %39, align 2, !dbg !3381, !tbaa !3291
  %41 = tail call i16 @llvm.bswap.i16(i16 %40) #12
  %42 = getelementptr inbounds i8, i8* %12, i64 56, !dbg !3382
  %43 = bitcast i8* %42 to i16*, !dbg !3382
  store i16 %41, i16* %43, align 2, !dbg !3383, !tbaa !3294
  %44 = getelementptr inbounds i8, i8* %12, i64 60, !dbg !3384
  %45 = bitcast i8* %44 to i16*, !dbg !3384
  store i16 0, i16* %45, align 2, !dbg !3385, !tbaa !3297
  %46 = load i32, i32* %5, align 8, !dbg !3386, !tbaa !3239
  %47 = trunc i32 %46 to i16, !dbg !3386
  %48 = add i16 %47, -54, !dbg !3387
  call void @llvm.dbg.value(metadata i16 %48, metadata !3315, metadata !DIExpression()), !dbg !3316
  %49 = tail call i16 @llvm.bswap.i16(i16 %48) #12
  %50 = getelementptr inbounds i8, i8* %12, i64 58, !dbg !3388
  %51 = bitcast i8* %50 to i16*, !dbg !3388
  store i16 %49, i16* %51, align 2, !dbg !3389, !tbaa !3390
  %52 = getelementptr inbounds %class.FastUDPSourceIP6, %class.FastUDPSourceIP6* %0, i64 0, i32 13, !dbg !3391
  %53 = load i8, i8* %52, align 8, !dbg !3391, !tbaa !3041, !range !3300
  %54 = icmp eq i8 %53, 0, !dbg !3391
  br i1 %54, label %62, label %55, !dbg !3393

55:                                               ; preds = %2
  call void @llvm.dbg.value(metadata i8* %15, metadata !3314, metadata !DIExpression()), !dbg !3316
  %56 = bitcast i8* %29 to %struct.in6_addr*, !dbg !3358
  %57 = bitcast i8* %26 to %struct.in6_addr*, !dbg !3352
  %58 = load i16, i16* %22, align 4, !dbg !3394, !tbaa !3304
  %59 = load i8, i8* %23, align 2, !dbg !3394, !tbaa !3304
  %60 = tail call zeroext i16 @in6_fast_cksum(%struct.in6_addr* nonnull %57, %struct.in6_addr* nonnull %56, i16 zeroext %58, i8 zeroext %59, i16 zeroext 0, i8* nonnull %15, i16 zeroext %58), !dbg !3394
  %61 = tail call i16 @llvm.bswap.i16(i16 %60) #12
  br label %62, !dbg !3396

62:                                               ; preds = %2, %55
  %63 = phi i16 [ %61, %55 ], [ 0, %2 ], !dbg !3397
  store i16 %63, i16* %45, align 2, !dbg !3397, !tbaa !3297
  ret i32 0, !dbg !3398
}

; Function Attrs: argmemonly nounwind willreturn
declare void @llvm.memcpy.p0i8.p0i8.i64(i8* noalias nocapture writeonly, i8* noalias nocapture readonly, i64, i1 immarg) #6

declare void @_ZN6Packet14set_ip6_headerEPK9click_ip6j(%class.Packet*, %struct.click_ip6*, i32) local_unnamed_addr #2

; Function Attrs: sspstrong uwtable
define dso_local void @_ZN16FastUDPSourceIP67cleanupEN7Element12CleanupStageE(%class.FastUDPSourceIP6* nocapture %0, i32 %1) unnamed_addr #0 align 2 !dbg !3399 {
  call void @llvm.dbg.value(metadata %class.FastUDPSourceIP6* %0, metadata !3401, metadata !DIExpression()), !dbg !3403
  call void @llvm.dbg.value(metadata i32 undef, metadata !3402, metadata !DIExpression()), !dbg !3403
  %3 = getelementptr inbounds %class.FastUDPSourceIP6, %class.FastUDPSourceIP6* %0, i64 0, i32 15, !dbg !3404
  %4 = load %class.Packet*, %class.Packet** %3, align 8, !dbg !3404, !tbaa !2961
  %5 = icmp eq %class.Packet* %4, null, !dbg !3404
  br i1 %5, label %7, label %6, !dbg !3406

6:                                                ; preds = %2
  tail call void @_ZN6Packet4killEv(%class.Packet* nonnull %4), !dbg !3407
  store %class.Packet* null, %class.Packet** %3, align 8, !dbg !3409, !tbaa !2961
  br label %7, !dbg !3410

7:                                                ; preds = %2, %6
  ret void, !dbg !3411
}

declare void @_ZN6Packet4killEv(%class.Packet*) local_unnamed_addr #2

; Function Attrs: sspstrong uwtable
define dso_local %class.Packet* @_ZN16FastUDPSourceIP64pullEi(%class.FastUDPSourceIP6* nocapture %0, i32 %1) unnamed_addr #0 align 2 !dbg !3412 {
  %3 = alloca %class.Timestamp, align 8
  call void @llvm.dbg.declare(metadata %class.Timestamp* %3, metadata !3417, metadata !DIExpression()), !dbg !3420
  call void @llvm.dbg.value(metadata %class.FastUDPSourceIP6* %0, metadata !3414, metadata !DIExpression()), !dbg !3425
  call void @llvm.dbg.value(metadata i32 undef, metadata !3415, metadata !DIExpression()), !dbg !3425
  call void @llvm.dbg.value(metadata %class.Packet* null, metadata !3416, metadata !DIExpression()), !dbg !3425
  %4 = getelementptr inbounds %class.FastUDPSourceIP6, %class.FastUDPSourceIP6* %0, i64 0, i32 21, !dbg !3426
  %5 = load i8, i8* %4, align 8, !dbg !3426, !tbaa !3044, !range !3300
  %6 = icmp eq i8 %5, 0, !dbg !3426
  br i1 %6, label %177, label %7, !dbg !3428

7:                                                ; preds = %2
  %8 = getelementptr inbounds %class.FastUDPSourceIP6, %class.FastUDPSourceIP6* %0, i64 0, i32 20, !dbg !3429
  %9 = load i32, i32* %8, align 4, !dbg !3429, !tbaa !3266
  %10 = icmp eq i32 %9, -1, !dbg !3430
  br i1 %10, label %15, label %11, !dbg !3431

11:                                               ; preds = %7
  %12 = getelementptr inbounds %class.FastUDPSourceIP6, %class.FastUDPSourceIP6* %0, i64 0, i32 19, !dbg !3432
  %13 = load i32, i32* %12, align 8, !dbg !3432, !tbaa !3013
  %14 = icmp ult i32 %13, %9, !dbg !3433
  br i1 %14, label %15, label %177, !dbg !3434

15:                                               ; preds = %11, %7
  %16 = getelementptr inbounds %class.FastUDPSourceIP6, %class.FastUDPSourceIP6* %0, i64 0, i32 1, !dbg !3435
  %17 = load i8, i8* %16, align 4, !dbg !3435, !tbaa !3004, !range !3300
  %18 = icmp eq i8 %17, 0, !dbg !3435
  br i1 %18, label %105, label %19, !dbg !3436

19:                                               ; preds = %15
  %20 = bitcast %class.Timestamp* %3 to i8*, !dbg !3437
  call void @llvm.lifetime.start.p0i8(i64 8, i8* nonnull %20), !dbg !3437
  call void @_ZN9Timestamp10assign_nowEv(%class.Timestamp* nonnull %3), !dbg !3437
  %21 = getelementptr inbounds %class.Timestamp, %class.Timestamp* %3, i64 0, i32 0, i32 0, !dbg !3438
  %22 = load i64, i64* %21, align 8, !dbg !3438
  call void @llvm.lifetime.end.p0i8(i64 8, i8* nonnull %20), !dbg !3438
  call void @llvm.dbg.value(metadata %class.FastUDPSourceIP6* %0, metadata !3439, metadata !DIExpression(DW_OP_plus_uconst, 200, DW_OP_stack_value)), !dbg !3444
  call void @llvm.dbg.value(metadata %class.Timestamp* undef, metadata !3442, metadata !DIExpression()), !dbg !3444
  call void @llvm.dbg.value(metadata %class.Timestamp* undef, metadata !3446, metadata !DIExpression()), !dbg !3450
  call void @llvm.dbg.value(metadata %class.Timestamp* undef, metadata !3452, metadata !DIExpression()), !dbg !3455
  call void @llvm.dbg.value(metadata %class.Timestamp* undef, metadata !3457, metadata !DIExpression()), !dbg !3460
  %23 = icmp slt i64 %22, 0, !dbg !3462
  br i1 %23, label %24, label %28, !dbg !3464, !prof !3465, !misexpect !3466

24:                                               ; preds = %19
  %25 = xor i64 %22, -1, !dbg !3467
  call void @llvm.dbg.value(metadata i64 %25, metadata !3468, metadata !DIExpression()), !dbg !3472
  call void @llvm.dbg.value(metadata i32 1000000000, metadata !3471, metadata !DIExpression()), !dbg !3472
  call void @llvm.dbg.value(metadata i64 %25, metadata !3474, metadata !DIExpression()), !dbg !3481
  call void @llvm.dbg.value(metadata i32 1000000000, metadata !3480, metadata !DIExpression()), !dbg !3481
  %26 = sdiv i64 %25, 1000000000, !dbg !3483
  %27 = xor i64 %26, -1, !dbg !3484
  br label %30, !dbg !3485

28:                                               ; preds = %19
  call void @llvm.dbg.value(metadata i64 %22, metadata !3468, metadata !DIExpression()), !dbg !3486
  call void @llvm.dbg.value(metadata i32 1000000000, metadata !3471, metadata !DIExpression()), !dbg !3486
  call void @llvm.dbg.value(metadata i64 %22, metadata !3474, metadata !DIExpression()), !dbg !3488
  call void @llvm.dbg.value(metadata i32 1000000000, metadata !3480, metadata !DIExpression()), !dbg !3488
  %29 = udiv i64 %22, 1000000000, !dbg !3490
  br label %30, !dbg !3491

30:                                               ; preds = %28, %24
  %31 = phi i64 [ %27, %24 ], [ %29, %28 ]
  %32 = trunc i64 %31 to i32, !dbg !3492
  %33 = trunc i64 %22 to i32, !dbg !3493
  %34 = mul i32 %32, -1000000000, !dbg !3493
  %35 = add i32 %34, %33, !dbg !3493
  call void @llvm.dbg.value(metadata i32 %35, metadata !3494, metadata !DIExpression()), !dbg !3497
  %36 = udiv i32 %35, 1000, !dbg !3499
  %37 = shl i32 %36, 12, !dbg !3500
  %38 = getelementptr inbounds %class.FastUDPSourceIP6, %class.FastUDPSourceIP6* %0, i64 0, i32 18, i32 0, !dbg !3501
  %39 = load i32, i32* %38, align 4, !dbg !3501, !tbaa !2992
  %40 = udiv i32 %37, %39, !dbg !3502
  call void @llvm.dbg.value(metadata i32 %40, metadata !3443, metadata !DIExpression()), !dbg !3444
  %41 = getelementptr inbounds %class.FastUDPSourceIP6, %class.FastUDPSourceIP6* %0, i64 0, i32 18, i32 2, !dbg !3503
  %42 = load i32, i32* %41, align 4, !dbg !3503, !tbaa !3000
  %43 = icmp slt i32 %42, 0, !dbg !3505
  call void @llvm.dbg.value(metadata %class.Timestamp* undef, metadata !3457, metadata !DIExpression()), !dbg !3506
  br i1 %23, label %44, label %48, !dbg !3508, !prof !3465, !misexpect !3466

44:                                               ; preds = %30
  %45 = xor i64 %22, -1, !dbg !3509
  call void @llvm.dbg.value(metadata i64 %45, metadata !3468, metadata !DIExpression()), !dbg !3510
  call void @llvm.dbg.value(metadata i32 1000000000, metadata !3471, metadata !DIExpression()), !dbg !3510
  call void @llvm.dbg.value(metadata i64 %45, metadata !3474, metadata !DIExpression()), !dbg !3512
  call void @llvm.dbg.value(metadata i32 1000000000, metadata !3480, metadata !DIExpression()), !dbg !3512
  %46 = sdiv i64 %45, 1000000000, !dbg !3514
  %47 = xor i64 %46, -1, !dbg !3515
  br label %50, !dbg !3516

48:                                               ; preds = %30
  call void @llvm.dbg.value(metadata i64 %22, metadata !3468, metadata !DIExpression()), !dbg !3517
  call void @llvm.dbg.value(metadata i32 1000000000, metadata !3471, metadata !DIExpression()), !dbg !3517
  call void @llvm.dbg.value(metadata i64 %22, metadata !3474, metadata !DIExpression()), !dbg !3519
  call void @llvm.dbg.value(metadata i32 1000000000, metadata !3480, metadata !DIExpression()), !dbg !3519
  %49 = udiv i64 %22, 1000000000, !dbg !3521
  br label %50, !dbg !3522

50:                                               ; preds = %48, %44
  %51 = phi i64 [ %47, %44 ], [ %49, %48 ]
  %52 = trunc i64 %51 to i32, !dbg !3523
  br i1 %43, label %53, label %74, !dbg !3524

53:                                               ; preds = %50
  store i32 %52, i32* %41, align 4, !dbg !3525, !tbaa !3000
  call void @llvm.dbg.value(metadata %class.Timestamp* undef, metadata !3446, metadata !DIExpression()), !dbg !3527
  call void @llvm.dbg.value(metadata %class.Timestamp* undef, metadata !3452, metadata !DIExpression()), !dbg !3529
  call void @llvm.dbg.value(metadata %class.Timestamp* undef, metadata !3457, metadata !DIExpression()), !dbg !3531
  br i1 %23, label %54, label %58, !dbg !3533, !prof !3465, !misexpect !3466

54:                                               ; preds = %53
  %55 = xor i64 %22, -1, !dbg !3534
  call void @llvm.dbg.value(metadata i64 %55, metadata !3468, metadata !DIExpression()), !dbg !3535
  call void @llvm.dbg.value(metadata i32 1000000000, metadata !3471, metadata !DIExpression()), !dbg !3535
  call void @llvm.dbg.value(metadata i64 %55, metadata !3474, metadata !DIExpression()), !dbg !3537
  call void @llvm.dbg.value(metadata i32 1000000000, metadata !3480, metadata !DIExpression()), !dbg !3537
  %56 = sdiv i64 %55, 1000000000, !dbg !3539
  %57 = xor i64 %56, -1, !dbg !3540
  br label %60, !dbg !3541

58:                                               ; preds = %53
  call void @llvm.dbg.value(metadata i64 %22, metadata !3468, metadata !DIExpression()), !dbg !3542
  call void @llvm.dbg.value(metadata i32 1000000000, metadata !3471, metadata !DIExpression()), !dbg !3542
  call void @llvm.dbg.value(metadata i64 %22, metadata !3474, metadata !DIExpression()), !dbg !3544
  call void @llvm.dbg.value(metadata i32 1000000000, metadata !3480, metadata !DIExpression()), !dbg !3544
  %59 = udiv i64 %22, 1000000000, !dbg !3546
  br label %60, !dbg !3547

60:                                               ; preds = %58, %54
  %61 = phi i64 [ %57, %54 ], [ %59, %58 ]
  %62 = trunc i64 %61 to i32, !dbg !3548
  %63 = mul i32 %62, -1000000000, !dbg !3549
  %64 = add i32 %63, %33, !dbg !3549
  call void @llvm.dbg.value(metadata i32 %64, metadata !3494, metadata !DIExpression()), !dbg !3550
  %65 = udiv i32 %64, 1000, !dbg !3552
  %66 = shl i32 %65, 12, !dbg !3553
  %67 = mul i32 %40, %39, !dbg !3554
  %68 = sub i32 %66, %67, !dbg !3555
  %69 = lshr i32 %39, 1, !dbg !3556
  %70 = icmp ugt i32 %68, %69, !dbg !3557
  %71 = zext i1 %70 to i32, !dbg !3558
  %72 = add i32 %40, %71, !dbg !3559
  %73 = getelementptr inbounds %class.FastUDPSourceIP6, %class.FastUDPSourceIP6* %0, i64 0, i32 18, i32 1, !dbg !3560
  store i32 %72, i32* %73, align 4, !dbg !3561, !tbaa !3562
  br label %96, !dbg !3563

74:                                               ; preds = %50
  %75 = icmp slt i32 %42, %52, !dbg !3564
  br i1 %75, label %79, label %76, !dbg !3566

76:                                               ; preds = %74
  %77 = getelementptr inbounds %class.FastUDPSourceIP6, %class.FastUDPSourceIP6* %0, i64 0, i32 18, i32 1, !dbg !3444
  %78 = load i32, i32* %77, align 4, !dbg !3567, !tbaa !3562
  br label %96, !dbg !3566

79:                                               ; preds = %74
  call void @llvm.dbg.value(metadata %class.Timestamp* undef, metadata !3457, metadata !DIExpression()), !dbg !3568
  br i1 %23, label %80, label %84, !dbg !3571, !prof !3465, !misexpect !3466

80:                                               ; preds = %79
  %81 = xor i64 %22, -1, !dbg !3572
  call void @llvm.dbg.value(metadata i64 %81, metadata !3468, metadata !DIExpression()), !dbg !3573
  call void @llvm.dbg.value(metadata i32 1000000000, metadata !3471, metadata !DIExpression()), !dbg !3573
  call void @llvm.dbg.value(metadata i64 %81, metadata !3474, metadata !DIExpression()), !dbg !3575
  call void @llvm.dbg.value(metadata i32 1000000000, metadata !3480, metadata !DIExpression()), !dbg !3575
  %82 = sdiv i64 %81, 1000000000, !dbg !3577
  %83 = xor i64 %82, -1, !dbg !3578
  br label %86, !dbg !3579

84:                                               ; preds = %79
  call void @llvm.dbg.value(metadata i64 %22, metadata !3468, metadata !DIExpression()), !dbg !3580
  call void @llvm.dbg.value(metadata i32 1000000000, metadata !3471, metadata !DIExpression()), !dbg !3580
  call void @llvm.dbg.value(metadata i64 %22, metadata !3474, metadata !DIExpression()), !dbg !3582
  call void @llvm.dbg.value(metadata i32 1000000000, metadata !3480, metadata !DIExpression()), !dbg !3582
  %85 = udiv i64 %22, 1000000000, !dbg !3584
  br label %86, !dbg !3585

86:                                               ; preds = %84, %80
  %87 = phi i64 [ %83, %80 ], [ %85, %84 ]
  %88 = trunc i64 %87 to i32, !dbg !3586
  store i32 %88, i32* %41, align 4, !dbg !3587, !tbaa !3000
  %89 = getelementptr inbounds %class.FastUDPSourceIP6, %class.FastUDPSourceIP6* %0, i64 0, i32 18, i32 1, !dbg !3588
  %90 = load i32, i32* %89, align 4, !dbg !3588, !tbaa !3562
  %91 = icmp sgt i32 %90, 0, !dbg !3590
  br i1 %91, label %92, label %96, !dbg !3591

92:                                               ; preds = %86
  %93 = getelementptr inbounds %class.FastUDPSourceIP6, %class.FastUDPSourceIP6* %0, i64 0, i32 18, i32 3, !dbg !3592
  %94 = load i32, i32* %93, align 4, !dbg !3592, !tbaa !2987
  %95 = sub i32 %90, %94, !dbg !3593
  store i32 %95, i32* %89, align 4, !dbg !3593, !tbaa !3562
  br label %96, !dbg !3594

96:                                               ; preds = %60, %76, %86, %92
  %97 = phi i32 [ %78, %76 ], [ %95, %92 ], [ %90, %86 ], [ %72, %60 ], !dbg !3567
  %98 = icmp slt i32 %40, %97, !dbg !3595
  br i1 %98, label %177, label %99, !dbg !3596

99:                                               ; preds = %96
  call void @llvm.dbg.value(metadata %class.FastUDPSourceIP6* %0, metadata !3597, metadata !DIExpression(DW_OP_plus_uconst, 200, DW_OP_stack_value)), !dbg !3600
  %100 = getelementptr inbounds %class.FastUDPSourceIP6, %class.FastUDPSourceIP6* %0, i64 0, i32 18, i32 1, !dbg !3603
  %101 = add nsw i32 %97, 1, !dbg !3604
  store i32 %101, i32* %100, align 4, !dbg !3604, !tbaa !3562
  %102 = getelementptr inbounds %class.FastUDPSourceIP6, %class.FastUDPSourceIP6* %0, i64 0, i32 15, !dbg !3605
  %103 = load %class.Packet*, %class.Packet** %102, align 8, !dbg !3605, !tbaa !2961
  %104 = call %class.Packet* @_ZN6Packet5cloneEv(%class.Packet* %103), !dbg !3606
  call void @llvm.dbg.value(metadata %class.Packet* %104, metadata !3416, metadata !DIExpression()), !dbg !3425
  br label %109, !dbg !3607

105:                                              ; preds = %15
  %106 = getelementptr inbounds %class.FastUDPSourceIP6, %class.FastUDPSourceIP6* %0, i64 0, i32 15, !dbg !3608
  %107 = load %class.Packet*, %class.Packet** %106, align 8, !dbg !3608, !tbaa !2961
  %108 = tail call %class.Packet* @_ZN6Packet5cloneEv(%class.Packet* %107), !dbg !3610
  call void @llvm.dbg.value(metadata %class.Packet* %108, metadata !3416, metadata !DIExpression()), !dbg !3425
  br label %109

109:                                              ; preds = %99, %105
  %110 = phi %class.Packet* [ %104, %99 ], [ %108, %105 ], !dbg !3425
  call void @llvm.dbg.value(metadata %class.Packet* %110, metadata !3416, metadata !DIExpression()), !dbg !3425
  %111 = icmp eq %class.Packet* %110, null, !dbg !3611
  br i1 %111, label %177, label %112, !dbg !3613

112:                                              ; preds = %109
  %113 = getelementptr inbounds %class.FastUDPSourceIP6, %class.FastUDPSourceIP6* %0, i64 0, i32 19, !dbg !3614
  %114 = load i32, i32* %113, align 8, !dbg !3616, !tbaa !3013
  %115 = add i32 %114, 1, !dbg !3616
  store i32 %115, i32* %113, align 8, !dbg !3616, !tbaa !3013
  %116 = icmp eq i32 %114, 0, !dbg !3617
  br i1 %116, label %117, label %120, !dbg !3619

117:                                              ; preds = %112
  %118 = call i32 @_Z13click_jiffiesv(), !dbg !3620
  %119 = getelementptr inbounds %class.FastUDPSourceIP6, %class.FastUDPSourceIP6* %0, i64 0, i32 16, !dbg !3621
  store i32 %118, i32* %119, align 8, !dbg !3622, !tbaa !3010
  br label %120, !dbg !3621

120:                                              ; preds = %117, %112
  %121 = load i32, i32* %8, align 4, !dbg !3623, !tbaa !3266
  %122 = icmp eq i32 %121, -1, !dbg !3625
  br i1 %122, label %129, label %123, !dbg !3626

123:                                              ; preds = %120
  %124 = load i32, i32* %113, align 8, !dbg !3627, !tbaa !3013
  %125 = icmp ult i32 %124, %121, !dbg !3628
  br i1 %125, label %129, label %126, !dbg !3629

126:                                              ; preds = %123
  %127 = call i32 @_Z13click_jiffiesv(), !dbg !3630
  %128 = getelementptr inbounds %class.FastUDPSourceIP6, %class.FastUDPSourceIP6* %0, i64 0, i32 17, !dbg !3631
  store i32 %127, i32* %128, align 4, !dbg !3632, !tbaa !3007
  br label %129, !dbg !3631

129:                                              ; preds = %123, %120, %126
  %130 = getelementptr inbounds %class.FastUDPSourceIP6, %class.FastUDPSourceIP6* %0, i64 0, i32 12, !dbg !3633
  %131 = load i32, i32* %130, align 4, !dbg !3633, !tbaa !3047
  %132 = icmp eq i32 %131, 0, !dbg !3635
  br i1 %132, label %177, label %133, !dbg !3636

133:                                              ; preds = %129
  %134 = load i32, i32* %113, align 8, !dbg !3637, !tbaa !3013
  %135 = urem i32 %134, %131, !dbg !3638
  %136 = icmp eq i32 %135, 0, !dbg !3639
  br i1 %136, label %137, label %177, !dbg !3640

137:                                              ; preds = %133
  call void @llvm.dbg.value(metadata %class.FastUDPSourceIP6* %0, metadata !3270, metadata !DIExpression()), !dbg !3641
  %138 = getelementptr inbounds %class.FastUDPSourceIP6, %class.FastUDPSourceIP6* %0, i64 0, i32 15, !dbg !3643
  %139 = load %class.Packet*, %class.Packet** %138, align 8, !dbg !3643, !tbaa !2961
  %140 = call %class.WritablePacket* @_ZN6Packet9uniqueifyEv(%class.Packet* %139), !dbg !3644
  call void @llvm.dbg.value(metadata %class.WritablePacket* %140, metadata !3271, metadata !DIExpression()), !dbg !3641
  %141 = getelementptr %class.WritablePacket, %class.WritablePacket* %140, i64 0, i32 0, !dbg !3645
  store %class.Packet* %141, %class.Packet** %138, align 8, !dbg !3646, !tbaa !2961
  %142 = call i8* @_ZNK14WritablePacket4dataEv(%class.WritablePacket* %140), !dbg !3647
  call void @llvm.dbg.value(metadata i8* %142, metadata !3272, metadata !DIExpression(DW_OP_plus_uconst, 14, DW_OP_stack_value)), !dbg !3641
  %143 = getelementptr inbounds i8, i8* %142, i64 54, !dbg !3648
  call void @llvm.dbg.value(metadata i8* %143, metadata !3273, metadata !DIExpression()), !dbg !3641
  %144 = getelementptr inbounds %class.FastUDPSourceIP6, %class.FastUDPSourceIP6* %0, i64 0, i32 10, !dbg !3649
  %145 = load i16, i16* %144, align 8, !dbg !3650, !tbaa !3283
  %146 = add i16 %145, 1, !dbg !3650
  store i16 %146, i16* %144, align 8, !dbg !3650, !tbaa !3283
  %147 = getelementptr inbounds %class.FastUDPSourceIP6, %class.FastUDPSourceIP6* %0, i64 0, i32 8, !dbg !3651
  %148 = load i16, i16* %147, align 4, !dbg !3651, !tbaa !3285
  %149 = add i16 %148, %146, !dbg !3651
  %150 = call i16 @llvm.bswap.i16(i16 %149) #12
  %151 = bitcast i8* %143 to i16*, !dbg !3652
  store i16 %150, i16* %151, align 2, !dbg !3653, !tbaa !3288
  %152 = getelementptr inbounds %class.FastUDPSourceIP6, %class.FastUDPSourceIP6* %0, i64 0, i32 9, !dbg !3654
  %153 = load i16, i16* %152, align 2, !dbg !3654, !tbaa !3291
  %154 = add i16 %153, %146, !dbg !3654
  %155 = call i16 @llvm.bswap.i16(i16 %154) #12
  %156 = getelementptr inbounds i8, i8* %142, i64 56, !dbg !3655
  %157 = bitcast i8* %156 to i16*, !dbg !3655
  store i16 %155, i16* %157, align 2, !dbg !3656, !tbaa !3294
  %158 = getelementptr inbounds i8, i8* %142, i64 60, !dbg !3657
  %159 = bitcast i8* %158 to i16*, !dbg !3657
  store i16 0, i16* %159, align 2, !dbg !3658, !tbaa !3297
  %160 = getelementptr inbounds %class.FastUDPSourceIP6, %class.FastUDPSourceIP6* %0, i64 0, i32 13, !dbg !3659
  %161 = load i8, i8* %160, align 8, !dbg !3659, !tbaa !3041, !range !3300
  %162 = icmp eq i8 %161, 0, !dbg !3659
  br i1 %162, label %175, label %163, !dbg !3660

163:                                              ; preds = %137
  call void @llvm.dbg.value(metadata i8* %142, metadata !3272, metadata !DIExpression(DW_OP_plus_uconst, 14, DW_OP_stack_value)), !dbg !3641
  call void @llvm.dbg.value(metadata i8* %142, metadata !3272, metadata !DIExpression(DW_OP_plus_uconst, 14, DW_OP_stack_value)), !dbg !3641
  call void @llvm.dbg.value(metadata i8* %143, metadata !3273, metadata !DIExpression()), !dbg !3641
  %164 = getelementptr inbounds i8, i8* %142, i64 22, !dbg !3661
  %165 = bitcast i8* %164 to %struct.in6_addr*, !dbg !3661
  %166 = getelementptr inbounds i8, i8* %142, i64 38, !dbg !3661
  %167 = bitcast i8* %166 to %struct.in6_addr*, !dbg !3661
  %168 = getelementptr inbounds i8, i8* %142, i64 18, !dbg !3661
  %169 = bitcast i8* %168 to i16*, !dbg !3661
  %170 = load i16, i16* %169, align 4, !dbg !3661, !tbaa !3304
  %171 = getelementptr inbounds i8, i8* %142, i64 20, !dbg !3661
  %172 = load i8, i8* %171, align 2, !dbg !3661, !tbaa !3304
  %173 = call zeroext i16 @in6_fast_cksum(%struct.in6_addr* nonnull %165, %struct.in6_addr* nonnull %167, i16 zeroext %170, i8 zeroext %172, i16 zeroext 0, i8* nonnull %143, i16 zeroext %170), !dbg !3661
  %174 = call i16 @llvm.bswap.i16(i16 %173) #12
  br label %175, !dbg !3662

175:                                              ; preds = %137, %163
  %176 = phi i16 [ %174, %163 ], [ 0, %137 ], !dbg !3663
  store i16 %176, i16* %159, align 2, !dbg !3663, !tbaa !3297
  br label %177, !dbg !3664

177:                                              ; preds = %96, %175, %109, %129, %133, %2, %11
  %178 = phi %class.Packet* [ null, %11 ], [ null, %2 ], [ %110, %133 ], [ %110, %129 ], [ null, %109 ], [ %110, %175 ], [ null, %96 ], !dbg !3425
  ret %class.Packet* %178, !dbg !3665
}

declare %class.Packet* @_ZN6Packet5cloneEv(%class.Packet*) local_unnamed_addr #2

declare !dbg !1459 i32 @_Z13click_jiffiesv() local_unnamed_addr #2

; Function Attrs: nofree norecurse nounwind sspstrong uwtable writeonly
define dso_local void @_ZN16FastUDPSourceIP65resetEv(%class.FastUDPSourceIP6* nocapture %0) local_unnamed_addr #7 align 2 !dbg !3666 {
  call void @llvm.dbg.value(metadata %class.FastUDPSourceIP6* %0, metadata !3668, metadata !DIExpression()), !dbg !3669
  %2 = getelementptr inbounds %class.FastUDPSourceIP6, %class.FastUDPSourceIP6* %0, i64 0, i32 19, !dbg !3670
  store i32 0, i32* %2, align 8, !dbg !3671, !tbaa !3013
  %3 = getelementptr inbounds %class.FastUDPSourceIP6, %class.FastUDPSourceIP6* %0, i64 0, i32 16, !dbg !3672
  store i32 0, i32* %3, align 8, !dbg !3673, !tbaa !3010
  %4 = getelementptr inbounds %class.FastUDPSourceIP6, %class.FastUDPSourceIP6* %0, i64 0, i32 17, !dbg !3674
  store i32 0, i32* %4, align 4, !dbg !3675, !tbaa !3007
  %5 = getelementptr inbounds %class.FastUDPSourceIP6, %class.FastUDPSourceIP6* %0, i64 0, i32 10, !dbg !3676
  store i16 0, i16* %5, align 8, !dbg !3677, !tbaa !3283
  ret void, !dbg !3678
}

; Function Attrs: sspstrong uwtable
define dso_local void @_ZN16FastUDPSourceIP612add_handlersEv(%class.FastUDPSourceIP6* %0) unnamed_addr #0 align 2 !dbg !3679 {
  call void @llvm.dbg.value(metadata %class.FastUDPSourceIP6* %0, metadata !3681, metadata !DIExpression()), !dbg !3682
  %2 = bitcast %class.FastUDPSourceIP6* %0 to %class.Element*, !dbg !3683
  tail call void @_ZN7Element16add_read_handlerEPKcPF6StringPS_PvEij(%class.Element* %2, i8* getelementptr inbounds ([6 x i8], [6 x i8]* @.str.13, i64 0, i64 0), void (%class.String*, %class.Element*, i8*)* nonnull @_ZL35FastUDPSourceIP6_read_count_handlerP7ElementPv, i32 0, i32 0), !dbg !3683
  tail call void @_ZN7Element16add_read_handlerEPKcPF6StringPS_PvEij(%class.Element* %2, i8* getelementptr inbounds ([5 x i8], [5 x i8]* @.str.14, i64 0, i64 0), void (%class.String*, %class.Element*, i8*)* nonnull @_ZL34FastUDPSourceIP6_read_rate_handlerP7ElementPv, i32 0, i32 0), !dbg !3684
  tail call void @_ZN7Element17add_write_handlerEPKcPFiRK6StringPS_PvP12ErrorHandlerEij(%class.Element* %2, i8* getelementptr inbounds ([5 x i8], [5 x i8]* @.str.14, i64 0, i64 0), i32 (%class.String*, %class.Element*, i8*, %class.ErrorHandler*)* nonnull @_ZL35FastUDPSourceIP6_rate_write_handlerRK6StringP7ElementPvP12ErrorHandler, i32 0, i32 0), !dbg !3685
  tail call void @_ZN7Element17add_write_handlerEPKcPFiRK6StringPS_PvP12ErrorHandlerEij(%class.Element* %2, i8* getelementptr inbounds ([6 x i8], [6 x i8]* @.str.15, i64 0, i64 0), i32 (%class.String*, %class.Element*, i8*, %class.ErrorHandler*)* nonnull @_ZL36FastUDPSourceIP6_reset_write_handlerRK6StringP7ElementPvP12ErrorHandler, i32 0, i32 8192), !dbg !3686
  tail call void @_ZN7Element17add_write_handlerEPKcPFiRK6StringPS_PvP12ErrorHandlerEij(%class.Element* %2, i8* getelementptr inbounds ([7 x i8], [7 x i8]* @.str.16, i64 0, i64 0), i32 (%class.String*, %class.Element*, i8*, %class.ErrorHandler*)* nonnull @_ZL37FastUDPSourceIP6_active_write_handlerRK6StringP7ElementPvP12ErrorHandler, i32 0, i32 16384), !dbg !3687
  tail call void @_ZN7Element17add_write_handlerEPKcPFiRK6StringPS_PvP12ErrorHandlerEij(%class.Element* %2, i8* getelementptr inbounds ([6 x i8], [6 x i8]* @.str.17, i64 0, i64 0), i32 (%class.String*, %class.Element*, i8*, %class.ErrorHandler*)* nonnull @_ZL36FastUDPSourceIP6_limit_write_handlerRK6StringP7ElementPvP12ErrorHandler, i32 0, i32 0), !dbg !3688
  ret void, !dbg !3689
}

declare void @_ZN7Element16add_read_handlerEPKcPF6StringPS_PvEij(%class.Element*, i8*, void (%class.String*, %class.Element*, i8*)*, i32, i32) local_unnamed_addr #2

; Function Attrs: sspstrong uwtable
define internal void @_ZL35FastUDPSourceIP6_read_count_handlerP7ElementPv(%class.String* noalias sret %0, %class.Element* nocapture readonly %1, i8* nocapture readnone %2) #0 !dbg !3690 {
  call void @llvm.dbg.value(metadata %class.Element* %1, metadata !3692, metadata !DIExpression()), !dbg !3695
  call void @llvm.dbg.value(metadata i8* %2, metadata !3693, metadata !DIExpression()), !dbg !3695
  call void @llvm.dbg.value(metadata %class.Element* %1, metadata !3694, metadata !DIExpression()), !dbg !3695
  call void @llvm.dbg.value(metadata %class.Element* %1, metadata !3696, metadata !DIExpression()), !dbg !3699
  %4 = getelementptr inbounds %class.Element, %class.Element* %1, i64 1, i32 5, !dbg !3701
  %5 = load i32, i32* %4, align 8, !dbg !3701, !tbaa !3013
  tail call void @_ZN6StringC1Ej(%class.String* %0, i32 %5), !dbg !3702
  ret void, !dbg !3703
}

; Function Attrs: sspstrong uwtable
define internal void @_ZL34FastUDPSourceIP6_read_rate_handlerP7ElementPv(%class.String* noalias sret %0, %class.Element* nocapture readonly %1, i8* nocapture readnone %2) #0 !dbg !3704 {
  call void @llvm.dbg.value(metadata %class.Element* %1, metadata !3706, metadata !DIExpression()), !dbg !3713
  call void @llvm.dbg.value(metadata i8* %2, metadata !3707, metadata !DIExpression()), !dbg !3713
  call void @llvm.dbg.value(metadata %class.Element* %1, metadata !3708, metadata !DIExpression()), !dbg !3713
  call void @llvm.dbg.value(metadata %class.Element* %1, metadata !3714, metadata !DIExpression()), !dbg !3717
  %4 = getelementptr inbounds %class.Element, %class.Element* %1, i64 1, i32 2, i64 3, i32 2, !dbg !3719
  %5 = bitcast [4 x i8]* %4 to i32*, !dbg !3719
  %6 = load i32, i32* %5, align 4, !dbg !3719, !tbaa !3007
  %7 = icmp eq i32 %6, 0, !dbg !3720
  br i1 %7, label %18, label %8, !dbg !3721

8:                                                ; preds = %3
  call void @llvm.dbg.value(metadata %class.Element* %1, metadata !3708, metadata !DIExpression()), !dbg !3713
  call void @llvm.dbg.value(metadata %class.Element* %1, metadata !3714, metadata !DIExpression()), !dbg !3717
  call void @llvm.dbg.value(metadata %class.Element* %1, metadata !3714, metadata !DIExpression()), !dbg !3722
  call void @llvm.dbg.value(metadata %class.Element* %1, metadata !3724, metadata !DIExpression()), !dbg !3727
  %9 = getelementptr inbounds %class.Element, %class.Element* %1, i64 1, i32 2, i64 3, i32 1, !dbg !3729
  %10 = load i32, i32* %9, align 8, !dbg !3729, !tbaa !3010
  %11 = sub i32 %6, %10, !dbg !3730
  call void @llvm.dbg.value(metadata i32 %11, metadata !3709, metadata !DIExpression()), !dbg !3731
  %12 = icmp sgt i32 %11, 1, !dbg !3732
  %13 = select i1 %12, i32 %11, i32 1, !dbg !3732
  call void @llvm.dbg.value(metadata i32 %13, metadata !3709, metadata !DIExpression()), !dbg !3731
  call void @llvm.dbg.value(metadata %class.Element* %1, metadata !3696, metadata !DIExpression()), !dbg !3733
  %14 = getelementptr inbounds %class.Element, %class.Element* %1, i64 1, i32 5, !dbg !3735
  %15 = load i32, i32* %14, align 8, !dbg !3735, !tbaa !3013
  %16 = mul i32 %15, 1000, !dbg !3736
  %17 = udiv i32 %16, %13, !dbg !3737
  call void @llvm.dbg.value(metadata i32 %17, metadata !3712, metadata !DIExpression()), !dbg !3731
  tail call void @_ZN6StringC1Ei(%class.String* %0, i32 %17), !dbg !3738
  br label %22

18:                                               ; preds = %3
  call void @llvm.dbg.value(metadata %class.String* %0, metadata !3739, metadata !DIExpression()), !dbg !3743
  call void @llvm.dbg.value(metadata i8* getelementptr inbounds ([2 x i8], [2 x i8]* @.str.20, i64 0, i64 0), metadata !3742, metadata !DIExpression()), !dbg !3743
  call void @llvm.dbg.value(metadata %class.String* %0, metadata !3746, metadata !DIExpression()), !dbg !3752
  call void @llvm.dbg.value(metadata i8* getelementptr inbounds ([2 x i8], [2 x i8]* @.str.20, i64 0, i64 0), metadata !3749, metadata !DIExpression()), !dbg !3752
  call void @llvm.dbg.value(metadata i32 1, metadata !3750, metadata !DIExpression()), !dbg !3752
  call void @llvm.dbg.value(metadata %"struct.String::memo_t"* null, metadata !3751, metadata !DIExpression()), !dbg !3752
  %19 = getelementptr inbounds %class.String, %class.String* %0, i64 0, i32 0, i32 0, !dbg !3756
  store i8* getelementptr inbounds ([2 x i8], [2 x i8]* @.str.20, i64 0, i64 0), i8** %19, align 8, !dbg !3757, !tbaa !3758
  %20 = getelementptr inbounds %class.String, %class.String* %0, i64 0, i32 0, i32 1, !dbg !3761
  store i32 1, i32* %20, align 8, !dbg !3762, !tbaa !3763
  %21 = getelementptr inbounds %class.String, %class.String* %0, i64 0, i32 0, i32 2, !dbg !3764
  store %"struct.String::memo_t"* null, %"struct.String::memo_t"** %21, align 8, !dbg !3766, !tbaa !3767
  br label %22, !dbg !3768

22:                                               ; preds = %18, %8
  ret void, !dbg !3769
}

declare void @_ZN7Element17add_write_handlerEPKcPFiRK6StringPS_PvP12ErrorHandlerEij(%class.Element*, i8*, i32 (%class.String*, %class.Element*, i8*, %class.ErrorHandler*)*, i32, i32) local_unnamed_addr #2

; Function Attrs: sspstrong uwtable
define internal i32 @_ZL35FastUDPSourceIP6_rate_write_handlerRK6StringP7ElementPvP12ErrorHandler(%class.String* nocapture readonly dereferenceable(24) %0, %class.Element* nocapture %1, i8* nocapture readnone %2, %class.ErrorHandler* %3) #0 !dbg !3770 {
  %5 = alloca [1 x i32], align 4
  call void @llvm.dbg.declare(metadata [1 x i32]* %5, metadata !3778, metadata !DIExpression()), !dbg !3792
  %6 = alloca %class.Timestamp, align 8
  call void @llvm.dbg.declare(metadata %class.Timestamp* %6, metadata !3417, metadata !DIExpression()), !dbg !3805
  %7 = alloca %class.IntArg, align 4
  call void @llvm.dbg.value(metadata %class.String* %0, metadata !3772, metadata !DIExpression()), !dbg !3817
  call void @llvm.dbg.value(metadata %class.Element* %1, metadata !3773, metadata !DIExpression()), !dbg !3817
  call void @llvm.dbg.value(metadata i8* %2, metadata !3774, metadata !DIExpression()), !dbg !3817
  call void @llvm.dbg.value(metadata %class.ErrorHandler* %3, metadata !3775, metadata !DIExpression()), !dbg !3817
  call void @llvm.dbg.value(metadata %class.Element* %1, metadata !3776, metadata !DIExpression()), !dbg !3817
  %8 = bitcast %class.IntArg* %7 to i8*, !dbg !3818
  call void @llvm.lifetime.start.p0i8(i64 8, i8* nonnull %8) #12, !dbg !3818
  call void @llvm.dbg.value(metadata %class.IntArg* %7, metadata !3819, metadata !DIExpression()), !dbg !3823
  call void @llvm.dbg.value(metadata i32 0, metadata !3822, metadata !DIExpression()), !dbg !3823
  %9 = getelementptr inbounds %class.IntArg, %class.IntArg* %7, i64 0, i32 0, !dbg !3825
  store i32 0, i32* %9, align 4, !dbg !3825, !tbaa !3826
  call void @llvm.dbg.value(metadata %class.IntArg* %7, metadata !3798, metadata !DIExpression()), !dbg !3828
  call void @llvm.dbg.value(metadata %class.String* %0, metadata !3799, metadata !DIExpression()), !dbg !3828
  call void @llvm.dbg.value(metadata %class.ArgContext* @blank_args, metadata !3801, metadata !DIExpression()), !dbg !3828
  call void @llvm.dbg.value(metadata %class.IntArg* %7, metadata !3786, metadata !DIExpression()), !dbg !3829
  call void @llvm.dbg.value(metadata %class.String* %0, metadata !3787, metadata !DIExpression()), !dbg !3829
  call void @llvm.dbg.value(metadata %class.ArgContext* @blank_args, metadata !3789, metadata !DIExpression()), !dbg !3829
  call void @llvm.dbg.value(metadata i8 0, metadata !3790, metadata !DIExpression()), !dbg !3829
  call void @llvm.dbg.value(metadata i32 1, metadata !3791, metadata !DIExpression()), !dbg !3829
  %10 = bitcast [1 x i32]* %5 to i8*, !dbg !3830
  call void @llvm.lifetime.start.p0i8(i64 4, i8* nonnull %10) #12, !dbg !3830
  call void @llvm.dbg.value(metadata %class.String* %0, metadata !3831, metadata !DIExpression()), !dbg !3834
  %11 = getelementptr inbounds %class.String, %class.String* %0, i64 0, i32 0, i32 0, !dbg !3837
  %12 = load i8*, i8** %11, align 8, !dbg !3837, !tbaa !3758
  call void @llvm.dbg.value(metadata %class.String* %0, metadata !3838, metadata !DIExpression()), !dbg !3841
  %13 = getelementptr inbounds %class.String, %class.String* %0, i64 0, i32 0, i32 1, !dbg !3843
  %14 = load i32, i32* %13, align 8, !dbg !3843, !tbaa !3763
  %15 = sext i32 %14 to i64, !dbg !3844
  %16 = getelementptr inbounds i8, i8* %12, i64 %15, !dbg !3844
  %17 = getelementptr inbounds [1 x i32], [1 x i32]* %5, i64 0, i64 0, !dbg !3845
  %18 = call i8* @_ZN6IntArg5parseEPKcS1_biPji(%class.IntArg* nonnull %7, i8* %12, i8* %16, i1 zeroext false, i32 4, i32* nonnull %17, i32 1), !dbg !3846
  call void @llvm.dbg.value(metadata %class.String* %0, metadata !3838, metadata !DIExpression()), !dbg !3847
  %19 = load i8*, i8** %11, align 8, !dbg !3849, !tbaa !3758
  %20 = load i32, i32* %13, align 8, !dbg !3850, !tbaa !3763
  %21 = sext i32 %20 to i64, !dbg !3851
  %22 = getelementptr inbounds i8, i8* %19, i64 %21, !dbg !3851
  %23 = icmp eq i8* %18, %22, !dbg !3852
  %24 = getelementptr inbounds %class.IntArg, %class.IntArg* %7, i64 0, i32 1, !dbg !3829
  br i1 %23, label %26, label %25, !dbg !3853

25:                                               ; preds = %4
  store i32 22, i32* %24, align 4, !dbg !3854, !tbaa !3855
  br label %28, !dbg !3856

26:                                               ; preds = %4
  %27 = load i32, i32* %24, align 4, !dbg !3858, !tbaa !3855
  switch i32 %27, label %28 [
    i32 0, label %29
    i32 34, label %29
  ], !dbg !3856

28:                                               ; preds = %26, %25
  call void (%class.ArgContext*, i8*, ...) @_ZNK10ArgContext5errorEPKcz(%class.ArgContext* nonnull @blank_args, i8* getelementptr inbounds ([15 x i8], [15 x i8]* @.str.23, i64 0, i64 0)), !dbg !3859
  call void @llvm.lifetime.end.p0i8(i64 4, i8* nonnull %10) #12, !dbg !3861
  br label %33, !dbg !3862

29:                                               ; preds = %26, %26
  call void @llvm.dbg.value(metadata i32* %17, metadata !3863, metadata !DIExpression()), !dbg !3872
  call void @llvm.dbg.value(metadata i32* %17, metadata !3874, metadata !DIExpression()), !dbg !3883
  %30 = load i32, i32* %17, align 4, !dbg !3885, !tbaa !3251
  call void @llvm.lifetime.end.p0i8(i64 4, i8* nonnull %10) #12, !dbg !3861
  switch i32 %27, label %33 [
    i32 34, label %31
    i32 0, label %35
  ], !dbg !3886

31:                                               ; preds = %29
  %32 = zext i32 %30 to i64, !dbg !3887
  call void @_ZN6IntArg11range_errorERK10ArgContextbx(%class.IntArg* nonnull %7, %class.ArgContext* nonnull dereferenceable(32) @blank_args, i1 zeroext false, i64 %32), !dbg !3890
  br label %33, !dbg !3891

33:                                               ; preds = %31, %29, %28
  call void @llvm.lifetime.end.p0i8(i64 8, i8* nonnull %8) #12, !dbg !3892
  %34 = call i32 (%class.ErrorHandler*, i8*, ...) @_ZN12ErrorHandler5errorEPKcz(%class.ErrorHandler* %3, i8* getelementptr inbounds ([36 x i8], [36 x i8]* @.str.21, i64 0, i64 0)), !dbg !3893
  br label %78, !dbg !3894

35:                                               ; preds = %29
  call void @llvm.lifetime.end.p0i8(i64 8, i8* nonnull %8) #12, !dbg !3892
  call void @llvm.dbg.value(metadata i32 %30, metadata !3777, metadata !DIExpression()), !dbg !3817
  %36 = icmp ugt i32 %30, -198967296, !dbg !3895
  br i1 %36, label %37, label %39, !dbg !3897

37:                                               ; preds = %35
  %38 = call i32 (%class.ErrorHandler*, i8*, ...) @_ZN12ErrorHandler5errorEPKcz(%class.ErrorHandler* %3, i8* getelementptr inbounds ([26 x i8], [26 x i8]* @.str.22, i64 0, i64 0), i32 -198967296), !dbg !3898
  br label %78, !dbg !3899

39:                                               ; preds = %35
  %40 = getelementptr inbounds %class.Element, %class.Element* %1, i64 1, i32 3, !dbg !3900
  call void @llvm.dbg.value(metadata [2 x i32]* %40, metadata !3813, metadata !DIExpression()), !dbg !3901
  call void @llvm.dbg.value(metadata i32 %30, metadata !3814, metadata !DIExpression()), !dbg !3901
  call void @llvm.dbg.value(metadata i32 %30, metadata !3814, metadata !DIExpression()), !dbg !3901
  %41 = getelementptr inbounds [2 x i32], [2 x i32]* %40, i64 1, i64 1, !dbg !3902
  %42 = load i32, i32* %41, align 4, !dbg !3902, !tbaa !2987
  %43 = icmp eq i32 %42, %30, !dbg !3903
  br i1 %43, label %78, label %44, !dbg !3904

44:                                               ; preds = %39
  call void @llvm.dbg.value(metadata [2 x i32]* %40, metadata !2978, metadata !DIExpression()), !dbg !3905
  call void @llvm.dbg.value(metadata i32 %30, metadata !2981, metadata !DIExpression()), !dbg !3905
  store i32 %30, i32* %41, align 4, !dbg !3907, !tbaa !2987
  %45 = icmp eq i32 %30, 0, !dbg !3908
  br i1 %45, label %48, label %46, !dbg !3909

46:                                               ; preds = %44
  %47 = udiv i32 -198967296, %30, !dbg !3910
  br label %48, !dbg !3909

48:                                               ; preds = %46, %44
  %49 = phi i32 [ %47, %46 ], [ -198967295, %44 ], !dbg !3909
  %50 = getelementptr [2 x i32], [2 x i32]* %40, i64 0, i64 0, !dbg !3911
  store i32 %49, i32* %50, align 4, !dbg !3912, !tbaa !2992
  %51 = getelementptr inbounds [2 x i32], [2 x i32]* %40, i64 1, i64 0, !dbg !3913
  %52 = load i32, i32* %51, align 4, !dbg !3913, !tbaa !3000
  %53 = icmp sgt i32 %52, -1, !dbg !3914
  %54 = icmp ne i32 %30, 0, !dbg !3915
  %55 = and i1 %54, %53, !dbg !3916
  br i1 %55, label %56, label %78, !dbg !3916

56:                                               ; preds = %48
  %57 = bitcast %class.Timestamp* %6 to i8*, !dbg !3917
  call void @llvm.lifetime.start.p0i8(i64 8, i8* nonnull %57), !dbg !3917
  call void @_ZN9Timestamp10assign_nowEv(%class.Timestamp* nonnull %6), !dbg !3917
  %58 = getelementptr inbounds %class.Timestamp, %class.Timestamp* %6, i64 0, i32 0, i32 0, !dbg !3918
  %59 = load i64, i64* %58, align 8, !dbg !3918
  call void @llvm.lifetime.end.p0i8(i64 8, i8* nonnull %57), !dbg !3918
  call void @llvm.dbg.value(metadata i64 %59, metadata !3815, metadata !DIExpression()), !dbg !3919
  call void @llvm.dbg.value(metadata %class.Timestamp* undef, metadata !3446, metadata !DIExpression()), !dbg !3920
  call void @llvm.dbg.value(metadata %class.Timestamp* undef, metadata !3452, metadata !DIExpression()), !dbg !3922
  call void @llvm.dbg.value(metadata %class.Timestamp* undef, metadata !3457, metadata !DIExpression()), !dbg !3924
  %60 = icmp slt i64 %59, 0, !dbg !3926
  br i1 %60, label %61, label %65, !dbg !3927, !prof !3465, !misexpect !3466

61:                                               ; preds = %56
  %62 = xor i64 %59, -1, !dbg !3928
  call void @llvm.dbg.value(metadata i64 %62, metadata !3468, metadata !DIExpression()), !dbg !3929
  call void @llvm.dbg.value(metadata i32 1000000000, metadata !3471, metadata !DIExpression()), !dbg !3929
  call void @llvm.dbg.value(metadata i64 %62, metadata !3474, metadata !DIExpression()), !dbg !3931
  call void @llvm.dbg.value(metadata i32 1000000000, metadata !3480, metadata !DIExpression()), !dbg !3931
  %63 = sdiv i64 %62, 1000000000, !dbg !3933
  %64 = xor i64 %63, -1, !dbg !3934
  br label %67, !dbg !3935

65:                                               ; preds = %56
  call void @llvm.dbg.value(metadata i64 %59, metadata !3468, metadata !DIExpression()), !dbg !3936
  call void @llvm.dbg.value(metadata i32 1000000000, metadata !3471, metadata !DIExpression()), !dbg !3936
  call void @llvm.dbg.value(metadata i64 %59, metadata !3474, metadata !DIExpression()), !dbg !3938
  call void @llvm.dbg.value(metadata i32 1000000000, metadata !3480, metadata !DIExpression()), !dbg !3938
  %66 = udiv i64 %59, 1000000000, !dbg !3940
  br label %67, !dbg !3941

67:                                               ; preds = %65, %61
  %68 = phi i64 [ %64, %61 ], [ %66, %65 ]
  %69 = trunc i64 %68 to i32, !dbg !3942
  %70 = trunc i64 %59 to i32, !dbg !3943
  %71 = mul i32 %69, -1000000000, !dbg !3943
  %72 = add i32 %71, %70, !dbg !3943
  call void @llvm.dbg.value(metadata i32 %72, metadata !3494, metadata !DIExpression()), !dbg !3944
  %73 = udiv i32 %72, 1000, !dbg !3946
  %74 = shl i32 %73, 12, !dbg !3947
  %75 = load i32, i32* %50, align 4, !dbg !3948, !tbaa !2992
  %76 = udiv i32 %74, %75, !dbg !3949
  %77 = getelementptr inbounds %class.Element, %class.Element* %1, i64 1, i32 3, i64 1, !dbg !3950
  store i32 %76, i32* %77, align 4, !dbg !3951, !tbaa !3562
  br label %78, !dbg !3952

78:                                               ; preds = %67, %48, %39, %37, %33
  %79 = phi i32 [ %34, %33 ], [ %38, %37 ], [ 0, %39 ], [ 0, %48 ], [ 0, %67 ], !dbg !3817
  ret i32 %79, !dbg !3953
}

; Function Attrs: nofree norecurse nounwind sspstrong uwtable writeonly
define internal i32 @_ZL36FastUDPSourceIP6_reset_write_handlerRK6StringP7ElementPvP12ErrorHandler(%class.String* nocapture readnone dereferenceable(24) %0, %class.Element* nocapture %1, i8* nocapture readnone %2, %class.ErrorHandler* nocapture readnone %3) #7 !dbg !3954 {
  call void @llvm.dbg.value(metadata %class.String* %0, metadata !3956, metadata !DIExpression()), !dbg !3961
  call void @llvm.dbg.value(metadata %class.Element* %1, metadata !3957, metadata !DIExpression()), !dbg !3961
  call void @llvm.dbg.value(metadata i8* %2, metadata !3958, metadata !DIExpression()), !dbg !3961
  call void @llvm.dbg.value(metadata %class.ErrorHandler* %3, metadata !3959, metadata !DIExpression()), !dbg !3961
  call void @llvm.dbg.value(metadata %class.Element* %1, metadata !3960, metadata !DIExpression()), !dbg !3961
  call void @llvm.dbg.value(metadata %class.Element* %1, metadata !3668, metadata !DIExpression()), !dbg !3962
  %5 = getelementptr inbounds %class.Element, %class.Element* %1, i64 1, i32 5, !dbg !3964
  store i32 0, i32* %5, align 8, !dbg !3965, !tbaa !3013
  %6 = getelementptr inbounds %class.Element, %class.Element* %1, i64 1, i32 2, i64 3, i32 1, !dbg !3966
  store i32 0, i32* %6, align 8, !dbg !3967, !tbaa !3010
  %7 = getelementptr inbounds %class.Element, %class.Element* %1, i64 1, i32 2, i64 3, i32 2, !dbg !3968
  %8 = bitcast [4 x i8]* %7 to i32*, !dbg !3968
  store i32 0, i32* %8, align 4, !dbg !3969, !tbaa !3007
  %9 = getelementptr inbounds %class.Element, %class.Element* %1, i64 1, i32 2, i64 2, !dbg !3970
  %10 = bitcast %"class.Element::Port"* %9 to i16*, !dbg !3970
  store i16 0, i16* %10, align 8, !dbg !3971, !tbaa !3283
  ret i32 0, !dbg !3972
}

; Function Attrs: sspstrong uwtable
define internal i32 @_ZL37FastUDPSourceIP6_active_write_handlerRK6StringP7ElementPvP12ErrorHandler(%class.String* dereferenceable(24) %0, %class.Element* nocapture %1, i8* nocapture readnone %2, %class.ErrorHandler* %3) #0 !dbg !3973 {
  %5 = alloca i8, align 1
  call void @llvm.dbg.value(metadata %class.String* %0, metadata !3975, metadata !DIExpression()), !dbg !3981
  call void @llvm.dbg.value(metadata %class.Element* %1, metadata !3976, metadata !DIExpression()), !dbg !3981
  call void @llvm.dbg.value(metadata i8* %2, metadata !3977, metadata !DIExpression()), !dbg !3981
  call void @llvm.dbg.value(metadata %class.ErrorHandler* %3, metadata !3978, metadata !DIExpression()), !dbg !3981
  call void @llvm.dbg.value(metadata %class.Element* %1, metadata !3979, metadata !DIExpression()), !dbg !3981
  call void @llvm.lifetime.start.p0i8(i64 1, i8* nonnull %5) #12, !dbg !3982
  call void @llvm.dbg.value(metadata i8* %5, metadata !3980, metadata !DIExpression(DW_OP_deref)), !dbg !3981
  %6 = call zeroext i1 @_ZN7BoolArg5parseERK6StringRbRK10ArgContext(%class.String* nonnull dereferenceable(24) %0, i8* nonnull dereferenceable(1) %5, %class.ArgContext* nonnull dereferenceable(32) @blank_args), !dbg !3983
  br i1 %6, label %9, label %7, !dbg !3985

7:                                                ; preds = %4
  %8 = call i32 (%class.ErrorHandler*, i8*, ...) @_ZN12ErrorHandler5errorEPKcz(%class.ErrorHandler* %3, i8* getelementptr inbounds ([33 x i8], [33 x i8]* @.str.24, i64 0, i64 0)), !dbg !3986
  br label %21, !dbg !3987

9:                                                ; preds = %4
  %10 = load i8, i8* %5, align 1, !dbg !3988, !tbaa !3989, !range !3300
  call void @llvm.dbg.value(metadata i8 %10, metadata !3980, metadata !DIExpression()), !dbg !3981
  %11 = getelementptr inbounds %class.Element, %class.Element* %1, i64 2, !dbg !3990
  %12 = bitcast %class.Element* %11 to i8*, !dbg !3990
  store i8 %10, i8* %12, align 8, !dbg !3991, !tbaa !3044
  call void @llvm.dbg.value(metadata i8 %10, metadata !3980, metadata !DIExpression()), !dbg !3981
  %13 = icmp eq i8 %10, 0, !dbg !3992
  br i1 %13, label %21, label %14, !dbg !3994

14:                                               ; preds = %9
  call void @llvm.dbg.value(metadata %class.Element* %1, metadata !3668, metadata !DIExpression()), !dbg !3995
  %15 = getelementptr inbounds %class.Element, %class.Element* %1, i64 1, i32 5, !dbg !3997
  store i32 0, i32* %15, align 8, !dbg !3998, !tbaa !3013
  %16 = getelementptr inbounds %class.Element, %class.Element* %1, i64 1, i32 2, i64 3, i32 1, !dbg !3999
  store i32 0, i32* %16, align 8, !dbg !4000, !tbaa !3010
  %17 = getelementptr inbounds %class.Element, %class.Element* %1, i64 1, i32 2, i64 3, i32 2, !dbg !4001
  %18 = bitcast [4 x i8]* %17 to i32*, !dbg !4001
  store i32 0, i32* %18, align 4, !dbg !4002, !tbaa !3007
  %19 = getelementptr inbounds %class.Element, %class.Element* %1, i64 1, i32 2, i64 2, !dbg !4003
  %20 = bitcast %"class.Element::Port"* %19 to i16*, !dbg !4003
  store i16 0, i16* %20, align 8, !dbg !4004, !tbaa !3283
  br label %21, !dbg !4005

21:                                               ; preds = %14, %9, %7
  %22 = phi i32 [ %8, %7 ], [ 0, %9 ], [ 0, %14 ], !dbg !3981
  call void @llvm.lifetime.end.p0i8(i64 1, i8* nonnull %5) #12, !dbg !4006
  ret i32 %22, !dbg !4006
}

; Function Attrs: sspstrong uwtable
define internal i32 @_ZL36FastUDPSourceIP6_limit_write_handlerRK6StringP7ElementPvP12ErrorHandler(%class.String* nocapture readonly dereferenceable(24) %0, %class.Element* nocapture %1, i8* nocapture readnone %2, %class.ErrorHandler* %3) #0 !dbg !4007 {
  %5 = alloca [1 x i32], align 4
  call void @llvm.dbg.declare(metadata [1 x i32]* %5, metadata !1933, metadata !DIExpression()), !dbg !4015
  %6 = alloca %class.IntArg, align 4
  call void @llvm.dbg.value(metadata %class.String* %0, metadata !4009, metadata !DIExpression()), !dbg !4028
  call void @llvm.dbg.value(metadata %class.Element* %1, metadata !4010, metadata !DIExpression()), !dbg !4028
  call void @llvm.dbg.value(metadata i8* %2, metadata !4011, metadata !DIExpression()), !dbg !4028
  call void @llvm.dbg.value(metadata %class.ErrorHandler* %3, metadata !4012, metadata !DIExpression()), !dbg !4028
  call void @llvm.dbg.value(metadata %class.Element* %1, metadata !4013, metadata !DIExpression()), !dbg !4028
  %7 = bitcast %class.IntArg* %6 to i8*, !dbg !4029
  call void @llvm.lifetime.start.p0i8(i64 8, i8* nonnull %7) #12, !dbg !4029
  call void @llvm.dbg.value(metadata %class.IntArg* %6, metadata !3819, metadata !DIExpression()), !dbg !4030
  call void @llvm.dbg.value(metadata i32 0, metadata !3822, metadata !DIExpression()), !dbg !4030
  %8 = getelementptr inbounds %class.IntArg, %class.IntArg* %6, i64 0, i32 0, !dbg !4032
  store i32 0, i32* %8, align 4, !dbg !4032, !tbaa !3826
  call void @llvm.dbg.value(metadata %class.IntArg* %6, metadata !4021, metadata !DIExpression()), !dbg !4033
  call void @llvm.dbg.value(metadata %class.String* %0, metadata !4022, metadata !DIExpression()), !dbg !4033
  call void @llvm.dbg.value(metadata %class.ArgContext* @blank_args, metadata !4024, metadata !DIExpression()), !dbg !4033
  call void @llvm.dbg.value(metadata %class.IntArg* %6, metadata !1925, metadata !DIExpression()), !dbg !4034
  call void @llvm.dbg.value(metadata %class.String* %0, metadata !1927, metadata !DIExpression()), !dbg !4034
  call void @llvm.dbg.value(metadata %class.ArgContext* @blank_args, metadata !1929, metadata !DIExpression()), !dbg !4034
  call void @llvm.dbg.value(metadata i8 1, metadata !1930, metadata !DIExpression()), !dbg !4034
  call void @llvm.dbg.value(metadata i32 1, metadata !1931, metadata !DIExpression()), !dbg !4034
  %9 = bitcast [1 x i32]* %5 to i8*, !dbg !4035
  call void @llvm.lifetime.start.p0i8(i64 4, i8* nonnull %9) #12, !dbg !4035
  call void @llvm.dbg.value(metadata %class.String* %0, metadata !3831, metadata !DIExpression()), !dbg !4036
  %10 = getelementptr inbounds %class.String, %class.String* %0, i64 0, i32 0, i32 0, !dbg !4039
  %11 = load i8*, i8** %10, align 8, !dbg !4039, !tbaa !3758
  call void @llvm.dbg.value(metadata %class.String* %0, metadata !3838, metadata !DIExpression()), !dbg !4040
  %12 = getelementptr inbounds %class.String, %class.String* %0, i64 0, i32 0, i32 1, !dbg !4042
  %13 = load i32, i32* %12, align 8, !dbg !4042, !tbaa !3763
  %14 = sext i32 %13 to i64, !dbg !4043
  %15 = getelementptr inbounds i8, i8* %11, i64 %14, !dbg !4043
  %16 = getelementptr inbounds [1 x i32], [1 x i32]* %5, i64 0, i64 0, !dbg !4044
  %17 = call i8* @_ZN6IntArg5parseEPKcS1_biPji(%class.IntArg* nonnull %6, i8* %11, i8* %15, i1 zeroext true, i32 4, i32* nonnull %16, i32 1), !dbg !4045
  call void @llvm.dbg.value(metadata %class.String* %0, metadata !3838, metadata !DIExpression()), !dbg !4046
  %18 = load i8*, i8** %10, align 8, !dbg !4048, !tbaa !3758
  %19 = load i32, i32* %12, align 8, !dbg !4049, !tbaa !3763
  %20 = sext i32 %19 to i64, !dbg !4050
  %21 = getelementptr inbounds i8, i8* %18, i64 %20, !dbg !4050
  %22 = icmp eq i8* %17, %21, !dbg !4051
  %23 = getelementptr inbounds %class.IntArg, %class.IntArg* %6, i64 0, i32 1, !dbg !4034
  br i1 %22, label %25, label %24, !dbg !4052

24:                                               ; preds = %4
  store i32 22, i32* %23, align 4, !dbg !4053, !tbaa !3855
  br label %27, !dbg !4054

25:                                               ; preds = %4
  %26 = load i32, i32* %23, align 4, !dbg !4056, !tbaa !3855
  switch i32 %26, label %27 [
    i32 0, label %28
    i32 34, label %28
  ], !dbg !4054

27:                                               ; preds = %25, %24
  call void (%class.ArgContext*, i8*, ...) @_ZNK10ArgContext5errorEPKcz(%class.ArgContext* nonnull @blank_args, i8* getelementptr inbounds ([15 x i8], [15 x i8]* @.str.23, i64 0, i64 0)), !dbg !4057
  call void @llvm.lifetime.end.p0i8(i64 4, i8* nonnull %9) #12, !dbg !4059
  br label %32, !dbg !4060

28:                                               ; preds = %25, %25
  call void @llvm.dbg.value(metadata i32* %16, metadata !3863, metadata !DIExpression()), !dbg !4061
  call void @llvm.dbg.value(metadata i32* %16, metadata !3874, metadata !DIExpression()), !dbg !4063
  %29 = load i32, i32* %16, align 4, !dbg !4065, !tbaa !3251
  call void @llvm.lifetime.end.p0i8(i64 4, i8* nonnull %9) #12, !dbg !4059
  switch i32 %26, label %32 [
    i32 34, label %30
    i32 0, label %34
  ], !dbg !4066

30:                                               ; preds = %28
  %31 = sext i32 %29 to i64, !dbg !4067
  call void @_ZN6IntArg11range_errorERK10ArgContextbx(%class.IntArg* nonnull %6, %class.ArgContext* nonnull dereferenceable(32) @blank_args, i1 zeroext true, i64 %31), !dbg !4070
  br label %32, !dbg !4071

32:                                               ; preds = %30, %28, %27
  call void @llvm.lifetime.end.p0i8(i64 8, i8* nonnull %7) #12, !dbg !4072
  %33 = call i32 (%class.ErrorHandler*, i8*, ...) @_ZN12ErrorHandler5errorEPKcz(%class.ErrorHandler* %3, i8* getelementptr inbounds ([37 x i8], [37 x i8]* @.str.25, i64 0, i64 0)), !dbg !4073
  br label %39, !dbg !4074

34:                                               ; preds = %28
  call void @llvm.lifetime.end.p0i8(i64 8, i8* nonnull %7) #12, !dbg !4072
  call void @llvm.dbg.value(metadata i32 %29, metadata !4014, metadata !DIExpression()), !dbg !4028
  %35 = icmp sgt i32 %29, -1, !dbg !4075
  %36 = select i1 %35, i32 %29, i32 -1, !dbg !4076
  %37 = getelementptr inbounds %class.Element, %class.Element* %1, i64 1, i32 6, !dbg !4077
  %38 = bitcast [4 x i8]* %37 to i32*, !dbg !4077
  store i32 %36, i32* %38, align 4, !dbg !4078, !tbaa !3266
  br label %39, !dbg !4079

39:                                               ; preds = %34, %32
  %40 = phi i32 [ %33, %32 ], [ 0, %34 ], !dbg !4028
  ret i32 %40, !dbg !4080
}

declare void @_ZN7Element4pushEiP6Packet(%class.Element*, i32, %class.Packet*) unnamed_addr #2

declare %class.Packet* @_ZN7Element13simple_actionEP6Packet(%class.Element*, %class.Packet*) unnamed_addr #2

declare zeroext i1 @_ZN7Element8run_taskEP4Task(%class.Element*, %class.Task*) unnamed_addr #2

declare void @_ZN7Element9run_timerEP5Timer(%class.Element*, %class.Timer*) unnamed_addr #2

declare void @_ZN7Element8selectedEii(%class.Element*, i32, i32) unnamed_addr #2

declare void @_ZN7Element8selectedEi(%class.Element*, i32) unnamed_addr #2

; Function Attrs: nounwind sspstrong uwtable
define linkonce_odr dso_local i8* @_ZNK16FastUDPSourceIP610class_nameEv(%class.FastUDPSourceIP6* %0) unnamed_addr #4 comdat align 2 !dbg !4081 {
  call void @llvm.dbg.value(metadata %class.FastUDPSourceIP6* %0, metadata !4083, metadata !DIExpression()), !dbg !4085
  ret i8* getelementptr inbounds ([17 x i8], [17 x i8]* @.str.26, i64 0, i64 0), !dbg !4086
}

; Function Attrs: nounwind sspstrong uwtable
define linkonce_odr dso_local i8* @_ZNK16FastUDPSourceIP610port_countEv(%class.FastUDPSourceIP6* %0) unnamed_addr #4 comdat align 2 !dbg !4087 {
  call void @llvm.dbg.value(metadata %class.FastUDPSourceIP6* %0, metadata !4089, metadata !DIExpression()), !dbg !4090
  ret i8* getelementptr inbounds ([0 x i8], [0 x i8]* @_ZN7Element9PORTS_0_1E, i64 0, i64 0), !dbg !4091
}

; Function Attrs: nounwind sspstrong uwtable
define linkonce_odr dso_local i8* @_ZNK16FastUDPSourceIP610processingEv(%class.FastUDPSourceIP6* %0) unnamed_addr #4 comdat align 2 !dbg !4092 {
  call void @llvm.dbg.value(metadata %class.FastUDPSourceIP6* %0, metadata !4094, metadata !DIExpression()), !dbg !4095
  ret i8* getelementptr inbounds ([0 x i8], [0 x i8]* @_ZN7Element4PULLE, i64 0, i64 0), !dbg !4096
}

declare i8* @_ZNK7Element9flow_codeEv(%class.Element*) unnamed_addr #2

declare i8* @_ZNK7Element5flagsEv(%class.Element*) unnamed_addr #2

declare i8* @_ZN7Element4castEPKc(%class.Element*, i8*) unnamed_addr #2

declare i8* @_ZN7Element9port_castEbiPKc(%class.Element*, i1 zeroext, i32, i8*) unnamed_addr #2

declare i32 @_ZNK7Element15configure_phaseEv(%class.Element*) unnamed_addr #2

declare void @_ZN7Element10take_stateEPS_P12ErrorHandler(%class.Element*, %class.Element*, %class.ErrorHandler*) unnamed_addr #2

declare %class.Element* @_ZNK7Element15hotswap_elementEv(%class.Element*) unnamed_addr #2

declare void @_ZNK7Element11declarationEv(%class.String* sret, %class.Element*) unnamed_addr #2

declare zeroext i1 @_ZNK7Element20can_live_reconfigureEv(%class.Element*) unnamed_addr #2

declare i32 @_ZN7Element16live_reconfigureER6VectorI6StringEP12ErrorHandler(%class.Element*, %class.Vector* dereferenceable(16), %class.ErrorHandler*) unnamed_addr #2

declare i32 @_ZN7Element5llrpcEjPv(%class.Element*, i32, i8*) unnamed_addr #2

; Function Attrs: argmemonly nounwind willreturn
declare void @llvm.memset.p0i8.i64(i8* nocapture writeonly, i8, i64, i1 immarg) #6

; Function Attrs: noreturn nounwind
declare void @__assert_fail(i8*, i8*, i32, i8*) local_unnamed_addr #8

declare %class.WritablePacket* @_ZN6Packet4makeEjPKvjj(i32, i8*, i32, i32) local_unnamed_addr #2

declare %"union.Packet::Anno"* @_ZN6Packet5xannoEv(%class.Packet*) local_unnamed_addr #2

; Function Attrs: noinline optnone sspstrong uwtable
define linkonce_odr dso_local void @_ZN9Timestamp10assign_nowEv(%class.Timestamp* %0) local_unnamed_addr #9 comdat align 2 !dbg !4097 {
  %2 = alloca %class.Timestamp*, align 8
  store %class.Timestamp* %0, %class.Timestamp** %2, align 8, !tbaa !4101
  call void @llvm.dbg.declare(metadata %class.Timestamp** %2, metadata !4099, metadata !DIExpression()), !dbg !4102
  %3 = load %class.Timestamp*, %class.Timestamp** %2, align 8
  call void @_ZN9Timestamp10assign_nowEbbb(%class.Timestamp* %3, i1 zeroext false, i1 zeroext false, i1 zeroext false), !dbg !4103
  ret void, !dbg !4104
}

declare void @_ZN9Timestamp10assign_nowEbbb(%class.Timestamp*, i1 zeroext, i1 zeroext, i1 zeroext) local_unnamed_addr #2

declare void @_ZN6StringC1Ej(%class.String*, i32) unnamed_addr #2

declare void @_ZN6StringC1Ei(%class.String*, i32) unnamed_addr #2

declare i32 @_ZN12ErrorHandler5errorEPKcz(%class.ErrorHandler*, i8*, ...) local_unnamed_addr #2

declare void @_ZN6IntArg11range_errorERK10ArgContextbx(%class.IntArg*, %class.ArgContext* dereferenceable(32), i1 zeroext, i64) local_unnamed_addr #2

declare i8* @_ZN6IntArg5parseEPKcS1_biPji(%class.IntArg*, i8*, i8*, i1 zeroext, i32, i32*, i32) local_unnamed_addr #2

declare void @_ZNK10ArgContext5errorEPKcz(%class.ArgContext*, i8*, ...) local_unnamed_addr #2

declare zeroext i1 @_ZN7BoolArg5parseERK6StringRbRK10ArgContext(%class.String* dereferenceable(24), i8* dereferenceable(1), %class.ArgContext* dereferenceable(32)) local_unnamed_addr #2

; Function Attrs: noinline optnone sspstrong uwtable
define linkonce_odr dso_local void @_Z14args_base_readIjEvP4ArgsPKciRT_(%class.Args* %0, i8* %1, i32 %2, i32* dereferenceable(4) %3) local_unnamed_addr #9 comdat !dbg !4105 {
  %5 = alloca %class.Args*, align 8
  %6 = alloca i8*, align 8
  %7 = alloca i32, align 4
  %8 = alloca i32*, align 8
  store %class.Args* %0, %class.Args** %5, align 8, !tbaa !4101
  call void @llvm.dbg.declare(metadata %class.Args** %5, metadata !4107, metadata !DIExpression()), !dbg !4111
  store i8* %1, i8** %6, align 8, !tbaa !4101
  call void @llvm.dbg.declare(metadata i8** %6, metadata !4108, metadata !DIExpression()), !dbg !4112
  store i32 %2, i32* %7, align 4, !tbaa !3251
  call void @llvm.dbg.declare(metadata i32* %7, metadata !4109, metadata !DIExpression()), !dbg !4113
  store i32* %3, i32** %8, align 8, !tbaa !4101
  call void @llvm.dbg.declare(metadata i32** %8, metadata !4110, metadata !DIExpression()), !dbg !4114
  %9 = load %class.Args*, %class.Args** %5, align 8, !dbg !4115, !tbaa !4101
  %10 = load i8*, i8** %6, align 8, !dbg !4116, !tbaa !4101
  %11 = load i32, i32* %7, align 4, !dbg !4117, !tbaa !3251
  %12 = load i32*, i32** %8, align 8, !dbg !4118, !tbaa !4101
  call void @_ZN4Args9base_readIjEEvPKciRT_(%class.Args* %9, i8* %10, i32 %11, i32* dereferenceable(4) %12), !dbg !4119
  ret void, !dbg !4120
}

; Function Attrs: sspstrong uwtable
define linkonce_odr dso_local void @_ZN4Args9base_readIjEEvPKciRT_(%class.Args* %0, i8* %1, i32 %2, i32* dereferenceable(4) %3) local_unnamed_addr #0 comdat align 2 personality i8* bitcast (i32 (...)* @__gxx_personality_v0 to i8*) !dbg !4121 {
  %5 = alloca [1 x i32], align 4
  call void @llvm.dbg.declare(metadata [1 x i32]* %5, metadata !3778, metadata !DIExpression()), !dbg !4135
  %6 = alloca i64, align 8
  %7 = alloca %"struct.Args::Slot"*, align 8
  %8 = alloca %class.String, align 8
  call void @llvm.dbg.value(metadata %class.Args* %0, metadata !4126, metadata !DIExpression()), !dbg !4157
  call void @llvm.dbg.value(metadata i8* %1, metadata !4127, metadata !DIExpression()), !dbg !4157
  call void @llvm.dbg.value(metadata i32 %2, metadata !4128, metadata !DIExpression()), !dbg !4157
  call void @llvm.dbg.value(metadata i32* %3, metadata !4129, metadata !DIExpression()), !dbg !4157
  %9 = bitcast %"struct.Args::Slot"** %7 to i8*, !dbg !4158
  call void @llvm.lifetime.start.p0i8(i64 8, i8* nonnull %9) #12, !dbg !4158
  %10 = bitcast %class.String* %8 to i8*, !dbg !4159
  call void @llvm.lifetime.start.p0i8(i64 24, i8* nonnull %10) #12, !dbg !4159
  call void @llvm.dbg.declare(metadata %class.String* %8, metadata !4131, metadata !DIExpression()), !dbg !4160
  call void @llvm.dbg.value(metadata %"struct.Args::Slot"** %7, metadata !4130, metadata !DIExpression(DW_OP_deref)), !dbg !4157
  call void @_ZN4Args4findEPKciRPNS_4SlotE(%class.String* nonnull sret %8, %class.Args* %0, i8* %1, i32 %2, %"struct.Args::Slot"** nonnull dereferenceable(8) %7), !dbg !4161
  call void @llvm.dbg.value(metadata %class.String* %8, metadata !4162, metadata !DIExpression()), !dbg !4165
  %11 = getelementptr inbounds %class.String, %class.String* %8, i64 0, i32 0, i32 1, !dbg !4167
  %12 = load i32, i32* %11, align 8, !dbg !4167, !tbaa !3763
  %13 = icmp eq i32 %12, 0, !dbg !4168
  %14 = select i1 %13, { i64, i64 } zeroinitializer, { i64, i64 } { i64 ptrtoint (i32 (%class.String*)* @_ZNK6String6lengthEv to i64), i64 0 }, !dbg !4169
  %15 = extractvalue { i64, i64 } %14, 0, !dbg !4160
  %16 = icmp eq i64 %15, 0, !dbg !4160
  br i1 %16, label %77, label %17, !dbg !4159

17:                                               ; preds = %4
  call void @llvm.dbg.value(metadata i32* %3, metadata !4170, metadata !DIExpression()), !dbg !4177
  call void @llvm.dbg.value(metadata %class.Args* %0, metadata !4176, metadata !DIExpression()), !dbg !4177
  call void @llvm.dbg.value(metadata %class.Args* %0, metadata !4179, metadata !DIExpression()), !dbg !4186
  call void @llvm.dbg.value(metadata i32* %3, metadata !4185, metadata !DIExpression()), !dbg !4186
  %18 = bitcast i32* %3 to i8*, !dbg !4188
  %19 = invoke i8* @_ZN4Args11simple_slotEPvm(%class.Args* nonnull %0, i8* nonnull %18, i64 4)
          to label %20 unwind label %57, !dbg !4190

20:                                               ; preds = %17
  %21 = bitcast i8* %19 to i32*, !dbg !4191
  call void @llvm.dbg.value(metadata i32* %21, metadata !4133, metadata !DIExpression()), !dbg !4192
  %22 = icmp eq i8* %19, null, !dbg !4193
  br i1 %22, label %54, label %23, !dbg !4194

23:                                               ; preds = %20
  %24 = bitcast i64* %6 to i8*, !dbg !4195
  call void @llvm.lifetime.start.p0i8(i64 8, i8* nonnull %24), !dbg !4195
  call void @llvm.dbg.value(metadata i64 0, metadata !4152, metadata !DIExpression()), !dbg !4195
  store i64 0, i64* %6, align 8
  call void @llvm.dbg.value(metadata %class.String* %8, metadata !4153, metadata !DIExpression()), !dbg !4195
  call void @llvm.dbg.value(metadata i32* %21, metadata !4154, metadata !DIExpression()), !dbg !4195
  call void @llvm.dbg.value(metadata %class.Args* %0, metadata !4155, metadata !DIExpression()), !dbg !4195
  %25 = bitcast i64* %6 to %class.IntArg*, !dbg !4196
  %26 = bitcast %class.Args* %0 to %class.ArgContext*, !dbg !4197
  call void @llvm.dbg.value(metadata %class.IntArg* %25, metadata !3798, metadata !DIExpression()), !dbg !4198
  call void @llvm.dbg.value(metadata %class.String* %8, metadata !3799, metadata !DIExpression()), !dbg !4198
  call void @llvm.dbg.value(metadata i32* %21, metadata !3800, metadata !DIExpression()), !dbg !4198
  call void @llvm.dbg.value(metadata %class.ArgContext* %26, metadata !3801, metadata !DIExpression()), !dbg !4198
  call void @llvm.dbg.value(metadata %class.IntArg* %25, metadata !3786, metadata !DIExpression()), !dbg !4199
  call void @llvm.dbg.value(metadata %class.String* %8, metadata !3787, metadata !DIExpression()), !dbg !4199
  call void @llvm.dbg.value(metadata %class.ArgContext* %26, metadata !3789, metadata !DIExpression()), !dbg !4199
  call void @llvm.dbg.value(metadata i8 0, metadata !3790, metadata !DIExpression()), !dbg !4199
  call void @llvm.dbg.value(metadata i32 1, metadata !3791, metadata !DIExpression()), !dbg !4199
  %27 = bitcast [1 x i32]* %5 to i8*, !dbg !4200
  call void @llvm.lifetime.start.p0i8(i64 4, i8* nonnull %27) #12, !dbg !4200
  call void @llvm.dbg.value(metadata %class.String* %8, metadata !3831, metadata !DIExpression()), !dbg !4201
  %28 = getelementptr inbounds %class.String, %class.String* %8, i64 0, i32 0, i32 0, !dbg !4203
  %29 = load i8*, i8** %28, align 8, !dbg !4203, !tbaa !3758
  call void @llvm.dbg.value(metadata %class.String* %8, metadata !3838, metadata !DIExpression()), !dbg !4204
  %30 = load i32, i32* %11, align 8, !dbg !4206, !tbaa !3763
  %31 = sext i32 %30 to i64, !dbg !4207
  %32 = getelementptr inbounds i8, i8* %29, i64 %31, !dbg !4207
  %33 = getelementptr inbounds [1 x i32], [1 x i32]* %5, i64 0, i64 0, !dbg !4208
  call void @llvm.dbg.value(metadata i64* %6, metadata !4152, metadata !DIExpression(DW_OP_deref)), !dbg !4195
  %34 = invoke i8* @_ZN6IntArg5parseEPKcS1_biPji(%class.IntArg* nonnull %25, i8* %29, i8* %32, i1 zeroext false, i32 4, i32* nonnull %33, i32 1)
          to label %35 unwind label %57, !dbg !4209

35:                                               ; preds = %23
  call void @llvm.dbg.value(metadata %class.String* %8, metadata !3838, metadata !DIExpression()), !dbg !4210
  %36 = load i8*, i8** %28, align 8, !dbg !4212, !tbaa !3758
  %37 = load i32, i32* %11, align 8, !dbg !4213, !tbaa !3763
  %38 = sext i32 %37 to i64, !dbg !4214
  %39 = getelementptr inbounds i8, i8* %36, i64 %38, !dbg !4214
  %40 = icmp eq i8* %34, %39, !dbg !4215
  %41 = getelementptr inbounds %class.IntArg, %class.IntArg* %25, i64 0, i32 1, !dbg !4199
  br i1 %40, label %43, label %42, !dbg !4216

42:                                               ; preds = %35
  store i32 22, i32* %41, align 4, !dbg !4217, !tbaa !3855
  br label %45, !dbg !4218

43:                                               ; preds = %35
  %44 = load i32, i32* %41, align 4, !dbg !4219, !tbaa !3855
  switch i32 %44, label %45 [
    i32 0, label %47
    i32 34, label %47
  ], !dbg !4218

45:                                               ; preds = %43, %42
  invoke void (%class.ArgContext*, i8*, ...) @_ZNK10ArgContext5errorEPKcz(%class.ArgContext* nonnull %26, i8* getelementptr inbounds ([15 x i8], [15 x i8]* @.str.23, i64 0, i64 0))
          to label %46 unwind label %57, !dbg !4220

46:                                               ; preds = %45
  call void @llvm.lifetime.end.p0i8(i64 4, i8* nonnull %27) #12, !dbg !4221
  br label %52, !dbg !4222

47:                                               ; preds = %43, %43
  call void @llvm.dbg.value(metadata i32* %33, metadata !3863, metadata !DIExpression()), !dbg !4223
  call void @llvm.dbg.value(metadata i32* %33, metadata !3874, metadata !DIExpression()), !dbg !4225
  %48 = load i32, i32* %33, align 4, !dbg !4227, !tbaa !3251
  call void @llvm.lifetime.end.p0i8(i64 4, i8* nonnull %27) #12, !dbg !4221
  switch i32 %44, label %52 [
    i32 34, label %49
    i32 0, label %51
  ], !dbg !4228

49:                                               ; preds = %47
  %50 = zext i32 %48 to i64, !dbg !4229
  call void @llvm.dbg.value(metadata i64* %6, metadata !4152, metadata !DIExpression(DW_OP_deref)), !dbg !4195
  invoke void @_ZN6IntArg11range_errorERK10ArgContextbx(%class.IntArg* nonnull %25, %class.ArgContext* nonnull dereferenceable(32) %26, i1 zeroext false, i64 %50)
          to label %52 unwind label %57, !dbg !4230

51:                                               ; preds = %47
  store i32 %48, i32* %21, align 4, !dbg !4231, !tbaa !3251
  br label %52, !dbg !4233

52:                                               ; preds = %49, %46, %47, %51
  %53 = phi i1 [ true, %51 ], [ false, %47 ], [ false, %46 ], [ false, %49 ], !dbg !4234
  call void @llvm.lifetime.end.p0i8(i64 8, i8* nonnull %24), !dbg !4235
  br label %54, !dbg !4235

54:                                               ; preds = %52, %20
  %55 = phi i1 [ false, %20 ], [ %53, %52 ], !dbg !4192
  %56 = load %"struct.Args::Slot"*, %"struct.Args::Slot"** %7, align 8, !dbg !4236, !tbaa !4101
  call void @llvm.dbg.value(metadata %"struct.Args::Slot"* %56, metadata !4130, metadata !DIExpression()), !dbg !4157
  invoke void @_ZN4Args9postparseEbPNS_4SlotE(%class.Args* nonnull %0, i1 zeroext %55, %"struct.Args::Slot"* %56)
          to label %77 unwind label %57, !dbg !4237

57:                                               ; preds = %49, %45, %23, %17, %54
  %58 = landingpad { i8*, i32 }
          cleanup, !dbg !4238
  call void @llvm.dbg.value(metadata %class.String* %8, metadata !4239, metadata !DIExpression()) #12, !dbg !4242
  call void @llvm.dbg.value(metadata %class.String* %8, metadata !4244, metadata !DIExpression()) #12, !dbg !4247
  %59 = getelementptr inbounds %class.String, %class.String* %8, i64 0, i32 0, i32 2, !dbg !4250
  %60 = load %"struct.String::memo_t"*, %"struct.String::memo_t"** %59, align 8, !dbg !4250, !tbaa !3767
  %61 = icmp eq %"struct.String::memo_t"* %60, null, !dbg !4252
  br i1 %61, label %76, label %62, !dbg !4253

62:                                               ; preds = %57
  %63 = getelementptr inbounds %"struct.String::memo_t", %"struct.String::memo_t"* %60, i64 0, i32 0, !dbg !4254
  %64 = load volatile i32, i32* %63, align 4, !dbg !4254, !tbaa !4256
  %65 = icmp eq i32 %64, 0, !dbg !4254
  br i1 %65, label %66, label %67, !dbg !4254

66:                                               ; preds = %62
  call void @__assert_fail(i8* getelementptr inbounds ([18 x i8], [18 x i8]* @.str.27, i64 0, i64 0), i8* getelementptr inbounds ([29 x i8], [29 x i8]* @.str.28, i64 0, i64 0), i32 273, i8* getelementptr inbounds ([27 x i8], [27 x i8]* @__PRETTY_FUNCTION__._ZNK6String5derefEv, i64 0, i64 0)) #14, !dbg !4254
  unreachable, !dbg !4254

67:                                               ; preds = %62
  call void @llvm.dbg.value(metadata i32* %63, metadata !4258, metadata !DIExpression()) #12, !dbg !4261
  %68 = load volatile i32, i32* %63, align 4, !dbg !4264, !tbaa !3251
  %69 = add i32 %68, -1, !dbg !4264
  store volatile i32 %69, i32* %63, align 4, !dbg !4264, !tbaa !3251
  %70 = icmp eq i32 %69, 0, !dbg !4265
  br i1 %70, label %71, label %72, !dbg !4266

71:                                               ; preds = %67
  invoke void @_ZN6String11delete_memoEPNS_6memo_tE(%"struct.String::memo_t"* nonnull %60)
          to label %72 unwind label %73, !dbg !4267

72:                                               ; preds = %71, %67
  store %"struct.String::memo_t"* null, %"struct.String::memo_t"** %59, align 8, !dbg !4268, !tbaa !3767
  br label %76, !dbg !4269

73:                                               ; preds = %71
  %74 = landingpad { i8*, i32 }
          catch i8* null, !dbg !4270
  %75 = extractvalue { i8*, i32 } %74, 0, !dbg !4270
  call void @__clang_call_terminate(i8* %75) #14, !dbg !4270
  unreachable, !dbg !4270

76:                                               ; preds = %57, %72
  call void @llvm.lifetime.end.p0i8(i64 24, i8* nonnull %10) #12, !dbg !4159
  call void @llvm.lifetime.end.p0i8(i64 8, i8* nonnull %9) #12, !dbg !4271
  resume { i8*, i32 } %58, !dbg !4271

77:                                               ; preds = %54, %4
  call void @llvm.dbg.value(metadata %class.String* %8, metadata !4239, metadata !DIExpression()) #12, !dbg !4272
  call void @llvm.dbg.value(metadata %class.String* %8, metadata !4244, metadata !DIExpression()) #12, !dbg !4274
  %78 = getelementptr inbounds %class.String, %class.String* %8, i64 0, i32 0, i32 2, !dbg !4276
  %79 = load %"struct.String::memo_t"*, %"struct.String::memo_t"** %78, align 8, !dbg !4276, !tbaa !3767
  %80 = icmp eq %"struct.String::memo_t"* %79, null, !dbg !4277
  br i1 %80, label %95, label %81, !dbg !4278

81:                                               ; preds = %77
  %82 = getelementptr inbounds %"struct.String::memo_t", %"struct.String::memo_t"* %79, i64 0, i32 0, !dbg !4279
  %83 = load volatile i32, i32* %82, align 4, !dbg !4279, !tbaa !4256
  %84 = icmp eq i32 %83, 0, !dbg !4279
  br i1 %84, label %85, label %86, !dbg !4279

85:                                               ; preds = %81
  call void @__assert_fail(i8* getelementptr inbounds ([18 x i8], [18 x i8]* @.str.27, i64 0, i64 0), i8* getelementptr inbounds ([29 x i8], [29 x i8]* @.str.28, i64 0, i64 0), i32 273, i8* getelementptr inbounds ([27 x i8], [27 x i8]* @__PRETTY_FUNCTION__._ZNK6String5derefEv, i64 0, i64 0)) #14, !dbg !4279
  unreachable, !dbg !4279

86:                                               ; preds = %81
  call void @llvm.dbg.value(metadata i32* %82, metadata !4258, metadata !DIExpression()) #12, !dbg !4280
  %87 = load volatile i32, i32* %82, align 4, !dbg !4282, !tbaa !3251
  %88 = add i32 %87, -1, !dbg !4282
  store volatile i32 %88, i32* %82, align 4, !dbg !4282, !tbaa !3251
  %89 = icmp eq i32 %88, 0, !dbg !4283
  br i1 %89, label %90, label %91, !dbg !4284

90:                                               ; preds = %86
  invoke void @_ZN6String11delete_memoEPNS_6memo_tE(%"struct.String::memo_t"* nonnull %79)
          to label %91 unwind label %92, !dbg !4285

91:                                               ; preds = %90, %86
  store %"struct.String::memo_t"* null, %"struct.String::memo_t"** %78, align 8, !dbg !4286, !tbaa !3767
  br label %95, !dbg !4287

92:                                               ; preds = %90
  %93 = landingpad { i8*, i32 }
          catch i8* null, !dbg !4288
  %94 = extractvalue { i8*, i32 } %93, 0, !dbg !4288
  call void @__clang_call_terminate(i8* %94) #14, !dbg !4288
  unreachable, !dbg !4288

95:                                               ; preds = %77, %91
  call void @llvm.lifetime.end.p0i8(i64 24, i8* nonnull %10) #12, !dbg !4159
  call void @llvm.lifetime.end.p0i8(i64 8, i8* nonnull %9) #12, !dbg !4271
  ret void, !dbg !4271
}

declare void @_ZN4Args4findEPKciRPNS_4SlotE(%class.String* sret, %class.Args*, i8*, i32, %"struct.Args::Slot"** dereferenceable(8)) local_unnamed_addr #2

declare void @_ZN4Args9postparseEbPNS_4SlotE(%class.Args*, i1 zeroext, %"struct.Args::Slot"*) local_unnamed_addr #2

; Function Attrs: inlinehint nounwind sspstrong uwtable
define linkonce_odr dso_local i32 @_ZNK6String6lengthEv(%class.String* %0) #10 comdat align 2 !dbg !4289 {
  call void @llvm.dbg.value(metadata %class.String* %0, metadata !4291, metadata !DIExpression()), !dbg !4292
  %2 = getelementptr inbounds %class.String, %class.String* %0, i64 0, i32 0, i32 1, !dbg !4293
  %3 = load i32, i32* %2, align 8, !dbg !4293, !tbaa !3763
  ret i32 %3, !dbg !4294
}

declare i8* @_ZN4Args11simple_slotEPvm(%class.Args*, i8*, i64) local_unnamed_addr #2

; Function Attrs: noinline noreturn nounwind
define linkonce_odr hidden void @__clang_call_terminate(i8* %0) local_unnamed_addr #11 comdat {
  %2 = tail call i8* @__cxa_begin_catch(i8* %0) #12
  tail call void @_ZSt9terminatev() #14
  unreachable
}

declare i8* @__cxa_begin_catch(i8*) local_unnamed_addr

declare void @_ZSt9terminatev() local_unnamed_addr

declare void @_ZN6String11delete_memoEPNS_6memo_tE(%"struct.String::memo_t"*) local_unnamed_addr #2

; Function Attrs: noinline optnone sspstrong uwtable
define linkonce_odr dso_local void @_Z14args_base_readIiEvP4ArgsPKciRT_(%class.Args* %0, i8* %1, i32 %2, i32* dereferenceable(4) %3) local_unnamed_addr #9 comdat !dbg !4295 {
  %5 = alloca %class.Args*, align 8
  %6 = alloca i8*, align 8
  %7 = alloca i32, align 4
  %8 = alloca i32*, align 8
  store %class.Args* %0, %class.Args** %5, align 8, !tbaa !4101
  call void @llvm.dbg.declare(metadata %class.Args** %5, metadata !4297, metadata !DIExpression()), !dbg !4301
  store i8* %1, i8** %6, align 8, !tbaa !4101
  call void @llvm.dbg.declare(metadata i8** %6, metadata !4298, metadata !DIExpression()), !dbg !4302
  store i32 %2, i32* %7, align 4, !tbaa !3251
  call void @llvm.dbg.declare(metadata i32* %7, metadata !4299, metadata !DIExpression()), !dbg !4303
  store i32* %3, i32** %8, align 8, !tbaa !4101
  call void @llvm.dbg.declare(metadata i32** %8, metadata !4300, metadata !DIExpression()), !dbg !4304
  %9 = load %class.Args*, %class.Args** %5, align 8, !dbg !4305, !tbaa !4101
  %10 = load i8*, i8** %6, align 8, !dbg !4306, !tbaa !4101
  %11 = load i32, i32* %7, align 4, !dbg !4307, !tbaa !3251
  %12 = load i32*, i32** %8, align 8, !dbg !4308, !tbaa !4101
  call void @_ZN4Args9base_readIiEEvPKciRT_(%class.Args* %9, i8* %10, i32 %11, i32* dereferenceable(4) %12), !dbg !4309
  ret void, !dbg !4310
}

; Function Attrs: sspstrong uwtable
define linkonce_odr dso_local void @_ZN4Args9base_readIiEEvPKciRT_(%class.Args* %0, i8* %1, i32 %2, i32* dereferenceable(4) %3) local_unnamed_addr #0 comdat align 2 personality i8* bitcast (i32 (...)* @__gxx_personality_v0 to i8*) !dbg !4311 {
  %5 = alloca [1 x i32], align 4
  call void @llvm.dbg.declare(metadata [1 x i32]* %5, metadata !1933, metadata !DIExpression()), !dbg !4325
  %6 = alloca i64, align 8
  %7 = alloca %"struct.Args::Slot"*, align 8
  %8 = alloca %class.String, align 8
  call void @llvm.dbg.value(metadata %class.Args* %0, metadata !4316, metadata !DIExpression()), !dbg !4345
  call void @llvm.dbg.value(metadata i8* %1, metadata !4317, metadata !DIExpression()), !dbg !4345
  call void @llvm.dbg.value(metadata i32 %2, metadata !4318, metadata !DIExpression()), !dbg !4345
  call void @llvm.dbg.value(metadata i32* %3, metadata !4319, metadata !DIExpression()), !dbg !4345
  %9 = bitcast %"struct.Args::Slot"** %7 to i8*, !dbg !4346
  call void @llvm.lifetime.start.p0i8(i64 8, i8* nonnull %9) #12, !dbg !4346
  %10 = bitcast %class.String* %8 to i8*, !dbg !4347
  call void @llvm.lifetime.start.p0i8(i64 24, i8* nonnull %10) #12, !dbg !4347
  call void @llvm.dbg.declare(metadata %class.String* %8, metadata !4321, metadata !DIExpression()), !dbg !4348
  call void @llvm.dbg.value(metadata %"struct.Args::Slot"** %7, metadata !4320, metadata !DIExpression(DW_OP_deref)), !dbg !4345
  call void @_ZN4Args4findEPKciRPNS_4SlotE(%class.String* nonnull sret %8, %class.Args* %0, i8* %1, i32 %2, %"struct.Args::Slot"** nonnull dereferenceable(8) %7), !dbg !4349
  call void @llvm.dbg.value(metadata %class.String* %8, metadata !4162, metadata !DIExpression()), !dbg !4350
  %11 = getelementptr inbounds %class.String, %class.String* %8, i64 0, i32 0, i32 1, !dbg !4352
  %12 = load i32, i32* %11, align 8, !dbg !4352, !tbaa !3763
  %13 = icmp eq i32 %12, 0, !dbg !4353
  %14 = select i1 %13, { i64, i64 } zeroinitializer, { i64, i64 } { i64 ptrtoint (i32 (%class.String*)* @_ZNK6String6lengthEv to i64), i64 0 }, !dbg !4354
  %15 = extractvalue { i64, i64 } %14, 0, !dbg !4348
  %16 = icmp eq i64 %15, 0, !dbg !4348
  br i1 %16, label %77, label %17, !dbg !4347

17:                                               ; preds = %4
  call void @llvm.dbg.value(metadata i32* %3, metadata !4355, metadata !DIExpression()), !dbg !4362
  call void @llvm.dbg.value(metadata %class.Args* %0, metadata !4361, metadata !DIExpression()), !dbg !4362
  call void @llvm.dbg.value(metadata %class.Args* %0, metadata !4364, metadata !DIExpression()), !dbg !4371
  call void @llvm.dbg.value(metadata i32* %3, metadata !4370, metadata !DIExpression()), !dbg !4371
  %18 = bitcast i32* %3 to i8*, !dbg !4373
  %19 = invoke i8* @_ZN4Args11simple_slotEPvm(%class.Args* nonnull %0, i8* nonnull %18, i64 4)
          to label %20 unwind label %57, !dbg !4375

20:                                               ; preds = %17
  %21 = bitcast i8* %19 to i32*, !dbg !4376
  call void @llvm.dbg.value(metadata i32* %21, metadata !4323, metadata !DIExpression()), !dbg !4377
  %22 = icmp eq i8* %19, null, !dbg !4378
  br i1 %22, label %54, label %23, !dbg !4379

23:                                               ; preds = %20
  %24 = bitcast i64* %6 to i8*, !dbg !4380
  call void @llvm.lifetime.start.p0i8(i64 8, i8* nonnull %24), !dbg !4380
  call void @llvm.dbg.value(metadata i64 0, metadata !4340, metadata !DIExpression()), !dbg !4380
  store i64 0, i64* %6, align 8
  call void @llvm.dbg.value(metadata %class.String* %8, metadata !4341, metadata !DIExpression()), !dbg !4380
  call void @llvm.dbg.value(metadata i32* %21, metadata !4342, metadata !DIExpression()), !dbg !4380
  call void @llvm.dbg.value(metadata %class.Args* %0, metadata !4343, metadata !DIExpression()), !dbg !4380
  %25 = bitcast i64* %6 to %class.IntArg*, !dbg !4381
  %26 = bitcast %class.Args* %0 to %class.ArgContext*, !dbg !4382
  call void @llvm.dbg.value(metadata %class.IntArg* %25, metadata !4021, metadata !DIExpression()), !dbg !4383
  call void @llvm.dbg.value(metadata %class.String* %8, metadata !4022, metadata !DIExpression()), !dbg !4383
  call void @llvm.dbg.value(metadata i32* %21, metadata !4023, metadata !DIExpression()), !dbg !4383
  call void @llvm.dbg.value(metadata %class.ArgContext* %26, metadata !4024, metadata !DIExpression()), !dbg !4383
  call void @llvm.dbg.value(metadata %class.IntArg* %25, metadata !1925, metadata !DIExpression()), !dbg !4384
  call void @llvm.dbg.value(metadata %class.String* %8, metadata !1927, metadata !DIExpression()), !dbg !4384
  call void @llvm.dbg.value(metadata %class.ArgContext* %26, metadata !1929, metadata !DIExpression()), !dbg !4384
  call void @llvm.dbg.value(metadata i8 1, metadata !1930, metadata !DIExpression()), !dbg !4384
  call void @llvm.dbg.value(metadata i32 1, metadata !1931, metadata !DIExpression()), !dbg !4384
  %27 = bitcast [1 x i32]* %5 to i8*, !dbg !4385
  call void @llvm.lifetime.start.p0i8(i64 4, i8* nonnull %27) #12, !dbg !4385
  call void @llvm.dbg.value(metadata %class.String* %8, metadata !3831, metadata !DIExpression()), !dbg !4386
  %28 = getelementptr inbounds %class.String, %class.String* %8, i64 0, i32 0, i32 0, !dbg !4388
  %29 = load i8*, i8** %28, align 8, !dbg !4388, !tbaa !3758
  call void @llvm.dbg.value(metadata %class.String* %8, metadata !3838, metadata !DIExpression()), !dbg !4389
  %30 = load i32, i32* %11, align 8, !dbg !4391, !tbaa !3763
  %31 = sext i32 %30 to i64, !dbg !4392
  %32 = getelementptr inbounds i8, i8* %29, i64 %31, !dbg !4392
  %33 = getelementptr inbounds [1 x i32], [1 x i32]* %5, i64 0, i64 0, !dbg !4393
  call void @llvm.dbg.value(metadata i64* %6, metadata !4340, metadata !DIExpression(DW_OP_deref)), !dbg !4380
  %34 = invoke i8* @_ZN6IntArg5parseEPKcS1_biPji(%class.IntArg* nonnull %25, i8* %29, i8* %32, i1 zeroext true, i32 4, i32* nonnull %33, i32 1)
          to label %35 unwind label %57, !dbg !4394

35:                                               ; preds = %23
  call void @llvm.dbg.value(metadata %class.String* %8, metadata !3838, metadata !DIExpression()), !dbg !4395
  %36 = load i8*, i8** %28, align 8, !dbg !4397, !tbaa !3758
  %37 = load i32, i32* %11, align 8, !dbg !4398, !tbaa !3763
  %38 = sext i32 %37 to i64, !dbg !4399
  %39 = getelementptr inbounds i8, i8* %36, i64 %38, !dbg !4399
  %40 = icmp eq i8* %34, %39, !dbg !4400
  %41 = getelementptr inbounds %class.IntArg, %class.IntArg* %25, i64 0, i32 1, !dbg !4384
  br i1 %40, label %43, label %42, !dbg !4401

42:                                               ; preds = %35
  store i32 22, i32* %41, align 4, !dbg !4402, !tbaa !3855
  br label %45, !dbg !4403

43:                                               ; preds = %35
  %44 = load i32, i32* %41, align 4, !dbg !4404, !tbaa !3855
  switch i32 %44, label %45 [
    i32 0, label %47
    i32 34, label %47
  ], !dbg !4403

45:                                               ; preds = %43, %42
  invoke void (%class.ArgContext*, i8*, ...) @_ZNK10ArgContext5errorEPKcz(%class.ArgContext* nonnull %26, i8* getelementptr inbounds ([15 x i8], [15 x i8]* @.str.23, i64 0, i64 0))
          to label %46 unwind label %57, !dbg !4405

46:                                               ; preds = %45
  call void @llvm.lifetime.end.p0i8(i64 4, i8* nonnull %27) #12, !dbg !4406
  br label %52, !dbg !4407

47:                                               ; preds = %43, %43
  call void @llvm.dbg.value(metadata i32* %33, metadata !3863, metadata !DIExpression()), !dbg !4408
  call void @llvm.dbg.value(metadata i32* %33, metadata !3874, metadata !DIExpression()), !dbg !4410
  %48 = load i32, i32* %33, align 4, !dbg !4412, !tbaa !3251
  call void @llvm.lifetime.end.p0i8(i64 4, i8* nonnull %27) #12, !dbg !4406
  switch i32 %44, label %52 [
    i32 34, label %49
    i32 0, label %51
  ], !dbg !4413

49:                                               ; preds = %47
  %50 = sext i32 %48 to i64, !dbg !4414
  call void @llvm.dbg.value(metadata i64* %6, metadata !4340, metadata !DIExpression(DW_OP_deref)), !dbg !4380
  invoke void @_ZN6IntArg11range_errorERK10ArgContextbx(%class.IntArg* nonnull %25, %class.ArgContext* nonnull dereferenceable(32) %26, i1 zeroext true, i64 %50)
          to label %52 unwind label %57, !dbg !4415

51:                                               ; preds = %47
  store i32 %48, i32* %21, align 4, !dbg !4416, !tbaa !3251
  br label %52, !dbg !4418

52:                                               ; preds = %49, %46, %47, %51
  %53 = phi i1 [ true, %51 ], [ false, %47 ], [ false, %46 ], [ false, %49 ], !dbg !4419
  call void @llvm.lifetime.end.p0i8(i64 8, i8* nonnull %24), !dbg !4420
  br label %54, !dbg !4420

54:                                               ; preds = %52, %20
  %55 = phi i1 [ false, %20 ], [ %53, %52 ], !dbg !4377
  %56 = load %"struct.Args::Slot"*, %"struct.Args::Slot"** %7, align 8, !dbg !4421, !tbaa !4101
  call void @llvm.dbg.value(metadata %"struct.Args::Slot"* %56, metadata !4320, metadata !DIExpression()), !dbg !4345
  invoke void @_ZN4Args9postparseEbPNS_4SlotE(%class.Args* nonnull %0, i1 zeroext %55, %"struct.Args::Slot"* %56)
          to label %77 unwind label %57, !dbg !4422

57:                                               ; preds = %49, %45, %23, %17, %54
  %58 = landingpad { i8*, i32 }
          cleanup, !dbg !4423
  call void @llvm.dbg.value(metadata %class.String* %8, metadata !4239, metadata !DIExpression()) #12, !dbg !4424
  call void @llvm.dbg.value(metadata %class.String* %8, metadata !4244, metadata !DIExpression()) #12, !dbg !4426
  %59 = getelementptr inbounds %class.String, %class.String* %8, i64 0, i32 0, i32 2, !dbg !4428
  %60 = load %"struct.String::memo_t"*, %"struct.String::memo_t"** %59, align 8, !dbg !4428, !tbaa !3767
  %61 = icmp eq %"struct.String::memo_t"* %60, null, !dbg !4429
  br i1 %61, label %76, label %62, !dbg !4430

62:                                               ; preds = %57
  %63 = getelementptr inbounds %"struct.String::memo_t", %"struct.String::memo_t"* %60, i64 0, i32 0, !dbg !4431
  %64 = load volatile i32, i32* %63, align 4, !dbg !4431, !tbaa !4256
  %65 = icmp eq i32 %64, 0, !dbg !4431
  br i1 %65, label %66, label %67, !dbg !4431

66:                                               ; preds = %62
  call void @__assert_fail(i8* getelementptr inbounds ([18 x i8], [18 x i8]* @.str.27, i64 0, i64 0), i8* getelementptr inbounds ([29 x i8], [29 x i8]* @.str.28, i64 0, i64 0), i32 273, i8* getelementptr inbounds ([27 x i8], [27 x i8]* @__PRETTY_FUNCTION__._ZNK6String5derefEv, i64 0, i64 0)) #14, !dbg !4431
  unreachable, !dbg !4431

67:                                               ; preds = %62
  call void @llvm.dbg.value(metadata i32* %63, metadata !4258, metadata !DIExpression()) #12, !dbg !4432
  %68 = load volatile i32, i32* %63, align 4, !dbg !4434, !tbaa !3251
  %69 = add i32 %68, -1, !dbg !4434
  store volatile i32 %69, i32* %63, align 4, !dbg !4434, !tbaa !3251
  %70 = icmp eq i32 %69, 0, !dbg !4435
  br i1 %70, label %71, label %72, !dbg !4436

71:                                               ; preds = %67
  invoke void @_ZN6String11delete_memoEPNS_6memo_tE(%"struct.String::memo_t"* nonnull %60)
          to label %72 unwind label %73, !dbg !4437

72:                                               ; preds = %71, %67
  store %"struct.String::memo_t"* null, %"struct.String::memo_t"** %59, align 8, !dbg !4438, !tbaa !3767
  br label %76, !dbg !4439

73:                                               ; preds = %71
  %74 = landingpad { i8*, i32 }
          catch i8* null, !dbg !4440
  %75 = extractvalue { i8*, i32 } %74, 0, !dbg !4440
  call void @__clang_call_terminate(i8* %75) #14, !dbg !4440
  unreachable, !dbg !4440

76:                                               ; preds = %57, %72
  call void @llvm.lifetime.end.p0i8(i64 24, i8* nonnull %10) #12, !dbg !4347
  call void @llvm.lifetime.end.p0i8(i64 8, i8* nonnull %9) #12, !dbg !4441
  resume { i8*, i32 } %58, !dbg !4441

77:                                               ; preds = %54, %4
  call void @llvm.dbg.value(metadata %class.String* %8, metadata !4239, metadata !DIExpression()) #12, !dbg !4442
  call void @llvm.dbg.value(metadata %class.String* %8, metadata !4244, metadata !DIExpression()) #12, !dbg !4444
  %78 = getelementptr inbounds %class.String, %class.String* %8, i64 0, i32 0, i32 2, !dbg !4446
  %79 = load %"struct.String::memo_t"*, %"struct.String::memo_t"** %78, align 8, !dbg !4446, !tbaa !3767
  %80 = icmp eq %"struct.String::memo_t"* %79, null, !dbg !4447
  br i1 %80, label %95, label %81, !dbg !4448

81:                                               ; preds = %77
  %82 = getelementptr inbounds %"struct.String::memo_t", %"struct.String::memo_t"* %79, i64 0, i32 0, !dbg !4449
  %83 = load volatile i32, i32* %82, align 4, !dbg !4449, !tbaa !4256
  %84 = icmp eq i32 %83, 0, !dbg !4449
  br i1 %84, label %85, label %86, !dbg !4449

85:                                               ; preds = %81
  call void @__assert_fail(i8* getelementptr inbounds ([18 x i8], [18 x i8]* @.str.27, i64 0, i64 0), i8* getelementptr inbounds ([29 x i8], [29 x i8]* @.str.28, i64 0, i64 0), i32 273, i8* getelementptr inbounds ([27 x i8], [27 x i8]* @__PRETTY_FUNCTION__._ZNK6String5derefEv, i64 0, i64 0)) #14, !dbg !4449
  unreachable, !dbg !4449

86:                                               ; preds = %81
  call void @llvm.dbg.value(metadata i32* %82, metadata !4258, metadata !DIExpression()) #12, !dbg !4450
  %87 = load volatile i32, i32* %82, align 4, !dbg !4452, !tbaa !3251
  %88 = add i32 %87, -1, !dbg !4452
  store volatile i32 %88, i32* %82, align 4, !dbg !4452, !tbaa !3251
  %89 = icmp eq i32 %88, 0, !dbg !4453
  br i1 %89, label %90, label %91, !dbg !4454

90:                                               ; preds = %86
  invoke void @_ZN6String11delete_memoEPNS_6memo_tE(%"struct.String::memo_t"* nonnull %79)
          to label %91 unwind label %92, !dbg !4455

91:                                               ; preds = %90, %86
  store %"struct.String::memo_t"* null, %"struct.String::memo_t"** %78, align 8, !dbg !4456, !tbaa !3767
  br label %95, !dbg !4457

92:                                               ; preds = %90
  %93 = landingpad { i8*, i32 }
          catch i8* null, !dbg !4458
  %94 = extractvalue { i8*, i32 } %93, 0, !dbg !4458
  call void @__clang_call_terminate(i8* %94) #14, !dbg !4458
  unreachable, !dbg !4458

95:                                               ; preds = %77, %91
  call void @llvm.lifetime.end.p0i8(i64 24, i8* nonnull %10) #12, !dbg !4347
  call void @llvm.lifetime.end.p0i8(i64 8, i8* nonnull %9) #12, !dbg !4441
  ret void, !dbg !4441
}

; Function Attrs: noinline optnone sspstrong uwtable
define linkonce_odr dso_local void @_Z14args_base_readI15EtherAddressArgA6_hEvP4ArgsPKciT_RT0_(%class.Args* %0, i8* %1, i32 %2, i32 %3, [6 x i8]* dereferenceable(6) %4) local_unnamed_addr #9 comdat !dbg !4459 {
  %6 = alloca %class.EtherAddressArg, align 4
  %7 = alloca %class.Args*, align 8
  %8 = alloca i8*, align 8
  %9 = alloca i32, align 4
  %10 = alloca [6 x i8]*, align 8
  %11 = alloca %class.EtherAddressArg, align 4
  %12 = getelementptr inbounds %class.EtherAddressArg, %class.EtherAddressArg* %6, i32 0, i32 0
  store i32 %3, i32* %12, align 4
  store %class.Args* %0, %class.Args** %7, align 8, !tbaa !4101
  call void @llvm.dbg.declare(metadata %class.Args** %7, metadata !4461, metadata !DIExpression()), !dbg !4466
  store i8* %1, i8** %8, align 8, !tbaa !4101
  call void @llvm.dbg.declare(metadata i8** %8, metadata !4462, metadata !DIExpression()), !dbg !4467
  store i32 %2, i32* %9, align 4, !tbaa !3251
  call void @llvm.dbg.declare(metadata i32* %9, metadata !4463, metadata !DIExpression()), !dbg !4468
  call void @llvm.dbg.declare(metadata %class.EtherAddressArg* %6, metadata !4464, metadata !DIExpression()), !dbg !4469
  store [6 x i8]* %4, [6 x i8]** %10, align 8, !tbaa !4101
  call void @llvm.dbg.declare(metadata [6 x i8]** %10, metadata !4465, metadata !DIExpression()), !dbg !4470
  %13 = load %class.Args*, %class.Args** %7, align 8, !dbg !4471, !tbaa !4101
  %14 = load i8*, i8** %8, align 8, !dbg !4472, !tbaa !4101
  %15 = load i32, i32* %9, align 4, !dbg !4473, !tbaa !3251
  %16 = bitcast %class.EtherAddressArg* %11 to i8*, !dbg !4474
  %17 = bitcast %class.EtherAddressArg* %6 to i8*, !dbg !4474
  call void @llvm.memcpy.p0i8.p0i8.i64(i8* align 4 %16, i8* align 4 %17, i64 4, i1 false), !dbg !4474, !tbaa.struct !4475
  %18 = load [6 x i8]*, [6 x i8]** %10, align 8, !dbg !4476, !tbaa !4101
  %19 = getelementptr inbounds %class.EtherAddressArg, %class.EtherAddressArg* %11, i32 0, i32 0, !dbg !4477
  %20 = load i32, i32* %19, align 4, !dbg !4477
  call void @_ZN4Args9base_readI15EtherAddressArgA6_hEEvPKciT_RT0_(%class.Args* %13, i8* %14, i32 %15, i32 %20, [6 x i8]* dereferenceable(6) %18), !dbg !4477
  ret void, !dbg !4478
}

; Function Attrs: sspstrong uwtable
define linkonce_odr dso_local void @_ZN4Args9base_readI15EtherAddressArgA6_hEEvPKciT_RT0_(%class.Args* %0, i8* %1, i32 %2, i32 %3, [6 x i8]* dereferenceable(6) %4) local_unnamed_addr #0 comdat align 2 personality i8* bitcast (i32 (...)* @__gxx_personality_v0 to i8*) !dbg !4479 {
  %6 = alloca %"struct.Args::Slot"*, align 8
  %7 = alloca %class.String, align 8
  call void @llvm.dbg.value(metadata i32 %3, metadata !4487, metadata !DIExpression()), !dbg !4495
  call void @llvm.dbg.value(metadata %class.Args* %0, metadata !4484, metadata !DIExpression()), !dbg !4495
  call void @llvm.dbg.value(metadata i8* %1, metadata !4485, metadata !DIExpression()), !dbg !4495
  call void @llvm.dbg.value(metadata i32 %2, metadata !4486, metadata !DIExpression()), !dbg !4495
  call void @llvm.dbg.value(metadata [6 x i8]* %4, metadata !4488, metadata !DIExpression()), !dbg !4495
  %8 = bitcast %"struct.Args::Slot"** %6 to i8*, !dbg !4496
  call void @llvm.lifetime.start.p0i8(i64 8, i8* nonnull %8) #12, !dbg !4496
  %9 = bitcast %class.String* %7 to i8*, !dbg !4497
  call void @llvm.lifetime.start.p0i8(i64 24, i8* nonnull %9) #12, !dbg !4497
  call void @llvm.dbg.declare(metadata %class.String* %7, metadata !4490, metadata !DIExpression()), !dbg !4498
  call void @llvm.dbg.value(metadata %"struct.Args::Slot"** %6, metadata !4489, metadata !DIExpression(DW_OP_deref)), !dbg !4495
  call void @_ZN4Args4findEPKciRPNS_4SlotE(%class.String* nonnull sret %7, %class.Args* %0, i8* %1, i32 %2, %"struct.Args::Slot"** nonnull dereferenceable(8) %6), !dbg !4499
  call void @llvm.dbg.value(metadata %class.String* %7, metadata !4162, metadata !DIExpression()), !dbg !4500
  %10 = getelementptr inbounds %class.String, %class.String* %7, i64 0, i32 0, i32 1, !dbg !4502
  %11 = load i32, i32* %10, align 8, !dbg !4502, !tbaa !3763
  %12 = icmp eq i32 %11, 0, !dbg !4503
  %13 = select i1 %12, { i64, i64 } zeroinitializer, { i64, i64 } { i64 ptrtoint (i32 (%class.String*)* @_ZNK6String6lengthEv to i64), i64 0 }, !dbg !4504
  %14 = extractvalue { i64, i64 } %13, 0, !dbg !4498
  %15 = icmp eq i64 %14, 0, !dbg !4498
  br i1 %15, label %41, label %16, !dbg !4497

16:                                               ; preds = %5
  call void @llvm.dbg.value(metadata [6 x i8]* %4, metadata !4492, metadata !DIExpression()), !dbg !4505
  call void @llvm.dbg.value(metadata i32 %3, metadata !4506, metadata !DIExpression()), !dbg !4519
  call void @llvm.dbg.value(metadata %class.String* %7, metadata !4516, metadata !DIExpression()), !dbg !4519
  call void @llvm.dbg.value(metadata [6 x i8]* %4, metadata !4517, metadata !DIExpression()), !dbg !4519
  call void @llvm.dbg.value(metadata %class.Args* %0, metadata !4518, metadata !DIExpression()), !dbg !4519
  call void @llvm.dbg.value(metadata %class.EtherAddressArg* undef, metadata !4521, metadata !DIExpression()), !dbg !4528
  call void @llvm.dbg.value(metadata %class.String* %7, metadata !4524, metadata !DIExpression()), !dbg !4528
  call void @llvm.dbg.value(metadata [6 x i8]* %4, metadata !4525, metadata !DIExpression()), !dbg !4528
  call void @llvm.dbg.value(metadata %class.Args* %0, metadata !4526, metadata !DIExpression()), !dbg !4528
  %17 = bitcast [6 x i8]* %4 to %class.EtherAddress*, !dbg !4530
  call void @llvm.dbg.value(metadata %class.EtherAddressArg* undef, metadata !4531, metadata !DIExpression()), !dbg !4537
  call void @llvm.dbg.value(metadata %class.String* %7, metadata !4534, metadata !DIExpression()), !dbg !4537
  call void @llvm.dbg.value(metadata %class.EtherAddress* %17, metadata !4535, metadata !DIExpression()), !dbg !4537
  call void @llvm.dbg.value(metadata %class.Args* %0, metadata !4536, metadata !DIExpression()), !dbg !4537
  %18 = invoke zeroext i1 @_ZN15EtherAddressArg12direct_parseERK6StringR12EtherAddressR4Argsi(%class.String* nonnull dereferenceable(24) %7, %class.EtherAddress* nonnull dereferenceable(6) %17, %class.Args* nonnull dereferenceable(112) %0, i32 %3)
          to label %19 unwind label %21, !dbg !4539

19:                                               ; preds = %16
  %20 = load %"struct.Args::Slot"*, %"struct.Args::Slot"** %6, align 8, !dbg !4540, !tbaa !4101
  call void @llvm.dbg.value(metadata %"struct.Args::Slot"* %20, metadata !4489, metadata !DIExpression()), !dbg !4495
  invoke void @_ZN4Args9postparseEbPNS_4SlotE(%class.Args* nonnull %0, i1 zeroext %18, %"struct.Args::Slot"* %20)
          to label %41 unwind label %21, !dbg !4541

21:                                               ; preds = %16, %19
  %22 = landingpad { i8*, i32 }
          cleanup, !dbg !4542
  call void @llvm.dbg.value(metadata %class.String* %7, metadata !4239, metadata !DIExpression()) #12, !dbg !4543
  call void @llvm.dbg.value(metadata %class.String* %7, metadata !4244, metadata !DIExpression()) #12, !dbg !4545
  %23 = getelementptr inbounds %class.String, %class.String* %7, i64 0, i32 0, i32 2, !dbg !4547
  %24 = load %"struct.String::memo_t"*, %"struct.String::memo_t"** %23, align 8, !dbg !4547, !tbaa !3767
  %25 = icmp eq %"struct.String::memo_t"* %24, null, !dbg !4548
  br i1 %25, label %40, label %26, !dbg !4549

26:                                               ; preds = %21
  %27 = getelementptr inbounds %"struct.String::memo_t", %"struct.String::memo_t"* %24, i64 0, i32 0, !dbg !4550
  %28 = load volatile i32, i32* %27, align 4, !dbg !4550, !tbaa !4256
  %29 = icmp eq i32 %28, 0, !dbg !4550
  br i1 %29, label %30, label %31, !dbg !4550

30:                                               ; preds = %26
  call void @__assert_fail(i8* getelementptr inbounds ([18 x i8], [18 x i8]* @.str.27, i64 0, i64 0), i8* getelementptr inbounds ([29 x i8], [29 x i8]* @.str.28, i64 0, i64 0), i32 273, i8* getelementptr inbounds ([27 x i8], [27 x i8]* @__PRETTY_FUNCTION__._ZNK6String5derefEv, i64 0, i64 0)) #14, !dbg !4550
  unreachable, !dbg !4550

31:                                               ; preds = %26
  call void @llvm.dbg.value(metadata i32* %27, metadata !4258, metadata !DIExpression()) #12, !dbg !4551
  %32 = load volatile i32, i32* %27, align 4, !dbg !4553, !tbaa !3251
  %33 = add i32 %32, -1, !dbg !4553
  store volatile i32 %33, i32* %27, align 4, !dbg !4553, !tbaa !3251
  %34 = icmp eq i32 %33, 0, !dbg !4554
  br i1 %34, label %35, label %36, !dbg !4555

35:                                               ; preds = %31
  invoke void @_ZN6String11delete_memoEPNS_6memo_tE(%"struct.String::memo_t"* nonnull %24)
          to label %36 unwind label %37, !dbg !4556

36:                                               ; preds = %35, %31
  store %"struct.String::memo_t"* null, %"struct.String::memo_t"** %23, align 8, !dbg !4557, !tbaa !3767
  br label %40, !dbg !4558

37:                                               ; preds = %35
  %38 = landingpad { i8*, i32 }
          catch i8* null, !dbg !4559
  %39 = extractvalue { i8*, i32 } %38, 0, !dbg !4559
  call void @__clang_call_terminate(i8* %39) #14, !dbg !4559
  unreachable, !dbg !4559

40:                                               ; preds = %21, %36
  call void @llvm.lifetime.end.p0i8(i64 24, i8* nonnull %9) #12, !dbg !4497
  call void @llvm.lifetime.end.p0i8(i64 8, i8* nonnull %8) #12, !dbg !4560
  resume { i8*, i32 } %22, !dbg !4560

41:                                               ; preds = %19, %5
  call void @llvm.dbg.value(metadata %class.String* %7, metadata !4239, metadata !DIExpression()) #12, !dbg !4561
  call void @llvm.dbg.value(metadata %class.String* %7, metadata !4244, metadata !DIExpression()) #12, !dbg !4563
  %42 = getelementptr inbounds %class.String, %class.String* %7, i64 0, i32 0, i32 2, !dbg !4565
  %43 = load %"struct.String::memo_t"*, %"struct.String::memo_t"** %42, align 8, !dbg !4565, !tbaa !3767
  %44 = icmp eq %"struct.String::memo_t"* %43, null, !dbg !4566
  br i1 %44, label %59, label %45, !dbg !4567

45:                                               ; preds = %41
  %46 = getelementptr inbounds %"struct.String::memo_t", %"struct.String::memo_t"* %43, i64 0, i32 0, !dbg !4568
  %47 = load volatile i32, i32* %46, align 4, !dbg !4568, !tbaa !4256
  %48 = icmp eq i32 %47, 0, !dbg !4568
  br i1 %48, label %49, label %50, !dbg !4568

49:                                               ; preds = %45
  call void @__assert_fail(i8* getelementptr inbounds ([18 x i8], [18 x i8]* @.str.27, i64 0, i64 0), i8* getelementptr inbounds ([29 x i8], [29 x i8]* @.str.28, i64 0, i64 0), i32 273, i8* getelementptr inbounds ([27 x i8], [27 x i8]* @__PRETTY_FUNCTION__._ZNK6String5derefEv, i64 0, i64 0)) #14, !dbg !4568
  unreachable, !dbg !4568

50:                                               ; preds = %45
  call void @llvm.dbg.value(metadata i32* %46, metadata !4258, metadata !DIExpression()) #12, !dbg !4569
  %51 = load volatile i32, i32* %46, align 4, !dbg !4571, !tbaa !3251
  %52 = add i32 %51, -1, !dbg !4571
  store volatile i32 %52, i32* %46, align 4, !dbg !4571, !tbaa !3251
  %53 = icmp eq i32 %52, 0, !dbg !4572
  br i1 %53, label %54, label %55, !dbg !4573

54:                                               ; preds = %50
  invoke void @_ZN6String11delete_memoEPNS_6memo_tE(%"struct.String::memo_t"* nonnull %43)
          to label %55 unwind label %56, !dbg !4574

55:                                               ; preds = %54, %50
  store %"struct.String::memo_t"* null, %"struct.String::memo_t"** %42, align 8, !dbg !4575, !tbaa !3767
  br label %59, !dbg !4576

56:                                               ; preds = %54
  %57 = landingpad { i8*, i32 }
          catch i8* null, !dbg !4577
  %58 = extractvalue { i8*, i32 } %57, 0, !dbg !4577
  call void @__clang_call_terminate(i8* %58) #14, !dbg !4577
  unreachable, !dbg !4577

59:                                               ; preds = %41, %55
  call void @llvm.lifetime.end.p0i8(i64 24, i8* nonnull %9) #12, !dbg !4497
  call void @llvm.lifetime.end.p0i8(i64 8, i8* nonnull %8) #12, !dbg !4560
  ret void, !dbg !4560
}

declare zeroext i1 @_ZN15EtherAddressArg12direct_parseERK6StringR12EtherAddressR4Argsi(%class.String* dereferenceable(24), %class.EtherAddress* dereferenceable(6), %class.Args* dereferenceable(112), i32) local_unnamed_addr #2

; Function Attrs: noinline optnone sspstrong uwtable
define linkonce_odr dso_local void @_Z14args_base_readI10IP6AddressEvP4ArgsPKciRT_(%class.Args* %0, i8* %1, i32 %2, %class.IP6Address* dereferenceable(16) %3) local_unnamed_addr #9 comdat !dbg !4578 {
  %5 = alloca %class.Args*, align 8
  %6 = alloca i8*, align 8
  %7 = alloca i32, align 4
  %8 = alloca %class.IP6Address*, align 8
  store %class.Args* %0, %class.Args** %5, align 8, !tbaa !4101
  call void @llvm.dbg.declare(metadata %class.Args** %5, metadata !4580, metadata !DIExpression()), !dbg !4584
  store i8* %1, i8** %6, align 8, !tbaa !4101
  call void @llvm.dbg.declare(metadata i8** %6, metadata !4581, metadata !DIExpression()), !dbg !4585
  store i32 %2, i32* %7, align 4, !tbaa !3251
  call void @llvm.dbg.declare(metadata i32* %7, metadata !4582, metadata !DIExpression()), !dbg !4586
  store %class.IP6Address* %3, %class.IP6Address** %8, align 8, !tbaa !4101
  call void @llvm.dbg.declare(metadata %class.IP6Address** %8, metadata !4583, metadata !DIExpression()), !dbg !4587
  %9 = load %class.Args*, %class.Args** %5, align 8, !dbg !4588, !tbaa !4101
  %10 = load i8*, i8** %6, align 8, !dbg !4589, !tbaa !4101
  %11 = load i32, i32* %7, align 4, !dbg !4590, !tbaa !3251
  %12 = load %class.IP6Address*, %class.IP6Address** %8, align 8, !dbg !4591, !tbaa !4101
  call void @_ZN4Args9base_readI10IP6AddressEEvPKciRT_(%class.Args* %9, i8* %10, i32 %11, %class.IP6Address* dereferenceable(16) %12), !dbg !4592
  ret void, !dbg !4593
}

; Function Attrs: sspstrong uwtable
define linkonce_odr dso_local void @_ZN4Args9base_readI10IP6AddressEEvPKciRT_(%class.Args* %0, i8* %1, i32 %2, %class.IP6Address* dereferenceable(16) %3) local_unnamed_addr #0 comdat align 2 personality i8* bitcast (i32 (...)* @__gxx_personality_v0 to i8*) !dbg !4594 {
  %5 = alloca %"struct.Args::Slot"*, align 8
  %6 = alloca %class.String, align 8
  call void @llvm.dbg.value(metadata %class.Args* %0, metadata !4599, metadata !DIExpression()), !dbg !4608
  call void @llvm.dbg.value(metadata i8* %1, metadata !4600, metadata !DIExpression()), !dbg !4608
  call void @llvm.dbg.value(metadata i32 %2, metadata !4601, metadata !DIExpression()), !dbg !4608
  call void @llvm.dbg.value(metadata %class.IP6Address* %3, metadata !4602, metadata !DIExpression()), !dbg !4608
  %7 = bitcast %"struct.Args::Slot"** %5 to i8*, !dbg !4609
  call void @llvm.lifetime.start.p0i8(i64 8, i8* nonnull %7) #12, !dbg !4609
  %8 = bitcast %class.String* %6 to i8*, !dbg !4610
  call void @llvm.lifetime.start.p0i8(i64 24, i8* nonnull %8) #12, !dbg !4610
  call void @llvm.dbg.declare(metadata %class.String* %6, metadata !4604, metadata !DIExpression()), !dbg !4611
  call void @llvm.dbg.value(metadata %"struct.Args::Slot"** %5, metadata !4603, metadata !DIExpression(DW_OP_deref)), !dbg !4608
  call void @_ZN4Args4findEPKciRPNS_4SlotE(%class.String* nonnull sret %6, %class.Args* %0, i8* %1, i32 %2, %"struct.Args::Slot"** nonnull dereferenceable(8) %5), !dbg !4612
  call void @llvm.dbg.value(metadata %class.String* %6, metadata !4162, metadata !DIExpression()), !dbg !4613
  %9 = getelementptr inbounds %class.String, %class.String* %6, i64 0, i32 0, i32 1, !dbg !4615
  %10 = load i32, i32* %9, align 8, !dbg !4615, !tbaa !3763
  %11 = icmp eq i32 %10, 0, !dbg !4616
  %12 = select i1 %11, { i64, i64 } zeroinitializer, { i64, i64 } { i64 ptrtoint (i32 (%class.String*)* @_ZNK6String6lengthEv to i64), i64 0 }, !dbg !4617
  %13 = extractvalue { i64, i64 } %12, 0, !dbg !4611
  %14 = icmp eq i64 %13, 0, !dbg !4611
  br i1 %14, label %47, label %15, !dbg !4610

15:                                               ; preds = %4
  call void @llvm.dbg.value(metadata %class.IP6Address* %3, metadata !4618, metadata !DIExpression()), !dbg !4643
  call void @llvm.dbg.value(metadata %class.Args* %0, metadata !4642, metadata !DIExpression()), !dbg !4643
  call void @llvm.dbg.value(metadata %class.Args* %0, metadata !4645, metadata !DIExpression()), !dbg !4652
  call void @llvm.dbg.value(metadata %class.IP6Address* %3, metadata !4651, metadata !DIExpression()), !dbg !4652
  %16 = bitcast %class.IP6Address* %3 to i8*, !dbg !4654
  %17 = invoke i8* @_ZN4Args11simple_slotEPvm(%class.Args* nonnull %0, i8* nonnull %16, i64 16)
          to label %18 unwind label %27, !dbg !4656

18:                                               ; preds = %15
  call void @llvm.dbg.value(metadata i8* %17, metadata !4606, metadata !DIExpression()), !dbg !4657
  %19 = icmp eq i8* %17, null, !dbg !4658
  br i1 %19, label %24, label %20, !dbg !4659

20:                                               ; preds = %18
  %21 = bitcast i8* %17 to %class.IP6Address*, !dbg !4660
  call void @llvm.dbg.value(metadata %class.IP6Address* %21, metadata !4606, metadata !DIExpression()), !dbg !4657
  call void @llvm.dbg.value(metadata %class.String* %6, metadata !4661, metadata !DIExpression()), !dbg !4670
  call void @llvm.dbg.value(metadata %class.IP6Address* %21, metadata !4668, metadata !DIExpression()), !dbg !4670
  call void @llvm.dbg.value(metadata %class.Args* %0, metadata !4669, metadata !DIExpression()), !dbg !4670
  %22 = bitcast %class.Args* %0 to %class.ArgContext*, !dbg !4672
  %23 = invoke zeroext i1 @_ZN13IP6AddressArg5parseERK6StringR10IP6AddressRK10ArgContext(%class.String* nonnull dereferenceable(24) %6, %class.IP6Address* nonnull dereferenceable(16) %21, %class.ArgContext* nonnull dereferenceable(32) %22)
          to label %24 unwind label %27, !dbg !4673

24:                                               ; preds = %20, %18
  %25 = phi i1 [ false, %18 ], [ %23, %20 ], !dbg !4657
  %26 = load %"struct.Args::Slot"*, %"struct.Args::Slot"** %5, align 8, !dbg !4674, !tbaa !4101
  call void @llvm.dbg.value(metadata %"struct.Args::Slot"* %26, metadata !4603, metadata !DIExpression()), !dbg !4608
  invoke void @_ZN4Args9postparseEbPNS_4SlotE(%class.Args* nonnull %0, i1 zeroext %25, %"struct.Args::Slot"* %26)
          to label %47 unwind label %27, !dbg !4675

27:                                               ; preds = %20, %15, %24
  %28 = landingpad { i8*, i32 }
          cleanup, !dbg !4676
  call void @llvm.dbg.value(metadata %class.String* %6, metadata !4239, metadata !DIExpression()) #12, !dbg !4677
  call void @llvm.dbg.value(metadata %class.String* %6, metadata !4244, metadata !DIExpression()) #12, !dbg !4679
  %29 = getelementptr inbounds %class.String, %class.String* %6, i64 0, i32 0, i32 2, !dbg !4681
  %30 = load %"struct.String::memo_t"*, %"struct.String::memo_t"** %29, align 8, !dbg !4681, !tbaa !3767
  %31 = icmp eq %"struct.String::memo_t"* %30, null, !dbg !4682
  br i1 %31, label %46, label %32, !dbg !4683

32:                                               ; preds = %27
  %33 = getelementptr inbounds %"struct.String::memo_t", %"struct.String::memo_t"* %30, i64 0, i32 0, !dbg !4684
  %34 = load volatile i32, i32* %33, align 4, !dbg !4684, !tbaa !4256
  %35 = icmp eq i32 %34, 0, !dbg !4684
  br i1 %35, label %36, label %37, !dbg !4684

36:                                               ; preds = %32
  call void @__assert_fail(i8* getelementptr inbounds ([18 x i8], [18 x i8]* @.str.27, i64 0, i64 0), i8* getelementptr inbounds ([29 x i8], [29 x i8]* @.str.28, i64 0, i64 0), i32 273, i8* getelementptr inbounds ([27 x i8], [27 x i8]* @__PRETTY_FUNCTION__._ZNK6String5derefEv, i64 0, i64 0)) #14, !dbg !4684
  unreachable, !dbg !4684

37:                                               ; preds = %32
  call void @llvm.dbg.value(metadata i32* %33, metadata !4258, metadata !DIExpression()) #12, !dbg !4685
  %38 = load volatile i32, i32* %33, align 4, !dbg !4687, !tbaa !3251
  %39 = add i32 %38, -1, !dbg !4687
  store volatile i32 %39, i32* %33, align 4, !dbg !4687, !tbaa !3251
  %40 = icmp eq i32 %39, 0, !dbg !4688
  br i1 %40, label %41, label %42, !dbg !4689

41:                                               ; preds = %37
  invoke void @_ZN6String11delete_memoEPNS_6memo_tE(%"struct.String::memo_t"* nonnull %30)
          to label %42 unwind label %43, !dbg !4690

42:                                               ; preds = %41, %37
  store %"struct.String::memo_t"* null, %"struct.String::memo_t"** %29, align 8, !dbg !4691, !tbaa !3767
  br label %46, !dbg !4692

43:                                               ; preds = %41
  %44 = landingpad { i8*, i32 }
          catch i8* null, !dbg !4693
  %45 = extractvalue { i8*, i32 } %44, 0, !dbg !4693
  call void @__clang_call_terminate(i8* %45) #14, !dbg !4693
  unreachable, !dbg !4693

46:                                               ; preds = %27, %42
  call void @llvm.lifetime.end.p0i8(i64 24, i8* nonnull %8) #12, !dbg !4610
  call void @llvm.lifetime.end.p0i8(i64 8, i8* nonnull %7) #12, !dbg !4694
  resume { i8*, i32 } %28, !dbg !4694

47:                                               ; preds = %24, %4
  call void @llvm.dbg.value(metadata %class.String* %6, metadata !4239, metadata !DIExpression()) #12, !dbg !4695
  call void @llvm.dbg.value(metadata %class.String* %6, metadata !4244, metadata !DIExpression()) #12, !dbg !4697
  %48 = getelementptr inbounds %class.String, %class.String* %6, i64 0, i32 0, i32 2, !dbg !4699
  %49 = load %"struct.String::memo_t"*, %"struct.String::memo_t"** %48, align 8, !dbg !4699, !tbaa !3767
  %50 = icmp eq %"struct.String::memo_t"* %49, null, !dbg !4700
  br i1 %50, label %65, label %51, !dbg !4701

51:                                               ; preds = %47
  %52 = getelementptr inbounds %"struct.String::memo_t", %"struct.String::memo_t"* %49, i64 0, i32 0, !dbg !4702
  %53 = load volatile i32, i32* %52, align 4, !dbg !4702, !tbaa !4256
  %54 = icmp eq i32 %53, 0, !dbg !4702
  br i1 %54, label %55, label %56, !dbg !4702

55:                                               ; preds = %51
  call void @__assert_fail(i8* getelementptr inbounds ([18 x i8], [18 x i8]* @.str.27, i64 0, i64 0), i8* getelementptr inbounds ([29 x i8], [29 x i8]* @.str.28, i64 0, i64 0), i32 273, i8* getelementptr inbounds ([27 x i8], [27 x i8]* @__PRETTY_FUNCTION__._ZNK6String5derefEv, i64 0, i64 0)) #14, !dbg !4702
  unreachable, !dbg !4702

56:                                               ; preds = %51
  call void @llvm.dbg.value(metadata i32* %52, metadata !4258, metadata !DIExpression()) #12, !dbg !4703
  %57 = load volatile i32, i32* %52, align 4, !dbg !4705, !tbaa !3251
  %58 = add i32 %57, -1, !dbg !4705
  store volatile i32 %58, i32* %52, align 4, !dbg !4705, !tbaa !3251
  %59 = icmp eq i32 %58, 0, !dbg !4706
  br i1 %59, label %60, label %61, !dbg !4707

60:                                               ; preds = %56
  invoke void @_ZN6String11delete_memoEPNS_6memo_tE(%"struct.String::memo_t"* nonnull %49)
          to label %61 unwind label %62, !dbg !4708

61:                                               ; preds = %60, %56
  store %"struct.String::memo_t"* null, %"struct.String::memo_t"** %48, align 8, !dbg !4709, !tbaa !3767
  br label %65, !dbg !4710

62:                                               ; preds = %60
  %63 = landingpad { i8*, i32 }
          catch i8* null, !dbg !4711
  %64 = extractvalue { i8*, i32 } %63, 0, !dbg !4711
  call void @__clang_call_terminate(i8* %64) #14, !dbg !4711
  unreachable, !dbg !4711

65:                                               ; preds = %47, %61
  call void @llvm.lifetime.end.p0i8(i64 24, i8* nonnull %8) #12, !dbg !4610
  call void @llvm.lifetime.end.p0i8(i64 8, i8* nonnull %7) #12, !dbg !4694
  ret void, !dbg !4694
}

declare zeroext i1 @_ZN13IP6AddressArg5parseERK6StringR10IP6AddressRK10ArgContext(%class.String* dereferenceable(24), %class.IP6Address* dereferenceable(16), %class.ArgContext* dereferenceable(32)) local_unnamed_addr #2

; Function Attrs: noinline optnone sspstrong uwtable
define linkonce_odr dso_local void @_Z14args_base_readI9IPPortArgtEvP4ArgsPKciT_RT0_(%class.Args* %0, i8* %1, i32 %2, i32 %3, i16* dereferenceable(2) %4) local_unnamed_addr #9 comdat !dbg !4712 {
  %6 = alloca %class.IPPortArg, align 4
  %7 = alloca %class.Args*, align 8
  %8 = alloca i8*, align 8
  %9 = alloca i32, align 4
  %10 = alloca i16*, align 8
  %11 = alloca %class.IPPortArg, align 4
  %12 = getelementptr inbounds %class.IPPortArg, %class.IPPortArg* %6, i32 0, i32 0
  store i32 %3, i32* %12, align 4
  store %class.Args* %0, %class.Args** %7, align 8, !tbaa !4101
  call void @llvm.dbg.declare(metadata %class.Args** %7, metadata !4714, metadata !DIExpression()), !dbg !4719
  store i8* %1, i8** %8, align 8, !tbaa !4101
  call void @llvm.dbg.declare(metadata i8** %8, metadata !4715, metadata !DIExpression()), !dbg !4720
  store i32 %2, i32* %9, align 4, !tbaa !3251
  call void @llvm.dbg.declare(metadata i32* %9, metadata !4716, metadata !DIExpression()), !dbg !4721
  call void @llvm.dbg.declare(metadata %class.IPPortArg* %6, metadata !4717, metadata !DIExpression()), !dbg !4722
  store i16* %4, i16** %10, align 8, !tbaa !4101
  call void @llvm.dbg.declare(metadata i16** %10, metadata !4718, metadata !DIExpression()), !dbg !4723
  %13 = load %class.Args*, %class.Args** %7, align 8, !dbg !4724, !tbaa !4101
  %14 = load i8*, i8** %8, align 8, !dbg !4725, !tbaa !4101
  %15 = load i32, i32* %9, align 4, !dbg !4726, !tbaa !3251
  %16 = bitcast %class.IPPortArg* %11 to i8*, !dbg !4727
  %17 = bitcast %class.IPPortArg* %6 to i8*, !dbg !4727
  call void @llvm.memcpy.p0i8.p0i8.i64(i8* align 4 %16, i8* align 4 %17, i64 4, i1 false), !dbg !4727, !tbaa.struct !4475
  %18 = load i16*, i16** %10, align 8, !dbg !4728, !tbaa !4101
  %19 = getelementptr inbounds %class.IPPortArg, %class.IPPortArg* %11, i32 0, i32 0, !dbg !4729
  %20 = load i32, i32* %19, align 4, !dbg !4729
  call void @_ZN4Args9base_readI9IPPortArgtEEvPKciT_RT0_(%class.Args* %13, i8* %14, i32 %15, i32 %20, i16* dereferenceable(2) %18), !dbg !4729
  ret void, !dbg !4730
}

; Function Attrs: sspstrong uwtable
define linkonce_odr dso_local void @_ZN4Args9base_readI9IPPortArgtEEvPKciT_RT0_(%class.Args* %0, i8* %1, i32 %2, i32 %3, i16* dereferenceable(2) %4) local_unnamed_addr #0 comdat align 2 personality i8* bitcast (i32 (...)* @__gxx_personality_v0 to i8*) !dbg !4731 {
  %6 = alloca %class.IPPortArg, align 4
  call void @llvm.dbg.declare(metadata %class.IPPortArg* %6, metadata !4746, metadata !DIExpression()), !dbg !4758
  %7 = alloca %"struct.Args::Slot"*, align 8
  %8 = alloca %class.String, align 8
  call void @llvm.dbg.value(metadata i32 %3, metadata !4739, metadata !DIExpression()), !dbg !4760
  call void @llvm.dbg.value(metadata %class.Args* %0, metadata !4736, metadata !DIExpression()), !dbg !4760
  call void @llvm.dbg.value(metadata i8* %1, metadata !4737, metadata !DIExpression()), !dbg !4760
  call void @llvm.dbg.value(metadata i32 %2, metadata !4738, metadata !DIExpression()), !dbg !4760
  call void @llvm.dbg.value(metadata i16* %4, metadata !4740, metadata !DIExpression()), !dbg !4760
  %9 = bitcast %"struct.Args::Slot"** %7 to i8*, !dbg !4761
  call void @llvm.lifetime.start.p0i8(i64 8, i8* nonnull %9) #12, !dbg !4761
  %10 = bitcast %class.String* %8 to i8*, !dbg !4762
  call void @llvm.lifetime.start.p0i8(i64 24, i8* nonnull %10) #12, !dbg !4762
  call void @llvm.dbg.declare(metadata %class.String* %8, metadata !4742, metadata !DIExpression()), !dbg !4763
  call void @llvm.dbg.value(metadata %"struct.Args::Slot"** %7, metadata !4741, metadata !DIExpression(DW_OP_deref)), !dbg !4760
  call void @_ZN4Args4findEPKciRPNS_4SlotE(%class.String* nonnull sret %8, %class.Args* %0, i8* %1, i32 %2, %"struct.Args::Slot"** nonnull dereferenceable(8) %7), !dbg !4764
  call void @llvm.dbg.value(metadata %class.String* %8, metadata !4162, metadata !DIExpression()), !dbg !4765
  %11 = getelementptr inbounds %class.String, %class.String* %8, i64 0, i32 0, i32 1, !dbg !4767
  %12 = load i32, i32* %11, align 8, !dbg !4767, !tbaa !3763
  %13 = icmp eq i32 %12, 0, !dbg !4768
  %14 = select i1 %13, { i64, i64 } zeroinitializer, { i64, i64 } { i64 ptrtoint (i32 (%class.String*)* @_ZNK6String6lengthEv to i64), i64 0 }, !dbg !4769
  %15 = extractvalue { i64, i64 } %14, 0, !dbg !4763
  %16 = icmp eq i64 %15, 0, !dbg !4763
  br i1 %16, label %52, label %17, !dbg !4762

17:                                               ; preds = %5
  call void @llvm.dbg.value(metadata i16* %4, metadata !4770, metadata !DIExpression()), !dbg !4777
  call void @llvm.dbg.value(metadata %class.Args* %0, metadata !4776, metadata !DIExpression()), !dbg !4777
  call void @llvm.dbg.value(metadata %class.Args* %0, metadata !4779, metadata !DIExpression()), !dbg !4787
  call void @llvm.dbg.value(metadata i16* %4, metadata !4786, metadata !DIExpression()), !dbg !4787
  %18 = bitcast i16* %4 to i8*, !dbg !4789
  %19 = invoke i8* @_ZN4Args11simple_slotEPvm(%class.Args* nonnull %0, i8* nonnull %18, i64 2)
          to label %20 unwind label %32, !dbg !4791

20:                                               ; preds = %17
  call void @llvm.dbg.value(metadata i8* %19, metadata !4744, metadata !DIExpression()), !dbg !4792
  %21 = icmp eq i8* %19, null, !dbg !4793
  br i1 %21, label %29, label %22, !dbg !4794

22:                                               ; preds = %20
  %23 = bitcast i8* %19 to i16*, !dbg !4795
  call void @llvm.dbg.value(metadata i16* %23, metadata !4744, metadata !DIExpression()), !dbg !4792
  %24 = bitcast %class.IPPortArg* %6 to i8*
  call void @llvm.lifetime.start.p0i8(i64 4, i8* nonnull %24)
  %25 = getelementptr inbounds %class.IPPortArg, %class.IPPortArg* %6, i64 0, i32 0
  store i32 %3, i32* %25, align 4
  call void @llvm.dbg.value(metadata %class.String* %8, metadata !4755, metadata !DIExpression()), !dbg !4796
  call void @llvm.dbg.value(metadata i16* %23, metadata !4756, metadata !DIExpression()), !dbg !4796
  call void @llvm.dbg.value(metadata %class.Args* %0, metadata !4757, metadata !DIExpression()), !dbg !4796
  %26 = bitcast %class.Args* %0 to %class.ArgContext*, !dbg !4797
  %27 = invoke zeroext i1 @_ZNK9IPPortArg5parseERK6StringRtRK10ArgContext(%class.IPPortArg* nonnull %6, %class.String* nonnull dereferenceable(24) %8, i16* nonnull dereferenceable(2) %23, %class.ArgContext* nonnull dereferenceable(32) %26)
          to label %28 unwind label %32, !dbg !4798

28:                                               ; preds = %22
  call void @llvm.lifetime.end.p0i8(i64 4, i8* nonnull %24), !dbg !4799
  br label %29, !dbg !4799

29:                                               ; preds = %28, %20
  %30 = phi i1 [ false, %20 ], [ %27, %28 ], !dbg !4792
  %31 = load %"struct.Args::Slot"*, %"struct.Args::Slot"** %7, align 8, !dbg !4800, !tbaa !4101
  call void @llvm.dbg.value(metadata %"struct.Args::Slot"* %31, metadata !4741, metadata !DIExpression()), !dbg !4760
  invoke void @_ZN4Args9postparseEbPNS_4SlotE(%class.Args* nonnull %0, i1 zeroext %30, %"struct.Args::Slot"* %31)
          to label %52 unwind label %32, !dbg !4801

32:                                               ; preds = %22, %17, %29
  %33 = landingpad { i8*, i32 }
          cleanup, !dbg !4802
  call void @llvm.dbg.value(metadata %class.String* %8, metadata !4239, metadata !DIExpression()) #12, !dbg !4803
  call void @llvm.dbg.value(metadata %class.String* %8, metadata !4244, metadata !DIExpression()) #12, !dbg !4805
  %34 = getelementptr inbounds %class.String, %class.String* %8, i64 0, i32 0, i32 2, !dbg !4807
  %35 = load %"struct.String::memo_t"*, %"struct.String::memo_t"** %34, align 8, !dbg !4807, !tbaa !3767
  %36 = icmp eq %"struct.String::memo_t"* %35, null, !dbg !4808
  br i1 %36, label %51, label %37, !dbg !4809

37:                                               ; preds = %32
  %38 = getelementptr inbounds %"struct.String::memo_t", %"struct.String::memo_t"* %35, i64 0, i32 0, !dbg !4810
  %39 = load volatile i32, i32* %38, align 4, !dbg !4810, !tbaa !4256
  %40 = icmp eq i32 %39, 0, !dbg !4810
  br i1 %40, label %41, label %42, !dbg !4810

41:                                               ; preds = %37
  call void @__assert_fail(i8* getelementptr inbounds ([18 x i8], [18 x i8]* @.str.27, i64 0, i64 0), i8* getelementptr inbounds ([29 x i8], [29 x i8]* @.str.28, i64 0, i64 0), i32 273, i8* getelementptr inbounds ([27 x i8], [27 x i8]* @__PRETTY_FUNCTION__._ZNK6String5derefEv, i64 0, i64 0)) #14, !dbg !4810
  unreachable, !dbg !4810

42:                                               ; preds = %37
  call void @llvm.dbg.value(metadata i32* %38, metadata !4258, metadata !DIExpression()) #12, !dbg !4811
  %43 = load volatile i32, i32* %38, align 4, !dbg !4813, !tbaa !3251
  %44 = add i32 %43, -1, !dbg !4813
  store volatile i32 %44, i32* %38, align 4, !dbg !4813, !tbaa !3251
  %45 = icmp eq i32 %44, 0, !dbg !4814
  br i1 %45, label %46, label %47, !dbg !4815

46:                                               ; preds = %42
  invoke void @_ZN6String11delete_memoEPNS_6memo_tE(%"struct.String::memo_t"* nonnull %35)
          to label %47 unwind label %48, !dbg !4816

47:                                               ; preds = %46, %42
  store %"struct.String::memo_t"* null, %"struct.String::memo_t"** %34, align 8, !dbg !4817, !tbaa !3767
  br label %51, !dbg !4818

48:                                               ; preds = %46
  %49 = landingpad { i8*, i32 }
          catch i8* null, !dbg !4819
  %50 = extractvalue { i8*, i32 } %49, 0, !dbg !4819
  call void @__clang_call_terminate(i8* %50) #14, !dbg !4819
  unreachable, !dbg !4819

51:                                               ; preds = %32, %47
  call void @llvm.lifetime.end.p0i8(i64 24, i8* nonnull %10) #12, !dbg !4762
  call void @llvm.lifetime.end.p0i8(i64 8, i8* nonnull %9) #12, !dbg !4820
  resume { i8*, i32 } %33, !dbg !4820

52:                                               ; preds = %29, %5
  call void @llvm.dbg.value(metadata %class.String* %8, metadata !4239, metadata !DIExpression()) #12, !dbg !4821
  call void @llvm.dbg.value(metadata %class.String* %8, metadata !4244, metadata !DIExpression()) #12, !dbg !4823
  %53 = getelementptr inbounds %class.String, %class.String* %8, i64 0, i32 0, i32 2, !dbg !4825
  %54 = load %"struct.String::memo_t"*, %"struct.String::memo_t"** %53, align 8, !dbg !4825, !tbaa !3767
  %55 = icmp eq %"struct.String::memo_t"* %54, null, !dbg !4826
  br i1 %55, label %70, label %56, !dbg !4827

56:                                               ; preds = %52
  %57 = getelementptr inbounds %"struct.String::memo_t", %"struct.String::memo_t"* %54, i64 0, i32 0, !dbg !4828
  %58 = load volatile i32, i32* %57, align 4, !dbg !4828, !tbaa !4256
  %59 = icmp eq i32 %58, 0, !dbg !4828
  br i1 %59, label %60, label %61, !dbg !4828

60:                                               ; preds = %56
  call void @__assert_fail(i8* getelementptr inbounds ([18 x i8], [18 x i8]* @.str.27, i64 0, i64 0), i8* getelementptr inbounds ([29 x i8], [29 x i8]* @.str.28, i64 0, i64 0), i32 273, i8* getelementptr inbounds ([27 x i8], [27 x i8]* @__PRETTY_FUNCTION__._ZNK6String5derefEv, i64 0, i64 0)) #14, !dbg !4828
  unreachable, !dbg !4828

61:                                               ; preds = %56
  call void @llvm.dbg.value(metadata i32* %57, metadata !4258, metadata !DIExpression()) #12, !dbg !4829
  %62 = load volatile i32, i32* %57, align 4, !dbg !4831, !tbaa !3251
  %63 = add i32 %62, -1, !dbg !4831
  store volatile i32 %63, i32* %57, align 4, !dbg !4831, !tbaa !3251
  %64 = icmp eq i32 %63, 0, !dbg !4832
  br i1 %64, label %65, label %66, !dbg !4833

65:                                               ; preds = %61
  invoke void @_ZN6String11delete_memoEPNS_6memo_tE(%"struct.String::memo_t"* nonnull %54)
          to label %66 unwind label %67, !dbg !4834

66:                                               ; preds = %65, %61
  store %"struct.String::memo_t"* null, %"struct.String::memo_t"** %53, align 8, !dbg !4835, !tbaa !3767
  br label %70, !dbg !4836

67:                                               ; preds = %65
  %68 = landingpad { i8*, i32 }
          catch i8* null, !dbg !4837
  %69 = extractvalue { i8*, i32 } %68, 0, !dbg !4837
  call void @__clang_call_terminate(i8* %69) #14, !dbg !4837
  unreachable, !dbg !4837

70:                                               ; preds = %52, %66
  call void @llvm.lifetime.end.p0i8(i64 24, i8* nonnull %10) #12, !dbg !4762
  call void @llvm.lifetime.end.p0i8(i64 8, i8* nonnull %9) #12, !dbg !4820
  ret void, !dbg !4820
}

declare zeroext i1 @_ZNK9IPPortArg5parseERK6StringRtRK10ArgContext(%class.IPPortArg*, %class.String* dereferenceable(24), i16* dereferenceable(2), %class.ArgContext* dereferenceable(32)) local_unnamed_addr #2

; Function Attrs: noinline optnone sspstrong uwtable
define linkonce_odr dso_local void @_Z14args_base_readIbEvP4ArgsPKciRT_(%class.Args* %0, i8* %1, i32 %2, i8* dereferenceable(1) %3) local_unnamed_addr #9 comdat !dbg !4838 {
  %5 = alloca %class.Args*, align 8
  %6 = alloca i8*, align 8
  %7 = alloca i32, align 4
  %8 = alloca i8*, align 8
  store %class.Args* %0, %class.Args** %5, align 8, !tbaa !4101
  call void @llvm.dbg.declare(metadata %class.Args** %5, metadata !4840, metadata !DIExpression()), !dbg !4844
  store i8* %1, i8** %6, align 8, !tbaa !4101
  call void @llvm.dbg.declare(metadata i8** %6, metadata !4841, metadata !DIExpression()), !dbg !4845
  store i32 %2, i32* %7, align 4, !tbaa !3251
  call void @llvm.dbg.declare(metadata i32* %7, metadata !4842, metadata !DIExpression()), !dbg !4846
  store i8* %3, i8** %8, align 8, !tbaa !4101
  call void @llvm.dbg.declare(metadata i8** %8, metadata !4843, metadata !DIExpression()), !dbg !4847
  %9 = load %class.Args*, %class.Args** %5, align 8, !dbg !4848, !tbaa !4101
  %10 = load i8*, i8** %6, align 8, !dbg !4849, !tbaa !4101
  %11 = load i32, i32* %7, align 4, !dbg !4850, !tbaa !3251
  %12 = load i8*, i8** %8, align 8, !dbg !4851, !tbaa !4101
  call void @_ZN4Args9base_readIbEEvPKciRT_(%class.Args* %9, i8* %10, i32 %11, i8* dereferenceable(1) %12), !dbg !4852
  ret void, !dbg !4853
}

; Function Attrs: sspstrong uwtable
define linkonce_odr dso_local void @_ZN4Args9base_readIbEEvPKciRT_(%class.Args* %0, i8* %1, i32 %2, i8* dereferenceable(1) %3) local_unnamed_addr #0 comdat align 2 personality i8* bitcast (i32 (...)* @__gxx_personality_v0 to i8*) !dbg !4854 {
  %5 = alloca %"struct.Args::Slot"*, align 8
  %6 = alloca %class.String, align 8
  call void @llvm.dbg.value(metadata %class.Args* %0, metadata !4859, metadata !DIExpression()), !dbg !4868
  call void @llvm.dbg.value(metadata i8* %1, metadata !4860, metadata !DIExpression()), !dbg !4868
  call void @llvm.dbg.value(metadata i32 %2, metadata !4861, metadata !DIExpression()), !dbg !4868
  call void @llvm.dbg.value(metadata i8* %3, metadata !4862, metadata !DIExpression()), !dbg !4868
  %7 = bitcast %"struct.Args::Slot"** %5 to i8*, !dbg !4869
  call void @llvm.lifetime.start.p0i8(i64 8, i8* nonnull %7) #12, !dbg !4869
  %8 = bitcast %class.String* %6 to i8*, !dbg !4870
  call void @llvm.lifetime.start.p0i8(i64 24, i8* nonnull %8) #12, !dbg !4870
  call void @llvm.dbg.declare(metadata %class.String* %6, metadata !4864, metadata !DIExpression()), !dbg !4871
  call void @llvm.dbg.value(metadata %"struct.Args::Slot"** %5, metadata !4863, metadata !DIExpression(DW_OP_deref)), !dbg !4868
  call void @_ZN4Args4findEPKciRPNS_4SlotE(%class.String* nonnull sret %6, %class.Args* %0, i8* %1, i32 %2, %"struct.Args::Slot"** nonnull dereferenceable(8) %5), !dbg !4872
  call void @llvm.dbg.value(metadata %class.String* %6, metadata !4162, metadata !DIExpression()), !dbg !4873
  %9 = getelementptr inbounds %class.String, %class.String* %6, i64 0, i32 0, i32 1, !dbg !4875
  %10 = load i32, i32* %9, align 8, !dbg !4875, !tbaa !3763
  %11 = icmp eq i32 %10, 0, !dbg !4876
  %12 = select i1 %11, { i64, i64 } zeroinitializer, { i64, i64 } { i64 ptrtoint (i32 (%class.String*)* @_ZNK6String6lengthEv to i64), i64 0 }, !dbg !4877
  %13 = extractvalue { i64, i64 } %12, 0, !dbg !4871
  %14 = icmp eq i64 %13, 0, !dbg !4871
  br i1 %14, label %45, label %15, !dbg !4870

15:                                               ; preds = %4
  call void @llvm.dbg.value(metadata i8* %3, metadata !4878, metadata !DIExpression()), !dbg !4900
  call void @llvm.dbg.value(metadata %class.Args* %0, metadata !4899, metadata !DIExpression()), !dbg !4900
  call void @llvm.dbg.value(metadata %class.Args* %0, metadata !4902, metadata !DIExpression()), !dbg !4909
  call void @llvm.dbg.value(metadata i8* %3, metadata !4908, metadata !DIExpression()), !dbg !4909
  %16 = invoke i8* @_ZN4Args11simple_slotEPvm(%class.Args* nonnull %0, i8* nonnull %3, i64 1)
          to label %17 unwind label %25, !dbg !4911

17:                                               ; preds = %15
  call void @llvm.dbg.value(metadata i8* %16, metadata !4866, metadata !DIExpression()), !dbg !4913
  %18 = icmp eq i8* %16, null, !dbg !4914
  br i1 %18, label %22, label %19, !dbg !4915

19:                                               ; preds = %17
  call void @llvm.dbg.value(metadata %class.String* %6, metadata !4916, metadata !DIExpression()), !dbg !4925
  call void @llvm.dbg.value(metadata i8* %16, metadata !4923, metadata !DIExpression()), !dbg !4925
  call void @llvm.dbg.value(metadata %class.Args* %0, metadata !4924, metadata !DIExpression()), !dbg !4925
  %20 = bitcast %class.Args* %0 to %class.ArgContext*, !dbg !4927
  %21 = invoke zeroext i1 @_ZN7BoolArg5parseERK6StringRbRK10ArgContext(%class.String* nonnull dereferenceable(24) %6, i8* nonnull dereferenceable(1) %16, %class.ArgContext* nonnull dereferenceable(32) %20)
          to label %22 unwind label %25, !dbg !4928

22:                                               ; preds = %19, %17
  %23 = phi i1 [ false, %17 ], [ %21, %19 ], !dbg !4913
  %24 = load %"struct.Args::Slot"*, %"struct.Args::Slot"** %5, align 8, !dbg !4929, !tbaa !4101
  call void @llvm.dbg.value(metadata %"struct.Args::Slot"* %24, metadata !4863, metadata !DIExpression()), !dbg !4868
  invoke void @_ZN4Args9postparseEbPNS_4SlotE(%class.Args* nonnull %0, i1 zeroext %23, %"struct.Args::Slot"* %24)
          to label %45 unwind label %25, !dbg !4930

25:                                               ; preds = %19, %15, %22
  %26 = landingpad { i8*, i32 }
          cleanup, !dbg !4931
  call void @llvm.dbg.value(metadata %class.String* %6, metadata !4239, metadata !DIExpression()) #12, !dbg !4932
  call void @llvm.dbg.value(metadata %class.String* %6, metadata !4244, metadata !DIExpression()) #12, !dbg !4934
  %27 = getelementptr inbounds %class.String, %class.String* %6, i64 0, i32 0, i32 2, !dbg !4936
  %28 = load %"struct.String::memo_t"*, %"struct.String::memo_t"** %27, align 8, !dbg !4936, !tbaa !3767
  %29 = icmp eq %"struct.String::memo_t"* %28, null, !dbg !4937
  br i1 %29, label %44, label %30, !dbg !4938

30:                                               ; preds = %25
  %31 = getelementptr inbounds %"struct.String::memo_t", %"struct.String::memo_t"* %28, i64 0, i32 0, !dbg !4939
  %32 = load volatile i32, i32* %31, align 4, !dbg !4939, !tbaa !4256
  %33 = icmp eq i32 %32, 0, !dbg !4939
  br i1 %33, label %34, label %35, !dbg !4939

34:                                               ; preds = %30
  call void @__assert_fail(i8* getelementptr inbounds ([18 x i8], [18 x i8]* @.str.27, i64 0, i64 0), i8* getelementptr inbounds ([29 x i8], [29 x i8]* @.str.28, i64 0, i64 0), i32 273, i8* getelementptr inbounds ([27 x i8], [27 x i8]* @__PRETTY_FUNCTION__._ZNK6String5derefEv, i64 0, i64 0)) #14, !dbg !4939
  unreachable, !dbg !4939

35:                                               ; preds = %30
  call void @llvm.dbg.value(metadata i32* %31, metadata !4258, metadata !DIExpression()) #12, !dbg !4940
  %36 = load volatile i32, i32* %31, align 4, !dbg !4942, !tbaa !3251
  %37 = add i32 %36, -1, !dbg !4942
  store volatile i32 %37, i32* %31, align 4, !dbg !4942, !tbaa !3251
  %38 = icmp eq i32 %37, 0, !dbg !4943
  br i1 %38, label %39, label %40, !dbg !4944

39:                                               ; preds = %35
  invoke void @_ZN6String11delete_memoEPNS_6memo_tE(%"struct.String::memo_t"* nonnull %28)
          to label %40 unwind label %41, !dbg !4945

40:                                               ; preds = %39, %35
  store %"struct.String::memo_t"* null, %"struct.String::memo_t"** %27, align 8, !dbg !4946, !tbaa !3767
  br label %44, !dbg !4947

41:                                               ; preds = %39
  %42 = landingpad { i8*, i32 }
          catch i8* null, !dbg !4948
  %43 = extractvalue { i8*, i32 } %42, 0, !dbg !4948
  call void @__clang_call_terminate(i8* %43) #14, !dbg !4948
  unreachable, !dbg !4948

44:                                               ; preds = %25, %40
  call void @llvm.lifetime.end.p0i8(i64 24, i8* nonnull %8) #12, !dbg !4870
  call void @llvm.lifetime.end.p0i8(i64 8, i8* nonnull %7) #12, !dbg !4949
  resume { i8*, i32 } %26, !dbg !4949

45:                                               ; preds = %22, %4
  call void @llvm.dbg.value(metadata %class.String* %6, metadata !4239, metadata !DIExpression()) #12, !dbg !4950
  call void @llvm.dbg.value(metadata %class.String* %6, metadata !4244, metadata !DIExpression()) #12, !dbg !4952
  %46 = getelementptr inbounds %class.String, %class.String* %6, i64 0, i32 0, i32 2, !dbg !4954
  %47 = load %"struct.String::memo_t"*, %"struct.String::memo_t"** %46, align 8, !dbg !4954, !tbaa !3767
  %48 = icmp eq %"struct.String::memo_t"* %47, null, !dbg !4955
  br i1 %48, label %63, label %49, !dbg !4956

49:                                               ; preds = %45
  %50 = getelementptr inbounds %"struct.String::memo_t", %"struct.String::memo_t"* %47, i64 0, i32 0, !dbg !4957
  %51 = load volatile i32, i32* %50, align 4, !dbg !4957, !tbaa !4256
  %52 = icmp eq i32 %51, 0, !dbg !4957
  br i1 %52, label %53, label %54, !dbg !4957

53:                                               ; preds = %49
  call void @__assert_fail(i8* getelementptr inbounds ([18 x i8], [18 x i8]* @.str.27, i64 0, i64 0), i8* getelementptr inbounds ([29 x i8], [29 x i8]* @.str.28, i64 0, i64 0), i32 273, i8* getelementptr inbounds ([27 x i8], [27 x i8]* @__PRETTY_FUNCTION__._ZNK6String5derefEv, i64 0, i64 0)) #14, !dbg !4957
  unreachable, !dbg !4957

54:                                               ; preds = %49
  call void @llvm.dbg.value(metadata i32* %50, metadata !4258, metadata !DIExpression()) #12, !dbg !4958
  %55 = load volatile i32, i32* %50, align 4, !dbg !4960, !tbaa !3251
  %56 = add i32 %55, -1, !dbg !4960
  store volatile i32 %56, i32* %50, align 4, !dbg !4960, !tbaa !3251
  %57 = icmp eq i32 %56, 0, !dbg !4961
  br i1 %57, label %58, label %59, !dbg !4962

58:                                               ; preds = %54
  invoke void @_ZN6String11delete_memoEPNS_6memo_tE(%"struct.String::memo_t"* nonnull %47)
          to label %59 unwind label %60, !dbg !4963

59:                                               ; preds = %58, %54
  store %"struct.String::memo_t"* null, %"struct.String::memo_t"** %46, align 8, !dbg !4964, !tbaa !3767
  br label %63, !dbg !4965

60:                                               ; preds = %58
  %61 = landingpad { i8*, i32 }
          catch i8* null, !dbg !4966
  %62 = extractvalue { i8*, i32 } %61, 0, !dbg !4966
  call void @__clang_call_terminate(i8* %62) #14, !dbg !4966
  unreachable, !dbg !4966

63:                                               ; preds = %45, %59
  call void @llvm.lifetime.end.p0i8(i64 24, i8* nonnull %8) #12, !dbg !4870
  call void @llvm.lifetime.end.p0i8(i64 8, i8* nonnull %7) #12, !dbg !4949
  ret void, !dbg !4949
}

; Function Attrs: nounwind readnone speculatable willreturn
declare void @llvm.dbg.value(metadata, metadata, metadata) #1

; Function Attrs: nounwind readnone speculatable willreturn
declare i16 @llvm.bswap.i16(i16) #1

attributes #0 = { sspstrong uwtable "correctly-rounded-divide-sqrt-fp-math"="false" "disable-tail-calls"="false" "frame-pointer"="none" "less-precise-fpmad"="false" "min-legal-vector-width"="0" "no-infs-fp-math"="false" "no-jump-tables"="false" "no-nans-fp-math"="false" "no-signed-zeros-fp-math"="false" "no-trapping-math"="false" "stack-protector-buffer-size"="8" "target-cpu"="x86-64" "target-features"="+cx8,+fxsr,+mmx,+sse,+sse2,+x87" "unsafe-fp-math"="false" "use-soft-float"="false" }
attributes #1 = { nounwind readnone speculatable willreturn }
attributes #2 = { "correctly-rounded-divide-sqrt-fp-math"="false" "disable-tail-calls"="false" "frame-pointer"="none" "less-precise-fpmad"="false" "no-infs-fp-math"="false" "no-nans-fp-math"="false" "no-signed-zeros-fp-math"="false" "no-trapping-math"="false" "stack-protector-buffer-size"="8" "target-cpu"="x86-64" "target-features"="+cx8,+fxsr,+mmx,+sse,+sse2,+x87" "unsafe-fp-math"="false" "use-soft-float"="false" }
attributes #3 = { nounwind "correctly-rounded-divide-sqrt-fp-math"="false" "disable-tail-calls"="false" "frame-pointer"="none" "less-precise-fpmad"="false" "no-infs-fp-math"="false" "no-nans-fp-math"="false" "no-signed-zeros-fp-math"="false" "no-trapping-math"="false" "stack-protector-buffer-size"="8" "target-cpu"="x86-64" "target-features"="+cx8,+fxsr,+mmx,+sse,+sse2,+x87" "unsafe-fp-math"="false" "use-soft-float"="false" }
attributes #4 = { nounwind sspstrong uwtable "correctly-rounded-divide-sqrt-fp-math"="false" "disable-tail-calls"="false" "frame-pointer"="none" "less-precise-fpmad"="false" "min-legal-vector-width"="0" "no-infs-fp-math"="false" "no-jump-tables"="false" "no-nans-fp-math"="false" "no-signed-zeros-fp-math"="false" "no-trapping-math"="false" "stack-protector-buffer-size"="8" "target-cpu"="x86-64" "target-features"="+cx8,+fxsr,+mmx,+sse,+sse2,+x87" "unsafe-fp-math"="false" "use-soft-float"="false" }
attributes #5 = { nobuiltin nounwind "correctly-rounded-divide-sqrt-fp-math"="false" "disable-tail-calls"="false" "frame-pointer"="none" "less-precise-fpmad"="false" "no-infs-fp-math"="false" "no-nans-fp-math"="false" "no-signed-zeros-fp-math"="false" "no-trapping-math"="false" "stack-protector-buffer-size"="8" "target-cpu"="x86-64" "target-features"="+cx8,+fxsr,+mmx,+sse,+sse2,+x87" "unsafe-fp-math"="false" "use-soft-float"="false" }
attributes #6 = { argmemonly nounwind willreturn }
attributes #7 = { nofree norecurse nounwind sspstrong uwtable writeonly "correctly-rounded-divide-sqrt-fp-math"="false" "disable-tail-calls"="false" "frame-pointer"="none" "less-precise-fpmad"="false" "min-legal-vector-width"="0" "no-infs-fp-math"="false" "no-jump-tables"="false" "no-nans-fp-math"="false" "no-signed-zeros-fp-math"="false" "no-trapping-math"="false" "stack-protector-buffer-size"="8" "target-cpu"="x86-64" "target-features"="+cx8,+fxsr,+mmx,+sse,+sse2,+x87" "unsafe-fp-math"="false" "use-soft-float"="false" }
attributes #8 = { noreturn nounwind "correctly-rounded-divide-sqrt-fp-math"="false" "disable-tail-calls"="false" "frame-pointer"="none" "less-precise-fpmad"="false" "no-infs-fp-math"="false" "no-nans-fp-math"="false" "no-signed-zeros-fp-math"="false" "no-trapping-math"="false" "stack-protector-buffer-size"="8" "target-cpu"="x86-64" "target-features"="+cx8,+fxsr,+mmx,+sse,+sse2,+x87" "unsafe-fp-math"="false" "use-soft-float"="false" }
attributes #9 = { noinline optnone sspstrong uwtable "correctly-rounded-divide-sqrt-fp-math"="false" "disable-tail-calls"="false" "frame-pointer"="none" "less-precise-fpmad"="false" "min-legal-vector-width"="0" "no-infs-fp-math"="false" "no-jump-tables"="false" "no-nans-fp-math"="false" "no-signed-zeros-fp-math"="false" "no-trapping-math"="false" "stack-protector-buffer-size"="8" "target-cpu"="x86-64" "target-features"="+cx8,+fxsr,+mmx,+sse,+sse2,+x87" "unsafe-fp-math"="false" "use-soft-float"="false" }
attributes #10 = { inlinehint nounwind sspstrong uwtable "correctly-rounded-divide-sqrt-fp-math"="false" "disable-tail-calls"="false" "frame-pointer"="none" "less-precise-fpmad"="false" "min-legal-vector-width"="0" "no-infs-fp-math"="false" "no-jump-tables"="false" "no-nans-fp-math"="false" "no-signed-zeros-fp-math"="false" "no-trapping-math"="false" "stack-protector-buffer-size"="8" "target-cpu"="x86-64" "target-features"="+cx8,+fxsr,+mmx,+sse,+sse2,+x87" "unsafe-fp-math"="false" "use-soft-float"="false" }
attributes #11 = { noinline noreturn nounwind }
attributes #12 = { nounwind }
attributes #13 = { builtin nounwind }
attributes #14 = { noreturn nounwind }

!llvm.dbg.cu = !{!2}
!llvm.module.flags = !{!2938, !2939, !2940, !2941, !2942}
!llvm.ident = !{!2943}

!0 = !DIGlobalVariableExpression(var: !1, expr: !DIExpression())
!1 = distinct !DIGlobalVariable(name: "NO_LIMIT", linkageName: "_ZN16FastUDPSourceIP68NO_LIMITE", scope: !2, file: !3, line: 25, type: !1660, isLocal: false, isDefinition: true, declaration: !1659)
!2 = distinct !DICompileUnit(language: DW_LANG_C_plus_plus_14, file: !3, producer: "clang version 10.0.0 ", isOptimized: true, runtimeVersion: 0, emissionKind: FullDebug, enums: !4, retainedTypes: !1397, globals: !2317, imports: !2318, splitDebugInlining: false, nameTableKind: None)
!3 = !DIFile(filename: "../elements/tcpudp/fastudpsrcip6.cc", directory: "/home/john/projects/click/ir-dir")
!4 = !{!5, !906, !1211, !1223, !1332, !1370, !1374, !1377, !1388}
!5 = !DICompositeType(tag: DW_TAG_enumeration_type, name: "PacketType", scope: !7, file: !6, line: 368, baseType: !18, size: 32, elements: !1203, identifier: "_ZTSN6Packet10PacketTypeE")
!6 = !DIFile(filename: "../dummy_inc/click/packet.hh", directory: "/home/john/projects/click/ir-dir")
!7 = distinct !DICompositeType(tag: DW_TAG_class_type, name: "Packet", file: !6, line: 35, size: 1344, flags: DIFlagTypePassByReference | DIFlagNonTrivial, elements: !8, identifier: "_ZTS6Packet")
!8 = !{!9, !79, !81, !84, !85, !86, !87, !130, !138, !139, !275, !278, !281, !284, !287, !291, !295, !298, !301, !306, !307, !310, !311, !312, !313, !314, !315, !318, !321, !324, !325, !328, !329, !332, !335, !336, !337, !338, !341, !344, !347, !350, !351, !352, !355, !356, !357, !360, !361, !362, !363, !364, !365, !366, !367, !368, !369, !370, !371, !372, !373, !374, !375, !380, !383, !388, !389, !390, !393, !398, !399, !400, !403, !406, !411, !416, !421, !426, !430, !947, !951, !954, !960, !963, !966, !969, !972, !976, !979, !980, !981, !982, !1072, !1075, !1076, !1079, !1083, !1088, !1092, !1097, !1100, !1103, !1106, !1109, !1115, !1118, !1121, !1124, !1127, !1130, !1133, !1136, !1139, !1142, !1143, !1146, !1150, !1151, !1152, !1153, !1154, !1155, !1156, !1157, !1158, !1159, !1160, !1161, !1162, !1163, !1164, !1165, !1166, !1167, !1168, !1169, !1170, !1171, !1172, !1173, !1174, !1175, !1176, !1177, !1178, !1179, !1180, !1181, !1182, !1183, !1184, !1187, !1188, !1192, !1195, !1198, !1201, !1202}
!9 = !DIDerivedType(tag: DW_TAG_member, name: "_use_count", scope: !7, file: !6, line: 731, baseType: !10, size: 32)
!10 = distinct !DICompositeType(tag: DW_TAG_class_type, name: "atomic_uint32_t", file: !11, line: 52, size: 32, flags: DIFlagTypePassByValue, elements: !12, identifier: "_ZTS15atomic_uint32_t")
!11 = !DIFile(filename: "../dummy_inc/click/atomic.hh", directory: "/home/john/projects/click/ir-dir")
!12 = !{!13, !19, !24, !25, !30, !37, !38, !39, !40, !43, !46, !47, !48, !51, !52, !56, !59, !62, !67, !70, !73, !76}
!13 = !DIDerivedType(tag: DW_TAG_member, name: "_val", scope: !10, file: !11, line: 91, baseType: !14, size: 32)
!14 = !DIDerivedType(tag: DW_TAG_typedef, name: "uint32_t", file: !15, line: 26, baseType: !16)
!15 = !DIFile(filename: "/usr/include/bits/stdint-uintn.h", directory: "")
!16 = !DIDerivedType(tag: DW_TAG_typedef, name: "__uint32_t", file: !17, line: 42, baseType: !18)
!17 = !DIFile(filename: "/usr/include/bits/types.h", directory: "")
!18 = !DIBasicType(name: "unsigned int", size: 32, encoding: DW_ATE_unsigned)
!19 = !DISubprogram(name: "value", linkageName: "_ZNK15atomic_uint32_t5valueEv", scope: !10, file: !11, line: 57, type: !20, scopeLine: 57, flags: DIFlagPublic | DIFlagPrototyped, spFlags: DISPFlagOptimized)
!20 = !DISubroutineType(types: !21)
!21 = !{!14, !22}
!22 = !DIDerivedType(tag: DW_TAG_pointer_type, baseType: !23, size: 64, flags: DIFlagArtificial | DIFlagObjectPointer)
!23 = !DIDerivedType(tag: DW_TAG_const_type, baseType: !10)
!24 = !DISubprogram(name: "operator unsigned int", linkageName: "_ZNK15atomic_uint32_tcvjEv", scope: !10, file: !11, line: 58, type: !20, scopeLine: 58, flags: DIFlagPublic | DIFlagPrototyped, spFlags: DISPFlagOptimized)
!25 = !DISubprogram(name: "operator=", linkageName: "_ZN15atomic_uint32_taSEj", scope: !10, file: !11, line: 60, type: !26, scopeLine: 60, flags: DIFlagPublic | DIFlagPrototyped, spFlags: DISPFlagOptimized)
!26 = !DISubroutineType(types: !27)
!27 = !{!28, !29, !14}
!28 = !DIDerivedType(tag: DW_TAG_reference_type, baseType: !10, size: 64)
!29 = !DIDerivedType(tag: DW_TAG_pointer_type, baseType: !10, size: 64, flags: DIFlagArtificial | DIFlagObjectPointer)
!30 = !DISubprogram(name: "operator+=", linkageName: "_ZN15atomic_uint32_tpLEi", scope: !10, file: !11, line: 62, type: !31, scopeLine: 62, flags: DIFlagPublic | DIFlagPrototyped, spFlags: DISPFlagOptimized)
!31 = !DISubroutineType(types: !32)
!32 = !{!28, !29, !33}
!33 = !DIDerivedType(tag: DW_TAG_typedef, name: "int32_t", file: !34, line: 26, baseType: !35)
!34 = !DIFile(filename: "/usr/include/bits/stdint-intn.h", directory: "")
!35 = !DIDerivedType(tag: DW_TAG_typedef, name: "__int32_t", file: !17, line: 41, baseType: !36)
!36 = !DIBasicType(name: "int", size: 32, encoding: DW_ATE_signed)
!37 = !DISubprogram(name: "operator-=", linkageName: "_ZN15atomic_uint32_tmIEi", scope: !10, file: !11, line: 63, type: !31, scopeLine: 63, flags: DIFlagPublic | DIFlagPrototyped, spFlags: DISPFlagOptimized)
!38 = !DISubprogram(name: "operator|=", linkageName: "_ZN15atomic_uint32_toREj", scope: !10, file: !11, line: 64, type: !26, scopeLine: 64, flags: DIFlagPublic | DIFlagPrototyped, spFlags: DISPFlagOptimized)
!39 = !DISubprogram(name: "operator&=", linkageName: "_ZN15atomic_uint32_taNEj", scope: !10, file: !11, line: 65, type: !26, scopeLine: 65, flags: DIFlagPublic | DIFlagPrototyped, spFlags: DISPFlagOptimized)
!40 = !DISubprogram(name: "operator++", linkageName: "_ZN15atomic_uint32_tppEv", scope: !10, file: !11, line: 67, type: !41, scopeLine: 67, flags: DIFlagPublic | DIFlagPrototyped, spFlags: DISPFlagOptimized)
!41 = !DISubroutineType(types: !42)
!42 = !{null, !29}
!43 = !DISubprogram(name: "operator++", linkageName: "_ZN15atomic_uint32_tppEi", scope: !10, file: !11, line: 68, type: !44, scopeLine: 68, flags: DIFlagPublic | DIFlagPrototyped, spFlags: DISPFlagOptimized)
!44 = !DISubroutineType(types: !45)
!45 = !{null, !29, !36}
!46 = !DISubprogram(name: "operator--", linkageName: "_ZN15atomic_uint32_tmmEv", scope: !10, file: !11, line: 69, type: !41, scopeLine: 69, flags: DIFlagPublic | DIFlagPrototyped, spFlags: DISPFlagOptimized)
!47 = !DISubprogram(name: "operator--", linkageName: "_ZN15atomic_uint32_tmmEi", scope: !10, file: !11, line: 70, type: !44, scopeLine: 70, flags: DIFlagPublic | DIFlagPrototyped, spFlags: DISPFlagOptimized)
!48 = !DISubprogram(name: "swap", linkageName: "_ZN15atomic_uint32_t4swapEj", scope: !10, file: !11, line: 72, type: !49, scopeLine: 72, flags: DIFlagPublic | DIFlagPrototyped, spFlags: DISPFlagOptimized)
!49 = !DISubroutineType(types: !50)
!50 = !{!14, !29, !14}
!51 = !DISubprogram(name: "fetch_and_add", linkageName: "_ZN15atomic_uint32_t13fetch_and_addEj", scope: !10, file: !11, line: 73, type: !49, scopeLine: 73, flags: DIFlagPublic | DIFlagPrototyped, spFlags: DISPFlagOptimized)
!52 = !DISubprogram(name: "dec_and_test", linkageName: "_ZN15atomic_uint32_t12dec_and_testEv", scope: !10, file: !11, line: 74, type: !53, scopeLine: 74, flags: DIFlagPublic | DIFlagPrototyped, spFlags: DISPFlagOptimized)
!53 = !DISubroutineType(types: !54)
!54 = !{!55, !29}
!55 = !DIBasicType(name: "bool", size: 8, encoding: DW_ATE_boolean)
!56 = !DISubprogram(name: "compare_swap", linkageName: "_ZN15atomic_uint32_t12compare_swapEjj", scope: !10, file: !11, line: 75, type: !57, scopeLine: 75, flags: DIFlagPublic | DIFlagPrototyped, spFlags: DISPFlagOptimized)
!57 = !DISubroutineType(types: !58)
!58 = !{!14, !29, !14, !14}
!59 = !DISubprogram(name: "compare_and_swap", linkageName: "_ZN15atomic_uint32_t16compare_and_swapEjj", scope: !10, file: !11, line: 76, type: !60, scopeLine: 76, flags: DIFlagPublic | DIFlagPrototyped, spFlags: DISPFlagOptimized)
!60 = !DISubroutineType(types: !61)
!61 = !{!55, !29, !14, !14}
!62 = !DISubprogram(name: "swap", linkageName: "_ZN15atomic_uint32_t4swapERVjj", scope: !10, file: !11, line: 78, type: !63, scopeLine: 78, flags: DIFlagPublic | DIFlagPrototyped | DIFlagStaticMember, spFlags: DISPFlagOptimized)
!63 = !DISubroutineType(types: !64)
!64 = !{!14, !65, !14}
!65 = !DIDerivedType(tag: DW_TAG_reference_type, baseType: !66, size: 64)
!66 = !DIDerivedType(tag: DW_TAG_volatile_type, baseType: !14)
!67 = !DISubprogram(name: "inc", linkageName: "_ZN15atomic_uint32_t3incERVj", scope: !10, file: !11, line: 79, type: !68, scopeLine: 79, flags: DIFlagPublic | DIFlagPrototyped | DIFlagStaticMember, spFlags: DISPFlagOptimized)
!68 = !DISubroutineType(types: !69)
!69 = !{null, !65}
!70 = !DISubprogram(name: "dec_and_test", linkageName: "_ZN15atomic_uint32_t12dec_and_testERVj", scope: !10, file: !11, line: 80, type: !71, scopeLine: 80, flags: DIFlagPublic | DIFlagPrototyped | DIFlagStaticMember, spFlags: DISPFlagOptimized)
!71 = !DISubroutineType(types: !72)
!72 = !{!55, !65}
!73 = !DISubprogram(name: "compare_swap", linkageName: "_ZN15atomic_uint32_t12compare_swapERVjjj", scope: !10, file: !11, line: 81, type: !74, scopeLine: 81, flags: DIFlagPublic | DIFlagPrototyped | DIFlagStaticMember, spFlags: DISPFlagOptimized)
!74 = !DISubroutineType(types: !75)
!75 = !{!14, !65, !14, !14}
!76 = !DISubprogram(name: "compare_and_swap", linkageName: "_ZN15atomic_uint32_t16compare_and_swapERVjjj", scope: !10, file: !11, line: 82, type: !77, scopeLine: 82, flags: DIFlagPublic | DIFlagPrototyped | DIFlagStaticMember, spFlags: DISPFlagOptimized)
!77 = !DISubroutineType(types: !78)
!78 = !{!55, !65, !14, !14}
!79 = !DIDerivedType(tag: DW_TAG_member, name: "_data_packet", scope: !7, file: !6, line: 732, baseType: !80, size: 64, offset: 64)
!80 = !DIDerivedType(tag: DW_TAG_pointer_type, baseType: !7, size: 64)
!81 = !DIDerivedType(tag: DW_TAG_member, name: "_head", scope: !7, file: !6, line: 734, baseType: !82, size: 64, offset: 128)
!82 = !DIDerivedType(tag: DW_TAG_pointer_type, baseType: !83, size: 64)
!83 = !DIBasicType(name: "unsigned char", size: 8, encoding: DW_ATE_unsigned_char)
!84 = !DIDerivedType(tag: DW_TAG_member, name: "_data", scope: !7, file: !6, line: 735, baseType: !82, size: 64, offset: 192)
!85 = !DIDerivedType(tag: DW_TAG_member, name: "_tail", scope: !7, file: !6, line: 736, baseType: !82, size: 64, offset: 256)
!86 = !DIDerivedType(tag: DW_TAG_member, name: "_end", scope: !7, file: !6, line: 737, baseType: !82, size: 64, offset: 320)
!87 = !DIDerivedType(tag: DW_TAG_member, name: "_aa", scope: !7, file: !6, line: 741, baseType: !88, size: 832, offset: 384)
!88 = distinct !DICompositeType(tag: DW_TAG_structure_type, name: "AllAnno", scope: !7, file: !6, line: 716, size: 832, flags: DIFlagTypePassByValue, elements: !89, identifier: "_ZTSN6Packet7AllAnnoE")
!89 = !{!90, !120, !121, !122, !123, !124, !128, !129}
!90 = !DIDerivedType(tag: DW_TAG_member, name: "cb", scope: !88, file: !6, line: 717, baseType: !91, size: 384)
!91 = distinct !DICompositeType(tag: DW_TAG_union_type, name: "Anno", scope: !7, file: !6, line: 702, size: 384, flags: DIFlagTypePassByValue, elements: !92, identifier: "_ZTSN6Packet4AnnoE")
!92 = !{!93, !98, !102, !109, !113}
!93 = !DIDerivedType(tag: DW_TAG_member, name: "c", scope: !91, file: !6, line: 703, baseType: !94, size: 384)
!94 = !DICompositeType(tag: DW_TAG_array_type, baseType: !95, size: 384, elements: !96)
!95 = !DIBasicType(name: "char", size: 8, encoding: DW_ATE_signed_char)
!96 = !{!97}
!97 = !DISubrange(count: 48)
!98 = !DIDerivedType(tag: DW_TAG_member, name: "u8", scope: !91, file: !6, line: 704, baseType: !99, size: 384)
!99 = !DICompositeType(tag: DW_TAG_array_type, baseType: !100, size: 384, elements: !96)
!100 = !DIDerivedType(tag: DW_TAG_typedef, name: "uint8_t", file: !15, line: 24, baseType: !101)
!101 = !DIDerivedType(tag: DW_TAG_typedef, name: "__uint8_t", file: !17, line: 38, baseType: !83)
!102 = !DIDerivedType(tag: DW_TAG_member, name: "u16", scope: !91, file: !6, line: 705, baseType: !103, size: 384)
!103 = !DICompositeType(tag: DW_TAG_array_type, baseType: !104, size: 384, elements: !107)
!104 = !DIDerivedType(tag: DW_TAG_typedef, name: "uint16_t", file: !15, line: 25, baseType: !105)
!105 = !DIDerivedType(tag: DW_TAG_typedef, name: "__uint16_t", file: !17, line: 40, baseType: !106)
!106 = !DIBasicType(name: "unsigned short", size: 16, encoding: DW_ATE_unsigned)
!107 = !{!108}
!108 = !DISubrange(count: 24)
!109 = !DIDerivedType(tag: DW_TAG_member, name: "u32", scope: !91, file: !6, line: 706, baseType: !110, size: 384)
!110 = !DICompositeType(tag: DW_TAG_array_type, baseType: !14, size: 384, elements: !111)
!111 = !{!112}
!112 = !DISubrange(count: 12)
!113 = !DIDerivedType(tag: DW_TAG_member, name: "u64", scope: !91, file: !6, line: 708, baseType: !114, size: 384)
!114 = !DICompositeType(tag: DW_TAG_array_type, baseType: !115, size: 384, elements: !118)
!115 = !DIDerivedType(tag: DW_TAG_typedef, name: "uint64_t", file: !15, line: 27, baseType: !116)
!116 = !DIDerivedType(tag: DW_TAG_typedef, name: "__uint64_t", file: !17, line: 45, baseType: !117)
!117 = !DIBasicType(name: "long unsigned int", size: 64, encoding: DW_ATE_unsigned)
!118 = !{!119}
!119 = !DISubrange(count: 6)
!120 = !DIDerivedType(tag: DW_TAG_member, name: "mac", scope: !88, file: !6, line: 718, baseType: !82, size: 64, offset: 384)
!121 = !DIDerivedType(tag: DW_TAG_member, name: "nh", scope: !88, file: !6, line: 719, baseType: !82, size: 64, offset: 448)
!122 = !DIDerivedType(tag: DW_TAG_member, name: "h", scope: !88, file: !6, line: 720, baseType: !82, size: 64, offset: 512)
!123 = !DIDerivedType(tag: DW_TAG_member, name: "pkt_type", scope: !88, file: !6, line: 721, baseType: !5, size: 32, offset: 576)
!124 = !DIDerivedType(tag: DW_TAG_member, name: "timestamp", scope: !88, file: !6, line: 722, baseType: !125, size: 64, offset: 608)
!125 = !DICompositeType(tag: DW_TAG_array_type, baseType: !95, size: 64, elements: !126)
!126 = !{!127}
!127 = !DISubrange(count: 8)
!128 = !DIDerivedType(tag: DW_TAG_member, name: "next", scope: !88, file: !6, line: 723, baseType: !80, size: 64, offset: 704)
!129 = !DIDerivedType(tag: DW_TAG_member, name: "prev", scope: !88, file: !6, line: 724, baseType: !80, size: 64, offset: 768)
!130 = !DIDerivedType(tag: DW_TAG_member, name: "_destructor", scope: !7, file: !6, line: 746, baseType: !131, size: 64, offset: 1216)
!131 = !DIDerivedType(tag: DW_TAG_typedef, name: "buffer_destructor_type", scope: !7, file: !6, line: 65, baseType: !132)
!132 = !DIDerivedType(tag: DW_TAG_pointer_type, baseType: !133, size: 64)
!133 = !DISubroutineType(types: !134)
!134 = !{null, !82, !135, !137}
!135 = !DIDerivedType(tag: DW_TAG_typedef, name: "size_t", file: !136, line: 46, baseType: !117)
!136 = !DIFile(filename: "/usr/lib/clang/10.0.0/include/stddef.h", directory: "")
!137 = !DIDerivedType(tag: DW_TAG_pointer_type, baseType: null, size: 64)
!138 = !DIDerivedType(tag: DW_TAG_member, name: "_destructor_argument", scope: !7, file: !6, line: 747, baseType: !137, size: 64, offset: 1280)
!139 = !DISubprogram(name: "make", linkageName: "_ZN6Packet4makeEjPKvjj", scope: !7, file: !6, line: 52, type: !140, scopeLine: 52, flags: DIFlagPublic | DIFlagPrototyped | DIFlagStaticMember, spFlags: DISPFlagOptimized)
!140 = !DISubroutineType(types: !141)
!141 = !{!142, !14, !273, !14, !14}
!142 = !DIDerivedType(tag: DW_TAG_pointer_type, baseType: !143, size: 64)
!143 = distinct !DICompositeType(tag: DW_TAG_class_type, name: "WritablePacket", file: !6, line: 778, size: 1344, flags: DIFlagTypePassByReference | DIFlagNonTrivial, elements: !144, identifier: "_ZTS14WritablePacket")
!144 = !{!145, !146, !151, !152, !153, !154, !155, !166, !167, !190, !230, !231, !236, !241, !252, !253, !257, !258, !263, !264, !267, !270}
!145 = !DIDerivedType(tag: DW_TAG_inheritance, scope: !143, baseType: !7, flags: DIFlagPublic, extraData: i32 0)
!146 = !DISubprogram(name: "data", linkageName: "_ZNK14WritablePacket4dataEv", scope: !143, file: !6, line: 780, type: !147, scopeLine: 780, flags: DIFlagPublic | DIFlagPrototyped, spFlags: DISPFlagOptimized)
!147 = !DISubroutineType(types: !148)
!148 = !{!82, !149}
!149 = !DIDerivedType(tag: DW_TAG_pointer_type, baseType: !150, size: 64, flags: DIFlagArtificial | DIFlagObjectPointer)
!150 = !DIDerivedType(tag: DW_TAG_const_type, baseType: !143)
!151 = !DISubprogram(name: "end_data", linkageName: "_ZNK14WritablePacket8end_dataEv", scope: !143, file: !6, line: 781, type: !147, scopeLine: 781, flags: DIFlagPublic | DIFlagPrototyped, spFlags: DISPFlagOptimized)
!152 = !DISubprogram(name: "buffer", linkageName: "_ZNK14WritablePacket6bufferEv", scope: !143, file: !6, line: 782, type: !147, scopeLine: 782, flags: DIFlagPublic | DIFlagPrototyped, spFlags: DISPFlagOptimized)
!153 = !DISubprogram(name: "end_buffer", linkageName: "_ZNK14WritablePacket10end_bufferEv", scope: !143, file: !6, line: 783, type: !147, scopeLine: 783, flags: DIFlagPublic | DIFlagPrototyped, spFlags: DISPFlagOptimized)
!154 = !DISubprogram(name: "mac_header", linkageName: "_ZNK14WritablePacket10mac_headerEv", scope: !143, file: !6, line: 784, type: !147, scopeLine: 784, flags: DIFlagPublic | DIFlagPrototyped, spFlags: DISPFlagOptimized)
!155 = !DISubprogram(name: "ether_header", linkageName: "_ZNK14WritablePacket12ether_headerEv", scope: !143, file: !6, line: 785, type: !156, scopeLine: 785, flags: DIFlagPublic | DIFlagPrototyped, spFlags: DISPFlagOptimized)
!156 = !DISubroutineType(types: !157)
!157 = !{!158, !149}
!158 = !DIDerivedType(tag: DW_TAG_pointer_type, baseType: !159, size: 64)
!159 = distinct !DICompositeType(tag: DW_TAG_structure_type, name: "click_ether", file: !160, line: 17, size: 112, flags: DIFlagTypePassByValue, elements: !161, identifier: "_ZTS11click_ether")
!160 = !DIFile(filename: "../dummy_inc/clicknet/ether.h", directory: "/home/john/projects/click/ir-dir")
!161 = !{!162, !164, !165}
!162 = !DIDerivedType(tag: DW_TAG_member, name: "ether_dhost", scope: !159, file: !160, line: 18, baseType: !163, size: 48)
!163 = !DICompositeType(tag: DW_TAG_array_type, baseType: !100, size: 48, elements: !118)
!164 = !DIDerivedType(tag: DW_TAG_member, name: "ether_shost", scope: !159, file: !160, line: 19, baseType: !163, size: 48, offset: 48)
!165 = !DIDerivedType(tag: DW_TAG_member, name: "ether_type", scope: !159, file: !160, line: 20, baseType: !104, size: 16, offset: 96)
!166 = !DISubprogram(name: "network_header", linkageName: "_ZNK14WritablePacket14network_headerEv", scope: !143, file: !6, line: 786, type: !147, scopeLine: 786, flags: DIFlagPublic | DIFlagPrototyped, spFlags: DISPFlagOptimized)
!167 = !DISubprogram(name: "ip_header", linkageName: "_ZNK14WritablePacket9ip_headerEv", scope: !143, file: !6, line: 787, type: !168, scopeLine: 787, flags: DIFlagPublic | DIFlagPrototyped, spFlags: DISPFlagOptimized)
!168 = !DISubroutineType(types: !169)
!169 = !{!170, !149}
!170 = !DIDerivedType(tag: DW_TAG_pointer_type, baseType: !171, size: 64)
!171 = distinct !DICompositeType(tag: DW_TAG_structure_type, name: "click_ip", file: !172, line: 23, size: 160, flags: DIFlagTypePassByValue, elements: !173, identifier: "_ZTS8click_ip")
!172 = !DIFile(filename: "../dummy_inc/clicknet/ip.h", directory: "/home/john/projects/click/ir-dir")
!173 = !{!174, !175, !176, !177, !178, !179, !180, !181, !182, !183, !189}
!174 = !DIDerivedType(tag: DW_TAG_member, name: "ip_hl", scope: !171, file: !172, line: 28, baseType: !18, size: 4, flags: DIFlagBitField, extraData: i64 0)
!175 = !DIDerivedType(tag: DW_TAG_member, name: "ip_v", scope: !171, file: !172, line: 29, baseType: !18, size: 4, offset: 4, flags: DIFlagBitField, extraData: i64 0)
!176 = !DIDerivedType(tag: DW_TAG_member, name: "ip_tos", scope: !171, file: !172, line: 33, baseType: !100, size: 8, offset: 8)
!177 = !DIDerivedType(tag: DW_TAG_member, name: "ip_len", scope: !171, file: !172, line: 40, baseType: !104, size: 16, offset: 16)
!178 = !DIDerivedType(tag: DW_TAG_member, name: "ip_id", scope: !171, file: !172, line: 41, baseType: !104, size: 16, offset: 32)
!179 = !DIDerivedType(tag: DW_TAG_member, name: "ip_off", scope: !171, file: !172, line: 42, baseType: !104, size: 16, offset: 48)
!180 = !DIDerivedType(tag: DW_TAG_member, name: "ip_ttl", scope: !171, file: !172, line: 47, baseType: !100, size: 8, offset: 64)
!181 = !DIDerivedType(tag: DW_TAG_member, name: "ip_p", scope: !171, file: !172, line: 48, baseType: !100, size: 8, offset: 72)
!182 = !DIDerivedType(tag: DW_TAG_member, name: "ip_sum", scope: !171, file: !172, line: 49, baseType: !104, size: 16, offset: 80)
!183 = !DIDerivedType(tag: DW_TAG_member, name: "ip_src", scope: !171, file: !172, line: 50, baseType: !184, size: 32, offset: 96)
!184 = distinct !DICompositeType(tag: DW_TAG_structure_type, name: "in_addr", file: !185, line: 31, size: 32, flags: DIFlagTypePassByValue, elements: !186, identifier: "_ZTS7in_addr")
!185 = !DIFile(filename: "/usr/include/netinet/in.h", directory: "")
!186 = !{!187}
!187 = !DIDerivedType(tag: DW_TAG_member, name: "s_addr", scope: !184, file: !185, line: 33, baseType: !188, size: 32)
!188 = !DIDerivedType(tag: DW_TAG_typedef, name: "in_addr_t", file: !185, line: 30, baseType: !14)
!189 = !DIDerivedType(tag: DW_TAG_member, name: "ip_dst", scope: !171, file: !172, line: 51, baseType: !184, size: 32, offset: 128)
!190 = !DISubprogram(name: "ip6_header", linkageName: "_ZNK14WritablePacket10ip6_headerEv", scope: !143, file: !6, line: 788, type: !191, scopeLine: 788, flags: DIFlagPublic | DIFlagPrototyped, spFlags: DISPFlagOptimized)
!191 = !DISubroutineType(types: !192)
!192 = !{!193, !149}
!193 = !DIDerivedType(tag: DW_TAG_pointer_type, baseType: !194, size: 64)
!194 = distinct !DICompositeType(tag: DW_TAG_structure_type, name: "click_ip6", file: !195, line: 16, size: 320, flags: DIFlagTypePassByValue, elements: !196, identifier: "_ZTS9click_ip6")
!195 = !DIFile(filename: "../dummy_inc/clicknet/ip6.h", directory: "/home/john/projects/click/ir-dir")
!196 = !{!197, !213, !229}
!197 = !DIDerivedType(tag: DW_TAG_member, name: "ip6_ctlun", scope: !194, file: !195, line: 39, baseType: !198, size: 64)
!198 = distinct !DICompositeType(tag: DW_TAG_union_type, scope: !194, file: !195, line: 17, size: 64, flags: DIFlagTypePassByValue, elements: !199, identifier: "_ZTSN9click_ip6Ut_E")
!199 = !{!200, !207, !208}
!200 = !DIDerivedType(tag: DW_TAG_member, name: "ip6_un1", scope: !198, file: !195, line: 27, baseType: !201, size: 64)
!201 = distinct !DICompositeType(tag: DW_TAG_structure_type, scope: !198, file: !195, line: 18, size: 64, flags: DIFlagTypePassByValue, elements: !202, identifier: "_ZTSN9click_ip6Ut_Ut_E")
!202 = !{!203, !204, !205, !206}
!203 = !DIDerivedType(tag: DW_TAG_member, name: "ip6_un1_flow", scope: !201, file: !195, line: 19, baseType: !14, size: 32)
!204 = !DIDerivedType(tag: DW_TAG_member, name: "ip6_un1_plen", scope: !201, file: !195, line: 24, baseType: !104, size: 16, offset: 32)
!205 = !DIDerivedType(tag: DW_TAG_member, name: "ip6_un1_nxt", scope: !201, file: !195, line: 25, baseType: !100, size: 8, offset: 48)
!206 = !DIDerivedType(tag: DW_TAG_member, name: "ip6_un1_hlim", scope: !201, file: !195, line: 26, baseType: !100, size: 8, offset: 56)
!207 = !DIDerivedType(tag: DW_TAG_member, name: "ip6_un2_vfc", scope: !198, file: !195, line: 28, baseType: !100, size: 8)
!208 = !DIDerivedType(tag: DW_TAG_member, name: "ip6_un3", scope: !198, file: !195, line: 38, baseType: !209, size: 32)
!209 = distinct !DICompositeType(tag: DW_TAG_structure_type, scope: !198, file: !195, line: 30, size: 32, flags: DIFlagTypePassByValue, elements: !210, identifier: "_ZTSN9click_ip6Ut_Ut0_E")
!210 = !{!211, !212}
!211 = !DIDerivedType(tag: DW_TAG_member, name: "ip6_un3_fc", scope: !209, file: !195, line: 35, baseType: !18, size: 4, flags: DIFlagBitField, extraData: i64 0)
!212 = !DIDerivedType(tag: DW_TAG_member, name: "ip6_un3_v", scope: !209, file: !195, line: 36, baseType: !18, size: 4, offset: 4, flags: DIFlagBitField, extraData: i64 0)
!213 = !DIDerivedType(tag: DW_TAG_member, name: "ip6_src", scope: !194, file: !195, line: 40, baseType: !214, size: 128, offset: 64)
!214 = distinct !DICompositeType(tag: DW_TAG_structure_type, name: "in6_addr", file: !185, line: 212, size: 128, flags: DIFlagTypePassByValue, elements: !215, identifier: "_ZTS8in6_addr")
!215 = !{!216}
!216 = !DIDerivedType(tag: DW_TAG_member, name: "__in6_u", scope: !214, file: !185, line: 219, baseType: !217, size: 128)
!217 = distinct !DICompositeType(tag: DW_TAG_union_type, scope: !214, file: !185, line: 214, size: 128, flags: DIFlagTypePassByValue, elements: !218, identifier: "_ZTSN8in6_addrUt_E")
!218 = !{!219, !223, !225}
!219 = !DIDerivedType(tag: DW_TAG_member, name: "__u6_addr8", scope: !217, file: !185, line: 216, baseType: !220, size: 128)
!220 = !DICompositeType(tag: DW_TAG_array_type, baseType: !100, size: 128, elements: !221)
!221 = !{!222}
!222 = !DISubrange(count: 16)
!223 = !DIDerivedType(tag: DW_TAG_member, name: "__u6_addr16", scope: !217, file: !185, line: 217, baseType: !224, size: 128)
!224 = !DICompositeType(tag: DW_TAG_array_type, baseType: !104, size: 128, elements: !126)
!225 = !DIDerivedType(tag: DW_TAG_member, name: "__u6_addr32", scope: !217, file: !185, line: 218, baseType: !226, size: 128)
!226 = !DICompositeType(tag: DW_TAG_array_type, baseType: !14, size: 128, elements: !227)
!227 = !{!228}
!228 = !DISubrange(count: 4)
!229 = !DIDerivedType(tag: DW_TAG_member, name: "ip6_dst", scope: !194, file: !195, line: 41, baseType: !214, size: 128, offset: 192)
!230 = !DISubprogram(name: "transport_header", linkageName: "_ZNK14WritablePacket16transport_headerEv", scope: !143, file: !6, line: 789, type: !147, scopeLine: 789, flags: DIFlagPublic | DIFlagPrototyped, spFlags: DISPFlagOptimized)
!231 = !DISubprogram(name: "icmp_header", linkageName: "_ZNK14WritablePacket11icmp_headerEv", scope: !143, file: !6, line: 790, type: !232, scopeLine: 790, flags: DIFlagPublic | DIFlagPrototyped, spFlags: DISPFlagOptimized)
!232 = !DISubroutineType(types: !233)
!233 = !{!234, !149}
!234 = !DIDerivedType(tag: DW_TAG_pointer_type, baseType: !235, size: 64)
!235 = !DICompositeType(tag: DW_TAG_structure_type, name: "click_icmp", file: !6, line: 26, flags: DIFlagFwdDecl, identifier: "_ZTS10click_icmp")
!236 = !DISubprogram(name: "tcp_header", linkageName: "_ZNK14WritablePacket10tcp_headerEv", scope: !143, file: !6, line: 791, type: !237, scopeLine: 791, flags: DIFlagPublic | DIFlagPrototyped, spFlags: DISPFlagOptimized)
!237 = !DISubroutineType(types: !238)
!238 = !{!239, !149}
!239 = !DIDerivedType(tag: DW_TAG_pointer_type, baseType: !240, size: 64)
!240 = !DICompositeType(tag: DW_TAG_structure_type, name: "click_tcp", file: !6, line: 28, flags: DIFlagFwdDecl, identifier: "_ZTS9click_tcp")
!241 = !DISubprogram(name: "udp_header", linkageName: "_ZNK14WritablePacket10udp_headerEv", scope: !143, file: !6, line: 792, type: !242, scopeLine: 792, flags: DIFlagPublic | DIFlagPrototyped, spFlags: DISPFlagOptimized)
!242 = !DISubroutineType(types: !243)
!243 = !{!244, !149}
!244 = !DIDerivedType(tag: DW_TAG_pointer_type, baseType: !245, size: 64)
!245 = distinct !DICompositeType(tag: DW_TAG_structure_type, name: "click_udp", file: !246, line: 11, size: 64, flags: DIFlagTypePassByValue, elements: !247, identifier: "_ZTS9click_udp")
!246 = !DIFile(filename: "../dummy_inc/clicknet/udp.h", directory: "/home/john/projects/click/ir-dir")
!247 = !{!248, !249, !250, !251}
!248 = !DIDerivedType(tag: DW_TAG_member, name: "uh_sport", scope: !245, file: !246, line: 12, baseType: !104, size: 16)
!249 = !DIDerivedType(tag: DW_TAG_member, name: "uh_dport", scope: !245, file: !246, line: 13, baseType: !104, size: 16, offset: 16)
!250 = !DIDerivedType(tag: DW_TAG_member, name: "uh_ulen", scope: !245, file: !246, line: 14, baseType: !104, size: 16, offset: 32)
!251 = !DIDerivedType(tag: DW_TAG_member, name: "uh_sum", scope: !245, file: !246, line: 15, baseType: !104, size: 16, offset: 48)
!252 = !DISubprogram(name: "buffer_data", linkageName: "_ZNK14WritablePacket11buffer_dataEv", scope: !143, file: !6, line: 795, type: !147, scopeLine: 795, flags: DIFlagPublic | DIFlagPrototyped, spFlags: DISPFlagOptimized)
!253 = !DISubprogram(name: "WritablePacket", scope: !143, file: !6, line: 800, type: !254, scopeLine: 800, flags: DIFlagPrototyped, spFlags: DISPFlagOptimized)
!254 = !DISubroutineType(types: !255)
!255 = !{null, !256}
!256 = !DIDerivedType(tag: DW_TAG_pointer_type, baseType: !143, size: 64, flags: DIFlagArtificial | DIFlagObjectPointer)
!257 = !DISubprogram(name: "initialize", linkageName: "_ZN14WritablePacket10initializeEv", scope: !143, file: !6, line: 802, type: !254, scopeLine: 802, flags: DIFlagPrototyped, spFlags: DISPFlagOptimized)
!258 = !DISubprogram(name: "WritablePacket", scope: !143, file: !6, line: 804, type: !259, scopeLine: 804, flags: DIFlagPrototyped, spFlags: DISPFlagOptimized)
!259 = !DISubroutineType(types: !260)
!260 = !{null, !256, !261}
!261 = !DIDerivedType(tag: DW_TAG_reference_type, baseType: !262, size: 64)
!262 = !DIDerivedType(tag: DW_TAG_const_type, baseType: !7)
!263 = !DISubprogram(name: "~WritablePacket", scope: !143, file: !6, line: 805, type: !254, scopeLine: 805, flags: DIFlagPrototyped, spFlags: DISPFlagOptimized)
!264 = !DISubprogram(name: "pool_allocate", linkageName: "_ZN14WritablePacket13pool_allocateEb", scope: !143, file: !6, line: 808, type: !265, scopeLine: 808, flags: DIFlagPrototyped | DIFlagStaticMember, spFlags: DISPFlagOptimized)
!265 = !DISubroutineType(types: !266)
!266 = !{!142, !55}
!267 = !DISubprogram(name: "pool_allocate", linkageName: "_ZN14WritablePacket13pool_allocateEjjj", scope: !143, file: !6, line: 809, type: !268, scopeLine: 809, flags: DIFlagPrototyped | DIFlagStaticMember, spFlags: DISPFlagOptimized)
!268 = !DISubroutineType(types: !269)
!269 = !{!142, !14, !14, !14}
!270 = !DISubprogram(name: "recycle", linkageName: "_ZN14WritablePacket7recycleEPS_", scope: !143, file: !6, line: 811, type: !271, scopeLine: 811, flags: DIFlagPrototyped | DIFlagStaticMember, spFlags: DISPFlagOptimized)
!271 = !DISubroutineType(types: !272)
!272 = !{null, !142}
!273 = !DIDerivedType(tag: DW_TAG_pointer_type, baseType: !274, size: 64)
!274 = !DIDerivedType(tag: DW_TAG_const_type, baseType: null)
!275 = !DISubprogram(name: "make", linkageName: "_ZN6Packet4makeEPKvj", scope: !7, file: !6, line: 54, type: !276, scopeLine: 54, flags: DIFlagPublic | DIFlagPrototyped | DIFlagStaticMember, spFlags: DISPFlagOptimized)
!276 = !DISubroutineType(types: !277)
!277 = !{!142, !273, !14}
!278 = !DISubprogram(name: "make", linkageName: "_ZN6Packet4makeEj", scope: !7, file: !6, line: 55, type: !279, scopeLine: 55, flags: DIFlagPublic | DIFlagPrototyped | DIFlagStaticMember, spFlags: DISPFlagOptimized)
!279 = !DISubroutineType(types: !280)
!280 = !{!142, !14}
!281 = !DISubprogram(name: "make", linkageName: "_ZN6Packet4makeEPhjPFvS0_mPvES1_ii", scope: !7, file: !6, line: 66, type: !282, scopeLine: 66, flags: DIFlagPublic | DIFlagPrototyped | DIFlagStaticMember, spFlags: DISPFlagOptimized)
!282 = !DISubroutineType(types: !283)
!283 = !{!142, !82, !14, !131, !137, !36, !36}
!284 = !DISubprogram(name: "static_cleanup", linkageName: "_ZN6Packet14static_cleanupEv", scope: !7, file: !6, line: 71, type: !285, scopeLine: 71, flags: DIFlagPublic | DIFlagPrototyped | DIFlagStaticMember, spFlags: DISPFlagOptimized)
!285 = !DISubroutineType(types: !286)
!286 = !{null}
!287 = !DISubprogram(name: "kill", linkageName: "_ZN6Packet4killEv", scope: !7, file: !6, line: 73, type: !288, scopeLine: 73, flags: DIFlagPublic | DIFlagPrototyped, spFlags: DISPFlagOptimized)
!288 = !DISubroutineType(types: !289)
!289 = !{null, !290}
!290 = !DIDerivedType(tag: DW_TAG_pointer_type, baseType: !7, size: 64, flags: DIFlagArtificial | DIFlagObjectPointer)
!291 = !DISubprogram(name: "shared", linkageName: "_ZNK6Packet6sharedEv", scope: !7, file: !6, line: 75, type: !292, scopeLine: 75, flags: DIFlagPublic | DIFlagPrototyped, spFlags: DISPFlagOptimized)
!292 = !DISubroutineType(types: !293)
!293 = !{!55, !294}
!294 = !DIDerivedType(tag: DW_TAG_pointer_type, baseType: !262, size: 64, flags: DIFlagArtificial | DIFlagObjectPointer)
!295 = !DISubprogram(name: "clone", linkageName: "_ZN6Packet5cloneEv", scope: !7, file: !6, line: 76, type: !296, scopeLine: 76, flags: DIFlagPublic | DIFlagPrototyped, spFlags: DISPFlagOptimized)
!296 = !DISubroutineType(types: !297)
!297 = !{!80, !290}
!298 = !DISubprogram(name: "uniqueify", linkageName: "_ZN6Packet9uniqueifyEv", scope: !7, file: !6, line: 77, type: !299, scopeLine: 77, flags: DIFlagPublic | DIFlagPrototyped, spFlags: DISPFlagOptimized)
!299 = !DISubroutineType(types: !300)
!300 = !{!142, !290}
!301 = !DISubprogram(name: "data", linkageName: "_ZNK6Packet4dataEv", scope: !7, file: !6, line: 79, type: !302, scopeLine: 79, flags: DIFlagPublic | DIFlagPrototyped, spFlags: DISPFlagOptimized)
!302 = !DISubroutineType(types: !303)
!303 = !{!304, !294}
!304 = !DIDerivedType(tag: DW_TAG_pointer_type, baseType: !305, size: 64)
!305 = !DIDerivedType(tag: DW_TAG_const_type, baseType: !83)
!306 = !DISubprogram(name: "end_data", linkageName: "_ZNK6Packet8end_dataEv", scope: !7, file: !6, line: 80, type: !302, scopeLine: 80, flags: DIFlagPublic | DIFlagPrototyped, spFlags: DISPFlagOptimized)
!307 = !DISubprogram(name: "length", linkageName: "_ZNK6Packet6lengthEv", scope: !7, file: !6, line: 81, type: !308, scopeLine: 81, flags: DIFlagPublic | DIFlagPrototyped, spFlags: DISPFlagOptimized)
!308 = !DISubroutineType(types: !309)
!309 = !{!14, !294}
!310 = !DISubprogram(name: "headroom", linkageName: "_ZNK6Packet8headroomEv", scope: !7, file: !6, line: 82, type: !308, scopeLine: 82, flags: DIFlagPublic | DIFlagPrototyped, spFlags: DISPFlagOptimized)
!311 = !DISubprogram(name: "tailroom", linkageName: "_ZNK6Packet8tailroomEv", scope: !7, file: !6, line: 83, type: !308, scopeLine: 83, flags: DIFlagPublic | DIFlagPrototyped, spFlags: DISPFlagOptimized)
!312 = !DISubprogram(name: "buffer", linkageName: "_ZNK6Packet6bufferEv", scope: !7, file: !6, line: 84, type: !302, scopeLine: 84, flags: DIFlagPublic | DIFlagPrototyped, spFlags: DISPFlagOptimized)
!313 = !DISubprogram(name: "end_buffer", linkageName: "_ZNK6Packet10end_bufferEv", scope: !7, file: !6, line: 85, type: !302, scopeLine: 85, flags: DIFlagPublic | DIFlagPrototyped, spFlags: DISPFlagOptimized)
!314 = !DISubprogram(name: "buffer_length", linkageName: "_ZNK6Packet13buffer_lengthEv", scope: !7, file: !6, line: 86, type: !308, scopeLine: 86, flags: DIFlagPublic | DIFlagPrototyped, spFlags: DISPFlagOptimized)
!315 = !DISubprogram(name: "buffer_destructor", linkageName: "_ZNK6Packet17buffer_destructorEv", scope: !7, file: !6, line: 97, type: !316, scopeLine: 97, flags: DIFlagPublic | DIFlagPrototyped, spFlags: DISPFlagOptimized)
!316 = !DISubroutineType(types: !317)
!317 = !{!131, !294}
!318 = !DISubprogram(name: "set_buffer_destructor", linkageName: "_ZN6Packet21set_buffer_destructorEPFvPhmPvE", scope: !7, file: !6, line: 101, type: !319, scopeLine: 101, flags: DIFlagPublic | DIFlagPrototyped, spFlags: DISPFlagOptimized)
!319 = !DISubroutineType(types: !320)
!320 = !{null, !290, !131}
!321 = !DISubprogram(name: "destructor_argument", linkageName: "_ZN6Packet19destructor_argumentEv", scope: !7, file: !6, line: 105, type: !322, scopeLine: 105, flags: DIFlagPublic | DIFlagPrototyped, spFlags: DISPFlagOptimized)
!322 = !DISubroutineType(types: !323)
!323 = !{!137, !290}
!324 = !DISubprogram(name: "reset_buffer", linkageName: "_ZN6Packet12reset_bufferEv", scope: !7, file: !6, line: 109, type: !288, scopeLine: 109, flags: DIFlagPublic | DIFlagPrototyped, spFlags: DISPFlagOptimized)
!325 = !DISubprogram(name: "push", linkageName: "_ZN6Packet4pushEj", scope: !7, file: !6, line: 141, type: !326, scopeLine: 141, flags: DIFlagPublic | DIFlagPrototyped, spFlags: DISPFlagOptimized)
!326 = !DISubroutineType(types: !327)
!327 = !{!142, !290, !14}
!328 = !DISubprogram(name: "push_mac_header", linkageName: "_ZN6Packet15push_mac_headerEj", scope: !7, file: !6, line: 152, type: !326, scopeLine: 152, flags: DIFlagPublic | DIFlagPrototyped, spFlags: DISPFlagOptimized)
!329 = !DISubprogram(name: "nonunique_push", linkageName: "_ZN6Packet14nonunique_pushEj", scope: !7, file: !6, line: 171, type: !330, scopeLine: 171, flags: DIFlagPublic | DIFlagPrototyped, spFlags: DISPFlagOptimized)
!330 = !DISubroutineType(types: !331)
!331 = !{!80, !290, !14}
!332 = !DISubprogram(name: "pull", linkageName: "_ZN6Packet4pullEj", scope: !7, file: !6, line: 187, type: !333, scopeLine: 187, flags: DIFlagPublic | DIFlagPrototyped, spFlags: DISPFlagOptimized)
!333 = !DISubroutineType(types: !334)
!334 = !{null, !290, !14}
!335 = !DISubprogram(name: "put", linkageName: "_ZN6Packet3putEj", scope: !7, file: !6, line: 213, type: !326, scopeLine: 213, flags: DIFlagPublic | DIFlagPrototyped, spFlags: DISPFlagOptimized)
!336 = !DISubprogram(name: "nonunique_put", linkageName: "_ZN6Packet13nonunique_putEj", scope: !7, file: !6, line: 230, type: !330, scopeLine: 230, flags: DIFlagPublic | DIFlagPrototyped, spFlags: DISPFlagOptimized)
!337 = !DISubprogram(name: "take", linkageName: "_ZN6Packet4takeEj", scope: !7, file: !6, line: 245, type: !333, scopeLine: 245, flags: DIFlagPublic | DIFlagPrototyped, spFlags: DISPFlagOptimized)
!338 = !DISubprogram(name: "shift_data", linkageName: "_ZN6Packet10shift_dataEib", scope: !7, file: !6, line: 269, type: !339, scopeLine: 269, flags: DIFlagPublic | DIFlagPrototyped, spFlags: DISPFlagOptimized)
!339 = !DISubroutineType(types: !340)
!340 = !{!80, !290, !36, !55}
!341 = !DISubprogram(name: "shrink_data", linkageName: "_ZN6Packet11shrink_dataEPKhj", scope: !7, file: !6, line: 271, type: !342, scopeLine: 271, flags: DIFlagPublic | DIFlagPrototyped, spFlags: DISPFlagOptimized)
!342 = !DISubroutineType(types: !343)
!343 = !{null, !290, !304, !14}
!344 = !DISubprogram(name: "change_headroom_and_length", linkageName: "_ZN6Packet26change_headroom_and_lengthEjj", scope: !7, file: !6, line: 272, type: !345, scopeLine: 272, flags: DIFlagPublic | DIFlagPrototyped, spFlags: DISPFlagOptimized)
!345 = !DISubroutineType(types: !346)
!346 = !{null, !290, !14, !14}
!347 = !DISubprogram(name: "copy", linkageName: "_ZN6Packet4copyEPS_i", scope: !7, file: !6, line: 274, type: !348, scopeLine: 274, flags: DIFlagPublic | DIFlagPrototyped, spFlags: DISPFlagOptimized)
!348 = !DISubroutineType(types: !349)
!349 = !{!55, !290, !80, !36}
!350 = !DISubprogram(name: "has_mac_header", linkageName: "_ZNK6Packet14has_mac_headerEv", scope: !7, file: !6, line: 279, type: !292, scopeLine: 279, flags: DIFlagPublic | DIFlagPrototyped, spFlags: DISPFlagOptimized)
!351 = !DISubprogram(name: "mac_header", linkageName: "_ZNK6Packet10mac_headerEv", scope: !7, file: !6, line: 280, type: !302, scopeLine: 280, flags: DIFlagPublic | DIFlagPrototyped, spFlags: DISPFlagOptimized)
!352 = !DISubprogram(name: "mac_header_offset", linkageName: "_ZNK6Packet17mac_header_offsetEv", scope: !7, file: !6, line: 281, type: !353, scopeLine: 281, flags: DIFlagPublic | DIFlagPrototyped, spFlags: DISPFlagOptimized)
!353 = !DISubroutineType(types: !354)
!354 = !{!36, !294}
!355 = !DISubprogram(name: "mac_header_length", linkageName: "_ZNK6Packet17mac_header_lengthEv", scope: !7, file: !6, line: 282, type: !308, scopeLine: 282, flags: DIFlagPublic | DIFlagPrototyped, spFlags: DISPFlagOptimized)
!356 = !DISubprogram(name: "mac_length", linkageName: "_ZNK6Packet10mac_lengthEv", scope: !7, file: !6, line: 283, type: !353, scopeLine: 283, flags: DIFlagPublic | DIFlagPrototyped, spFlags: DISPFlagOptimized)
!357 = !DISubprogram(name: "set_mac_header", linkageName: "_ZN6Packet14set_mac_headerEPKh", scope: !7, file: !6, line: 284, type: !358, scopeLine: 284, flags: DIFlagPublic | DIFlagPrototyped, spFlags: DISPFlagOptimized)
!358 = !DISubroutineType(types: !359)
!359 = !{null, !290, !304}
!360 = !DISubprogram(name: "set_mac_header", linkageName: "_ZN6Packet14set_mac_headerEPKhj", scope: !7, file: !6, line: 285, type: !342, scopeLine: 285, flags: DIFlagPublic | DIFlagPrototyped, spFlags: DISPFlagOptimized)
!361 = !DISubprogram(name: "clear_mac_header", linkageName: "_ZN6Packet16clear_mac_headerEv", scope: !7, file: !6, line: 286, type: !288, scopeLine: 286, flags: DIFlagPublic | DIFlagPrototyped, spFlags: DISPFlagOptimized)
!362 = !DISubprogram(name: "has_network_header", linkageName: "_ZNK6Packet18has_network_headerEv", scope: !7, file: !6, line: 288, type: !292, scopeLine: 288, flags: DIFlagPublic | DIFlagPrototyped, spFlags: DISPFlagOptimized)
!363 = !DISubprogram(name: "network_header", linkageName: "_ZNK6Packet14network_headerEv", scope: !7, file: !6, line: 289, type: !302, scopeLine: 289, flags: DIFlagPublic | DIFlagPrototyped, spFlags: DISPFlagOptimized)
!364 = !DISubprogram(name: "network_header_offset", linkageName: "_ZNK6Packet21network_header_offsetEv", scope: !7, file: !6, line: 290, type: !353, scopeLine: 290, flags: DIFlagPublic | DIFlagPrototyped, spFlags: DISPFlagOptimized)
!365 = !DISubprogram(name: "network_header_length", linkageName: "_ZNK6Packet21network_header_lengthEv", scope: !7, file: !6, line: 291, type: !308, scopeLine: 291, flags: DIFlagPublic | DIFlagPrototyped, spFlags: DISPFlagOptimized)
!366 = !DISubprogram(name: "network_length", linkageName: "_ZNK6Packet14network_lengthEv", scope: !7, file: !6, line: 292, type: !353, scopeLine: 292, flags: DIFlagPublic | DIFlagPrototyped, spFlags: DISPFlagOptimized)
!367 = !DISubprogram(name: "set_network_header", linkageName: "_ZN6Packet18set_network_headerEPKhj", scope: !7, file: !6, line: 293, type: !342, scopeLine: 293, flags: DIFlagPublic | DIFlagPrototyped, spFlags: DISPFlagOptimized)
!368 = !DISubprogram(name: "set_network_header_length", linkageName: "_ZN6Packet25set_network_header_lengthEj", scope: !7, file: !6, line: 294, type: !333, scopeLine: 294, flags: DIFlagPublic | DIFlagPrototyped, spFlags: DISPFlagOptimized)
!369 = !DISubprogram(name: "clear_network_header", linkageName: "_ZN6Packet20clear_network_headerEv", scope: !7, file: !6, line: 295, type: !288, scopeLine: 295, flags: DIFlagPublic | DIFlagPrototyped, spFlags: DISPFlagOptimized)
!370 = !DISubprogram(name: "has_transport_header", linkageName: "_ZNK6Packet20has_transport_headerEv", scope: !7, file: !6, line: 297, type: !292, scopeLine: 297, flags: DIFlagPublic | DIFlagPrototyped, spFlags: DISPFlagOptimized)
!371 = !DISubprogram(name: "transport_header", linkageName: "_ZNK6Packet16transport_headerEv", scope: !7, file: !6, line: 298, type: !302, scopeLine: 298, flags: DIFlagPublic | DIFlagPrototyped, spFlags: DISPFlagOptimized)
!372 = !DISubprogram(name: "transport_header_offset", linkageName: "_ZNK6Packet23transport_header_offsetEv", scope: !7, file: !6, line: 299, type: !353, scopeLine: 299, flags: DIFlagPublic | DIFlagPrototyped, spFlags: DISPFlagOptimized)
!373 = !DISubprogram(name: "transport_length", linkageName: "_ZNK6Packet16transport_lengthEv", scope: !7, file: !6, line: 300, type: !353, scopeLine: 300, flags: DIFlagPublic | DIFlagPrototyped, spFlags: DISPFlagOptimized)
!374 = !DISubprogram(name: "clear_transport_header", linkageName: "_ZN6Packet22clear_transport_headerEv", scope: !7, file: !6, line: 301, type: !288, scopeLine: 301, flags: DIFlagPublic | DIFlagPrototyped, spFlags: DISPFlagOptimized)
!375 = !DISubprogram(name: "ether_header", linkageName: "_ZNK6Packet12ether_headerEv", scope: !7, file: !6, line: 304, type: !376, scopeLine: 304, flags: DIFlagPublic | DIFlagPrototyped, spFlags: DISPFlagOptimized)
!376 = !DISubroutineType(types: !377)
!377 = !{!378, !294}
!378 = !DIDerivedType(tag: DW_TAG_pointer_type, baseType: !379, size: 64)
!379 = !DIDerivedType(tag: DW_TAG_const_type, baseType: !159)
!380 = !DISubprogram(name: "set_ether_header", linkageName: "_ZN6Packet16set_ether_headerEPK11click_ether", scope: !7, file: !6, line: 305, type: !381, scopeLine: 305, flags: DIFlagPublic | DIFlagPrototyped, spFlags: DISPFlagOptimized)
!381 = !DISubroutineType(types: !382)
!382 = !{null, !290, !378}
!383 = !DISubprogram(name: "ip_header", linkageName: "_ZNK6Packet9ip_headerEv", scope: !7, file: !6, line: 307, type: !384, scopeLine: 307, flags: DIFlagPublic | DIFlagPrototyped, spFlags: DISPFlagOptimized)
!384 = !DISubroutineType(types: !385)
!385 = !{!386, !294}
!386 = !DIDerivedType(tag: DW_TAG_pointer_type, baseType: !387, size: 64)
!387 = !DIDerivedType(tag: DW_TAG_const_type, baseType: !171)
!388 = !DISubprogram(name: "ip_header_offset", linkageName: "_ZNK6Packet16ip_header_offsetEv", scope: !7, file: !6, line: 308, type: !353, scopeLine: 308, flags: DIFlagPublic | DIFlagPrototyped, spFlags: DISPFlagOptimized)
!389 = !DISubprogram(name: "ip_header_length", linkageName: "_ZNK6Packet16ip_header_lengthEv", scope: !7, file: !6, line: 309, type: !308, scopeLine: 309, flags: DIFlagPublic | DIFlagPrototyped, spFlags: DISPFlagOptimized)
!390 = !DISubprogram(name: "set_ip_header", linkageName: "_ZN6Packet13set_ip_headerEPK8click_ipj", scope: !7, file: !6, line: 310, type: !391, scopeLine: 310, flags: DIFlagPublic | DIFlagPrototyped, spFlags: DISPFlagOptimized)
!391 = !DISubroutineType(types: !392)
!392 = !{null, !290, !386, !14}
!393 = !DISubprogram(name: "ip6_header", linkageName: "_ZNK6Packet10ip6_headerEv", scope: !7, file: !6, line: 312, type: !394, scopeLine: 312, flags: DIFlagPublic | DIFlagPrototyped, spFlags: DISPFlagOptimized)
!394 = !DISubroutineType(types: !395)
!395 = !{!396, !294}
!396 = !DIDerivedType(tag: DW_TAG_pointer_type, baseType: !397, size: 64)
!397 = !DIDerivedType(tag: DW_TAG_const_type, baseType: !194)
!398 = !DISubprogram(name: "ip6_header_offset", linkageName: "_ZNK6Packet17ip6_header_offsetEv", scope: !7, file: !6, line: 313, type: !353, scopeLine: 313, flags: DIFlagPublic | DIFlagPrototyped, spFlags: DISPFlagOptimized)
!399 = !DISubprogram(name: "ip6_header_length", linkageName: "_ZNK6Packet17ip6_header_lengthEv", scope: !7, file: !6, line: 314, type: !308, scopeLine: 314, flags: DIFlagPublic | DIFlagPrototyped, spFlags: DISPFlagOptimized)
!400 = !DISubprogram(name: "set_ip6_header", linkageName: "_ZN6Packet14set_ip6_headerEPK9click_ip6", scope: !7, file: !6, line: 315, type: !401, scopeLine: 315, flags: DIFlagPublic | DIFlagPrototyped, spFlags: DISPFlagOptimized)
!401 = !DISubroutineType(types: !402)
!402 = !{null, !290, !396}
!403 = !DISubprogram(name: "set_ip6_header", linkageName: "_ZN6Packet14set_ip6_headerEPK9click_ip6j", scope: !7, file: !6, line: 316, type: !404, scopeLine: 316, flags: DIFlagPublic | DIFlagPrototyped, spFlags: DISPFlagOptimized)
!404 = !DISubroutineType(types: !405)
!405 = !{null, !290, !396, !14}
!406 = !DISubprogram(name: "icmp_header", linkageName: "_ZNK6Packet11icmp_headerEv", scope: !7, file: !6, line: 318, type: !407, scopeLine: 318, flags: DIFlagPublic | DIFlagPrototyped, spFlags: DISPFlagOptimized)
!407 = !DISubroutineType(types: !408)
!408 = !{!409, !294}
!409 = !DIDerivedType(tag: DW_TAG_pointer_type, baseType: !410, size: 64)
!410 = !DIDerivedType(tag: DW_TAG_const_type, baseType: !235)
!411 = !DISubprogram(name: "tcp_header", linkageName: "_ZNK6Packet10tcp_headerEv", scope: !7, file: !6, line: 319, type: !412, scopeLine: 319, flags: DIFlagPublic | DIFlagPrototyped, spFlags: DISPFlagOptimized)
!412 = !DISubroutineType(types: !413)
!413 = !{!414, !294}
!414 = !DIDerivedType(tag: DW_TAG_pointer_type, baseType: !415, size: 64)
!415 = !DIDerivedType(tag: DW_TAG_const_type, baseType: !240)
!416 = !DISubprogram(name: "udp_header", linkageName: "_ZNK6Packet10udp_headerEv", scope: !7, file: !6, line: 320, type: !417, scopeLine: 320, flags: DIFlagPublic | DIFlagPrototyped, spFlags: DISPFlagOptimized)
!417 = !DISubroutineType(types: !418)
!418 = !{!419, !294}
!419 = !DIDerivedType(tag: DW_TAG_pointer_type, baseType: !420, size: 64)
!420 = !DIDerivedType(tag: DW_TAG_const_type, baseType: !245)
!421 = !DISubprogram(name: "xanno", linkageName: "_ZNK6Packet5xannoEv", scope: !7, file: !6, line: 340, type: !422, scopeLine: 340, flags: DIFlagPrototyped, spFlags: DISPFlagOptimized)
!422 = !DISubroutineType(types: !423)
!423 = !{!424, !294}
!424 = !DIDerivedType(tag: DW_TAG_pointer_type, baseType: !425, size: 64)
!425 = !DIDerivedType(tag: DW_TAG_const_type, baseType: !91)
!426 = !DISubprogram(name: "xanno", linkageName: "_ZN6Packet5xannoEv", scope: !7, file: !6, line: 341, type: !427, scopeLine: 341, flags: DIFlagPrototyped, spFlags: DISPFlagOptimized)
!427 = !DISubroutineType(types: !428)
!428 = !{!429, !290}
!429 = !DIDerivedType(tag: DW_TAG_pointer_type, baseType: !91, size: 64)
!430 = !DISubprogram(name: "timestamp_anno", linkageName: "_ZNK6Packet14timestamp_annoEv", scope: !7, file: !6, line: 354, type: !431, scopeLine: 354, flags: DIFlagPublic | DIFlagPrototyped, spFlags: DISPFlagOptimized)
!431 = !DISubroutineType(types: !432)
!432 = !{!433, !294}
!433 = !DIDerivedType(tag: DW_TAG_reference_type, baseType: !434, size: 64)
!434 = !DIDerivedType(tag: DW_TAG_const_type, baseType: !435)
!435 = distinct !DICompositeType(tag: DW_TAG_class_type, name: "Timestamp", file: !436, line: 122, size: 64, flags: DIFlagTypePassByValue | DIFlagNonTrivial, elements: !437, identifier: "_ZTS9Timestamp")
!436 = !DIFile(filename: "../dummy_inc/click/timestamp.hh", directory: "/home/john/projects/click/ir-dir")
!437 = !{!438, !445, !449, !452, !455, !458, !461, !465, !477, !488, !493, !502, !511, !514, !515, !518, !519, !520, !521, !524, !527, !528, !529, !530, !533, !534, !537, !540, !544, !545, !546, !549, !550, !551, !556, !560, !563, !566, !569, !572, !573, !574, !575, !576, !579, !580, !583, !584, !585, !586, !587, !588, !589, !592, !593, !594, !595, !596, !597, !598, !599, !600, !890, !891, !894, !895, !896, !897, !898, !899, !900, !903, !912, !915, !916, !919, !922, !923, !924, !925, !926, !927, !928, !931, !935, !938, !941, !944}
!438 = !DIDerivedType(tag: DW_TAG_member, name: "_t", scope: !435, file: !436, line: 672, baseType: !439, size: 64)
!439 = distinct !DICompositeType(tag: DW_TAG_union_type, name: "rep_t", scope: !435, file: !436, line: 539, size: 64, flags: DIFlagTypePassByValue, elements: !440, identifier: "_ZTSN9Timestamp5rep_tE")
!440 = !{!441}
!441 = !DIDerivedType(tag: DW_TAG_member, name: "x", scope: !439, file: !436, line: 541, baseType: !442, size: 64)
!442 = !DIDerivedType(tag: DW_TAG_typedef, name: "int64_t", file: !34, line: 27, baseType: !443)
!443 = !DIDerivedType(tag: DW_TAG_typedef, name: "__int64_t", file: !17, line: 44, baseType: !444)
!444 = !DIBasicType(name: "long int", size: 64, encoding: DW_ATE_signed)
!445 = !DISubprogram(name: "Timestamp", scope: !435, file: !436, line: 174, type: !446, scopeLine: 174, flags: DIFlagPublic | DIFlagPrototyped, spFlags: DISPFlagOptimized)
!446 = !DISubroutineType(types: !447)
!447 = !{null, !448}
!448 = !DIDerivedType(tag: DW_TAG_pointer_type, baseType: !435, size: 64, flags: DIFlagArtificial | DIFlagObjectPointer)
!449 = !DISubprogram(name: "Timestamp", scope: !435, file: !436, line: 187, type: !450, scopeLine: 187, flags: DIFlagPublic | DIFlagExplicit | DIFlagPrototyped, spFlags: DISPFlagOptimized)
!450 = !DISubroutineType(types: !451)
!451 = !{null, !448, !444, !14}
!452 = !DISubprogram(name: "Timestamp", scope: !435, file: !436, line: 191, type: !453, scopeLine: 191, flags: DIFlagPublic | DIFlagExplicit | DIFlagPrototyped, spFlags: DISPFlagOptimized)
!453 = !DISubroutineType(types: !454)
!454 = !{null, !448, !36, !14}
!455 = !DISubprogram(name: "Timestamp", scope: !435, file: !436, line: 195, type: !456, scopeLine: 195, flags: DIFlagPublic | DIFlagExplicit | DIFlagPrototyped, spFlags: DISPFlagOptimized)
!456 = !DISubroutineType(types: !457)
!457 = !{null, !448, !117, !14}
!458 = !DISubprogram(name: "Timestamp", scope: !435, file: !436, line: 199, type: !459, scopeLine: 199, flags: DIFlagPublic | DIFlagExplicit | DIFlagPrototyped, spFlags: DISPFlagOptimized)
!459 = !DISubroutineType(types: !460)
!460 = !{null, !448, !18, !14}
!461 = !DISubprogram(name: "Timestamp", scope: !435, file: !436, line: 203, type: !462, scopeLine: 203, flags: DIFlagPublic | DIFlagExplicit | DIFlagPrototyped, spFlags: DISPFlagOptimized)
!462 = !DISubroutineType(types: !463)
!463 = !{null, !448, !464}
!464 = !DIBasicType(name: "double", size: 64, encoding: DW_ATE_float)
!465 = !DISubprogram(name: "Timestamp", scope: !435, file: !436, line: 206, type: !466, scopeLine: 206, flags: DIFlagPublic | DIFlagPrototyped, spFlags: DISPFlagOptimized)
!466 = !DISubroutineType(types: !467)
!467 = !{null, !448, !468}
!468 = !DIDerivedType(tag: DW_TAG_reference_type, baseType: !469, size: 64)
!469 = !DIDerivedType(tag: DW_TAG_const_type, baseType: !470)
!470 = distinct !DICompositeType(tag: DW_TAG_structure_type, name: "timeval", file: !471, line: 8, size: 128, flags: DIFlagTypePassByValue, elements: !472, identifier: "_ZTS7timeval")
!471 = !DIFile(filename: "/usr/include/bits/types/struct_timeval.h", directory: "")
!472 = !{!473, !475}
!473 = !DIDerivedType(tag: DW_TAG_member, name: "tv_sec", scope: !470, file: !471, line: 10, baseType: !474, size: 64)
!474 = !DIDerivedType(tag: DW_TAG_typedef, name: "__time_t", file: !17, line: 160, baseType: !444)
!475 = !DIDerivedType(tag: DW_TAG_member, name: "tv_usec", scope: !470, file: !471, line: 11, baseType: !476, size: 64, offset: 64)
!476 = !DIDerivedType(tag: DW_TAG_typedef, name: "__suseconds_t", file: !17, line: 162, baseType: !444)
!477 = !DISubprogram(name: "Timestamp", scope: !435, file: !436, line: 208, type: !478, scopeLine: 208, flags: DIFlagPublic | DIFlagPrototyped, spFlags: DISPFlagOptimized)
!478 = !DISubroutineType(types: !479)
!479 = !{null, !448, !480}
!480 = !DIDerivedType(tag: DW_TAG_reference_type, baseType: !481, size: 64)
!481 = !DIDerivedType(tag: DW_TAG_const_type, baseType: !482)
!482 = distinct !DICompositeType(tag: DW_TAG_structure_type, name: "timespec", file: !483, line: 10, size: 128, flags: DIFlagTypePassByValue, elements: !484, identifier: "_ZTS8timespec")
!483 = !DIFile(filename: "/usr/include/bits/types/struct_timespec.h", directory: "")
!484 = !{!485, !486}
!485 = !DIDerivedType(tag: DW_TAG_member, name: "tv_sec", scope: !482, file: !483, line: 12, baseType: !474, size: 64)
!486 = !DIDerivedType(tag: DW_TAG_member, name: "tv_nsec", scope: !482, file: !483, line: 16, baseType: !487, size: 64, offset: 64)
!487 = !DIDerivedType(tag: DW_TAG_typedef, name: "__syscall_slong_t", file: !17, line: 196, baseType: !444)
!488 = !DISubprogram(name: "Timestamp", scope: !435, file: !436, line: 212, type: !489, scopeLine: 212, flags: DIFlagPublic | DIFlagPrototyped, spFlags: DISPFlagOptimized)
!489 = !DISubroutineType(types: !490)
!490 = !{null, !448, !491}
!491 = !DIDerivedType(tag: DW_TAG_reference_type, baseType: !492, size: 64)
!492 = !DIDerivedType(tag: DW_TAG_const_type, baseType: !439)
!493 = !DISubprogram(name: "Timestamp", scope: !435, file: !436, line: 217, type: !494, scopeLine: 217, flags: DIFlagPublic | DIFlagPrototyped, spFlags: DISPFlagOptimized)
!494 = !DISubroutineType(types: !495)
!495 = !{null, !448, !496}
!496 = !DIDerivedType(tag: DW_TAG_reference_type, baseType: !497, size: 64)
!497 = !DIDerivedType(tag: DW_TAG_const_type, baseType: !498)
!498 = !DIDerivedType(tag: DW_TAG_typedef, name: "uninitialized_t", scope: !435, file: !436, line: 168, baseType: !499)
!499 = distinct !DICompositeType(tag: DW_TAG_structure_type, name: "uninitialized_type", file: !500, line: 317, size: 8, flags: DIFlagTypePassByValue, elements: !501, identifier: "_ZTS18uninitialized_type")
!500 = !DIFile(filename: "../dummy_inc/click/config.h", directory: "/home/john/projects/click/ir-dir")
!501 = !{}
!502 = !DISubprogram(name: "operator int (Timestamp::*)() const", linkageName: "_ZNK9TimestampcvMS_KFivEEv", scope: !435, file: !436, line: 222, type: !503, scopeLine: 222, flags: DIFlagPublic | DIFlagPrototyped, spFlags: DISPFlagOptimized)
!503 = !DISubroutineType(types: !504)
!504 = !{!505, !510}
