; ModuleID = '../elements/tcpudp/fastudpflows.cc'
source_filename = "../elements/tcpudp/fastudpflows.cc"
target datalayout = "e-m:e-p270:32:32-p271:32:32-p272:64:64-i64:64-f80:128-n8:16:32:64-S128"
target triple = "x86_64-pc-linux-gnu"

%class.ArgContext = type <{ %class.Element*, %class.ErrorHandler*, i8*, i8, [7 x i8] }>
%class.Element = type <{ i32 (...)**, [2 x %"class.Element::Port"*], [4 x %"class.Element::Port"], [2 x i32], %class.Router*, i32, [4 x i8] }>
%"class.Element::Port" = type <{ %class.Element*, i32, [4 x i8] }>
%class.Router = type opaque
%class.ErrorHandler = type <{ i32 (...)**, i32, [4 x i8] }>
%class.FastUDPFlows = type <{ %class.Element.base, i8, [3 x i8], i32, %struct.click_ether, [2 x i8], %struct.in_addr, %struct.in_addr, i32, i32, i32, i8, [3 x i8], i32, i32, [4 x i8], %"struct.FastUDPFlows::flow_t"*, %class.GapRate, i32, i32, i8, [7 x i8] }>
%class.Element.base = type <{ i32 (...)**, [2 x %"class.Element::Port"*], [4 x %"class.Element::Port"], [2 x i32], %class.Router*, i32 }>
%struct.click_ether = type { [6 x i8], [6 x i8], i16 }
%struct.in_addr = type { i32 }
%"struct.FastUDPFlows::flow_t" = type { %class.Packet*, i32 }
%class.Packet = type { %class.atomic_uint32_t, %class.Packet*, i8*, i8*, i8*, i8*, %"struct.Packet::AllAnno", void (i8*, i64, i8*)*, i8* }
%class.atomic_uint32_t = type { i32 }
%"struct.Packet::AllAnno" = type { %"union.Packet::Anno", i8*, i8*, i8*, i32, [8 x i8], %class.Packet*, %class.Packet* }
%"union.Packet::Anno" = type { [6 x i64] }
%class.GapRate = type { i32, i32, i32, i32 }
%class.Vector = type { %class.vector_memory }
%class.vector_memory = type { %class.String*, i32, i32 }
%class.String = type { %"struct.String::rep_t" }
%"struct.String::rep_t" = type { i8*, i32, %"struct.String::memo_t"* }
%"struct.String::memo_t" = type { i32, i32, i32, [8 x i8] }
%class.Args = type { %class.ArgContext.base, i8, i8, i8, %class.Vector*, %class.Vector.0, %"struct.Args::Slot"*, [48 x i8] }
%class.ArgContext.base = type <{ %class.Element*, %class.ErrorHandler*, i8*, i8 }>
%class.Vector.0 = type { %class.vector_memory.1 }
%class.vector_memory.1 = type { %struct.char_array*, i32, i32 }
%struct.char_array = type opaque
%"struct.Args::Slot" = type { i32 (...)**, %"struct.Args::Slot"* }
%class.WritablePacket = type { %class.Packet }
%struct.click_ip = type { i8, i8, i16, i16, i16, i8, i8, i16, %struct.in_addr, %struct.in_addr }
%class.Timestamp = type { %"union.Timestamp::rep_t" }
%"union.Timestamp::rep_t" = type { i64 }
%class.IntArg = type { i32, i32 }
%class.Task = type opaque
%class.Timer = type opaque
%class.EtherAddressArg = type { i32 }
%class.EtherAddress = type { [3 x i16] }
%class.IPAddress = type { i32 }

$_ZNK12FastUDPFlows10class_nameEv = comdat any

$_ZNK12FastUDPFlows10port_countEv = comdat any

$_ZNK12FastUDPFlows10processingEv = comdat any

$_ZN9Timestamp10assign_nowEv = comdat any

$_Z14args_base_readIjEvP4ArgsPKciRT_ = comdat any

$_ZN4Args9base_readIjEEvPKciRT_ = comdat any

$_ZNK6String6lengthEv = comdat any

$__clang_call_terminate = comdat any

$_Z14args_base_readIiEvP4ArgsPKciRT_ = comdat any

$_ZN4Args9base_readIiEEvPKciRT_ = comdat any

$_Z14args_base_readI15EtherAddressArgA6_hEvP4ArgsPKciT_RT0_ = comdat any

$_ZN4Args9base_readI15EtherAddressArgA6_hEEvPKciT_RT0_ = comdat any

$_Z14args_base_readI7in_addrEvP4ArgsPKciRT_ = comdat any

$_ZN4Args9base_readI7in_addrEEvPKciRT_ = comdat any

$_Z14args_base_readIbEvP4ArgsPKciRT_ = comdat any

$_ZN4Args9base_readIbEEvPKciRT_ = comdat any

@_ZN12FastUDPFlows8NO_LIMITE = dso_local local_unnamed_addr constant i32 -1, align 4, !dbg !0
@_ZTV12FastUDPFlows = dso_local unnamed_addr constant { [29 x i8*] } { [29 x i8*] [i8* null, i8* bitcast ({ i8*, i8*, i8* }* @_ZTI12FastUDPFlows to i8*), i8* bitcast (void (%class.FastUDPFlows*)* @_ZN12FastUDPFlowsD2Ev to i8*), i8* bitcast (void (%class.FastUDPFlows*)* @_ZN12FastUDPFlowsD0Ev to i8*), i8* bitcast (void (%class.Element*, i32, %class.Packet*)* @_ZN7Element4pushEiP6Packet to i8*), i8* bitcast (%class.Packet* (%class.FastUDPFlows*, i32)* @_ZN12FastUDPFlows4pullEi to i8*), i8* bitcast (%class.Packet* (%class.Element*, %class.Packet*)* @_ZN7Element13simple_actionEP6Packet to i8*), i8* bitcast (i1 (%class.Element*, %class.Task*)* @_ZN7Element8run_taskEP4Task to i8*), i8* bitcast (void (%class.Element*, %class.Timer*)* @_ZN7Element9run_timerEP5Timer to i8*), i8* bitcast (void (%class.Element*, i32, i32)* @_ZN7Element8selectedEii to i8*), i8* bitcast (void (%class.Element*, i32)* @_ZN7Element8selectedEi to i8*), i8* bitcast (i8* (%class.FastUDPFlows*)* @_ZNK12FastUDPFlows10class_nameEv to i8*), i8* bitcast (i8* (%class.FastUDPFlows*)* @_ZNK12FastUDPFlows10port_countEv to i8*), i8* bitcast (i8* (%class.FastUDPFlows*)* @_ZNK12FastUDPFlows10processingEv to i8*), i8* bitcast (i8* (%class.Element*)* @_ZNK7Element9flow_codeEv to i8*), i8* bitcast (i8* (%class.Element*)* @_ZNK7Element5flagsEv to i8*), i8* bitcast (i8* (%class.Element*, i8*)* @_ZN7Element4castEPKc to i8*), i8* bitcast (i8* (%class.Element*, i1, i32, i8*)* @_ZN7Element9port_castEbiPKc to i8*), i8* bitcast (i32 (%class.Element*)* @_ZNK7Element15configure_phaseEv to i8*), i8* bitcast (i32 (%class.FastUDPFlows*, %class.Vector*, %class.ErrorHandler*)* @_ZN12FastUDPFlows9configureER6VectorI6StringEP12ErrorHandler to i8*), i8* bitcast (void (%class.FastUDPFlows*)* @_ZN12FastUDPFlows12add_handlersEv to i8*), i8* bitcast (i32 (%class.FastUDPFlows*, %class.ErrorHandler*)* @_ZN12FastUDPFlows10initializeEP12ErrorHandler to i8*), i8* bitcast (void (%class.Element*, %class.Element*, %class.ErrorHandler*)* @_ZN7Element10take_stateEPS_P12ErrorHandler to i8*), i8* bitcast (%class.Element* (%class.Element*)* @_ZNK7Element15hotswap_elementEv to i8*), i8* bitcast (void (%class.FastUDPFlows*, i32)* @_ZN12FastUDPFlows7cleanupEN7Element12CleanupStageE to i8*), i8* bitcast (void (%class.String*, %class.Element*)* @_ZNK7Element11declarationEv to i8*), i8* bitcast (i1 (%class.Element*)* @_ZNK7Element20can_live_reconfigureEv to i8*), i8* bitcast (i32 (%class.Element*, %class.Vector*, %class.ErrorHandler*)* @_ZN7Element16live_reconfigureER6VectorI6StringEP12ErrorHandler to i8*), i8* bitcast (i32 (%class.Element*, i32, i8*)* @_ZN7Element5llrpcEjPv to i8*)] }, align 8
@.str = private unnamed_addr constant [5 x i8] c"RATE\00", align 1
@.str.1 = private unnamed_addr constant [6 x i8] c"LIMIT\00", align 1
@.str.2 = private unnamed_addr constant [7 x i8] c"LENGTH\00", align 1
@.str.3 = private unnamed_addr constant [7 x i8] c"SRCETH\00", align 1
@.str.4 = private unnamed_addr constant [6 x i8] c"SRCIP\00", align 1
@.str.5 = private unnamed_addr constant [7 x i8] c"DSTETH\00", align 1
@.str.6 = private unnamed_addr constant [6 x i8] c"DSTIP\00", align 1
@.str.7 = private unnamed_addr constant [6 x i8] c"FLOWS\00", align 1
@.str.8 = private unnamed_addr constant [9 x i8] c"FLOWSIZE\00", align 1
@.str.9 = private unnamed_addr constant [9 x i8] c"CHECKSUM\00", align 1
@.str.10 = private unnamed_addr constant [7 x i8] c"ACTIVE\00", align 1
@blank_args = external global %class.ArgContext, align 8
@.str.11 = private unnamed_addr constant [33 x i8] c"length parameter must be integer\00", align 1
@.str.12 = private unnamed_addr constant [6 x i8] c"count\00", align 1
@.str.13 = private unnamed_addr constant [5 x i8] c"rate\00", align 1
@.str.14 = private unnamed_addr constant [6 x i8] c"reset\00", align 1
@.str.15 = private unnamed_addr constant [7 x i8] c"active\00", align 1
@.str.16 = private unnamed_addr constant [6 x i8] c"limit\00", align 1
@.str.17 = private unnamed_addr constant [7 x i8] c"length\00", align 1
@_ZTVN10__cxxabiv120__si_class_type_infoE = external global i8*
@_ZTS12FastUDPFlows = dso_local constant [15 x i8] c"12FastUDPFlows\00", align 1
@_ZTI7Element = external constant i8*
@_ZTI12FastUDPFlows = dso_local constant { i8*, i8*, i8* } { i8* bitcast (i8** getelementptr inbounds (i8*, i8** @_ZTVN10__cxxabiv120__si_class_type_infoE, i64 2) to i8*), i8* getelementptr inbounds ([15 x i8], [15 x i8]* @_ZTS12FastUDPFlows, i32 0, i32 0), i8* bitcast (i8** @_ZTI7Element to i8*) }, align 8
@.str.18 = private unnamed_addr constant [46 x i8] c"warning: packet length < 60, defaulting to 60\00", align 1
@.str.19 = private unnamed_addr constant [2 x i8] c"0\00", align 1
@.str.20 = private unnamed_addr constant [36 x i8] c"rate parameter must be integer >= 0\00", align 1
@.str.21 = private unnamed_addr constant [26 x i8] c"rate too large; max is %u\00", align 1
@.str.22 = private unnamed_addr constant [33 x i8] c"active parameter must be boolean\00", align 1
@.str.23 = private unnamed_addr constant [37 x i8] c"limit parameter must be integer >= 0\00", align 1
@.str.24 = private unnamed_addr constant [15 x i8] c"invalid number\00", align 1
@.str.25 = private unnamed_addr constant [13 x i8] c"FastUDPFlows\00", align 1
@_ZN7Element9PORTS_0_1E = external constant [0 x i8], align 1
@_ZN7Element4PULLE = external constant [0 x i8], align 1
@.str.26 = private unnamed_addr constant [18 x i8] c"_r.memo->refcount\00", align 1
@.str.27 = private unnamed_addr constant [29 x i8] c"../dummy_inc/click/string.hh\00", align 1
@__PRETTY_FUNCTION__._ZNK6String5derefEv = private unnamed_addr constant [27 x i8] c"void String::deref() const\00", align 1

@_ZN12FastUDPFlowsC1Ev = dso_local unnamed_addr alias void (%class.FastUDPFlows*), void (%class.FastUDPFlows*)* @_ZN12FastUDPFlowsC2Ev
@_ZN12FastUDPFlowsD1Ev = dso_local unnamed_addr alias void (%class.FastUDPFlows*), void (%class.FastUDPFlows*)* @_ZN12FastUDPFlowsD2Ev

; Function Attrs: sspstrong uwtable
define dso_local void @_ZN12FastUDPFlowsC2Ev(%class.FastUDPFlows* %0) unnamed_addr #0 align 2 personality i8* bitcast (i32 (...)* @__gxx_personality_v0 to i8*) !dbg !2792 {
  call void @llvm.dbg.value(metadata %class.FastUDPFlows* %0, metadata !2794, metadata !DIExpression()), !dbg !2795
  %2 = bitcast %class.FastUDPFlows* %0 to %class.Element*, !dbg !2796
  tail call void @_ZN7ElementC2Ev(%class.Element* %2), !dbg !2797
  %3 = getelementptr %class.FastUDPFlows, %class.FastUDPFlows* %0, i64 0, i32 0, i32 0, !dbg !2796
  store i32 (...)** bitcast (i8** getelementptr inbounds ({ [29 x i8*] }, { [29 x i8*] }* @_ZTV12FastUDPFlows, i64 0, inrange i32 0, i64 2) to i32 (...)**), i32 (...)*** %3, align 8, !dbg !2796, !tbaa !2798
  %4 = getelementptr inbounds %class.FastUDPFlows, %class.FastUDPFlows* %0, i64 0, i32 16, !dbg !2801
  store %"struct.FastUDPFlows::flow_t"* null, %"struct.FastUDPFlows::flow_t"** %4, align 8, !dbg !2801, !tbaa !2802
  call void @llvm.dbg.value(metadata %class.FastUDPFlows* %0, metadata !2812, metadata !DIExpression(DW_OP_plus_uconst, 176, DW_OP_stack_value)), !dbg !2816
  call void @llvm.dbg.value(metadata %class.FastUDPFlows* %0, metadata !2818, metadata !DIExpression(DW_OP_plus_uconst, 176, DW_OP_stack_value)), !dbg !2822
  call void @llvm.dbg.value(metadata i32 0, metadata !2821, metadata !DIExpression()), !dbg !2822
  %5 = getelementptr inbounds %class.FastUDPFlows, %class.FastUDPFlows* %0, i64 0, i32 17, i32 3, !dbg !2825
  store i32 0, i32* %5, align 4, !dbg !2826, !tbaa !2827
  %6 = getelementptr inbounds %class.FastUDPFlows, %class.FastUDPFlows* %0, i64 0, i32 17, i32 0, !dbg !2828
  store i32 -198967295, i32* %6, align 4, !dbg !2829, !tbaa !2830
  call void @llvm.dbg.value(metadata %class.FastUDPFlows* %0, metadata !2831, metadata !DIExpression(DW_OP_plus_uconst, 176, DW_OP_stack_value)), !dbg !2834
  %7 = getelementptr inbounds %class.FastUDPFlows, %class.FastUDPFlows* %0, i64 0, i32 17, i32 2, !dbg !2836
  store i32 -1, i32* %7, align 4, !dbg !2837, !tbaa !2838
  %8 = getelementptr inbounds %class.FastUDPFlows, %class.FastUDPFlows* %0, i64 0, i32 1, !dbg !2839
  store i8 1, i8* %8, align 4, !dbg !2841, !tbaa !2842
  %9 = getelementptr inbounds %class.FastUDPFlows, %class.FastUDPFlows* %0, i64 0, i32 14, !dbg !2843
  store i32 0, i32* %9, align 8, !dbg !2844, !tbaa !2845
  %10 = getelementptr inbounds %class.FastUDPFlows, %class.FastUDPFlows* %0, i64 0, i32 13, !dbg !2846
  store i32 0, i32* %10, align 4, !dbg !2847, !tbaa !2848
  %11 = getelementptr inbounds %class.FastUDPFlows, %class.FastUDPFlows* %0, i64 0, i32 18, !dbg !2849
  store i32 0, i32* %11, align 8, !dbg !2850, !tbaa !2851
  ret void, !dbg !2852
}

; Function Attrs: nounwind readnone speculatable willreturn
declare void @llvm.dbg.declare(metadata, metadata, metadata) #1

declare void @_ZN7ElementC2Ev(%class.Element*) unnamed_addr #2

declare i32 @__gxx_personality_v0(...)

; Function Attrs: nounwind
declare void @_ZN7ElementD2Ev(%class.Element*) unnamed_addr #3

; Function Attrs: nounwind sspstrong uwtable
define dso_local void @_ZN12FastUDPFlowsD2Ev(%class.FastUDPFlows* %0) unnamed_addr #4 align 2 !dbg !2853 {
  call void @llvm.dbg.value(metadata %class.FastUDPFlows* %0, metadata !2855, metadata !DIExpression()), !dbg !2856
  %2 = bitcast %class.FastUDPFlows* %0 to %class.Element*, !dbg !2857
  tail call void @_ZN7ElementD2Ev(%class.Element* %2) #13, !dbg !2857
  ret void, !dbg !2859
}

; Function Attrs: nounwind sspstrong uwtable
define dso_local void @_ZN12FastUDPFlowsD0Ev(%class.FastUDPFlows* %0) unnamed_addr #4 align 2 !dbg !2860 {
  call void @llvm.dbg.value(metadata %class.FastUDPFlows* %0, metadata !2862, metadata !DIExpression()), !dbg !2863
  call void @llvm.dbg.value(metadata %class.FastUDPFlows* %0, metadata !2855, metadata !DIExpression()) #13, !dbg !2864
  %2 = bitcast %class.FastUDPFlows* %0 to %class.Element*, !dbg !2866
  tail call void @_ZN7ElementD2Ev(%class.Element* %2) #13, !dbg !2866
  %3 = bitcast %class.FastUDPFlows* %0 to i8*, !dbg !2867
  tail call void @_ZdlPv(i8* %3) #14, !dbg !2867
  ret void, !dbg !2868
}

; Function Attrs: nobuiltin nounwind
declare void @_ZdlPv(i8*) local_unnamed_addr #5

; Function Attrs: sspstrong uwtable
define dso_local i32 @_ZN12FastUDPFlows9configureER6VectorI6StringEP12ErrorHandler(%class.FastUDPFlows* %0, %class.Vector* dereferenceable(16) %1, %class.ErrorHandler* %2) unnamed_addr #0 align 2 personality i8* bitcast (i32 (...)* @__gxx_personality_v0 to i8*) !dbg !2869 {
  %4 = alloca i32, align 4
  %5 = alloca i32, align 4
  %6 = alloca i32, align 4
  %7 = alloca %class.Args, align 8
  call void @llvm.dbg.value(metadata %class.FastUDPFlows* %0, metadata !2871, metadata !DIExpression()), !dbg !2877
  call void @llvm.dbg.value(metadata %class.Vector* %1, metadata !2872, metadata !DIExpression()), !dbg !2877
  call void @llvm.dbg.value(metadata %class.ErrorHandler* %2, metadata !2873, metadata !DIExpression()), !dbg !2877
  %8 = getelementptr inbounds %class.FastUDPFlows, %class.FastUDPFlows* %0, i64 0, i32 11, !dbg !2878
  store i8 1, i8* %8, align 8, !dbg !2879, !tbaa !2880
  %9 = getelementptr inbounds %class.FastUDPFlows, %class.FastUDPFlows* %0, i64 0, i32 20, !dbg !2881
  store i8 1, i8* %9, align 8, !dbg !2882, !tbaa !2883
  %10 = bitcast i32* %4 to i8*, !dbg !2884
  call void @llvm.lifetime.start.p0i8(i64 4, i8* nonnull %10) #13, !dbg !2884
  %11 = bitcast i32* %5 to i8*, !dbg !2885
  call void @llvm.lifetime.start.p0i8(i64 4, i8* nonnull %11) #13, !dbg !2885
  %12 = bitcast i32* %6 to i8*, !dbg !2886
  call void @llvm.lifetime.start.p0i8(i64 4, i8* nonnull %12) #13, !dbg !2886
  %13 = bitcast %class.Args* %7 to i8*, !dbg !2887
  call void @llvm.lifetime.start.p0i8(i64 112, i8* nonnull %13) #13, !dbg !2887
  %14 = bitcast %class.FastUDPFlows* %0 to %class.Element*, !dbg !2889
  call void @_ZN4ArgsC1ERK6VectorI6StringEPK7ElementP12ErrorHandler(%class.Args* nonnull %7, %class.Vector* nonnull dereferenceable(16) %1, %class.Element* %14, %class.ErrorHandler* %2), !dbg !2887
  call void @llvm.dbg.value(metadata %class.Args* %7, metadata !2890, metadata !DIExpression()), !dbg !2898
  call void @llvm.dbg.value(metadata i8* getelementptr inbounds ([5 x i8], [5 x i8]* @.str, i64 0, i64 0), metadata !2896, metadata !DIExpression()), !dbg !2898
  call void @llvm.dbg.value(metadata i32* %4, metadata !2897, metadata !DIExpression()), !dbg !2898
  call void @llvm.dbg.value(metadata %class.Args* %7, metadata !2900, metadata !DIExpression()), !dbg !2909
  call void @llvm.dbg.value(metadata i8* getelementptr inbounds ([5 x i8], [5 x i8]* @.str, i64 0, i64 0), metadata !2906, metadata !DIExpression()), !dbg !2909
  call void @llvm.dbg.value(metadata i32 3, metadata !2907, metadata !DIExpression()), !dbg !2909
  call void @llvm.dbg.value(metadata i32* %4, metadata !2908, metadata !DIExpression()), !dbg !2909
  invoke void @_Z14args_base_readIjEvP4ArgsPKciRT_(%class.Args* nonnull %7, i8* getelementptr inbounds ([5 x i8], [5 x i8]* @.str, i64 0, i64 0), i32 3, i32* nonnull dereferenceable(4) %4)
          to label %15 unwind label %35, !dbg !2911

15:                                               ; preds = %3
  call void @llvm.dbg.value(metadata %class.Args* %7, metadata !2912, metadata !DIExpression()), !dbg !2920
  call void @llvm.dbg.value(metadata i8* getelementptr inbounds ([6 x i8], [6 x i8]* @.str.1, i64 0, i64 0), metadata !2918, metadata !DIExpression()), !dbg !2920
  call void @llvm.dbg.value(metadata i32* %5, metadata !2919, metadata !DIExpression()), !dbg !2920
  call void @llvm.dbg.value(metadata %class.Args* %7, metadata !2922, metadata !DIExpression()), !dbg !2931
  call void @llvm.dbg.value(metadata i8* getelementptr inbounds ([6 x i8], [6 x i8]* @.str.1, i64 0, i64 0), metadata !2928, metadata !DIExpression()), !dbg !2931
  call void @llvm.dbg.value(metadata i32 3, metadata !2929, metadata !DIExpression()), !dbg !2931
  call void @llvm.dbg.value(metadata i32* %5, metadata !2930, metadata !DIExpression()), !dbg !2931
  invoke void @_Z14args_base_readIiEvP4ArgsPKciRT_(%class.Args* nonnull %7, i8* getelementptr inbounds ([6 x i8], [6 x i8]* @.str.1, i64 0, i64 0), i32 3, i32* nonnull dereferenceable(4) %5)
          to label %16 unwind label %35, !dbg !2933

16:                                               ; preds = %15
  call void @llvm.dbg.value(metadata %class.Args* %7, metadata !2912, metadata !DIExpression()), !dbg !2934
  call void @llvm.dbg.value(metadata i8* getelementptr inbounds ([7 x i8], [7 x i8]* @.str.2, i64 0, i64 0), metadata !2918, metadata !DIExpression()), !dbg !2934
  call void @llvm.dbg.value(metadata i32* %6, metadata !2919, metadata !DIExpression()), !dbg !2934
  call void @llvm.dbg.value(metadata %class.Args* %7, metadata !2922, metadata !DIExpression()), !dbg !2936
  call void @llvm.dbg.value(metadata i8* getelementptr inbounds ([7 x i8], [7 x i8]* @.str.2, i64 0, i64 0), metadata !2928, metadata !DIExpression()), !dbg !2936
  call void @llvm.dbg.value(metadata i32 3, metadata !2929, metadata !DIExpression()), !dbg !2936
  call void @llvm.dbg.value(metadata i32* %6, metadata !2930, metadata !DIExpression()), !dbg !2936
  invoke void @_Z14args_base_readIiEvP4ArgsPKciRT_(%class.Args* nonnull %7, i8* getelementptr inbounds ([7 x i8], [7 x i8]* @.str.2, i64 0, i64 0), i32 3, i32* nonnull dereferenceable(4) %6)
          to label %17 unwind label %35, !dbg !2938

17:                                               ; preds = %16
  %18 = getelementptr inbounds %class.FastUDPFlows, %class.FastUDPFlows* %0, i64 0, i32 4, i32 1, !dbg !2939
  call void @llvm.dbg.value(metadata i32 0, metadata !2940, metadata !DIExpression()), !dbg !2949
  call void @llvm.dbg.value(metadata %class.Args* %7, metadata !2946, metadata !DIExpression()), !dbg !2949
  call void @llvm.dbg.value(metadata i8* getelementptr inbounds ([7 x i8], [7 x i8]* @.str.3, i64 0, i64 0), metadata !2947, metadata !DIExpression()), !dbg !2949
  call void @llvm.dbg.value(metadata [6 x i8]* %18, metadata !2948, metadata !DIExpression()), !dbg !2949
  call void @llvm.dbg.value(metadata i32 0, metadata !2951, metadata !DIExpression()), !dbg !2961
  call void @llvm.dbg.value(metadata %class.Args* %7, metadata !2957, metadata !DIExpression()), !dbg !2961
  call void @llvm.dbg.value(metadata i8* getelementptr inbounds ([7 x i8], [7 x i8]* @.str.3, i64 0, i64 0), metadata !2958, metadata !DIExpression()), !dbg !2961
  call void @llvm.dbg.value(metadata i32 3, metadata !2959, metadata !DIExpression()), !dbg !2961
  call void @llvm.dbg.value(metadata [6 x i8]* %18, metadata !2960, metadata !DIExpression()), !dbg !2961
  invoke void @_Z14args_base_readI15EtherAddressArgA6_hEvP4ArgsPKciT_RT0_(%class.Args* nonnull %7, i8* getelementptr inbounds ([7 x i8], [7 x i8]* @.str.3, i64 0, i64 0), i32 3, i32 0, [6 x i8]* nonnull dereferenceable(6) %18)
          to label %19 unwind label %35, !dbg !2963

19:                                               ; preds = %17
  %20 = getelementptr inbounds %class.FastUDPFlows, %class.FastUDPFlows* %0, i64 0, i32 6, !dbg !2964
  call void @llvm.dbg.value(metadata %class.Args* %7, metadata !2965, metadata !DIExpression()), !dbg !2973
  call void @llvm.dbg.value(metadata i8* getelementptr inbounds ([6 x i8], [6 x i8]* @.str.4, i64 0, i64 0), metadata !2971, metadata !DIExpression()), !dbg !2973
  call void @llvm.dbg.value(metadata %struct.in_addr* %20, metadata !2972, metadata !DIExpression()), !dbg !2973
  call void @llvm.dbg.value(metadata %class.Args* %7, metadata !2975, metadata !DIExpression()), !dbg !2984
  call void @llvm.dbg.value(metadata i8* getelementptr inbounds ([6 x i8], [6 x i8]* @.str.4, i64 0, i64 0), metadata !2981, metadata !DIExpression()), !dbg !2984
  call void @llvm.dbg.value(metadata i32 3, metadata !2982, metadata !DIExpression()), !dbg !2984
  call void @llvm.dbg.value(metadata %struct.in_addr* %20, metadata !2983, metadata !DIExpression()), !dbg !2984
  invoke void @_Z14args_base_readI7in_addrEvP4ArgsPKciRT_(%class.Args* nonnull %7, i8* getelementptr inbounds ([6 x i8], [6 x i8]* @.str.4, i64 0, i64 0), i32 3, %struct.in_addr* nonnull dereferenceable(4) %20)
          to label %21 unwind label %35, !dbg !2986

21:                                               ; preds = %19
  %22 = getelementptr inbounds %class.FastUDPFlows, %class.FastUDPFlows* %0, i64 0, i32 4, i32 0, !dbg !2987
  call void @llvm.dbg.value(metadata i32 0, metadata !2940, metadata !DIExpression()), !dbg !2988
  call void @llvm.dbg.value(metadata %class.Args* %7, metadata !2946, metadata !DIExpression()), !dbg !2988
  call void @llvm.dbg.value(metadata i8* getelementptr inbounds ([7 x i8], [7 x i8]* @.str.5, i64 0, i64 0), metadata !2947, metadata !DIExpression()), !dbg !2988
  call void @llvm.dbg.value(metadata [6 x i8]* %22, metadata !2948, metadata !DIExpression()), !dbg !2988
  call void @llvm.dbg.value(metadata i32 0, metadata !2951, metadata !DIExpression()), !dbg !2990
  call void @llvm.dbg.value(metadata %class.Args* %7, metadata !2957, metadata !DIExpression()), !dbg !2990
  call void @llvm.dbg.value(metadata i8* getelementptr inbounds ([7 x i8], [7 x i8]* @.str.5, i64 0, i64 0), metadata !2958, metadata !DIExpression()), !dbg !2990
  call void @llvm.dbg.value(metadata i32 3, metadata !2959, metadata !DIExpression()), !dbg !2990
  call void @llvm.dbg.value(metadata [6 x i8]* %22, metadata !2960, metadata !DIExpression()), !dbg !2990
  invoke void @_Z14args_base_readI15EtherAddressArgA6_hEvP4ArgsPKciT_RT0_(%class.Args* nonnull %7, i8* getelementptr inbounds ([7 x i8], [7 x i8]* @.str.5, i64 0, i64 0), i32 3, i32 0, [6 x i8]* nonnull dereferenceable(6) %22)
          to label %23 unwind label %35, !dbg !2992

23:                                               ; preds = %21
  %24 = getelementptr inbounds %class.FastUDPFlows, %class.FastUDPFlows* %0, i64 0, i32 7, !dbg !2993
  call void @llvm.dbg.value(metadata %class.Args* %7, metadata !2965, metadata !DIExpression()), !dbg !2994
  call void @llvm.dbg.value(metadata i8* getelementptr inbounds ([6 x i8], [6 x i8]* @.str.6, i64 0, i64 0), metadata !2971, metadata !DIExpression()), !dbg !2994
  call void @llvm.dbg.value(metadata %struct.in_addr* %24, metadata !2972, metadata !DIExpression()), !dbg !2994
  call void @llvm.dbg.value(metadata %class.Args* %7, metadata !2975, metadata !DIExpression()), !dbg !2996
  call void @llvm.dbg.value(metadata i8* getelementptr inbounds ([6 x i8], [6 x i8]* @.str.6, i64 0, i64 0), metadata !2981, metadata !DIExpression()), !dbg !2996
  call void @llvm.dbg.value(metadata i32 3, metadata !2982, metadata !DIExpression()), !dbg !2996
  call void @llvm.dbg.value(metadata %struct.in_addr* %24, metadata !2983, metadata !DIExpression()), !dbg !2996
  invoke void @_Z14args_base_readI7in_addrEvP4ArgsPKciRT_(%class.Args* nonnull %7, i8* getelementptr inbounds ([6 x i8], [6 x i8]* @.str.6, i64 0, i64 0), i32 3, %struct.in_addr* nonnull dereferenceable(4) %24)
          to label %25 unwind label %35, !dbg !2998

25:                                               ; preds = %23
  %26 = getelementptr inbounds %class.FastUDPFlows, %class.FastUDPFlows* %0, i64 0, i32 8, !dbg !2999
  call void @llvm.dbg.value(metadata %class.Args* %7, metadata !2890, metadata !DIExpression()), !dbg !3000
  call void @llvm.dbg.value(metadata i8* getelementptr inbounds ([6 x i8], [6 x i8]* @.str.7, i64 0, i64 0), metadata !2896, metadata !DIExpression()), !dbg !3000
  call void @llvm.dbg.value(metadata i32* %26, metadata !2897, metadata !DIExpression()), !dbg !3000
  call void @llvm.dbg.value(metadata %class.Args* %7, metadata !2900, metadata !DIExpression()), !dbg !3002
  call void @llvm.dbg.value(metadata i8* getelementptr inbounds ([6 x i8], [6 x i8]* @.str.7, i64 0, i64 0), metadata !2906, metadata !DIExpression()), !dbg !3002
  call void @llvm.dbg.value(metadata i32 3, metadata !2907, metadata !DIExpression()), !dbg !3002
  call void @llvm.dbg.value(metadata i32* %26, metadata !2908, metadata !DIExpression()), !dbg !3002
  invoke void @_Z14args_base_readIjEvP4ArgsPKciRT_(%class.Args* nonnull %7, i8* getelementptr inbounds ([6 x i8], [6 x i8]* @.str.7, i64 0, i64 0), i32 3, i32* nonnull dereferenceable(4) %26)
          to label %27 unwind label %35, !dbg !3004

27:                                               ; preds = %25
  %28 = getelementptr inbounds %class.FastUDPFlows, %class.FastUDPFlows* %0, i64 0, i32 10, !dbg !3005
  call void @llvm.dbg.value(metadata %class.Args* %7, metadata !2890, metadata !DIExpression()), !dbg !3006
  call void @llvm.dbg.value(metadata i8* getelementptr inbounds ([9 x i8], [9 x i8]* @.str.8, i64 0, i64 0), metadata !2896, metadata !DIExpression()), !dbg !3006
  call void @llvm.dbg.value(metadata i32* %28, metadata !2897, metadata !DIExpression()), !dbg !3006
  call void @llvm.dbg.value(metadata %class.Args* %7, metadata !2900, metadata !DIExpression()), !dbg !3008
  call void @llvm.dbg.value(metadata i8* getelementptr inbounds ([9 x i8], [9 x i8]* @.str.8, i64 0, i64 0), metadata !2906, metadata !DIExpression()), !dbg !3008
  call void @llvm.dbg.value(metadata i32 3, metadata !2907, metadata !DIExpression()), !dbg !3008
  call void @llvm.dbg.value(metadata i32* %28, metadata !2908, metadata !DIExpression()), !dbg !3008
  invoke void @_Z14args_base_readIjEvP4ArgsPKciRT_(%class.Args* nonnull %7, i8* getelementptr inbounds ([9 x i8], [9 x i8]* @.str.8, i64 0, i64 0), i32 3, i32* nonnull dereferenceable(4) %28)
          to label %29 unwind label %35, !dbg !3010

29:                                               ; preds = %27
  call void @llvm.dbg.value(metadata %class.Args* %7, metadata !3011, metadata !DIExpression()), !dbg !3019
  call void @llvm.dbg.value(metadata i8* getelementptr inbounds ([9 x i8], [9 x i8]* @.str.9, i64 0, i64 0), metadata !3017, metadata !DIExpression()), !dbg !3019
  call void @llvm.dbg.value(metadata i8* %8, metadata !3018, metadata !DIExpression()), !dbg !3019
  call void @llvm.dbg.value(metadata %class.Args* %7, metadata !3021, metadata !DIExpression()), !dbg !3030
  call void @llvm.dbg.value(metadata i8* getelementptr inbounds ([9 x i8], [9 x i8]* @.str.9, i64 0, i64 0), metadata !3027, metadata !DIExpression()), !dbg !3030
  call void @llvm.dbg.value(metadata i32 2, metadata !3028, metadata !DIExpression()), !dbg !3030
  call void @llvm.dbg.value(metadata i8* %8, metadata !3029, metadata !DIExpression()), !dbg !3030
  invoke void @_Z14args_base_readIbEvP4ArgsPKciRT_(%class.Args* nonnull %7, i8* getelementptr inbounds ([9 x i8], [9 x i8]* @.str.9, i64 0, i64 0), i32 2, i8* nonnull dereferenceable(1) %8)
          to label %30 unwind label %35, !dbg !3032

30:                                               ; preds = %29
  call void @llvm.dbg.value(metadata %class.Args* %7, metadata !3011, metadata !DIExpression()), !dbg !3033
  call void @llvm.dbg.value(metadata i8* getelementptr inbounds ([7 x i8], [7 x i8]* @.str.10, i64 0, i64 0), metadata !3017, metadata !DIExpression()), !dbg !3033
  call void @llvm.dbg.value(metadata i8* %9, metadata !3018, metadata !DIExpression()), !dbg !3033
  call void @llvm.dbg.value(metadata %class.Args* %7, metadata !3021, metadata !DIExpression()), !dbg !3035
  call void @llvm.dbg.value(metadata i8* getelementptr inbounds ([7 x i8], [7 x i8]* @.str.10, i64 0, i64 0), metadata !3027, metadata !DIExpression()), !dbg !3035
  call void @llvm.dbg.value(metadata i32 2, metadata !3028, metadata !DIExpression()), !dbg !3035
  call void @llvm.dbg.value(metadata i8* %9, metadata !3029, metadata !DIExpression()), !dbg !3035
  invoke void @_Z14args_base_readIbEvP4ArgsPKciRT_(%class.Args* nonnull %7, i8* getelementptr inbounds ([7 x i8], [7 x i8]* @.str.10, i64 0, i64 0), i32 2, i8* nonnull dereferenceable(1) %9)
          to label %31 unwind label %35, !dbg !3037

31:                                               ; preds = %30
  %32 = invoke i32 @_ZN4Args8completeEv(%class.Args* nonnull %7)
          to label %33 unwind label %35, !dbg !3038

33:                                               ; preds = %31
  %34 = icmp slt i32 %32, 0, !dbg !3039
  call void @_ZN4ArgsD1Ev(%class.Args* nonnull %7) #13, !dbg !2887
  call void @llvm.lifetime.end.p0i8(i64 112, i8* nonnull %13) #13, !dbg !2887
  br i1 %34, label %56, label %37, !dbg !3040

35:                                               ; preds = %29, %27, %25, %23, %21, %30, %19, %17, %16, %15, %3, %31
  %36 = landingpad { i8*, i32 }
          cleanup, !dbg !3041
  call void @_ZN4ArgsD1Ev(%class.Args* nonnull %7) #13, !dbg !2887
  call void @llvm.lifetime.end.p0i8(i64 112, i8* nonnull %13) #13, !dbg !2887
  call void @llvm.lifetime.end.p0i8(i64 4, i8* nonnull %12) #13, !dbg !3042
  call void @llvm.lifetime.end.p0i8(i64 4, i8* nonnull %11) #13, !dbg !3042
  call void @llvm.lifetime.end.p0i8(i64 4, i8* nonnull %10) #13, !dbg !3042
  resume { i8*, i32 } %36, !dbg !3042

37:                                               ; preds = %33
  %38 = load i32, i32* %6, align 4, !dbg !3043, !tbaa !3044
  call void @llvm.dbg.value(metadata i32 %38, metadata !2876, metadata !DIExpression()), !dbg !2877
  call void @llvm.dbg.value(metadata %class.FastUDPFlows* %0, metadata !3045, metadata !DIExpression()), !dbg !3049
  call void @llvm.dbg.value(metadata i32 %38, metadata !3048, metadata !DIExpression()), !dbg !3049
  %39 = icmp ult i32 %38, 60, !dbg !3051
  br i1 %39, label %40, label %41, !dbg !3053

40:                                               ; preds = %37
  call void (i8*, ...) @click_chatter(i8* getelementptr inbounds ([46 x i8], [46 x i8]* @.str.18, i64 0, i64 0)), !dbg !3054
  call void @llvm.dbg.value(metadata i32 60, metadata !3048, metadata !DIExpression()), !dbg !3049
  br label %41, !dbg !3056

41:                                               ; preds = %37, %40
  %42 = phi i32 [ 60, %40 ], [ %38, %37 ]
  call void @llvm.dbg.value(metadata i32 %42, metadata !3048, metadata !DIExpression()), !dbg !3049
  %43 = getelementptr inbounds %class.FastUDPFlows, %class.FastUDPFlows* %0, i64 0, i32 3, !dbg !3057
  store i32 %42, i32* %43, align 8, !dbg !3058, !tbaa !3059
  %44 = getelementptr inbounds %class.FastUDPFlows, %class.FastUDPFlows* %0, i64 0, i32 4, i32 2, !dbg !3060
  store i16 8, i16* %44, align 4, !dbg !3061, !tbaa !3062
  %45 = load i32, i32* %4, align 4, !dbg !3063, !tbaa !3044
  call void @llvm.dbg.value(metadata i32 %45, metadata !2874, metadata !DIExpression()), !dbg !2877
  %46 = icmp eq i32 %45, 0, !dbg !3065
  %47 = getelementptr inbounds %class.FastUDPFlows, %class.FastUDPFlows* %0, i64 0, i32 1, !dbg !3066
  br i1 %46, label %50, label %48, !dbg !3067

48:                                               ; preds = %41
  store i8 1, i8* %47, align 4, !dbg !3068, !tbaa !2842
  %49 = getelementptr inbounds %class.FastUDPFlows, %class.FastUDPFlows* %0, i64 0, i32 17, !dbg !3070
  call void @llvm.dbg.value(metadata i32 %45, metadata !2874, metadata !DIExpression()), !dbg !2877
  call void @_ZN7GapRate8set_rateEjP12ErrorHandler(%class.GapRate* nonnull %49, i32 %45, %class.ErrorHandler* %2), !dbg !3071
  br label %51, !dbg !3072

50:                                               ; preds = %41
  store i8 0, i8* %47, align 4, !dbg !3073, !tbaa !2842
  br label %51

51:                                               ; preds = %50, %48
  %52 = load i32, i32* %5, align 4, !dbg !3075, !tbaa !3044
  call void @llvm.dbg.value(metadata i32 %52, metadata !2875, metadata !DIExpression()), !dbg !2877
  %53 = icmp sgt i32 %52, -1, !dbg !3076
  %54 = select i1 %53, i32 %52, i32 -1, !dbg !3075
  %55 = getelementptr inbounds %class.FastUDPFlows, %class.FastUDPFlows* %0, i64 0, i32 19, !dbg !3077
  store i32 %54, i32* %55, align 4, !dbg !3078, !tbaa !3079
  br label %56, !dbg !3080

56:                                               ; preds = %33, %51
  %57 = phi i32 [ 0, %51 ], [ -1, %33 ], !dbg !2877
  call void @llvm.lifetime.end.p0i8(i64 4, i8* nonnull %12) #13, !dbg !3042
  call void @llvm.lifetime.end.p0i8(i64 4, i8* nonnull %11) #13, !dbg !3042
  call void @llvm.lifetime.end.p0i8(i64 4, i8* nonnull %10) #13, !dbg !3042
  ret i32 %57, !dbg !3042
}

; Function Attrs: argmemonly nounwind willreturn
declare void @llvm.lifetime.start.p0i8(i64 immarg, i8* nocapture) #6

declare void @_ZN4ArgsC1ERK6VectorI6StringEPK7ElementP12ErrorHandler(%class.Args*, %class.Vector* dereferenceable(16), %class.Element*, %class.ErrorHandler*) unnamed_addr #2

declare i32 @_ZN4Args8completeEv(%class.Args*) local_unnamed_addr #2

; Function Attrs: nounwind
declare void @_ZN4ArgsD1Ev(%class.Args*) unnamed_addr #3

; Function Attrs: argmemonly nounwind willreturn
declare void @llvm.lifetime.end.p0i8(i64 immarg, i8* nocapture) #6

declare void @_ZN7GapRate8set_rateEjP12ErrorHandler(%class.GapRate*, i32, %class.ErrorHandler*) local_unnamed_addr #2

; Function Attrs: sspstrong uwtable
define dso_local void @_ZN12FastUDPFlows12change_portsEi(%class.FastUDPFlows* nocapture readonly %0, i32 %1) local_unnamed_addr #0 align 2 !dbg !3081 {
  call void @llvm.dbg.value(metadata %class.FastUDPFlows* %0, metadata !3083, metadata !DIExpression()), !dbg !3092
  call void @llvm.dbg.value(metadata i32 %1, metadata !3084, metadata !DIExpression()), !dbg !3092
  %3 = getelementptr inbounds %class.FastUDPFlows, %class.FastUDPFlows* %0, i64 0, i32 16, !dbg !3093
  %4 = load %"struct.FastUDPFlows::flow_t"*, %"struct.FastUDPFlows::flow_t"** %3, align 8, !dbg !3093, !tbaa !2802
  %5 = sext i32 %1 to i64, !dbg !3093
  %6 = getelementptr inbounds %"struct.FastUDPFlows::flow_t", %"struct.FastUDPFlows::flow_t"* %4, i64 %5, i32 0, !dbg !3094
  %7 = load %class.Packet*, %class.Packet** %6, align 8, !dbg !3094, !tbaa !3095
  %8 = tail call %class.WritablePacket* @_ZN6Packet9uniqueifyEv(%class.Packet* %7), !dbg !3097
  call void @llvm.dbg.value(metadata %class.WritablePacket* %8, metadata !3085, metadata !DIExpression()), !dbg !3092
  %9 = getelementptr %class.WritablePacket, %class.WritablePacket* %8, i64 0, i32 0, !dbg !3098
  %10 = load %"struct.FastUDPFlows::flow_t"*, %"struct.FastUDPFlows::flow_t"** %3, align 8, !dbg !3099, !tbaa !2802
  %11 = getelementptr inbounds %"struct.FastUDPFlows::flow_t", %"struct.FastUDPFlows::flow_t"* %10, i64 %5, i32 0, !dbg !3100
  store %class.Packet* %9, %class.Packet** %11, align 8, !dbg !3101, !tbaa !3095
  %12 = tail call i8* @_ZNK14WritablePacket4dataEv(%class.WritablePacket* %8), !dbg !3102
  call void @llvm.dbg.value(metadata i8* %12, metadata !3086, metadata !DIExpression(DW_OP_plus_uconst, 14, DW_OP_stack_value)), !dbg !3092
  %13 = getelementptr inbounds i8, i8* %12, i64 34, !dbg !3103
  call void @llvm.dbg.value(metadata i8* %13, metadata !3087, metadata !DIExpression()), !dbg !3092
  %14 = tail call i64 @random() #13, !dbg !3104
  %15 = trunc i64 %14 to i32, !dbg !3104
  %16 = lshr i32 %15, 2, !dbg !3109
  %17 = urem i32 %16, 65535, !dbg !3110
  %18 = trunc i32 %17 to i16, !dbg !3111
  %19 = bitcast i8* %13 to i16*, !dbg !3112
  store i16 %18, i16* %19, align 2, !dbg !3113, !tbaa !3114
  %20 = tail call i64 @random() #13, !dbg !3116
  %21 = trunc i64 %20 to i32, !dbg !3116
  %22 = lshr i32 %21, 2, !dbg !3118
  %23 = urem i32 %22, 65535, !dbg !3119
  %24 = trunc i32 %23 to i16, !dbg !3120
  %25 = getelementptr inbounds i8, i8* %12, i64 36, !dbg !3121
  %26 = bitcast i8* %25 to i16*, !dbg !3121
  store i16 %24, i16* %26, align 2, !dbg !3122, !tbaa !3123
  %27 = getelementptr inbounds i8, i8* %12, i64 40, !dbg !3124
  %28 = bitcast i8* %27 to i16*, !dbg !3124
  store i16 0, i16* %28, align 2, !dbg !3125, !tbaa !3126
  call void @llvm.dbg.value(metadata i32 undef, metadata !3088, metadata !DIExpression(DW_OP_constu, 14, DW_OP_minus, DW_OP_constu, 20, DW_OP_minus, DW_OP_LLVM_convert, 64, DW_ATE_unsigned, DW_OP_LLVM_convert, 16, DW_ATE_unsigned, DW_OP_stack_value)), !dbg !3092
  %29 = getelementptr inbounds %class.FastUDPFlows, %class.FastUDPFlows* %0, i64 0, i32 11, !dbg !3127
  %30 = load i8, i8* %29, align 8, !dbg !3127, !tbaa !2880, !range !3128
  %31 = icmp eq i8 %30, 0, !dbg !3127
  br i1 %31, label %57, label %32, !dbg !3129

32:                                               ; preds = %2
  %33 = getelementptr inbounds i8, i8* %12, i64 14, !dbg !3130
  call void @llvm.dbg.value(metadata i8* %33, metadata !3086, metadata !DIExpression()), !dbg !3092
  %34 = getelementptr inbounds %class.FastUDPFlows, %class.FastUDPFlows* %0, i64 0, i32 3, !dbg !3131
  %35 = load i32, i32* %34, align 8, !dbg !3131, !tbaa !3059
  call void @llvm.dbg.value(metadata i32 %35, metadata !3088, metadata !DIExpression(DW_OP_constu, 14, DW_OP_minus, DW_OP_constu, 20, DW_OP_minus, DW_OP_LLVM_convert, 64, DW_ATE_unsigned, DW_OP_LLVM_convert, 16, DW_ATE_unsigned, DW_OP_stack_value)), !dbg !3092
  call void @llvm.dbg.value(metadata i32 %35, metadata !3088, metadata !DIExpression(DW_OP_plus_uconst, 65522, DW_OP_constu, 20, DW_OP_minus, DW_OP_LLVM_convert, 64, DW_ATE_unsigned, DW_OP_LLVM_convert, 16, DW_ATE_unsigned, DW_OP_stack_value)), !dbg !3092
  %36 = add i32 %35, 65502, !dbg !3132
  call void @llvm.dbg.value(metadata i32 %35, metadata !3088, metadata !DIExpression(DW_OP_plus_uconst, 65522, DW_OP_LLVM_convert, 32, DW_ATE_unsigned, DW_OP_LLVM_convert, 16, DW_ATE_unsigned, DW_OP_constu, 20, DW_OP_minus, DW_OP_stack_value)), !dbg !3092
  call void @llvm.dbg.value(metadata i8* %13, metadata !3087, metadata !DIExpression()), !dbg !3092
  call void @llvm.dbg.value(metadata i8* %33, metadata !3086, metadata !DIExpression()), !dbg !3092
  %37 = and i32 %36, 65535, !dbg !3133
  %38 = tail call zeroext i16 @click_in_cksum(i8* nonnull %13, i32 %37), !dbg !3134
  %39 = zext i16 %38 to i32, !dbg !3134
  call void @llvm.dbg.value(metadata i32 %39, metadata !3089, metadata !DIExpression()), !dbg !3135
  call void @llvm.dbg.value(metadata i32 %39, metadata !3136, metadata !DIExpression()), !dbg !3143
  call void @llvm.dbg.value(metadata i8* %33, metadata !3141, metadata !DIExpression()), !dbg !3143
  call void @llvm.dbg.value(metadata i32 %37, metadata !3142, metadata !DIExpression()), !dbg !3143
  %40 = load i8, i8* %33, align 4, !dbg !3145
  %41 = and i8 %40, 15, !dbg !3145
  %42 = icmp eq i8 %41, 5, !dbg !3147
  br i1 %42, label %43, label %54, !dbg !3148

43:                                               ; preds = %32
  %44 = getelementptr inbounds i8, i8* %12, i64 26, !dbg !3149
  %45 = bitcast i8* %44 to i32*, !dbg !3149
  %46 = load i32, i32* %45, align 4, !dbg !3149, !tbaa !3150
  %47 = getelementptr inbounds i8, i8* %12, i64 30, !dbg !3152
  %48 = bitcast i8* %47 to i32*, !dbg !3152
  %49 = load i32, i32* %48, align 4, !dbg !3152, !tbaa !3153
  %50 = getelementptr inbounds i8, i8* %12, i64 23, !dbg !3154
  %51 = load i8, i8* %50, align 1, !dbg !3154, !tbaa !3155
  %52 = zext i8 %51 to i32, !dbg !3156
  %53 = tail call zeroext i16 @click_in_cksum_pseudohdr_raw(i32 %39, i32 %46, i32 %49, i32 %52, i32 %37), !dbg !3157
  br label %57, !dbg !3158

54:                                               ; preds = %32
  %55 = bitcast i8* %33 to %struct.click_ip*, !dbg !3159
  call void @llvm.dbg.value(metadata %struct.click_ip* %55, metadata !3086, metadata !DIExpression()), !dbg !3092
  call void @llvm.dbg.value(metadata %struct.click_ip* %55, metadata !3141, metadata !DIExpression()), !dbg !3143
  %56 = tail call zeroext i16 @click_in_cksum_pseudohdr_hard(i32 %39, %struct.click_ip* nonnull %55, i32 %37), !dbg !3160
  br label %57, !dbg !3161

57:                                               ; preds = %54, %43, %2
  %58 = phi i16 [ 0, %2 ], [ %53, %43 ], [ %56, %54 ], !dbg !3162
  store i16 %58, i16* %28, align 2, !dbg !3162, !tbaa !3126
  ret void, !dbg !3163
}

declare %class.WritablePacket* @_ZN6Packet9uniqueifyEv(%class.Packet*) local_unnamed_addr #2

declare i8* @_ZNK14WritablePacket4dataEv(%class.WritablePacket*) local_unnamed_addr #2

declare !dbg !1363 zeroext i16 @click_in_cksum(i8*, i32) local_unnamed_addr #2

; Function Attrs: sspstrong uwtable
define dso_local %class.Packet* @_ZN12FastUDPFlows10get_packetEv(%class.FastUDPFlows* nocapture readonly %0) local_unnamed_addr #0 align 2 !dbg !3164 {
  call void @llvm.dbg.value(metadata %class.FastUDPFlows* %0, metadata !3166, metadata !DIExpression()), !dbg !3168
  %2 = tail call i64 @random() #13, !dbg !3169
  %3 = trunc i64 %2 to i32, !dbg !3169
  %4 = lshr i32 %3, 2, !dbg !3171
  %5 = getelementptr inbounds %class.FastUDPFlows, %class.FastUDPFlows* %0, i64 0, i32 8, !dbg !3172
  %6 = load i32, i32* %5, align 4, !dbg !3172, !tbaa !3173
  %7 = urem i32 %4, %6, !dbg !3174
  call void @llvm.dbg.value(metadata i32 %7, metadata !3167, metadata !DIExpression()), !dbg !3168
  %8 = getelementptr inbounds %class.FastUDPFlows, %class.FastUDPFlows* %0, i64 0, i32 16, !dbg !3175
  %9 = load %"struct.FastUDPFlows::flow_t"*, %"struct.FastUDPFlows::flow_t"** %8, align 8, !dbg !3175, !tbaa !2802
  %10 = zext i32 %7 to i64, !dbg !3175
  %11 = getelementptr inbounds %"struct.FastUDPFlows::flow_t", %"struct.FastUDPFlows::flow_t"* %9, i64 %10, i32 1, !dbg !3177
  %12 = load i32, i32* %11, align 8, !dbg !3177, !tbaa !3178
  %13 = getelementptr inbounds %class.FastUDPFlows, %class.FastUDPFlows* %0, i64 0, i32 10, !dbg !3179
  %14 = load i32, i32* %13, align 4, !dbg !3179, !tbaa !3180
  %15 = icmp eq i32 %12, %14, !dbg !3181
  br i1 %15, label %16, label %19, !dbg !3182

16:                                               ; preds = %1
  tail call void @_ZN12FastUDPFlows12change_portsEi(%class.FastUDPFlows* nonnull %0, i32 %7), !dbg !3183
  %17 = load %"struct.FastUDPFlows::flow_t"*, %"struct.FastUDPFlows::flow_t"** %8, align 8, !dbg !3185, !tbaa !2802
  %18 = getelementptr inbounds %"struct.FastUDPFlows::flow_t", %"struct.FastUDPFlows::flow_t"* %17, i64 %10, i32 1, !dbg !3186
  store i32 0, i32* %18, align 8, !dbg !3187, !tbaa !3178
  br label %19, !dbg !3188

19:                                               ; preds = %16, %1
  %20 = phi i32 [ 0, %16 ], [ %12, %1 ], !dbg !3189
  %21 = phi %"struct.FastUDPFlows::flow_t"* [ %17, %16 ], [ %9, %1 ], !dbg !3190
  %22 = getelementptr inbounds %"struct.FastUDPFlows::flow_t", %"struct.FastUDPFlows::flow_t"* %21, i64 %10, i32 1, !dbg !3191
  %23 = add i32 %20, 1, !dbg !3189
  store i32 %23, i32* %22, align 8, !dbg !3189, !tbaa !3178
  %24 = getelementptr inbounds %"struct.FastUDPFlows::flow_t", %"struct.FastUDPFlows::flow_t"* %21, i64 %10, i32 0, !dbg !3192
  %25 = load %class.Packet*, %class.Packet** %24, align 8, !dbg !3192, !tbaa !3095
  %26 = tail call %class.Packet* @_ZN6Packet5cloneEv(%class.Packet* %25), !dbg !3193
  ret %class.Packet* %26, !dbg !3194
}

declare %class.Packet* @_ZN6Packet5cloneEv(%class.Packet*) local_unnamed_addr #2

; Function Attrs: sspstrong uwtable
define dso_local i32 @_ZN12FastUDPFlows10initializeEP12ErrorHandler(%class.FastUDPFlows* nocapture %0, %class.ErrorHandler* nocapture readnone %1) unnamed_addr #0 align 2 !dbg !3195 {
  call void @llvm.dbg.value(metadata %class.FastUDPFlows* %0, metadata !3197, metadata !DIExpression()), !dbg !3210
  call void @llvm.dbg.value(metadata %class.ErrorHandler* undef, metadata !3198, metadata !DIExpression()), !dbg !3210
  %3 = getelementptr inbounds %class.FastUDPFlows, %class.FastUDPFlows* %0, i64 0, i32 18, !dbg !3211
  store i32 0, i32* %3, align 8, !dbg !3212, !tbaa !2851
  %4 = getelementptr inbounds %class.FastUDPFlows, %class.FastUDPFlows* %0, i64 0, i32 8, !dbg !3213
  %5 = load i32, i32* %4, align 4, !dbg !3213, !tbaa !3173
  %6 = zext i32 %5 to i64, !dbg !3213
  %7 = shl nuw nsw i64 %6, 4, !dbg !3214
  %8 = tail call i8* @_Znam(i64 %7) #15, !dbg !3214
  %9 = getelementptr inbounds %class.FastUDPFlows, %class.FastUDPFlows* %0, i64 0, i32 16, !dbg !3215
  %10 = bitcast %"struct.FastUDPFlows::flow_t"** %9 to i8**, !dbg !3216
  store i8* %8, i8** %10, align 8, !dbg !3216, !tbaa !2802
  call void @llvm.dbg.value(metadata i32 0, metadata !3199, metadata !DIExpression()), !dbg !3217
  %11 = icmp eq i32 %5, 0, !dbg !3218
  br i1 %11, label %18, label %12, !dbg !3219

12:                                               ; preds = %2
  %13 = getelementptr inbounds %class.FastUDPFlows, %class.FastUDPFlows* %0, i64 0, i32 3, !dbg !3220
  %14 = getelementptr inbounds %class.FastUDPFlows, %class.FastUDPFlows* %0, i64 0, i32 4, i32 0, i64 0, !dbg !3220
  %15 = getelementptr inbounds %class.FastUDPFlows, %class.FastUDPFlows* %0, i64 0, i32 6, i32 0, !dbg !3220
  %16 = getelementptr inbounds %class.FastUDPFlows, %class.FastUDPFlows* %0, i64 0, i32 7, i32 0, !dbg !3220
  %17 = getelementptr inbounds %class.FastUDPFlows, %class.FastUDPFlows* %0, i64 0, i32 11, !dbg !3221
  br label %20, !dbg !3219

18:                                               ; preds = %99, %2
  %19 = getelementptr inbounds %class.FastUDPFlows, %class.FastUDPFlows* %0, i64 0, i32 9, !dbg !3222
  store i32 0, i32* %19, align 8, !dbg !3223, !tbaa !3224
  ret i32 0, !dbg !3225

20:                                               ; preds = %12, %99
  %21 = phi i64 [ 0, %12 ], [ %103, %99 ]
  call void @llvm.dbg.value(metadata i64 %21, metadata !3199, metadata !DIExpression()), !dbg !3217
  %22 = load i32, i32* %13, align 8, !dbg !3226, !tbaa !3059
  call void @llvm.dbg.value(metadata i32 %22, metadata !3227, metadata !DIExpression()), !dbg !3230
  %23 = tail call %class.WritablePacket* @_ZN6Packet4makeEjPKvjj(i32 28, i8* null, i32 %22, i32 0), !dbg !3232
  call void @llvm.dbg.value(metadata %class.WritablePacket* %23, metadata !3201, metadata !DIExpression()), !dbg !3220
  %24 = getelementptr %class.WritablePacket, %class.WritablePacket* %23, i64 0, i32 0, !dbg !3233
  %25 = load %"struct.FastUDPFlows::flow_t"*, %"struct.FastUDPFlows::flow_t"** %9, align 8, !dbg !3234, !tbaa !2802
  %26 = getelementptr inbounds %"struct.FastUDPFlows::flow_t", %"struct.FastUDPFlows::flow_t"* %25, i64 %21, i32 0, !dbg !3235
  store %class.Packet* %24, %class.Packet** %26, align 8, !dbg !3236, !tbaa !3095
  %27 = tail call i8* @_ZNK14WritablePacket4dataEv(%class.WritablePacket* %23), !dbg !3237
  tail call void @llvm.memcpy.p0i8.p0i8.i64(i8* nonnull align 1 dereferenceable(14) %27, i8* nonnull align 4 dereferenceable(14) %14, i64 14, i1 false), !dbg !3238
  %28 = tail call i8* @_ZNK14WritablePacket4dataEv(%class.WritablePacket* %23), !dbg !3239
  %29 = getelementptr inbounds i8, i8* %28, i64 14, !dbg !3240
  %30 = bitcast i8* %29 to %struct.click_ip*, !dbg !3241
  call void @llvm.dbg.value(metadata %struct.click_ip* %30, metadata !3204, metadata !DIExpression()), !dbg !3220
  %31 = getelementptr inbounds i8, i8* %28, i64 34, !dbg !3242
  call void @llvm.dbg.value(metadata i8* %31, metadata !3205, metadata !DIExpression()), !dbg !3220
  store i8 69, i8* %29, align 4, !dbg !3243
  %32 = load i32, i32* %13, align 8, !dbg !3244, !tbaa !3059
  %33 = trunc i32 %32 to i16, !dbg !3244
  %34 = add i16 %33, -14, !dbg !3244
  %35 = tail call i16 @llvm.bswap.i16(i16 %34) #13
  %36 = getelementptr inbounds i8, i8* %28, i64 16, !dbg !3245
  %37 = bitcast i8* %36 to i16*, !dbg !3245
  store i16 %35, i16* %37, align 2, !dbg !3246, !tbaa !3247
  %38 = getelementptr inbounds i8, i8* %28, i64 18, !dbg !3248
  %39 = bitcast i8* %38 to i16*, !dbg !3248
  store i16 0, i16* %39, align 4, !dbg !3249, !tbaa !3250
  %40 = getelementptr inbounds i8, i8* %28, i64 23, !dbg !3251
  store i8 17, i8* %40, align 1, !dbg !3252, !tbaa !3155
  %41 = getelementptr inbounds i8, i8* %28, i64 26, !dbg !3253
  %42 = bitcast i8* %41 to i32*, !dbg !3254
  %43 = load i32, i32* %15, align 4, !dbg !3254, !tbaa !3044
  store i32 %43, i32* %42, align 4, !dbg !3254, !tbaa !3044
  %44 = getelementptr inbounds i8, i8* %28, i64 30, !dbg !3255
  %45 = bitcast i8* %44 to i32*, !dbg !3256
  %46 = load i32, i32* %16, align 8, !dbg !3256, !tbaa !3044
  store i32 %46, i32* %45, align 4, !dbg !3256, !tbaa !3044
  %47 = getelementptr inbounds i8, i8* %28, i64 15, !dbg !3257
  store i8 0, i8* %47, align 1, !dbg !3258, !tbaa !3259
  %48 = getelementptr inbounds i8, i8* %28, i64 20, !dbg !3260
  %49 = bitcast i8* %48 to i16*, !dbg !3260
  store i16 0, i16* %49, align 2, !dbg !3261, !tbaa !3262
  %50 = getelementptr inbounds i8, i8* %28, i64 22, !dbg !3263
  store i8 -6, i8* %50, align 4, !dbg !3264, !tbaa !3265
  %51 = getelementptr inbounds i8, i8* %28, i64 24, !dbg !3266
  %52 = bitcast i8* %51 to i16*, !dbg !3266
  store i16 0, i16* %52, align 2, !dbg !3267, !tbaa !3268
  %53 = tail call zeroext i16 @click_in_cksum(i8* nonnull %29, i32 20), !dbg !3269
  store i16 %53, i16* %52, align 2, !dbg !3270, !tbaa !3268
  %54 = load %"struct.FastUDPFlows::flow_t"*, %"struct.FastUDPFlows::flow_t"** %9, align 8, !dbg !3271, !tbaa !2802
  %55 = getelementptr inbounds %"struct.FastUDPFlows::flow_t", %"struct.FastUDPFlows::flow_t"* %54, i64 %21, i32 0, !dbg !3272
  %56 = load %class.Packet*, %class.Packet** %55, align 8, !dbg !3272, !tbaa !3095
  %57 = load i32, i32* %16, align 8, !dbg !3273, !tbaa.struct !3274
  tail call void @_ZN6Packet15set_dst_ip_annoE9IPAddress(%class.Packet* %56, i32 %57), !dbg !3275
  %58 = load %"struct.FastUDPFlows::flow_t"*, %"struct.FastUDPFlows::flow_t"** %9, align 8, !dbg !3276, !tbaa !2802
  %59 = getelementptr inbounds %"struct.FastUDPFlows::flow_t", %"struct.FastUDPFlows::flow_t"* %58, i64 %21, i32 0, !dbg !3277
  %60 = load %class.Packet*, %class.Packet** %59, align 8, !dbg !3277, !tbaa !3095
  tail call void @_ZN6Packet13set_ip_headerEPK8click_ipj(%class.Packet* %60, %struct.click_ip* nonnull %30, i32 20), !dbg !3278
  %61 = tail call i64 @random() #13, !dbg !3279
  %62 = trunc i64 %61 to i32, !dbg !3279
  %63 = lshr i32 %62, 2, !dbg !3281
  %64 = urem i32 %63, 65535, !dbg !3282
  %65 = trunc i32 %64 to i16, !dbg !3283
  %66 = bitcast i8* %31 to i16*, !dbg !3284
  store i16 %65, i16* %66, align 2, !dbg !3285, !tbaa !3114
  %67 = tail call i64 @random() #13, !dbg !3286
  %68 = trunc i64 %67 to i32, !dbg !3286
  %69 = lshr i32 %68, 2, !dbg !3288
  %70 = urem i32 %69, 65535, !dbg !3289
  %71 = trunc i32 %70 to i16, !dbg !3290
  %72 = getelementptr inbounds i8, i8* %28, i64 36, !dbg !3291
  %73 = bitcast i8* %72 to i16*, !dbg !3291
  store i16 %71, i16* %73, align 2, !dbg !3292, !tbaa !3123
  %74 = getelementptr inbounds i8, i8* %28, i64 40, !dbg !3293
  %75 = bitcast i8* %74 to i16*, !dbg !3293
  store i16 0, i16* %75, align 2, !dbg !3294, !tbaa !3126
  %76 = load i32, i32* %13, align 8, !dbg !3295, !tbaa !3059
  %77 = trunc i32 %76 to i16, !dbg !3295
  %78 = add i16 %77, -34, !dbg !3296
  call void @llvm.dbg.value(metadata i16 %78, metadata !3206, metadata !DIExpression()), !dbg !3220
  %79 = tail call i16 @llvm.bswap.i16(i16 %78) #13
  %80 = getelementptr inbounds i8, i8* %28, i64 38, !dbg !3297
  %81 = bitcast i8* %80 to i16*, !dbg !3297
  store i16 %79, i16* %81, align 2, !dbg !3298, !tbaa !3299
  %82 = load i8, i8* %17, align 8, !dbg !3300, !tbaa !2880, !range !3128
  %83 = icmp eq i8 %82, 0, !dbg !3300
  br i1 %83, label %99, label %84, !dbg !3301

84:                                               ; preds = %20
  call void @llvm.dbg.value(metadata i8* %31, metadata !3205, metadata !DIExpression()), !dbg !3220
  %85 = zext i16 %78 to i32, !dbg !3302
  %86 = tail call zeroext i16 @click_in_cksum(i8* nonnull %31, i32 %85), !dbg !3303
  %87 = zext i16 %86 to i32, !dbg !3303
  call void @llvm.dbg.value(metadata i32 %87, metadata !3207, metadata !DIExpression()), !dbg !3304
  call void @llvm.dbg.value(metadata i32 %87, metadata !3136, metadata !DIExpression()), !dbg !3305
  call void @llvm.dbg.value(metadata %struct.click_ip* %30, metadata !3141, metadata !DIExpression()), !dbg !3305
  call void @llvm.dbg.value(metadata i32 %85, metadata !3142, metadata !DIExpression()), !dbg !3305
  %88 = load i8, i8* %29, align 4, !dbg !3307
  %89 = and i8 %88, 15, !dbg !3307
  %90 = icmp eq i8 %89, 5, !dbg !3308
  br i1 %90, label %91, label %97, !dbg !3309

91:                                               ; preds = %84
  %92 = load i32, i32* %42, align 4, !dbg !3310, !tbaa !3150
  %93 = load i32, i32* %45, align 4, !dbg !3311, !tbaa !3153
  %94 = load i8, i8* %40, align 1, !dbg !3312, !tbaa !3155
  %95 = zext i8 %94 to i32, !dbg !3313
  %96 = tail call zeroext i16 @click_in_cksum_pseudohdr_raw(i32 %87, i32 %92, i32 %93, i32 %95, i32 %85), !dbg !3314
  br label %99, !dbg !3315

97:                                               ; preds = %84
  %98 = tail call zeroext i16 @click_in_cksum_pseudohdr_hard(i32 %87, %struct.click_ip* nonnull %30, i32 %85), !dbg !3316
  br label %99, !dbg !3317

99:                                               ; preds = %97, %91, %20
  %100 = phi i16 [ 0, %20 ], [ %96, %91 ], [ %98, %97 ], !dbg !3221
  store i16 %100, i16* %75, align 2, !dbg !3221, !tbaa !3126
  %101 = load %"struct.FastUDPFlows::flow_t"*, %"struct.FastUDPFlows::flow_t"** %9, align 8, !dbg !3318, !tbaa !2802
  %102 = getelementptr inbounds %"struct.FastUDPFlows::flow_t", %"struct.FastUDPFlows::flow_t"* %101, i64 %21, i32 1, !dbg !3319
  store i32 0, i32* %102, align 8, !dbg !3320, !tbaa !3178
  %103 = add nuw nsw i64 %21, 1, !dbg !3321
  call void @llvm.dbg.value(metadata i64 %103, metadata !3199, metadata !DIExpression()), !dbg !3217
  %104 = load i32, i32* %4, align 4, !dbg !3322, !tbaa !3173
  %105 = zext i32 %104 to i64, !dbg !3218
  %106 = icmp ult i64 %103, %105, !dbg !3218
  br i1 %106, label %20, label %18, !dbg !3219, !llvm.loop !3323
}

; Function Attrs: nobuiltin nofree
declare noalias nonnull i8* @_Znam(i64) local_unnamed_addr #7

; Function Attrs: argmemonly nounwind willreturn
declare void @llvm.memcpy.p0i8.p0i8.i64(i8* noalias nocapture writeonly, i8* noalias nocapture readonly, i64, i1 immarg) #6

declare void @_ZN6Packet15set_dst_ip_annoE9IPAddress(%class.Packet*, i32) local_unnamed_addr #2

declare void @_ZN6Packet13set_ip_headerEPK8click_ipj(%class.Packet*, %struct.click_ip*, i32) local_unnamed_addr #2

; Function Attrs: sspstrong uwtable
define dso_local void @_ZN12FastUDPFlows13cleanup_flowsEv(%class.FastUDPFlows* nocapture %0) local_unnamed_addr #0 align 2 !dbg !3325 {
  call void @llvm.dbg.value(metadata %class.FastUDPFlows* %0, metadata !3327, metadata !DIExpression()), !dbg !3332
  %2 = getelementptr inbounds %class.FastUDPFlows, %class.FastUDPFlows* %0, i64 0, i32 16, !dbg !3333
  %3 = load %"struct.FastUDPFlows::flow_t"*, %"struct.FastUDPFlows::flow_t"** %2, align 8, !dbg !3333, !tbaa !2802
  %4 = icmp eq %"struct.FastUDPFlows::flow_t"* %3, null, !dbg !3333
  br i1 %4, label %26, label %5, !dbg !3334

5:                                                ; preds = %1
  call void @llvm.dbg.value(metadata i32 0, metadata !3328, metadata !DIExpression()), !dbg !3335
  %6 = getelementptr inbounds %class.FastUDPFlows, %class.FastUDPFlows* %0, i64 0, i32 8, !dbg !3336
  %7 = load i32, i32* %6, align 4, !dbg !3336, !tbaa !3173
  %8 = icmp eq i32 %7, 0, !dbg !3338
  br i1 %8, label %22, label %11, !dbg !3339

9:                                                ; preds = %11
  %10 = icmp eq %"struct.FastUDPFlows::flow_t"* %16, null, !dbg !3340
  br i1 %10, label %25, label %22, !dbg !3340

11:                                               ; preds = %5, %11
  %12 = phi i64 [ %18, %11 ], [ 0, %5 ]
  %13 = phi %"struct.FastUDPFlows::flow_t"* [ %16, %11 ], [ %3, %5 ]
  call void @llvm.dbg.value(metadata i64 %12, metadata !3328, metadata !DIExpression()), !dbg !3335
  %14 = getelementptr inbounds %"struct.FastUDPFlows::flow_t", %"struct.FastUDPFlows::flow_t"* %13, i64 %12, i32 0, !dbg !3341
  %15 = load %class.Packet*, %class.Packet** %14, align 8, !dbg !3341, !tbaa !3095
  tail call void @_ZN6Packet4killEv(%class.Packet* %15), !dbg !3343
  %16 = load %"struct.FastUDPFlows::flow_t"*, %"struct.FastUDPFlows::flow_t"** %2, align 8, !dbg !3344, !tbaa !2802
  %17 = getelementptr inbounds %"struct.FastUDPFlows::flow_t", %"struct.FastUDPFlows::flow_t"* %16, i64 %12, i32 0, !dbg !3345
  store %class.Packet* null, %class.Packet** %17, align 8, !dbg !3346, !tbaa !3095
  %18 = add nuw nsw i64 %12, 1, !dbg !3347
  call void @llvm.dbg.value(metadata i64 %18, metadata !3328, metadata !DIExpression()), !dbg !3335
  %19 = load i32, i32* %6, align 4, !dbg !3336, !tbaa !3173
  %20 = zext i32 %19 to i64, !dbg !3338
  %21 = icmp ult i64 %18, %20, !dbg !3338
  br i1 %21, label %11, label %9, !dbg !3339, !llvm.loop !3348

22:                                               ; preds = %5, %9
  %23 = phi %"struct.FastUDPFlows::flow_t"* [ %16, %9 ], [ %3, %5 ]
  %24 = bitcast %"struct.FastUDPFlows::flow_t"* %23 to i8*, !dbg !3340
  tail call void @_ZdaPv(i8* %24) #14, !dbg !3340
  br label %25, !dbg !3340

25:                                               ; preds = %22, %9
  store %"struct.FastUDPFlows::flow_t"* null, %"struct.FastUDPFlows::flow_t"** %2, align 8, !dbg !3350, !tbaa !2802
  br label %26, !dbg !3351

26:                                               ; preds = %1, %25
  ret void, !dbg !3352
}

declare void @_ZN6Packet4killEv(%class.Packet*) local_unnamed_addr #2

; Function Attrs: nobuiltin nounwind
declare void @_ZdaPv(i8*) local_unnamed_addr #5

; Function Attrs: sspstrong uwtable
define dso_local void @_ZN12FastUDPFlows7cleanupEN7Element12CleanupStageE(%class.FastUDPFlows* nocapture %0, i32 %1) unnamed_addr #0 align 2 !dbg !3353 {
  call void @llvm.dbg.value(metadata %class.FastUDPFlows* %0, metadata !3355, metadata !DIExpression()), !dbg !3357
  call void @llvm.dbg.value(metadata i32 undef, metadata !3356, metadata !DIExpression()), !dbg !3357
  call void @llvm.dbg.value(metadata %class.FastUDPFlows* %0, metadata !3327, metadata !DIExpression()), !dbg !3358
  %3 = getelementptr inbounds %class.FastUDPFlows, %class.FastUDPFlows* %0, i64 0, i32 16, !dbg !3360
  %4 = load %"struct.FastUDPFlows::flow_t"*, %"struct.FastUDPFlows::flow_t"** %3, align 8, !dbg !3360, !tbaa !2802
  %5 = icmp eq %"struct.FastUDPFlows::flow_t"* %4, null, !dbg !3360
  br i1 %5, label %27, label %6, !dbg !3361

6:                                                ; preds = %2
  call void @llvm.dbg.value(metadata i32 0, metadata !3328, metadata !DIExpression()), !dbg !3362
  %7 = getelementptr inbounds %class.FastUDPFlows, %class.FastUDPFlows* %0, i64 0, i32 8, !dbg !3363
  %8 = load i32, i32* %7, align 4, !dbg !3363, !tbaa !3173
  %9 = icmp eq i32 %8, 0, !dbg !3364
  br i1 %9, label %23, label %12, !dbg !3365

10:                                               ; preds = %12
  %11 = icmp eq %"struct.FastUDPFlows::flow_t"* %17, null, !dbg !3366
  br i1 %11, label %26, label %23, !dbg !3366

12:                                               ; preds = %6, %12
  %13 = phi i64 [ %19, %12 ], [ 0, %6 ]
  %14 = phi %"struct.FastUDPFlows::flow_t"* [ %17, %12 ], [ %4, %6 ]
  call void @llvm.dbg.value(metadata i64 %13, metadata !3328, metadata !DIExpression()), !dbg !3362
  %15 = getelementptr inbounds %"struct.FastUDPFlows::flow_t", %"struct.FastUDPFlows::flow_t"* %14, i64 %13, i32 0, !dbg !3367
  %16 = load %class.Packet*, %class.Packet** %15, align 8, !dbg !3367, !tbaa !3095
  tail call void @_ZN6Packet4killEv(%class.Packet* %16), !dbg !3368
  %17 = load %"struct.FastUDPFlows::flow_t"*, %"struct.FastUDPFlows::flow_t"** %3, align 8, !dbg !3369, !tbaa !2802
  %18 = getelementptr inbounds %"struct.FastUDPFlows::flow_t", %"struct.FastUDPFlows::flow_t"* %17, i64 %13, i32 0, !dbg !3370
  store %class.Packet* null, %class.Packet** %18, align 8, !dbg !3371, !tbaa !3095
  %19 = add nuw nsw i64 %13, 1, !dbg !3372
  call void @llvm.dbg.value(metadata i64 %19, metadata !3328, metadata !DIExpression()), !dbg !3362
  %20 = load i32, i32* %7, align 4, !dbg !3363, !tbaa !3173
  %21 = zext i32 %20 to i64, !dbg !3364
  %22 = icmp ult i64 %19, %21, !dbg !3364
  br i1 %22, label %12, label %10, !dbg !3365, !llvm.loop !3373

23:                                               ; preds = %10, %6
  %24 = phi %"struct.FastUDPFlows::flow_t"* [ %17, %10 ], [ %4, %6 ]
  %25 = bitcast %"struct.FastUDPFlows::flow_t"* %24 to i8*, !dbg !3366
  tail call void @_ZdaPv(i8* %25) #14, !dbg !3366
  br label %26, !dbg !3366

26:                                               ; preds = %23, %10
  store %"struct.FastUDPFlows::flow_t"* null, %"struct.FastUDPFlows::flow_t"** %3, align 8, !dbg !3375, !tbaa !2802
  br label %27, !dbg !3376

27:                                               ; preds = %2, %26
  ret void, !dbg !3377
}

; Function Attrs: sspstrong uwtable
define dso_local %class.Packet* @_ZN12FastUDPFlows4pullEi(%class.FastUDPFlows* nocapture %0, i32 %1) unnamed_addr #0 align 2 !dbg !3378 {
  %3 = alloca %class.Timestamp, align 8
  call void @llvm.dbg.declare(metadata %class.Timestamp* %3, metadata !3383, metadata !DIExpression()), !dbg !3386
  call void @llvm.dbg.value(metadata %class.FastUDPFlows* %0, metadata !3380, metadata !DIExpression()), !dbg !3391
  call void @llvm.dbg.value(metadata i32 undef, metadata !3381, metadata !DIExpression()), !dbg !3391
  call void @llvm.dbg.value(metadata %class.Packet* null, metadata !3382, metadata !DIExpression()), !dbg !3391
  %4 = getelementptr inbounds %class.FastUDPFlows, %class.FastUDPFlows* %0, i64 0, i32 20, !dbg !3392
  %5 = load i8, i8* %4, align 8, !dbg !3392, !tbaa !2883, !range !3128
  %6 = icmp eq i8 %5, 0, !dbg !3392
  br i1 %6, label %173, label %7, !dbg !3394

7:                                                ; preds = %2
  %8 = getelementptr inbounds %class.FastUDPFlows, %class.FastUDPFlows* %0, i64 0, i32 19, !dbg !3395
  %9 = load i32, i32* %8, align 4, !dbg !3395, !tbaa !3079
  %10 = icmp eq i32 %9, -1, !dbg !3396
  br i1 %10, label %15, label %11, !dbg !3397

11:                                               ; preds = %7
  %12 = getelementptr inbounds %class.FastUDPFlows, %class.FastUDPFlows* %0, i64 0, i32 18, !dbg !3398
  %13 = load i32, i32* %12, align 8, !dbg !3398, !tbaa !2851
  %14 = icmp ult i32 %13, %9, !dbg !3399
  br i1 %14, label %15, label %173, !dbg !3400

15:                                               ; preds = %11, %7
  %16 = getelementptr inbounds %class.FastUDPFlows, %class.FastUDPFlows* %0, i64 0, i32 1, !dbg !3401
  %17 = load i8, i8* %16, align 4, !dbg !3401, !tbaa !2842, !range !3128
  %18 = icmp eq i8 %17, 0, !dbg !3401
  br i1 %18, label %127, label %19, !dbg !3402

19:                                               ; preds = %15
  %20 = bitcast %class.Timestamp* %3 to i8*, !dbg !3403
  call void @llvm.lifetime.start.p0i8(i64 8, i8* nonnull %20), !dbg !3403
  call void @_ZN9Timestamp10assign_nowEv(%class.Timestamp* nonnull %3), !dbg !3403
  %21 = getelementptr inbounds %class.Timestamp, %class.Timestamp* %3, i64 0, i32 0, i32 0, !dbg !3404
  %22 = load i64, i64* %21, align 8, !dbg !3404
  call void @llvm.lifetime.end.p0i8(i64 8, i8* nonnull %20), !dbg !3404
  call void @llvm.dbg.value(metadata %class.FastUDPFlows* %0, metadata !3405, metadata !DIExpression(DW_OP_plus_uconst, 176, DW_OP_stack_value)), !dbg !3410
  call void @llvm.dbg.value(metadata %class.Timestamp* undef, metadata !3408, metadata !DIExpression()), !dbg !3410
  call void @llvm.dbg.value(metadata %class.Timestamp* undef, metadata !3412, metadata !DIExpression()), !dbg !3416
  call void @llvm.dbg.value(metadata %class.Timestamp* undef, metadata !3418, metadata !DIExpression()), !dbg !3421
  call void @llvm.dbg.value(metadata %class.Timestamp* undef, metadata !3423, metadata !DIExpression()), !dbg !3426
  %23 = icmp slt i64 %22, 0, !dbg !3428
  br i1 %23, label %24, label %28, !dbg !3430, !prof !3431, !misexpect !3432

24:                                               ; preds = %19
  %25 = xor i64 %22, -1, !dbg !3433
  call void @llvm.dbg.value(metadata i64 %25, metadata !3434, metadata !DIExpression()), !dbg !3438
  call void @llvm.dbg.value(metadata i32 1000000000, metadata !3437, metadata !DIExpression()), !dbg !3438
  call void @llvm.dbg.value(metadata i64 %25, metadata !3440, metadata !DIExpression()), !dbg !3447
  call void @llvm.dbg.value(metadata i32 1000000000, metadata !3446, metadata !DIExpression()), !dbg !3447
  %26 = sdiv i64 %25, 1000000000, !dbg !3449
  %27 = xor i64 %26, -1, !dbg !3450
  br label %30, !dbg !3451

28:                                               ; preds = %19
  call void @llvm.dbg.value(metadata i64 %22, metadata !3434, metadata !DIExpression()), !dbg !3452
  call void @llvm.dbg.value(metadata i32 1000000000, metadata !3437, metadata !DIExpression()), !dbg !3452
  call void @llvm.dbg.value(metadata i64 %22, metadata !3440, metadata !DIExpression()), !dbg !3454
  call void @llvm.dbg.value(metadata i32 1000000000, metadata !3446, metadata !DIExpression()), !dbg !3454
  %29 = udiv i64 %22, 1000000000, !dbg !3456
  br label %30, !dbg !3457

30:                                               ; preds = %28, %24
  %31 = phi i64 [ %27, %24 ], [ %29, %28 ]
  %32 = trunc i64 %31 to i32, !dbg !3458
  %33 = trunc i64 %22 to i32, !dbg !3459
  %34 = mul i32 %32, -1000000000, !dbg !3459
  %35 = add i32 %34, %33, !dbg !3459
  call void @llvm.dbg.value(metadata i32 %35, metadata !3460, metadata !DIExpression()), !dbg !3463
  %36 = udiv i32 %35, 1000, !dbg !3465
  %37 = shl i32 %36, 12, !dbg !3466
  %38 = getelementptr inbounds %class.FastUDPFlows, %class.FastUDPFlows* %0, i64 0, i32 17, i32 0, !dbg !3467
  %39 = load i32, i32* %38, align 4, !dbg !3467, !tbaa !2830
  %40 = udiv i32 %37, %39, !dbg !3468
  call void @llvm.dbg.value(metadata i32 %40, metadata !3409, metadata !DIExpression()), !dbg !3410
  %41 = getelementptr inbounds %class.FastUDPFlows, %class.FastUDPFlows* %0, i64 0, i32 17, i32 2, !dbg !3469
  %42 = load i32, i32* %41, align 4, !dbg !3469, !tbaa !2838
  %43 = icmp slt i32 %42, 0, !dbg !3471
  call void @llvm.dbg.value(metadata %class.Timestamp* undef, metadata !3423, metadata !DIExpression()), !dbg !3472
  br i1 %23, label %44, label %48, !dbg !3474, !prof !3431, !misexpect !3432

44:                                               ; preds = %30
  %45 = xor i64 %22, -1, !dbg !3475
  call void @llvm.dbg.value(metadata i64 %45, metadata !3434, metadata !DIExpression()), !dbg !3476
  call void @llvm.dbg.value(metadata i32 1000000000, metadata !3437, metadata !DIExpression()), !dbg !3476
  call void @llvm.dbg.value(metadata i64 %45, metadata !3440, metadata !DIExpression()), !dbg !3478
  call void @llvm.dbg.value(metadata i32 1000000000, metadata !3446, metadata !DIExpression()), !dbg !3478
  %46 = sdiv i64 %45, 1000000000, !dbg !3480
  %47 = xor i64 %46, -1, !dbg !3481
  br label %50, !dbg !3482

48:                                               ; preds = %30
  call void @llvm.dbg.value(metadata i64 %22, metadata !3434, metadata !DIExpression()), !dbg !3483
  call void @llvm.dbg.value(metadata i32 1000000000, metadata !3437, metadata !DIExpression()), !dbg !3483
  call void @llvm.dbg.value(metadata i64 %22, metadata !3440, metadata !DIExpression()), !dbg !3485
  call void @llvm.dbg.value(metadata i32 1000000000, metadata !3446, metadata !DIExpression()), !dbg !3485
  %49 = udiv i64 %22, 1000000000, !dbg !3487
  br label %50, !dbg !3488

50:                                               ; preds = %48, %44
  %51 = phi i64 [ %47, %44 ], [ %49, %48 ]
  %52 = trunc i64 %51 to i32, !dbg !3489
  br i1 %43, label %53, label %74, !dbg !3490

53:                                               ; preds = %50
  store i32 %52, i32* %41, align 4, !dbg !3491, !tbaa !2838
  call void @llvm.dbg.value(metadata %class.Timestamp* undef, metadata !3412, metadata !DIExpression()), !dbg !3493
  call void @llvm.dbg.value(metadata %class.Timestamp* undef, metadata !3418, metadata !DIExpression()), !dbg !3495
  call void @llvm.dbg.value(metadata %class.Timestamp* undef, metadata !3423, metadata !DIExpression()), !dbg !3497
  br i1 %23, label %54, label %58, !dbg !3499, !prof !3431, !misexpect !3432

54:                                               ; preds = %53
  %55 = xor i64 %22, -1, !dbg !3500
  call void @llvm.dbg.value(metadata i64 %55, metadata !3434, metadata !DIExpression()), !dbg !3501
  call void @llvm.dbg.value(metadata i32 1000000000, metadata !3437, metadata !DIExpression()), !dbg !3501
  call void @llvm.dbg.value(metadata i64 %55, metadata !3440, metadata !DIExpression()), !dbg !3503
  call void @llvm.dbg.value(metadata i32 1000000000, metadata !3446, metadata !DIExpression()), !dbg !3503
  %56 = sdiv i64 %55, 1000000000, !dbg !3505
  %57 = xor i64 %56, -1, !dbg !3506
  br label %60, !dbg !3507

58:                                               ; preds = %53
  call void @llvm.dbg.value(metadata i64 %22, metadata !3434, metadata !DIExpression()), !dbg !3508
  call void @llvm.dbg.value(metadata i32 1000000000, metadata !3437, metadata !DIExpression()), !dbg !3508
  call void @llvm.dbg.value(metadata i64 %22, metadata !3440, metadata !DIExpression()), !dbg !3510
  call void @llvm.dbg.value(metadata i32 1000000000, metadata !3446, metadata !DIExpression()), !dbg !3510
  %59 = udiv i64 %22, 1000000000, !dbg !3512
  br label %60, !dbg !3513

60:                                               ; preds = %58, %54
  %61 = phi i64 [ %57, %54 ], [ %59, %58 ]
  %62 = trunc i64 %61 to i32, !dbg !3514
  %63 = mul i32 %62, -1000000000, !dbg !3515
  %64 = add i32 %63, %33, !dbg !3515
  call void @llvm.dbg.value(metadata i32 %64, metadata !3460, metadata !DIExpression()), !dbg !3516
  %65 = udiv i32 %64, 1000, !dbg !3518
  %66 = shl i32 %65, 12, !dbg !3519
  %67 = mul i32 %40, %39, !dbg !3520
  %68 = sub i32 %66, %67, !dbg !3521
  %69 = lshr i32 %39, 1, !dbg !3522
  %70 = icmp ugt i32 %68, %69, !dbg !3523
  %71 = zext i1 %70 to i32, !dbg !3524
  %72 = add i32 %40, %71, !dbg !3525
  %73 = getelementptr inbounds %class.FastUDPFlows, %class.FastUDPFlows* %0, i64 0, i32 17, i32 1, !dbg !3526
  store i32 %72, i32* %73, align 4, !dbg !3527, !tbaa !3528
  br label %96, !dbg !3529

74:                                               ; preds = %50
  %75 = icmp slt i32 %42, %52, !dbg !3530
  br i1 %75, label %79, label %76, !dbg !3532

76:                                               ; preds = %74
  %77 = getelementptr inbounds %class.FastUDPFlows, %class.FastUDPFlows* %0, i64 0, i32 17, i32 1, !dbg !3410
  %78 = load i32, i32* %77, align 4, !dbg !3533, !tbaa !3528
  br label %96, !dbg !3532

79:                                               ; preds = %74
  call void @llvm.dbg.value(metadata %class.Timestamp* undef, metadata !3423, metadata !DIExpression()), !dbg !3534
  br i1 %23, label %80, label %84, !dbg !3537, !prof !3431, !misexpect !3432

80:                                               ; preds = %79
  %81 = xor i64 %22, -1, !dbg !3538
  call void @llvm.dbg.value(metadata i64 %81, metadata !3434, metadata !DIExpression()), !dbg !3539
  call void @llvm.dbg.value(metadata i32 1000000000, metadata !3437, metadata !DIExpression()), !dbg !3539
  call void @llvm.dbg.value(metadata i64 %81, metadata !3440, metadata !DIExpression()), !dbg !3541
  call void @llvm.dbg.value(metadata i32 1000000000, metadata !3446, metadata !DIExpression()), !dbg !3541
  %82 = sdiv i64 %81, 1000000000, !dbg !3543
  %83 = xor i64 %82, -1, !dbg !3544
  br label %86, !dbg !3545

84:                                               ; preds = %79
  call void @llvm.dbg.value(metadata i64 %22, metadata !3434, metadata !DIExpression()), !dbg !3546
  call void @llvm.dbg.value(metadata i32 1000000000, metadata !3437, metadata !DIExpression()), !dbg !3546
  call void @llvm.dbg.value(metadata i64 %22, metadata !3440, metadata !DIExpression()), !dbg !3548
  call void @llvm.dbg.value(metadata i32 1000000000, metadata !3446, metadata !DIExpression()), !dbg !3548
  %85 = udiv i64 %22, 1000000000, !dbg !3550
  br label %86, !dbg !3551

86:                                               ; preds = %84, %80
  %87 = phi i64 [ %83, %80 ], [ %85, %84 ]
  %88 = trunc i64 %87 to i32, !dbg !3552
  store i32 %88, i32* %41, align 4, !dbg !3553, !tbaa !2838
  %89 = getelementptr inbounds %class.FastUDPFlows, %class.FastUDPFlows* %0, i64 0, i32 17, i32 1, !dbg !3554
  %90 = load i32, i32* %89, align 4, !dbg !3554, !tbaa !3528
  %91 = icmp sgt i32 %90, 0, !dbg !3556
  br i1 %91, label %92, label %96, !dbg !3557

92:                                               ; preds = %86
  %93 = getelementptr inbounds %class.FastUDPFlows, %class.FastUDPFlows* %0, i64 0, i32 17, i32 3, !dbg !3558
  %94 = load i32, i32* %93, align 4, !dbg !3558, !tbaa !2827
  %95 = sub i32 %90, %94, !dbg !3559
  store i32 %95, i32* %89, align 4, !dbg !3559, !tbaa !3528
  br label %96, !dbg !3560

96:                                               ; preds = %60, %76, %86, %92
  %97 = phi i32 [ %78, %76 ], [ %95, %92 ], [ %90, %86 ], [ %72, %60 ], !dbg !3533
  %98 = icmp slt i32 %40, %97, !dbg !3561
  br i1 %98, label %173, label %99, !dbg !3562

99:                                               ; preds = %96
  call void @llvm.dbg.value(metadata %class.FastUDPFlows* %0, metadata !3563, metadata !DIExpression(DW_OP_plus_uconst, 176, DW_OP_stack_value)), !dbg !3566
  %100 = getelementptr inbounds %class.FastUDPFlows, %class.FastUDPFlows* %0, i64 0, i32 17, i32 1, !dbg !3569
  %101 = add nsw i32 %97, 1, !dbg !3570
  store i32 %101, i32* %100, align 4, !dbg !3570, !tbaa !3528
  call void @llvm.dbg.value(metadata %class.FastUDPFlows* %0, metadata !3166, metadata !DIExpression()), !dbg !3571
  %102 = call i64 @random() #13, !dbg !3573
  %103 = trunc i64 %102 to i32, !dbg !3573
  %104 = lshr i32 %103, 2, !dbg !3575
  %105 = getelementptr inbounds %class.FastUDPFlows, %class.FastUDPFlows* %0, i64 0, i32 8, !dbg !3576
  %106 = load i32, i32* %105, align 4, !dbg !3576, !tbaa !3173
  %107 = urem i32 %104, %106, !dbg !3577
  call void @llvm.dbg.value(metadata i32 %107, metadata !3167, metadata !DIExpression()), !dbg !3571
  %108 = getelementptr inbounds %class.FastUDPFlows, %class.FastUDPFlows* %0, i64 0, i32 16, !dbg !3578
  %109 = load %"struct.FastUDPFlows::flow_t"*, %"struct.FastUDPFlows::flow_t"** %108, align 8, !dbg !3578, !tbaa !2802
  %110 = zext i32 %107 to i64, !dbg !3578
  %111 = getelementptr inbounds %"struct.FastUDPFlows::flow_t", %"struct.FastUDPFlows::flow_t"* %109, i64 %110, i32 1, !dbg !3579
  %112 = load i32, i32* %111, align 8, !dbg !3579, !tbaa !3178
  %113 = getelementptr inbounds %class.FastUDPFlows, %class.FastUDPFlows* %0, i64 0, i32 10, !dbg !3580
  %114 = load i32, i32* %113, align 4, !dbg !3580, !tbaa !3180
  %115 = icmp eq i32 %112, %114, !dbg !3581
  br i1 %115, label %116, label %119, !dbg !3582

116:                                              ; preds = %99
  call void @_ZN12FastUDPFlows12change_portsEi(%class.FastUDPFlows* nonnull %0, i32 %107), !dbg !3583
  %117 = load %"struct.FastUDPFlows::flow_t"*, %"struct.FastUDPFlows::flow_t"** %108, align 8, !dbg !3584, !tbaa !2802
  %118 = getelementptr inbounds %"struct.FastUDPFlows::flow_t", %"struct.FastUDPFlows::flow_t"* %117, i64 %110, i32 1, !dbg !3585
  store i32 0, i32* %118, align 8, !dbg !3586, !tbaa !3178
  br label %119, !dbg !3587

119:                                              ; preds = %99, %116
  %120 = phi i32 [ 0, %116 ], [ %112, %99 ], !dbg !3588
  %121 = phi %"struct.FastUDPFlows::flow_t"* [ %117, %116 ], [ %109, %99 ], !dbg !3589
  %122 = getelementptr inbounds %"struct.FastUDPFlows::flow_t", %"struct.FastUDPFlows::flow_t"* %121, i64 %110, i32 1, !dbg !3590
  %123 = add i32 %120, 1, !dbg !3588
  store i32 %123, i32* %122, align 8, !dbg !3588, !tbaa !3178
  %124 = getelementptr inbounds %"struct.FastUDPFlows::flow_t", %"struct.FastUDPFlows::flow_t"* %121, i64 %110, i32 0, !dbg !3591
  %125 = load %class.Packet*, %class.Packet** %124, align 8, !dbg !3591, !tbaa !3095
  %126 = call %class.Packet* @_ZN6Packet5cloneEv(%class.Packet* %125), !dbg !3592
  call void @llvm.dbg.value(metadata %class.Packet* %126, metadata !3382, metadata !DIExpression()), !dbg !3391
  br label %153, !dbg !3593

127:                                              ; preds = %15
  call void @llvm.dbg.value(metadata %class.FastUDPFlows* %0, metadata !3166, metadata !DIExpression()), !dbg !3594
  %128 = tail call i64 @random() #13, !dbg !3596
  %129 = trunc i64 %128 to i32, !dbg !3596
  %130 = lshr i32 %129, 2, !dbg !3598
  %131 = getelementptr inbounds %class.FastUDPFlows, %class.FastUDPFlows* %0, i64 0, i32 8, !dbg !3599
  %132 = load i32, i32* %131, align 4, !dbg !3599, !tbaa !3173
  %133 = urem i32 %130, %132, !dbg !3600
  call void @llvm.dbg.value(metadata i32 %133, metadata !3167, metadata !DIExpression()), !dbg !3594
  %134 = getelementptr inbounds %class.FastUDPFlows, %class.FastUDPFlows* %0, i64 0, i32 16, !dbg !3601
  %135 = load %"struct.FastUDPFlows::flow_t"*, %"struct.FastUDPFlows::flow_t"** %134, align 8, !dbg !3601, !tbaa !2802
  %136 = zext i32 %133 to i64, !dbg !3601
  %137 = getelementptr inbounds %"struct.FastUDPFlows::flow_t", %"struct.FastUDPFlows::flow_t"* %135, i64 %136, i32 1, !dbg !3602
  %138 = load i32, i32* %137, align 8, !dbg !3602, !tbaa !3178
  %139 = getelementptr inbounds %class.FastUDPFlows, %class.FastUDPFlows* %0, i64 0, i32 10, !dbg !3603
  %140 = load i32, i32* %139, align 4, !dbg !3603, !tbaa !3180
  %141 = icmp eq i32 %138, %140, !dbg !3604
  br i1 %141, label %142, label %145, !dbg !3605

142:                                              ; preds = %127
  tail call void @_ZN12FastUDPFlows12change_portsEi(%class.FastUDPFlows* nonnull %0, i32 %133), !dbg !3606
  %143 = load %"struct.FastUDPFlows::flow_t"*, %"struct.FastUDPFlows::flow_t"** %134, align 8, !dbg !3607, !tbaa !2802
  %144 = getelementptr inbounds %"struct.FastUDPFlows::flow_t", %"struct.FastUDPFlows::flow_t"* %143, i64 %136, i32 1, !dbg !3608
  store i32 0, i32* %144, align 8, !dbg !3609, !tbaa !3178
  br label %145, !dbg !3610

145:                                              ; preds = %127, %142
  %146 = phi i32 [ 0, %142 ], [ %138, %127 ], !dbg !3611
  %147 = phi %"struct.FastUDPFlows::flow_t"* [ %143, %142 ], [ %135, %127 ], !dbg !3612
  %148 = getelementptr inbounds %"struct.FastUDPFlows::flow_t", %"struct.FastUDPFlows::flow_t"* %147, i64 %136, i32 1, !dbg !3613
  %149 = add i32 %146, 1, !dbg !3611
  store i32 %149, i32* %148, align 8, !dbg !3611, !tbaa !3178
  %150 = getelementptr inbounds %"struct.FastUDPFlows::flow_t", %"struct.FastUDPFlows::flow_t"* %147, i64 %136, i32 0, !dbg !3614
  %151 = load %class.Packet*, %class.Packet** %150, align 8, !dbg !3614, !tbaa !3095
  %152 = tail call %class.Packet* @_ZN6Packet5cloneEv(%class.Packet* %151), !dbg !3615
  call void @llvm.dbg.value(metadata %class.Packet* %152, metadata !3382, metadata !DIExpression()), !dbg !3391
  br label %153

153:                                              ; preds = %119, %145
  %154 = phi %class.Packet* [ %126, %119 ], [ %152, %145 ], !dbg !3391
  call void @llvm.dbg.value(metadata %class.Packet* %154, metadata !3382, metadata !DIExpression()), !dbg !3391
  %155 = icmp eq %class.Packet* %154, null, !dbg !3616
  br i1 %155, label %173, label %156, !dbg !3618

156:                                              ; preds = %153
  %157 = getelementptr inbounds %class.FastUDPFlows, %class.FastUDPFlows* %0, i64 0, i32 18, !dbg !3619
  %158 = load i32, i32* %157, align 8, !dbg !3621, !tbaa !2851
  %159 = add i32 %158, 1, !dbg !3621
  store i32 %159, i32* %157, align 8, !dbg !3621, !tbaa !2851
  %160 = icmp eq i32 %158, 0, !dbg !3622
  br i1 %160, label %161, label %164, !dbg !3624

161:                                              ; preds = %156
  %162 = call i32 @_Z13click_jiffiesv(), !dbg !3625
  %163 = getelementptr inbounds %class.FastUDPFlows, %class.FastUDPFlows* %0, i64 0, i32 13, !dbg !3626
  store i32 %162, i32* %163, align 4, !dbg !3627, !tbaa !2848
  br label %164, !dbg !3626

164:                                              ; preds = %161, %156
  %165 = load i32, i32* %8, align 4, !dbg !3628, !tbaa !3079
  %166 = icmp eq i32 %165, -1, !dbg !3630
  br i1 %166, label %173, label %167, !dbg !3631

167:                                              ; preds = %164
  %168 = load i32, i32* %157, align 8, !dbg !3632, !tbaa !2851
  %169 = icmp ult i32 %168, %165, !dbg !3633
  br i1 %169, label %173, label %170, !dbg !3634

170:                                              ; preds = %167
  %171 = call i32 @_Z13click_jiffiesv(), !dbg !3635
  %172 = getelementptr inbounds %class.FastUDPFlows, %class.FastUDPFlows* %0, i64 0, i32 14, !dbg !3636
  store i32 %171, i32* %172, align 8, !dbg !3637, !tbaa !2845
  br label %173, !dbg !3636

173:                                              ; preds = %96, %170, %153, %164, %167, %2, %11
  %174 = phi %class.Packet* [ null, %11 ], [ null, %2 ], [ %154, %167 ], [ %154, %164 ], [ null, %153 ], [ %154, %170 ], [ null, %96 ], !dbg !3391
  ret %class.Packet* %174, !dbg !3638
}

declare !dbg !1366 i32 @_Z13click_jiffiesv() local_unnamed_addr #2

; Function Attrs: nofree norecurse nounwind sspstrong uwtable writeonly
define dso_local void @_ZN12FastUDPFlows5resetEv(%class.FastUDPFlows* nocapture %0) local_unnamed_addr #8 align 2 !dbg !3639 {
  call void @llvm.dbg.value(metadata %class.FastUDPFlows* %0, metadata !3641, metadata !DIExpression()), !dbg !3642
  %2 = getelementptr inbounds %class.FastUDPFlows, %class.FastUDPFlows* %0, i64 0, i32 18, !dbg !3643
  store i32 0, i32* %2, align 8, !dbg !3644, !tbaa !2851
  %3 = getelementptr inbounds %class.FastUDPFlows, %class.FastUDPFlows* %0, i64 0, i32 13, !dbg !3645
  store i32 0, i32* %3, align 4, !dbg !3646, !tbaa !2848
  %4 = getelementptr inbounds %class.FastUDPFlows, %class.FastUDPFlows* %0, i64 0, i32 14, !dbg !3647
  store i32 0, i32* %4, align 8, !dbg !3648, !tbaa !2845
  ret void, !dbg !3649
}

; Function Attrs: sspstrong uwtable
define dso_local i32 @_ZN12FastUDPFlows20length_write_handlerERK6StringP7ElementPvP12ErrorHandler(%class.String* nocapture readonly dereferenceable(24) %0, %class.Element* %1, i8* nocapture readnone %2, %class.ErrorHandler* %3) #0 align 2 !dbg !3650 {
  %5 = alloca [1 x i32], align 4
  call void @llvm.dbg.declare(metadata [1 x i32]* %5, metadata !3658, metadata !DIExpression()), !dbg !3672
  %6 = alloca %class.IntArg, align 4
  call void @llvm.dbg.value(metadata %class.String* %0, metadata !3652, metadata !DIExpression()), !dbg !3685
  call void @llvm.dbg.value(metadata %class.Element* %1, metadata !3653, metadata !DIExpression()), !dbg !3685
  call void @llvm.dbg.value(metadata i8* undef, metadata !3654, metadata !DIExpression()), !dbg !3685
  call void @llvm.dbg.value(metadata %class.ErrorHandler* %3, metadata !3655, metadata !DIExpression()), !dbg !3685
  %7 = bitcast %class.Element* %1 to %class.FastUDPFlows*, !dbg !3686
  call void @llvm.dbg.value(metadata %class.FastUDPFlows* %7, metadata !3656, metadata !DIExpression()), !dbg !3685
  %8 = bitcast %class.IntArg* %6 to i8*, !dbg !3687
  call void @llvm.lifetime.start.p0i8(i64 8, i8* nonnull %8) #13, !dbg !3687
  call void @llvm.dbg.value(metadata %class.IntArg* %6, metadata !3688, metadata !DIExpression()), !dbg !3692
  call void @llvm.dbg.value(metadata i32 0, metadata !3691, metadata !DIExpression()), !dbg !3692
  %9 = getelementptr inbounds %class.IntArg, %class.IntArg* %6, i64 0, i32 0, !dbg !3694
  store i32 0, i32* %9, align 4, !dbg !3694, !tbaa !3695
  call void @llvm.dbg.value(metadata %class.IntArg* %6, metadata !3678, metadata !DIExpression()), !dbg !3697
  call void @llvm.dbg.value(metadata %class.String* %0, metadata !3679, metadata !DIExpression()), !dbg !3697
  call void @llvm.dbg.value(metadata %class.ArgContext* @blank_args, metadata !3681, metadata !DIExpression()), !dbg !3697
  call void @llvm.dbg.value(metadata %class.IntArg* %6, metadata !3666, metadata !DIExpression()), !dbg !3698
  call void @llvm.dbg.value(metadata %class.String* %0, metadata !3667, metadata !DIExpression()), !dbg !3698
  call void @llvm.dbg.value(metadata %class.ArgContext* @blank_args, metadata !3669, metadata !DIExpression()), !dbg !3698
  call void @llvm.dbg.value(metadata i8 0, metadata !3670, metadata !DIExpression()), !dbg !3698
  call void @llvm.dbg.value(metadata i32 1, metadata !3671, metadata !DIExpression()), !dbg !3698
  %10 = bitcast [1 x i32]* %5 to i8*, !dbg !3699
  call void @llvm.lifetime.start.p0i8(i64 4, i8* nonnull %10) #13, !dbg !3699
  call void @llvm.dbg.value(metadata %class.String* %0, metadata !3700, metadata !DIExpression()), !dbg !3703
  %11 = getelementptr inbounds %class.String, %class.String* %0, i64 0, i32 0, i32 0, !dbg !3706
  %12 = load i8*, i8** %11, align 8, !dbg !3706, !tbaa !3707
  call void @llvm.dbg.value(metadata %class.String* %0, metadata !3710, metadata !DIExpression()), !dbg !3713
  %13 = getelementptr inbounds %class.String, %class.String* %0, i64 0, i32 0, i32 1, !dbg !3715
  %14 = load i32, i32* %13, align 8, !dbg !3715, !tbaa !3716
  %15 = sext i32 %14 to i64, !dbg !3717
  %16 = getelementptr inbounds i8, i8* %12, i64 %15, !dbg !3717
  %17 = getelementptr inbounds [1 x i32], [1 x i32]* %5, i64 0, i64 0, !dbg !3718
  %18 = call i8* @_ZN6IntArg5parseEPKcS1_biPji(%class.IntArg* nonnull %6, i8* %12, i8* %16, i1 zeroext false, i32 4, i32* nonnull %17, i32 1), !dbg !3719
  call void @llvm.dbg.value(metadata %class.String* %0, metadata !3710, metadata !DIExpression()), !dbg !3720
  %19 = load i8*, i8** %11, align 8, !dbg !3722, !tbaa !3707
  %20 = load i32, i32* %13, align 8, !dbg !3723, !tbaa !3716
  %21 = sext i32 %20 to i64, !dbg !3724
  %22 = getelementptr inbounds i8, i8* %19, i64 %21, !dbg !3724
  %23 = icmp eq i8* %18, %22, !dbg !3725
  %24 = getelementptr inbounds %class.IntArg, %class.IntArg* %6, i64 0, i32 1, !dbg !3698
  br i1 %23, label %26, label %25, !dbg !3726

25:                                               ; preds = %4
  store i32 22, i32* %24, align 4, !dbg !3727, !tbaa !3728
  br label %28, !dbg !3729

26:                                               ; preds = %4
  %27 = load i32, i32* %24, align 4, !dbg !3731, !tbaa !3728
  switch i32 %27, label %28 [
    i32 0, label %29
    i32 34, label %29
  ], !dbg !3729

28:                                               ; preds = %26, %25
  call void (%class.ArgContext*, i8*, ...) @_ZNK10ArgContext5errorEPKcz(%class.ArgContext* nonnull @blank_args, i8* getelementptr inbounds ([15 x i8], [15 x i8]* @.str.24, i64 0, i64 0)), !dbg !3732
  call void @llvm.lifetime.end.p0i8(i64 4, i8* nonnull %10) #13, !dbg !3734
  br label %33, !dbg !3735

29:                                               ; preds = %26, %26
  call void @llvm.dbg.value(metadata i32* %17, metadata !3736, metadata !DIExpression()), !dbg !3745
  call void @llvm.dbg.value(metadata i32* %17, metadata !3747, metadata !DIExpression()), !dbg !3756
  %30 = load i32, i32* %17, align 4, !dbg !3758, !tbaa !3044
  call void @llvm.lifetime.end.p0i8(i64 4, i8* nonnull %10) #13, !dbg !3734
  switch i32 %27, label %33 [
    i32 34, label %31
    i32 0, label %35
  ], !dbg !3759

31:                                               ; preds = %29
  %32 = zext i32 %30 to i64, !dbg !3760
  call void @_ZN6IntArg11range_errorERK10ArgContextbx(%class.IntArg* nonnull %6, %class.ArgContext* nonnull dereferenceable(32) @blank_args, i1 zeroext false, i64 %32), !dbg !3763
  br label %33, !dbg !3764

33:                                               ; preds = %31, %29, %28
  call void @llvm.lifetime.end.p0i8(i64 8, i8* nonnull %8) #13, !dbg !3765
  %34 = call i32 (%class.ErrorHandler*, i8*, ...) @_ZN12ErrorHandler5errorEPKcz(%class.ErrorHandler* %3, i8* getelementptr inbounds ([33 x i8], [33 x i8]* @.str.11, i64 0, i64 0)), !dbg !3766
  br label %76, !dbg !3767

35:                                               ; preds = %29
  call void @llvm.lifetime.end.p0i8(i64 8, i8* nonnull %8) #13, !dbg !3765
  call void @llvm.dbg.value(metadata i32 %30, metadata !3657, metadata !DIExpression()), !dbg !3685
  %36 = getelementptr inbounds %class.Element, %class.Element* %1, i64 1, !dbg !3768
  %37 = bitcast %class.Element* %36 to i32*, !dbg !3768
  %38 = load i32, i32* %37, align 8, !dbg !3768, !tbaa !3059
  %39 = icmp eq i32 %30, %38, !dbg !3770
  br i1 %39, label %76, label %40, !dbg !3771

40:                                               ; preds = %35
  call void @llvm.dbg.value(metadata %class.FastUDPFlows* %7, metadata !3045, metadata !DIExpression()), !dbg !3772
  call void @llvm.dbg.value(metadata i32 %30, metadata !3048, metadata !DIExpression()), !dbg !3772
  %41 = icmp ult i32 %30, 60, !dbg !3775
  br i1 %41, label %42, label %43, !dbg !3776

42:                                               ; preds = %40
  call void (i8*, ...) @click_chatter(i8* getelementptr inbounds ([46 x i8], [46 x i8]* @.str.18, i64 0, i64 0)), !dbg !3777
  call void @llvm.dbg.value(metadata i32 60, metadata !3048, metadata !DIExpression()), !dbg !3772
  br label %43, !dbg !3778

43:                                               ; preds = %40, %42
  %44 = phi i32 [ 60, %42 ], [ %30, %40 ]
  call void @llvm.dbg.value(metadata i32 %44, metadata !3048, metadata !DIExpression()), !dbg !3772
  store i32 %44, i32* %37, align 8, !dbg !3779, !tbaa !3059
  call void @llvm.dbg.value(metadata %class.FastUDPFlows* %7, metadata !3327, metadata !DIExpression()), !dbg !3780
  %45 = getelementptr inbounds %class.Element, %class.Element* %1, i64 1, i32 2, i64 2, !dbg !3782
  %46 = bitcast %"class.Element::Port"* %45 to %"struct.FastUDPFlows::flow_t"**, !dbg !3782
  %47 = load %"struct.FastUDPFlows::flow_t"*, %"struct.FastUDPFlows::flow_t"** %46, align 8, !dbg !3782, !tbaa !2802
  %48 = icmp eq %"struct.FastUDPFlows::flow_t"* %47, null, !dbg !3782
  br i1 %48, label %70, label %49, !dbg !3783

49:                                               ; preds = %43
  call void @llvm.dbg.value(metadata i32 0, metadata !3328, metadata !DIExpression()), !dbg !3784
  %50 = getelementptr inbounds %class.FastUDPFlows, %class.FastUDPFlows* %7, i64 0, i32 8, !dbg !3785
  %51 = load i32, i32* %50, align 4, !dbg !3785, !tbaa !3173
  %52 = icmp eq i32 %51, 0, !dbg !3786
  br i1 %52, label %66, label %55, !dbg !3787

53:                                               ; preds = %55
  %54 = icmp eq %"struct.FastUDPFlows::flow_t"* %60, null, !dbg !3788
  br i1 %54, label %69, label %66, !dbg !3788

55:                                               ; preds = %49, %55
  %56 = phi i64 [ %62, %55 ], [ 0, %49 ]
  %57 = phi %"struct.FastUDPFlows::flow_t"* [ %60, %55 ], [ %47, %49 ]
  call void @llvm.dbg.value(metadata i64 %56, metadata !3328, metadata !DIExpression()), !dbg !3784
  %58 = getelementptr inbounds %"struct.FastUDPFlows::flow_t", %"struct.FastUDPFlows::flow_t"* %57, i64 %56, i32 0, !dbg !3789
  %59 = load %class.Packet*, %class.Packet** %58, align 8, !dbg !3789, !tbaa !3095
  call void @_ZN6Packet4killEv(%class.Packet* %59), !dbg !3790
  %60 = load %"struct.FastUDPFlows::flow_t"*, %"struct.FastUDPFlows::flow_t"** %46, align 8, !dbg !3791, !tbaa !2802
  %61 = getelementptr inbounds %"struct.FastUDPFlows::flow_t", %"struct.FastUDPFlows::flow_t"* %60, i64 %56, i32 0, !dbg !3792
  store %class.Packet* null, %class.Packet** %61, align 8, !dbg !3793, !tbaa !3095
  %62 = add nuw nsw i64 %56, 1, !dbg !3794
  call void @llvm.dbg.value(metadata i64 %62, metadata !3328, metadata !DIExpression()), !dbg !3784
  %63 = load i32, i32* %50, align 4, !dbg !3785, !tbaa !3173
  %64 = zext i32 %63 to i64, !dbg !3786
  %65 = icmp ult i64 %62, %64, !dbg !3786
  br i1 %65, label %55, label %53, !dbg !3787, !llvm.loop !3795

66:                                               ; preds = %53, %49
  %67 = phi %"struct.FastUDPFlows::flow_t"* [ %60, %53 ], [ %47, %49 ]
  %68 = bitcast %"struct.FastUDPFlows::flow_t"* %67 to i8*, !dbg !3788
  call void @_ZdaPv(i8* %68) #14, !dbg !3788
  br label %69, !dbg !3788

69:                                               ; preds = %66, %53
  store %"struct.FastUDPFlows::flow_t"* null, %"struct.FastUDPFlows::flow_t"** %46, align 8, !dbg !3797, !tbaa !2802
  br label %70, !dbg !3798

70:                                               ; preds = %43, %69
  %71 = bitcast %class.Element* %1 to i32 (%class.FastUDPFlows*, %class.ErrorHandler*)***, !dbg !3799
  %72 = load i32 (%class.FastUDPFlows*, %class.ErrorHandler*)**, i32 (%class.FastUDPFlows*, %class.ErrorHandler*)*** %71, align 8, !dbg !3799, !tbaa !2798
  %73 = getelementptr inbounds i32 (%class.FastUDPFlows*, %class.ErrorHandler*)*, i32 (%class.FastUDPFlows*, %class.ErrorHandler*)** %72, i64 19, !dbg !3799
  %74 = load i32 (%class.FastUDPFlows*, %class.ErrorHandler*)*, i32 (%class.FastUDPFlows*, %class.ErrorHandler*)** %73, align 8, !dbg !3799
  %75 = call i32 %74(%class.FastUDPFlows* nonnull %7, %class.ErrorHandler* null), !dbg !3799
  br label %76, !dbg !3800

76:                                               ; preds = %70, %35, %33
  %77 = phi i32 [ %34, %33 ], [ 0, %35 ], [ 0, %70 ], !dbg !3685
  ret i32 %77, !dbg !3801
}

declare i32 @_ZN12ErrorHandler5errorEPKcz(%class.ErrorHandler*, i8*, ...) local_unnamed_addr #2

; Function Attrs: sspstrong uwtable
define dso_local void @_ZN12FastUDPFlows12add_handlersEv(%class.FastUDPFlows* %0) unnamed_addr #0 align 2 !dbg !3802 {
  call void @llvm.dbg.value(metadata %class.FastUDPFlows* %0, metadata !3804, metadata !DIExpression()), !dbg !3805
  %2 = bitcast %class.FastUDPFlows* %0 to %class.Element*, !dbg !3806
  tail call void @_ZN7Element16add_read_handlerEPKcPF6StringPS_PvEij(%class.Element* %2, i8* getelementptr inbounds ([6 x i8], [6 x i8]* @.str.12, i64 0, i64 0), void (%class.String*, %class.Element*, i8*)* nonnull @_ZL31FastUDPFlows_read_count_handlerP7ElementPv, i32 0, i32 0), !dbg !3806
  tail call void @_ZN7Element16add_read_handlerEPKcPF6StringPS_PvEij(%class.Element* %2, i8* getelementptr inbounds ([5 x i8], [5 x i8]* @.str.13, i64 0, i64 0), void (%class.String*, %class.Element*, i8*)* nonnull @_ZL30FastUDPFlows_read_rate_handlerP7ElementPv, i32 0, i32 0), !dbg !3807
  tail call void @_ZN7Element17add_write_handlerEPKcPFiRK6StringPS_PvP12ErrorHandlerEij(%class.Element* %2, i8* getelementptr inbounds ([5 x i8], [5 x i8]* @.str.13, i64 0, i64 0), i32 (%class.String*, %class.Element*, i8*, %class.ErrorHandler*)* nonnull @_ZL31FastUDPFlows_rate_write_handlerRK6StringP7ElementPvP12ErrorHandler, i32 0, i32 0), !dbg !3808
  tail call void @_ZN7Element17add_write_handlerEPKcPFiRK6StringPS_PvP12ErrorHandlerEij(%class.Element* %2, i8* getelementptr inbounds ([6 x i8], [6 x i8]* @.str.14, i64 0, i64 0), i32 (%class.String*, %class.Element*, i8*, %class.ErrorHandler*)* nonnull @_ZL32FastUDPFlows_reset_write_handlerRK6StringP7ElementPvP12ErrorHandler, i32 0, i32 8192), !dbg !3809
  tail call void @_ZN7Element17add_write_handlerEPKcPFiRK6StringPS_PvP12ErrorHandlerEij(%class.Element* %2, i8* getelementptr inbounds ([7 x i8], [7 x i8]* @.str.15, i64 0, i64 0), i32 (%class.String*, %class.Element*, i8*, %class.ErrorHandler*)* nonnull @_ZL33FastUDPFlows_active_write_handlerRK6StringP7ElementPvP12ErrorHandler, i32 0, i32 16384), !dbg !3810
  tail call void @_ZN7Element17add_write_handlerEPKcPFiRK6StringPS_PvP12ErrorHandlerEij(%class.Element* %2, i8* getelementptr inbounds ([6 x i8], [6 x i8]* @.str.16, i64 0, i64 0), i32 (%class.String*, %class.Element*, i8*, %class.ErrorHandler*)* nonnull @_ZL32FastUDPFlows_limit_write_handlerRK6StringP7ElementPvP12ErrorHandler, i32 0, i32 0), !dbg !3811
  %3 = getelementptr inbounds %class.FastUDPFlows, %class.FastUDPFlows* %0, i64 0, i32 3, !dbg !3812
  tail call void @_ZN7Element17add_data_handlersEPKciPj(%class.Element* %2, i8* getelementptr inbounds ([7 x i8], [7 x i8]* @.str.17, i64 0, i64 0), i32 1, i32* nonnull %3), !dbg !3813
  tail call void @_ZN7Element17add_write_handlerEPKcPFiRK6StringPS_PvP12ErrorHandlerEij(%class.Element* %2, i8* getelementptr inbounds ([7 x i8], [7 x i8]* @.str.17, i64 0, i64 0), i32 (%class.String*, %class.Element*, i8*, %class.ErrorHandler*)* nonnull @_ZN12FastUDPFlows20length_write_handlerERK6StringP7ElementPvP12ErrorHandler, i32 0, i32 0), !dbg !3814
  ret void, !dbg !3815
}

declare void @_ZN7Element16add_read_handlerEPKcPF6StringPS_PvEij(%class.Element*, i8*, void (%class.String*, %class.Element*, i8*)*, i32, i32) local_unnamed_addr #2

; Function Attrs: sspstrong uwtable
define internal void @_ZL31FastUDPFlows_read_count_handlerP7ElementPv(%class.String* noalias sret %0, %class.Element* nocapture readonly %1, i8* nocapture readnone %2) #0 !dbg !3816 {
  call void @llvm.dbg.value(metadata %class.Element* %1, metadata !3818, metadata !DIExpression()), !dbg !3821
  call void @llvm.dbg.value(metadata i8* %2, metadata !3819, metadata !DIExpression()), !dbg !3821
  call void @llvm.dbg.value(metadata %class.Element* %1, metadata !3820, metadata !DIExpression()), !dbg !3821
  call void @llvm.dbg.value(metadata %class.Element* %1, metadata !3822, metadata !DIExpression()), !dbg !3825
  %4 = getelementptr inbounds %class.Element, %class.Element* %1, i64 1, i32 2, i64 3, i32 1, !dbg !3827
  %5 = load i32, i32* %4, align 8, !dbg !3827, !tbaa !2851
  tail call void @_ZN6StringC1Ej(%class.String* %0, i32 %5), !dbg !3828
  ret void, !dbg !3829
}

; Function Attrs: sspstrong uwtable
define internal void @_ZL30FastUDPFlows_read_rate_handlerP7ElementPv(%class.String* noalias sret %0, %class.Element* nocapture readonly %1, i8* nocapture readnone %2) #0 !dbg !3830 {
  call void @llvm.dbg.value(metadata %class.Element* %1, metadata !3832, metadata !DIExpression()), !dbg !3839
  call void @llvm.dbg.value(metadata i8* %2, metadata !3833, metadata !DIExpression()), !dbg !3839
  call void @llvm.dbg.value(metadata %class.Element* %1, metadata !3834, metadata !DIExpression()), !dbg !3839
  call void @llvm.dbg.value(metadata %class.Element* %1, metadata !3840, metadata !DIExpression()), !dbg !3843
  %4 = getelementptr inbounds %class.Element, %class.Element* %1, i64 1, i32 2, i64 1, i32 1, !dbg !3845
  %5 = load i32, i32* %4, align 8, !dbg !3845, !tbaa !2845
  %6 = icmp eq i32 %5, 0, !dbg !3846
  br i1 %6, label %18, label %7, !dbg !3847

7:                                                ; preds = %3
  %8 = bitcast %class.Element* %1 to %class.FastUDPFlows*, !dbg !3848
  call void @llvm.dbg.value(metadata %class.FastUDPFlows* %8, metadata !3834, metadata !DIExpression()), !dbg !3839
  call void @llvm.dbg.value(metadata %class.FastUDPFlows* %8, metadata !3840, metadata !DIExpression()), !dbg !3843
  call void @llvm.dbg.value(metadata %class.FastUDPFlows* %8, metadata !3840, metadata !DIExpression()), !dbg !3849
  call void @llvm.dbg.value(metadata %class.FastUDPFlows* %8, metadata !3851, metadata !DIExpression()), !dbg !3854
  %9 = getelementptr inbounds %class.FastUDPFlows, %class.FastUDPFlows* %8, i64 0, i32 13, !dbg !3856
  %10 = load i32, i32* %9, align 4, !dbg !3856, !tbaa !2848
  %11 = sub i32 %5, %10, !dbg !3857
  call void @llvm.dbg.value(metadata i32 %11, metadata !3835, metadata !DIExpression()), !dbg !3858
  %12 = icmp sgt i32 %11, 1, !dbg !3859
  %13 = select i1 %12, i32 %11, i32 1, !dbg !3859
  call void @llvm.dbg.value(metadata i32 %13, metadata !3835, metadata !DIExpression()), !dbg !3858
  call void @llvm.dbg.value(metadata %class.FastUDPFlows* %8, metadata !3822, metadata !DIExpression()), !dbg !3860
  %14 = getelementptr inbounds %class.Element, %class.Element* %1, i64 1, i32 2, i64 3, i32 1, !dbg !3862
  %15 = load i32, i32* %14, align 8, !dbg !3862, !tbaa !2851
  %16 = mul i32 %15, 1000, !dbg !3863
  %17 = udiv i32 %16, %13, !dbg !3864
  call void @llvm.dbg.value(metadata i32 %17, metadata !3838, metadata !DIExpression()), !dbg !3858
  tail call void @_ZN6StringC1Ei(%class.String* %0, i32 %17), !dbg !3865
  br label %22

18:                                               ; preds = %3
  call void @llvm.dbg.value(metadata %class.String* %0, metadata !3866, metadata !DIExpression()), !dbg !3870
  call void @llvm.dbg.value(metadata i8* getelementptr inbounds ([2 x i8], [2 x i8]* @.str.19, i64 0, i64 0), metadata !3869, metadata !DIExpression()), !dbg !3870
  call void @llvm.dbg.value(metadata %class.String* %0, metadata !3873, metadata !DIExpression()), !dbg !3879
  call void @llvm.dbg.value(metadata i8* getelementptr inbounds ([2 x i8], [2 x i8]* @.str.19, i64 0, i64 0), metadata !3876, metadata !DIExpression()), !dbg !3879
  call void @llvm.dbg.value(metadata i32 1, metadata !3877, metadata !DIExpression()), !dbg !3879
  call void @llvm.dbg.value(metadata %"struct.String::memo_t"* null, metadata !3878, metadata !DIExpression()), !dbg !3879
  %19 = getelementptr inbounds %class.String, %class.String* %0, i64 0, i32 0, i32 0, !dbg !3883
  store i8* getelementptr inbounds ([2 x i8], [2 x i8]* @.str.19, i64 0, i64 0), i8** %19, align 8, !dbg !3884, !tbaa !3707
  %20 = getelementptr inbounds %class.String, %class.String* %0, i64 0, i32 0, i32 1, !dbg !3885
  store i32 1, i32* %20, align 8, !dbg !3886, !tbaa !3716
  %21 = getelementptr inbounds %class.String, %class.String* %0, i64 0, i32 0, i32 2, !dbg !3887
  store %"struct.String::memo_t"* null, %"struct.String::memo_t"** %21, align 8, !dbg !3889, !tbaa !3890
  br label %22, !dbg !3891

22:                                               ; preds = %18, %7
  ret void, !dbg !3892
}

declare void @_ZN7Element17add_write_handlerEPKcPFiRK6StringPS_PvP12ErrorHandlerEij(%class.Element*, i8*, i32 (%class.String*, %class.Element*, i8*, %class.ErrorHandler*)*, i32, i32) local_unnamed_addr #2

; Function Attrs: sspstrong uwtable
define internal i32 @_ZL31FastUDPFlows_rate_write_handlerRK6StringP7ElementPvP12ErrorHandler(%class.String* nocapture readonly dereferenceable(24) %0, %class.Element* nocapture %1, i8* nocapture readnone %2, %class.ErrorHandler* %3) #0 !dbg !3893 {
  %5 = alloca [1 x i32], align 4
  call void @llvm.dbg.declare(metadata [1 x i32]* %5, metadata !3658, metadata !DIExpression()), !dbg !3901
  %6 = alloca %class.Timestamp, align 8
  call void @llvm.dbg.declare(metadata %class.Timestamp* %6, metadata !3383, metadata !DIExpression()), !dbg !3905
  %7 = alloca %class.IntArg, align 4
  call void @llvm.dbg.value(metadata %class.String* %0, metadata !3895, metadata !DIExpression()), !dbg !3917
  call void @llvm.dbg.value(metadata %class.Element* %1, metadata !3896, metadata !DIExpression()), !dbg !3917
  call void @llvm.dbg.value(metadata i8* %2, metadata !3897, metadata !DIExpression()), !dbg !3917
  call void @llvm.dbg.value(metadata %class.ErrorHandler* %3, metadata !3898, metadata !DIExpression()), !dbg !3917
  call void @llvm.dbg.value(metadata %class.Element* %1, metadata !3899, metadata !DIExpression()), !dbg !3917
  %8 = bitcast %class.IntArg* %7 to i8*, !dbg !3918
  call void @llvm.lifetime.start.p0i8(i64 8, i8* nonnull %8) #13, !dbg !3918
  call void @llvm.dbg.value(metadata %class.IntArg* %7, metadata !3688, metadata !DIExpression()), !dbg !3919
  call void @llvm.dbg.value(metadata i32 0, metadata !3691, metadata !DIExpression()), !dbg !3919
  %9 = getelementptr inbounds %class.IntArg, %class.IntArg* %7, i64 0, i32 0, !dbg !3921
  store i32 0, i32* %9, align 4, !dbg !3921, !tbaa !3695
  call void @llvm.dbg.value(metadata %class.IntArg* %7, metadata !3678, metadata !DIExpression()), !dbg !3922
  call void @llvm.dbg.value(metadata %class.String* %0, metadata !3679, metadata !DIExpression()), !dbg !3922
  call void @llvm.dbg.value(metadata %class.ArgContext* @blank_args, metadata !3681, metadata !DIExpression()), !dbg !3922
  call void @llvm.dbg.value(metadata %class.IntArg* %7, metadata !3666, metadata !DIExpression()), !dbg !3923
  call void @llvm.dbg.value(metadata %class.String* %0, metadata !3667, metadata !DIExpression()), !dbg !3923
  call void @llvm.dbg.value(metadata %class.ArgContext* @blank_args, metadata !3669, metadata !DIExpression()), !dbg !3923
  call void @llvm.dbg.value(metadata i8 0, metadata !3670, metadata !DIExpression()), !dbg !3923
  call void @llvm.dbg.value(metadata i32 1, metadata !3671, metadata !DIExpression()), !dbg !3923
  %10 = bitcast [1 x i32]* %5 to i8*, !dbg !3924
  call void @llvm.lifetime.start.p0i8(i64 4, i8* nonnull %10) #13, !dbg !3924
  call void @llvm.dbg.value(metadata %class.String* %0, metadata !3700, metadata !DIExpression()), !dbg !3925
  %11 = getelementptr inbounds %class.String, %class.String* %0, i64 0, i32 0, i32 0, !dbg !3927
  %12 = load i8*, i8** %11, align 8, !dbg !3927, !tbaa !3707
  call void @llvm.dbg.value(metadata %class.String* %0, metadata !3710, metadata !DIExpression()), !dbg !3928
  %13 = getelementptr inbounds %class.String, %class.String* %0, i64 0, i32 0, i32 1, !dbg !3930
  %14 = load i32, i32* %13, align 8, !dbg !3930, !tbaa !3716
  %15 = sext i32 %14 to i64, !dbg !3931
  %16 = getelementptr inbounds i8, i8* %12, i64 %15, !dbg !3931
  %17 = getelementptr inbounds [1 x i32], [1 x i32]* %5, i64 0, i64 0, !dbg !3932
  %18 = call i8* @_ZN6IntArg5parseEPKcS1_biPji(%class.IntArg* nonnull %7, i8* %12, i8* %16, i1 zeroext false, i32 4, i32* nonnull %17, i32 1), !dbg !3933
  call void @llvm.dbg.value(metadata %class.String* %0, metadata !3710, metadata !DIExpression()), !dbg !3934
  %19 = load i8*, i8** %11, align 8, !dbg !3936, !tbaa !3707
  %20 = load i32, i32* %13, align 8, !dbg !3937, !tbaa !3716
  %21 = sext i32 %20 to i64, !dbg !3938
  %22 = getelementptr inbounds i8, i8* %19, i64 %21, !dbg !3938
  %23 = icmp eq i8* %18, %22, !dbg !3939
  %24 = getelementptr inbounds %class.IntArg, %class.IntArg* %7, i64 0, i32 1, !dbg !3923
  br i1 %23, label %26, label %25, !dbg !3940

25:                                               ; preds = %4
  store i32 22, i32* %24, align 4, !dbg !3941, !tbaa !3728
  br label %28, !dbg !3942

26:                                               ; preds = %4
  %27 = load i32, i32* %24, align 4, !dbg !3943, !tbaa !3728
  switch i32 %27, label %28 [
    i32 0, label %29
    i32 34, label %29
  ], !dbg !3942

28:                                               ; preds = %26, %25
  call void (%class.ArgContext*, i8*, ...) @_ZNK10ArgContext5errorEPKcz(%class.ArgContext* nonnull @blank_args, i8* getelementptr inbounds ([15 x i8], [15 x i8]* @.str.24, i64 0, i64 0)), !dbg !3944
  call void @llvm.lifetime.end.p0i8(i64 4, i8* nonnull %10) #13, !dbg !3945
  br label %33, !dbg !3946

29:                                               ; preds = %26, %26
  call void @llvm.dbg.value(metadata i32* %17, metadata !3736, metadata !DIExpression()), !dbg !3947
  call void @llvm.dbg.value(metadata i32* %17, metadata !3747, metadata !DIExpression()), !dbg !3949
  %30 = load i32, i32* %17, align 4, !dbg !3951, !tbaa !3044
  call void @llvm.lifetime.end.p0i8(i64 4, i8* nonnull %10) #13, !dbg !3945
  switch i32 %27, label %33 [
    i32 34, label %31
    i32 0, label %35
  ], !dbg !3952

31:                                               ; preds = %29
  %32 = zext i32 %30 to i64, !dbg !3953
  call void @_ZN6IntArg11range_errorERK10ArgContextbx(%class.IntArg* nonnull %7, %class.ArgContext* nonnull dereferenceable(32) @blank_args, i1 zeroext false, i64 %32), !dbg !3954
  br label %33, !dbg !3955

33:                                               ; preds = %31, %29, %28
  call void @llvm.lifetime.end.p0i8(i64 8, i8* nonnull %8) #13, !dbg !3956
  %34 = call i32 (%class.ErrorHandler*, i8*, ...) @_ZN12ErrorHandler5errorEPKcz(%class.ErrorHandler* %3, i8* getelementptr inbounds ([36 x i8], [36 x i8]* @.str.20, i64 0, i64 0)), !dbg !3957
  br label %74, !dbg !3958

35:                                               ; preds = %29
  call void @llvm.lifetime.end.p0i8(i64 8, i8* nonnull %8) #13, !dbg !3956
  call void @llvm.dbg.value(metadata i32 %30, metadata !3900, metadata !DIExpression()), !dbg !3917
  %36 = icmp ugt i32 %30, -198967296, !dbg !3959
  br i1 %36, label %37, label %39, !dbg !3961

37:                                               ; preds = %35
  %38 = call i32 (%class.ErrorHandler*, i8*, ...) @_ZN12ErrorHandler5errorEPKcz(%class.ErrorHandler* %3, i8* getelementptr inbounds ([26 x i8], [26 x i8]* @.str.21, i64 0, i64 0), i32 -198967296), !dbg !3962
  br label %74, !dbg !3963

39:                                               ; preds = %35
  %40 = getelementptr inbounds %class.Element, %class.Element* %1, i64 1, i32 2, i64 2, i32 1, !dbg !3964
  call void @llvm.dbg.value(metadata i32* %40, metadata !3913, metadata !DIExpression()), !dbg !3965
  call void @llvm.dbg.value(metadata i32 %30, metadata !3914, metadata !DIExpression()), !dbg !3965
  call void @llvm.dbg.value(metadata i32 %30, metadata !3914, metadata !DIExpression()), !dbg !3965
  %41 = getelementptr inbounds i32, i32* %40, i64 3, !dbg !3966
  %42 = load i32, i32* %41, align 4, !dbg !3966, !tbaa !2827
  %43 = icmp eq i32 %42, %30, !dbg !3967
  br i1 %43, label %74, label %44, !dbg !3968

44:                                               ; preds = %39
  call void @llvm.dbg.value(metadata i32* %40, metadata !2818, metadata !DIExpression()), !dbg !3969
  call void @llvm.dbg.value(metadata i32 %30, metadata !2821, metadata !DIExpression()), !dbg !3969
  store i32 %30, i32* %41, align 4, !dbg !3971, !tbaa !2827
  %45 = icmp eq i32 %30, 0, !dbg !3972
  br i1 %45, label %46, label %47, !dbg !3973

46:                                               ; preds = %44
  store i32 -198967295, i32* %40, align 4, !dbg !3974, !tbaa !2830
  br label %74, !dbg !3975

47:                                               ; preds = %44
  %48 = udiv i32 -198967296, %30, !dbg !3976
  store i32 %48, i32* %40, align 4, !dbg !3974, !tbaa !2830
  %49 = getelementptr inbounds i32, i32* %40, i64 2, !dbg !3977
  %50 = load i32, i32* %49, align 4, !dbg !3977, !tbaa !2838
  %51 = icmp sgt i32 %50, -1, !dbg !3978
  br i1 %51, label %52, label %74, !dbg !3975

52:                                               ; preds = %47
  %53 = bitcast %class.Timestamp* %6 to i8*, !dbg !3979
  call void @llvm.lifetime.start.p0i8(i64 8, i8* nonnull %53), !dbg !3979
  call void @_ZN9Timestamp10assign_nowEv(%class.Timestamp* nonnull %6), !dbg !3979
  %54 = getelementptr inbounds %class.Timestamp, %class.Timestamp* %6, i64 0, i32 0, i32 0, !dbg !3980
  %55 = load i64, i64* %54, align 8, !dbg !3980
  call void @llvm.lifetime.end.p0i8(i64 8, i8* nonnull %53), !dbg !3980
  call void @llvm.dbg.value(metadata i64 %55, metadata !3915, metadata !DIExpression()), !dbg !3981
  call void @llvm.dbg.value(metadata %class.Timestamp* undef, metadata !3412, metadata !DIExpression()), !dbg !3982
  call void @llvm.dbg.value(metadata %class.Timestamp* undef, metadata !3418, metadata !DIExpression()), !dbg !3984
  call void @llvm.dbg.value(metadata %class.Timestamp* undef, metadata !3423, metadata !DIExpression()), !dbg !3986
  %56 = icmp slt i64 %55, 0, !dbg !3988
  br i1 %56, label %57, label %61, !dbg !3989, !prof !3431, !misexpect !3432

57:                                               ; preds = %52
  %58 = xor i64 %55, -1, !dbg !3990
  call void @llvm.dbg.value(metadata i64 %58, metadata !3434, metadata !DIExpression()), !dbg !3991
  call void @llvm.dbg.value(metadata i32 1000000000, metadata !3437, metadata !DIExpression()), !dbg !3991
  call void @llvm.dbg.value(metadata i64 %58, metadata !3440, metadata !DIExpression()), !dbg !3993
  call void @llvm.dbg.value(metadata i32 1000000000, metadata !3446, metadata !DIExpression()), !dbg !3993
  %59 = sdiv i64 %58, 1000000000, !dbg !3995
  %60 = xor i64 %59, -1, !dbg !3996
  br label %63, !dbg !3997

61:                                               ; preds = %52
  call void @llvm.dbg.value(metadata i64 %55, metadata !3434, metadata !DIExpression()), !dbg !3998
  call void @llvm.dbg.value(metadata i32 1000000000, metadata !3437, metadata !DIExpression()), !dbg !3998
  call void @llvm.dbg.value(metadata i64 %55, metadata !3440, metadata !DIExpression()), !dbg !4000
  call void @llvm.dbg.value(metadata i32 1000000000, metadata !3446, metadata !DIExpression()), !dbg !4000
  %62 = udiv i64 %55, 1000000000, !dbg !4002
  br label %63, !dbg !4003

63:                                               ; preds = %61, %57
  %64 = phi i64 [ %60, %57 ], [ %62, %61 ]
  %65 = trunc i64 %64 to i32, !dbg !4004
  %66 = trunc i64 %55 to i32, !dbg !4005
  %67 = mul i32 %65, -1000000000, !dbg !4005
  %68 = add i32 %67, %66, !dbg !4005
  call void @llvm.dbg.value(metadata i32 %68, metadata !3460, metadata !DIExpression()), !dbg !4006
  %69 = udiv i32 %68, 1000, !dbg !4008
  %70 = shl i32 %69, 12, !dbg !4009
  %71 = load i32, i32* %40, align 4, !dbg !4010, !tbaa !2830
  %72 = udiv i32 %70, %71, !dbg !4011
  %73 = getelementptr inbounds i32, i32* %40, i64 1, !dbg !4012
  store i32 %72, i32* %73, align 4, !dbg !4013, !tbaa !3528
  br label %74, !dbg !4014

74:                                               ; preds = %46, %63, %47, %39, %37, %33
  %75 = phi i32 [ %34, %33 ], [ %38, %37 ], [ 0, %39 ], [ 0, %47 ], [ 0, %63 ], [ 0, %46 ], !dbg !3917
  ret i32 %75, !dbg !4015
}

; Function Attrs: nofree norecurse nounwind sspstrong uwtable writeonly
define internal i32 @_ZL32FastUDPFlows_reset_write_handlerRK6StringP7ElementPvP12ErrorHandler(%class.String* nocapture readnone dereferenceable(24) %0, %class.Element* nocapture %1, i8* nocapture readnone %2, %class.ErrorHandler* nocapture readnone %3) #8 !dbg !4016 {
  call void @llvm.dbg.value(metadata %class.String* %0, metadata !4018, metadata !DIExpression()), !dbg !4023
  call void @llvm.dbg.value(metadata %class.Element* %1, metadata !4019, metadata !DIExpression()), !dbg !4023
  call void @llvm.dbg.value(metadata i8* %2, metadata !4020, metadata !DIExpression()), !dbg !4023
  call void @llvm.dbg.value(metadata %class.ErrorHandler* %3, metadata !4021, metadata !DIExpression()), !dbg !4023
  %5 = bitcast %class.Element* %1 to %class.FastUDPFlows*, !dbg !4024
  call void @llvm.dbg.value(metadata %class.FastUDPFlows* %5, metadata !4022, metadata !DIExpression()), !dbg !4023
  call void @llvm.dbg.value(metadata %class.FastUDPFlows* %5, metadata !3641, metadata !DIExpression()), !dbg !4025
  %6 = getelementptr inbounds %class.Element, %class.Element* %1, i64 1, i32 2, i64 3, i32 1, !dbg !4027
  store i32 0, i32* %6, align 8, !dbg !4028, !tbaa !2851
  %7 = getelementptr inbounds %class.FastUDPFlows, %class.FastUDPFlows* %5, i64 0, i32 13, !dbg !4029
  store i32 0, i32* %7, align 4, !dbg !4030, !tbaa !2848
  %8 = getelementptr inbounds %class.Element, %class.Element* %1, i64 1, i32 2, i64 1, i32 1, !dbg !4031
  store i32 0, i32* %8, align 8, !dbg !4032, !tbaa !2845
  ret i32 0, !dbg !4033
}

; Function Attrs: sspstrong uwtable
define internal i32 @_ZL33FastUDPFlows_active_write_handlerRK6StringP7ElementPvP12ErrorHandler(%class.String* dereferenceable(24) %0, %class.Element* nocapture %1, i8* nocapture readnone %2, %class.ErrorHandler* %3) #0 !dbg !4034 {
  %5 = alloca i8, align 1
  call void @llvm.dbg.value(metadata %class.String* %0, metadata !4036, metadata !DIExpression()), !dbg !4042
  call void @llvm.dbg.value(metadata %class.Element* %1, metadata !4037, metadata !DIExpression()), !dbg !4042
  call void @llvm.dbg.value(metadata i8* %2, metadata !4038, metadata !DIExpression()), !dbg !4042
  call void @llvm.dbg.value(metadata %class.ErrorHandler* %3, metadata !4039, metadata !DIExpression()), !dbg !4042
  %6 = bitcast %class.Element* %1 to %class.FastUDPFlows*, !dbg !4043
  call void @llvm.dbg.value(metadata %class.FastUDPFlows* %6, metadata !4040, metadata !DIExpression()), !dbg !4042
  call void @llvm.lifetime.start.p0i8(i64 1, i8* nonnull %5) #13, !dbg !4044
  call void @llvm.dbg.value(metadata i8* %5, metadata !4041, metadata !DIExpression(DW_OP_deref)), !dbg !4042
  %7 = call zeroext i1 @_ZN7BoolArg5parseERK6StringRbRK10ArgContext(%class.String* nonnull dereferenceable(24) %0, i8* nonnull dereferenceable(1) %5, %class.ArgContext* nonnull dereferenceable(32) @blank_args), !dbg !4045
  br i1 %7, label %10, label %8, !dbg !4047

8:                                                ; preds = %4
  %9 = call i32 (%class.ErrorHandler*, i8*, ...) @_ZN12ErrorHandler5errorEPKcz(%class.ErrorHandler* %3, i8* getelementptr inbounds ([33 x i8], [33 x i8]* @.str.22, i64 0, i64 0)), !dbg !4048
  br label %19, !dbg !4049

10:                                               ; preds = %4
  %11 = load i8, i8* %5, align 1, !dbg !4050, !tbaa !4051, !range !3128
  call void @llvm.dbg.value(metadata i8 %11, metadata !4041, metadata !DIExpression()), !dbg !4042
  %12 = getelementptr inbounds %class.Element, %class.Element* %1, i64 1, i32 3, !dbg !4052
  %13 = bitcast [2 x i32]* %12 to i8*, !dbg !4052
  store i8 %11, i8* %13, align 8, !dbg !4053, !tbaa !2883
  call void @llvm.dbg.value(metadata i8 %11, metadata !4041, metadata !DIExpression()), !dbg !4042
  %14 = icmp eq i8 %11, 0, !dbg !4054
  br i1 %14, label %19, label %15, !dbg !4056

15:                                               ; preds = %10
  call void @llvm.dbg.value(metadata %class.FastUDPFlows* %6, metadata !3641, metadata !DIExpression()), !dbg !4057
  %16 = getelementptr inbounds %class.Element, %class.Element* %1, i64 1, i32 2, i64 3, i32 1, !dbg !4059
  store i32 0, i32* %16, align 8, !dbg !4060, !tbaa !2851
  %17 = getelementptr inbounds %class.FastUDPFlows, %class.FastUDPFlows* %6, i64 0, i32 13, !dbg !4061
  store i32 0, i32* %17, align 4, !dbg !4062, !tbaa !2848
  %18 = getelementptr inbounds %class.Element, %class.Element* %1, i64 1, i32 2, i64 1, i32 1, !dbg !4063
  store i32 0, i32* %18, align 8, !dbg !4064, !tbaa !2845
  br label %19, !dbg !4065

19:                                               ; preds = %15, %10, %8
  %20 = phi i32 [ %9, %8 ], [ 0, %10 ], [ 0, %15 ], !dbg !4042
  call void @llvm.lifetime.end.p0i8(i64 1, i8* nonnull %5) #13, !dbg !4066
  ret i32 %20, !dbg !4066
}

; Function Attrs: sspstrong uwtable
define internal i32 @_ZL32FastUDPFlows_limit_write_handlerRK6StringP7ElementPvP12ErrorHandler(%class.String* nocapture readonly dereferenceable(24) %0, %class.Element* nocapture %1, i8* nocapture readnone %2, %class.ErrorHandler* %3) #0 !dbg !4067 {
  %5 = alloca [1 x i32], align 4
  call void @llvm.dbg.declare(metadata [1 x i32]* %5, metadata !1728, metadata !DIExpression()), !dbg !4075
  %6 = alloca %class.IntArg, align 4
  call void @llvm.dbg.value(metadata %class.String* %0, metadata !4069, metadata !DIExpression()), !dbg !4088
  call void @llvm.dbg.value(metadata %class.Element* %1, metadata !4070, metadata !DIExpression()), !dbg !4088
  call void @llvm.dbg.value(metadata i8* %2, metadata !4071, metadata !DIExpression()), !dbg !4088
  call void @llvm.dbg.value(metadata %class.ErrorHandler* %3, metadata !4072, metadata !DIExpression()), !dbg !4088
  call void @llvm.dbg.value(metadata %class.Element* %1, metadata !4073, metadata !DIExpression()), !dbg !4088
  %7 = bitcast %class.IntArg* %6 to i8*, !dbg !4089
  call void @llvm.lifetime.start.p0i8(i64 8, i8* nonnull %7) #13, !dbg !4089
  call void @llvm.dbg.value(metadata %class.IntArg* %6, metadata !3688, metadata !DIExpression()), !dbg !4090
  call void @llvm.dbg.value(metadata i32 0, metadata !3691, metadata !DIExpression()), !dbg !4090
  %8 = getelementptr inbounds %class.IntArg, %class.IntArg* %6, i64 0, i32 0, !dbg !4092
  store i32 0, i32* %8, align 4, !dbg !4092, !tbaa !3695
  call void @llvm.dbg.value(metadata %class.IntArg* %6, metadata !4081, metadata !DIExpression()), !dbg !4093
  call void @llvm.dbg.value(metadata %class.String* %0, metadata !4082, metadata !DIExpression()), !dbg !4093
  call void @llvm.dbg.value(metadata %class.ArgContext* @blank_args, metadata !4084, metadata !DIExpression()), !dbg !4093
  call void @llvm.dbg.value(metadata %class.IntArg* %6, metadata !1720, metadata !DIExpression()), !dbg !4094
  call void @llvm.dbg.value(metadata %class.String* %0, metadata !1722, metadata !DIExpression()), !dbg !4094
  call void @llvm.dbg.value(metadata %class.ArgContext* @blank_args, metadata !1724, metadata !DIExpression()), !dbg !4094
  call void @llvm.dbg.value(metadata i8 1, metadata !1725, metadata !DIExpression()), !dbg !4094
  call void @llvm.dbg.value(metadata i32 1, metadata !1726, metadata !DIExpression()), !dbg !4094
  %9 = bitcast [1 x i32]* %5 to i8*, !dbg !4095
  call void @llvm.lifetime.start.p0i8(i64 4, i8* nonnull %9) #13, !dbg !4095
  call void @llvm.dbg.value(metadata %class.String* %0, metadata !3700, metadata !DIExpression()), !dbg !4096
  %10 = getelementptr inbounds %class.String, %class.String* %0, i64 0, i32 0, i32 0, !dbg !4099
  %11 = load i8*, i8** %10, align 8, !dbg !4099, !tbaa !3707
  call void @llvm.dbg.value(metadata %class.String* %0, metadata !3710, metadata !DIExpression()), !dbg !4100
  %12 = getelementptr inbounds %class.String, %class.String* %0, i64 0, i32 0, i32 1, !dbg !4102
  %13 = load i32, i32* %12, align 8, !dbg !4102, !tbaa !3716
  %14 = sext i32 %13 to i64, !dbg !4103
  %15 = getelementptr inbounds i8, i8* %11, i64 %14, !dbg !4103
  %16 = getelementptr inbounds [1 x i32], [1 x i32]* %5, i64 0, i64 0, !dbg !4104
  %17 = call i8* @_ZN6IntArg5parseEPKcS1_biPji(%class.IntArg* nonnull %6, i8* %11, i8* %15, i1 zeroext true, i32 4, i32* nonnull %16, i32 1), !dbg !4105
  call void @llvm.dbg.value(metadata %class.String* %0, metadata !3710, metadata !DIExpression()), !dbg !4106
  %18 = load i8*, i8** %10, align 8, !dbg !4108, !tbaa !3707
  %19 = load i32, i32* %12, align 8, !dbg !4109, !tbaa !3716
  %20 = sext i32 %19 to i64, !dbg !4110
  %21 = getelementptr inbounds i8, i8* %18, i64 %20, !dbg !4110
  %22 = icmp eq i8* %17, %21, !dbg !4111
  %23 = getelementptr inbounds %class.IntArg, %class.IntArg* %6, i64 0, i32 1, !dbg !4094
  br i1 %22, label %25, label %24, !dbg !4112

24:                                               ; preds = %4
  store i32 22, i32* %23, align 4, !dbg !4113, !tbaa !3728
  br label %27, !dbg !4114

25:                                               ; preds = %4
  %26 = load i32, i32* %23, align 4, !dbg !4116, !tbaa !3728
  switch i32 %26, label %27 [
    i32 0, label %28
    i32 34, label %28
  ], !dbg !4114

27:                                               ; preds = %25, %24
  call void (%class.ArgContext*, i8*, ...) @_ZNK10ArgContext5errorEPKcz(%class.ArgContext* nonnull @blank_args, i8* getelementptr inbounds ([15 x i8], [15 x i8]* @.str.24, i64 0, i64 0)), !dbg !4117
  call void @llvm.lifetime.end.p0i8(i64 4, i8* nonnull %9) #13, !dbg !4119
  br label %32, !dbg !4120

28:                                               ; preds = %25, %25
  call void @llvm.dbg.value(metadata i32* %16, metadata !3736, metadata !DIExpression()), !dbg !4121
  call void @llvm.dbg.value(metadata i32* %16, metadata !3747, metadata !DIExpression()), !dbg !4123
  %29 = load i32, i32* %16, align 4, !dbg !4125, !tbaa !3044
  call void @llvm.lifetime.end.p0i8(i64 4, i8* nonnull %9) #13, !dbg !4119
  switch i32 %26, label %32 [
    i32 34, label %30
    i32 0, label %34
  ], !dbg !4126

30:                                               ; preds = %28
  %31 = sext i32 %29 to i64, !dbg !4127
  call void @_ZN6IntArg11range_errorERK10ArgContextbx(%class.IntArg* nonnull %6, %class.ArgContext* nonnull dereferenceable(32) @blank_args, i1 zeroext true, i64 %31), !dbg !4130
  br label %32, !dbg !4131

32:                                               ; preds = %30, %28, %27
  call void @llvm.lifetime.end.p0i8(i64 8, i8* nonnull %7) #13, !dbg !4132
  %33 = call i32 (%class.ErrorHandler*, i8*, ...) @_ZN12ErrorHandler5errorEPKcz(%class.ErrorHandler* %3, i8* getelementptr inbounds ([37 x i8], [37 x i8]* @.str.23, i64 0, i64 0)), !dbg !4133
  br label %39, !dbg !4134

34:                                               ; preds = %28
  call void @llvm.lifetime.end.p0i8(i64 8, i8* nonnull %7) #13, !dbg !4132
  call void @llvm.dbg.value(metadata i32 %29, metadata !4074, metadata !DIExpression()), !dbg !4088
  %35 = icmp sgt i32 %29, -1, !dbg !4135
  %36 = select i1 %35, i32 %29, i32 -1, !dbg !4136
  %37 = getelementptr inbounds %class.Element, %class.Element* %1, i64 1, i32 2, i64 3, i32 2, !dbg !4137
  %38 = bitcast [4 x i8]* %37 to i32*, !dbg !4137
  store i32 %36, i32* %38, align 4, !dbg !4138, !tbaa !3079
  br label %39, !dbg !4139

39:                                               ; preds = %34, %32
  %40 = phi i32 [ %33, %32 ], [ 0, %34 ], !dbg !4088
  ret i32 %40, !dbg !4140
}

declare void @_ZN7Element17add_data_handlersEPKciPj(%class.Element*, i8*, i32, i32*) local_unnamed_addr #2

declare void @_ZN7Element4pushEiP6Packet(%class.Element*, i32, %class.Packet*) unnamed_addr #2

declare %class.Packet* @_ZN7Element13simple_actionEP6Packet(%class.Element*, %class.Packet*) unnamed_addr #2

declare zeroext i1 @_ZN7Element8run_taskEP4Task(%class.Element*, %class.Task*) unnamed_addr #2

declare void @_ZN7Element9run_timerEP5Timer(%class.Element*, %class.Timer*) unnamed_addr #2

declare void @_ZN7Element8selectedEii(%class.Element*, i32, i32) unnamed_addr #2

declare void @_ZN7Element8selectedEi(%class.Element*, i32) unnamed_addr #2

; Function Attrs: nounwind sspstrong uwtable
define linkonce_odr dso_local i8* @_ZNK12FastUDPFlows10class_nameEv(%class.FastUDPFlows* %0) unnamed_addr #4 comdat align 2 !dbg !4141 {
  call void @llvm.dbg.value(metadata %class.FastUDPFlows* %0, metadata !4143, metadata !DIExpression()), !dbg !4145
  ret i8* getelementptr inbounds ([13 x i8], [13 x i8]* @.str.25, i64 0, i64 0), !dbg !4146
}

; Function Attrs: nounwind sspstrong uwtable
define linkonce_odr dso_local i8* @_ZNK12FastUDPFlows10port_countEv(%class.FastUDPFlows* %0) unnamed_addr #4 comdat align 2 !dbg !4147 {
  call void @llvm.dbg.value(metadata %class.FastUDPFlows* %0, metadata !4149, metadata !DIExpression()), !dbg !4150
  ret i8* getelementptr inbounds ([0 x i8], [0 x i8]* @_ZN7Element9PORTS_0_1E, i64 0, i64 0), !dbg !4151
}

; Function Attrs: nounwind sspstrong uwtable
define linkonce_odr dso_local i8* @_ZNK12FastUDPFlows10processingEv(%class.FastUDPFlows* %0) unnamed_addr #4 comdat align 2 !dbg !4152 {
  call void @llvm.dbg.value(metadata %class.FastUDPFlows* %0, metadata !4154, metadata !DIExpression()), !dbg !4155
  ret i8* getelementptr inbounds ([0 x i8], [0 x i8]* @_ZN7Element4PULLE, i64 0, i64 0), !dbg !4156
}

declare i8* @_ZNK7Element9flow_codeEv(%class.Element*) unnamed_addr #2

declare i8* @_ZNK7Element5flagsEv(%class.Element*) unnamed_addr #2

declare i8* @_ZN7Element4castEPKc(%class.Element*, i8*) unnamed_addr #2

declare i8* @_ZN7Element9port_castEbiPKc(%class.Element*, i1 zeroext, i32, i8*) unnamed_addr #2

declare i32 @_ZNK7Element15configure_phaseEv(%class.Element*) unnamed_addr #2

declare void @_ZN7Element10take_stateEPS_P12ErrorHandler(%class.Element*, %class.Element*, %class.ErrorHandler*) unnamed_addr #2

declare %class.Element* @_ZNK7Element15hotswap_elementEv(%class.Element*) unnamed_addr #2

declare void @_ZNK7Element11declarationEv(%class.String* sret, %class.Element*) unnamed_addr #2

declare zeroext i1 @_ZNK7Element20can_live_reconfigureEv(%class.Element*) unnamed_addr #2

declare i32 @_ZN7Element16live_reconfigureER6VectorI6StringEP12ErrorHandler(%class.Element*, %class.Vector* dereferenceable(16), %class.ErrorHandler*) unnamed_addr #2

declare i32 @_ZN7Element5llrpcEjPv(%class.Element*, i32, i8*) unnamed_addr #2

declare !dbg !1636 void @click_chatter(i8*, ...) local_unnamed_addr #2

; Function Attrs: nounwind
declare !dbg !1639 i64 @random() local_unnamed_addr #3

declare !dbg !1643 zeroext i16 @click_in_cksum_pseudohdr_raw(i32, i32, i32, i32, i32) local_unnamed_addr #2

declare !dbg !1646 zeroext i16 @click_in_cksum_pseudohdr_hard(i32, %struct.click_ip*, i32) local_unnamed_addr #2

declare %class.WritablePacket* @_ZN6Packet4makeEjPKvjj(i32, i8*, i32, i32) local_unnamed_addr #2

; Function Attrs: noinline optnone sspstrong uwtable
define linkonce_odr dso_local void @_ZN9Timestamp10assign_nowEv(%class.Timestamp* %0) local_unnamed_addr #9 comdat align 2 !dbg !4157 {
  %2 = alloca %class.Timestamp*, align 8
  store %class.Timestamp* %0, %class.Timestamp** %2, align 8, !tbaa !4161
  call void @llvm.dbg.declare(metadata %class.Timestamp** %2, metadata !4159, metadata !DIExpression()), !dbg !4162
  %3 = load %class.Timestamp*, %class.Timestamp** %2, align 8
  call void @_ZN9Timestamp10assign_nowEbbb(%class.Timestamp* %3, i1 zeroext false, i1 zeroext false, i1 zeroext false), !dbg !4163
  ret void, !dbg !4164
}

declare void @_ZN9Timestamp10assign_nowEbbb(%class.Timestamp*, i1 zeroext, i1 zeroext, i1 zeroext) local_unnamed_addr #2

declare void @_ZN6StringC1Ej(%class.String*, i32) unnamed_addr #2

declare void @_ZN6StringC1Ei(%class.String*, i32) unnamed_addr #2

declare zeroext i1 @_ZN7BoolArg5parseERK6StringRbRK10ArgContext(%class.String* dereferenceable(24), i8* dereferenceable(1), %class.ArgContext* dereferenceable(32)) local_unnamed_addr #2

declare void @_ZN6IntArg11range_errorERK10ArgContextbx(%class.IntArg*, %class.ArgContext* dereferenceable(32), i1 zeroext, i64) local_unnamed_addr #2

declare i8* @_ZN6IntArg5parseEPKcS1_biPji(%class.IntArg*, i8*, i8*, i1 zeroext, i32, i32*, i32) local_unnamed_addr #2

declare void @_ZNK10ArgContext5errorEPKcz(%class.ArgContext*, i8*, ...) local_unnamed_addr #2

; Function Attrs: noinline optnone sspstrong uwtable
define linkonce_odr dso_local void @_Z14args_base_readIjEvP4ArgsPKciRT_(%class.Args* %0, i8* %1, i32 %2, i32* dereferenceable(4) %3) local_unnamed_addr #9 comdat !dbg !4165 {
  %5 = alloca %class.Args*, align 8
  %6 = alloca i8*, align 8
  %7 = alloca i32, align 4
  %8 = alloca i32*, align 8
  store %class.Args* %0, %class.Args** %5, align 8, !tbaa !4161
  call void @llvm.dbg.declare(metadata %class.Args** %5, metadata !4167, metadata !DIExpression()), !dbg !4171
  store i8* %1, i8** %6, align 8, !tbaa !4161
  call void @llvm.dbg.declare(metadata i8** %6, metadata !4168, metadata !DIExpression()), !dbg !4172
  store i32 %2, i32* %7, align 4, !tbaa !3044
  call void @llvm.dbg.declare(metadata i32* %7, metadata !4169, metadata !DIExpression()), !dbg !4173
  store i32* %3, i32** %8, align 8, !tbaa !4161
  call void @llvm.dbg.declare(metadata i32** %8, metadata !4170, metadata !DIExpression()), !dbg !4174
  %9 = load %class.Args*, %class.Args** %5, align 8, !dbg !4175, !tbaa !4161
  %10 = load i8*, i8** %6, align 8, !dbg !4176, !tbaa !4161
  %11 = load i32, i32* %7, align 4, !dbg !4177, !tbaa !3044
  %12 = load i32*, i32** %8, align 8, !dbg !4178, !tbaa !4161
  call void @_ZN4Args9base_readIjEEvPKciRT_(%class.Args* %9, i8* %10, i32 %11, i32* dereferenceable(4) %12), !dbg !4179
  ret void, !dbg !4180
}

; Function Attrs: sspstrong uwtable
define linkonce_odr dso_local void @_ZN4Args9base_readIjEEvPKciRT_(%class.Args* %0, i8* %1, i32 %2, i32* dereferenceable(4) %3) local_unnamed_addr #0 comdat align 2 personality i8* bitcast (i32 (...)* @__gxx_personality_v0 to i8*) !dbg !4181 {
  %5 = alloca [1 x i32], align 4
  call void @llvm.dbg.declare(metadata [1 x i32]* %5, metadata !3658, metadata !DIExpression()), !dbg !4195
  %6 = alloca i64, align 8
  %7 = alloca %"struct.Args::Slot"*, align 8
  %8 = alloca %class.String, align 8
  call void @llvm.dbg.value(metadata %class.Args* %0, metadata !4186, metadata !DIExpression()), !dbg !4217
  call void @llvm.dbg.value(metadata i8* %1, metadata !4187, metadata !DIExpression()), !dbg !4217
  call void @llvm.dbg.value(metadata i32 %2, metadata !4188, metadata !DIExpression()), !dbg !4217
  call void @llvm.dbg.value(metadata i32* %3, metadata !4189, metadata !DIExpression()), !dbg !4217
  %9 = bitcast %"struct.Args::Slot"** %7 to i8*, !dbg !4218
  call void @llvm.lifetime.start.p0i8(i64 8, i8* nonnull %9) #13, !dbg !4218
  %10 = bitcast %class.String* %8 to i8*, !dbg !4219
  call void @llvm.lifetime.start.p0i8(i64 24, i8* nonnull %10) #13, !dbg !4219
  call void @llvm.dbg.declare(metadata %class.String* %8, metadata !4191, metadata !DIExpression()), !dbg !4220
  call void @llvm.dbg.value(metadata %"struct.Args::Slot"** %7, metadata !4190, metadata !DIExpression(DW_OP_deref)), !dbg !4217
  call void @_ZN4Args4findEPKciRPNS_4SlotE(%class.String* nonnull sret %8, %class.Args* %0, i8* %1, i32 %2, %"struct.Args::Slot"** nonnull dereferenceable(8) %7), !dbg !4221
  call void @llvm.dbg.value(metadata %class.String* %8, metadata !4222, metadata !DIExpression()), !dbg !4225
  %11 = getelementptr inbounds %class.String, %class.String* %8, i64 0, i32 0, i32 1, !dbg !4227
  %12 = load i32, i32* %11, align 8, !dbg !4227, !tbaa !3716
  %13 = icmp eq i32 %12, 0, !dbg !4228
  %14 = select i1 %13, { i64, i64 } zeroinitializer, { i64, i64 } { i64 ptrtoint (i32 (%class.String*)* @_ZNK6String6lengthEv to i64), i64 0 }, !dbg !4229
  %15 = extractvalue { i64, i64 } %14, 0, !dbg !4220
  %16 = icmp eq i64 %15, 0, !dbg !4220
  br i1 %16, label %77, label %17, !dbg !4219

17:                                               ; preds = %4
  call void @llvm.dbg.value(metadata i32* %3, metadata !4230, metadata !DIExpression()), !dbg !4237
  call void @llvm.dbg.value(metadata %class.Args* %0, metadata !4236, metadata !DIExpression()), !dbg !4237
  call void @llvm.dbg.value(metadata %class.Args* %0, metadata !4239, metadata !DIExpression()), !dbg !4246
  call void @llvm.dbg.value(metadata i32* %3, metadata !4245, metadata !DIExpression()), !dbg !4246
  %18 = bitcast i32* %3 to i8*, !dbg !4248
  %19 = invoke i8* @_ZN4Args11simple_slotEPvm(%class.Args* nonnull %0, i8* nonnull %18, i64 4)
          to label %20 unwind label %57, !dbg !4250

20:                                               ; preds = %17
  %21 = bitcast i8* %19 to i32*, !dbg !4251
  call void @llvm.dbg.value(metadata i32* %21, metadata !4193, metadata !DIExpression()), !dbg !4252
  %22 = icmp eq i8* %19, null, !dbg !4253
  br i1 %22, label %54, label %23, !dbg !4254

23:                                               ; preds = %20
  %24 = bitcast i64* %6 to i8*, !dbg !4255
  call void @llvm.lifetime.start.p0i8(i64 8, i8* nonnull %24), !dbg !4255
  call void @llvm.dbg.value(metadata i64 0, metadata !4212, metadata !DIExpression()), !dbg !4255
  store i64 0, i64* %6, align 8
  call void @llvm.dbg.value(metadata %class.String* %8, metadata !4213, metadata !DIExpression()), !dbg !4255
  call void @llvm.dbg.value(metadata i32* %21, metadata !4214, metadata !DIExpression()), !dbg !4255
  call void @llvm.dbg.value(metadata %class.Args* %0, metadata !4215, metadata !DIExpression()), !dbg !4255
  %25 = bitcast i64* %6 to %class.IntArg*, !dbg !4256
  %26 = bitcast %class.Args* %0 to %class.ArgContext*, !dbg !4257
  call void @llvm.dbg.value(metadata %class.IntArg* %25, metadata !3678, metadata !DIExpression()), !dbg !4258
  call void @llvm.dbg.value(metadata %class.String* %8, metadata !3679, metadata !DIExpression()), !dbg !4258
  call void @llvm.dbg.value(metadata i32* %21, metadata !3680, metadata !DIExpression()), !dbg !4258
  call void @llvm.dbg.value(metadata %class.ArgContext* %26, metadata !3681, metadata !DIExpression()), !dbg !4258
  call void @llvm.dbg.value(metadata %class.IntArg* %25, metadata !3666, metadata !DIExpression()), !dbg !4259
  call void @llvm.dbg.value(metadata %class.String* %8, metadata !3667, metadata !DIExpression()), !dbg !4259
  call void @llvm.dbg.value(metadata %class.ArgContext* %26, metadata !3669, metadata !DIExpression()), !dbg !4259
  call void @llvm.dbg.value(metadata i8 0, metadata !3670, metadata !DIExpression()), !dbg !4259
  call void @llvm.dbg.value(metadata i32 1, metadata !3671, metadata !DIExpression()), !dbg !4259
  %27 = bitcast [1 x i32]* %5 to i8*, !dbg !4260
  call void @llvm.lifetime.start.p0i8(i64 4, i8* nonnull %27) #13, !dbg !4260
  call void @llvm.dbg.value(metadata %class.String* %8, metadata !3700, metadata !DIExpression()), !dbg !4261
  %28 = getelementptr inbounds %class.String, %class.String* %8, i64 0, i32 0, i32 0, !dbg !4263
  %29 = load i8*, i8** %28, align 8, !dbg !4263, !tbaa !3707
  call void @llvm.dbg.value(metadata %class.String* %8, metadata !3710, metadata !DIExpression()), !dbg !4264
  %30 = load i32, i32* %11, align 8, !dbg !4266, !tbaa !3716
  %31 = sext i32 %30 to i64, !dbg !4267
  %32 = getelementptr inbounds i8, i8* %29, i64 %31, !dbg !4267
  %33 = getelementptr inbounds [1 x i32], [1 x i32]* %5, i64 0, i64 0, !dbg !4268
  call void @llvm.dbg.value(metadata i64* %6, metadata !4212, metadata !DIExpression(DW_OP_deref)), !dbg !4255
  %34 = invoke i8* @_ZN6IntArg5parseEPKcS1_biPji(%class.IntArg* nonnull %25, i8* %29, i8* %32, i1 zeroext false, i32 4, i32* nonnull %33, i32 1)
          to label %35 unwind label %57, !dbg !4269

35:                                               ; preds = %23
  call void @llvm.dbg.value(metadata %class.String* %8, metadata !3710, metadata !DIExpression()), !dbg !4270
  %36 = load i8*, i8** %28, align 8, !dbg !4272, !tbaa !3707
  %37 = load i32, i32* %11, align 8, !dbg !4273, !tbaa !3716
  %38 = sext i32 %37 to i64, !dbg !4274
  %39 = getelementptr inbounds i8, i8* %36, i64 %38, !dbg !4274
  %40 = icmp eq i8* %34, %39, !dbg !4275
  %41 = getelementptr inbounds %class.IntArg, %class.IntArg* %25, i64 0, i32 1, !dbg !4259
  br i1 %40, label %43, label %42, !dbg !4276

42:                                               ; preds = %35
  store i32 22, i32* %41, align 4, !dbg !4277, !tbaa !3728
  br label %45, !dbg !4278

43:                                               ; preds = %35
  %44 = load i32, i32* %41, align 4, !dbg !4279, !tbaa !3728
  switch i32 %44, label %45 [
    i32 0, label %47
    i32 34, label %47
  ], !dbg !4278

45:                                               ; preds = %43, %42
  invoke void (%class.ArgContext*, i8*, ...) @_ZNK10ArgContext5errorEPKcz(%class.ArgContext* nonnull %26, i8* getelementptr inbounds ([15 x i8], [15 x i8]* @.str.24, i64 0, i64 0))
          to label %46 unwind label %57, !dbg !4280

46:                                               ; preds = %45
  call void @llvm.lifetime.end.p0i8(i64 4, i8* nonnull %27) #13, !dbg !4281
  br label %52, !dbg !4282

47:                                               ; preds = %43, %43
  call void @llvm.dbg.value(metadata i32* %33, metadata !3736, metadata !DIExpression()), !dbg !4283
  call void @llvm.dbg.value(metadata i32* %33, metadata !3747, metadata !DIExpression()), !dbg !4285
  %48 = load i32, i32* %33, align 4, !dbg !4287, !tbaa !3044
  call void @llvm.lifetime.end.p0i8(i64 4, i8* nonnull %27) #13, !dbg !4281
  switch i32 %44, label %52 [
    i32 34, label %49
    i32 0, label %51
  ], !dbg !4288

49:                                               ; preds = %47
  %50 = zext i32 %48 to i64, !dbg !4289
  call void @llvm.dbg.value(metadata i64* %6, metadata !4212, metadata !DIExpression(DW_OP_deref)), !dbg !4255
  invoke void @_ZN6IntArg11range_errorERK10ArgContextbx(%class.IntArg* nonnull %25, %class.ArgContext* nonnull dereferenceable(32) %26, i1 zeroext false, i64 %50)
          to label %52 unwind label %57, !dbg !4290

51:                                               ; preds = %47
  store i32 %48, i32* %21, align 4, !dbg !4291, !tbaa !3044
  br label %52, !dbg !4293

52:                                               ; preds = %49, %46, %47, %51
  %53 = phi i1 [ true, %51 ], [ false, %47 ], [ false, %46 ], [ false, %49 ], !dbg !4294
  call void @llvm.lifetime.end.p0i8(i64 8, i8* nonnull %24), !dbg !4295
  br label %54, !dbg !4295

54:                                               ; preds = %52, %20
  %55 = phi i1 [ false, %20 ], [ %53, %52 ], !dbg !4252
  %56 = load %"struct.Args::Slot"*, %"struct.Args::Slot"** %7, align 8, !dbg !4296, !tbaa !4161
  call void @llvm.dbg.value(metadata %"struct.Args::Slot"* %56, metadata !4190, metadata !DIExpression()), !dbg !4217
  invoke void @_ZN4Args9postparseEbPNS_4SlotE(%class.Args* nonnull %0, i1 zeroext %55, %"struct.Args::Slot"* %56)
          to label %77 unwind label %57, !dbg !4297

57:                                               ; preds = %49, %45, %23, %17, %54
  %58 = landingpad { i8*, i32 }
          cleanup, !dbg !4298
  call void @llvm.dbg.value(metadata %class.String* %8, metadata !4299, metadata !DIExpression()) #13, !dbg !4302
  call void @llvm.dbg.value(metadata %class.String* %8, metadata !4304, metadata !DIExpression()) #13, !dbg !4307
  %59 = getelementptr inbounds %class.String, %class.String* %8, i64 0, i32 0, i32 2, !dbg !4310
  %60 = load %"struct.String::memo_t"*, %"struct.String::memo_t"** %59, align 8, !dbg !4310, !tbaa !3890
  %61 = icmp eq %"struct.String::memo_t"* %60, null, !dbg !4312
  br i1 %61, label %76, label %62, !dbg !4313

62:                                               ; preds = %57
  %63 = getelementptr inbounds %"struct.String::memo_t", %"struct.String::memo_t"* %60, i64 0, i32 0, !dbg !4314
  %64 = load volatile i32, i32* %63, align 4, !dbg !4314, !tbaa !4316
  %65 = icmp eq i32 %64, 0, !dbg !4314
  br i1 %65, label %66, label %67, !dbg !4314

66:                                               ; preds = %62
  call void @__assert_fail(i8* getelementptr inbounds ([18 x i8], [18 x i8]* @.str.26, i64 0, i64 0), i8* getelementptr inbounds ([29 x i8], [29 x i8]* @.str.27, i64 0, i64 0), i32 273, i8* getelementptr inbounds ([27 x i8], [27 x i8]* @__PRETTY_FUNCTION__._ZNK6String5derefEv, i64 0, i64 0)) #16, !dbg !4314
  unreachable, !dbg !4314

67:                                               ; preds = %62
  call void @llvm.dbg.value(metadata i32* %63, metadata !4318, metadata !DIExpression()) #13, !dbg !4321
  %68 = load volatile i32, i32* %63, align 4, !dbg !4324, !tbaa !3044
  %69 = add i32 %68, -1, !dbg !4324
  store volatile i32 %69, i32* %63, align 4, !dbg !4324, !tbaa !3044
  %70 = icmp eq i32 %69, 0, !dbg !4325
  br i1 %70, label %71, label %72, !dbg !4326

71:                                               ; preds = %67
  invoke void @_ZN6String11delete_memoEPNS_6memo_tE(%"struct.String::memo_t"* nonnull %60)
          to label %72 unwind label %73, !dbg !4327

72:                                               ; preds = %71, %67
  store %"struct.String::memo_t"* null, %"struct.String::memo_t"** %59, align 8, !dbg !4328, !tbaa !3890
  br label %76, !dbg !4329

73:                                               ; preds = %71
  %74 = landingpad { i8*, i32 }
          catch i8* null, !dbg !4330
  %75 = extractvalue { i8*, i32 } %74, 0, !dbg !4330
  call void @__clang_call_terminate(i8* %75) #16, !dbg !4330
  unreachable, !dbg !4330

76:                                               ; preds = %57, %72
  call void @llvm.lifetime.end.p0i8(i64 24, i8* nonnull %10) #13, !dbg !4219
  call void @llvm.lifetime.end.p0i8(i64 8, i8* nonnull %9) #13, !dbg !4331
  resume { i8*, i32 } %58, !dbg !4331

77:                                               ; preds = %54, %4
  call void @llvm.dbg.value(metadata %class.String* %8, metadata !4299, metadata !DIExpression()) #13, !dbg !4332
  call void @llvm.dbg.value(metadata %class.String* %8, metadata !4304, metadata !DIExpression()) #13, !dbg !4334
  %78 = getelementptr inbounds %class.String, %class.String* %8, i64 0, i32 0, i32 2, !dbg !4336
  %79 = load %"struct.String::memo_t"*, %"struct.String::memo_t"** %78, align 8, !dbg !4336, !tbaa !3890
  %80 = icmp eq %"struct.String::memo_t"* %79, null, !dbg !4337
  br i1 %80, label %95, label %81, !dbg !4338

81:                                               ; preds = %77
  %82 = getelementptr inbounds %"struct.String::memo_t", %"struct.String::memo_t"* %79, i64 0, i32 0, !dbg !4339
  %83 = load volatile i32, i32* %82, align 4, !dbg !4339, !tbaa !4316
  %84 = icmp eq i32 %83, 0, !dbg !4339
  br i1 %84, label %85, label %86, !dbg !4339

85:                                               ; preds = %81
  call void @__assert_fail(i8* getelementptr inbounds ([18 x i8], [18 x i8]* @.str.26, i64 0, i64 0), i8* getelementptr inbounds ([29 x i8], [29 x i8]* @.str.27, i64 0, i64 0), i32 273, i8* getelementptr inbounds ([27 x i8], [27 x i8]* @__PRETTY_FUNCTION__._ZNK6String5derefEv, i64 0, i64 0)) #16, !dbg !4339
  unreachable, !dbg !4339

86:                                               ; preds = %81
  call void @llvm.dbg.value(metadata i32* %82, metadata !4318, metadata !DIExpression()) #13, !dbg !4340
  %87 = load volatile i32, i32* %82, align 4, !dbg !4342, !tbaa !3044
  %88 = add i32 %87, -1, !dbg !4342
  store volatile i32 %88, i32* %82, align 4, !dbg !4342, !tbaa !3044
  %89 = icmp eq i32 %88, 0, !dbg !4343
  br i1 %89, label %90, label %91, !dbg !4344

90:                                               ; preds = %86
  invoke void @_ZN6String11delete_memoEPNS_6memo_tE(%"struct.String::memo_t"* nonnull %79)
          to label %91 unwind label %92, !dbg !4345

91:                                               ; preds = %90, %86
  store %"struct.String::memo_t"* null, %"struct.String::memo_t"** %78, align 8, !dbg !4346, !tbaa !3890
  br label %95, !dbg !4347

92:                                               ; preds = %90
  %93 = landingpad { i8*, i32 }
          catch i8* null, !dbg !4348
  %94 = extractvalue { i8*, i32 } %93, 0, !dbg !4348
  call void @__clang_call_terminate(i8* %94) #16, !dbg !4348
  unreachable, !dbg !4348

95:                                               ; preds = %77, %91
  call void @llvm.lifetime.end.p0i8(i64 24, i8* nonnull %10) #13, !dbg !4219
  call void @llvm.lifetime.end.p0i8(i64 8, i8* nonnull %9) #13, !dbg !4331
  ret void, !dbg !4331
}

declare void @_ZN4Args4findEPKciRPNS_4SlotE(%class.String* sret, %class.Args*, i8*, i32, %"struct.Args::Slot"** dereferenceable(8)) local_unnamed_addr #2

declare void @_ZN4Args9postparseEbPNS_4SlotE(%class.Args*, i1 zeroext, %"struct.Args::Slot"*) local_unnamed_addr #2

; Function Attrs: inlinehint nounwind sspstrong uwtable
define linkonce_odr dso_local i32 @_ZNK6String6lengthEv(%class.String* %0) #10 comdat align 2 !dbg !4349 {
  call void @llvm.dbg.value(metadata %class.String* %0, metadata !4351, metadata !DIExpression()), !dbg !4352
  %2 = getelementptr inbounds %class.String, %class.String* %0, i64 0, i32 0, i32 1, !dbg !4353
  %3 = load i32, i32* %2, align 8, !dbg !4353, !tbaa !3716
  ret i32 %3, !dbg !4354
}

declare i8* @_ZN4Args11simple_slotEPvm(%class.Args*, i8*, i64) local_unnamed_addr #2

; Function Attrs: noinline noreturn nounwind
define linkonce_odr hidden void @__clang_call_terminate(i8* %0) local_unnamed_addr #11 comdat {
  %2 = tail call i8* @__cxa_begin_catch(i8* %0) #13
  tail call void @_ZSt9terminatev() #16
  unreachable
}

declare i8* @__cxa_begin_catch(i8*) local_unnamed_addr

declare void @_ZSt9terminatev() local_unnamed_addr

; Function Attrs: noreturn nounwind
declare void @__assert_fail(i8*, i8*, i32, i8*) local_unnamed_addr #12

declare void @_ZN6String11delete_memoEPNS_6memo_tE(%"struct.String::memo_t"*) local_unnamed_addr #2

; Function Attrs: noinline optnone sspstrong uwtable
define linkonce_odr dso_local void @_Z14args_base_readIiEvP4ArgsPKciRT_(%class.Args* %0, i8* %1, i32 %2, i32* dereferenceable(4) %3) local_unnamed_addr #9 comdat !dbg !4355 {
  %5 = alloca %class.Args*, align 8
  %6 = alloca i8*, align 8
  %7 = alloca i32, align 4
  %8 = alloca i32*, align 8
  store %class.Args* %0, %class.Args** %5, align 8, !tbaa !4161
  call void @llvm.dbg.declare(metadata %class.Args** %5, metadata !4357, metadata !DIExpression()), !dbg !4361
  store i8* %1, i8** %6, align 8, !tbaa !4161
  call void @llvm.dbg.declare(metadata i8** %6, metadata !4358, metadata !DIExpression()), !dbg !4362
  store i32 %2, i32* %7, align 4, !tbaa !3044
  call void @llvm.dbg.declare(metadata i32* %7, metadata !4359, metadata !DIExpression()), !dbg !4363
  store i32* %3, i32** %8, align 8, !tbaa !4161
  call void @llvm.dbg.declare(metadata i32** %8, metadata !4360, metadata !DIExpression()), !dbg !4364
  %9 = load %class.Args*, %class.Args** %5, align 8, !dbg !4365, !tbaa !4161
  %10 = load i8*, i8** %6, align 8, !dbg !4366, !tbaa !4161
  %11 = load i32, i32* %7, align 4, !dbg !4367, !tbaa !3044
  %12 = load i32*, i32** %8, align 8, !dbg !4368, !tbaa !4161
  call void @_ZN4Args9base_readIiEEvPKciRT_(%class.Args* %9, i8* %10, i32 %11, i32* dereferenceable(4) %12), !dbg !4369
  ret void, !dbg !4370
}

; Function Attrs: sspstrong uwtable
define linkonce_odr dso_local void @_ZN4Args9base_readIiEEvPKciRT_(%class.Args* %0, i8* %1, i32 %2, i32* dereferenceable(4) %3) local_unnamed_addr #0 comdat align 2 personality i8* bitcast (i32 (...)* @__gxx_personality_v0 to i8*) !dbg !4371 {
  %5 = alloca [1 x i32], align 4
  call void @llvm.dbg.declare(metadata [1 x i32]* %5, metadata !1728, metadata !DIExpression()), !dbg !4385
  %6 = alloca i64, align 8
  %7 = alloca %"struct.Args::Slot"*, align 8
  %8 = alloca %class.String, align 8
  call void @llvm.dbg.value(metadata %class.Args* %0, metadata !4376, metadata !DIExpression()), !dbg !4405
  call void @llvm.dbg.value(metadata i8* %1, metadata !4377, metadata !DIExpression()), !dbg !4405
  call void @llvm.dbg.value(metadata i32 %2, metadata !4378, metadata !DIExpression()), !dbg !4405
  call void @llvm.dbg.value(metadata i32* %3, metadata !4379, metadata !DIExpression()), !dbg !4405
  %9 = bitcast %"struct.Args::Slot"** %7 to i8*, !dbg !4406
  call void @llvm.lifetime.start.p0i8(i64 8, i8* nonnull %9) #13, !dbg !4406
  %10 = bitcast %class.String* %8 to i8*, !dbg !4407
  call void @llvm.lifetime.start.p0i8(i64 24, i8* nonnull %10) #13, !dbg !4407
  call void @llvm.dbg.declare(metadata %class.String* %8, metadata !4381, metadata !DIExpression()), !dbg !4408
  call void @llvm.dbg.value(metadata %"struct.Args::Slot"** %7, metadata !4380, metadata !DIExpression(DW_OP_deref)), !dbg !4405
  call void @_ZN4Args4findEPKciRPNS_4SlotE(%class.String* nonnull sret %8, %class.Args* %0, i8* %1, i32 %2, %"struct.Args::Slot"** nonnull dereferenceable(8) %7), !dbg !4409
  call void @llvm.dbg.value(metadata %class.String* %8, metadata !4222, metadata !DIExpression()), !dbg !4410
  %11 = getelementptr inbounds %class.String, %class.String* %8, i64 0, i32 0, i32 1, !dbg !4412
  %12 = load i32, i32* %11, align 8, !dbg !4412, !tbaa !3716
  %13 = icmp eq i32 %12, 0, !dbg !4413
  %14 = select i1 %13, { i64, i64 } zeroinitializer, { i64, i64 } { i64 ptrtoint (i32 (%class.String*)* @_ZNK6String6lengthEv to i64), i64 0 }, !dbg !4414
  %15 = extractvalue { i64, i64 } %14, 0, !dbg !4408
  %16 = icmp eq i64 %15, 0, !dbg !4408
  br i1 %16, label %77, label %17, !dbg !4407

17:                                               ; preds = %4
  call void @llvm.dbg.value(metadata i32* %3, metadata !4415, metadata !DIExpression()), !dbg !4422
  call void @llvm.dbg.value(metadata %class.Args* %0, metadata !4421, metadata !DIExpression()), !dbg !4422
  call void @llvm.dbg.value(metadata %class.Args* %0, metadata !4424, metadata !DIExpression()), !dbg !4431
  call void @llvm.dbg.value(metadata i32* %3, metadata !4430, metadata !DIExpression()), !dbg !4431
  %18 = bitcast i32* %3 to i8*, !dbg !4433
  %19 = invoke i8* @_ZN4Args11simple_slotEPvm(%class.Args* nonnull %0, i8* nonnull %18, i64 4)
          to label %20 unwind label %57, !dbg !4435

20:                                               ; preds = %17
  %21 = bitcast i8* %19 to i32*, !dbg !4436
  call void @llvm.dbg.value(metadata i32* %21, metadata !4383, metadata !DIExpression()), !dbg !4437
  %22 = icmp eq i8* %19, null, !dbg !4438
  br i1 %22, label %54, label %23, !dbg !4439

23:                                               ; preds = %20
  %24 = bitcast i64* %6 to i8*, !dbg !4440
  call void @llvm.lifetime.start.p0i8(i64 8, i8* nonnull %24), !dbg !4440
  call void @llvm.dbg.value(metadata i64 0, metadata !4400, metadata !DIExpression()), !dbg !4440
  store i64 0, i64* %6, align 8
  call void @llvm.dbg.value(metadata %class.String* %8, metadata !4401, metadata !DIExpression()), !dbg !4440
  call void @llvm.dbg.value(metadata i32* %21, metadata !4402, metadata !DIExpression()), !dbg !4440
  call void @llvm.dbg.value(metadata %class.Args* %0, metadata !4403, metadata !DIExpression()), !dbg !4440
  %25 = bitcast i64* %6 to %class.IntArg*, !dbg !4441
  %26 = bitcast %class.Args* %0 to %class.ArgContext*, !dbg !4442
  call void @llvm.dbg.value(metadata %class.IntArg* %25, metadata !4081, metadata !DIExpression()), !dbg !4443
  call void @llvm.dbg.value(metadata %class.String* %8, metadata !4082, metadata !DIExpression()), !dbg !4443
  call void @llvm.dbg.value(metadata i32* %21, metadata !4083, metadata !DIExpression()), !dbg !4443
  call void @llvm.dbg.value(metadata %class.ArgContext* %26, metadata !4084, metadata !DIExpression()), !dbg !4443
  call void @llvm.dbg.value(metadata %class.IntArg* %25, metadata !1720, metadata !DIExpression()), !dbg !4444
  call void @llvm.dbg.value(metadata %class.String* %8, metadata !1722, metadata !DIExpression()), !dbg !4444
  call void @llvm.dbg.value(metadata %class.ArgContext* %26, metadata !1724, metadata !DIExpression()), !dbg !4444
  call void @llvm.dbg.value(metadata i8 1, metadata !1725, metadata !DIExpression()), !dbg !4444
  call void @llvm.dbg.value(metadata i32 1, metadata !1726, metadata !DIExpression()), !dbg !4444
  %27 = bitcast [1 x i32]* %5 to i8*, !dbg !4445
  call void @llvm.lifetime.start.p0i8(i64 4, i8* nonnull %27) #13, !dbg !4445
  call void @llvm.dbg.value(metadata %class.String* %8, metadata !3700, metadata !DIExpression()), !dbg !4446
  %28 = getelementptr inbounds %class.String, %class.String* %8, i64 0, i32 0, i32 0, !dbg !4448
  %29 = load i8*, i8** %28, align 8, !dbg !4448, !tbaa !3707
  call void @llvm.dbg.value(metadata %class.String* %8, metadata !3710, metadata !DIExpression()), !dbg !4449
  %30 = load i32, i32* %11, align 8, !dbg !4451, !tbaa !3716
  %31 = sext i32 %30 to i64, !dbg !4452
  %32 = getelementptr inbounds i8, i8* %29, i64 %31, !dbg !4452
  %33 = getelementptr inbounds [1 x i32], [1 x i32]* %5, i64 0, i64 0, !dbg !4453
  call void @llvm.dbg.value(metadata i64* %6, metadata !4400, metadata !DIExpression(DW_OP_deref)), !dbg !4440
  %34 = invoke i8* @_ZN6IntArg5parseEPKcS1_biPji(%class.IntArg* nonnull %25, i8* %29, i8* %32, i1 zeroext true, i32 4, i32* nonnull %33, i32 1)
          to label %35 unwind label %57, !dbg !4454

35:                                               ; preds = %23
  call void @llvm.dbg.value(metadata %class.String* %8, metadata !3710, metadata !DIExpression()), !dbg !4455
  %36 = load i8*, i8** %28, align 8, !dbg !4457, !tbaa !3707
  %37 = load i32, i32* %11, align 8, !dbg !4458, !tbaa !3716
  %38 = sext i32 %37 to i64, !dbg !4459
  %39 = getelementptr inbounds i8, i8* %36, i64 %38, !dbg !4459
  %40 = icmp eq i8* %34, %39, !dbg !4460
  %41 = getelementptr inbounds %class.IntArg, %class.IntArg* %25, i64 0, i32 1, !dbg !4444
  br i1 %40, label %43, label %42, !dbg !4461

42:                                               ; preds = %35
  store i32 22, i32* %41, align 4, !dbg !4462, !tbaa !3728
  br label %45, !dbg !4463

43:                                               ; preds = %35
  %44 = load i32, i32* %41, align 4, !dbg !4464, !tbaa !3728
  switch i32 %44, label %45 [
    i32 0, label %47
    i32 34, label %47
  ], !dbg !4463

45:                                               ; preds = %43, %42
  invoke void (%class.ArgContext*, i8*, ...) @_ZNK10ArgContext5errorEPKcz(%class.ArgContext* nonnull %26, i8* getelementptr inbounds ([15 x i8], [15 x i8]* @.str.24, i64 0, i64 0))
          to label %46 unwind label %57, !dbg !4465

46:                                               ; preds = %45
  call void @llvm.lifetime.end.p0i8(i64 4, i8* nonnull %27) #13, !dbg !4466
  br label %52, !dbg !4467

47:                                               ; preds = %43, %43
  call void @llvm.dbg.value(metadata i32* %33, metadata !3736, metadata !DIExpression()), !dbg !4468
  call void @llvm.dbg.value(metadata i32* %33, metadata !3747, metadata !DIExpression()), !dbg !4470
  %48 = load i32, i32* %33, align 4, !dbg !4472, !tbaa !3044
  call void @llvm.lifetime.end.p0i8(i64 4, i8* nonnull %27) #13, !dbg !4466
  switch i32 %44, label %52 [
    i32 34, label %49
    i32 0, label %51
  ], !dbg !4473

49:                                               ; preds = %47
  %50 = sext i32 %48 to i64, !dbg !4474
  call void @llvm.dbg.value(metadata i64* %6, metadata !4400, metadata !DIExpression(DW_OP_deref)), !dbg !4440
  invoke void @_ZN6IntArg11range_errorERK10ArgContextbx(%class.IntArg* nonnull %25, %class.ArgContext* nonnull dereferenceable(32) %26, i1 zeroext true, i64 %50)
          to label %52 unwind label %57, !dbg !4475

51:                                               ; preds = %47
  store i32 %48, i32* %21, align 4, !dbg !4476, !tbaa !3044
  br label %52, !dbg !4478

52:                                               ; preds = %49, %46, %47, %51
  %53 = phi i1 [ true, %51 ], [ false, %47 ], [ false, %46 ], [ false, %49 ], !dbg !4479
  call void @llvm.lifetime.end.p0i8(i64 8, i8* nonnull %24), !dbg !4480
  br label %54, !dbg !4480

54:                                               ; preds = %52, %20
  %55 = phi i1 [ false, %20 ], [ %53, %52 ], !dbg !4437
  %56 = load %"struct.Args::Slot"*, %"struct.Args::Slot"** %7, align 8, !dbg !4481, !tbaa !4161
  call void @llvm.dbg.value(metadata %"struct.Args::Slot"* %56, metadata !4380, metadata !DIExpression()), !dbg !4405
  invoke void @_ZN4Args9postparseEbPNS_4SlotE(%class.Args* nonnull %0, i1 zeroext %55, %"struct.Args::Slot"* %56)
          to label %77 unwind label %57, !dbg !4482

57:                                               ; preds = %49, %45, %23, %17, %54
  %58 = landingpad { i8*, i32 }
          cleanup, !dbg !4483
  call void @llvm.dbg.value(metadata %class.String* %8, metadata !4299, metadata !DIExpression()) #13, !dbg !4484
  call void @llvm.dbg.value(metadata %class.String* %8, metadata !4304, metadata !DIExpression()) #13, !dbg !4486
  %59 = getelementptr inbounds %class.String, %class.String* %8, i64 0, i32 0, i32 2, !dbg !4488
  %60 = load %"struct.String::memo_t"*, %"struct.String::memo_t"** %59, align 8, !dbg !4488, !tbaa !3890
  %61 = icmp eq %"struct.String::memo_t"* %60, null, !dbg !4489
  br i1 %61, label %76, label %62, !dbg !4490

62:                                               ; preds = %57
  %63 = getelementptr inbounds %"struct.String::memo_t", %"struct.String::memo_t"* %60, i64 0, i32 0, !dbg !4491
  %64 = load volatile i32, i32* %63, align 4, !dbg !4491, !tbaa !4316
  %65 = icmp eq i32 %64, 0, !dbg !4491
  br i1 %65, label %66, label %67, !dbg !4491

66:                                               ; preds = %62
  call void @__assert_fail(i8* getelementptr inbounds ([18 x i8], [18 x i8]* @.str.26, i64 0, i64 0), i8* getelementptr inbounds ([29 x i8], [29 x i8]* @.str.27, i64 0, i64 0), i32 273, i8* getelementptr inbounds ([27 x i8], [27 x i8]* @__PRETTY_FUNCTION__._ZNK6String5derefEv, i64 0, i64 0)) #16, !dbg !4491
  unreachable, !dbg !4491

67:                                               ; preds = %62
  call void @llvm.dbg.value(metadata i32* %63, metadata !4318, metadata !DIExpression()) #13, !dbg !4492
  %68 = load volatile i32, i32* %63, align 4, !dbg !4494, !tbaa !3044
  %69 = add i32 %68, -1, !dbg !4494
  store volatile i32 %69, i32* %63, align 4, !dbg !4494, !tbaa !3044
  %70 = icmp eq i32 %69, 0, !dbg !4495
  br i1 %70, label %71, label %72, !dbg !4496

71:                                               ; preds = %67
  invoke void @_ZN6String11delete_memoEPNS_6memo_tE(%"struct.String::memo_t"* nonnull %60)
          to label %72 unwind label %73, !dbg !4497

72:                                               ; preds = %71, %67
  store %"struct.String::memo_t"* null, %"struct.String::memo_t"** %59, align 8, !dbg !4498, !tbaa !3890
  br label %76, !dbg !4499

73:                                               ; preds = %71
  %74 = landingpad { i8*, i32 }
          catch i8* null, !dbg !4500
  %75 = extractvalue { i8*, i32 } %74, 0, !dbg !4500
  call void @__clang_call_terminate(i8* %75) #16, !dbg !4500
  unreachable, !dbg !4500

76:                                               ; preds = %57, %72
  call void @llvm.lifetime.end.p0i8(i64 24, i8* nonnull %10) #13, !dbg !4407
  call void @llvm.lifetime.end.p0i8(i64 8, i8* nonnull %9) #13, !dbg !4501
  resume { i8*, i32 } %58, !dbg !4501

77:                                               ; preds = %54, %4
  call void @llvm.dbg.value(metadata %class.String* %8, metadata !4299, metadata !DIExpression()) #13, !dbg !4502
  call void @llvm.dbg.value(metadata %class.String* %8, metadata !4304, metadata !DIExpression()) #13, !dbg !4504
  %78 = getelementptr inbounds %class.String, %class.String* %8, i64 0, i32 0, i32 2, !dbg !4506
  %79 = load %"struct.String::memo_t"*, %"struct.String::memo_t"** %78, align 8, !dbg !4506, !tbaa !3890
  %80 = icmp eq %"struct.String::memo_t"* %79, null, !dbg !4507
  br i1 %80, label %95, label %81, !dbg !4508

81:                                               ; preds = %77
  %82 = getelementptr inbounds %"struct.String::memo_t", %"struct.String::memo_t"* %79, i64 0, i32 0, !dbg !4509
  %83 = load volatile i32, i32* %82, align 4, !dbg !4509, !tbaa !4316
  %84 = icmp eq i32 %83, 0, !dbg !4509
  br i1 %84, label %85, label %86, !dbg !4509

85:                                               ; preds = %81
  call void @__assert_fail(i8* getelementptr inbounds ([18 x i8], [18 x i8]* @.str.26, i64 0, i64 0), i8* getelementptr inbounds ([29 x i8], [29 x i8]* @.str.27, i64 0, i64 0), i32 273, i8* getelementptr inbounds ([27 x i8], [27 x i8]* @__PRETTY_FUNCTION__._ZNK6String5derefEv, i64 0, i64 0)) #16, !dbg !4509
  unreachable, !dbg !4509

86:                                               ; preds = %81
  call void @llvm.dbg.value(metadata i32* %82, metadata !4318, metadata !DIExpression()) #13, !dbg !4510
  %87 = load volatile i32, i32* %82, align 4, !dbg !4512, !tbaa !3044
  %88 = add i32 %87, -1, !dbg !4512
  store volatile i32 %88, i32* %82, align 4, !dbg !4512, !tbaa !3044
  %89 = icmp eq i32 %88, 0, !dbg !4513
  br i1 %89, label %90, label %91, !dbg !4514

90:                                               ; preds = %86
  invoke void @_ZN6String11delete_memoEPNS_6memo_tE(%"struct.String::memo_t"* nonnull %79)
          to label %91 unwind label %92, !dbg !4515

91:                                               ; preds = %90, %86
  store %"struct.String::memo_t"* null, %"struct.String::memo_t"** %78, align 8, !dbg !4516, !tbaa !3890
  br label %95, !dbg !4517

92:                                               ; preds = %90
  %93 = landingpad { i8*, i32 }
          catch i8* null, !dbg !4518
  %94 = extractvalue { i8*, i32 } %93, 0, !dbg !4518
  call void @__clang_call_terminate(i8* %94) #16, !dbg !4518
  unreachable, !dbg !4518

95:                                               ; preds = %77, %91
  call void @llvm.lifetime.end.p0i8(i64 24, i8* nonnull %10) #13, !dbg !4407
  call void @llvm.lifetime.end.p0i8(i64 8, i8* nonnull %9) #13, !dbg !4501
  ret void, !dbg !4501
}

; Function Attrs: noinline optnone sspstrong uwtable
define linkonce_odr dso_local void @_Z14args_base_readI15EtherAddressArgA6_hEvP4ArgsPKciT_RT0_(%class.Args* %0, i8* %1, i32 %2, i32 %3, [6 x i8]* dereferenceable(6) %4) local_unnamed_addr #9 comdat !dbg !4519 {
  %6 = alloca %class.EtherAddressArg, align 4
  %7 = alloca %class.Args*, align 8
  %8 = alloca i8*, align 8
  %9 = alloca i32, align 4
  %10 = alloca [6 x i8]*, align 8
  %11 = alloca %class.EtherAddressArg, align 4
  %12 = getelementptr inbounds %class.EtherAddressArg, %class.EtherAddressArg* %6, i32 0, i32 0
  store i32 %3, i32* %12, align 4
  store %class.Args* %0, %class.Args** %7, align 8, !tbaa !4161
  call void @llvm.dbg.declare(metadata %class.Args** %7, metadata !4521, metadata !DIExpression()), !dbg !4526
  store i8* %1, i8** %8, align 8, !tbaa !4161
  call void @llvm.dbg.declare(metadata i8** %8, metadata !4522, metadata !DIExpression()), !dbg !4527
  store i32 %2, i32* %9, align 4, !tbaa !3044
  call void @llvm.dbg.declare(metadata i32* %9, metadata !4523, metadata !DIExpression()), !dbg !4528
  call void @llvm.dbg.declare(metadata %class.EtherAddressArg* %6, metadata !4524, metadata !DIExpression()), !dbg !4529
  store [6 x i8]* %4, [6 x i8]** %10, align 8, !tbaa !4161
  call void @llvm.dbg.declare(metadata [6 x i8]** %10, metadata !4525, metadata !DIExpression()), !dbg !4530
  %13 = load %class.Args*, %class.Args** %7, align 8, !dbg !4531, !tbaa !4161
  %14 = load i8*, i8** %8, align 8, !dbg !4532, !tbaa !4161
  %15 = load i32, i32* %9, align 4, !dbg !4533, !tbaa !3044
  %16 = bitcast %class.EtherAddressArg* %11 to i8*, !dbg !4534
  %17 = bitcast %class.EtherAddressArg* %6 to i8*, !dbg !4534
  call void @llvm.memcpy.p0i8.p0i8.i64(i8* align 4 %16, i8* align 4 %17, i64 4, i1 false), !dbg !4534, !tbaa.struct !3274
  %18 = load [6 x i8]*, [6 x i8]** %10, align 8, !dbg !4535, !tbaa !4161
  %19 = getelementptr inbounds %class.EtherAddressArg, %class.EtherAddressArg* %11, i32 0, i32 0, !dbg !4536
  %20 = load i32, i32* %19, align 4, !dbg !4536
  call void @_ZN4Args9base_readI15EtherAddressArgA6_hEEvPKciT_RT0_(%class.Args* %13, i8* %14, i32 %15, i32 %20, [6 x i8]* dereferenceable(6) %18), !dbg !4536
  ret void, !dbg !4537
}

; Function Attrs: sspstrong uwtable
define linkonce_odr dso_local void @_ZN4Args9base_readI15EtherAddressArgA6_hEEvPKciT_RT0_(%class.Args* %0, i8* %1, i32 %2, i32 %3, [6 x i8]* dereferenceable(6) %4) local_unnamed_addr #0 comdat align 2 personality i8* bitcast (i32 (...)* @__gxx_personality_v0 to i8*) !dbg !4538 {
  %6 = alloca %"struct.Args::Slot"*, align 8
  %7 = alloca %class.String, align 8
  call void @llvm.dbg.value(metadata i32 %3, metadata !4546, metadata !DIExpression()), !dbg !4554
  call void @llvm.dbg.value(metadata %class.Args* %0, metadata !4543, metadata !DIExpression()), !dbg !4554
  call void @llvm.dbg.value(metadata i8* %1, metadata !4544, metadata !DIExpression()), !dbg !4554
  call void @llvm.dbg.value(metadata i32 %2, metadata !4545, metadata !DIExpression()), !dbg !4554
  call void @llvm.dbg.value(metadata [6 x i8]* %4, metadata !4547, metadata !DIExpression()), !dbg !4554
  %8 = bitcast %"struct.Args::Slot"** %6 to i8*, !dbg !4555
  call void @llvm.lifetime.start.p0i8(i64 8, i8* nonnull %8) #13, !dbg !4555
  %9 = bitcast %class.String* %7 to i8*, !dbg !4556
  call void @llvm.lifetime.start.p0i8(i64 24, i8* nonnull %9) #13, !dbg !4556
  call void @llvm.dbg.declare(metadata %class.String* %7, metadata !4549, metadata !DIExpression()), !dbg !4557
  call void @llvm.dbg.value(metadata %"struct.Args::Slot"** %6, metadata !4548, metadata !DIExpression(DW_OP_deref)), !dbg !4554
  call void @_ZN4Args4findEPKciRPNS_4SlotE(%class.String* nonnull sret %7, %class.Args* %0, i8* %1, i32 %2, %"struct.Args::Slot"** nonnull dereferenceable(8) %6), !dbg !4558
  call void @llvm.dbg.value(metadata %class.String* %7, metadata !4222, metadata !DIExpression()), !dbg !4559
  %10 = getelementptr inbounds %class.String, %class.String* %7, i64 0, i32 0, i32 1, !dbg !4561
  %11 = load i32, i32* %10, align 8, !dbg !4561, !tbaa !3716
  %12 = icmp eq i32 %11, 0, !dbg !4562
  %13 = select i1 %12, { i64, i64 } zeroinitializer, { i64, i64 } { i64 ptrtoint (i32 (%class.String*)* @_ZNK6String6lengthEv to i64), i64 0 }, !dbg !4563
  %14 = extractvalue { i64, i64 } %13, 0, !dbg !4557
  %15 = icmp eq i64 %14, 0, !dbg !4557
  br i1 %15, label %41, label %16, !dbg !4556

16:                                               ; preds = %5
  call void @llvm.dbg.value(metadata [6 x i8]* %4, metadata !4551, metadata !DIExpression()), !dbg !4564
  call void @llvm.dbg.value(metadata i32 %3, metadata !4565, metadata !DIExpression()), !dbg !4578
  call void @llvm.dbg.value(metadata %class.String* %7, metadata !4575, metadata !DIExpression()), !dbg !4578
  call void @llvm.dbg.value(metadata [6 x i8]* %4, metadata !4576, metadata !DIExpression()), !dbg !4578
  call void @llvm.dbg.value(metadata %class.Args* %0, metadata !4577, metadata !DIExpression()), !dbg !4578
  call void @llvm.dbg.value(metadata %class.EtherAddressArg* undef, metadata !4580, metadata !DIExpression()), !dbg !4587
  call void @llvm.dbg.value(metadata %class.String* %7, metadata !4583, metadata !DIExpression()), !dbg !4587
  call void @llvm.dbg.value(metadata [6 x i8]* %4, metadata !4584, metadata !DIExpression()), !dbg !4587
  call void @llvm.dbg.value(metadata %class.Args* %0, metadata !4585, metadata !DIExpression()), !dbg !4587
  %17 = bitcast [6 x i8]* %4 to %class.EtherAddress*, !dbg !4589
  call void @llvm.dbg.value(metadata %class.EtherAddressArg* undef, metadata !4590, metadata !DIExpression()), !dbg !4596
  call void @llvm.dbg.value(metadata %class.String* %7, metadata !4593, metadata !DIExpression()), !dbg !4596
  call void @llvm.dbg.value(metadata %class.EtherAddress* %17, metadata !4594, metadata !DIExpression()), !dbg !4596
  call void @llvm.dbg.value(metadata %class.Args* %0, metadata !4595, metadata !DIExpression()), !dbg !4596
  %18 = invoke zeroext i1 @_ZN15EtherAddressArg12direct_parseERK6StringR12EtherAddressR4Argsi(%class.String* nonnull dereferenceable(24) %7, %class.EtherAddress* nonnull dereferenceable(6) %17, %class.Args* nonnull dereferenceable(112) %0, i32 %3)
          to label %19 unwind label %21, !dbg !4598

19:                                               ; preds = %16
  %20 = load %"struct.Args::Slot"*, %"struct.Args::Slot"** %6, align 8, !dbg !4599, !tbaa !4161
  call void @llvm.dbg.value(metadata %"struct.Args::Slot"* %20, metadata !4548, metadata !DIExpression()), !dbg !4554
  invoke void @_ZN4Args9postparseEbPNS_4SlotE(%class.Args* nonnull %0, i1 zeroext %18, %"struct.Args::Slot"* %20)
          to label %41 unwind label %21, !dbg !4600

21:                                               ; preds = %16, %19
  %22 = landingpad { i8*, i32 }
          cleanup, !dbg !4601
  call void @llvm.dbg.value(metadata %class.String* %7, metadata !4299, metadata !DIExpression()) #13, !dbg !4602
  call void @llvm.dbg.value(metadata %class.String* %7, metadata !4304, metadata !DIExpression()) #13, !dbg !4604
  %23 = getelementptr inbounds %class.String, %class.String* %7, i64 0, i32 0, i32 2, !dbg !4606
  %24 = load %"struct.String::memo_t"*, %"struct.String::memo_t"** %23, align 8, !dbg !4606, !tbaa !3890
  %25 = icmp eq %"struct.String::memo_t"* %24, null, !dbg !4607
  br i1 %25, label %40, label %26, !dbg !4608

26:                                               ; preds = %21
  %27 = getelementptr inbounds %"struct.String::memo_t", %"struct.String::memo_t"* %24, i64 0, i32 0, !dbg !4609
  %28 = load volatile i32, i32* %27, align 4, !dbg !4609, !tbaa !4316
  %29 = icmp eq i32 %28, 0, !dbg !4609
  br i1 %29, label %30, label %31, !dbg !4609

30:                                               ; preds = %26
  call void @__assert_fail(i8* getelementptr inbounds ([18 x i8], [18 x i8]* @.str.26, i64 0, i64 0), i8* getelementptr inbounds ([29 x i8], [29 x i8]* @.str.27, i64 0, i64 0), i32 273, i8* getelementptr inbounds ([27 x i8], [27 x i8]* @__PRETTY_FUNCTION__._ZNK6String5derefEv, i64 0, i64 0)) #16, !dbg !4609
  unreachable, !dbg !4609

31:                                               ; preds = %26
  call void @llvm.dbg.value(metadata i32* %27, metadata !4318, metadata !DIExpression()) #13, !dbg !4610
  %32 = load volatile i32, i32* %27, align 4, !dbg !4612, !tbaa !3044
  %33 = add i32 %32, -1, !dbg !4612
  store volatile i32 %33, i32* %27, align 4, !dbg !4612, !tbaa !3044
  %34 = icmp eq i32 %33, 0, !dbg !4613
  br i1 %34, label %35, label %36, !dbg !4614

35:                                               ; preds = %31
  invoke void @_ZN6String11delete_memoEPNS_6memo_tE(%"struct.String::memo_t"* nonnull %24)
          to label %36 unwind label %37, !dbg !4615

36:                                               ; preds = %35, %31
  store %"struct.String::memo_t"* null, %"struct.String::memo_t"** %23, align 8, !dbg !4616, !tbaa !3890
  br label %40, !dbg !4617

37:                                               ; preds = %35
  %38 = landingpad { i8*, i32 }
          catch i8* null, !dbg !4618
  %39 = extractvalue { i8*, i32 } %38, 0, !dbg !4618
  call void @__clang_call_terminate(i8* %39) #16, !dbg !4618
  unreachable, !dbg !4618

40:                                               ; preds = %21, %36
  call void @llvm.lifetime.end.p0i8(i64 24, i8* nonnull %9) #13, !dbg !4556
  call void @llvm.lifetime.end.p0i8(i64 8, i8* nonnull %8) #13, !dbg !4619
  resume { i8*, i32 } %22, !dbg !4619

41:                                               ; preds = %19, %5
  call void @llvm.dbg.value(metadata %class.String* %7, metadata !4299, metadata !DIExpression()) #13, !dbg !4620
  call void @llvm.dbg.value(metadata %class.String* %7, metadata !4304, metadata !DIExpression()) #13, !dbg !4622
  %42 = getelementptr inbounds %class.String, %class.String* %7, i64 0, i32 0, i32 2, !dbg !4624
  %43 = load %"struct.String::memo_t"*, %"struct.String::memo_t"** %42, align 8, !dbg !4624, !tbaa !3890
  %44 = icmp eq %"struct.String::memo_t"* %43, null, !dbg !4625
  br i1 %44, label %59, label %45, !dbg !4626

45:                                               ; preds = %41
  %46 = getelementptr inbounds %"struct.String::memo_t", %"struct.String::memo_t"* %43, i64 0, i32 0, !dbg !4627
  %47 = load volatile i32, i32* %46, align 4, !dbg !4627, !tbaa !4316
  %48 = icmp eq i32 %47, 0, !dbg !4627
  br i1 %48, label %49, label %50, !dbg !4627

49:                                               ; preds = %45
  call void @__assert_fail(i8* getelementptr inbounds ([18 x i8], [18 x i8]* @.str.26, i64 0, i64 0), i8* getelementptr inbounds ([29 x i8], [29 x i8]* @.str.27, i64 0, i64 0), i32 273, i8* getelementptr inbounds ([27 x i8], [27 x i8]* @__PRETTY_FUNCTION__._ZNK6String5derefEv, i64 0, i64 0)) #16, !dbg !4627
  unreachable, !dbg !4627

50:                                               ; preds = %45
  call void @llvm.dbg.value(metadata i32* %46, metadata !4318, metadata !DIExpression()) #13, !dbg !4628
  %51 = load volatile i32, i32* %46, align 4, !dbg !4630, !tbaa !3044
  %52 = add i32 %51, -1, !dbg !4630
  store volatile i32 %52, i32* %46, align 4, !dbg !4630, !tbaa !3044
  %53 = icmp eq i32 %52, 0, !dbg !4631
  br i1 %53, label %54, label %55, !dbg !4632

54:                                               ; preds = %50
  invoke void @_ZN6String11delete_memoEPNS_6memo_tE(%"struct.String::memo_t"* nonnull %43)
          to label %55 unwind label %56, !dbg !4633

55:                                               ; preds = %54, %50
  store %"struct.String::memo_t"* null, %"struct.String::memo_t"** %42, align 8, !dbg !4634, !tbaa !3890
  br label %59, !dbg !4635

56:                                               ; preds = %54
  %57 = landingpad { i8*, i32 }
          catch i8* null, !dbg !4636
  %58 = extractvalue { i8*, i32 } %57, 0, !dbg !4636
  call void @__clang_call_terminate(i8* %58) #16, !dbg !4636
  unreachable, !dbg !4636

59:                                               ; preds = %41, %55
  call void @llvm.lifetime.end.p0i8(i64 24, i8* nonnull %9) #13, !dbg !4556
  call void @llvm.lifetime.end.p0i8(i64 8, i8* nonnull %8) #13, !dbg !4619
  ret void, !dbg !4619
}

declare zeroext i1 @_ZN15EtherAddressArg12direct_parseERK6StringR12EtherAddressR4Argsi(%class.String* dereferenceable(24), %class.EtherAddress* dereferenceable(6), %class.Args* dereferenceable(112), i32) local_unnamed_addr #2

; Function Attrs: noinline optnone sspstrong uwtable
define linkonce_odr dso_local void @_Z14args_base_readI7in_addrEvP4ArgsPKciRT_(%class.Args* %0, i8* %1, i32 %2, %struct.in_addr* dereferenceable(4) %3) local_unnamed_addr #9 comdat !dbg !4637 {
  %5 = alloca %class.Args*, align 8
  %6 = alloca i8*, align 8
  %7 = alloca i32, align 4
  %8 = alloca %struct.in_addr*, align 8
  store %class.Args* %0, %class.Args** %5, align 8, !tbaa !4161
  call void @llvm.dbg.declare(metadata %class.Args** %5, metadata !4639, metadata !DIExpression()), !dbg !4643
  store i8* %1, i8** %6, align 8, !tbaa !4161
  call void @llvm.dbg.declare(metadata i8** %6, metadata !4640, metadata !DIExpression()), !dbg !4644
  store i32 %2, i32* %7, align 4, !tbaa !3044
  call void @llvm.dbg.declare(metadata i32* %7, metadata !4641, metadata !DIExpression()), !dbg !4645
  store %struct.in_addr* %3, %struct.in_addr** %8, align 8, !tbaa !4161
  call void @llvm.dbg.declare(metadata %struct.in_addr** %8, metadata !4642, metadata !DIExpression()), !dbg !4646
  %9 = load %class.Args*, %class.Args** %5, align 8, !dbg !4647, !tbaa !4161
  %10 = load i8*, i8** %6, align 8, !dbg !4648, !tbaa !4161
  %11 = load i32, i32* %7, align 4, !dbg !4649, !tbaa !3044
  %12 = load %struct.in_addr*, %struct.in_addr** %8, align 8, !dbg !4650, !tbaa !4161
  call void @_ZN4Args9base_readI7in_addrEEvPKciRT_(%class.Args* %9, i8* %10, i32 %11, %struct.in_addr* dereferenceable(4) %12), !dbg !4651
  ret void, !dbg !4652
}

; Function Attrs: sspstrong uwtable
define linkonce_odr dso_local void @_ZN4Args9base_readI7in_addrEEvPKciRT_(%class.Args* %0, i8* %1, i32 %2, %struct.in_addr* dereferenceable(4) %3) local_unnamed_addr #0 comdat align 2 personality i8* bitcast (i32 (...)* @__gxx_personality_v0 to i8*) !dbg !4653 {
  %5 = alloca %"struct.Args::Slot"*, align 8
  %6 = alloca %class.String, align 8
  call void @llvm.dbg.value(metadata %class.Args* %0, metadata !4658, metadata !DIExpression()), !dbg !4667
  call void @llvm.dbg.value(metadata i8* %1, metadata !4659, metadata !DIExpression()), !dbg !4667
  call void @llvm.dbg.value(metadata i32 %2, metadata !4660, metadata !DIExpression()), !dbg !4667
  call void @llvm.dbg.value(metadata %struct.in_addr* %3, metadata !4661, metadata !DIExpression()), !dbg !4667
  %7 = bitcast %"struct.Args::Slot"** %5 to i8*, !dbg !4668
  call void @llvm.lifetime.start.p0i8(i64 8, i8* nonnull %7) #13, !dbg !4668
  %8 = bitcast %class.String* %6 to i8*, !dbg !4669
  call void @llvm.lifetime.start.p0i8(i64 24, i8* nonnull %8) #13, !dbg !4669
  call void @llvm.dbg.declare(metadata %class.String* %6, metadata !4663, metadata !DIExpression()), !dbg !4670
  call void @llvm.dbg.value(metadata %"struct.Args::Slot"** %5, metadata !4662, metadata !DIExpression(DW_OP_deref)), !dbg !4667
  call void @_ZN4Args4findEPKciRPNS_4SlotE(%class.String* nonnull sret %6, %class.Args* %0, i8* %1, i32 %2, %"struct.Args::Slot"** nonnull dereferenceable(8) %5), !dbg !4671
  call void @llvm.dbg.value(metadata %class.String* %6, metadata !4222, metadata !DIExpression()), !dbg !4672
  %9 = getelementptr inbounds %class.String, %class.String* %6, i64 0, i32 0, i32 1, !dbg !4674
  %10 = load i32, i32* %9, align 8, !dbg !4674, !tbaa !3716
  %11 = icmp eq i32 %10, 0, !dbg !4675
  %12 = select i1 %11, { i64, i64 } zeroinitializer, { i64, i64 } { i64 ptrtoint (i32 (%class.String*)* @_ZNK6String6lengthEv to i64), i64 0 }, !dbg !4676
  %13 = extractvalue { i64, i64 } %12, 0, !dbg !4670
  %14 = icmp eq i64 %13, 0, !dbg !4670
  br i1 %14, label %47, label %15, !dbg !4669

15:                                               ; preds = %4
  call void @llvm.dbg.value(metadata %struct.in_addr* %3, metadata !4677, metadata !DIExpression()), !dbg !4707
  call void @llvm.dbg.value(metadata %class.Args* %0, metadata !4706, metadata !DIExpression()), !dbg !4707
  call void @llvm.dbg.value(metadata %class.Args* %0, metadata !4709, metadata !DIExpression()), !dbg !4716
  call void @llvm.dbg.value(metadata %struct.in_addr* %3, metadata !4715, metadata !DIExpression()), !dbg !4716
  %16 = bitcast %struct.in_addr* %3 to i8*, !dbg !4718
  %17 = invoke i8* @_ZN4Args11simple_slotEPvm(%class.Args* nonnull %0, i8* nonnull %16, i64 4)
          to label %18 unwind label %27, !dbg !4720

18:                                               ; preds = %15
  call void @llvm.dbg.value(metadata i8* %17, metadata !4665, metadata !DIExpression()), !dbg !4721
  %19 = icmp eq i8* %17, null, !dbg !4722
  br i1 %19, label %24, label %20, !dbg !4723

20:                                               ; preds = %18
  call void @llvm.dbg.value(metadata i8* %17, metadata !4665, metadata !DIExpression()), !dbg !4721
  call void @llvm.dbg.value(metadata %class.String* %6, metadata !4724, metadata !DIExpression()), !dbg !4733
  call void @llvm.dbg.value(metadata i8* %17, metadata !4731, metadata !DIExpression()), !dbg !4733
  call void @llvm.dbg.value(metadata %class.Args* %0, metadata !4732, metadata !DIExpression()), !dbg !4733
  %21 = bitcast %class.Args* %0 to %class.ArgContext*, !dbg !4735
  call void @llvm.dbg.value(metadata %class.String* %6, metadata !4736, metadata !DIExpression()), !dbg !4741
  call void @llvm.dbg.value(metadata i8* %17, metadata !4739, metadata !DIExpression()), !dbg !4741
  call void @llvm.dbg.value(metadata %class.ArgContext* %21, metadata !4740, metadata !DIExpression()), !dbg !4741
  %22 = bitcast i8* %17 to %class.IPAddress*, !dbg !4743
  %23 = invoke zeroext i1 @_ZN12IPAddressArg5parseERK6StringR9IPAddressRK10ArgContext(%class.String* nonnull dereferenceable(24) %6, %class.IPAddress* nonnull dereferenceable(4) %22, %class.ArgContext* nonnull dereferenceable(32) %21)
          to label %24 unwind label %27, !dbg !4744

24:                                               ; preds = %20, %18
  %25 = phi i1 [ false, %18 ], [ %23, %20 ], !dbg !4721
  %26 = load %"struct.Args::Slot"*, %"struct.Args::Slot"** %5, align 8, !dbg !4745, !tbaa !4161
  call void @llvm.dbg.value(metadata %"struct.Args::Slot"* %26, metadata !4662, metadata !DIExpression()), !dbg !4667
  invoke void @_ZN4Args9postparseEbPNS_4SlotE(%class.Args* nonnull %0, i1 zeroext %25, %"struct.Args::Slot"* %26)
          to label %47 unwind label %27, !dbg !4746

27:                                               ; preds = %20, %15, %24
  %28 = landingpad { i8*, i32 }
          cleanup, !dbg !4747
  call void @llvm.dbg.value(metadata %class.String* %6, metadata !4299, metadata !DIExpression()) #13, !dbg !4748
  call void @llvm.dbg.value(metadata %class.String* %6, metadata !4304, metadata !DIExpression()) #13, !dbg !4750
  %29 = getelementptr inbounds %class.String, %class.String* %6, i64 0, i32 0, i32 2, !dbg !4752
  %30 = load %"struct.String::memo_t"*, %"struct.String::memo_t"** %29, align 8, !dbg !4752, !tbaa !3890
  %31 = icmp eq %"struct.String::memo_t"* %30, null, !dbg !4753
  br i1 %31, label %46, label %32, !dbg !4754

32:                                               ; preds = %27
  %33 = getelementptr inbounds %"struct.String::memo_t", %"struct.String::memo_t"* %30, i64 0, i32 0, !dbg !4755
  %34 = load volatile i32, i32* %33, align 4, !dbg !4755, !tbaa !4316
  %35 = icmp eq i32 %34, 0, !dbg !4755
  br i1 %35, label %36, label %37, !dbg !4755

36:                                               ; preds = %32
  call void @__assert_fail(i8* getelementptr inbounds ([18 x i8], [18 x i8]* @.str.26, i64 0, i64 0), i8* getelementptr inbounds ([29 x i8], [29 x i8]* @.str.27, i64 0, i64 0), i32 273, i8* getelementptr inbounds ([27 x i8], [27 x i8]* @__PRETTY_FUNCTION__._ZNK6String5derefEv, i64 0, i64 0)) #16, !dbg !4755
  unreachable, !dbg !4755

37:                                               ; preds = %32
  call void @llvm.dbg.value(metadata i32* %33, metadata !4318, metadata !DIExpression()) #13, !dbg !4756
  %38 = load volatile i32, i32* %33, align 4, !dbg !4758, !tbaa !3044
  %39 = add i32 %38, -1, !dbg !4758
  store volatile i32 %39, i32* %33, align 4, !dbg !4758, !tbaa !3044
  %40 = icmp eq i32 %39, 0, !dbg !4759
  br i1 %40, label %41, label %42, !dbg !4760

41:                                               ; preds = %37
  invoke void @_ZN6String11delete_memoEPNS_6memo_tE(%"struct.String::memo_t"* nonnull %30)
          to label %42 unwind label %43, !dbg !4761

42:                                               ; preds = %41, %37
  store %"struct.String::memo_t"* null, %"struct.String::memo_t"** %29, align 8, !dbg !4762, !tbaa !3890
  br label %46, !dbg !4763

43:                                               ; preds = %41
  %44 = landingpad { i8*, i32 }
          catch i8* null, !dbg !4764
  %45 = extractvalue { i8*, i32 } %44, 0, !dbg !4764
  call void @__clang_call_terminate(i8* %45) #16, !dbg !4764
  unreachable, !dbg !4764

46:                                               ; preds = %27, %42
  call void @llvm.lifetime.end.p0i8(i64 24, i8* nonnull %8) #13, !dbg !4669
  call void @llvm.lifetime.end.p0i8(i64 8, i8* nonnull %7) #13, !dbg !4765
  resume { i8*, i32 } %28, !dbg !4765

47:                                               ; preds = %24, %4
  call void @llvm.dbg.value(metadata %class.String* %6, metadata !4299, metadata !DIExpression()) #13, !dbg !4766
  call void @llvm.dbg.value(metadata %class.String* %6, metadata !4304, metadata !DIExpression()) #13, !dbg !4768
  %48 = getelementptr inbounds %class.String, %class.String* %6, i64 0, i32 0, i32 2, !dbg !4770
  %49 = load %"struct.String::memo_t"*, %"struct.String::memo_t"** %48, align 8, !dbg !4770, !tbaa !3890
  %50 = icmp eq %"struct.String::memo_t"* %49, null, !dbg !4771
  br i1 %50, label %65, label %51, !dbg !4772

51:                                               ; preds = %47
  %52 = getelementptr inbounds %"struct.String::memo_t", %"struct.String::memo_t"* %49, i64 0, i32 0, !dbg !4773
  %53 = load volatile i32, i32* %52, align 4, !dbg !4773, !tbaa !4316
  %54 = icmp eq i32 %53, 0, !dbg !4773
  br i1 %54, label %55, label %56, !dbg !4773

55:                                               ; preds = %51
  call void @__assert_fail(i8* getelementptr inbounds ([18 x i8], [18 x i8]* @.str.26, i64 0, i64 0), i8* getelementptr inbounds ([29 x i8], [29 x i8]* @.str.27, i64 0, i64 0), i32 273, i8* getelementptr inbounds ([27 x i8], [27 x i8]* @__PRETTY_FUNCTION__._ZNK6String5derefEv, i64 0, i64 0)) #16, !dbg !4773
  unreachable, !dbg !4773

56:                                               ; preds = %51
  call void @llvm.dbg.value(metadata i32* %52, metadata !4318, metadata !DIExpression()) #13, !dbg !4774
  %57 = load volatile i32, i32* %52, align 4, !dbg !4776, !tbaa !3044
  %58 = add i32 %57, -1, !dbg !4776
  store volatile i32 %58, i32* %52, align 4, !dbg !4776, !tbaa !3044
  %59 = icmp eq i32 %58, 0, !dbg !4777
  br i1 %59, label %60, label %61, !dbg !4778

60:                                               ; preds = %56
  invoke void @_ZN6String11delete_memoEPNS_6memo_tE(%"struct.String::memo_t"* nonnull %49)
          to label %61 unwind label %62, !dbg !4779

61:                                               ; preds = %60, %56
  store %"struct.String::memo_t"* null, %"struct.String::memo_t"** %48, align 8, !dbg !4780, !tbaa !3890
  br label %65, !dbg !4781

62:                                               ; preds = %60
  %63 = landingpad { i8*, i32 }
          catch i8* null, !dbg !4782
  %64 = extractvalue { i8*, i32 } %63, 0, !dbg !4782
  call void @__clang_call_terminate(i8* %64) #16, !dbg !4782
  unreachable, !dbg !4782

65:                                               ; preds = %47, %61
  call void @llvm.lifetime.end.p0i8(i64 24, i8* nonnull %8) #13, !dbg !4669
  call void @llvm.lifetime.end.p0i8(i64 8, i8* nonnull %7) #13, !dbg !4765
  ret void, !dbg !4765
}

declare zeroext i1 @_ZN12IPAddressArg5parseERK6StringR9IPAddressRK10ArgContext(%class.String* dereferenceable(24), %class.IPAddress* dereferenceable(4), %class.ArgContext* dereferenceable(32)) local_unnamed_addr #2

; Function Attrs: noinline optnone sspstrong uwtable
define linkonce_odr dso_local void @_Z14args_base_readIbEvP4ArgsPKciRT_(%class.Args* %0, i8* %1, i32 %2, i8* dereferenceable(1) %3) local_unnamed_addr #9 comdat !dbg !4783 {
  %5 = alloca %class.Args*, align 8
  %6 = alloca i8*, align 8
  %7 = alloca i32, align 4
  %8 = alloca i8*, align 8
  store %class.Args* %0, %class.Args** %5, align 8, !tbaa !4161
  call void @llvm.dbg.declare(metadata %class.Args** %5, metadata !4785, metadata !DIExpression()), !dbg !4789
  store i8* %1, i8** %6, align 8, !tbaa !4161
  call void @llvm.dbg.declare(metadata i8** %6, metadata !4786, metadata !DIExpression()), !dbg !4790
  store i32 %2, i32* %7, align 4, !tbaa !3044
  call void @llvm.dbg.declare(metadata i32* %7, metadata !4787, metadata !DIExpression()), !dbg !4791
  store i8* %3, i8** %8, align 8, !tbaa !4161
  call void @llvm.dbg.declare(metadata i8** %8, metadata !4788, metadata !DIExpression()), !dbg !4792
  %9 = load %class.Args*, %class.Args** %5, align 8, !dbg !4793, !tbaa !4161
  %10 = load i8*, i8** %6, align 8, !dbg !4794, !tbaa !4161
  %11 = load i32, i32* %7, align 4, !dbg !4795, !tbaa !3044
  %12 = load i8*, i8** %8, align 8, !dbg !4796, !tbaa !4161
  call void @_ZN4Args9base_readIbEEvPKciRT_(%class.Args* %9, i8* %10, i32 %11, i8* dereferenceable(1) %12), !dbg !4797
  ret void, !dbg !4798
}

; Function Attrs: sspstrong uwtable
define linkonce_odr dso_local void @_ZN4Args9base_readIbEEvPKciRT_(%class.Args* %0, i8* %1, i32 %2, i8* dereferenceable(1) %3) local_unnamed_addr #0 comdat align 2 personality i8* bitcast (i32 (...)* @__gxx_personality_v0 to i8*) !dbg !4799 {
  %5 = alloca %"struct.Args::Slot"*, align 8
  %6 = alloca %class.String, align 8
  call void @llvm.dbg.value(metadata %class.Args* %0, metadata !4804, metadata !DIExpression()), !dbg !4813
  call void @llvm.dbg.value(metadata i8* %1, metadata !4805, metadata !DIExpression()), !dbg !4813
  call void @llvm.dbg.value(metadata i32 %2, metadata !4806, metadata !DIExpression()), !dbg !4813
  call void @llvm.dbg.value(metadata i8* %3, metadata !4807, metadata !DIExpression()), !dbg !4813
  %7 = bitcast %"struct.Args::Slot"** %5 to i8*, !dbg !4814
  call void @llvm.lifetime.start.p0i8(i64 8, i8* nonnull %7) #13, !dbg !4814
  %8 = bitcast %class.String* %6 to i8*, !dbg !4815
  call void @llvm.lifetime.start.p0i8(i64 24, i8* nonnull %8) #13, !dbg !4815
  call void @llvm.dbg.declare(metadata %class.String* %6, metadata !4809, metadata !DIExpression()), !dbg !4816
  call void @llvm.dbg.value(metadata %"struct.Args::Slot"** %5, metadata !4808, metadata !DIExpression(DW_OP_deref)), !dbg !4813
  call void @_ZN4Args4findEPKciRPNS_4SlotE(%class.String* nonnull sret %6, %class.Args* %0, i8* %1, i32 %2, %"struct.Args::Slot"** nonnull dereferenceable(8) %5), !dbg !4817
  call void @llvm.dbg.value(metadata %class.String* %6, metadata !4222, metadata !DIExpression()), !dbg !4818
  %9 = getelementptr inbounds %class.String, %class.String* %6, i64 0, i32 0, i32 1, !dbg !4820
  %10 = load i32, i32* %9, align 8, !dbg !4820, !tbaa !3716
  %11 = icmp eq i32 %10, 0, !dbg !4821
  %12 = select i1 %11, { i64, i64 } zeroinitializer, { i64, i64 } { i64 ptrtoint (i32 (%class.String*)* @_ZNK6String6lengthEv to i64), i64 0 }, !dbg !4822
  %13 = extractvalue { i64, i64 } %12, 0, !dbg !4816
  %14 = icmp eq i64 %13, 0, !dbg !4816
  br i1 %14, label %45, label %15, !dbg !4815

15:                                               ; preds = %4
  call void @llvm.dbg.value(metadata i8* %3, metadata !4823, metadata !DIExpression()), !dbg !4845
  call void @llvm.dbg.value(metadata %class.Args* %0, metadata !4844, metadata !DIExpression()), !dbg !4845
  call void @llvm.dbg.value(metadata %class.Args* %0, metadata !4847, metadata !DIExpression()), !dbg !4854
  call void @llvm.dbg.value(metadata i8* %3, metadata !4853, metadata !DIExpression()), !dbg !4854
  %16 = invoke i8* @_ZN4Args11simple_slotEPvm(%class.Args* nonnull %0, i8* nonnull %3, i64 1)
          to label %17 unwind label %25, !dbg !4856

17:                                               ; preds = %15
  call void @llvm.dbg.value(metadata i8* %16, metadata !4811, metadata !DIExpression()), !dbg !4858
  %18 = icmp eq i8* %16, null, !dbg !4859
  br i1 %18, label %22, label %19, !dbg !4860

19:                                               ; preds = %17
  call void @llvm.dbg.value(metadata %class.String* %6, metadata !4861, metadata !DIExpression()), !dbg !4870
  call void @llvm.dbg.value(metadata i8* %16, metadata !4868, metadata !DIExpression()), !dbg !4870
  call void @llvm.dbg.value(metadata %class.Args* %0, metadata !4869, metadata !DIExpression()), !dbg !4870
  %20 = bitcast %class.Args* %0 to %class.ArgContext*, !dbg !4872
  %21 = invoke zeroext i1 @_ZN7BoolArg5parseERK6StringRbRK10ArgContext(%class.String* nonnull dereferenceable(24) %6, i8* nonnull dereferenceable(1) %16, %class.ArgContext* nonnull dereferenceable(32) %20)
          to label %22 unwind label %25, !dbg !4873

22:                                               ; preds = %19, %17
  %23 = phi i1 [ false, %17 ], [ %21, %19 ], !dbg !4858
  %24 = load %"struct.Args::Slot"*, %"struct.Args::Slot"** %5, align 8, !dbg !4874, !tbaa !4161
  call void @llvm.dbg.value(metadata %"struct.Args::Slot"* %24, metadata !4808, metadata !DIExpression()), !dbg !4813
  invoke void @_ZN4Args9postparseEbPNS_4SlotE(%class.Args* nonnull %0, i1 zeroext %23, %"struct.Args::Slot"* %24)
          to label %45 unwind label %25, !dbg !4875

25:                                               ; preds = %19, %15, %22
  %26 = landingpad { i8*, i32 }
          cleanup, !dbg !4876
  call void @llvm.dbg.value(metadata %class.String* %6, metadata !4299, metadata !DIExpression()) #13, !dbg !4877
  call void @llvm.dbg.value(metadata %class.String* %6, metadata !4304, metadata !DIExpression()) #13, !dbg !4879
  %27 = getelementptr inbounds %class.String, %class.String* %6, i64 0, i32 0, i32 2, !dbg !4881
  %28 = load %"struct.String::memo_t"*, %"struct.String::memo_t"** %27, align 8, !dbg !4881, !tbaa !3890
  %29 = icmp eq %"struct.String::memo_t"* %28, null, !dbg !4882
  br i1 %29, label %44, label %30, !dbg !4883

30:                                               ; preds = %25
  %31 = getelementptr inbounds %"struct.String::memo_t", %"struct.String::memo_t"* %28, i64 0, i32 0, !dbg !4884
  %32 = load volatile i32, i32* %31, align 4, !dbg !4884, !tbaa !4316
  %33 = icmp eq i32 %32, 0, !dbg !4884
  br i1 %33, label %34, label %35, !dbg !4884

34:                                               ; preds = %30
  call void @__assert_fail(i8* getelementptr inbounds ([18 x i8], [18 x i8]* @.str.26, i64 0, i64 0), i8* getelementptr inbounds ([29 x i8], [29 x i8]* @.str.27, i64 0, i64 0), i32 273, i8* getelementptr inbounds ([27 x i8], [27 x i8]* @__PRETTY_FUNCTION__._ZNK6String5derefEv, i64 0, i64 0)) #16, !dbg !4884
  unreachable, !dbg !4884

35:                                               ; preds = %30
  call void @llvm.dbg.value(metadata i32* %31, metadata !4318, metadata !DIExpression()) #13, !dbg !4885
  %36 = load volatile i32, i32* %31, align 4, !dbg !4887, !tbaa !3044
  %37 = add i32 %36, -1, !dbg !4887
  store volatile i32 %37, i32* %31, align 4, !dbg !4887, !tbaa !3044
  %38 = icmp eq i32 %37, 0, !dbg !4888
  br i1 %38, label %39, label %40, !dbg !4889

39:                                               ; preds = %35
  invoke void @_ZN6String11delete_memoEPNS_6memo_tE(%"struct.String::memo_t"* nonnull %28)
          to label %40 unwind label %41, !dbg !4890

40:                                               ; preds = %39, %35
  store %"struct.String::memo_t"* null, %"struct.String::memo_t"** %27, align 8, !dbg !4891, !tbaa !3890
  br label %44, !dbg !4892

41:                                               ; preds = %39
  %42 = landingpad { i8*, i32 }
          catch i8* null, !dbg !4893
  %43 = extractvalue { i8*, i32 } %42, 0, !dbg !4893
  call void @__clang_call_terminate(i8* %43) #16, !dbg !4893
  unreachable, !dbg !4893

44:                                               ; preds = %25, %40
  call void @llvm.lifetime.end.p0i8(i64 24, i8* nonnull %8) #13, !dbg !4815
  call void @llvm.lifetime.end.p0i8(i64 8, i8* nonnull %7) #13, !dbg !4894
  resume { i8*, i32 } %26, !dbg !4894

45:                                               ; preds = %22, %4
  call void @llvm.dbg.value(metadata %class.String* %6, metadata !4299, metadata !DIExpression()) #13, !dbg !4895
  call void @llvm.dbg.value(metadata %class.String* %6, metadata !4304, metadata !DIExpression()) #13, !dbg !4897
  %46 = getelementptr inbounds %class.String, %class.String* %6, i64 0, i32 0, i32 2, !dbg !4899
  %47 = load %"struct.String::memo_t"*, %"struct.String::memo_t"** %46, align 8, !dbg !4899, !tbaa !3890
  %48 = icmp eq %"struct.String::memo_t"* %47, null, !dbg !4900
  br i1 %48, label %63, label %49, !dbg !4901

49:                                               ; preds = %45
  %50 = getelementptr inbounds %"struct.String::memo_t", %"struct.String::memo_t"* %47, i64 0, i32 0, !dbg !4902
  %51 = load volatile i32, i32* %50, align 4, !dbg !4902, !tbaa !4316
  %52 = icmp eq i32 %51, 0, !dbg !4902
  br i1 %52, label %53, label %54, !dbg !4902

53:                                               ; preds = %49
  call void @__assert_fail(i8* getelementptr inbounds ([18 x i8], [18 x i8]* @.str.26, i64 0, i64 0), i8* getelementptr inbounds ([29 x i8], [29 x i8]* @.str.27, i64 0, i64 0), i32 273, i8* getelementptr inbounds ([27 x i8], [27 x i8]* @__PRETTY_FUNCTION__._ZNK6String5derefEv, i64 0, i64 0)) #16, !dbg !4902
  unreachable, !dbg !4902

54:                                               ; preds = %49
  call void @llvm.dbg.value(metadata i32* %50, metadata !4318, metadata !DIExpression()) #13, !dbg !4903
  %55 = load volatile i32, i32* %50, align 4, !dbg !4905, !tbaa !3044
  %56 = add i32 %55, -1, !dbg !4905
  store volatile i32 %56, i32* %50, align 4, !dbg !4905, !tbaa !3044
  %57 = icmp eq i32 %56, 0, !dbg !4906
  br i1 %57, label %58, label %59, !dbg !4907

58:                                               ; preds = %54
  invoke void @_ZN6String11delete_memoEPNS_6memo_tE(%"struct.String::memo_t"* nonnull %47)
          to label %59 unwind label %60, !dbg !4908

59:                                               ; preds = %58, %54
  store %"struct.String::memo_t"* null, %"struct.String::memo_t"** %46, align 8, !dbg !4909, !tbaa !3890
  br label %63, !dbg !4910

60:                                               ; preds = %58
  %61 = landingpad { i8*, i32 }
          catch i8* null, !dbg !4911
  %62 = extractvalue { i8*, i32 } %61, 0, !dbg !4911
  call void @__clang_call_terminate(i8* %62) #16, !dbg !4911
  unreachable, !dbg !4911

63:                                               ; preds = %45, %59
  call void @llvm.lifetime.end.p0i8(i64 24, i8* nonnull %8) #13, !dbg !4815
  call void @llvm.lifetime.end.p0i8(i64 8, i8* nonnull %7) #13, !dbg !4894
  ret void, !dbg !4894
}

; Function Attrs: nounwind readnone speculatable willreturn
declare void @llvm.dbg.value(metadata, metadata, metadata) #1

; Function Attrs: nounwind readnone speculatable willreturn
declare i16 @llvm.bswap.i16(i16) #1

attributes #0 = { sspstrong uwtable "correctly-rounded-divide-sqrt-fp-math"="false" "disable-tail-calls"="false" "frame-pointer"="none" "less-precise-fpmad"="false" "min-legal-vector-width"="0" "no-infs-fp-math"="false" "no-jump-tables"="false" "no-nans-fp-math"="false" "no-signed-zeros-fp-math"="false" "no-trapping-math"="false" "stack-protector-buffer-size"="8" "target-cpu"="x86-64" "target-features"="+cx8,+fxsr,+mmx,+sse,+sse2,+x87" "unsafe-fp-math"="false" "use-soft-float"="false" }
attributes #1 = { nounwind readnone speculatable willreturn }
attributes #2 = { "correctly-rounded-divide-sqrt-fp-math"="false" "disable-tail-calls"="false" "frame-pointer"="none" "less-precise-fpmad"="false" "no-infs-fp-math"="false" "no-nans-fp-math"="false" "no-signed-zeros-fp-math"="false" "no-trapping-math"="false" "stack-protector-buffer-size"="8" "target-cpu"="x86-64" "target-features"="+cx8,+fxsr,+mmx,+sse,+sse2,+x87" "unsafe-fp-math"="false" "use-soft-float"="false" }
attributes #3 = { nounwind "correctly-rounded-divide-sqrt-fp-math"="false" "disable-tail-calls"="false" "frame-pointer"="none" "less-precise-fpmad"="false" "no-infs-fp-math"="false" "no-nans-fp-math"="false" "no-signed-zeros-fp-math"="false" "no-trapping-math"="false" "stack-protector-buffer-size"="8" "target-cpu"="x86-64" "target-features"="+cx8,+fxsr,+mmx,+sse,+sse2,+x87" "unsafe-fp-math"="false" "use-soft-float"="false" }
attributes #4 = { nounwind sspstrong uwtable "correctly-rounded-divide-sqrt-fp-math"="false" "disable-tail-calls"="false" "frame-pointer"="none" "less-precise-fpmad"="false" "min-legal-vector-width"="0" "no-infs-fp-math"="false" "no-jump-tables"="false" "no-nans-fp-math"="false" "no-signed-zeros-fp-math"="false" "no-trapping-math"="false" "stack-protector-buffer-size"="8" "target-cpu"="x86-64" "target-features"="+cx8,+fxsr,+mmx,+sse,+sse2,+x87" "unsafe-fp-math"="false" "use-soft-float"="false" }
attributes #5 = { nobuiltin nounwind "correctly-rounded-divide-sqrt-fp-math"="false" "disable-tail-calls"="false" "frame-pointer"="none" "less-precise-fpmad"="false" "no-infs-fp-math"="false" "no-nans-fp-math"="false" "no-signed-zeros-fp-math"="false" "no-trapping-math"="false" "stack-protector-buffer-size"="8" "target-cpu"="x86-64" "target-features"="+cx8,+fxsr,+mmx,+sse,+sse2,+x87" "unsafe-fp-math"="false" "use-soft-float"="false" }
attributes #6 = { argmemonly nounwind willreturn }
attributes #7 = { nobuiltin nofree "correctly-rounded-divide-sqrt-fp-math"="false" "disable-tail-calls"="false" "frame-pointer"="none" "less-precise-fpmad"="false" "no-infs-fp-math"="false" "no-nans-fp-math"="false" "no-signed-zeros-fp-math"="false" "no-trapping-math"="false" "stack-protector-buffer-size"="8" "target-cpu"="x86-64" "target-features"="+cx8,+fxsr,+mmx,+sse,+sse2,+x87" "unsafe-fp-math"="false" "use-soft-float"="false" }
attributes #8 = { nofree norecurse nounwind sspstrong uwtable writeonly "correctly-rounded-divide-sqrt-fp-math"="false" "disable-tail-calls"="false" "frame-pointer"="none" "less-precise-fpmad"="false" "min-legal-vector-width"="0" "no-infs-fp-math"="false" "no-jump-tables"="false" "no-nans-fp-math"="false" "no-signed-zeros-fp-math"="false" "no-trapping-math"="false" "stack-protector-buffer-size"="8" "target-cpu"="x86-64" "target-features"="+cx8,+fxsr,+mmx,+sse,+sse2,+x87" "unsafe-fp-math"="false" "use-soft-float"="false" }
attributes #9 = { noinline optnone sspstrong uwtable "correctly-rounded-divide-sqrt-fp-math"="false" "disable-tail-calls"="false" "frame-pointer"="none" "less-precise-fpmad"="false" "min-legal-vector-width"="0" "no-infs-fp-math"="false" "no-jump-tables"="false" "no-nans-fp-math"="false" "no-signed-zeros-fp-math"="false" "no-trapping-math"="false" "stack-protector-buffer-size"="8" "target-cpu"="x86-64" "target-features"="+cx8,+fxsr,+mmx,+sse,+sse2,+x87" "unsafe-fp-math"="false" "use-soft-float"="false" }
attributes #10 = { inlinehint nounwind sspstrong uwtable "correctly-rounded-divide-sqrt-fp-math"="false" "disable-tail-calls"="false" "frame-pointer"="none" "less-precise-fpmad"="false" "min-legal-vector-width"="0" "no-infs-fp-math"="false" "no-jump-tables"="false" "no-nans-fp-math"="false" "no-signed-zeros-fp-math"="false" "no-trapping-math"="false" "stack-protector-buffer-size"="8" "target-cpu"="x86-64" "target-features"="+cx8,+fxsr,+mmx,+sse,+sse2,+x87" "unsafe-fp-math"="false" "use-soft-float"="false" }
attributes #11 = { noinline noreturn nounwind }
attributes #12 = { noreturn nounwind "correctly-rounded-divide-sqrt-fp-math"="false" "disable-tail-calls"="false" "frame-pointer"="none" "less-precise-fpmad"="false" "no-infs-fp-math"="false" "no-nans-fp-math"="false" "no-signed-zeros-fp-math"="false" "no-trapping-math"="false" "stack-protector-buffer-size"="8" "target-cpu"="x86-64" "target-features"="+cx8,+fxsr,+mmx,+sse,+sse2,+x87" "unsafe-fp-math"="false" "use-soft-float"="false" }
attributes #13 = { nounwind }
attributes #14 = { builtin nounwind }
attributes #15 = { builtin }
attributes #16 = { noreturn nounwind }

!llvm.dbg.cu = !{!2}
!llvm.module.flags = !{!2786, !2787, !2788, !2789, !2790}
!llvm.ident = !{!2791}

!0 = !DIGlobalVariableExpression(var: !1, expr: !DIExpression())
!1 = distinct !DIGlobalVariable(name: "NO_LIMIT", linkageName: "_ZN12FastUDPFlows8NO_LIMITE", scope: !2, file: !3, line: 29, type: !1392, isLocal: false, isDefinition: true, declaration: !1391)
!2 = distinct !DICompileUnit(language: DW_LANG_C_plus_plus_14, file: !3, producer: "clang version 10.0.0 ", isOptimized: true, runtimeVersion: 0, emissionKind: FullDebug, enums: !4, retainedTypes: !1362, globals: !2166, imports: !2167, splitDebugInlining: false, nameTableKind: None)
!3 = !DIFile(filename: "../elements/tcpudp/fastudpflows.cc", directory: "/home/john/projects/click/ir-dir")
!4 = !{!5, !871, !1176, !1188, !1297, !1335, !1339, !1342, !1353}
!5 = !DICompositeType(tag: DW_TAG_enumeration_type, name: "PacketType", scope: !7, file: !6, line: 368, baseType: !18, size: 32, elements: !1168, identifier: "_ZTSN6Packet10PacketTypeE")
!6 = !DIFile(filename: "../dummy_inc/click/packet.hh", directory: "/home/john/projects/click/ir-dir")
!7 = distinct !DICompositeType(tag: DW_TAG_class_type, name: "Packet", file: !6, line: 35, size: 1344, flags: DIFlagTypePassByReference | DIFlagNonTrivial, elements: !8, identifier: "_ZTS6Packet")
!8 = !{!9, !79, !81, !84, !85, !86, !87, !130, !138, !139, !240, !243, !246, !249, !252, !256, !260, !263, !266, !271, !272, !275, !276, !277, !278, !279, !280, !283, !286, !289, !290, !293, !294, !297, !300, !301, !302, !303, !306, !309, !312, !315, !316, !317, !320, !321, !322, !325, !326, !327, !328, !329, !330, !331, !332, !333, !334, !335, !336, !337, !338, !339, !340, !345, !348, !353, !354, !355, !358, !363, !364, !365, !368, !371, !376, !381, !386, !391, !395, !912, !916, !919, !925, !928, !931, !934, !937, !941, !944, !945, !946, !947, !1037, !1040, !1041, !1044, !1048, !1053, !1057, !1062, !1065, !1068, !1071, !1074, !1080, !1083, !1086, !1089, !1092, !1095, !1098, !1101, !1104, !1107, !1108, !1111, !1115, !1116, !1117, !1118, !1119, !1120, !1121, !1122, !1123, !1124, !1125, !1126, !1127, !1128, !1129, !1130, !1131, !1132, !1133, !1134, !1135, !1136, !1137, !1138, !1139, !1140, !1141, !1142, !1143, !1144, !1145, !1146, !1147, !1148, !1149, !1152, !1153, !1157, !1160, !1163, !1166, !1167}
!9 = !DIDerivedType(tag: DW_TAG_member, name: "_use_count", scope: !7, file: !6, line: 731, baseType: !10, size: 32)
!10 = distinct !DICompositeType(tag: DW_TAG_class_type, name: "atomic_uint32_t", file: !11, line: 52, size: 32, flags: DIFlagTypePassByValue, elements: !12, identifier: "_ZTS15atomic_uint32_t")
!11 = !DIFile(filename: "../dummy_inc/click/atomic.hh", directory: "/home/john/projects/click/ir-dir")
!12 = !{!13, !19, !24, !25, !30, !37, !38, !39, !40, !43, !46, !47, !48, !51, !52, !56, !59, !62, !67, !70, !73, !76}
!13 = !DIDerivedType(tag: DW_TAG_member, name: "_val", scope: !10, file: !11, line: 91, baseType: !14, size: 32)
!14 = !DIDerivedType(tag: DW_TAG_typedef, name: "uint32_t", file: !15, line: 26, baseType: !16)
!15 = !DIFile(filename: "/usr/include/bits/stdint-uintn.h", directory: "")
!16 = !DIDerivedType(tag: DW_TAG_typedef, name: "__uint32_t", file: !17, line: 42, baseType: !18)
!17 = !DIFile(filename: "/usr/include/bits/types.h", directory: "")
!18 = !DIBasicType(name: "unsigned int", size: 32, encoding: DW_ATE_unsigned)
!19 = !DISubprogram(name: "value", linkageName: "_ZNK15atomic_uint32_t5valueEv", scope: !10, file: !11, line: 57, type: !20, scopeLine: 57, flags: DIFlagPublic | DIFlagPrototyped, spFlags: DISPFlagOptimized)
!20 = !DISubroutineType(types: !21)
!21 = !{!14, !22}
!22 = !DIDerivedType(tag: DW_TAG_pointer_type, baseType: !23, size: 64, flags: DIFlagArtificial | DIFlagObjectPointer)
!23 = !DIDerivedType(tag: DW_TAG_const_type, baseType: !10)
!24 = !DISubprogram(name: "operator unsigned int", linkageName: "_ZNK15atomic_uint32_tcvjEv", scope: !10, file: !11, line: 58, type: !20, scopeLine: 58, flags: DIFlagPublic | DIFlagPrototyped, spFlags: DISPFlagOptimized)
!25 = !DISubprogram(name: "operator=", linkageName: "_ZN15atomic_uint32_taSEj", scope: !10, file: !11, line: 60, type: !26, scopeLine: 60, flags: DIFlagPublic | DIFlagPrototyped, spFlags: DISPFlagOptimized)
!26 = !DISubroutineType(types: !27)
!27 = !{!28, !29, !14}
!28 = !DIDerivedType(tag: DW_TAG_reference_type, baseType: !10, size: 64)
!29 = !DIDerivedType(tag: DW_TAG_pointer_type, baseType: !10, size: 64, flags: DIFlagArtificial | DIFlagObjectPointer)
!30 = !DISubprogram(name: "operator+=", linkageName: "_ZN15atomic_uint32_tpLEi", scope: !10, file: !11, line: 62, type: !31, scopeLine: 62, flags: DIFlagPublic | DIFlagPrototyped, spFlags: DISPFlagOptimized)
!31 = !DISubroutineType(types: !32)
!32 = !{!28, !29, !33}
!33 = !DIDerivedType(tag: DW_TAG_typedef, name: "int32_t", file: !34, line: 26, baseType: !35)
!34 = !DIFile(filename: "/usr/include/bits/stdint-intn.h", directory: "")
!35 = !DIDerivedType(tag: DW_TAG_typedef, name: "__int32_t", file: !17, line: 41, baseType: !36)
!36 = !DIBasicType(name: "int", size: 32, encoding: DW_ATE_signed)
!37 = !DISubprogram(name: "operator-=", linkageName: "_ZN15atomic_uint32_tmIEi", scope: !10, file: !11, line: 63, type: !31, scopeLine: 63, flags: DIFlagPublic | DIFlagPrototyped, spFlags: DISPFlagOptimized)
!38 = !DISubprogram(name: "operator|=", linkageName: "_ZN15atomic_uint32_toREj", scope: !10, file: !11, line: 64, type: !26, scopeLine: 64, flags: DIFlagPublic | DIFlagPrototyped, spFlags: DISPFlagOptimized)
!39 = !DISubprogram(name: "operator&=", linkageName: "_ZN15atomic_uint32_taNEj", scope: !10, file: !11, line: 65, type: !26, scopeLine: 65, flags: DIFlagPublic | DIFlagPrototyped, spFlags: DISPFlagOptimized)
!40 = !DISubprogram(name: "operator++", linkageName: "_ZN15atomic_uint32_tppEv", scope: !10, file: !11, line: 67, type: !41, scopeLine: 67, flags: DIFlagPublic | DIFlagPrototyped, spFlags: DISPFlagOptimized)
!41 = !DISubroutineType(types: !42)
!42 = !{null, !29}
!43 = !DISubprogram(name: "operator++", linkageName: "_ZN15atomic_uint32_tppEi", scope: !10, file: !11, line: 68, type: !44, scopeLine: 68, flags: DIFlagPublic | DIFlagPrototyped, spFlags: DISPFlagOptimized)
!44 = !DISubroutineType(types: !45)
!45 = !{null, !29, !36}
!46 = !DISubprogram(name: "operator--", linkageName: "_ZN15atomic_uint32_tmmEv", scope: !10, file: !11, line: 69, type: !41, scopeLine: 69, flags: DIFlagPublic | DIFlagPrototyped, spFlags: DISPFlagOptimized)
!47 = !DISubprogram(name: "operator--", linkageName: "_ZN15atomic_uint32_tmmEi", scope: !10, file: !11, line: 70, type: !44, scopeLine: 70, flags: DIFlagPublic | DIFlagPrototyped, spFlags: DISPFlagOptimized)
!48 = !DISubprogram(name: "swap", linkageName: "_ZN15atomic_uint32_t4swapEj", scope: !10, file: !11, line: 72, type: !49, scopeLine: 72, flags: DIFlagPublic | DIFlagPrototyped, spFlags: DISPFlagOptimized)
!49 = !DISubroutineType(types: !50)
!50 = !{!14, !29, !14}
!51 = !DISubprogram(name: "fetch_and_add", linkageName: "_ZN15atomic_uint32_t13fetch_and_addEj", scope: !10, file: !11, line: 73, type: !49, scopeLine: 73, flags: DIFlagPublic | DIFlagPrototyped, spFlags: DISPFlagOptimized)
!52 = !DISubprogram(name: "dec_and_test", linkageName: "_ZN15atomic_uint32_t12dec_and_testEv", scope: !10, file: !11, line: 74, type: !53, scopeLine: 74, flags: DIFlagPublic | DIFlagPrototyped, spFlags: DISPFlagOptimized)
!53 = !DISubroutineType(types: !54)
!54 = !{!55, !29}
!55 = !DIBasicType(name: "bool", size: 8, encoding: DW_ATE_boolean)
!56 = !DISubprogram(name: "compare_swap", linkageName: "_ZN15atomic_uint32_t12compare_swapEjj", scope: !10, file: !11, line: 75, type: !57, scopeLine: 75, flags: DIFlagPublic | DIFlagPrototyped, spFlags: DISPFlagOptimized)
!57 = !DISubroutineType(types: !58)
!58 = !{!14, !29, !14, !14}
!59 = !DISubprogram(name: "compare_and_swap", linkageName: "_ZN15atomic_uint32_t16compare_and_swapEjj", scope: !10, file: !11, line: 76, type: !60, scopeLine: 76, flags: DIFlagPublic | DIFlagPrototyped, spFlags: DISPFlagOptimized)
!60 = !DISubroutineType(types: !61)
!61 = !{!55, !29, !14, !14}
!62 = !DISubprogram(name: "swap", linkageName: "_ZN15atomic_uint32_t4swapERVjj", scope: !10, file: !11, line: 78, type: !63, scopeLine: 78, flags: DIFlagPublic | DIFlagPrototyped | DIFlagStaticMember, spFlags: DISPFlagOptimized)
!63 = !DISubroutineType(types: !64)
!64 = !{!14, !65, !14}
!65 = !DIDerivedType(tag: DW_TAG_reference_type, baseType: !66, size: 64)
!66 = !DIDerivedType(tag: DW_TAG_volatile_type, baseType: !14)
!67 = !DISubprogram(name: "inc", linkageName: "_ZN15atomic_uint32_t3incERVj", scope: !10, file: !11, line: 79, type: !68, scopeLine: 79, flags: DIFlagPublic | DIFlagPrototyped | DIFlagStaticMember, spFlags: DISPFlagOptimized)
!68 = !DISubroutineType(types: !69)
!69 = !{null, !65}
!70 = !DISubprogram(name: "dec_and_test", linkageName: "_ZN15atomic_uint32_t12dec_and_testERVj", scope: !10, file: !11, line: 80, type: !71, scopeLine: 80, flags: DIFlagPublic | DIFlagPrototyped | DIFlagStaticMember, spFlags: DISPFlagOptimized)
!71 = !DISubroutineType(types: !72)
!72 = !{!55, !65}
!73 = !DISubprogram(name: "compare_swap", linkageName: "_ZN15atomic_uint32_t12compare_swapERVjjj", scope: !10, file: !11, line: 81, type: !74, scopeLine: 81, flags: DIFlagPublic | DIFlagPrototyped | DIFlagStaticMember, spFlags: DISPFlagOptimized)
!74 = !DISubroutineType(types: !75)
!75 = !{!14, !65, !14, !14}
!76 = !DISubprogram(name: "compare_and_swap", linkageName: "_ZN15atomic_uint32_t16compare_and_swapERVjjj", scope: !10, file: !11, line: 82, type: !77, scopeLine: 82, flags: DIFlagPublic | DIFlagPrototyped | DIFlagStaticMember, spFlags: DISPFlagOptimized)
!77 = !DISubroutineType(types: !78)
!78 = !{!55, !65, !14, !14}
!79 = !DIDerivedType(tag: DW_TAG_member, name: "_data_packet", scope: !7, file: !6, line: 732, baseType: !80, size: 64, offset: 64)
!80 = !DIDerivedType(tag: DW_TAG_pointer_type, baseType: !7, size: 64)
!81 = !DIDerivedType(tag: DW_TAG_member, name: "_head", scope: !7, file: !6, line: 734, baseType: !82, size: 64, offset: 128)
!82 = !DIDerivedType(tag: DW_TAG_pointer_type, baseType: !83, size: 64)
!83 = !DIBasicType(name: "unsigned char", size: 8, encoding: DW_ATE_unsigned_char)
!84 = !DIDerivedType(tag: DW_TAG_member, name: "_data", scope: !7, file: !6, line: 735, baseType: !82, size: 64, offset: 192)
!85 = !DIDerivedType(tag: DW_TAG_member, name: "_tail", scope: !7, file: !6, line: 736, baseType: !82, size: 64, offset: 256)
!86 = !DIDerivedType(tag: DW_TAG_member, name: "_end", scope: !7, file: !6, line: 737, baseType: !82, size: 64, offset: 320)
!87 = !DIDerivedType(tag: DW_TAG_member, name: "_aa", scope: !7, file: !6, line: 741, baseType: !88, size: 832, offset: 384)
!88 = distinct !DICompositeType(tag: DW_TAG_structure_type, name: "AllAnno", scope: !7, file: !6, line: 716, size: 832, flags: DIFlagTypePassByValue, elements: !89, identifier: "_ZTSN6Packet7AllAnnoE")
!89 = !{!90, !120, !121, !122, !123, !124, !128, !129}
!90 = !DIDerivedType(tag: DW_TAG_member, name: "cb", scope: !88, file: !6, line: 717, baseType: !91, size: 384)
!91 = distinct !DICompositeType(tag: DW_TAG_union_type, name: "Anno", scope: !7, file: !6, line: 702, size: 384, flags: DIFlagTypePassByValue, elements: !92, identifier: "_ZTSN6Packet4AnnoE")
!92 = !{!93, !98, !102, !109, !113}
!93 = !DIDerivedType(tag: DW_TAG_member, name: "c", scope: !91, file: !6, line: 703, baseType: !94, size: 384)
!94 = !DICompositeType(tag: DW_TAG_array_type, baseType: !95, size: 384, elements: !96)
!95 = !DIBasicType(name: "char", size: 8, encoding: DW_ATE_signed_char)
!96 = !{!97}
!97 = !DISubrange(count: 48)
!98 = !DIDerivedType(tag: DW_TAG_member, name: "u8", scope: !91, file: !6, line: 704, baseType: !99, size: 384)
!99 = !DICompositeType(tag: DW_TAG_array_type, baseType: !100, size: 384, elements: !96)
!100 = !DIDerivedType(tag: DW_TAG_typedef, name: "uint8_t", file: !15, line: 24, baseType: !101)
!101 = !DIDerivedType(tag: DW_TAG_typedef, name: "__uint8_t", file: !17, line: 38, baseType: !83)
!102 = !DIDerivedType(tag: DW_TAG_member, name: "u16", scope: !91, file: !6, line: 705, baseType: !103, size: 384)
!103 = !DICompositeType(tag: DW_TAG_array_type, baseType: !104, size: 384, elements: !107)
!104 = !DIDerivedType(tag: DW_TAG_typedef, name: "uint16_t", file: !15, line: 25, baseType: !105)
!105 = !DIDerivedType(tag: DW_TAG_typedef, name: "__uint16_t", file: !17, line: 40, baseType: !106)
!106 = !DIBasicType(name: "unsigned short", size: 16, encoding: DW_ATE_unsigned)
!107 = !{!108}
!108 = !DISubrange(count: 24)
!109 = !DIDerivedType(tag: DW_TAG_member, name: "u32", scope: !91, file: !6, line: 706, baseType: !110, size: 384)
!110 = !DICompositeType(tag: DW_TAG_array_type, baseType: !14, size: 384, elements: !111)
!111 = !{!112}
!112 = !DISubrange(count: 12)
!113 = !DIDerivedType(tag: DW_TAG_member, name: "u64", scope: !91, file: !6, line: 708, baseType: !114, size: 384)
!114 = !DICompositeType(tag: DW_TAG_array_type, baseType: !115, size: 384, elements: !118)
!115 = !DIDerivedType(tag: DW_TAG_typedef, name: "uint64_t", file: !15, line: 27, baseType: !116)
!116 = !DIDerivedType(tag: DW_TAG_typedef, name: "__uint64_t", file: !17, line: 45, baseType: !117)
!117 = !DIBasicType(name: "long unsigned int", size: 64, encoding: DW_ATE_unsigned)
!118 = !{!119}
!119 = !DISubrange(count: 6)
!120 = !DIDerivedType(tag: DW_TAG_member, name: "mac", scope: !88, file: !6, line: 718, baseType: !82, size: 64, offset: 384)
!121 = !DIDerivedType(tag: DW_TAG_member, name: "nh", scope: !88, file: !6, line: 719, baseType: !82, size: 64, offset: 448)
!122 = !DIDerivedType(tag: DW_TAG_member, name: "h", scope: !88, file: !6, line: 720, baseType: !82, size: 64, offset: 512)
!123 = !DIDerivedType(tag: DW_TAG_member, name: "pkt_type", scope: !88, file: !6, line: 721, baseType: !5, size: 32, offset: 576)
!124 = !DIDerivedType(tag: DW_TAG_member, name: "timestamp", scope: !88, file: !6, line: 722, baseType: !125, size: 64, offset: 608)
!125 = !DICompositeType(tag: DW_TAG_array_type, baseType: !95, size: 64, elements: !126)
!126 = !{!127}
!127 = !DISubrange(count: 8)
!128 = !DIDerivedType(tag: DW_TAG_member, name: "next", scope: !88, file: !6, line: 723, baseType: !80, size: 64, offset: 704)
!129 = !DIDerivedType(tag: DW_TAG_member, name: "prev", scope: !88, file: !6, line: 724, baseType: !80, size: 64, offset: 768)
!130 = !DIDerivedType(tag: DW_TAG_member, name: "_destructor", scope: !7, file: !6, line: 746, baseType: !131, size: 64, offset: 1216)
!131 = !DIDerivedType(tag: DW_TAG_typedef, name: "buffer_destructor_type", scope: !7, file: !6, line: 65, baseType: !132)
!132 = !DIDerivedType(tag: DW_TAG_pointer_type, baseType: !133, size: 64)
!133 = !DISubroutineType(types: !134)
!134 = !{null, !82, !135, !137}
!135 = !DIDerivedType(tag: DW_TAG_typedef, name: "size_t", file: !136, line: 46, baseType: !117)
!136 = !DIFile(filename: "/usr/lib/clang/10.0.0/include/stddef.h", directory: "")
!137 = !DIDerivedType(tag: DW_TAG_pointer_type, baseType: null, size: 64)
!138 = !DIDerivedType(tag: DW_TAG_member, name: "_destructor_argument", scope: !7, file: !6, line: 747, baseType: !137, size: 64, offset: 1280)
!139 = !DISubprogram(name: "make", linkageName: "_ZN6Packet4makeEjPKvjj", scope: !7, file: !6, line: 52, type: !140, scopeLine: 52, flags: DIFlagPublic | DIFlagPrototyped | DIFlagStaticMember, spFlags: DISPFlagOptimized)
!140 = !DISubroutineType(types: !141)
!141 = !{!142, !14, !238, !14, !14}
!142 = !DIDerivedType(tag: DW_TAG_pointer_type, baseType: !143, size: 64)
!143 = distinct !DICompositeType(tag: DW_TAG_class_type, name: "WritablePacket", file: !6, line: 778, size: 1344, flags: DIFlagTypePassByReference | DIFlagNonTrivial, elements: !144, identifier: "_ZTS14WritablePacket")
!144 = !{!145, !146, !151, !152, !153, !154, !155, !166, !167, !190, !195, !196, !201, !206, !217, !218, !222, !223, !228, !229, !232, !235}
!145 = !DIDerivedType(tag: DW_TAG_inheritance, scope: !143, baseType: !7, flags: DIFlagPublic, extraData: i32 0)
!146 = !DISubprogram(name: "data", linkageName: "_ZNK14WritablePacket4dataEv", scope: !143, file: !6, line: 780, type: !147, scopeLine: 780, flags: DIFlagPublic | DIFlagPrototyped, spFlags: DISPFlagOptimized)
!147 = !DISubroutineType(types: !148)
!148 = !{!82, !149}
!149 = !DIDerivedType(tag: DW_TAG_pointer_type, baseType: !150, size: 64, flags: DIFlagArtificial | DIFlagObjectPointer)
!150 = !DIDerivedType(tag: DW_TAG_const_type, baseType: !143)
!151 = !DISubprogram(name: "end_data", linkageName: "_ZNK14WritablePacket8end_dataEv", scope: !143, file: !6, line: 781, type: !147, scopeLine: 781, flags: DIFlagPublic | DIFlagPrototyped, spFlags: DISPFlagOptimized)
!152 = !DISubprogram(name: "buffer", linkageName: "_ZNK14WritablePacket6bufferEv", scope: !143, file: !6, line: 782, type: !147, scopeLine: 782, flags: DIFlagPublic | DIFlagPrototyped, spFlags: DISPFlagOptimized)
!153 = !DISubprogram(name: "end_buffer", linkageName: "_ZNK14WritablePacket10end_bufferEv", scope: !143, file: !6, line: 783, type: !147, scopeLine: 783, flags: DIFlagPublic | DIFlagPrototyped, spFlags: DISPFlagOptimized)
!154 = !DISubprogram(name: "mac_header", linkageName: "_ZNK14WritablePacket10mac_headerEv", scope: !143, file: !6, line: 784, type: !147, scopeLine: 784, flags: DIFlagPublic | DIFlagPrototyped, spFlags: DISPFlagOptimized)
!155 = !DISubprogram(name: "ether_header", linkageName: "_ZNK14WritablePacket12ether_headerEv", scope: !143, file: !6, line: 785, type: !156, scopeLine: 785, flags: DIFlagPublic | DIFlagPrototyped, spFlags: DISPFlagOptimized)
!156 = !DISubroutineType(types: !157)
!157 = !{!158, !149}
!158 = !DIDerivedType(tag: DW_TAG_pointer_type, baseType: !159, size: 64)
!159 = distinct !DICompositeType(tag: DW_TAG_structure_type, name: "click_ether", file: !160, line: 17, size: 112, flags: DIFlagTypePassByValue, elements: !161, identifier: "_ZTS11click_ether")
!160 = !DIFile(filename: "../dummy_inc/clicknet/ether.h", directory: "/home/john/projects/click/ir-dir")
!161 = !{!162, !164, !165}
!162 = !DIDerivedType(tag: DW_TAG_member, name: "ether_dhost", scope: !159, file: !160, line: 18, baseType: !163, size: 48)
!163 = !DICompositeType(tag: DW_TAG_array_type, baseType: !100, size: 48, elements: !118)
!164 = !DIDerivedType(tag: DW_TAG_member, name: "ether_shost", scope: !159, file: !160, line: 19, baseType: !163, size: 48, offset: 48)
!165 = !DIDerivedType(tag: DW_TAG_member, name: "ether_type", scope: !159, file: !160, line: 20, baseType: !104, size: 16, offset: 96)
!166 = !DISubprogram(name: "network_header", linkageName: "_ZNK14WritablePacket14network_headerEv", scope: !143, file: !6, line: 786, type: !147, scopeLine: 786, flags: DIFlagPublic | DIFlagPrototyped, spFlags: DISPFlagOptimized)
!167 = !DISubprogram(name: "ip_header", linkageName: "_ZNK14WritablePacket9ip_headerEv", scope: !143, file: !6, line: 787, type: !168, scopeLine: 787, flags: DIFlagPublic | DIFlagPrototyped, spFlags: DISPFlagOptimized)
!168 = !DISubroutineType(types: !169)
!169 = !{!170, !149}
!170 = !DIDerivedType(tag: DW_TAG_pointer_type, baseType: !171, size: 64)
!171 = distinct !DICompositeType(tag: DW_TAG_structure_type, name: "click_ip", file: !172, line: 23, size: 160, flags: DIFlagTypePassByValue, elements: !173, identifier: "_ZTS8click_ip")
!172 = !DIFile(filename: "../dummy_inc/clicknet/ip.h", directory: "/home/john/projects/click/ir-dir")
!173 = !{!174, !175, !176, !177, !178, !179, !180, !181, !182, !183, !189}
!174 = !DIDerivedType(tag: DW_TAG_member, name: "ip_hl", scope: !171, file: !172, line: 28, baseType: !18, size: 4, flags: DIFlagBitField, extraData: i64 0)
!175 = !DIDerivedType(tag: DW_TAG_member, name: "ip_v", scope: !171, file: !172, line: 29, baseType: !18, size: 4, offset: 4, flags: DIFlagBitField, extraData: i64 0)
!176 = !DIDerivedType(tag: DW_TAG_member, name: "ip_tos", scope: !171, file: !172, line: 33, baseType: !100, size: 8, offset: 8)
!177 = !DIDerivedType(tag: DW_TAG_member, name: "ip_len", scope: !171, file: !172, line: 40, baseType: !104, size: 16, offset: 16)
!178 = !DIDerivedType(tag: DW_TAG_member, name: "ip_id", scope: !171, file: !172, line: 41, baseType: !104, size: 16, offset: 32)
!179 = !DIDerivedType(tag: DW_TAG_member, name: "ip_off", scope: !171, file: !172, line: 42, baseType: !104, size: 16, offset: 48)
!180 = !DIDerivedType(tag: DW_TAG_member, name: "ip_ttl", scope: !171, file: !172, line: 47, baseType: !100, size: 8, offset: 64)
!181 = !DIDerivedType(tag: DW_TAG_member, name: "ip_p", scope: !171, file: !172, line: 48, baseType: !100, size: 8, offset: 72)
!182 = !DIDerivedType(tag: DW_TAG_member, name: "ip_sum", scope: !171, file: !172, line: 49, baseType: !104, size: 16, offset: 80)
!183 = !DIDerivedType(tag: DW_TAG_member, name: "ip_src", scope: !171, file: !172, line: 50, baseType: !184, size: 32, offset: 96)
!184 = distinct !DICompositeType(tag: DW_TAG_structure_type, name: "in_addr", file: !185, line: 31, size: 32, flags: DIFlagTypePassByValue, elements: !186, identifier: "_ZTS7in_addr")
!185 = !DIFile(filename: "/usr/include/netinet/in.h", directory: "")
!186 = !{!187}
!187 = !DIDerivedType(tag: DW_TAG_member, name: "s_addr", scope: !184, file: !185, line: 33, baseType: !188, size: 32)
!188 = !DIDerivedType(tag: DW_TAG_typedef, name: "in_addr_t", file: !185, line: 30, baseType: !14)
!189 = !DIDerivedType(tag: DW_TAG_member, name: "ip_dst", scope: !171, file: !172, line: 51, baseType: !184, size: 32, offset: 128)
!190 = !DISubprogram(name: "ip6_header", linkageName: "_ZNK14WritablePacket10ip6_headerEv", scope: !143, file: !6, line: 788, type: !191, scopeLine: 788, flags: DIFlagPublic | DIFlagPrototyped, spFlags: DISPFlagOptimized)
!191 = !DISubroutineType(types: !192)
!192 = !{!193, !149}
!193 = !DIDerivedType(tag: DW_TAG_pointer_type, baseType: !194, size: 64)
!194 = !DICompositeType(tag: DW_TAG_structure_type, name: "click_ip6", file: !6, line: 27, flags: DIFlagFwdDecl, identifier: "_ZTS9click_ip6")
!195 = !DISubprogram(name: "transport_header", linkageName: "_ZNK14WritablePacket16transport_headerEv", scope: !143, file: !6, line: 789, type: !147, scopeLine: 789, flags: DIFlagPublic | DIFlagPrototyped, spFlags: DISPFlagOptimized)
!196 = !DISubprogram(name: "icmp_header", linkageName: "_ZNK14WritablePacket11icmp_headerEv", scope: !143, file: !6, line: 790, type: !197, scopeLine: 790, flags: DIFlagPublic | DIFlagPrototyped, spFlags: DISPFlagOptimized)
!197 = !DISubroutineType(types: !198)
!198 = !{!199, !149}
!199 = !DIDerivedType(tag: DW_TAG_pointer_type, baseType: !200, size: 64)
!200 = !DICompositeType(tag: DW_TAG_structure_type, name: "click_icmp", file: !6, line: 26, flags: DIFlagFwdDecl, identifier: "_ZTS10click_icmp")
!201 = !DISubprogram(name: "tcp_header", linkageName: "_ZNK14WritablePacket10tcp_headerEv", scope: !143, file: !6, line: 791, type: !202, scopeLine: 791, flags: DIFlagPublic | DIFlagPrototyped, spFlags: DISPFlagOptimized)
!202 = !DISubroutineType(types: !203)
!203 = !{!204, !149}
!204 = !DIDerivedType(tag: DW_TAG_pointer_type, baseType: !205, size: 64)
!205 = !DICompositeType(tag: DW_TAG_structure_type, name: "click_tcp", file: !6, line: 28, flags: DIFlagFwdDecl, identifier: "_ZTS9click_tcp")
!206 = !DISubprogram(name: "udp_header", linkageName: "_ZNK14WritablePacket10udp_headerEv", scope: !143, file: !6, line: 792, type: !207, scopeLine: 792, flags: DIFlagPublic | DIFlagPrototyped, spFlags: DISPFlagOptimized)
!207 = !DISubroutineType(types: !208)
!208 = !{!209, !149}
!209 = !DIDerivedType(tag: DW_TAG_pointer_type, baseType: !210, size: 64)
!210 = distinct !DICompositeType(tag: DW_TAG_structure_type, name: "click_udp", file: !211, line: 11, size: 64, flags: DIFlagTypePassByValue, elements: !212, identifier: "_ZTS9click_udp")
!211 = !DIFile(filename: "../dummy_inc/clicknet/udp.h", directory: "/home/john/projects/click/ir-dir")
!212 = !{!213, !214, !215, !216}
!213 = !DIDerivedType(tag: DW_TAG_member, name: "uh_sport", scope: !210, file: !211, line: 12, baseType: !104, size: 16)
!214 = !DIDerivedType(tag: DW_TAG_member, name: "uh_dport", scope: !210, file: !211, line: 13, baseType: !104, size: 16, offset: 16)
!215 = !DIDerivedType(tag: DW_TAG_member, name: "uh_ulen", scope: !210, file: !211, line: 14, baseType: !104, size: 16, offset: 32)
!216 = !DIDerivedType(tag: DW_TAG_member, name: "uh_sum", scope: !210, file: !211, line: 15, baseType: !104, size: 16, offset: 48)
!217 = !DISubprogram(name: "buffer_data", linkageName: "_ZNK14WritablePacket11buffer_dataEv", scope: !143, file: !6, line: 795, type: !147, scopeLine: 795, flags: DIFlagPublic | DIFlagPrototyped, spFlags: DISPFlagOptimized)
!218 = !DISubprogram(name: "WritablePacket", scope: !143, file: !6, line: 800, type: !219, scopeLine: 800, flags: DIFlagPrototyped, spFlags: DISPFlagOptimized)
!219 = !DISubroutineType(types: !220)
!220 = !{null, !221}
!221 = !DIDerivedType(tag: DW_TAG_pointer_type, baseType: !143, size: 64, flags: DIFlagArtificial | DIFlagObjectPointer)
!222 = !DISubprogram(name: "initialize", linkageName: "_ZN14WritablePacket10initializeEv", scope: !143, file: !6, line: 802, type: !219, scopeLine: 802, flags: DIFlagPrototyped, spFlags: DISPFlagOptimized)
!223 = !DISubprogram(name: "WritablePacket", scope: !143, file: !6, line: 804, type: !224, scopeLine: 804, flags: DIFlagPrototyped, spFlags: DISPFlagOptimized)
!224 = !DISubroutineType(types: !225)
!225 = !{null, !221, !226}
!226 = !DIDerivedType(tag: DW_TAG_reference_type, baseType: !227, size: 64)
!227 = !DIDerivedType(tag: DW_TAG_const_type, baseType: !7)
!228 = !DISubprogram(name: "~WritablePacket", scope: !143, file: !6, line: 805, type: !219, scopeLine: 805, flags: DIFlagPrototyped, spFlags: DISPFlagOptimized)
!229 = !DISubprogram(name: "pool_allocate", linkageName: "_ZN14WritablePacket13pool_allocateEb", scope: !143, file: !6, line: 808, type: !230, scopeLine: 808, flags: DIFlagPrototyped | DIFlagStaticMember, spFlags: DISPFlagOptimized)
!230 = !DISubroutineType(types: !231)
!231 = !{!142, !55}
!232 = !DISubprogram(name: "pool_allocate", linkageName: "_ZN14WritablePacket13pool_allocateEjjj", scope: !143, file: !6, line: 809, type: !233, scopeLine: 809, flags: DIFlagPrototyped | DIFlagStaticMember, spFlags: DISPFlagOptimized)
!233 = !DISubroutineType(types: !234)
!234 = !{!142, !14, !14, !14}
!235 = !DISubprogram(name: "recycle", linkageName: "_ZN14WritablePacket7recycleEPS_", scope: !143, file: !6, line: 811, type: !236, scopeLine: 811, flags: DIFlagPrototyped | DIFlagStaticMember, spFlags: DISPFlagOptimized)
!236 = !DISubroutineType(types: !237)
!237 = !{null, !142}
!238 = !DIDerivedType(tag: DW_TAG_pointer_type, baseType: !239, size: 64)
!239 = !DIDerivedType(tag: DW_TAG_const_type, baseType: null)
!240 = !DISubprogram(name: "make", linkageName: "_ZN6Packet4makeEPKvj", scope: !7, file: !6, line: 54, type: !241, scopeLine: 54, flags: DIFlagPublic | DIFlagPrototyped | DIFlagStaticMember, spFlags: DISPFlagOptimized)
!241 = !DISubroutineType(types: !242)
!242 = !{!142, !238, !14}
!243 = !DISubprogram(name: "make", linkageName: "_ZN6Packet4makeEj", scope: !7, file: !6, line: 55, type: !244, scopeLine: 55, flags: DIFlagPublic | DIFlagPrototyped | DIFlagStaticMember, spFlags: DISPFlagOptimized)
!244 = !DISubroutineType(types: !245)
!245 = !{!142, !14}
!246 = !DISubprogram(name: "make", linkageName: "_ZN6Packet4makeEPhjPFvS0_mPvES1_ii", scope: !7, file: !6, line: 66, type: !247, scopeLine: 66, flags: DIFlagPublic | DIFlagPrototyped | DIFlagStaticMember, spFlags: DISPFlagOptimized)
!247 = !DISubroutineType(types: !248)
!248 = !{!142, !82, !14, !131, !137, !36, !36}
!249 = !DISubprogram(name: "static_cleanup", linkageName: "_ZN6Packet14static_cleanupEv", scope: !7, file: !6, line: 71, type: !250, scopeLine: 71, flags: DIFlagPublic | DIFlagPrototyped | DIFlagStaticMember, spFlags: DISPFlagOptimized)
!250 = !DISubroutineType(types: !251)
!251 = !{null}
!252 = !DISubprogram(name: "kill", linkageName: "_ZN6Packet4killEv", scope: !7, file: !6, line: 73, type: !253, scopeLine: 73, flags: DIFlagPublic | DIFlagPrototyped, spFlags: DISPFlagOptimized)
!253 = !DISubroutineType(types: !254)
!254 = !{null, !255}
!255 = !DIDerivedType(tag: DW_TAG_pointer_type, baseType: !7, size: 64, flags: DIFlagArtificial | DIFlagObjectPointer)
!256 = !DISubprogram(name: "shared", linkageName: "_ZNK6Packet6sharedEv", scope: !7, file: !6, line: 75, type: !257, scopeLine: 75, flags: DIFlagPublic | DIFlagPrototyped, spFlags: DISPFlagOptimized)
!257 = !DISubroutineType(types: !258)
!258 = !{!55, !259}
!259 = !DIDerivedType(tag: DW_TAG_pointer_type, baseType: !227, size: 64, flags: DIFlagArtificial | DIFlagObjectPointer)
!260 = !DISubprogram(name: "clone", linkageName: "_ZN6Packet5cloneEv", scope: !7, file: !6, line: 76, type: !261, scopeLine: 76, flags: DIFlagPublic | DIFlagPrototyped, spFlags: DISPFlagOptimized)
!261 = !DISubroutineType(types: !262)
!262 = !{!80, !255}
!263 = !DISubprogram(name: "uniqueify", linkageName: "_ZN6Packet9uniqueifyEv", scope: !7, file: !6, line: 77, type: !264, scopeLine: 77, flags: DIFlagPublic | DIFlagPrototyped, spFlags: DISPFlagOptimized)
!264 = !DISubroutineType(types: !265)
!265 = !{!142, !255}
!266 = !DISubprogram(name: "data", linkageName: "_ZNK6Packet4dataEv", scope: !7, file: !6, line: 79, type: !267, scopeLine: 79, flags: DIFlagPublic | DIFlagPrototyped, spFlags: DISPFlagOptimized)
!267 = !DISubroutineType(types: !268)
!268 = !{!269, !259}
!269 = !DIDerivedType(tag: DW_TAG_pointer_type, baseType: !270, size: 64)
!270 = !DIDerivedType(tag: DW_TAG_const_type, baseType: !83)
!271 = !DISubprogram(name: "end_data", linkageName: "_ZNK6Packet8end_dataEv", scope: !7, file: !6, line: 80, type: !267, scopeLine: 80, flags: DIFlagPublic | DIFlagPrototyped, spFlags: DISPFlagOptimized)
!272 = !DISubprogram(name: "length", linkageName: "_ZNK6Packet6lengthEv", scope: !7, file: !6, line: 81, type: !273, scopeLine: 81, flags: DIFlagPublic | DIFlagPrototyped, spFlags: DISPFlagOptimized)
!273 = !DISubroutineType(types: !274)
!274 = !{!14, !259}
!275 = !DISubprogram(name: "headroom", linkageName: "_ZNK6Packet8headroomEv", scope: !7, file: !6, line: 82, type: !273, scopeLine: 82, flags: DIFlagPublic | DIFlagPrototyped, spFlags: DISPFlagOptimized)
!276 = !DISubprogram(name: "tailroom", linkageName: "_ZNK6Packet8tailroomEv", scope: !7, file: !6, line: 83, type: !273, scopeLine: 83, flags: DIFlagPublic | DIFlagPrototyped, spFlags: DISPFlagOptimized)
!277 = !DISubprogram(name: "buffer", linkageName: "_ZNK6Packet6bufferEv", scope: !7, file: !6, line: 84, type: !267, scopeLine: 84, flags: DIFlagPublic | DIFlagPrototyped, spFlags: DISPFlagOptimized)
!278 = !DISubprogram(name: "end_buffer", linkageName: "_ZNK6Packet10end_bufferEv", scope: !7, file: !6, line: 85, type: !267, scopeLine: 85, flags: DIFlagPublic | DIFlagPrototyped, spFlags: DISPFlagOptimized)
!279 = !DISubprogram(name: "buffer_length", linkageName: "_ZNK6Packet13buffer_lengthEv", scope: !7, file: !6, line: 86, type: !273, scopeLine: 86, flags: DIFlagPublic | DIFlagPrototyped, spFlags: DISPFlagOptimized)
!280 = !DISubprogram(name: "buffer_destructor", linkageName: "_ZNK6Packet17buffer_destructorEv", scope: !7, file: !6, line: 97, type: !281, scopeLine: 97, flags: DIFlagPublic | DIFlagPrototyped, spFlags: DISPFlagOptimized)
!281 = !DISubroutineType(types: !282)
!282 = !{!131, !259}
!283 = !DISubprogram(name: "set_buffer_destructor", linkageName: "_ZN6Packet21set_buffer_destructorEPFvPhmPvE", scope: !7, file: !6, line: 101, type: !284, scopeLine: 101, flags: DIFlagPublic | DIFlagPrototyped, spFlags: DISPFlagOptimized)
!284 = !DISubroutineType(types: !285)
!285 = !{null, !255, !131}
!286 = !DISubprogram(name: "destructor_argument", linkageName: "_ZN6Packet19destructor_argumentEv", scope: !7, file: !6, line: 105, type: !287, scopeLine: 105, flags: DIFlagPublic | DIFlagPrototyped, spFlags: DISPFlagOptimized)
!287 = !DISubroutineType(types: !288)
!288 = !{!137, !255}
!289 = !DISubprogram(name: "reset_buffer", linkageName: "_ZN6Packet12reset_bufferEv", scope: !7, file: !6, line: 109, type: !253, scopeLine: 109, flags: DIFlagPublic | DIFlagPrototyped, spFlags: DISPFlagOptimized)
!290 = !DISubprogram(name: "push", linkageName: "_ZN6Packet4pushEj", scope: !7, file: !6, line: 141, type: !291, scopeLine: 141, flags: DIFlagPublic | DIFlagPrototyped, spFlags: DISPFlagOptimized)
!291 = !DISubroutineType(types: !292)
!292 = !{!142, !255, !14}
!293 = !DISubprogram(name: "push_mac_header", linkageName: "_ZN6Packet15push_mac_headerEj", scope: !7, file: !6, line: 152, type: !291, scopeLine: 152, flags: DIFlagPublic | DIFlagPrototyped, spFlags: DISPFlagOptimized)
!294 = !DISubprogram(name: "nonunique_push", linkageName: "_ZN6Packet14nonunique_pushEj", scope: !7, file: !6, line: 171, type: !295, scopeLine: 171, flags: DIFlagPublic | DIFlagPrototyped, spFlags: DISPFlagOptimized)
!295 = !DISubroutineType(types: !296)
!296 = !{!80, !255, !14}
!297 = !DISubprogram(name: "pull", linkageName: "_ZN6Packet4pullEj", scope: !7, file: !6, line: 187, type: !298, scopeLine: 187, flags: DIFlagPublic | DIFlagPrototyped, spFlags: DISPFlagOptimized)
!298 = !DISubroutineType(types: !299)
!299 = !{null, !255, !14}
!300 = !DISubprogram(name: "put", linkageName: "_ZN6Packet3putEj", scope: !7, file: !6, line: 213, type: !291, scopeLine: 213, flags: DIFlagPublic | DIFlagPrototyped, spFlags: DISPFlagOptimized)
!301 = !DISubprogram(name: "nonunique_put", linkageName: "_ZN6Packet13nonunique_putEj", scope: !7, file: !6, line: 230, type: !295, scopeLine: 230, flags: DIFlagPublic | DIFlagPrototyped, spFlags: DISPFlagOptimized)
!302 = !DISubprogram(name: "take", linkageName: "_ZN6Packet4takeEj", scope: !7, file: !6, line: 245, type: !298, scopeLine: 245, flags: DIFlagPublic | DIFlagPrototyped, spFlags: DISPFlagOptimized)
!303 = !DISubprogram(name: "shift_data", linkageName: "_ZN6Packet10shift_dataEib", scope: !7, file: !6, line: 269, type: !304, scopeLine: 269, flags: DIFlagPublic | DIFlagPrototyped, spFlags: DISPFlagOptimized)
!304 = !DISubroutineType(types: !305)
!305 = !{!80, !255, !36, !55}
!306 = !DISubprogram(name: "shrink_data", linkageName: "_ZN6Packet11shrink_dataEPKhj", scope: !7, file: !6, line: 271, type: !307, scopeLine: 271, flags: DIFlagPublic | DIFlagPrototyped, spFlags: DISPFlagOptimized)
!307 = !DISubroutineType(types: !308)
!308 = !{null, !255, !269, !14}
!309 = !DISubprogram(name: "change_headroom_and_length", linkageName: "_ZN6Packet26change_headroom_and_lengthEjj", scope: !7, file: !6, line: 272, type: !310, scopeLine: 272, flags: DIFlagPublic | DIFlagPrototyped, spFlags: DISPFlagOptimized)
!310 = !DISubroutineType(types: !311)
!311 = !{null, !255, !14, !14}
!312 = !DISubprogram(name: "copy", linkageName: "_ZN6Packet4copyEPS_i", scope: !7, file: !6, line: 274, type: !313, scopeLine: 274, flags: DIFlagPublic | DIFlagPrototyped, spFlags: DISPFlagOptimized)
!313 = !DISubroutineType(types: !314)
!314 = !{!55, !255, !80, !36}
!315 = !DISubprogram(name: "has_mac_header", linkageName: "_ZNK6Packet14has_mac_headerEv", scope: !7, file: !6, line: 279, type: !257, scopeLine: 279, flags: DIFlagPublic | DIFlagPrototyped, spFlags: DISPFlagOptimized)
!316 = !DISubprogram(name: "mac_header", linkageName: "_ZNK6Packet10mac_headerEv", scope: !7, file: !6, line: 280, type: !267, scopeLine: 280, flags: DIFlagPublic | DIFlagPrototyped, spFlags: DISPFlagOptimized)
!317 = !DISubprogram(name: "mac_header_offset", linkageName: "_ZNK6Packet17mac_header_offsetEv", scope: !7, file: !6, line: 281, type: !318, scopeLine: 281, flags: DIFlagPublic | DIFlagPrototyped, spFlags: DISPFlagOptimized)
!318 = !DISubroutineType(types: !319)
!319 = !{!36, !259}
!320 = !DISubprogram(name: "mac_header_length", linkageName: "_ZNK6Packet17mac_header_lengthEv", scope: !7, file: !6, line: 282, type: !273, scopeLine: 282, flags: DIFlagPublic | DIFlagPrototyped, spFlags: DISPFlagOptimized)
!321 = !DISubprogram(name: "mac_length", linkageName: "_ZNK6Packet10mac_lengthEv", scope: !7, file: !6, line: 283, type: !318, scopeLine: 283, flags: DIFlagPublic | DIFlagPrototyped, spFlags: DISPFlagOptimized)
!322 = !DISubprogram(name: "set_mac_header", linkageName: "_ZN6Packet14set_mac_headerEPKh", scope: !7, file: !6, line: 284, type: !323, scopeLine: 284, flags: DIFlagPublic | DIFlagPrototyped, spFlags: DISPFlagOptimized)
!323 = !DISubroutineType(types: !324)
!324 = !{null, !255, !269}
!325 = !DISubprogram(name: "set_mac_header", linkageName: "_ZN6Packet14set_mac_headerEPKhj", scope: !7, file: !6, line: 285, type: !307, scopeLine: 285, flags: DIFlagPublic | DIFlagPrototyped, spFlags: DISPFlagOptimized)
!326 = !DISubprogram(name: "clear_mac_header", linkageName: "_ZN6Packet16clear_mac_headerEv", scope: !7, file: !6, line: 286, type: !253, scopeLine: 286, flags: DIFlagPublic | DIFlagPrototyped, spFlags: DISPFlagOptimized)
!327 = !DISubprogram(name: "has_network_header", linkageName: "_ZNK6Packet18has_network_headerEv", scope: !7, file: !6, line: 288, type: !257, scopeLine: 288, flags: DIFlagPublic | DIFlagPrototyped, spFlags: DISPFlagOptimized)
!328 = !DISubprogram(name: "network_header", linkageName: "_ZNK6Packet14network_headerEv", scope: !7, file: !6, line: 289, type: !267, scopeLine: 289, flags: DIFlagPublic | DIFlagPrototyped, spFlags: DISPFlagOptimized)
!329 = !DISubprogram(name: "network_header_offset", linkageName: "_ZNK6Packet21network_header_offsetEv", scope: !7, file: !6, line: 290, type: !318, scopeLine: 290, flags: DIFlagPublic | DIFlagPrototyped, spFlags: DISPFlagOptimized)
!330 = !DISubprogram(name: "network_header_length", linkageName: "_ZNK6Packet21network_header_lengthEv", scope: !7, file: !6, line: 291, type: !273, scopeLine: 291, flags: DIFlagPublic | DIFlagPrototyped, spFlags: DISPFlagOptimized)
!331 = !DISubprogram(name: "network_length", linkageName: "_ZNK6Packet14network_lengthEv", scope: !7, file: !6, line: 292, type: !318, scopeLine: 292, flags: DIFlagPublic | DIFlagPrototyped, spFlags: DISPFlagOptimized)
!332 = !DISubprogram(name: "set_network_header", linkageName: "_ZN6Packet18set_network_headerEPKhj", scope: !7, file: !6, line: 293, type: !307, scopeLine: 293, flags: DIFlagPublic | DIFlagPrototyped, spFlags: DISPFlagOptimized)
!333 = !DISubprogram(name: "set_network_header_length", linkageName: "_ZN6Packet25set_network_header_lengthEj", scope: !7, file: !6, line: 294, type: !298, scopeLine: 294, flags: DIFlagPublic | DIFlagPrototyped, spFlags: DISPFlagOptimized)
!334 = !DISubprogram(name: "clear_network_header", linkageName: "_ZN6Packet20clear_network_headerEv", scope: !7, file: !6, line: 295, type: !253, scopeLine: 295, flags: DIFlagPublic | DIFlagPrototyped, spFlags: DISPFlagOptimized)
!335 = !DISubprogram(name: "has_transport_header", linkageName: "_ZNK6Packet20has_transport_headerEv", scope: !7, file: !6, line: 297, type: !257, scopeLine: 297, flags: DIFlagPublic | DIFlagPrototyped, spFlags: DISPFlagOptimized)
!336 = !DISubprogram(name: "transport_header", linkageName: "_ZNK6Packet16transport_headerEv", scope: !7, file: !6, line: 298, type: !267, scopeLine: 298, flags: DIFlagPublic | DIFlagPrototyped, spFlags: DISPFlagOptimized)
!337 = !DISubprogram(name: "transport_header_offset", linkageName: "_ZNK6Packet23transport_header_offsetEv", scope: !7, file: !6, line: 299, type: !318, scopeLine: 299, flags: DIFlagPublic | DIFlagPrototyped, spFlags: DISPFlagOptimized)
!338 = !DISubprogram(name: "transport_length", linkageName: "_ZNK6Packet16transport_lengthEv", scope: !7, file: !6, line: 300, type: !318, scopeLine: 300, flags: DIFlagPublic | DIFlagPrototyped, spFlags: DISPFlagOptimized)
!339 = !DISubprogram(name: "clear_transport_header", linkageName: "_ZN6Packet22clear_transport_headerEv", scope: !7, file: !6, line: 301, type: !253, scopeLine: 301, flags: DIFlagPublic | DIFlagPrototyped, spFlags: DISPFlagOptimized)
!340 = !DISubprogram(name: "ether_header", linkageName: "_ZNK6Packet12ether_headerEv", scope: !7, file: !6, line: 304, type: !341, scopeLine: 304, flags: DIFlagPublic | DIFlagPrototyped, spFlags: DISPFlagOptimized)
!341 = !DISubroutineType(types: !342)
!342 = !{!343, !259}
!343 = !DIDerivedType(tag: DW_TAG_pointer_type, baseType: !344, size: 64)
!344 = !DIDerivedType(tag: DW_TAG_const_type, baseType: !159)
!345 = !DISubprogram(name: "set_ether_header", linkageName: "_ZN6Packet16set_ether_headerEPK11click_ether", scope: !7, file: !6, line: 305, type: !346, scopeLine: 305, flags: DIFlagPublic | DIFlagPrototyped, spFlags: DISPFlagOptimized)
!346 = !DISubroutineType(types: !347)
!347 = !{null, !255, !343}
!348 = !DISubprogram(name: "ip_header", linkageName: "_ZNK6Packet9ip_headerEv", scope: !7, file: !6, line: 307, type: !349, scopeLine: 307, flags: DIFlagPublic | DIFlagPrototyped, spFlags: DISPFlagOptimized)
!349 = !DISubroutineType(types: !350)
!350 = !{!351, !259}
!351 = !DIDerivedType(tag: DW_TAG_pointer_type, baseType: !352, size: 64)
!352 = !DIDerivedType(tag: DW_TAG_const_type, baseType: !171)
!353 = !DISubprogram(name: "ip_header_offset", linkageName: "_ZNK6Packet16ip_header_offsetEv", scope: !7, file: !6, line: 308, type: !318, scopeLine: 308, flags: DIFlagPublic | DIFlagPrototyped, spFlags: DISPFlagOptimized)
!354 = !DISubprogram(name: "ip_header_length", linkageName: "_ZNK6Packet16ip_header_lengthEv", scope: !7, file: !6, line: 309, type: !273, scopeLine: 309, flags: DIFlagPublic | DIFlagPrototyped, spFlags: DISPFlagOptimized)
!355 = !DISubprogram(name: "set_ip_header", linkageName: "_ZN6Packet13set_ip_headerEPK8click_ipj", scope: !7, file: !6, line: 310, type: !356, scopeLine: 310, flags: DIFlagPublic | DIFlagPrototyped, spFlags: DISPFlagOptimized)
!356 = !DISubroutineType(types: !357)
!357 = !{null, !255, !351, !14}
!358 = !DISubprogram(name: "ip6_header", linkageName: "_ZNK6Packet10ip6_headerEv", scope: !7, file: !6, line: 312, type: !359, scopeLine: 312, flags: DIFlagPublic | DIFlagPrototyped, spFlags: DISPFlagOptimized)
!359 = !DISubroutineType(types: !360)
!360 = !{!361, !259}
!361 = !DIDerivedType(tag: DW_TAG_pointer_type, baseType: !362, size: 64)
!362 = !DIDerivedType(tag: DW_TAG_const_type, baseType: !194)
!363 = !DISubprogram(name: "ip6_header_offset", linkageName: "_ZNK6Packet17ip6_header_offsetEv", scope: !7, file: !6, line: 313, type: !318, scopeLine: 313, flags: DIFlagPublic | DIFlagPrototyped, spFlags: DISPFlagOptimized)
!364 = !DISubprogram(name: "ip6_header_length", linkageName: "_ZNK6Packet17ip6_header_lengthEv", scope: !7, file: !6, line: 314, type: !273, scopeLine: 314, flags: DIFlagPublic | DIFlagPrototyped, spFlags: DISPFlagOptimized)
!365 = !DISubprogram(name: "set_ip6_header", linkageName: "_ZN6Packet14set_ip6_headerEPK9click_ip6", scope: !7, file: !6, line: 315, type: !366, scopeLine: 315, flags: DIFlagPublic | DIFlagPrototyped, spFlags: DISPFlagOptimized)
!366 = !DISubroutineType(types: !367)
!367 = !{null, !255, !361}
!368 = !DISubprogram(name: "set_ip6_header", linkageName: "_ZN6Packet14set_ip6_headerEPK9click_ip6j", scope: !7, file: !6, line: 316, type: !369, scopeLine: 316, flags: DIFlagPublic | DIFlagPrototyped, spFlags: DISPFlagOptimized)
!369 = !DISubroutineType(types: !370)
!370 = !{null, !255, !361, !14}
!371 = !DISubprogram(name: "icmp_header", linkageName: "_ZNK6Packet11icmp_headerEv", scope: !7, file: !6, line: 318, type: !372, scopeLine: 318, flags: DIFlagPublic | DIFlagPrototyped, spFlags: DISPFlagOptimized)
!372 = !DISubroutineType(types: !373)
!373 = !{!374, !259}
!374 = !DIDerivedType(tag: DW_TAG_pointer_type, baseType: !375, size: 64)
!375 = !DIDerivedType(tag: DW_TAG_const_type, baseType: !200)
!376 = !DISubprogram(name: "tcp_header", linkageName: "_ZNK6Packet10tcp_headerEv", scope: !7, file: !6, line: 319, type: !377, scopeLine: 319, flags: DIFlagPublic | DIFlagPrototyped, spFlags: DISPFlagOptimized)
!377 = !DISubroutineType(types: !378)
!378 = !{!379, !259}
!379 = !DIDerivedType(tag: DW_TAG_pointer_type, baseType: !380, size: 64)
!380 = !DIDerivedType(tag: DW_TAG_const_type, baseType: !205)
!381 = !DISubprogram(name: "udp_header", linkageName: "_ZNK6Packet10udp_headerEv", scope: !7, file: !6, line: 320, type: !382, scopeLine: 320, flags: DIFlagPublic | DIFlagPrototyped, spFlags: DISPFlagOptimized)
!382 = !DISubroutineType(types: !383)
!383 = !{!384, !259}
!384 = !DIDerivedType(tag: DW_TAG_pointer_type, baseType: !385, size: 64)
!385 = !DIDerivedType(tag: DW_TAG_const_type, baseType: !210)
!386 = !DISubprogram(name: "xanno", linkageName: "_ZNK6Packet5xannoEv", scope: !7, file: !6, line: 340, type: !387, scopeLine: 340, flags: DIFlagPrototyped, spFlags: DISPFlagOptimized)
!387 = !DISubroutineType(types: !388)
!388 = !{!389, !259}
!389 = !DIDerivedType(tag: DW_TAG_pointer_type, baseType: !390, size: 64)
!390 = !DIDerivedType(tag: DW_TAG_const_type, baseType: !91)
!391 = !DISubprogram(name: "xanno", linkageName: "_ZN6Packet5xannoEv", scope: !7, file: !6, line: 341, type: !392, scopeLine: 341, flags: DIFlagPrototyped, spFlags: DISPFlagOptimized)
!392 = !DISubroutineType(types: !393)
!393 = !{!394, !255}
!394 = !DIDerivedType(tag: DW_TAG_pointer_type, baseType: !91, size: 64)
!395 = !DISubprogram(name: "timestamp_anno", linkageName: "_ZNK6Packet14timestamp_annoEv", scope: !7, file: !6, line: 354, type: !396, scopeLine: 354, flags: DIFlagPublic | DIFlagPrototyped, spFlags: DISPFlagOptimized)
!396 = !DISubroutineType(types: !397)
!397 = !{!398, !259}
!398 = !DIDerivedType(tag: DW_TAG_reference_type, baseType: !399, size: 64)
!399 = !DIDerivedType(tag: DW_TAG_const_type, baseType: !400)
!400 = distinct !DICompositeType(tag: DW_TAG_class_type, name: "Timestamp", file: !401, line: 122, size: 64, flags: DIFlagTypePassByValue | DIFlagNonTrivial, elements: !402, identifier: "_ZTS9Timestamp")
!401 = !DIFile(filename: "../dummy_inc/click/timestamp.hh", directory: "/home/john/projects/click/ir-dir")
