; ModuleID = '../elements/tcpudp/myrewriter.cc'
source_filename = "../elements/tcpudp/myrewriter.cc"
target datalayout = "e-m:e-p270:32:32-p271:32:32-p272:64:64-i64:64-f80:128-n8:16:32:64-S128"
target triple = "x86_64-pc-linux-gnu"

%class.MyIPRewriter = type <{ %class.TCPRewriter.base, [4 x i8], %class.Vector.24, %class.HashMap, %class.HashMap, %class.HashContainer, %class.SizedHashAllocator.27, [2 x i32], i32, [4 x i8] }>
%class.TCPRewriter.base = type <{ %class.IPRewriterBase, %class.SizedHashAllocator, i32, i32, i32 }>
%class.IPRewriterBase = type { %class.Element.base, %class.HashContainer, %class.Vector.13, %class.IPRewriterHeap*, [2 x i32], i32, %class.Timer }
%class.Element.base = type <{ i32 (...)**, [2 x %"class.Element::Port"*], [4 x %"class.Element::Port"], [2 x i32], %class.Router*, i32 }>
%"class.Element::Port" = type <{ %class.Element*, i32, [4 x i8] }>
%class.Element = type <{ i32 (...)**, [2 x %"class.Element::Port"*], [4 x %"class.Element::Port"], [2 x i32], %class.Router*, i32, [4 x i8] }>
%class.Router = type { %class.Master*, %class.atomic_uint32_t, i32, i8, i32, %class.atomic_uint32_t, %class.Vector, %class.Vector.0, %class.Vector.0, %class.Vector.2, %class.Vector.5, %class.Vector.6, i32, %class.Vector.5, [2 x %class.Vector.5], %class.Vector.5, %class.Vector.8, %class.Vector.5, %class.Vector.0, %class.Vector.5, %class.Vector.5, %class.Vector.5, %class.Vector.5, %class.Handler**, i32, i32, %class.Vector.0, %class.Vector.12, %class.Element*, %class.String, %"struct.Router::notifier_signals_t"*, %class.HashMap_ArenaFactory*, %class.Router*, %class.ThreadSched*, %class.NameInfo*, %class.Vector.5, %class.Vector.0, %class.Router* }
%class.Master = type opaque
%class.atomic_uint32_t = type { i32 }
%class.Vector = type { %class.vector_memory }
%class.vector_memory = type { %struct.char_array*, i32, i32 }
%struct.char_array = type { [8 x i8] }
%class.Vector.2 = type { %class.vector_memory.3 }
%class.vector_memory.3 = type { %struct.char_array.4*, i32, i32 }
%struct.char_array.4 = type opaque
%class.Vector.6 = type { %class.vector_memory.7 }
%class.vector_memory.7 = type { %"struct.Router::element_landmark_t"*, i32, i32 }
%"struct.Router::element_landmark_t" = type { i32, %class.String }
%class.Vector.8 = type { %class.vector_memory.9 }
%class.vector_memory.9 = type { %struct.char_array.10*, i32, i32 }
%struct.char_array.10 = type { [16 x i8] }
%class.Handler = type <{ %class.String, %union.anon, %union.anon.11, i8*, i8*, i32, i32, i32, [4 x i8] }>
%union.anon = type { i32 (i32, %class.String*, %class.Element*, %class.Handler*, %class.ErrorHandler*)* }
%class.ErrorHandler = type <{ i32 (...)**, i32, [4 x i8] }>
%union.anon.11 = type { i32 (i32, %class.String*, %class.Element*, %class.Handler*, %class.ErrorHandler*)* }
%class.Vector.12 = type { %class.vector_memory }
%class.String = type { %"struct.String::rep_t" }
%"struct.String::rep_t" = type { i8*, i32, %"struct.String::memo_t"* }
%"struct.String::memo_t" = type { i32, i32, i32, [8 x i8] }
%"struct.Router::notifier_signals_t" = type { %class.String, i32, [128 x %class.atomic_uint32_t], %"struct.Router::notifier_signals_t"* }
%class.HashMap_ArenaFactory = type { i32 (...)**, [2 x %class.HashMap_Arena**], [2 x i32] }
%class.HashMap_Arena = type <{ %"struct.HashMap_Arena::Link"*, i8*, i32, i32, i8**, i32, i32, i32, i8, [3 x i8] }>
%"struct.HashMap_Arena::Link" = type { %"struct.HashMap_Arena::Link"* }
%class.ThreadSched = type { i32 (...)** }
%class.NameInfo = type opaque
%class.Vector.5 = type { %class.vector_memory.3 }
%class.Vector.0 = type { %class.vector_memory.1 }
%class.vector_memory.1 = type { %class.String*, i32, i32 }
%class.Vector.13 = type { %class.vector_memory.14 }
%class.vector_memory.14 = type { %struct.char_array.15*, i32, i32 }
%struct.char_array.15 = type opaque
%class.IPRewriterHeap = type { [2 x %class.Vector.16], i32, i32 }
%class.Vector.16 = type { %class.vector_memory }
%class.Timer = type { i32, %class.Timestamp, %union.anon.17, i8*, %class.Element*, %class.RouterThread* }
%class.Timestamp = type { %"union.Timestamp::rep_t" }
%"union.Timestamp::rep_t" = type { i64 }
%union.anon.17 = type { void (%class.Timer*, i8*)* }
%class.RouterThread = type { %struct.TaskLink, i8, [7 x i8], %class.TimerSet, %class.SelectSet, [32 x i8], %class.Spinlock, %class.atomic_uint32_t, %class.atomic_uint32_t, %"union.Task::Pending", %"union.Task::Pending"*, %class.SpinlockIRQ, [31 x i8], %class.Master*, i32, i8, i32, i32, [40 x i8] }
%struct.TaskLink = type <{ %struct.TaskLink*, %struct.TaskLink*, i32, [4 x i8] }>
%class.TimerSet = type <{ %class.Timestamp, i32, i32, i32, [4 x i8], %class.Vector.18, %class.Vector.19, %class.SimpleSpinlock, [7 x i8], %class.Timestamp, i32, [4 x i8] }>
%class.Vector.18 = type { %class.vector_memory.9 }
%class.Vector.19 = type { %class.vector_memory }
%class.SimpleSpinlock = type { i8 }
%class.SelectSet = type { [2 x i32], i8, %class.Vector.20, %class.Vector.21 }
%class.Vector.20 = type { %class.vector_memory }
%class.Vector.21 = type { %class.vector_memory.22 }
%class.vector_memory.22 = type { %struct.char_array.23*, i32, i32 }
%struct.char_array.23 = type opaque
%class.Spinlock = type { i8 }
%"union.Task::Pending" = type { %class.Task* }
%class.Task = type { %struct.TaskLink.base, i32, i32, %"union.Task::Status", i1 (%class.Task*, i8*)*, i8*, %class.RouterThread*, %class.Element*, %"union.Task::Pending" }
%struct.TaskLink.base = type <{ %struct.TaskLink*, %struct.TaskLink*, i32 }>
%"union.Task::Status" = type { i32 }
%class.SpinlockIRQ = type { i8 }
%class.SizedHashAllocator = type { %class.HashAllocator }
%class.HashAllocator = type { %"struct.HashAllocator::link"*, %"struct.HashAllocator::buffer"*, i64 }
%"struct.HashAllocator::link" = type { %"struct.HashAllocator::link"* }
%"struct.HashAllocator::buffer" = type { %"struct.HashAllocator::buffer"*, i64, i64 }
%class.Vector.24 = type { %class.vector_memory.25 }
%class.vector_memory.25 = type { %struct.char_array.26*, i32, i32 }
%struct.char_array.26 = type { [40 x i8] }
%class.HashMap = type { %"struct.HashMap<IPFlowID, MyIPRewriterEntry>::Elt"**, i64, %class.MyIPRewriterEntry, i64, i64, %class.HashMap_Arena* }
%"struct.HashMap<IPFlowID, MyIPRewriterEntry>::Elt" = type { %"struct.HashMap<IPFlowID, MyIPRewriterEntry>::Pair", %"struct.HashMap<IPFlowID, MyIPRewriterEntry>::Elt"* }
%"struct.HashMap<IPFlowID, MyIPRewriterEntry>::Pair" = type { %class.IPFlowID, %class.MyIPRewriterEntry }
%class.IPFlowID = type { %class.IPAddress, %class.IPAddress, i16, i16 }
%class.IPAddress = type { i32 }
%class.MyIPRewriterEntry = type { %class.IPFlowID, %class.IPFlowID, i32 }
%class.HashContainer = type { %class.HashContainer_rep }
%class.HashContainer_rep = type { %class.IPRewriterEntry**, i32, i32, i64, %struct.libdivide_u32_t }
%class.IPRewriterEntry = type { %class.IPFlowID, [3 x i8], i8, %class.IPRewriterEntry* }
%struct.libdivide_u32_t = type { i32, i8 }
%class.SizedHashAllocator.27 = type { %class.HashAllocator }
%class.TCPRewriter = type <{ %class.IPRewriterBase, %class.SizedHashAllocator, i32, i32, i32, [4 x i8] }>
%class.Args = type { %class.ArgContext.base, i8, i8, i8, %class.Vector.0*, %class.Vector.5, %"struct.Args::Slot"*, [48 x i8] }
%class.ArgContext.base = type <{ %class.Element*, %class.ErrorHandler*, i8*, i8 }>
%"struct.Args::Slot" = type { i32 (...)**, %"struct.Args::Slot"* }
%class.MyInputSpec = type { i32, i32, i32, %class.MyRewriterPattern, i32 }
%class.MyRewriterPattern = type <{ %class.IPAddress, i32, %class.IPAddress, i32, i32, i8, [3 x i8] }>
%class.IPRewriterInput = type { %class.IPRewriterBase*, i32, i32, i32, %class.IPRewriterBase*, i32, i32, i32, %union.anon.28 }
%union.anon.28 = type { %class.IPRewriterPattern* }
%class.IPRewriterPattern = type { %class.IPAddress, i32, %class.IPAddress, i32, i32, i32, i8, i8, i8, i32 }
%class.WritablePacket = type { %class.Packet }
%class.Packet = type { %class.atomic_uint32_t, %class.Packet*, i8*, i8*, i8*, i8*, %"struct.Packet::AllAnno", void (i8*, i64, i8*)*, i8* }
%"struct.Packet::AllAnno" = type { %"union.Packet::Anno", i8*, i8*, i8*, i32, [8 x i8], %class.Packet*, %class.Packet* }
%"union.Packet::Anno" = type { [6 x i64] }
%struct.click_ip = type { i8, i8, i16, i16, i16, i8, i8, i16, %struct.in_addr, %struct.in_addr }
%struct.in_addr = type { i32 }
%class.StringAccum = type { %"struct.StringAccum::rep_t" }
%"struct.StringAccum::rep_t" = type { i8*, i32, i32 }
%class.HashContainer_iterator = type { %class.HashContainer_const_iterator }
%class.HashContainer_const_iterator = type { %class.IPRewriterEntry*, %class.IPRewriterEntry**, i32, %class.HashContainer* }
%class.IPRewriterFlow = type { [2 x %class.IPRewriterEntry], i16, i16, i32, i32, i8, i8, i8, i8, %class.IPRewriterInput* }
%struct.uninitialized_type = type { i8 }
%"struct.TCPRewriter::TCPFlow::delta_transition" = type { [2 x i32], [2 x i32], i64 }
%class.SecondsArg = type { i32, i32 }
%class.ArgContext = type <{ %class.Element*, %class.ErrorHandler*, i8*, i8, [7 x i8] }>

$_ZN7HashMapI8IPFlowID17MyIPRewriterEntryE6insertERKS0_RKS1_ = comdat any

$_ZNK7Element19checked_output_pushEiP6Packet = comdat any

$_ZNK7HashMapI8IPFlowID17MyIPRewriterEntryE5findpERKS0_ = comdat any

$_ZNK12MyIPRewriter10class_nameEv = comdat any

$_ZNK14IPRewriterBase10port_countEv = comdat any

$_ZNK14IPRewriterBase10processingEv = comdat any

$_ZNK14IPRewriterBase15configure_phaseEv = comdat any

$_ZN12MyIPRewriter7get_mapEi = comdat any

$_ZN12MyIPRewriter9get_entryEiRK8IPFlowIDi = comdat any

$_ZN12MyIPRewriter12destroy_flowEP14IPRewriterFlow = comdat any

$_ZN12MyIPRewriter18best_effort_expiryEPK14IPRewriterFlow = comdat any

$__clang_call_terminate = comdat any

$_ZNK7Element8noutputsEv = comdat any

$_ZNK7Element4Port4pushEP6Packet = comdat any

$_ZNK13HashContainerI15IPRewriterEntry21HashContainer_adapterIS0_EE3getERK8IPFlowID = comdat any

$_ZNK13HashContainerI15IPRewriterEntry21HashContainer_adapterIS0_EE4findERK8IPFlowID = comdat any

$_ZNK28HashContainer_const_iteratorI15IPRewriterEntry21HashContainer_adapterIS0_EE3getEv = comdat any

$_ZN14IPRewriterBase10unmap_flowEP14IPRewriterFlowR13HashContainerI15IPRewriterEntry21HashContainer_adapterIS3_EEPS6_ = comdat any

$_Z14args_base_readI10SecondsArgjEvP4ArgsPKciT_RT0_ = comdat any

$_ZN4Args9base_readI10SecondsArgjEEvPKciT_RT0_ = comdat any

$_ZNK6String6lengthEv = comdat any

$_ZN13vector_memoryI18sized_array_memoryILm40EEE21reserve_and_push_backEiPK10char_arrayILm40EE = comdat any

$_ZN7HashMapI8IPFlowID17MyIPRewriterEntryE7resize0Em = comdat any

$_ZNK7HashMapI8IPFlowID17MyIPRewriterEntryE9find_pairERKS0_ = comdat any

@_ZTV12MyIPRewriter = dso_local unnamed_addr constant { [34 x i8*] } { [34 x i8*] [i8* null, i8* bitcast ({ i8*, i8*, i8* }* @_ZTI12MyIPRewriter to i8*), i8* bitcast (void (%class.MyIPRewriter*)* @_ZN12MyIPRewriterD2Ev to i8*), i8* bitcast (void (%class.MyIPRewriter*)* @_ZN12MyIPRewriterD0Ev to i8*), i8* bitcast (void (%class.MyIPRewriter*, i32, %class.Packet*)* @_ZN12MyIPRewriter4pushEiP6Packet to i8*), i8* bitcast (%class.Packet* (%class.Element*, i32)* @_ZN7Element4pullEi to i8*), i8* bitcast (%class.Packet* (%class.Element*, %class.Packet*)* @_ZN7Element13simple_actionEP6Packet to i8*), i8* bitcast (i1 (%class.Element*, %class.Task*)* @_ZN7Element8run_taskEP4Task to i8*), i8* bitcast (void (%class.Element*, %class.Timer*)* @_ZN7Element9run_timerEP5Timer to i8*), i8* bitcast (void (%class.Element*, i32, i32)* @_ZN7Element8selectedEii to i8*), i8* bitcast (void (%class.Element*, i32)* @_ZN7Element8selectedEi to i8*), i8* bitcast (i8* (%class.MyIPRewriter*)* @_ZNK12MyIPRewriter10class_nameEv to i8*), i8* bitcast (i8* (%class.IPRewriterBase*)* @_ZNK14IPRewriterBase10port_countEv to i8*), i8* bitcast (i8* (%class.IPRewriterBase*)* @_ZNK14IPRewriterBase10processingEv to i8*), i8* bitcast (i8* (%class.Element*)* @_ZNK7Element9flow_codeEv to i8*), i8* bitcast (i8* (%class.Element*)* @_ZNK7Element5flagsEv to i8*), i8* bitcast (i8* (%class.MyIPRewriter*, i8*)* @_ZN12MyIPRewriter4castEPKc to i8*), i8* bitcast (i8* (%class.Element*, i1, i32, i8*)* @_ZN7Element9port_castEbiPKc to i8*), i8* bitcast (i32 (%class.IPRewriterBase*)* @_ZNK14IPRewriterBase15configure_phaseEv to i8*), i8* bitcast (i32 (%class.MyIPRewriter*, %class.Vector.0*, %class.ErrorHandler*)* @_ZN12MyIPRewriter9configureER6VectorI6StringEP12ErrorHandler to i8*), i8* bitcast (void (%class.MyIPRewriter*)* @_ZN12MyIPRewriter12add_handlersEv to i8*), i8* bitcast (i32 (%class.IPRewriterBase*, %class.ErrorHandler*)* @_ZN14IPRewriterBase10initializeEP12ErrorHandler to i8*), i8* bitcast (void (%class.Element*, %class.Element*, %class.ErrorHandler*)* @_ZN7Element10take_stateEPS_P12ErrorHandler to i8*), i8* bitcast (%class.Element* (%class.Element*)* @_ZNK7Element15hotswap_elementEv to i8*), i8* bitcast (void (%class.IPRewriterBase*, i32)* @_ZN14IPRewriterBase7cleanupEN7Element12CleanupStageE to i8*), i8* bitcast (void (%class.String*, %class.Element*)* @_ZNK7Element11declarationEv to i8*), i8* bitcast (i1 (%class.Element*)* @_ZNK7Element20can_live_reconfigureEv to i8*), i8* bitcast (i32 (%class.Element*, %class.Vector.0*, %class.ErrorHandler*)* @_ZN7Element16live_reconfigureER6VectorI6StringEP12ErrorHandler to i8*), i8* bitcast (i32 (%class.IPRewriterBase*, i32, i8*)* @_ZN14IPRewriterBase5llrpcEjPv to i8*), i8* bitcast (%class.HashContainer* (%class.MyIPRewriter*, i32)* @_ZN12MyIPRewriter7get_mapEi to i8*), i8* bitcast (%class.IPRewriterEntry* (%class.MyIPRewriter*, i32, %class.IPFlowID*, i32)* @_ZN12MyIPRewriter9get_entryEiRK8IPFlowIDi to i8*), i8* bitcast (%class.IPRewriterEntry* (%class.TCPRewriter*, i32, %class.IPFlowID*, %class.IPFlowID*, i32)* @_ZN11TCPRewriter8add_flowEiRK8IPFlowIDS2_i to i8*), i8* bitcast (void (%class.MyIPRewriter*, %class.IPRewriterFlow*)* @_ZN12MyIPRewriter12destroy_flowEP14IPRewriterFlow to i8*), i8* bitcast (i32 (%class.MyIPRewriter*, %class.IPRewriterFlow*)* @_ZN12MyIPRewriter18best_effort_expiryEPK14IPRewriterFlow to i8*)] }, align 8
@.str = private unnamed_addr constant [15 x i8] c"IPRewriterBase\00", align 1
@.str.1 = private unnamed_addr constant [12 x i8] c"TCPRewriter\00", align 1
@.str.2 = private unnamed_addr constant [13 x i8] c"MyIPRewriter\00", align 1
@.str.3 = private unnamed_addr constant [12 x i8] c"UDP_TIMEOUT\00", align 1
@.str.4 = private unnamed_addr constant [22 x i8] c"UDP_STREAMING_TIMEOUT\00", align 1
@.str.5 = private unnamed_addr constant [14 x i8] c"UDP_GUARANTEE\00", align 1
@.str.6 = private unnamed_addr constant [22 x i8] c"input_spec: %d %d %d\0A\00", align 1
@.str.8 = private unnamed_addr constant [24 x i8] c"p->has_network_header()\00", align 1
@.str.9 = private unnamed_addr constant [33 x i8] c"../elements/tcpudp/myrewriter.cc\00", align 1
@__PRETTY_FUNCTION__._ZN12MyIPRewriter14tcp_flow_applyERK17MyIPRewriterEntryP14WritablePacket = private unnamed_addr constant [79 x i8] c"void MyIPRewriter::tcp_flow_apply(const MyIPRewriterEntry &, WritablePacket *)\00", align 1
@__PRETTY_FUNCTION__._ZN12MyIPRewriter14udp_flow_applyERK17MyIPRewriterEntryP14WritablePacket = private unnamed_addr constant [79 x i8] c"void MyIPRewriter::udp_flow_apply(const MyIPRewriterEntry &, WritablePacket *)\00", align 1
@.str.10 = private unnamed_addr constant [10 x i8] c"tcp_table\00", align 1
@.str.11 = private unnamed_addr constant [10 x i8] c"udp_table\00", align 1
@.str.12 = private unnamed_addr constant [13 x i8] c"tcp_mappings\00", align 1
@.str.13 = private unnamed_addr constant [13 x i8] c"udp_mappings\00", align 1
@.str.14 = private unnamed_addr constant [11 x i8] c"tcp_lookup\00", align 1
@_ZTVN10__cxxabiv120__si_class_type_infoE = external global i8*
@_ZTS12MyIPRewriter = dso_local constant [15 x i8] c"12MyIPRewriter\00", align 1
@_ZTI11TCPRewriter = external constant i8*
@_ZTI12MyIPRewriter = dso_local constant { i8*, i8*, i8* } { i8* bitcast (i8** getelementptr inbounds (i8*, i8** @_ZTVN10__cxxabiv120__si_class_type_infoE, i64 2) to i8*), i8* getelementptr inbounds ([15 x i8], [15 x i8]* @_ZTS12MyIPRewriter, i32 0, i32 0), i8* bitcast (i8** @_ZTI11TCPRewriter to i8*) }, align 8
@.str.15 = private unnamed_addr constant [8 x i8] c"_e && p\00", align 1
@.str.16 = private unnamed_addr constant [30 x i8] c"../dummy_inc/click/element.hh\00", align 1
@__PRETTY_FUNCTION__._ZNK7Element4Port4pushEP6Packet = private unnamed_addr constant [41 x i8] c"void Element::Port::push(Packet *) const\00", align 1
@_ZN6String9null_dataE = external constant i8, align 1
@.str.17 = private unnamed_addr constant [6 x i8] c"1-/1-\00", align 1
@_ZN7Element4PUSHE = external constant [0 x i8], align 1
@.str.22 = private unnamed_addr constant [30 x i8] c"../dummy_inc/click/hashmap.cc\00", align 1
@.str.23 = private unnamed_addr constant [18 x i8] c"_r.memo->refcount\00", align 1
@.str.24 = private unnamed_addr constant [29 x i8] c"../dummy_inc/click/string.hh\00", align 1
@__PRETTY_FUNCTION__._ZNK6String5derefEv = private unnamed_addr constant [27 x i8] c"void String::deref() const\00", align 1
@.str.25 = private unnamed_addr constant [49 x i8] c"new_nbuckets > 0 && new_nbuckets <= MAX_NBUCKETS\00", align 1
@__PRETTY_FUNCTION__._ZN7HashMapI8IPFlowID17MyIPRewriterEntryE6resizeEm = private unnamed_addr constant [96 x i8] c"void HashMap<IPFlowID, MyIPRewriterEntry>::resize(size_t) [K = IPFlowID, V = MyIPRewriterEntry]\00", align 1
@str = private unnamed_addr constant [7 x i8] c"======\00", align 1

@_ZN12MyIPRewriterC1Ev = dso_local unnamed_addr alias void (%class.MyIPRewriter*), void (%class.MyIPRewriter*)* @_ZN12MyIPRewriterC2Ev
@_ZN12MyIPRewriterD1Ev = dso_local unnamed_addr alias void (%class.MyIPRewriter*), void (%class.MyIPRewriter*)* @_ZN12MyIPRewriterD2Ev

; Function Attrs: sspstrong uwtable
define dso_local void @_ZN12MyIPRewriterC2Ev(%class.MyIPRewriter* %0) unnamed_addr #0 align 2 personality i8* bitcast (i32 (...)* @__gxx_personality_v0 to i8*) !dbg !3963 {
  call void @llvm.dbg.value(metadata %class.MyIPRewriter* %0, metadata !3965, metadata !DIExpression()), !dbg !3966
  %2 = bitcast %class.MyIPRewriter* %0 to %class.TCPRewriter*, !dbg !3967
  tail call void @_ZN11TCPRewriterC2Ev(%class.TCPRewriter* %2), !dbg !3968
  %3 = getelementptr %class.MyIPRewriter, %class.MyIPRewriter* %0, i64 0, i32 0, i32 0, i32 0, i32 0, !dbg !3967
  store i32 (...)** bitcast (i8** getelementptr inbounds ({ [34 x i8*] }, { [34 x i8*] }* @_ZTV12MyIPRewriter, i64 0, inrange i32 0, i64 2) to i32 (...)**), i32 (...)*** %3, align 8, !dbg !3967, !tbaa !3969
  %4 = getelementptr inbounds %class.MyIPRewriter, %class.MyIPRewriter* %0, i64 0, i32 2, !dbg !3968
  call void @llvm.dbg.value(metadata %class.Vector.24* %4, metadata !3972, metadata !DIExpression()), !dbg !3976
  call void @llvm.dbg.value(metadata %class.Vector.24* %4, metadata !3978, metadata !DIExpression()) #17, !dbg !3982
  %5 = bitcast %class.Vector.24* %4 to i8*, !dbg !3984
  tail call void @llvm.memset.p0i8.i64(i8* nonnull align 8 dereferenceable(16) %5, i8 0, i64 16, i1 false) #17, !dbg !3985
  %6 = getelementptr inbounds %class.MyIPRewriter, %class.MyIPRewriter* %0, i64 0, i32 3, !dbg !3968
  call void @llvm.dbg.value(metadata %class.HashMap* %6, metadata !3986, metadata !DIExpression()), !dbg !3990
  %7 = getelementptr inbounds %class.MyIPRewriter, %class.MyIPRewriter* %0, i64 0, i32 3, i32 2, !dbg !3992
  call void @llvm.dbg.value(metadata %class.MyIPRewriterEntry* %7, metadata !3993, metadata !DIExpression()), !dbg !4000
  call void @llvm.dbg.value(metadata %class.MyIPRewriterEntry* %7, metadata !4002, metadata !DIExpression()), !dbg !4005
  call void @llvm.dbg.value(metadata %class.MyIPRewriterEntry* %7, metadata !4007, metadata !DIExpression()), !dbg !4011
  call void @llvm.dbg.value(metadata %class.MyIPRewriterEntry* %7, metadata !4007, metadata !DIExpression(DW_OP_plus_uconst, 4, DW_OP_stack_value)), !dbg !4013
  call void @llvm.dbg.value(metadata %class.MyIPRewriterEntry* %7, metadata !4002, metadata !DIExpression(DW_OP_plus_uconst, 12, DW_OP_stack_value)), !dbg !4015
  call void @llvm.dbg.value(metadata %class.MyIPRewriterEntry* %7, metadata !4007, metadata !DIExpression(DW_OP_plus_uconst, 12, DW_OP_stack_value)), !dbg !4017
  call void @llvm.dbg.value(metadata %class.MyIPRewriterEntry* %7, metadata !4007, metadata !DIExpression(DW_OP_plus_uconst, 12, DW_OP_plus_uconst, 4, DW_OP_stack_value)), !dbg !4019
  %8 = getelementptr inbounds %class.MyIPRewriter, %class.MyIPRewriter* %0, i64 0, i32 3, i32 5, !dbg !4021
  store %class.HashMap_Arena* null, %class.HashMap_Arena** %8, align 8, !dbg !4021, !tbaa !4022
  call void @llvm.dbg.value(metadata %class.HashMap* %6, metadata !4032, metadata !DIExpression()), !dbg !4039
  call void @llvm.dbg.value(metadata %class.HashMap_ArenaFactory* null, metadata !4035, metadata !DIExpression()), !dbg !4039
  call void @llvm.dbg.value(metadata i64 127, metadata !4036, metadata !DIExpression()), !dbg !4039
  %9 = getelementptr inbounds %class.MyIPRewriter, %class.MyIPRewriter* %0, i64 0, i32 3, i32 1, !dbg !4042
  %10 = bitcast %class.MyIPRewriterEntry* %7 to i8*, !dbg !4043
  tail call void @llvm.memset.p0i8.i64(i8* nonnull align 4 dereferenceable(28) %10, i8 0, i64 28, i1 false), !dbg !4044
  store i64 127, i64* %9, align 8, !dbg !4043, !tbaa !4045
  %11 = invoke dereferenceable(1016) i8* @_Znam(i64 1016) #18
          to label %12 unwind label %106, !dbg !4046

12:                                               ; preds = %1
  %13 = getelementptr inbounds %class.HashMap, %class.HashMap* %6, i64 0, i32 0, !dbg !4047
  %14 = bitcast %class.HashMap* %6 to i8**, !dbg !4048
  store i8* %11, i8** %14, align 8, !dbg !4048, !tbaa !4049
  call void @llvm.dbg.value(metadata i64 0, metadata !4037, metadata !DIExpression()), !dbg !4050
  call void @llvm.dbg.value(metadata i64 0, metadata !4037, metadata !DIExpression()), !dbg !4050
  call void @llvm.dbg.value(metadata i64 1, metadata !4037, metadata !DIExpression()), !dbg !4050
  call void @llvm.dbg.value(metadata i64 2, metadata !4037, metadata !DIExpression()), !dbg !4050
  call void @llvm.memset.p0i8.i64(i8* nonnull align 8 dereferenceable(16) %11, i8 0, i64 16, i1 false), !dbg !4051
  call void @llvm.dbg.value(metadata i64 2, metadata !4037, metadata !DIExpression()), !dbg !4050
  %15 = getelementptr inbounds i8, i8* %11, i64 16, !dbg !4053
  %16 = bitcast i8* %15 to %"struct.HashMap<IPFlowID, MyIPRewriterEntry>::Elt"**, !dbg !4053
  store %"struct.HashMap<IPFlowID, MyIPRewriterEntry>::Elt"* null, %"struct.HashMap<IPFlowID, MyIPRewriterEntry>::Elt"** %16, align 8, !dbg !4051, !tbaa !4054
  call void @llvm.dbg.value(metadata i64 3, metadata !4037, metadata !DIExpression()), !dbg !4050
  br label %17, !dbg !4055

17:                                               ; preds = %17, %12
  %18 = phi i64 [ 3, %12 ], [ %30, %17 ]
  %19 = load %"struct.HashMap<IPFlowID, MyIPRewriterEntry>::Elt"**, %"struct.HashMap<IPFlowID, MyIPRewriterEntry>::Elt"*** %13, align 8, !dbg !4053, !tbaa !4049
  call void @llvm.dbg.value(metadata i64 %18, metadata !4037, metadata !DIExpression()), !dbg !4050
  %20 = getelementptr inbounds %"struct.HashMap<IPFlowID, MyIPRewriterEntry>::Elt"*, %"struct.HashMap<IPFlowID, MyIPRewriterEntry>::Elt"** %19, i64 %18, !dbg !4053
  store %"struct.HashMap<IPFlowID, MyIPRewriterEntry>::Elt"* null, %"struct.HashMap<IPFlowID, MyIPRewriterEntry>::Elt"** %20, align 8, !dbg !4051, !tbaa !4054
  %21 = add nuw nsw i64 %18, 1, !dbg !4056
  call void @llvm.dbg.value(metadata i64 %21, metadata !4037, metadata !DIExpression()), !dbg !4050
  %22 = load %"struct.HashMap<IPFlowID, MyIPRewriterEntry>::Elt"**, %"struct.HashMap<IPFlowID, MyIPRewriterEntry>::Elt"*** %13, align 8, !dbg !4053, !tbaa !4049
  %23 = getelementptr inbounds %"struct.HashMap<IPFlowID, MyIPRewriterEntry>::Elt"*, %"struct.HashMap<IPFlowID, MyIPRewriterEntry>::Elt"** %22, i64 %21, !dbg !4053
  store %"struct.HashMap<IPFlowID, MyIPRewriterEntry>::Elt"* null, %"struct.HashMap<IPFlowID, MyIPRewriterEntry>::Elt"** %23, align 8, !dbg !4051, !tbaa !4054
  %24 = add nuw nsw i64 %18, 2, !dbg !4056
  call void @llvm.dbg.value(metadata i64 %24, metadata !4037, metadata !DIExpression()), !dbg !4050
  %25 = load %"struct.HashMap<IPFlowID, MyIPRewriterEntry>::Elt"**, %"struct.HashMap<IPFlowID, MyIPRewriterEntry>::Elt"*** %13, align 8, !dbg !4053, !tbaa !4049
  %26 = getelementptr inbounds %"struct.HashMap<IPFlowID, MyIPRewriterEntry>::Elt"*, %"struct.HashMap<IPFlowID, MyIPRewriterEntry>::Elt"** %25, i64 %24, !dbg !4053
  store %"struct.HashMap<IPFlowID, MyIPRewriterEntry>::Elt"* null, %"struct.HashMap<IPFlowID, MyIPRewriterEntry>::Elt"** %26, align 8, !dbg !4051, !tbaa !4054
  %27 = add nuw nsw i64 %18, 3, !dbg !4056
  call void @llvm.dbg.value(metadata i64 %27, metadata !4037, metadata !DIExpression()), !dbg !4050
  %28 = load %"struct.HashMap<IPFlowID, MyIPRewriterEntry>::Elt"**, %"struct.HashMap<IPFlowID, MyIPRewriterEntry>::Elt"*** %13, align 8, !dbg !4053, !tbaa !4049
  %29 = getelementptr inbounds %"struct.HashMap<IPFlowID, MyIPRewriterEntry>::Elt"*, %"struct.HashMap<IPFlowID, MyIPRewriterEntry>::Elt"** %28, i64 %27, !dbg !4053
  store %"struct.HashMap<IPFlowID, MyIPRewriterEntry>::Elt"* null, %"struct.HashMap<IPFlowID, MyIPRewriterEntry>::Elt"** %29, align 8, !dbg !4051, !tbaa !4054
  %30 = add nuw nsw i64 %18, 4, !dbg !4056
  call void @llvm.dbg.value(metadata i64 %30, metadata !4037, metadata !DIExpression()), !dbg !4050
  %31 = icmp eq i64 %30, 127, !dbg !4057
  br i1 %31, label %32, label %17, !dbg !4055, !llvm.loop !4058

32:                                               ; preds = %17
  call void @llvm.dbg.value(metadata %class.HashMap* %6, metadata !4060, metadata !DIExpression()), !dbg !4064
  call void @llvm.dbg.value(metadata i1 true, metadata !4063, metadata !DIExpression()), !dbg !4064
  %33 = getelementptr inbounds %class.MyIPRewriter, %class.MyIPRewriter* %0, i64 0, i32 3, i32 3, !dbg !4066
  %34 = bitcast i64* %33 to <2 x i64>*, !dbg !4067
  store <2 x i64> <i64 0, i64 254>, <2 x i64>* %34, align 8, !dbg !4067
  call void @llvm.dbg.value(metadata %class.HashMap* %6, metadata !4068, metadata !DIExpression()), !dbg !4072
  call void @llvm.dbg.value(metadata %class.HashMap_ArenaFactory* null, metadata !4071, metadata !DIExpression()), !dbg !4072
  %35 = load %class.HashMap_Arena*, %class.HashMap_Arena** %8, align 8, !dbg !4074, !tbaa !4022
  %36 = icmp eq %class.HashMap_Arena* %35, null, !dbg !4074
  br i1 %36, label %44, label %37, !dbg !4076

37:                                               ; preds = %32
  call void @llvm.dbg.value(metadata %class.HashMap_Arena* %35, metadata !4077, metadata !DIExpression()) #17, !dbg !4080
  %38 = getelementptr inbounds %class.HashMap_Arena, %class.HashMap_Arena* %35, i64 0, i32 7, !dbg !4082
  %39 = load i32, i32* %38, align 8, !dbg !4083, !tbaa !4084
  %40 = add i32 %39, -1, !dbg !4083
  store i32 %40, i32* %38, align 8, !dbg !4083, !tbaa !4084
  %41 = icmp eq i32 %40, 0, !dbg !4087
  br i1 %41, label %42, label %44, !dbg !4089

42:                                               ; preds = %37
  tail call void @_ZN13HashMap_ArenaD1Ev(%class.HashMap_Arena* nonnull %35) #17, !dbg !4090
  %43 = bitcast %class.HashMap_Arena* %35 to i8*, !dbg !4090
  tail call void @_ZdlPv(i8* %43) #19, !dbg !4090
  br label %44, !dbg !4090

44:                                               ; preds = %42, %37, %32
  %45 = invoke %class.HashMap_Arena* @_ZN20HashMap_ArenaFactory9get_arenaEjPS_(i32 48, %class.HashMap_ArenaFactory* null)
          to label %46 unwind label %106, !dbg !4091

46:                                               ; preds = %44
  store %class.HashMap_Arena* %45, %class.HashMap_Arena** %8, align 8, !dbg !4092, !tbaa !4022
  call void @llvm.dbg.value(metadata %class.HashMap_Arena* %45, metadata !4093, metadata !DIExpression()), !dbg !4096
  %47 = getelementptr inbounds %class.HashMap_Arena, %class.HashMap_Arena* %45, i64 0, i32 7, !dbg !4098
  %48 = load i32, i32* %47, align 8, !dbg !4099, !tbaa !4084
  %49 = add i32 %48, 1, !dbg !4099
  store i32 %49, i32* %47, align 8, !dbg !4099, !tbaa !4084
  %50 = getelementptr inbounds %class.MyIPRewriter, %class.MyIPRewriter* %0, i64 0, i32 4, !dbg !3968
  call void @llvm.dbg.value(metadata %class.HashMap* %50, metadata !3986, metadata !DIExpression()), !dbg !4100
  %51 = getelementptr inbounds %class.MyIPRewriter, %class.MyIPRewriter* %0, i64 0, i32 4, i32 2, !dbg !4102
  call void @llvm.dbg.value(metadata %class.MyIPRewriterEntry* %51, metadata !3993, metadata !DIExpression()), !dbg !4103
  call void @llvm.dbg.value(metadata %class.MyIPRewriterEntry* %51, metadata !4002, metadata !DIExpression()), !dbg !4105
  call void @llvm.dbg.value(metadata %class.MyIPRewriterEntry* %51, metadata !4007, metadata !DIExpression()), !dbg !4107
  call void @llvm.dbg.value(metadata %class.MyIPRewriterEntry* %51, metadata !4007, metadata !DIExpression(DW_OP_plus_uconst, 4, DW_OP_stack_value)), !dbg !4109
  call void @llvm.dbg.value(metadata %class.MyIPRewriterEntry* %51, metadata !4002, metadata !DIExpression(DW_OP_plus_uconst, 12, DW_OP_stack_value)), !dbg !4111
  call void @llvm.dbg.value(metadata %class.MyIPRewriterEntry* %51, metadata !4007, metadata !DIExpression(DW_OP_plus_uconst, 12, DW_OP_stack_value)), !dbg !4113
  call void @llvm.dbg.value(metadata %class.MyIPRewriterEntry* %51, metadata !4007, metadata !DIExpression(DW_OP_plus_uconst, 12, DW_OP_plus_uconst, 4, DW_OP_stack_value)), !dbg !4115
  %52 = getelementptr inbounds %class.MyIPRewriter, %class.MyIPRewriter* %0, i64 0, i32 4, i32 5, !dbg !4117
  store %class.HashMap_Arena* null, %class.HashMap_Arena** %52, align 8, !dbg !4117, !tbaa !4022
  call void @llvm.dbg.value(metadata %class.HashMap* %50, metadata !4032, metadata !DIExpression()), !dbg !4118
  call void @llvm.dbg.value(metadata %class.HashMap_ArenaFactory* null, metadata !4035, metadata !DIExpression()), !dbg !4118
  call void @llvm.dbg.value(metadata i64 127, metadata !4036, metadata !DIExpression()), !dbg !4118
  %53 = getelementptr inbounds %class.MyIPRewriter, %class.MyIPRewriter* %0, i64 0, i32 4, i32 1, !dbg !4120
  %54 = bitcast %class.MyIPRewriterEntry* %51 to i8*, !dbg !4121
  tail call void @llvm.memset.p0i8.i64(i8* nonnull align 4 dereferenceable(28) %54, i8 0, i64 28, i1 false), !dbg !4122
  store i64 127, i64* %53, align 8, !dbg !4121, !tbaa !4045
  %55 = invoke dereferenceable(1016) i8* @_Znam(i64 1016) #18
          to label %56 unwind label %110, !dbg !4123

56:                                               ; preds = %46
  %57 = getelementptr inbounds %class.HashMap, %class.HashMap* %50, i64 0, i32 0, !dbg !4124
  %58 = bitcast %class.HashMap* %50 to i8**, !dbg !4125
  store i8* %55, i8** %58, align 8, !dbg !4125, !tbaa !4049
  call void @llvm.dbg.value(metadata i64 0, metadata !4037, metadata !DIExpression()), !dbg !4126
  call void @llvm.dbg.value(metadata i64 0, metadata !4037, metadata !DIExpression()), !dbg !4126
  call void @llvm.dbg.value(metadata i64 1, metadata !4037, metadata !DIExpression()), !dbg !4126
  call void @llvm.dbg.value(metadata i64 2, metadata !4037, metadata !DIExpression()), !dbg !4126
  call void @llvm.memset.p0i8.i64(i8* nonnull align 8 dereferenceable(16) %55, i8 0, i64 16, i1 false), !dbg !4127
  call void @llvm.dbg.value(metadata i64 2, metadata !4037, metadata !DIExpression()), !dbg !4126
  %59 = getelementptr inbounds i8, i8* %55, i64 16, !dbg !4128
  %60 = bitcast i8* %59 to %"struct.HashMap<IPFlowID, MyIPRewriterEntry>::Elt"**, !dbg !4128
  store %"struct.HashMap<IPFlowID, MyIPRewriterEntry>::Elt"* null, %"struct.HashMap<IPFlowID, MyIPRewriterEntry>::Elt"** %60, align 8, !dbg !4127, !tbaa !4054
  call void @llvm.dbg.value(metadata i64 3, metadata !4037, metadata !DIExpression()), !dbg !4126
  br label %61, !dbg !4129

61:                                               ; preds = %61, %56
  %62 = phi i64 [ 3, %56 ], [ %74, %61 ]
  %63 = load %"struct.HashMap<IPFlowID, MyIPRewriterEntry>::Elt"**, %"struct.HashMap<IPFlowID, MyIPRewriterEntry>::Elt"*** %57, align 8, !dbg !4128, !tbaa !4049
  call void @llvm.dbg.value(metadata i64 %62, metadata !4037, metadata !DIExpression()), !dbg !4126
  %64 = getelementptr inbounds %"struct.HashMap<IPFlowID, MyIPRewriterEntry>::Elt"*, %"struct.HashMap<IPFlowID, MyIPRewriterEntry>::Elt"** %63, i64 %62, !dbg !4128
  store %"struct.HashMap<IPFlowID, MyIPRewriterEntry>::Elt"* null, %"struct.HashMap<IPFlowID, MyIPRewriterEntry>::Elt"** %64, align 8, !dbg !4127, !tbaa !4054
  %65 = add nuw nsw i64 %62, 1, !dbg !4130
  call void @llvm.dbg.value(metadata i64 %65, metadata !4037, metadata !DIExpression()), !dbg !4126
  %66 = load %"struct.HashMap<IPFlowID, MyIPRewriterEntry>::Elt"**, %"struct.HashMap<IPFlowID, MyIPRewriterEntry>::Elt"*** %57, align 8, !dbg !4128, !tbaa !4049
  %67 = getelementptr inbounds %"struct.HashMap<IPFlowID, MyIPRewriterEntry>::Elt"*, %"struct.HashMap<IPFlowID, MyIPRewriterEntry>::Elt"** %66, i64 %65, !dbg !4128
  store %"struct.HashMap<IPFlowID, MyIPRewriterEntry>::Elt"* null, %"struct.HashMap<IPFlowID, MyIPRewriterEntry>::Elt"** %67, align 8, !dbg !4127, !tbaa !4054
  %68 = add nuw nsw i64 %62, 2, !dbg !4130
  call void @llvm.dbg.value(metadata i64 %68, metadata !4037, metadata !DIExpression()), !dbg !4126
  %69 = load %"struct.HashMap<IPFlowID, MyIPRewriterEntry>::Elt"**, %"struct.HashMap<IPFlowID, MyIPRewriterEntry>::Elt"*** %57, align 8, !dbg !4128, !tbaa !4049
  %70 = getelementptr inbounds %"struct.HashMap<IPFlowID, MyIPRewriterEntry>::Elt"*, %"struct.HashMap<IPFlowID, MyIPRewriterEntry>::Elt"** %69, i64 %68, !dbg !4128
  store %"struct.HashMap<IPFlowID, MyIPRewriterEntry>::Elt"* null, %"struct.HashMap<IPFlowID, MyIPRewriterEntry>::Elt"** %70, align 8, !dbg !4127, !tbaa !4054
  %71 = add nuw nsw i64 %62, 3, !dbg !4130
  call void @llvm.dbg.value(metadata i64 %71, metadata !4037, metadata !DIExpression()), !dbg !4126
  %72 = load %"struct.HashMap<IPFlowID, MyIPRewriterEntry>::Elt"**, %"struct.HashMap<IPFlowID, MyIPRewriterEntry>::Elt"*** %57, align 8, !dbg !4128, !tbaa !4049
  %73 = getelementptr inbounds %"struct.HashMap<IPFlowID, MyIPRewriterEntry>::Elt"*, %"struct.HashMap<IPFlowID, MyIPRewriterEntry>::Elt"** %72, i64 %71, !dbg !4128
  store %"struct.HashMap<IPFlowID, MyIPRewriterEntry>::Elt"* null, %"struct.HashMap<IPFlowID, MyIPRewriterEntry>::Elt"** %73, align 8, !dbg !4127, !tbaa !4054
  %74 = add nuw nsw i64 %62, 4, !dbg !4130
  call void @llvm.dbg.value(metadata i64 %74, metadata !4037, metadata !DIExpression()), !dbg !4126
  %75 = icmp eq i64 %74, 127, !dbg !4131
  br i1 %75, label %76, label %61, !dbg !4129, !llvm.loop !4132

76:                                               ; preds = %61
  call void @llvm.dbg.value(metadata %class.HashMap* %50, metadata !4060, metadata !DIExpression()), !dbg !4134
  call void @llvm.dbg.value(metadata i1 true, metadata !4063, metadata !DIExpression()), !dbg !4134
  %77 = getelementptr inbounds %class.MyIPRewriter, %class.MyIPRewriter* %0, i64 0, i32 4, i32 3, !dbg !4136
  %78 = bitcast i64* %77 to <2 x i64>*, !dbg !4137
  store <2 x i64> <i64 0, i64 254>, <2 x i64>* %78, align 8, !dbg !4137
  call void @llvm.dbg.value(metadata %class.HashMap* %50, metadata !4068, metadata !DIExpression()), !dbg !4138
  call void @llvm.dbg.value(metadata %class.HashMap_ArenaFactory* null, metadata !4071, metadata !DIExpression()), !dbg !4138
  %79 = load %class.HashMap_Arena*, %class.HashMap_Arena** %52, align 8, !dbg !4140, !tbaa !4022
  %80 = icmp eq %class.HashMap_Arena* %79, null, !dbg !4140
  br i1 %80, label %88, label %81, !dbg !4141

81:                                               ; preds = %76
  call void @llvm.dbg.value(metadata %class.HashMap_Arena* %79, metadata !4077, metadata !DIExpression()) #17, !dbg !4142
  %82 = getelementptr inbounds %class.HashMap_Arena, %class.HashMap_Arena* %79, i64 0, i32 7, !dbg !4144
  %83 = load i32, i32* %82, align 8, !dbg !4145, !tbaa !4084
  %84 = add i32 %83, -1, !dbg !4145
  store i32 %84, i32* %82, align 8, !dbg !4145, !tbaa !4084
  %85 = icmp eq i32 %84, 0, !dbg !4146
  br i1 %85, label %86, label %88, !dbg !4147

86:                                               ; preds = %81
  tail call void @_ZN13HashMap_ArenaD1Ev(%class.HashMap_Arena* nonnull %79) #17, !dbg !4148
  %87 = bitcast %class.HashMap_Arena* %79 to i8*, !dbg !4148
  tail call void @_ZdlPv(i8* %87) #19, !dbg !4148
  br label %88, !dbg !4148

88:                                               ; preds = %86, %81, %76
  %89 = invoke %class.HashMap_Arena* @_ZN20HashMap_ArenaFactory9get_arenaEjPS_(i32 48, %class.HashMap_ArenaFactory* null)
          to label %90 unwind label %110, !dbg !4149

90:                                               ; preds = %88
  store %class.HashMap_Arena* %89, %class.HashMap_Arena** %52, align 8, !dbg !4150, !tbaa !4022
  call void @llvm.dbg.value(metadata %class.HashMap_Arena* %89, metadata !4093, metadata !DIExpression()), !dbg !4151
  %91 = getelementptr inbounds %class.HashMap_Arena, %class.HashMap_Arena* %89, i64 0, i32 7, !dbg !4153
  %92 = load i32, i32* %91, align 8, !dbg !4154, !tbaa !4084
  %93 = add i32 %92, 1, !dbg !4154
  store i32 %93, i32* %91, align 8, !dbg !4154, !tbaa !4084
  call void @llvm.dbg.value(metadata %class.MyIPRewriter* %0, metadata !4155, metadata !DIExpression(DW_OP_plus_uconst, 432, DW_OP_stack_value)), !dbg !4161
  call void @llvm.dbg.value(metadata i32 0, metadata !4158, metadata !DIExpression()), !dbg !4161
  call void @llvm.dbg.value(metadata i32 1, metadata !4159, metadata !DIExpression()), !dbg !4163
  call void @llvm.dbg.value(metadata i32 1, metadata !4159, metadata !DIExpression()), !dbg !4163
  %94 = getelementptr inbounds %class.MyIPRewriter, %class.MyIPRewriter* %0, i64 0, i32 5, i32 0, i32 3, !dbg !4164
  store i64 0, i64* %94, align 8, !dbg !4165, !tbaa !4166
  %95 = getelementptr inbounds %class.MyIPRewriter, %class.MyIPRewriter* %0, i64 0, i32 5, i32 0, i32 1, !dbg !4170
  store i32 1, i32* %95, align 8, !dbg !4171, !tbaa !4172
  %96 = invoke dereferenceable(8) i8* @_Znam(i64 8) #18
          to label %97 unwind label %114, !dbg !4173

97:                                               ; preds = %90
  %98 = getelementptr inbounds %class.MyIPRewriter, %class.MyIPRewriter* %0, i64 0, i32 5, !dbg !4174
  call void @llvm.dbg.value(metadata %class.HashContainer* %98, metadata !4155, metadata !DIExpression()), !dbg !4161
  %99 = bitcast %class.HashContainer* %98 to i8**, !dbg !4175
  store i8* %96, i8** %99, align 8, !dbg !4175, !tbaa !4176
  %100 = getelementptr inbounds %class.MyIPRewriter, %class.MyIPRewriter* %0, i64 0, i32 5, i32 0, i32 2, !dbg !4177
  store i32 1, i32* %100, align 4, !dbg !4178, !tbaa !4179
  %101 = getelementptr inbounds %class.MyIPRewriter, %class.MyIPRewriter* %0, i64 0, i32 5, i32 0, i32 4, !dbg !4180
  %102 = bitcast %struct.libdivide_u32_t* %101 to i64*, !dbg !4180
  store i64 549755813888, i64* %102, align 8, !dbg !4180, !tbaa.struct !4181
  call void @llvm.dbg.value(metadata i32 0, metadata !4159, metadata !DIExpression()), !dbg !4163
  call void @llvm.dbg.value(metadata i64 0, metadata !4159, metadata !DIExpression()), !dbg !4163
  %103 = bitcast i8* %96 to %class.IPRewriterEntry**, !dbg !4184
  store %class.IPRewriterEntry* null, %class.IPRewriterEntry** %103, align 8, !dbg !4187, !tbaa !4054
  call void @llvm.dbg.value(metadata i64 0, metadata !4159, metadata !DIExpression(DW_OP_plus_uconst, 1, DW_OP_stack_value)), !dbg !4163
  call void @llvm.dbg.value(metadata %class.MyIPRewriter* %0, metadata !4188, metadata !DIExpression(DW_OP_plus_uconst, 464, DW_OP_stack_value)), !dbg !4192
  %104 = getelementptr inbounds %class.MyIPRewriter, %class.MyIPRewriter* %0, i64 0, i32 6, i32 0, !dbg !4194
  invoke void @_ZN13HashAllocatorC2Em(%class.HashAllocator* nonnull %104, i64 72)
          to label %105 unwind label %118, !dbg !4195

105:                                              ; preds = %97
  ret void, !dbg !4196

106:                                              ; preds = %44, %1
  %107 = landingpad { i8*, i32 }
          cleanup, !dbg !4196
  %108 = extractvalue { i8*, i32 } %107, 0, !dbg !4196
  %109 = extractvalue { i8*, i32 } %107, 1, !dbg !4196
  br label %275, !dbg !4196

110:                                              ; preds = %88, %46
  %111 = landingpad { i8*, i32 }
          cleanup, !dbg !4196
  %112 = extractvalue { i8*, i32 } %111, 0, !dbg !4196
  %113 = extractvalue { i8*, i32 } %111, 1, !dbg !4196
  br label %200, !dbg !4196

114:                                              ; preds = %90
  %115 = landingpad { i8*, i32 }
          cleanup, !dbg !4196
  %116 = extractvalue { i8*, i32 } %115, 0, !dbg !4196
  %117 = extractvalue { i8*, i32 } %115, 1, !dbg !4196
  br label %125, !dbg !4196

118:                                              ; preds = %97
  %119 = landingpad { i8*, i32 }
          cleanup, !dbg !4196
  %120 = extractvalue { i8*, i32 } %119, 0, !dbg !4196
  %121 = extractvalue { i8*, i32 } %119, 1, !dbg !4196
  call void @llvm.dbg.value(metadata %class.HashContainer* %98, metadata !4197, metadata !DIExpression()) #17, !dbg !4200
  %122 = load i8*, i8** %99, align 8, !dbg !4203, !tbaa !4176
  %123 = icmp eq i8* %122, null, !dbg !4203
  br i1 %123, label %125, label %124, !dbg !4203

124:                                              ; preds = %118
  tail call void @_ZdaPv(i8* nonnull %122) #19, !dbg !4203
  br label %125, !dbg !4203

125:                                              ; preds = %124, %118, %114
  %126 = phi i8* [ %116, %114 ], [ %120, %118 ], [ %120, %124 ], !dbg !4196
  %127 = phi i32 [ %117, %114 ], [ %121, %118 ], [ %121, %124 ], !dbg !4196
  call void @llvm.dbg.value(metadata %class.HashMap* %50, metadata !4205, metadata !DIExpression()) #17, !dbg !4217
  call void @llvm.dbg.value(metadata i64 0, metadata !4208, metadata !DIExpression()) #17, !dbg !4219
  %128 = load i64, i64* %53, align 8, !dbg !4220, !tbaa !4045
  %129 = icmp eq i64 %128, 0, !dbg !4221
  br i1 %129, label %130, label %132, !dbg !4222

130:                                              ; preds = %125
  %131 = load i8*, i8** %58, align 8, !dbg !4223, !tbaa !4049
  br label %161, !dbg !4222

132:                                              ; preds = %125
  %133 = load %"struct.HashMap<IPFlowID, MyIPRewriterEntry>::Elt"**, %"struct.HashMap<IPFlowID, MyIPRewriterEntry>::Elt"*** %57, align 8, !dbg !4224, !tbaa !4049
  %134 = and i64 %128, 1, !dbg !4222
  %135 = icmp eq i64 %128, 1, !dbg !4222
  br i1 %135, label %138, label %136, !dbg !4222

136:                                              ; preds = %132
  %137 = sub i64 %128, %134, !dbg !4222
  br label %164, !dbg !4222

138:                                              ; preds = %317, %132
  %139 = phi i64 [ 0, %132 ], [ %318, %317 ]
  %140 = icmp eq i64 %134, 0, !dbg !4225
  br i1 %140, label %159, label %141, !dbg !4225

141:                                              ; preds = %138
  call void @llvm.dbg.value(metadata i64 %139, metadata !4208, metadata !DIExpression()) #17, !dbg !4219
  %142 = getelementptr inbounds %"struct.HashMap<IPFlowID, MyIPRewriterEntry>::Elt"*, %"struct.HashMap<IPFlowID, MyIPRewriterEntry>::Elt"** %133, i64 %139, !dbg !4226
  %143 = load %"struct.HashMap<IPFlowID, MyIPRewriterEntry>::Elt"*, %"struct.HashMap<IPFlowID, MyIPRewriterEntry>::Elt"** %142, align 8, !dbg !4226, !tbaa !4054
  call void @llvm.dbg.value(metadata %"struct.HashMap<IPFlowID, MyIPRewriterEntry>::Elt"* %143, metadata !4211, metadata !DIExpression()) #17, !dbg !4224
  %144 = icmp eq %"struct.HashMap<IPFlowID, MyIPRewriterEntry>::Elt"* %143, null, !dbg !4227
  br i1 %144, label %159, label %145, !dbg !4225

145:                                              ; preds = %141
  %146 = load %class.HashMap_Arena*, %class.HashMap_Arena** %52, align 8, !dbg !4228, !tbaa !4022
  %147 = bitcast %class.HashMap_Arena* %146 to i64*, !dbg !4229
  %148 = load i64, i64* %147, align 8, !dbg !4236, !tbaa !4237
  br label %149, !dbg !4225

149:                                              ; preds = %149, %145
  %150 = phi i64 [ %148, %145 ], [ %156, %149 ], !dbg !4236
  %151 = phi %"struct.HashMap<IPFlowID, MyIPRewriterEntry>::Elt"* [ %143, %145 ], [ %153, %149 ]
  call void @llvm.dbg.value(metadata %"struct.HashMap<IPFlowID, MyIPRewriterEntry>::Elt"* %151, metadata !4211, metadata !DIExpression()) #17, !dbg !4224
  %152 = getelementptr inbounds %"struct.HashMap<IPFlowID, MyIPRewriterEntry>::Elt", %"struct.HashMap<IPFlowID, MyIPRewriterEntry>::Elt"* %151, i64 0, i32 1, !dbg !4238
  %153 = load %"struct.HashMap<IPFlowID, MyIPRewriterEntry>::Elt"*, %"struct.HashMap<IPFlowID, MyIPRewriterEntry>::Elt"** %152, align 8, !dbg !4238, !tbaa !4239
  call void @llvm.dbg.value(metadata %"struct.HashMap<IPFlowID, MyIPRewriterEntry>::Elt"* %153, metadata !4214, metadata !DIExpression()) #17, !dbg !4228
  call void @llvm.dbg.value(metadata %class.HashMap_Arena* %146, metadata !4232, metadata !DIExpression()) #17, !dbg !4229
  call void @llvm.dbg.value(metadata %"struct.HashMap<IPFlowID, MyIPRewriterEntry>::Elt"* %151, metadata !4233, metadata !DIExpression()) #17, !dbg !4229
  call void @llvm.dbg.value(metadata %"struct.HashMap<IPFlowID, MyIPRewriterEntry>::Elt"* %151, metadata !4234, metadata !DIExpression()) #17, !dbg !4229
  %154 = bitcast %"struct.HashMap<IPFlowID, MyIPRewriterEntry>::Elt"* %151 to i64*, !dbg !4241
  store i64 %150, i64* %154, align 8, !dbg !4241, !tbaa !4242
  call void @llvm.dbg.value(metadata %"struct.HashMap<IPFlowID, MyIPRewriterEntry>::Elt"* %153, metadata !4211, metadata !DIExpression()) #17, !dbg !4224
  %155 = icmp eq %"struct.HashMap<IPFlowID, MyIPRewriterEntry>::Elt"* %153, null, !dbg !4227
  %156 = ptrtoint %"struct.HashMap<IPFlowID, MyIPRewriterEntry>::Elt"* %151 to i64, !dbg !4225
  br i1 %155, label %157, label %149, !dbg !4225, !llvm.loop !4244

157:                                              ; preds = %149
  call void @llvm.dbg.value(metadata %"struct.HashMap<IPFlowID, MyIPRewriterEntry>::Elt"* %151, metadata !4211, metadata !DIExpression()) #17, !dbg !4224
  call void @llvm.dbg.value(metadata %"struct.HashMap<IPFlowID, MyIPRewriterEntry>::Elt"* %151, metadata !4211, metadata !DIExpression()) #17, !dbg !4224
  call void @llvm.dbg.value(metadata %"struct.HashMap<IPFlowID, MyIPRewriterEntry>::Elt"* %151, metadata !4211, metadata !DIExpression()) #17, !dbg !4224
  call void @llvm.dbg.value(metadata %"struct.HashMap<IPFlowID, MyIPRewriterEntry>::Elt"* %151, metadata !4211, metadata !DIExpression()) #17, !dbg !4224
  %158 = bitcast %class.HashMap_Arena* %146 to %"struct.HashMap<IPFlowID, MyIPRewriterEntry>::Elt"**, !dbg !4229
  call void @llvm.dbg.value(metadata %"struct.HashMap<IPFlowID, MyIPRewriterEntry>::Elt"* %151, metadata !4211, metadata !DIExpression()) #17, !dbg !4224
  call void @llvm.dbg.value(metadata %"struct.HashMap<IPFlowID, MyIPRewriterEntry>::Elt"* %151, metadata !4211, metadata !DIExpression()) #17, !dbg !4224
  store %"struct.HashMap<IPFlowID, MyIPRewriterEntry>::Elt"* %151, %"struct.HashMap<IPFlowID, MyIPRewriterEntry>::Elt"** %158, align 8, !dbg !4246, !tbaa !4237
  br label %159, !dbg !4247

159:                                              ; preds = %157, %141, %138
  %160 = bitcast %"struct.HashMap<IPFlowID, MyIPRewriterEntry>::Elt"** %133 to i8*, !dbg !4222
  br label %161, !dbg !4223

161:                                              ; preds = %159, %130
  %162 = phi i8* [ %131, %130 ], [ %160, %159 ], !dbg !4223
  %163 = icmp eq i8* %162, null, !dbg !4223
  br i1 %163, label %190, label %189, !dbg !4223

164:                                              ; preds = %317, %136
  %165 = phi i64 [ 0, %136 ], [ %318, %317 ]
  %166 = phi i64 [ %137, %136 ], [ %319, %317 ]
  call void @llvm.dbg.value(metadata i64 %165, metadata !4208, metadata !DIExpression()) #17, !dbg !4219
  %167 = getelementptr inbounds %"struct.HashMap<IPFlowID, MyIPRewriterEntry>::Elt"*, %"struct.HashMap<IPFlowID, MyIPRewriterEntry>::Elt"** %133, i64 %165, !dbg !4226
  %168 = load %"struct.HashMap<IPFlowID, MyIPRewriterEntry>::Elt"*, %"struct.HashMap<IPFlowID, MyIPRewriterEntry>::Elt"** %167, align 8, !dbg !4226, !tbaa !4054
  call void @llvm.dbg.value(metadata %"struct.HashMap<IPFlowID, MyIPRewriterEntry>::Elt"* %168, metadata !4211, metadata !DIExpression()) #17, !dbg !4224
  %169 = icmp eq %"struct.HashMap<IPFlowID, MyIPRewriterEntry>::Elt"* %168, null, !dbg !4227
  br i1 %169, label %176, label %170, !dbg !4225

170:                                              ; preds = %164
  %171 = load %class.HashMap_Arena*, %class.HashMap_Arena** %52, align 8, !dbg !4228, !tbaa !4022
  %172 = bitcast %class.HashMap_Arena* %171 to i64*, !dbg !4229
  %173 = load i64, i64* %172, align 8, !dbg !4236, !tbaa !4237
  br label %181, !dbg !4225

174:                                              ; preds = %181
  call void @llvm.dbg.value(metadata %"struct.HashMap<IPFlowID, MyIPRewriterEntry>::Elt"* %183, metadata !4211, metadata !DIExpression()) #17, !dbg !4224
  call void @llvm.dbg.value(metadata %"struct.HashMap<IPFlowID, MyIPRewriterEntry>::Elt"* %183, metadata !4211, metadata !DIExpression()) #17, !dbg !4224
  call void @llvm.dbg.value(metadata %"struct.HashMap<IPFlowID, MyIPRewriterEntry>::Elt"* %183, metadata !4211, metadata !DIExpression()) #17, !dbg !4224
  call void @llvm.dbg.value(metadata %"struct.HashMap<IPFlowID, MyIPRewriterEntry>::Elt"* %183, metadata !4211, metadata !DIExpression()) #17, !dbg !4224
  %175 = bitcast %class.HashMap_Arena* %171 to %"struct.HashMap<IPFlowID, MyIPRewriterEntry>::Elt"**, !dbg !4229
  call void @llvm.dbg.value(metadata %"struct.HashMap<IPFlowID, MyIPRewriterEntry>::Elt"* %183, metadata !4211, metadata !DIExpression()) #17, !dbg !4224
  call void @llvm.dbg.value(metadata %"struct.HashMap<IPFlowID, MyIPRewriterEntry>::Elt"* %183, metadata !4211, metadata !DIExpression()) #17, !dbg !4224
  store %"struct.HashMap<IPFlowID, MyIPRewriterEntry>::Elt"* %183, %"struct.HashMap<IPFlowID, MyIPRewriterEntry>::Elt"** %175, align 8, !dbg !4246, !tbaa !4237
  br label %176, !dbg !4247

176:                                              ; preds = %174, %164
  %177 = or i64 %165, 1, !dbg !4247
  call void @llvm.dbg.value(metadata i64 %177, metadata !4208, metadata !DIExpression()) #17, !dbg !4219
  %178 = getelementptr inbounds %"struct.HashMap<IPFlowID, MyIPRewriterEntry>::Elt"*, %"struct.HashMap<IPFlowID, MyIPRewriterEntry>::Elt"** %133, i64 %177, !dbg !4226
  %179 = load %"struct.HashMap<IPFlowID, MyIPRewriterEntry>::Elt"*, %"struct.HashMap<IPFlowID, MyIPRewriterEntry>::Elt"** %178, align 8, !dbg !4226, !tbaa !4054
  call void @llvm.dbg.value(metadata %"struct.HashMap<IPFlowID, MyIPRewriterEntry>::Elt"* %179, metadata !4211, metadata !DIExpression()) #17, !dbg !4224
  %180 = icmp eq %"struct.HashMap<IPFlowID, MyIPRewriterEntry>::Elt"* %179, null, !dbg !4227
  br i1 %180, label %317, label %303, !dbg !4225

181:                                              ; preds = %181, %170
  %182 = phi i64 [ %173, %170 ], [ %188, %181 ], !dbg !4236
  %183 = phi %"struct.HashMap<IPFlowID, MyIPRewriterEntry>::Elt"* [ %168, %170 ], [ %185, %181 ]
  call void @llvm.dbg.value(metadata %"struct.HashMap<IPFlowID, MyIPRewriterEntry>::Elt"* %183, metadata !4211, metadata !DIExpression()) #17, !dbg !4224
  %184 = getelementptr inbounds %"struct.HashMap<IPFlowID, MyIPRewriterEntry>::Elt", %"struct.HashMap<IPFlowID, MyIPRewriterEntry>::Elt"* %183, i64 0, i32 1, !dbg !4238
  %185 = load %"struct.HashMap<IPFlowID, MyIPRewriterEntry>::Elt"*, %"struct.HashMap<IPFlowID, MyIPRewriterEntry>::Elt"** %184, align 8, !dbg !4238, !tbaa !4239
  call void @llvm.dbg.value(metadata %"struct.HashMap<IPFlowID, MyIPRewriterEntry>::Elt"* %185, metadata !4214, metadata !DIExpression()) #17, !dbg !4228
  call void @llvm.dbg.value(metadata %class.HashMap_Arena* %171, metadata !4232, metadata !DIExpression()) #17, !dbg !4229
  call void @llvm.dbg.value(metadata %"struct.HashMap<IPFlowID, MyIPRewriterEntry>::Elt"* %183, metadata !4233, metadata !DIExpression()) #17, !dbg !4229
  call void @llvm.dbg.value(metadata %"struct.HashMap<IPFlowID, MyIPRewriterEntry>::Elt"* %183, metadata !4234, metadata !DIExpression()) #17, !dbg !4229
  %186 = bitcast %"struct.HashMap<IPFlowID, MyIPRewriterEntry>::Elt"* %183 to i64*, !dbg !4241
  store i64 %182, i64* %186, align 8, !dbg !4241, !tbaa !4242
  call void @llvm.dbg.value(metadata %"struct.HashMap<IPFlowID, MyIPRewriterEntry>::Elt"* %185, metadata !4211, metadata !DIExpression()) #17, !dbg !4224
  %187 = icmp eq %"struct.HashMap<IPFlowID, MyIPRewriterEntry>::Elt"* %185, null, !dbg !4227
  %188 = ptrtoint %"struct.HashMap<IPFlowID, MyIPRewriterEntry>::Elt"* %183 to i64, !dbg !4225
  br i1 %187, label %174, label %181, !dbg !4225, !llvm.loop !4244

189:                                              ; preds = %161
  tail call void @_ZdaPv(i8* nonnull %162) #19, !dbg !4223
  br label %190, !dbg !4223

190:                                              ; preds = %189, %161
  %191 = load %class.HashMap_Arena*, %class.HashMap_Arena** %52, align 8, !dbg !4248, !tbaa !4022
  call void @llvm.dbg.value(metadata %class.HashMap_Arena* %191, metadata !4077, metadata !DIExpression()) #17, !dbg !4249
  %192 = getelementptr inbounds %class.HashMap_Arena, %class.HashMap_Arena* %191, i64 0, i32 7, !dbg !4251
  %193 = load i32, i32* %192, align 8, !dbg !4252, !tbaa !4084
  %194 = add i32 %193, -1, !dbg !4252
  store i32 %194, i32* %192, align 8, !dbg !4252, !tbaa !4084
  %195 = icmp ne i32 %194, 0, !dbg !4253
  %196 = icmp eq %class.HashMap_Arena* %191, null, !dbg !4254
  %197 = or i1 %196, %195, !dbg !4255
  br i1 %197, label %200, label %198, !dbg !4255

198:                                              ; preds = %190
  tail call void @_ZN13HashMap_ArenaD1Ev(%class.HashMap_Arena* nonnull %191) #17, !dbg !4254
  %199 = bitcast %class.HashMap_Arena* %191 to i8*, !dbg !4254
  tail call void @_ZdlPv(i8* %199) #19, !dbg !4254
  br label %200, !dbg !4254

200:                                              ; preds = %198, %190, %110
  %201 = phi i8* [ %112, %110 ], [ %126, %190 ], [ %126, %198 ], !dbg !4196
  %202 = phi i32 [ %113, %110 ], [ %127, %190 ], [ %127, %198 ], !dbg !4196
  call void @llvm.dbg.value(metadata %class.HashMap* %6, metadata !4205, metadata !DIExpression()) #17, !dbg !4256
  call void @llvm.dbg.value(metadata i64 0, metadata !4208, metadata !DIExpression()) #17, !dbg !4258
  %203 = load i64, i64* %9, align 8, !dbg !4259, !tbaa !4045
  %204 = icmp eq i64 %203, 0, !dbg !4260
  br i1 %204, label %205, label %207, !dbg !4261

205:                                              ; preds = %200
  %206 = load i8*, i8** %14, align 8, !dbg !4262, !tbaa !4049
  br label %236, !dbg !4261

207:                                              ; preds = %200
  %208 = load %"struct.HashMap<IPFlowID, MyIPRewriterEntry>::Elt"**, %"struct.HashMap<IPFlowID, MyIPRewriterEntry>::Elt"*** %13, align 8, !dbg !4263, !tbaa !4049
  %209 = and i64 %203, 1, !dbg !4261
  %210 = icmp eq i64 %203, 1, !dbg !4261
  br i1 %210, label %213, label %211, !dbg !4261

211:                                              ; preds = %207
  %212 = sub i64 %203, %209, !dbg !4261
  br label %239, !dbg !4261

213:                                              ; preds = %299, %207
  %214 = phi i64 [ 0, %207 ], [ %300, %299 ]
  %215 = icmp eq i64 %209, 0, !dbg !4264
  br i1 %215, label %234, label %216, !dbg !4264

216:                                              ; preds = %213
  call void @llvm.dbg.value(metadata i64 %214, metadata !4208, metadata !DIExpression()) #17, !dbg !4258
  %217 = getelementptr inbounds %"struct.HashMap<IPFlowID, MyIPRewriterEntry>::Elt"*, %"struct.HashMap<IPFlowID, MyIPRewriterEntry>::Elt"** %208, i64 %214, !dbg !4265
  %218 = load %"struct.HashMap<IPFlowID, MyIPRewriterEntry>::Elt"*, %"struct.HashMap<IPFlowID, MyIPRewriterEntry>::Elt"** %217, align 8, !dbg !4265, !tbaa !4054
  call void @llvm.dbg.value(metadata %"struct.HashMap<IPFlowID, MyIPRewriterEntry>::Elt"* %218, metadata !4211, metadata !DIExpression()) #17, !dbg !4263
  %219 = icmp eq %"struct.HashMap<IPFlowID, MyIPRewriterEntry>::Elt"* %218, null, !dbg !4266
  br i1 %219, label %234, label %220, !dbg !4264

220:                                              ; preds = %216
  %221 = load %class.HashMap_Arena*, %class.HashMap_Arena** %8, align 8, !dbg !4267, !tbaa !4022
  %222 = bitcast %class.HashMap_Arena* %221 to i64*, !dbg !4268
  %223 = load i64, i64* %222, align 8, !dbg !4270, !tbaa !4237
  br label %224, !dbg !4264

224:                                              ; preds = %224, %220
  %225 = phi i64 [ %223, %220 ], [ %231, %224 ], !dbg !4270
  %226 = phi %"struct.HashMap<IPFlowID, MyIPRewriterEntry>::Elt"* [ %218, %220 ], [ %228, %224 ]
  call void @llvm.dbg.value(metadata %"struct.HashMap<IPFlowID, MyIPRewriterEntry>::Elt"* %226, metadata !4211, metadata !DIExpression()) #17, !dbg !4263
  %227 = getelementptr inbounds %"struct.HashMap<IPFlowID, MyIPRewriterEntry>::Elt", %"struct.HashMap<IPFlowID, MyIPRewriterEntry>::Elt"* %226, i64 0, i32 1, !dbg !4271
  %228 = load %"struct.HashMap<IPFlowID, MyIPRewriterEntry>::Elt"*, %"struct.HashMap<IPFlowID, MyIPRewriterEntry>::Elt"** %227, align 8, !dbg !4271, !tbaa !4239
  call void @llvm.dbg.value(metadata %"struct.HashMap<IPFlowID, MyIPRewriterEntry>::Elt"* %228, metadata !4214, metadata !DIExpression()) #17, !dbg !4267
  call void @llvm.dbg.value(metadata %class.HashMap_Arena* %221, metadata !4232, metadata !DIExpression()) #17, !dbg !4268
  call void @llvm.dbg.value(metadata %"struct.HashMap<IPFlowID, MyIPRewriterEntry>::Elt"* %226, metadata !4233, metadata !DIExpression()) #17, !dbg !4268
  call void @llvm.dbg.value(metadata %"struct.HashMap<IPFlowID, MyIPRewriterEntry>::Elt"* %226, metadata !4234, metadata !DIExpression()) #17, !dbg !4268
  %229 = bitcast %"struct.HashMap<IPFlowID, MyIPRewriterEntry>::Elt"* %226 to i64*, !dbg !4272
  store i64 %225, i64* %229, align 8, !dbg !4272, !tbaa !4242
  call void @llvm.dbg.value(metadata %"struct.HashMap<IPFlowID, MyIPRewriterEntry>::Elt"* %228, metadata !4211, metadata !DIExpression()) #17, !dbg !4263
  %230 = icmp eq %"struct.HashMap<IPFlowID, MyIPRewriterEntry>::Elt"* %228, null, !dbg !4266
  %231 = ptrtoint %"struct.HashMap<IPFlowID, MyIPRewriterEntry>::Elt"* %226 to i64, !dbg !4264
  br i1 %230, label %232, label %224, !dbg !4264, !llvm.loop !4273

232:                                              ; preds = %224
  call void @llvm.dbg.value(metadata %"struct.HashMap<IPFlowID, MyIPRewriterEntry>::Elt"* %226, metadata !4211, metadata !DIExpression()) #17, !dbg !4263
  call void @llvm.dbg.value(metadata %"struct.HashMap<IPFlowID, MyIPRewriterEntry>::Elt"* %226, metadata !4211, metadata !DIExpression()) #17, !dbg !4263
  call void @llvm.dbg.value(metadata %"struct.HashMap<IPFlowID, MyIPRewriterEntry>::Elt"* %226, metadata !4211, metadata !DIExpression()) #17, !dbg !4263
  call void @llvm.dbg.value(metadata %"struct.HashMap<IPFlowID, MyIPRewriterEntry>::Elt"* %226, metadata !4211, metadata !DIExpression()) #17, !dbg !4263
  %233 = bitcast %class.HashMap_Arena* %221 to %"struct.HashMap<IPFlowID, MyIPRewriterEntry>::Elt"**, !dbg !4268
  call void @llvm.dbg.value(metadata %"struct.HashMap<IPFlowID, MyIPRewriterEntry>::Elt"* %226, metadata !4211, metadata !DIExpression()) #17, !dbg !4263
  call void @llvm.dbg.value(metadata %"struct.HashMap<IPFlowID, MyIPRewriterEntry>::Elt"* %226, metadata !4211, metadata !DIExpression()) #17, !dbg !4263
  store %"struct.HashMap<IPFlowID, MyIPRewriterEntry>::Elt"* %226, %"struct.HashMap<IPFlowID, MyIPRewriterEntry>::Elt"** %233, align 8, !dbg !4275, !tbaa !4237
  br label %234, !dbg !4276

234:                                              ; preds = %232, %216, %213
  %235 = bitcast %"struct.HashMap<IPFlowID, MyIPRewriterEntry>::Elt"** %208 to i8*, !dbg !4261
  br label %236, !dbg !4262

236:                                              ; preds = %234, %205
  %237 = phi i8* [ %206, %205 ], [ %235, %234 ], !dbg !4262
  %238 = icmp eq i8* %237, null, !dbg !4262
  br i1 %238, label %265, label %264, !dbg !4262

239:                                              ; preds = %299, %211
  %240 = phi i64 [ 0, %211 ], [ %300, %299 ]
  %241 = phi i64 [ %212, %211 ], [ %301, %299 ]
  call void @llvm.dbg.value(metadata i64 %240, metadata !4208, metadata !DIExpression()) #17, !dbg !4258
  %242 = getelementptr inbounds %"struct.HashMap<IPFlowID, MyIPRewriterEntry>::Elt"*, %"struct.HashMap<IPFlowID, MyIPRewriterEntry>::Elt"** %208, i64 %240, !dbg !4265
  %243 = load %"struct.HashMap<IPFlowID, MyIPRewriterEntry>::Elt"*, %"struct.HashMap<IPFlowID, MyIPRewriterEntry>::Elt"** %242, align 8, !dbg !4265, !tbaa !4054
  call void @llvm.dbg.value(metadata %"struct.HashMap<IPFlowID, MyIPRewriterEntry>::Elt"* %243, metadata !4211, metadata !DIExpression()) #17, !dbg !4263
  %244 = icmp eq %"struct.HashMap<IPFlowID, MyIPRewriterEntry>::Elt"* %243, null, !dbg !4266
  br i1 %244, label %251, label %245, !dbg !4264

245:                                              ; preds = %239
  %246 = load %class.HashMap_Arena*, %class.HashMap_Arena** %8, align 8, !dbg !4267, !tbaa !4022
  %247 = bitcast %class.HashMap_Arena* %246 to i64*, !dbg !4268
  %248 = load i64, i64* %247, align 8, !dbg !4270, !tbaa !4237
  br label %256, !dbg !4264

249:                                              ; preds = %256
  call void @llvm.dbg.value(metadata %"struct.HashMap<IPFlowID, MyIPRewriterEntry>::Elt"* %258, metadata !4211, metadata !DIExpression()) #17, !dbg !4263
  call void @llvm.dbg.value(metadata %"struct.HashMap<IPFlowID, MyIPRewriterEntry>::Elt"* %258, metadata !4211, metadata !DIExpression()) #17, !dbg !4263
  call void @llvm.dbg.value(metadata %"struct.HashMap<IPFlowID, MyIPRewriterEntry>::Elt"* %258, metadata !4211, metadata !DIExpression()) #17, !dbg !4263
  call void @llvm.dbg.value(metadata %"struct.HashMap<IPFlowID, MyIPRewriterEntry>::Elt"* %258, metadata !4211, metadata !DIExpression()) #17, !dbg !4263
  %250 = bitcast %class.HashMap_Arena* %246 to %"struct.HashMap<IPFlowID, MyIPRewriterEntry>::Elt"**, !dbg !4268
  call void @llvm.dbg.value(metadata %"struct.HashMap<IPFlowID, MyIPRewriterEntry>::Elt"* %258, metadata !4211, metadata !DIExpression()) #17, !dbg !4263
  call void @llvm.dbg.value(metadata %"struct.HashMap<IPFlowID, MyIPRewriterEntry>::Elt"* %258, metadata !4211, metadata !DIExpression()) #17, !dbg !4263
  store %"struct.HashMap<IPFlowID, MyIPRewriterEntry>::Elt"* %258, %"struct.HashMap<IPFlowID, MyIPRewriterEntry>::Elt"** %250, align 8, !dbg !4275, !tbaa !4237
  br label %251, !dbg !4276

251:                                              ; preds = %249, %239
  %252 = or i64 %240, 1, !dbg !4276
  call void @llvm.dbg.value(metadata i64 %252, metadata !4208, metadata !DIExpression()) #17, !dbg !4258
  %253 = getelementptr inbounds %"struct.HashMap<IPFlowID, MyIPRewriterEntry>::Elt"*, %"struct.HashMap<IPFlowID, MyIPRewriterEntry>::Elt"** %208, i64 %252, !dbg !4265
  %254 = load %"struct.HashMap<IPFlowID, MyIPRewriterEntry>::Elt"*, %"struct.HashMap<IPFlowID, MyIPRewriterEntry>::Elt"** %253, align 8, !dbg !4265, !tbaa !4054
  call void @llvm.dbg.value(metadata %"struct.HashMap<IPFlowID, MyIPRewriterEntry>::Elt"* %254, metadata !4211, metadata !DIExpression()) #17, !dbg !4263
  %255 = icmp eq %"struct.HashMap<IPFlowID, MyIPRewriterEntry>::Elt"* %254, null, !dbg !4266
  br i1 %255, label %299, label %285, !dbg !4264

256:                                              ; preds = %256, %245
  %257 = phi i64 [ %248, %245 ], [ %263, %256 ], !dbg !4270
  %258 = phi %"struct.HashMap<IPFlowID, MyIPRewriterEntry>::Elt"* [ %243, %245 ], [ %260, %256 ]
  call void @llvm.dbg.value(metadata %"struct.HashMap<IPFlowID, MyIPRewriterEntry>::Elt"* %258, metadata !4211, metadata !DIExpression()) #17, !dbg !4263
  %259 = getelementptr inbounds %"struct.HashMap<IPFlowID, MyIPRewriterEntry>::Elt", %"struct.HashMap<IPFlowID, MyIPRewriterEntry>::Elt"* %258, i64 0, i32 1, !dbg !4271
  %260 = load %"struct.HashMap<IPFlowID, MyIPRewriterEntry>::Elt"*, %"struct.HashMap<IPFlowID, MyIPRewriterEntry>::Elt"** %259, align 8, !dbg !4271, !tbaa !4239
  call void @llvm.dbg.value(metadata %"struct.HashMap<IPFlowID, MyIPRewriterEntry>::Elt"* %260, metadata !4214, metadata !DIExpression()) #17, !dbg !4267
  call void @llvm.dbg.value(metadata %class.HashMap_Arena* %246, metadata !4232, metadata !DIExpression()) #17, !dbg !4268
  call void @llvm.dbg.value(metadata %"struct.HashMap<IPFlowID, MyIPRewriterEntry>::Elt"* %258, metadata !4233, metadata !DIExpression()) #17, !dbg !4268
  call void @llvm.dbg.value(metadata %"struct.HashMap<IPFlowID, MyIPRewriterEntry>::Elt"* %258, metadata !4234, metadata !DIExpression()) #17, !dbg !4268
  %261 = bitcast %"struct.HashMap<IPFlowID, MyIPRewriterEntry>::Elt"* %258 to i64*, !dbg !4272
  store i64 %257, i64* %261, align 8, !dbg !4272, !tbaa !4242
  call void @llvm.dbg.value(metadata %"struct.HashMap<IPFlowID, MyIPRewriterEntry>::Elt"* %260, metadata !4211, metadata !DIExpression()) #17, !dbg !4263
  %262 = icmp eq %"struct.HashMap<IPFlowID, MyIPRewriterEntry>::Elt"* %260, null, !dbg !4266
  %263 = ptrtoint %"struct.HashMap<IPFlowID, MyIPRewriterEntry>::Elt"* %258 to i64, !dbg !4264
  br i1 %262, label %249, label %256, !dbg !4264, !llvm.loop !4273

264:                                              ; preds = %236
  tail call void @_ZdaPv(i8* nonnull %237) #19, !dbg !4262
  br label %265, !dbg !4262

265:                                              ; preds = %264, %236
  %266 = load %class.HashMap_Arena*, %class.HashMap_Arena** %8, align 8, !dbg !4277, !tbaa !4022
  call void @llvm.dbg.value(metadata %class.HashMap_Arena* %266, metadata !4077, metadata !DIExpression()) #17, !dbg !4278
  %267 = getelementptr inbounds %class.HashMap_Arena, %class.HashMap_Arena* %266, i64 0, i32 7, !dbg !4280
  %268 = load i32, i32* %267, align 8, !dbg !4281, !tbaa !4084
  %269 = add i32 %268, -1, !dbg !4281
  store i32 %269, i32* %267, align 8, !dbg !4281, !tbaa !4084
  %270 = icmp ne i32 %269, 0, !dbg !4282
  %271 = icmp eq %class.HashMap_Arena* %266, null, !dbg !4283
  %272 = or i1 %271, %270, !dbg !4284
  br i1 %272, label %275, label %273, !dbg !4284

273:                                              ; preds = %265
  tail call void @_ZN13HashMap_ArenaD1Ev(%class.HashMap_Arena* nonnull %266) #17, !dbg !4283
  %274 = bitcast %class.HashMap_Arena* %266 to i8*, !dbg !4283
  tail call void @_ZdlPv(i8* %274) #19, !dbg !4283
  br label %275, !dbg !4283

275:                                              ; preds = %273, %265, %106
  %276 = phi i8* [ %108, %106 ], [ %201, %265 ], [ %201, %273 ], !dbg !4196
  %277 = phi i32 [ %109, %106 ], [ %202, %265 ], [ %202, %273 ], !dbg !4196
  call void @llvm.dbg.value(metadata %class.Vector.24* %4, metadata !4285, metadata !DIExpression()) #17, !dbg !4289
  call void @llvm.dbg.value(metadata %class.Vector.24* %4, metadata !4291, metadata !DIExpression()) #17, !dbg !4295
  %278 = bitcast %class.Vector.24* %4 to i8**, !dbg !4298
  %279 = load i8*, i8** %278, align 8, !dbg !4300, !tbaa !4301
  %280 = icmp eq i8* %279, null, !dbg !4300
  br i1 %280, label %282, label %281, !dbg !4300

281:                                              ; preds = %275
  tail call void @_ZdaPv(i8* nonnull %279) #19, !dbg !4300
  br label %282, !dbg !4300

282:                                              ; preds = %281, %275
  tail call void @_ZN11TCPRewriterD2Ev(%class.TCPRewriter* nonnull %2) #17, !dbg !4303
  %283 = insertvalue { i8*, i32 } undef, i8* %276, 0, !dbg !4303
  %284 = insertvalue { i8*, i32 } %283, i32 %277, 1, !dbg !4303
  resume { i8*, i32 } %284, !dbg !4303

285:                                              ; preds = %251
  %286 = load %class.HashMap_Arena*, %class.HashMap_Arena** %8, align 8, !dbg !4267, !tbaa !4022
  %287 = bitcast %class.HashMap_Arena* %286 to i64*, !dbg !4268
  %288 = load i64, i64* %287, align 8, !dbg !4270, !tbaa !4237
  br label %289, !dbg !4264

289:                                              ; preds = %289, %285
  %290 = phi i64 [ %288, %285 ], [ %296, %289 ], !dbg !4270
  %291 = phi %"struct.HashMap<IPFlowID, MyIPRewriterEntry>::Elt"* [ %254, %285 ], [ %293, %289 ]
  call void @llvm.dbg.value(metadata %"struct.HashMap<IPFlowID, MyIPRewriterEntry>::Elt"* %291, metadata !4211, metadata !DIExpression()) #17, !dbg !4263
  %292 = getelementptr inbounds %"struct.HashMap<IPFlowID, MyIPRewriterEntry>::Elt", %"struct.HashMap<IPFlowID, MyIPRewriterEntry>::Elt"* %291, i64 0, i32 1, !dbg !4271
  %293 = load %"struct.HashMap<IPFlowID, MyIPRewriterEntry>::Elt"*, %"struct.HashMap<IPFlowID, MyIPRewriterEntry>::Elt"** %292, align 8, !dbg !4271, !tbaa !4239
  call void @llvm.dbg.value(metadata %"struct.HashMap<IPFlowID, MyIPRewriterEntry>::Elt"* %293, metadata !4214, metadata !DIExpression()) #17, !dbg !4267
  call void @llvm.dbg.value(metadata %class.HashMap_Arena* %286, metadata !4232, metadata !DIExpression()) #17, !dbg !4268
  call void @llvm.dbg.value(metadata %"struct.HashMap<IPFlowID, MyIPRewriterEntry>::Elt"* %291, metadata !4233, metadata !DIExpression()) #17, !dbg !4268
  call void @llvm.dbg.value(metadata %"struct.HashMap<IPFlowID, MyIPRewriterEntry>::Elt"* %291, metadata !4234, metadata !DIExpression()) #17, !dbg !4268
  %294 = bitcast %"struct.HashMap<IPFlowID, MyIPRewriterEntry>::Elt"* %291 to i64*, !dbg !4272
  store i64 %290, i64* %294, align 8, !dbg !4272, !tbaa !4242
  call void @llvm.dbg.value(metadata %"struct.HashMap<IPFlowID, MyIPRewriterEntry>::Elt"* %293, metadata !4211, metadata !DIExpression()) #17, !dbg !4263
  %295 = icmp eq %"struct.HashMap<IPFlowID, MyIPRewriterEntry>::Elt"* %293, null, !dbg !4266
  %296 = ptrtoint %"struct.HashMap<IPFlowID, MyIPRewriterEntry>::Elt"* %291 to i64, !dbg !4264
  br i1 %295, label %297, label %289, !dbg !4264, !llvm.loop !4273

297:                                              ; preds = %289
  call void @llvm.dbg.value(metadata %"struct.HashMap<IPFlowID, MyIPRewriterEntry>::Elt"* %291, metadata !4211, metadata !DIExpression()) #17, !dbg !4263
  call void @llvm.dbg.value(metadata %"struct.HashMap<IPFlowID, MyIPRewriterEntry>::Elt"* %291, metadata !4211, metadata !DIExpression()) #17, !dbg !4263
  call void @llvm.dbg.value(metadata %"struct.HashMap<IPFlowID, MyIPRewriterEntry>::Elt"* %291, metadata !4211, metadata !DIExpression()) #17, !dbg !4263
  call void @llvm.dbg.value(metadata %"struct.HashMap<IPFlowID, MyIPRewriterEntry>::Elt"* %291, metadata !4211, metadata !DIExpression()) #17, !dbg !4263
  %298 = bitcast %class.HashMap_Arena* %286 to %"struct.HashMap<IPFlowID, MyIPRewriterEntry>::Elt"**, !dbg !4268
  call void @llvm.dbg.value(metadata %"struct.HashMap<IPFlowID, MyIPRewriterEntry>::Elt"* %291, metadata !4211, metadata !DIExpression()) #17, !dbg !4263
  call void @llvm.dbg.value(metadata %"struct.HashMap<IPFlowID, MyIPRewriterEntry>::Elt"* %291, metadata !4211, metadata !DIExpression()) #17, !dbg !4263
  store %"struct.HashMap<IPFlowID, MyIPRewriterEntry>::Elt"* %291, %"struct.HashMap<IPFlowID, MyIPRewriterEntry>::Elt"** %298, align 8, !dbg !4275, !tbaa !4237
  br label %299, !dbg !4276

299:                                              ; preds = %297, %251
  %300 = add nuw i64 %240, 2, !dbg !4276
  call void @llvm.dbg.value(metadata i64 %300, metadata !4208, metadata !DIExpression()) #17, !dbg !4258
  %301 = add i64 %241, -2, !dbg !4261
  %302 = icmp eq i64 %301, 0, !dbg !4261
  br i1 %302, label %213, label %239, !dbg !4261, !llvm.loop !4304

303:                                              ; preds = %176
  %304 = load %class.HashMap_Arena*, %class.HashMap_Arena** %52, align 8, !dbg !4228, !tbaa !4022
  %305 = bitcast %class.HashMap_Arena* %304 to i64*, !dbg !4229
  %306 = load i64, i64* %305, align 8, !dbg !4236, !tbaa !4237
  br label %307, !dbg !4225

307:                                              ; preds = %307, %303
  %308 = phi i64 [ %306, %303 ], [ %314, %307 ], !dbg !4236
  %309 = phi %"struct.HashMap<IPFlowID, MyIPRewriterEntry>::Elt"* [ %179, %303 ], [ %311, %307 ]
  call void @llvm.dbg.value(metadata %"struct.HashMap<IPFlowID, MyIPRewriterEntry>::Elt"* %309, metadata !4211, metadata !DIExpression()) #17, !dbg !4224
  %310 = getelementptr inbounds %"struct.HashMap<IPFlowID, MyIPRewriterEntry>::Elt", %"struct.HashMap<IPFlowID, MyIPRewriterEntry>::Elt"* %309, i64 0, i32 1, !dbg !4238
  %311 = load %"struct.HashMap<IPFlowID, MyIPRewriterEntry>::Elt"*, %"struct.HashMap<IPFlowID, MyIPRewriterEntry>::Elt"** %310, align 8, !dbg !4238, !tbaa !4239
  call void @llvm.dbg.value(metadata %"struct.HashMap<IPFlowID, MyIPRewriterEntry>::Elt"* %311, metadata !4214, metadata !DIExpression()) #17, !dbg !4228
  call void @llvm.dbg.value(metadata %class.HashMap_Arena* %304, metadata !4232, metadata !DIExpression()) #17, !dbg !4229
  call void @llvm.dbg.value(metadata %"struct.HashMap<IPFlowID, MyIPRewriterEntry>::Elt"* %309, metadata !4233, metadata !DIExpression()) #17, !dbg !4229
  call void @llvm.dbg.value(metadata %"struct.HashMap<IPFlowID, MyIPRewriterEntry>::Elt"* %309, metadata !4234, metadata !DIExpression()) #17, !dbg !4229
  %312 = bitcast %"struct.HashMap<IPFlowID, MyIPRewriterEntry>::Elt"* %309 to i64*, !dbg !4241
  store i64 %308, i64* %312, align 8, !dbg !4241, !tbaa !4242
  call void @llvm.dbg.value(metadata %"struct.HashMap<IPFlowID, MyIPRewriterEntry>::Elt"* %311, metadata !4211, metadata !DIExpression()) #17, !dbg !4224
  %313 = icmp eq %"struct.HashMap<IPFlowID, MyIPRewriterEntry>::Elt"* %311, null, !dbg !4227
  %314 = ptrtoint %"struct.HashMap<IPFlowID, MyIPRewriterEntry>::Elt"* %309 to i64, !dbg !4225
  br i1 %313, label %315, label %307, !dbg !4225, !llvm.loop !4244

315:                                              ; preds = %307
  call void @llvm.dbg.value(metadata %"struct.HashMap<IPFlowID, MyIPRewriterEntry>::Elt"* %309, metadata !4211, metadata !DIExpression()) #17, !dbg !4224
  call void @llvm.dbg.value(metadata %"struct.HashMap<IPFlowID, MyIPRewriterEntry>::Elt"* %309, metadata !4211, metadata !DIExpression()) #17, !dbg !4224
  call void @llvm.dbg.value(metadata %"struct.HashMap<IPFlowID, MyIPRewriterEntry>::Elt"* %309, metadata !4211, metadata !DIExpression()) #17, !dbg !4224
  call void @llvm.dbg.value(metadata %"struct.HashMap<IPFlowID, MyIPRewriterEntry>::Elt"* %309, metadata !4211, metadata !DIExpression()) #17, !dbg !4224
  %316 = bitcast %class.HashMap_Arena* %304 to %"struct.HashMap<IPFlowID, MyIPRewriterEntry>::Elt"**, !dbg !4229
  call void @llvm.dbg.value(metadata %"struct.HashMap<IPFlowID, MyIPRewriterEntry>::Elt"* %309, metadata !4211, metadata !DIExpression()) #17, !dbg !4224
  call void @llvm.dbg.value(metadata %"struct.HashMap<IPFlowID, MyIPRewriterEntry>::Elt"* %309, metadata !4211, metadata !DIExpression()) #17, !dbg !4224
  store %"struct.HashMap<IPFlowID, MyIPRewriterEntry>::Elt"* %309, %"struct.HashMap<IPFlowID, MyIPRewriterEntry>::Elt"** %316, align 8, !dbg !4246, !tbaa !4237
  br label %317, !dbg !4247

317:                                              ; preds = %315, %176
  %318 = add nuw i64 %165, 2, !dbg !4247
  call void @llvm.dbg.value(metadata i64 %318, metadata !4208, metadata !DIExpression()) #17, !dbg !4219
  %319 = add i64 %166, -2, !dbg !4222
  %320 = icmp eq i64 %319, 0, !dbg !4222
  br i1 %320, label %138, label %164, !dbg !4222, !llvm.loop !4306
}

; Function Attrs: nounwind readnone speculatable willreturn
declare void @llvm.dbg.declare(metadata, metadata, metadata) #1

declare void @_ZN11TCPRewriterC2Ev(%class.TCPRewriter*) unnamed_addr #2

declare i32 @__gxx_personality_v0(...)

; Function Attrs: nounwind
declare void @_ZN11TCPRewriterD2Ev(%class.TCPRewriter*) unnamed_addr #3

; Function Attrs: nounwind sspstrong uwtable
define dso_local void @_ZN12MyIPRewriterD2Ev(%class.MyIPRewriter* %0) unnamed_addr #4 align 2 personality i32 (...)* @__gxx_personality_v0 !dbg !4308 {
  call void @llvm.dbg.value(metadata %class.MyIPRewriter* %0, metadata !4310, metadata !DIExpression()), !dbg !4311
  %2 = getelementptr %class.MyIPRewriter, %class.MyIPRewriter* %0, i64 0, i32 0, i32 0, i32 0, i32 0, !dbg !4312
  store i32 (...)** bitcast (i8** getelementptr inbounds ({ [34 x i8*] }, { [34 x i8*] }* @_ZTV12MyIPRewriter, i64 0, inrange i32 0, i64 2) to i32 (...)**), i32 (...)*** %2, align 8, !dbg !4312, !tbaa !3969
  %3 = getelementptr inbounds %class.MyIPRewriter, %class.MyIPRewriter* %0, i64 0, i32 6, i32 0, !dbg !4313
  tail call void @_ZN13HashAllocatorD2Ev(%class.HashAllocator* nonnull %3) #17, !dbg !4313
  %4 = getelementptr inbounds %class.MyIPRewriter, %class.MyIPRewriter* %0, i64 0, i32 5, !dbg !4313
  call void @llvm.dbg.value(metadata %class.HashContainer* %4, metadata !4197, metadata !DIExpression()) #17, !dbg !4315
  %5 = bitcast %class.HashContainer* %4 to i8**, !dbg !4317
  %6 = load i8*, i8** %5, align 8, !dbg !4317, !tbaa !4176
  %7 = icmp eq i8* %6, null, !dbg !4317
  br i1 %7, label %9, label %8, !dbg !4317

8:                                                ; preds = %1
  tail call void @_ZdaPv(i8* nonnull %6) #19, !dbg !4317
  br label %9, !dbg !4317

9:                                                ; preds = %1, %8
  %10 = getelementptr inbounds %class.MyIPRewriter, %class.MyIPRewriter* %0, i64 0, i32 4, !dbg !4313
  call void @llvm.dbg.value(metadata %class.HashMap* %10, metadata !4205, metadata !DIExpression()) #17, !dbg !4318
  call void @llvm.dbg.value(metadata i64 0, metadata !4208, metadata !DIExpression()) #17, !dbg !4320
  %11 = getelementptr inbounds %class.MyIPRewriter, %class.MyIPRewriter* %0, i64 0, i32 4, i32 1, !dbg !4321
  %12 = load i64, i64* %11, align 8, !dbg !4321, !tbaa !4045
  %13 = icmp eq i64 %12, 0, !dbg !4322
  br i1 %13, label %14, label %17, !dbg !4323

14:                                               ; preds = %9
  %15 = bitcast %class.HashMap* %10 to i8**, !dbg !4324
  %16 = load i8*, i8** %15, align 8, !dbg !4325, !tbaa !4049
  br label %48, !dbg !4323

17:                                               ; preds = %9
  %18 = getelementptr inbounds %class.HashMap, %class.HashMap* %10, i64 0, i32 0, !dbg !4326
  %19 = load %"struct.HashMap<IPFlowID, MyIPRewriterEntry>::Elt"**, %"struct.HashMap<IPFlowID, MyIPRewriterEntry>::Elt"*** %18, align 8, !dbg !4326, !tbaa !4049
  %20 = getelementptr inbounds %class.MyIPRewriter, %class.MyIPRewriter* %0, i64 0, i32 4, i32 5, !dbg !4327
  %21 = and i64 %12, 1, !dbg !4323
  %22 = icmp eq i64 %12, 1, !dbg !4323
  br i1 %22, label %25, label %23, !dbg !4323

23:                                               ; preds = %17
  %24 = sub i64 %12, %21, !dbg !4323
  br label %51, !dbg !4323

25:                                               ; preds = %207, %17
  %26 = phi i64 [ 0, %17 ], [ %208, %207 ]
  %27 = icmp eq i64 %21, 0, !dbg !4328
  br i1 %27, label %46, label %28, !dbg !4328

28:                                               ; preds = %25
  call void @llvm.dbg.value(metadata i64 %26, metadata !4208, metadata !DIExpression()) #17, !dbg !4320
  %29 = getelementptr inbounds %"struct.HashMap<IPFlowID, MyIPRewriterEntry>::Elt"*, %"struct.HashMap<IPFlowID, MyIPRewriterEntry>::Elt"** %19, i64 %26, !dbg !4329
  %30 = load %"struct.HashMap<IPFlowID, MyIPRewriterEntry>::Elt"*, %"struct.HashMap<IPFlowID, MyIPRewriterEntry>::Elt"** %29, align 8, !dbg !4329, !tbaa !4054
  call void @llvm.dbg.value(metadata %"struct.HashMap<IPFlowID, MyIPRewriterEntry>::Elt"* %30, metadata !4211, metadata !DIExpression()) #17, !dbg !4326
  %31 = icmp eq %"struct.HashMap<IPFlowID, MyIPRewriterEntry>::Elt"* %30, null, !dbg !4330
  br i1 %31, label %46, label %32, !dbg !4328

32:                                               ; preds = %28
  %33 = load %class.HashMap_Arena*, %class.HashMap_Arena** %20, align 8, !dbg !4327, !tbaa !4022
  %34 = bitcast %class.HashMap_Arena* %33 to i64*, !dbg !4331
  %35 = load i64, i64* %34, align 8, !dbg !4333, !tbaa !4237
  br label %36, !dbg !4328

36:                                               ; preds = %36, %32
  %37 = phi i64 [ %35, %32 ], [ %43, %36 ], !dbg !4333
  %38 = phi %"struct.HashMap<IPFlowID, MyIPRewriterEntry>::Elt"* [ %30, %32 ], [ %40, %36 ]
  call void @llvm.dbg.value(metadata %"struct.HashMap<IPFlowID, MyIPRewriterEntry>::Elt"* %38, metadata !4211, metadata !DIExpression()) #17, !dbg !4326
  %39 = getelementptr inbounds %"struct.HashMap<IPFlowID, MyIPRewriterEntry>::Elt", %"struct.HashMap<IPFlowID, MyIPRewriterEntry>::Elt"* %38, i64 0, i32 1, !dbg !4334
  %40 = load %"struct.HashMap<IPFlowID, MyIPRewriterEntry>::Elt"*, %"struct.HashMap<IPFlowID, MyIPRewriterEntry>::Elt"** %39, align 8, !dbg !4334, !tbaa !4239
  call void @llvm.dbg.value(metadata %"struct.HashMap<IPFlowID, MyIPRewriterEntry>::Elt"* %40, metadata !4214, metadata !DIExpression()) #17, !dbg !4327
  call void @llvm.dbg.value(metadata %class.HashMap_Arena* %33, metadata !4232, metadata !DIExpression()) #17, !dbg !4331
  call void @llvm.dbg.value(metadata %"struct.HashMap<IPFlowID, MyIPRewriterEntry>::Elt"* %38, metadata !4233, metadata !DIExpression()) #17, !dbg !4331
  call void @llvm.dbg.value(metadata %"struct.HashMap<IPFlowID, MyIPRewriterEntry>::Elt"* %38, metadata !4234, metadata !DIExpression()) #17, !dbg !4331
  %41 = bitcast %"struct.HashMap<IPFlowID, MyIPRewriterEntry>::Elt"* %38 to i64*, !dbg !4335
  store i64 %37, i64* %41, align 8, !dbg !4335, !tbaa !4242
  call void @llvm.dbg.value(metadata %"struct.HashMap<IPFlowID, MyIPRewriterEntry>::Elt"* %40, metadata !4211, metadata !DIExpression()) #17, !dbg !4326
  %42 = icmp eq %"struct.HashMap<IPFlowID, MyIPRewriterEntry>::Elt"* %40, null, !dbg !4330
  %43 = ptrtoint %"struct.HashMap<IPFlowID, MyIPRewriterEntry>::Elt"* %38 to i64, !dbg !4328
  br i1 %42, label %44, label %36, !dbg !4328, !llvm.loop !4336

44:                                               ; preds = %36
  call void @llvm.dbg.value(metadata %"struct.HashMap<IPFlowID, MyIPRewriterEntry>::Elt"* %38, metadata !4211, metadata !DIExpression()) #17, !dbg !4326
  call void @llvm.dbg.value(metadata %"struct.HashMap<IPFlowID, MyIPRewriterEntry>::Elt"* %38, metadata !4211, metadata !DIExpression()) #17, !dbg !4326
  call void @llvm.dbg.value(metadata %"struct.HashMap<IPFlowID, MyIPRewriterEntry>::Elt"* %38, metadata !4211, metadata !DIExpression()) #17, !dbg !4326
  call void @llvm.dbg.value(metadata %"struct.HashMap<IPFlowID, MyIPRewriterEntry>::Elt"* %38, metadata !4211, metadata !DIExpression()) #17, !dbg !4326
  %45 = bitcast %class.HashMap_Arena* %33 to %"struct.HashMap<IPFlowID, MyIPRewriterEntry>::Elt"**, !dbg !4331
  call void @llvm.dbg.value(metadata %"struct.HashMap<IPFlowID, MyIPRewriterEntry>::Elt"* %38, metadata !4211, metadata !DIExpression()) #17, !dbg !4326
  call void @llvm.dbg.value(metadata %"struct.HashMap<IPFlowID, MyIPRewriterEntry>::Elt"* %38, metadata !4211, metadata !DIExpression()) #17, !dbg !4326
  store %"struct.HashMap<IPFlowID, MyIPRewriterEntry>::Elt"* %38, %"struct.HashMap<IPFlowID, MyIPRewriterEntry>::Elt"** %45, align 8, !dbg !4338, !tbaa !4237
  br label %46, !dbg !4339

46:                                               ; preds = %44, %28, %25
  %47 = bitcast %"struct.HashMap<IPFlowID, MyIPRewriterEntry>::Elt"** %19 to i8*, !dbg !4323
  br label %48, !dbg !4325

48:                                               ; preds = %46, %14
  %49 = phi i8* [ %16, %14 ], [ %47, %46 ], !dbg !4325
  %50 = icmp eq i8* %49, null, !dbg !4325
  br i1 %50, label %77, label %76, !dbg !4325

51:                                               ; preds = %207, %23
  %52 = phi i64 [ 0, %23 ], [ %208, %207 ]
  %53 = phi i64 [ %24, %23 ], [ %209, %207 ]
  call void @llvm.dbg.value(metadata i64 %52, metadata !4208, metadata !DIExpression()) #17, !dbg !4320
  %54 = getelementptr inbounds %"struct.HashMap<IPFlowID, MyIPRewriterEntry>::Elt"*, %"struct.HashMap<IPFlowID, MyIPRewriterEntry>::Elt"** %19, i64 %52, !dbg !4329
  %55 = load %"struct.HashMap<IPFlowID, MyIPRewriterEntry>::Elt"*, %"struct.HashMap<IPFlowID, MyIPRewriterEntry>::Elt"** %54, align 8, !dbg !4329, !tbaa !4054
  call void @llvm.dbg.value(metadata %"struct.HashMap<IPFlowID, MyIPRewriterEntry>::Elt"* %55, metadata !4211, metadata !DIExpression()) #17, !dbg !4326
  %56 = icmp eq %"struct.HashMap<IPFlowID, MyIPRewriterEntry>::Elt"* %55, null, !dbg !4330
  br i1 %56, label %63, label %57, !dbg !4328

57:                                               ; preds = %51
  %58 = load %class.HashMap_Arena*, %class.HashMap_Arena** %20, align 8, !dbg !4327, !tbaa !4022
  %59 = bitcast %class.HashMap_Arena* %58 to i64*, !dbg !4331
  %60 = load i64, i64* %59, align 8, !dbg !4333, !tbaa !4237
  br label %68, !dbg !4328

61:                                               ; preds = %68
  call void @llvm.dbg.value(metadata %"struct.HashMap<IPFlowID, MyIPRewriterEntry>::Elt"* %70, metadata !4211, metadata !DIExpression()) #17, !dbg !4326
  call void @llvm.dbg.value(metadata %"struct.HashMap<IPFlowID, MyIPRewriterEntry>::Elt"* %70, metadata !4211, metadata !DIExpression()) #17, !dbg !4326
  call void @llvm.dbg.value(metadata %"struct.HashMap<IPFlowID, MyIPRewriterEntry>::Elt"* %70, metadata !4211, metadata !DIExpression()) #17, !dbg !4326
  call void @llvm.dbg.value(metadata %"struct.HashMap<IPFlowID, MyIPRewriterEntry>::Elt"* %70, metadata !4211, metadata !DIExpression()) #17, !dbg !4326
  %62 = bitcast %class.HashMap_Arena* %58 to %"struct.HashMap<IPFlowID, MyIPRewriterEntry>::Elt"**, !dbg !4331
  call void @llvm.dbg.value(metadata %"struct.HashMap<IPFlowID, MyIPRewriterEntry>::Elt"* %70, metadata !4211, metadata !DIExpression()) #17, !dbg !4326
  call void @llvm.dbg.value(metadata %"struct.HashMap<IPFlowID, MyIPRewriterEntry>::Elt"* %70, metadata !4211, metadata !DIExpression()) #17, !dbg !4326
  store %"struct.HashMap<IPFlowID, MyIPRewriterEntry>::Elt"* %70, %"struct.HashMap<IPFlowID, MyIPRewriterEntry>::Elt"** %62, align 8, !dbg !4338, !tbaa !4237
  br label %63, !dbg !4339

63:                                               ; preds = %61, %51
  %64 = or i64 %52, 1, !dbg !4339
  call void @llvm.dbg.value(metadata i64 %64, metadata !4208, metadata !DIExpression()) #17, !dbg !4320
  %65 = getelementptr inbounds %"struct.HashMap<IPFlowID, MyIPRewriterEntry>::Elt"*, %"struct.HashMap<IPFlowID, MyIPRewriterEntry>::Elt"** %19, i64 %64, !dbg !4329
  %66 = load %"struct.HashMap<IPFlowID, MyIPRewriterEntry>::Elt"*, %"struct.HashMap<IPFlowID, MyIPRewriterEntry>::Elt"** %65, align 8, !dbg !4329, !tbaa !4054
  call void @llvm.dbg.value(metadata %"struct.HashMap<IPFlowID, MyIPRewriterEntry>::Elt"* %66, metadata !4211, metadata !DIExpression()) #17, !dbg !4326
  %67 = icmp eq %"struct.HashMap<IPFlowID, MyIPRewriterEntry>::Elt"* %66, null, !dbg !4330
  br i1 %67, label %207, label %193, !dbg !4328

68:                                               ; preds = %68, %57
  %69 = phi i64 [ %60, %57 ], [ %75, %68 ], !dbg !4333
  %70 = phi %"struct.HashMap<IPFlowID, MyIPRewriterEntry>::Elt"* [ %55, %57 ], [ %72, %68 ]
  call void @llvm.dbg.value(metadata %"struct.HashMap<IPFlowID, MyIPRewriterEntry>::Elt"* %70, metadata !4211, metadata !DIExpression()) #17, !dbg !4326
  %71 = getelementptr inbounds %"struct.HashMap<IPFlowID, MyIPRewriterEntry>::Elt", %"struct.HashMap<IPFlowID, MyIPRewriterEntry>::Elt"* %70, i64 0, i32 1, !dbg !4334
  %72 = load %"struct.HashMap<IPFlowID, MyIPRewriterEntry>::Elt"*, %"struct.HashMap<IPFlowID, MyIPRewriterEntry>::Elt"** %71, align 8, !dbg !4334, !tbaa !4239
  call void @llvm.dbg.value(metadata %"struct.HashMap<IPFlowID, MyIPRewriterEntry>::Elt"* %72, metadata !4214, metadata !DIExpression()) #17, !dbg !4327
  call void @llvm.dbg.value(metadata %class.HashMap_Arena* %58, metadata !4232, metadata !DIExpression()) #17, !dbg !4331
  call void @llvm.dbg.value(metadata %"struct.HashMap<IPFlowID, MyIPRewriterEntry>::Elt"* %70, metadata !4233, metadata !DIExpression()) #17, !dbg !4331
  call void @llvm.dbg.value(metadata %"struct.HashMap<IPFlowID, MyIPRewriterEntry>::Elt"* %70, metadata !4234, metadata !DIExpression()) #17, !dbg !4331
  %73 = bitcast %"struct.HashMap<IPFlowID, MyIPRewriterEntry>::Elt"* %70 to i64*, !dbg !4335
  store i64 %69, i64* %73, align 8, !dbg !4335, !tbaa !4242
  call void @llvm.dbg.value(metadata %"struct.HashMap<IPFlowID, MyIPRewriterEntry>::Elt"* %72, metadata !4211, metadata !DIExpression()) #17, !dbg !4326
  %74 = icmp eq %"struct.HashMap<IPFlowID, MyIPRewriterEntry>::Elt"* %72, null, !dbg !4330
  %75 = ptrtoint %"struct.HashMap<IPFlowID, MyIPRewriterEntry>::Elt"* %70 to i64, !dbg !4328
  br i1 %74, label %61, label %68, !dbg !4328, !llvm.loop !4336

76:                                               ; preds = %48
  tail call void @_ZdaPv(i8* nonnull %49) #19, !dbg !4325
  br label %77, !dbg !4325

77:                                               ; preds = %76, %48
  %78 = getelementptr inbounds %class.MyIPRewriter, %class.MyIPRewriter* %0, i64 0, i32 4, i32 5, !dbg !4340
  %79 = load %class.HashMap_Arena*, %class.HashMap_Arena** %78, align 8, !dbg !4340, !tbaa !4022
  call void @llvm.dbg.value(metadata %class.HashMap_Arena* %79, metadata !4077, metadata !DIExpression()) #17, !dbg !4341
  %80 = getelementptr inbounds %class.HashMap_Arena, %class.HashMap_Arena* %79, i64 0, i32 7, !dbg !4343
  %81 = load i32, i32* %80, align 8, !dbg !4344, !tbaa !4084
  %82 = add i32 %81, -1, !dbg !4344
  store i32 %82, i32* %80, align 8, !dbg !4344, !tbaa !4084
  %83 = icmp ne i32 %82, 0, !dbg !4345
  %84 = icmp eq %class.HashMap_Arena* %79, null, !dbg !4346
  %85 = or i1 %84, %83, !dbg !4347
  br i1 %85, label %88, label %86, !dbg !4347

86:                                               ; preds = %77
  tail call void @_ZN13HashMap_ArenaD1Ev(%class.HashMap_Arena* nonnull %79) #17, !dbg !4346
  %87 = bitcast %class.HashMap_Arena* %79 to i8*, !dbg !4346
  tail call void @_ZdlPv(i8* %87) #19, !dbg !4346
  br label %88, !dbg !4346

88:                                               ; preds = %77, %86
  %89 = getelementptr inbounds %class.MyIPRewriter, %class.MyIPRewriter* %0, i64 0, i32 3, !dbg !4313
  call void @llvm.dbg.value(metadata %class.HashMap* %89, metadata !4205, metadata !DIExpression()) #17, !dbg !4348
  call void @llvm.dbg.value(metadata i64 0, metadata !4208, metadata !DIExpression()) #17, !dbg !4350
  %90 = getelementptr inbounds %class.MyIPRewriter, %class.MyIPRewriter* %0, i64 0, i32 3, i32 1, !dbg !4351
  %91 = load i64, i64* %90, align 8, !dbg !4351, !tbaa !4045
  %92 = icmp eq i64 %91, 0, !dbg !4352
  br i1 %92, label %93, label %96, !dbg !4353

93:                                               ; preds = %88
  %94 = bitcast %class.HashMap* %89 to i8**, !dbg !4354
  %95 = load i8*, i8** %94, align 8, !dbg !4355, !tbaa !4049
  br label %127, !dbg !4353

96:                                               ; preds = %88
  %97 = getelementptr inbounds %class.HashMap, %class.HashMap* %89, i64 0, i32 0, !dbg !4356
  %98 = load %"struct.HashMap<IPFlowID, MyIPRewriterEntry>::Elt"**, %"struct.HashMap<IPFlowID, MyIPRewriterEntry>::Elt"*** %97, align 8, !dbg !4356, !tbaa !4049
  %99 = getelementptr inbounds %class.MyIPRewriter, %class.MyIPRewriter* %0, i64 0, i32 3, i32 5, !dbg !4357
  %100 = and i64 %91, 1, !dbg !4353
  %101 = icmp eq i64 %91, 1, !dbg !4353
  br i1 %101, label %104, label %102, !dbg !4353

102:                                              ; preds = %96
  %103 = sub i64 %91, %100, !dbg !4353
  br label %130, !dbg !4353

104:                                              ; preds = %189, %96
  %105 = phi i64 [ 0, %96 ], [ %190, %189 ]
  %106 = icmp eq i64 %100, 0, !dbg !4358
  br i1 %106, label %125, label %107, !dbg !4358

107:                                              ; preds = %104
  call void @llvm.dbg.value(metadata i64 %105, metadata !4208, metadata !DIExpression()) #17, !dbg !4350
  %108 = getelementptr inbounds %"struct.HashMap<IPFlowID, MyIPRewriterEntry>::Elt"*, %"struct.HashMap<IPFlowID, MyIPRewriterEntry>::Elt"** %98, i64 %105, !dbg !4359
  %109 = load %"struct.HashMap<IPFlowID, MyIPRewriterEntry>::Elt"*, %"struct.HashMap<IPFlowID, MyIPRewriterEntry>::Elt"** %108, align 8, !dbg !4359, !tbaa !4054
  call void @llvm.dbg.value(metadata %"struct.HashMap<IPFlowID, MyIPRewriterEntry>::Elt"* %109, metadata !4211, metadata !DIExpression()) #17, !dbg !4356
  %110 = icmp eq %"struct.HashMap<IPFlowID, MyIPRewriterEntry>::Elt"* %109, null, !dbg !4360
  br i1 %110, label %125, label %111, !dbg !4358

111:                                              ; preds = %107
  %112 = load %class.HashMap_Arena*, %class.HashMap_Arena** %99, align 8, !dbg !4357, !tbaa !4022
  %113 = bitcast %class.HashMap_Arena* %112 to i64*, !dbg !4361
  %114 = load i64, i64* %113, align 8, !dbg !4363, !tbaa !4237
  br label %115, !dbg !4358

115:                                              ; preds = %115, %111
  %116 = phi i64 [ %114, %111 ], [ %122, %115 ], !dbg !4363
  %117 = phi %"struct.HashMap<IPFlowID, MyIPRewriterEntry>::Elt"* [ %109, %111 ], [ %119, %115 ]
  call void @llvm.dbg.value(metadata %"struct.HashMap<IPFlowID, MyIPRewriterEntry>::Elt"* %117, metadata !4211, metadata !DIExpression()) #17, !dbg !4356
  %118 = getelementptr inbounds %"struct.HashMap<IPFlowID, MyIPRewriterEntry>::Elt", %"struct.HashMap<IPFlowID, MyIPRewriterEntry>::Elt"* %117, i64 0, i32 1, !dbg !4364
  %119 = load %"struct.HashMap<IPFlowID, MyIPRewriterEntry>::Elt"*, %"struct.HashMap<IPFlowID, MyIPRewriterEntry>::Elt"** %118, align 8, !dbg !4364, !tbaa !4239
  call void @llvm.dbg.value(metadata %"struct.HashMap<IPFlowID, MyIPRewriterEntry>::Elt"* %119, metadata !4214, metadata !DIExpression()) #17, !dbg !4357
  call void @llvm.dbg.value(metadata %class.HashMap_Arena* %112, metadata !4232, metadata !DIExpression()) #17, !dbg !4361
  call void @llvm.dbg.value(metadata %"struct.HashMap<IPFlowID, MyIPRewriterEntry>::Elt"* %117, metadata !4233, metadata !DIExpression()) #17, !dbg !4361
  call void @llvm.dbg.value(metadata %"struct.HashMap<IPFlowID, MyIPRewriterEntry>::Elt"* %117, metadata !4234, metadata !DIExpression()) #17, !dbg !4361
  %120 = bitcast %"struct.HashMap<IPFlowID, MyIPRewriterEntry>::Elt"* %117 to i64*, !dbg !4365
  store i64 %116, i64* %120, align 8, !dbg !4365, !tbaa !4242
  call void @llvm.dbg.value(metadata %"struct.HashMap<IPFlowID, MyIPRewriterEntry>::Elt"* %119, metadata !4211, metadata !DIExpression()) #17, !dbg !4356
  %121 = icmp eq %"struct.HashMap<IPFlowID, MyIPRewriterEntry>::Elt"* %119, null, !dbg !4360
  %122 = ptrtoint %"struct.HashMap<IPFlowID, MyIPRewriterEntry>::Elt"* %117 to i64, !dbg !4358
  br i1 %121, label %123, label %115, !dbg !4358, !llvm.loop !4366

123:                                              ; preds = %115
  call void @llvm.dbg.value(metadata %"struct.HashMap<IPFlowID, MyIPRewriterEntry>::Elt"* %117, metadata !4211, metadata !DIExpression()) #17, !dbg !4356
  call void @llvm.dbg.value(metadata %"struct.HashMap<IPFlowID, MyIPRewriterEntry>::Elt"* %117, metadata !4211, metadata !DIExpression()) #17, !dbg !4356
  call void @llvm.dbg.value(metadata %"struct.HashMap<IPFlowID, MyIPRewriterEntry>::Elt"* %117, metadata !4211, metadata !DIExpression()) #17, !dbg !4356
  call void @llvm.dbg.value(metadata %"struct.HashMap<IPFlowID, MyIPRewriterEntry>::Elt"* %117, metadata !4211, metadata !DIExpression()) #17, !dbg !4356
  %124 = bitcast %class.HashMap_Arena* %112 to %"struct.HashMap<IPFlowID, MyIPRewriterEntry>::Elt"**, !dbg !4361
  call void @llvm.dbg.value(metadata %"struct.HashMap<IPFlowID, MyIPRewriterEntry>::Elt"* %117, metadata !4211, metadata !DIExpression()) #17, !dbg !4356
  call void @llvm.dbg.value(metadata %"struct.HashMap<IPFlowID, MyIPRewriterEntry>::Elt"* %117, metadata !4211, metadata !DIExpression()) #17, !dbg !4356
  store %"struct.HashMap<IPFlowID, MyIPRewriterEntry>::Elt"* %117, %"struct.HashMap<IPFlowID, MyIPRewriterEntry>::Elt"** %124, align 8, !dbg !4368, !tbaa !4237
  br label %125, !dbg !4369

125:                                              ; preds = %123, %107, %104
  %126 = bitcast %"struct.HashMap<IPFlowID, MyIPRewriterEntry>::Elt"** %98 to i8*, !dbg !4353
  br label %127, !dbg !4355

127:                                              ; preds = %125, %93
  %128 = phi i8* [ %95, %93 ], [ %126, %125 ], !dbg !4355
  %129 = icmp eq i8* %128, null, !dbg !4355
  br i1 %129, label %156, label %155, !dbg !4355

130:                                              ; preds = %189, %102
  %131 = phi i64 [ 0, %102 ], [ %190, %189 ]
  %132 = phi i64 [ %103, %102 ], [ %191, %189 ]
  call void @llvm.dbg.value(metadata i64 %131, metadata !4208, metadata !DIExpression()) #17, !dbg !4350
  %133 = getelementptr inbounds %"struct.HashMap<IPFlowID, MyIPRewriterEntry>::Elt"*, %"struct.HashMap<IPFlowID, MyIPRewriterEntry>::Elt"** %98, i64 %131, !dbg !4359
  %134 = load %"struct.HashMap<IPFlowID, MyIPRewriterEntry>::Elt"*, %"struct.HashMap<IPFlowID, MyIPRewriterEntry>::Elt"** %133, align 8, !dbg !4359, !tbaa !4054
  call void @llvm.dbg.value(metadata %"struct.HashMap<IPFlowID, MyIPRewriterEntry>::Elt"* %134, metadata !4211, metadata !DIExpression()) #17, !dbg !4356
  %135 = icmp eq %"struct.HashMap<IPFlowID, MyIPRewriterEntry>::Elt"* %134, null, !dbg !4360
  br i1 %135, label %142, label %136, !dbg !4358

136:                                              ; preds = %130
  %137 = load %class.HashMap_Arena*, %class.HashMap_Arena** %99, align 8, !dbg !4357, !tbaa !4022
  %138 = bitcast %class.HashMap_Arena* %137 to i64*, !dbg !4361
  %139 = load i64, i64* %138, align 8, !dbg !4363, !tbaa !4237
  br label %147, !dbg !4358

140:                                              ; preds = %147
  call void @llvm.dbg.value(metadata %"struct.HashMap<IPFlowID, MyIPRewriterEntry>::Elt"* %149, metadata !4211, metadata !DIExpression()) #17, !dbg !4356
  call void @llvm.dbg.value(metadata %"struct.HashMap<IPFlowID, MyIPRewriterEntry>::Elt"* %149, metadata !4211, metadata !DIExpression()) #17, !dbg !4356
  call void @llvm.dbg.value(metadata %"struct.HashMap<IPFlowID, MyIPRewriterEntry>::Elt"* %149, metadata !4211, metadata !DIExpression()) #17, !dbg !4356
  call void @llvm.dbg.value(metadata %"struct.HashMap<IPFlowID, MyIPRewriterEntry>::Elt"* %149, metadata !4211, metadata !DIExpression()) #17, !dbg !4356
  %141 = bitcast %class.HashMap_Arena* %137 to %"struct.HashMap<IPFlowID, MyIPRewriterEntry>::Elt"**, !dbg !4361
  call void @llvm.dbg.value(metadata %"struct.HashMap<IPFlowID, MyIPRewriterEntry>::Elt"* %149, metadata !4211, metadata !DIExpression()) #17, !dbg !4356
  call void @llvm.dbg.value(metadata %"struct.HashMap<IPFlowID, MyIPRewriterEntry>::Elt"* %149, metadata !4211, metadata !DIExpression()) #17, !dbg !4356
  store %"struct.HashMap<IPFlowID, MyIPRewriterEntry>::Elt"* %149, %"struct.HashMap<IPFlowID, MyIPRewriterEntry>::Elt"** %141, align 8, !dbg !4368, !tbaa !4237
  br label %142, !dbg !4369

142:                                              ; preds = %140, %130
  %143 = or i64 %131, 1, !dbg !4369
  call void @llvm.dbg.value(metadata i64 %143, metadata !4208, metadata !DIExpression()) #17, !dbg !4350
  %144 = getelementptr inbounds %"struct.HashMap<IPFlowID, MyIPRewriterEntry>::Elt"*, %"struct.HashMap<IPFlowID, MyIPRewriterEntry>::Elt"** %98, i64 %143, !dbg !4359
  %145 = load %"struct.HashMap<IPFlowID, MyIPRewriterEntry>::Elt"*, %"struct.HashMap<IPFlowID, MyIPRewriterEntry>::Elt"** %144, align 8, !dbg !4359, !tbaa !4054
  call void @llvm.dbg.value(metadata %"struct.HashMap<IPFlowID, MyIPRewriterEntry>::Elt"* %145, metadata !4211, metadata !DIExpression()) #17, !dbg !4356
  %146 = icmp eq %"struct.HashMap<IPFlowID, MyIPRewriterEntry>::Elt"* %145, null, !dbg !4360
  br i1 %146, label %189, label %175, !dbg !4358

147:                                              ; preds = %147, %136
  %148 = phi i64 [ %139, %136 ], [ %154, %147 ], !dbg !4363
  %149 = phi %"struct.HashMap<IPFlowID, MyIPRewriterEntry>::Elt"* [ %134, %136 ], [ %151, %147 ]
  call void @llvm.dbg.value(metadata %"struct.HashMap<IPFlowID, MyIPRewriterEntry>::Elt"* %149, metadata !4211, metadata !DIExpression()) #17, !dbg !4356
  %150 = getelementptr inbounds %"struct.HashMap<IPFlowID, MyIPRewriterEntry>::Elt", %"struct.HashMap<IPFlowID, MyIPRewriterEntry>::Elt"* %149, i64 0, i32 1, !dbg !4364
  %151 = load %"struct.HashMap<IPFlowID, MyIPRewriterEntry>::Elt"*, %"struct.HashMap<IPFlowID, MyIPRewriterEntry>::Elt"** %150, align 8, !dbg !4364, !tbaa !4239
  call void @llvm.dbg.value(metadata %"struct.HashMap<IPFlowID, MyIPRewriterEntry>::Elt"* %151, metadata !4214, metadata !DIExpression()) #17, !dbg !4357
  call void @llvm.dbg.value(metadata %class.HashMap_Arena* %137, metadata !4232, metadata !DIExpression()) #17, !dbg !4361
  call void @llvm.dbg.value(metadata %"struct.HashMap<IPFlowID, MyIPRewriterEntry>::Elt"* %149, metadata !4233, metadata !DIExpression()) #17, !dbg !4361
  call void @llvm.dbg.value(metadata %"struct.HashMap<IPFlowID, MyIPRewriterEntry>::Elt"* %149, metadata !4234, metadata !DIExpression()) #17, !dbg !4361
  %152 = bitcast %"struct.HashMap<IPFlowID, MyIPRewriterEntry>::Elt"* %149 to i64*, !dbg !4365
  store i64 %148, i64* %152, align 8, !dbg !4365, !tbaa !4242
  call void @llvm.dbg.value(metadata %"struct.HashMap<IPFlowID, MyIPRewriterEntry>::Elt"* %151, metadata !4211, metadata !DIExpression()) #17, !dbg !4356
  %153 = icmp eq %"struct.HashMap<IPFlowID, MyIPRewriterEntry>::Elt"* %151, null, !dbg !4360
  %154 = ptrtoint %"struct.HashMap<IPFlowID, MyIPRewriterEntry>::Elt"* %149 to i64, !dbg !4358
  br i1 %153, label %140, label %147, !dbg !4358, !llvm.loop !4366

155:                                              ; preds = %127
  tail call void @_ZdaPv(i8* nonnull %128) #19, !dbg !4355
  br label %156, !dbg !4355

156:                                              ; preds = %155, %127
  %157 = getelementptr inbounds %class.MyIPRewriter, %class.MyIPRewriter* %0, i64 0, i32 3, i32 5, !dbg !4370
  %158 = load %class.HashMap_Arena*, %class.HashMap_Arena** %157, align 8, !dbg !4370, !tbaa !4022
  call void @llvm.dbg.value(metadata %class.HashMap_Arena* %158, metadata !4077, metadata !DIExpression()) #17, !dbg !4371
  %159 = getelementptr inbounds %class.HashMap_Arena, %class.HashMap_Arena* %158, i64 0, i32 7, !dbg !4373
  %160 = load i32, i32* %159, align 8, !dbg !4374, !tbaa !4084
  %161 = add i32 %160, -1, !dbg !4374
  store i32 %161, i32* %159, align 8, !dbg !4374, !tbaa !4084
  %162 = icmp ne i32 %161, 0, !dbg !4375
  %163 = icmp eq %class.HashMap_Arena* %158, null, !dbg !4376
  %164 = or i1 %163, %162, !dbg !4377
  br i1 %164, label %167, label %165, !dbg !4377

165:                                              ; preds = %156
  tail call void @_ZN13HashMap_ArenaD1Ev(%class.HashMap_Arena* nonnull %158) #17, !dbg !4376
  %166 = bitcast %class.HashMap_Arena* %158 to i8*, !dbg !4376
  tail call void @_ZdlPv(i8* %166) #19, !dbg !4376
  br label %167, !dbg !4376

167:                                              ; preds = %156, %165
  %168 = getelementptr inbounds %class.MyIPRewriter, %class.MyIPRewriter* %0, i64 0, i32 2, !dbg !4313
  call void @llvm.dbg.value(metadata %class.Vector.24* %168, metadata !4285, metadata !DIExpression()) #17, !dbg !4378
  call void @llvm.dbg.value(metadata %class.Vector.24* %168, metadata !4291, metadata !DIExpression()) #17, !dbg !4380
  %169 = bitcast %class.Vector.24* %168 to i8**, !dbg !4382
  %170 = load i8*, i8** %169, align 8, !dbg !4383, !tbaa !4301
  %171 = icmp eq i8* %170, null, !dbg !4383
  br i1 %171, label %173, label %172, !dbg !4383

172:                                              ; preds = %167
  tail call void @_ZdaPv(i8* nonnull %170) #19, !dbg !4383
  br label %173, !dbg !4383

173:                                              ; preds = %167, %172
  %174 = bitcast %class.MyIPRewriter* %0 to %class.TCPRewriter*, !dbg !4313
  tail call void @_ZN11TCPRewriterD2Ev(%class.TCPRewriter* %174) #17, !dbg !4313
  ret void, !dbg !4384

175:                                              ; preds = %142
  %176 = load %class.HashMap_Arena*, %class.HashMap_Arena** %99, align 8, !dbg !4357, !tbaa !4022
  %177 = bitcast %class.HashMap_Arena* %176 to i64*, !dbg !4361
  %178 = load i64, i64* %177, align 8, !dbg !4363, !tbaa !4237
  br label %179, !dbg !4358

179:                                              ; preds = %179, %175
  %180 = phi i64 [ %178, %175 ], [ %186, %179 ], !dbg !4363
  %181 = phi %"struct.HashMap<IPFlowID, MyIPRewriterEntry>::Elt"* [ %145, %175 ], [ %183, %179 ]
  call void @llvm.dbg.value(metadata %"struct.HashMap<IPFlowID, MyIPRewriterEntry>::Elt"* %181, metadata !4211, metadata !DIExpression()) #17, !dbg !4356
  %182 = getelementptr inbounds %"struct.HashMap<IPFlowID, MyIPRewriterEntry>::Elt", %"struct.HashMap<IPFlowID, MyIPRewriterEntry>::Elt"* %181, i64 0, i32 1, !dbg !4364
  %183 = load %"struct.HashMap<IPFlowID, MyIPRewriterEntry>::Elt"*, %"struct.HashMap<IPFlowID, MyIPRewriterEntry>::Elt"** %182, align 8, !dbg !4364, !tbaa !4239
  call void @llvm.dbg.value(metadata %"struct.HashMap<IPFlowID, MyIPRewriterEntry>::Elt"* %183, metadata !4214, metadata !DIExpression()) #17, !dbg !4357
  call void @llvm.dbg.value(metadata %class.HashMap_Arena* %176, metadata !4232, metadata !DIExpression()) #17, !dbg !4361
  call void @llvm.dbg.value(metadata %"struct.HashMap<IPFlowID, MyIPRewriterEntry>::Elt"* %181, metadata !4233, metadata !DIExpression()) #17, !dbg !4361
  call void @llvm.dbg.value(metadata %"struct.HashMap<IPFlowID, MyIPRewriterEntry>::Elt"* %181, metadata !4234, metadata !DIExpression()) #17, !dbg !4361
  %184 = bitcast %"struct.HashMap<IPFlowID, MyIPRewriterEntry>::Elt"* %181 to i64*, !dbg !4365
  store i64 %180, i64* %184, align 8, !dbg !4365, !tbaa !4242
  call void @llvm.dbg.value(metadata %"struct.HashMap<IPFlowID, MyIPRewriterEntry>::Elt"* %183, metadata !4211, metadata !DIExpression()) #17, !dbg !4356
  %185 = icmp eq %"struct.HashMap<IPFlowID, MyIPRewriterEntry>::Elt"* %183, null, !dbg !4360
  %186 = ptrtoint %"struct.HashMap<IPFlowID, MyIPRewriterEntry>::Elt"* %181 to i64, !dbg !4358
  br i1 %185, label %187, label %179, !dbg !4358, !llvm.loop !4366

187:                                              ; preds = %179
  call void @llvm.dbg.value(metadata %"struct.HashMap<IPFlowID, MyIPRewriterEntry>::Elt"* %181, metadata !4211, metadata !DIExpression()) #17, !dbg !4356
  call void @llvm.dbg.value(metadata %"struct.HashMap<IPFlowID, MyIPRewriterEntry>::Elt"* %181, metadata !4211, metadata !DIExpression()) #17, !dbg !4356
  call void @llvm.dbg.value(metadata %"struct.HashMap<IPFlowID, MyIPRewriterEntry>::Elt"* %181, metadata !4211, metadata !DIExpression()) #17, !dbg !4356
  call void @llvm.dbg.value(metadata %"struct.HashMap<IPFlowID, MyIPRewriterEntry>::Elt"* %181, metadata !4211, metadata !DIExpression()) #17, !dbg !4356
  %188 = bitcast %class.HashMap_Arena* %176 to %"struct.HashMap<IPFlowID, MyIPRewriterEntry>::Elt"**, !dbg !4361
  call void @llvm.dbg.value(metadata %"struct.HashMap<IPFlowID, MyIPRewriterEntry>::Elt"* %181, metadata !4211, metadata !DIExpression()) #17, !dbg !4356
  call void @llvm.dbg.value(metadata %"struct.HashMap<IPFlowID, MyIPRewriterEntry>::Elt"* %181, metadata !4211, metadata !DIExpression()) #17, !dbg !4356
  store %"struct.HashMap<IPFlowID, MyIPRewriterEntry>::Elt"* %181, %"struct.HashMap<IPFlowID, MyIPRewriterEntry>::Elt"** %188, align 8, !dbg !4368, !tbaa !4237
  br label %189, !dbg !4369

189:                                              ; preds = %187, %142
  %190 = add nuw i64 %131, 2, !dbg !4369
  call void @llvm.dbg.value(metadata i64 %190, metadata !4208, metadata !DIExpression()) #17, !dbg !4350
  %191 = add i64 %132, -2, !dbg !4353
  %192 = icmp eq i64 %191, 0, !dbg !4353
  br i1 %192, label %104, label %130, !dbg !4353, !llvm.loop !4385

193:                                              ; preds = %63
  %194 = load %class.HashMap_Arena*, %class.HashMap_Arena** %20, align 8, !dbg !4327, !tbaa !4022
  %195 = bitcast %class.HashMap_Arena* %194 to i64*, !dbg !4331
  %196 = load i64, i64* %195, align 8, !dbg !4333, !tbaa !4237
  br label %197, !dbg !4328

197:                                              ; preds = %197, %193
  %198 = phi i64 [ %196, %193 ], [ %204, %197 ], !dbg !4333
  %199 = phi %"struct.HashMap<IPFlowID, MyIPRewriterEntry>::Elt"* [ %66, %193 ], [ %201, %197 ]
  call void @llvm.dbg.value(metadata %"struct.HashMap<IPFlowID, MyIPRewriterEntry>::Elt"* %199, metadata !4211, metadata !DIExpression()) #17, !dbg !4326
  %200 = getelementptr inbounds %"struct.HashMap<IPFlowID, MyIPRewriterEntry>::Elt", %"struct.HashMap<IPFlowID, MyIPRewriterEntry>::Elt"* %199, i64 0, i32 1, !dbg !4334
  %201 = load %"struct.HashMap<IPFlowID, MyIPRewriterEntry>::Elt"*, %"struct.HashMap<IPFlowID, MyIPRewriterEntry>::Elt"** %200, align 8, !dbg !4334, !tbaa !4239
  call void @llvm.dbg.value(metadata %"struct.HashMap<IPFlowID, MyIPRewriterEntry>::Elt"* %201, metadata !4214, metadata !DIExpression()) #17, !dbg !4327
  call void @llvm.dbg.value(metadata %class.HashMap_Arena* %194, metadata !4232, metadata !DIExpression()) #17, !dbg !4331
  call void @llvm.dbg.value(metadata %"struct.HashMap<IPFlowID, MyIPRewriterEntry>::Elt"* %199, metadata !4233, metadata !DIExpression()) #17, !dbg !4331
  call void @llvm.dbg.value(metadata %"struct.HashMap<IPFlowID, MyIPRewriterEntry>::Elt"* %199, metadata !4234, metadata !DIExpression()) #17, !dbg !4331
  %202 = bitcast %"struct.HashMap<IPFlowID, MyIPRewriterEntry>::Elt"* %199 to i64*, !dbg !4335
  store i64 %198, i64* %202, align 8, !dbg !4335, !tbaa !4242
  call void @llvm.dbg.value(metadata %"struct.HashMap<IPFlowID, MyIPRewriterEntry>::Elt"* %201, metadata !4211, metadata !DIExpression()) #17, !dbg !4326
  %203 = icmp eq %"struct.HashMap<IPFlowID, MyIPRewriterEntry>::Elt"* %201, null, !dbg !4330
  %204 = ptrtoint %"struct.HashMap<IPFlowID, MyIPRewriterEntry>::Elt"* %199 to i64, !dbg !4328
  br i1 %203, label %205, label %197, !dbg !4328, !llvm.loop !4336

205:                                              ; preds = %197
  call void @llvm.dbg.value(metadata %"struct.HashMap<IPFlowID, MyIPRewriterEntry>::Elt"* %199, metadata !4211, metadata !DIExpression()) #17, !dbg !4326
  call void @llvm.dbg.value(metadata %"struct.HashMap<IPFlowID, MyIPRewriterEntry>::Elt"* %199, metadata !4211, metadata !DIExpression()) #17, !dbg !4326
  call void @llvm.dbg.value(metadata %"struct.HashMap<IPFlowID, MyIPRewriterEntry>::Elt"* %199, metadata !4211, metadata !DIExpression()) #17, !dbg !4326
  call void @llvm.dbg.value(metadata %"struct.HashMap<IPFlowID, MyIPRewriterEntry>::Elt"* %199, metadata !4211, metadata !DIExpression()) #17, !dbg !4326
  %206 = bitcast %class.HashMap_Arena* %194 to %"struct.HashMap<IPFlowID, MyIPRewriterEntry>::Elt"**, !dbg !4331
  call void @llvm.dbg.value(metadata %"struct.HashMap<IPFlowID, MyIPRewriterEntry>::Elt"* %199, metadata !4211, metadata !DIExpression()) #17, !dbg !4326
  call void @llvm.dbg.value(metadata %"struct.HashMap<IPFlowID, MyIPRewriterEntry>::Elt"* %199, metadata !4211, metadata !DIExpression()) #17, !dbg !4326
  store %"struct.HashMap<IPFlowID, MyIPRewriterEntry>::Elt"* %199, %"struct.HashMap<IPFlowID, MyIPRewriterEntry>::Elt"** %206, align 8, !dbg !4338, !tbaa !4237
  br label %207, !dbg !4339

207:                                              ; preds = %205, %63
  %208 = add nuw i64 %52, 2, !dbg !4339
  call void @llvm.dbg.value(metadata i64 %208, metadata !4208, metadata !DIExpression()) #17, !dbg !4320
  %209 = add i64 %53, -2, !dbg !4323
  %210 = icmp eq i64 %209, 0, !dbg !4323
  br i1 %210, label %25, label %51, !dbg !4323, !llvm.loop !4387
}

; Function Attrs: nounwind
declare void @_ZN13HashAllocatorD2Ev(%class.HashAllocator*) unnamed_addr #3

; Function Attrs: nounwind sspstrong uwtable
define dso_local void @_ZN12MyIPRewriterD0Ev(%class.MyIPRewriter* %0) unnamed_addr #4 align 2 !dbg !4389 {
  call void @llvm.dbg.value(metadata %class.MyIPRewriter* %0, metadata !4391, metadata !DIExpression()), !dbg !4392
  tail call void @_ZN12MyIPRewriterD2Ev(%class.MyIPRewriter* %0) #17, !dbg !4393
  %2 = bitcast %class.MyIPRewriter* %0 to i8*, !dbg !4393
  tail call void @_ZdlPv(i8* %2) #19, !dbg !4393
  ret void, !dbg !4394
}

; Function Attrs: nobuiltin nounwind
declare void @_ZdlPv(i8*) local_unnamed_addr #5

; Function Attrs: nounwind readonly sspstrong uwtable
define dso_local i8* @_ZN12MyIPRewriter4castEPKc(%class.MyIPRewriter* readnone %0, i8* nocapture readonly %1) unnamed_addr #6 align 2 !dbg !4395 {
  call void @llvm.dbg.value(metadata %class.MyIPRewriter* %0, metadata !4397, metadata !DIExpression()), !dbg !4399
  call void @llvm.dbg.value(metadata i8* %1, metadata !4398, metadata !DIExpression()), !dbg !4399
  %3 = tail call i32 @strcmp(i8* nonnull dereferenceable(1) %1, i8* nonnull dereferenceable(15) getelementptr inbounds ([15 x i8], [15 x i8]* @.str, i64 0, i64 0)) #20, !dbg !4400
  %4 = icmp eq i32 %3, 0, !dbg !4402
  br i1 %4, label %13, label %5, !dbg !4403

5:                                                ; preds = %2
  %6 = tail call i32 @strcmp(i8* nonnull dereferenceable(1) %1, i8* nonnull dereferenceable(12) getelementptr inbounds ([12 x i8], [12 x i8]* @.str.1, i64 0, i64 0)) #20, !dbg !4404
  %7 = icmp eq i32 %6, 0, !dbg !4406
  br i1 %7, label %13, label %8, !dbg !4407

8:                                                ; preds = %5
  %9 = tail call i32 @strcmp(i8* nonnull dereferenceable(1) %1, i8* nonnull dereferenceable(13) getelementptr inbounds ([13 x i8], [13 x i8]* @.str.2, i64 0, i64 0)) #20, !dbg !4408
  %10 = icmp eq i32 %9, 0, !dbg !4410
  %11 = bitcast %class.MyIPRewriter* %0 to i8*, !dbg !4411
  %12 = select i1 %10, i8* %11, i8* null, !dbg !4412
  ret i8* %12, !dbg !4412

13:                                               ; preds = %5, %2
  %14 = bitcast %class.MyIPRewriter* %0 to i8*, !dbg !4413
  ret i8* %14, !dbg !4414
}

; Function Attrs: nofree nounwind readonly
declare i32 @strcmp(i8* nocapture, i8* nocapture) local_unnamed_addr #7

; Function Attrs: sspstrong uwtable
define dso_local i32 @_ZN12MyIPRewriter9configureER6VectorI6StringEP12ErrorHandler(%class.MyIPRewriter* %0, %class.Vector.0* dereferenceable(16) %1, %class.ErrorHandler* %2) unnamed_addr #0 align 2 personality i8* bitcast (i32 (...)* @__gxx_personality_v0 to i8*) !dbg !4415 {
  %4 = alloca %class.Args, align 8
  %5 = alloca %class.MyInputSpec, align 4
  call void @llvm.dbg.declare(metadata <{ i32, i8, [3 x i8] }>* undef, metadata !4433, metadata !DIExpression(DW_OP_LLVM_fragment, 128, 64)), !dbg !4439
  call void @llvm.dbg.value(metadata %class.MyIPRewriter* %0, metadata !4417, metadata !DIExpression()), !dbg !4440
  call void @llvm.dbg.value(metadata %class.Vector.0* %1, metadata !4418, metadata !DIExpression()), !dbg !4440
  call void @llvm.dbg.value(metadata %class.ErrorHandler* %2, metadata !4419, metadata !DIExpression()), !dbg !4440
  call void @llvm.dbg.value(metadata i8 0, metadata !4420, metadata !DIExpression()), !dbg !4440
  %6 = getelementptr inbounds %class.MyIPRewriter, %class.MyIPRewriter* %0, i64 0, i32 7, i64 0, !dbg !4441
  store i32 300, i32* %6, align 8, !dbg !4442, !tbaa !4182
  %7 = getelementptr inbounds %class.MyIPRewriter, %class.MyIPRewriter* %0, i64 0, i32 7, i64 1, !dbg !4443
  store i32 5, i32* %7, align 4, !dbg !4444, !tbaa !4182
  %8 = bitcast %class.Args* %4 to i8*, !dbg !4445
  call void @llvm.lifetime.start.p0i8(i64 112, i8* nonnull %8) #17, !dbg !4445
  %9 = bitcast %class.MyIPRewriter* %0 to %class.Element*, !dbg !4447
  call void @_ZN4ArgsC1EPK7ElementP12ErrorHandler(%class.Args* nonnull %4, %class.Element* %9, %class.ErrorHandler* %2), !dbg !4445
  %10 = invoke dereferenceable(112) %class.Args* @_ZN4Args4bindER6VectorI6StringE(%class.Args* nonnull %4, %class.Vector.0* nonnull dereferenceable(16) %1)
          to label %11 unwind label %21, !dbg !4448

11:                                               ; preds = %3
  call void @llvm.dbg.value(metadata i64 0, metadata !4449, metadata !DIExpression()), !dbg !4458
  call void @llvm.dbg.value(metadata %class.Args* %10, metadata !4455, metadata !DIExpression()), !dbg !4458
  call void @llvm.dbg.value(metadata i8* getelementptr inbounds ([12 x i8], [12 x i8]* @.str.3, i64 0, i64 0), metadata !4456, metadata !DIExpression()), !dbg !4458
  call void @llvm.dbg.value(metadata i32* %6, metadata !4457, metadata !DIExpression()), !dbg !4458
  call void @llvm.dbg.value(metadata i64 0, metadata !4460, metadata !DIExpression()), !dbg !4470
  call void @llvm.dbg.value(metadata %class.Args* %10, metadata !4466, metadata !DIExpression()), !dbg !4470
  call void @llvm.dbg.value(metadata i8* getelementptr inbounds ([12 x i8], [12 x i8]* @.str.3, i64 0, i64 0), metadata !4467, metadata !DIExpression()), !dbg !4470
  call void @llvm.dbg.value(metadata i32 0, metadata !4468, metadata !DIExpression()), !dbg !4470
  call void @llvm.dbg.value(metadata i32* %6, metadata !4469, metadata !DIExpression()), !dbg !4470
  invoke void @_Z14args_base_readI10SecondsArgjEvP4ArgsPKciT_RT0_(%class.Args* nonnull %10, i8* getelementptr inbounds ([12 x i8], [12 x i8]* @.str.3, i64 0, i64 0), i32 0, i64 0, i32* nonnull dereferenceable(4) %6)
          to label %12 unwind label %21, !dbg !4472

12:                                               ; preds = %11
  %13 = getelementptr inbounds %class.MyIPRewriter, %class.MyIPRewriter* %0, i64 0, i32 8, !dbg !4473
  call void @llvm.dbg.value(metadata i64 0, metadata !4449, metadata !DIExpression()), !dbg !4474
  call void @llvm.dbg.value(metadata %class.Args* %10, metadata !4455, metadata !DIExpression()), !dbg !4474
  call void @llvm.dbg.value(metadata i8* getelementptr inbounds ([22 x i8], [22 x i8]* @.str.4, i64 0, i64 0), metadata !4456, metadata !DIExpression()), !dbg !4474
  call void @llvm.dbg.value(metadata i32* %13, metadata !4457, metadata !DIExpression()), !dbg !4474
  call void @llvm.dbg.value(metadata i64 0, metadata !4460, metadata !DIExpression()), !dbg !4476
  call void @llvm.dbg.value(metadata %class.Args* %10, metadata !4466, metadata !DIExpression()), !dbg !4476
  call void @llvm.dbg.value(metadata i8* getelementptr inbounds ([22 x i8], [22 x i8]* @.str.4, i64 0, i64 0), metadata !4467, metadata !DIExpression()), !dbg !4476
  call void @llvm.dbg.value(metadata i32 0, metadata !4468, metadata !DIExpression()), !dbg !4476
  call void @llvm.dbg.value(metadata i32* %13, metadata !4469, metadata !DIExpression()), !dbg !4476
  invoke void @_Z14args_base_readI10SecondsArgjEvP4ArgsPKciT_RT0_(%class.Args* nonnull %10, i8* getelementptr inbounds ([22 x i8], [22 x i8]* @.str.4, i64 0, i64 0), i32 0, i64 0, i32* nonnull dereferenceable(4) %13)
          to label %14 unwind label %21, !dbg !4478

14:                                               ; preds = %12
  call void @llvm.dbg.value(metadata %class.Args* %10, metadata !4479, metadata !DIExpression()), !dbg !4483
  %15 = getelementptr inbounds %class.Args, %class.Args* %10, i64 0, i32 0, i32 3, !dbg !4485
  %16 = load i8, i8* %15, align 8, !dbg !4485, !tbaa !4486, !range !4488
  call void @llvm.dbg.value(metadata i64 0, metadata !4449, metadata !DIExpression()), !dbg !4489
  call void @llvm.dbg.value(metadata %class.Args* %10, metadata !4455, metadata !DIExpression()), !dbg !4489
  call void @llvm.dbg.value(metadata i8* getelementptr inbounds ([14 x i8], [14 x i8]* @.str.5, i64 0, i64 0), metadata !4456, metadata !DIExpression()), !dbg !4489
  call void @llvm.dbg.value(metadata i32* %7, metadata !4457, metadata !DIExpression()), !dbg !4489
  call void @llvm.dbg.value(metadata i64 0, metadata !4460, metadata !DIExpression()), !dbg !4491
  call void @llvm.dbg.value(metadata %class.Args* %10, metadata !4466, metadata !DIExpression()), !dbg !4491
  call void @llvm.dbg.value(metadata i8* getelementptr inbounds ([14 x i8], [14 x i8]* @.str.5, i64 0, i64 0), metadata !4467, metadata !DIExpression()), !dbg !4491
  call void @llvm.dbg.value(metadata i32 0, metadata !4468, metadata !DIExpression()), !dbg !4491
  call void @llvm.dbg.value(metadata i32* %7, metadata !4469, metadata !DIExpression()), !dbg !4491
  invoke void @_Z14args_base_readI10SecondsArgjEvP4ArgsPKciT_RT0_(%class.Args* nonnull %10, i8* getelementptr inbounds ([14 x i8], [14 x i8]* @.str.5, i64 0, i64 0), i32 0, i64 0, i32* nonnull dereferenceable(4) %7)
          to label %17 unwind label %21, !dbg !4493

17:                                               ; preds = %14
  %18 = invoke i32 @_ZN4Args7consumeEv(%class.Args* nonnull %10)
          to label %19 unwind label %21, !dbg !4494

19:                                               ; preds = %17
  %20 = icmp slt i32 %18, 0, !dbg !4495
  call void @_ZN4ArgsD1Ev(%class.Args* nonnull %4) #17, !dbg !4445
  call void @llvm.lifetime.end.p0i8(i64 112, i8* nonnull %8) #17, !dbg !4445
  br i1 %20, label %121, label %23, !dbg !4496

21:                                               ; preds = %12, %14, %11, %17, %3
  %22 = landingpad { i8*, i32 }
          cleanup, !dbg !4497
  call void @_ZN4ArgsD1Ev(%class.Args* nonnull %4) #17, !dbg !4445
  call void @llvm.lifetime.end.p0i8(i64 112, i8* nonnull %8) #17, !dbg !4445
  resume { i8*, i32 } %22, !dbg !4498

23:                                               ; preds = %19
  call void @llvm.dbg.value(metadata i8 %16, metadata !4420, metadata !DIExpression()), !dbg !4440
  %24 = icmp eq i8 %16, 0, !dbg !4499
  %25 = load i32, i32* %6, align 8, !dbg !4440, !tbaa !4182
  br i1 %24, label %28, label %26, !dbg !4501

26:                                               ; preds = %23
  %27 = load i32, i32* %13, align 8, !dbg !4502, !tbaa !4503
  br label %29, !dbg !4501

28:                                               ; preds = %23
  store i32 %25, i32* %13, align 8, !dbg !4507, !tbaa !4503
  br label %29, !dbg !4508

29:                                               ; preds = %26, %28
  %30 = phi i32 [ %27, %26 ], [ %25, %28 ], !dbg !4502
  %31 = mul i32 %25, 1000, !dbg !4509
  store i32 %31, i32* %6, align 8, !dbg !4509, !tbaa !4182
  %32 = load i32, i32* %7, align 4, !dbg !4510, !tbaa !4182
  %33 = mul i32 %32, 1000, !dbg !4510
  store i32 %33, i32* %7, align 4, !dbg !4510, !tbaa !4182
  %34 = mul i32 %30, 1000, !dbg !4502
  store i32 %34, i32* %13, align 8, !dbg !4502, !tbaa !4503
  %35 = bitcast %class.MyIPRewriter* %0 to %class.TCPRewriter*, !dbg !4511
  %36 = call i32 @_ZN11TCPRewriter9configureER6VectorI6StringEP12ErrorHandler(%class.TCPRewriter* %35, %class.Vector.0* nonnull dereferenceable(16) %1, %class.ErrorHandler* %2), !dbg !4511
  call void @llvm.dbg.value(metadata i32 %36, metadata !4421, metadata !DIExpression()), !dbg !4440
  %37 = getelementptr inbounds %class.MyIPRewriter, %class.MyIPRewriter* %0, i64 0, i32 2, !dbg !4512
  call void @llvm.dbg.value(metadata %class.Vector.24* %37, metadata !4513, metadata !DIExpression()), !dbg !4516
  call void @llvm.dbg.value(metadata %class.Vector.24* %37, metadata !4518, metadata !DIExpression()), !dbg !4521
  %38 = getelementptr inbounds %class.MyIPRewriter, %class.MyIPRewriter* %0, i64 0, i32 2, i32 0, i32 1, !dbg !4523
  store i32 0, i32* %38, align 8, !dbg !4524, !tbaa !4525
  call void @llvm.dbg.value(metadata i32 0, metadata !4422, metadata !DIExpression()), !dbg !4526
  call void @llvm.dbg.value(metadata i32 undef, metadata !4433, metadata !DIExpression(DW_OP_LLVM_fragment, 96, 32)), !dbg !4527
  call void @llvm.dbg.value(metadata i32 undef, metadata !4433, metadata !DIExpression(DW_OP_LLVM_fragment, 64, 32)), !dbg !4527
  call void @llvm.dbg.value(metadata i32 undef, metadata !4433, metadata !DIExpression(DW_OP_LLVM_fragment, 32, 32)), !dbg !4527
  call void @llvm.dbg.value(metadata i32 undef, metadata !4433, metadata !DIExpression(DW_OP_LLVM_fragment, 0, 32)), !dbg !4527
  call void @llvm.dbg.value(metadata %class.MyIPRewriter* %0, metadata !4528, metadata !DIExpression(DW_OP_plus_uconst, 144, DW_OP_stack_value)), !dbg !4709
  %39 = getelementptr inbounds %class.MyIPRewriter, %class.MyIPRewriter* %0, i64 0, i32 0, i32 0, i32 2, i32 0, i32 1, !dbg !4711
  %40 = load i32, i32* %39, align 8, !dbg !4711, !tbaa !4712
  %41 = icmp sgt i32 %40, 0, !dbg !4715
  br i1 %41, label %42, label %121, !dbg !4716

42:                                               ; preds = %29
  %43 = getelementptr inbounds %class.MyIPRewriter, %class.MyIPRewriter* %0, i64 0, i32 0, i32 0, i32 2, !dbg !4717
  %44 = bitcast %class.MyInputSpec* %5 to i8*, !dbg !4718
  %45 = getelementptr inbounds %class.MyInputSpec, %class.MyInputSpec* %5, i64 0, i32 3, !dbg !4719
  %46 = bitcast %class.MyRewriterPattern* %45 to i8*, !dbg !4727
  %47 = getelementptr inbounds %class.MyInputSpec, %class.MyInputSpec* %5, i64 0, i32 0, !dbg !4718
  %48 = getelementptr inbounds %class.MyInputSpec, %class.MyInputSpec* %5, i64 0, i32 1, !dbg !4718
  %49 = getelementptr inbounds %class.MyInputSpec, %class.MyInputSpec* %5, i64 0, i32 3, i32 0, i32 0, !dbg !4527
  %50 = getelementptr inbounds %class.MyInputSpec, %class.MyInputSpec* %5, i64 0, i32 3, i32 1, !dbg !4527
  %51 = getelementptr inbounds %class.MyInputSpec, %class.MyInputSpec* %5, i64 0, i32 3, i32 2, i32 0, !dbg !4527
  %52 = getelementptr inbounds %class.MyInputSpec, %class.MyInputSpec* %5, i64 0, i32 3, i32 3, !dbg !4527
  %53 = getelementptr inbounds %class.MyInputSpec, %class.MyInputSpec* %5, i64 0, i32 3, i32 4, !dbg !4527
  %54 = bitcast i32* %53 to i8*, !dbg !4527
  %55 = getelementptr inbounds %class.MyIPRewriter, %class.MyIPRewriter* %0, i64 0, i32 2, i32 0, i32 2, !dbg !4733
  %56 = bitcast %class.MyInputSpec* %5 to %struct.char_array.26*, !dbg !4745
  %57 = getelementptr inbounds %class.Vector.24, %class.Vector.24* %37, i64 0, i32 0, !dbg !4753
  %58 = getelementptr inbounds %class.Vector.24, %class.Vector.24* %37, i64 0, i32 0, i32 0, !dbg !4754
  br label %62, !dbg !4716

59:                                               ; preds = %99
  %60 = load i32, i32* %38, align 8, !dbg !4756, !tbaa !4762
  %61 = icmp sgt i32 %60, 0, !dbg !4756
  call void @llvm.dbg.value(metadata i32 0, metadata !4434, metadata !DIExpression()), !dbg !4763
  call void @llvm.dbg.value(metadata %class.Vector.24* %37, metadata !4759, metadata !DIExpression()), !dbg !4764
  br i1 %61, label %103, label %121, !dbg !4765

62:                                               ; preds = %42, %99
  %63 = phi i32 [ 0, %42 ], [ %100, %99 ]
  call void @llvm.dbg.value(metadata i32 %63, metadata !4422, metadata !DIExpression()), !dbg !4526
  call void @llvm.dbg.value(metadata %class.Vector.13* %43, metadata !4528, metadata !DIExpression()), !dbg !4709
  %64 = call dereferenceable(56) %class.IPRewriterInput* @_ZN6VectorI15IPRewriterInputEixEi(%class.Vector.13* nonnull %43, i32 %63), !dbg !4766
  call void @llvm.dbg.value(metadata %class.IPRewriterInput* %64, metadata !4424, metadata !DIExpression()), !dbg !4718
  call void @llvm.lifetime.start.p0i8(i64 40, i8* nonnull %44) #17, !dbg !4767
  call void @llvm.dbg.declare(metadata %class.MyInputSpec* %5, metadata !4429, metadata !DIExpression()), !dbg !4768
  call void @llvm.dbg.value(metadata %class.MyInputSpec* %5, metadata !4725, metadata !DIExpression()), !dbg !4719
  call void @llvm.dbg.value(metadata %class.MyRewriterPattern* %45, metadata !4730, metadata !DIExpression()), !dbg !4727
  call void @llvm.memset.p0i8.i64(i8* nonnull align 4 dereferenceable(21) %46, i8 0, i64 21, i1 false), !dbg !4769
  %65 = getelementptr inbounds %class.IPRewriterInput, %class.IPRewriterInput* %64, i64 0, i32 2, !dbg !4770
  %66 = load i32, i32* %65, align 4, !dbg !4770, !tbaa !4771
  store i32 %66, i32* %47, align 4, !dbg !4773, !tbaa !4774
  %67 = getelementptr inbounds %class.IPRewriterInput, %class.IPRewriterInput* %64, i64 0, i32 3, !dbg !4777
  %68 = load i32, i32* %67, align 8, !dbg !4777, !tbaa !4778
  store i32 %68, i32* %48, align 4, !dbg !4779, !tbaa !4780
  %69 = icmp eq i32 %66, 3, !dbg !4781
  br i1 %69, label %70, label %87, !dbg !4782

70:                                               ; preds = %62
  %71 = getelementptr inbounds %class.IPRewriterInput, %class.IPRewriterInput* %64, i64 0, i32 8, i32 0, !dbg !4783
  %72 = bitcast %class.IPRewriterPattern** %71 to i8**, !dbg !4783
  %73 = load i8*, i8** %72, align 8, !dbg !4783, !tbaa !4183
  %74 = bitcast i8* %73 to i32*, !dbg !4784
  %75 = load i32, i32* %74, align 4, !dbg !4784, !tbaa.struct !4785
  call void @llvm.dbg.value(metadata i32 %75, metadata !4430, metadata !DIExpression(DW_OP_LLVM_fragment, 0, 32)), !dbg !4527
  %76 = getelementptr inbounds i8, i8* %73, i64 4, !dbg !4784
  %77 = bitcast i8* %76 to i32*, !dbg !4784
  %78 = load i32, i32* %77, align 4, !dbg !4784, !tbaa.struct !4785
  call void @llvm.dbg.value(metadata i32 %78, metadata !4430, metadata !DIExpression(DW_OP_LLVM_fragment, 32, 32)), !dbg !4527
  %79 = getelementptr inbounds i8, i8* %73, i64 8, !dbg !4784
  %80 = bitcast i8* %79 to i16*, !dbg !4784
  %81 = load i16, i16* %80, align 4, !dbg !4784, !tbaa.struct !4785
  call void @llvm.dbg.value(metadata i16 %81, metadata !4430, metadata !DIExpression(DW_OP_LLVM_fragment, 64, 16)), !dbg !4527
  %82 = getelementptr inbounds i8, i8* %73, i64 10, !dbg !4784
  %83 = bitcast i8* %82 to i16*, !dbg !4784
  %84 = load i16, i16* %83, align 2, !dbg !4784, !tbaa.struct !4785
  call void @llvm.dbg.value(metadata i16 %84, metadata !4430, metadata !DIExpression(DW_OP_LLVM_fragment, 80, 16)), !dbg !4527
  call void @llvm.dbg.value(metadata %class.MyRewriterPattern* undef, metadata !4730, metadata !DIExpression()), !dbg !4787
  call void @llvm.dbg.value(metadata i32 0, metadata !4433, metadata !DIExpression(DW_OP_LLVM_fragment, 0, 32)), !dbg !4527
  call void @llvm.dbg.value(metadata i32 0, metadata !4433, metadata !DIExpression(DW_OP_LLVM_fragment, 32, 32)), !dbg !4527
  call void @llvm.dbg.value(metadata i32 0, metadata !4433, metadata !DIExpression(DW_OP_LLVM_fragment, 64, 32)), !dbg !4527
  call void @llvm.dbg.value(metadata i32 0, metadata !4433, metadata !DIExpression(DW_OP_LLVM_fragment, 96, 32)), !dbg !4527
  call void @llvm.dbg.value(metadata i32 %75, metadata !4433, metadata !DIExpression(DW_OP_LLVM_fragment, 0, 32)), !dbg !4527
  call void @llvm.dbg.value(metadata i32 %78, metadata !4433, metadata !DIExpression(DW_OP_LLVM_fragment, 64, 32)), !dbg !4527
  %85 = zext i16 %81 to i32, !dbg !4789
  call void @llvm.dbg.value(metadata i32 %85, metadata !4433, metadata !DIExpression(DW_OP_LLVM_fragment, 32, 32)), !dbg !4527
  %86 = zext i16 %84 to i32, !dbg !4790
  call void @llvm.dbg.value(metadata i32 %86, metadata !4433, metadata !DIExpression(DW_OP_LLVM_fragment, 96, 32)), !dbg !4527
  store i32 %75, i32* %49, align 4, !dbg !4791, !tbaa.struct !4792
  store i32 %85, i32* %50, align 4, !dbg !4791, !tbaa.struct !4792
  store i32 %78, i32* %51, align 4, !dbg !4791, !tbaa.struct !4792
  store i32 %86, i32* %52, align 4, !dbg !4791, !tbaa.struct !4792
  call void @llvm.memset.p0i8.i64(i8* nonnull align 4 dereferenceable(5) %54, i8 0, i64 5, i1 false), !dbg !4791
  br label %87, !dbg !4794

87:                                               ; preds = %70, %62
  call void @llvm.dbg.value(metadata i32 undef, metadata !4433, metadata !DIExpression(DW_OP_LLVM_fragment, 96, 32)), !dbg !4527
  call void @llvm.dbg.value(metadata i32 undef, metadata !4433, metadata !DIExpression(DW_OP_LLVM_fragment, 64, 32)), !dbg !4527
  call void @llvm.dbg.value(metadata i32 undef, metadata !4433, metadata !DIExpression(DW_OP_LLVM_fragment, 32, 32)), !dbg !4527
  call void @llvm.dbg.value(metadata i32 undef, metadata !4433, metadata !DIExpression(DW_OP_LLVM_fragment, 0, 32)), !dbg !4527
  call void @llvm.dbg.value(metadata %class.Vector.24* %37, metadata !4742, metadata !DIExpression()), !dbg !4753
  call void @llvm.dbg.value(metadata %class.MyInputSpec* %5, metadata !4743, metadata !DIExpression()), !dbg !4753
  call void @llvm.dbg.value(metadata %class.MyInputSpec* %5, metadata !4751, metadata !DIExpression()), !dbg !4745
  call void @llvm.dbg.value(metadata %class.Vector.24* %37, metadata !4737, metadata !DIExpression()), !dbg !4795
  call void @llvm.dbg.value(metadata %class.MyInputSpec* %5, metadata !4738, metadata !DIExpression()), !dbg !4795
  %88 = load i32, i32* %38, align 8, !dbg !4796, !tbaa !4525
  %89 = load i32, i32* %55, align 4, !dbg !4797, !tbaa !4798
  %90 = icmp slt i32 %88, %89, !dbg !4799
  br i1 %90, label %91, label %97, !dbg !4800

91:                                               ; preds = %87
  %92 = load %struct.char_array.26*, %struct.char_array.26** %58, align 8, !dbg !4801, !tbaa !4301
  %93 = sext i32 %88 to i64, !dbg !4802
  %94 = getelementptr inbounds %struct.char_array.26, %struct.char_array.26* %92, i64 %93, i32 0, i64 0, !dbg !4803
  call void @llvm.dbg.value(metadata i8* %44, metadata !4804, metadata !DIExpression()) #17, !dbg !4809
  call void @llvm.dbg.value(metadata i8* %94, metadata !4807, metadata !DIExpression()) #17, !dbg !4809
  call void @llvm.dbg.value(metadata i64 undef, metadata !4808, metadata !DIExpression()) #17, !dbg !4809
  call void @llvm.memcpy.p0i8.p0i8.i64(i8* nonnull align 1 dereferenceable(40) %94, i8* nonnull align 4 dereferenceable(40) %44, i64 40, i1 false) #17, !dbg !4811
  call void @llvm.dbg.value(metadata i64 undef, metadata !4808, metadata !DIExpression(DW_OP_constu, 1, DW_OP_minus, DW_OP_stack_value)) #17, !dbg !4809
  %95 = load i32, i32* %38, align 8, !dbg !4814, !tbaa !4525
  %96 = add nsw i32 %95, 1, !dbg !4814
  store i32 %96, i32* %38, align 8, !dbg !4814, !tbaa !4525
  br label %99, !dbg !4815

97:                                               ; preds = %87
  call void @llvm.dbg.value(metadata %struct.char_array.26* %56, metadata !4738, metadata !DIExpression()), !dbg !4795
  call void @llvm.dbg.value(metadata %class.vector_memory.25* %57, metadata !4737, metadata !DIExpression()), !dbg !4795
  %98 = call zeroext i1 @_ZN13vector_memoryI18sized_array_memoryILm40EEE21reserve_and_push_backEiPK10char_arrayILm40EE(%class.vector_memory.25* nonnull %57, i32 -1, %struct.char_array.26* nonnull %56), !dbg !4816
  br label %99

99:                                               ; preds = %91, %97
  call void @llvm.lifetime.end.p0i8(i64 40, i8* nonnull %44) #17, !dbg !4817
  %100 = add nuw nsw i32 %63, 1, !dbg !4818
  call void @llvm.dbg.value(metadata i32 undef, metadata !4433, metadata !DIExpression(DW_OP_LLVM_fragment, 96, 32)), !dbg !4527
  call void @llvm.dbg.value(metadata i32 undef, metadata !4433, metadata !DIExpression(DW_OP_LLVM_fragment, 64, 32)), !dbg !4527
  call void @llvm.dbg.value(metadata i32 undef, metadata !4433, metadata !DIExpression(DW_OP_LLVM_fragment, 32, 32)), !dbg !4527
  call void @llvm.dbg.value(metadata i32 undef, metadata !4433, metadata !DIExpression(DW_OP_LLVM_fragment, 0, 32)), !dbg !4527
  call void @llvm.dbg.value(metadata i32 %100, metadata !4422, metadata !DIExpression()), !dbg !4526
  call void @llvm.dbg.value(metadata %class.MyIPRewriter* %0, metadata !4528, metadata !DIExpression(DW_OP_plus_uconst, 144, DW_OP_stack_value)), !dbg !4709
  %101 = load i32, i32* %39, align 8, !dbg !4711, !tbaa !4712
  %102 = icmp slt i32 %100, %101, !dbg !4715
  br i1 %102, label %62, label %59, !dbg !4716, !llvm.loop !4819

103:                                              ; preds = %59, %116
  %104 = phi i32 [ %118, %116 ], [ 0, %59 ]
  call void @llvm.dbg.value(metadata i32 %104, metadata !4434, metadata !DIExpression()), !dbg !4763
  %105 = call dereferenceable(40) %class.MyInputSpec* @_ZN6VectorI11MyInputSpecEixEi(%class.Vector.24* nonnull %37, i32 %104), !dbg !4821
  call void @llvm.dbg.value(metadata %class.MyInputSpec* %105, metadata !4436, metadata !DIExpression()), !dbg !4822
  %106 = getelementptr inbounds %class.MyInputSpec, %class.MyInputSpec* %105, i64 0, i32 0, !dbg !4823
  %107 = load i32, i32* %106, align 4, !dbg !4823, !tbaa !4774
  %108 = getelementptr inbounds %class.MyInputSpec, %class.MyInputSpec* %105, i64 0, i32 1, !dbg !4824
  %109 = load i32, i32* %108, align 4, !dbg !4824, !tbaa !4780
  %110 = call i32 (i8*, ...) @printf(i8* nonnull dereferenceable(1) getelementptr inbounds ([22 x i8], [22 x i8]* @.str.6, i64 0, i64 0), i32 %104, i32 %107, i32 %109), !dbg !4825
  %111 = load i32, i32* %106, align 4, !dbg !4826, !tbaa !4774
  %112 = icmp eq i32 %111, 3, !dbg !4828
  br i1 %112, label %113, label %116, !dbg !4829

113:                                              ; preds = %103
  %114 = getelementptr inbounds %class.MyInputSpec, %class.MyInputSpec* %105, i64 0, i32 3, !dbg !4830
  %115 = bitcast %class.MyRewriterPattern* %114 to i8*, !dbg !4832
  call void @_Z15dump_memory_hexPvj(i8* nonnull %115, i32 24), !dbg !4833
  br label %116, !dbg !4834

116:                                              ; preds = %113, %103
  %117 = call i32 @puts(i8* nonnull dereferenceable(1) getelementptr inbounds ([7 x i8], [7 x i8]* @str, i64 0, i64 0)), !dbg !4835
  %118 = add nuw nsw i32 %104, 1, !dbg !4836
  call void @llvm.dbg.value(metadata i32 %118, metadata !4434, metadata !DIExpression()), !dbg !4763
  call void @llvm.dbg.value(metadata %class.Vector.24* %37, metadata !4759, metadata !DIExpression()), !dbg !4764
  %119 = load i32, i32* %38, align 8, !dbg !4756, !tbaa !4762
  %120 = icmp slt i32 %118, %119, !dbg !4837
  br i1 %120, label %103, label %121, !dbg !4765, !llvm.loop !4838

121:                                              ; preds = %116, %29, %59, %19
  %122 = phi i32 [ -1, %19 ], [ %36, %59 ], [ %36, %29 ], [ %36, %116 ], !dbg !4440
  ret i32 %122, !dbg !4498
}

; Function Attrs: argmemonly nounwind willreturn
declare void @llvm.lifetime.start.p0i8(i64 immarg, i8* nocapture) #8

declare void @_ZN4ArgsC1EPK7ElementP12ErrorHandler(%class.Args*, %class.Element*, %class.ErrorHandler*) unnamed_addr #2

declare dereferenceable(112) %class.Args* @_ZN4Args4bindER6VectorI6StringE(%class.Args*, %class.Vector.0* dereferenceable(16)) local_unnamed_addr #2

declare i32 @_ZN4Args7consumeEv(%class.Args*) local_unnamed_addr #2

; Function Attrs: nounwind
declare void @_ZN4ArgsD1Ev(%class.Args*) unnamed_addr #3

; Function Attrs: argmemonly nounwind willreturn
declare void @llvm.lifetime.end.p0i8(i64 immarg, i8* nocapture) #8

declare i32 @_ZN11TCPRewriter9configureER6VectorI6StringEP12ErrorHandler(%class.TCPRewriter*, %class.Vector.0* dereferenceable(16), %class.ErrorHandler*) unnamed_addr #2

declare dereferenceable(56) %class.IPRewriterInput* @_ZN6VectorI15IPRewriterInputEixEi(%class.Vector.13*, i32) local_unnamed_addr #2

; Function Attrs: argmemonly nounwind willreturn
declare void @llvm.memcpy.p0i8.p0i8.i64(i8* noalias nocapture writeonly, i8* noalias nocapture readonly, i64, i1 immarg) #8

declare dereferenceable(40) %class.MyInputSpec* @_ZN6VectorI11MyInputSpecEixEi(%class.Vector.24*, i32) local_unnamed_addr #2

; Function Attrs: nofree nounwind
declare i32 @printf(i8* nocapture readonly, ...) local_unnamed_addr #9

declare !dbg !2633 void @_Z15dump_memory_hexPvj(i8*, i32) local_unnamed_addr #2

; Function Attrs: sspstrong uwtable
define dso_local noalias %class.IPRewriterEntry* @_ZN12MyIPRewriter8add_flowEiRK8IPFlowIDS2_R11MyInputSpec(%class.MyIPRewriter* %0, i32 %1, %class.IPFlowID* dereferenceable(12) %2, %class.IPFlowID* nocapture readonly dereferenceable(12) %3, %class.MyInputSpec* nocapture readonly dereferenceable(40) %4) local_unnamed_addr #0 align 2 !dbg !4840 {
  %6 = alloca %class.MyIPRewriterEntry, align 4
  call void @llvm.dbg.value(metadata %class.MyIPRewriter* %0, metadata !4842, metadata !DIExpression()), !dbg !4849
  call void @llvm.dbg.value(metadata i32 %1, metadata !4843, metadata !DIExpression()), !dbg !4849
  call void @llvm.dbg.value(metadata %class.IPFlowID* %2, metadata !4844, metadata !DIExpression()), !dbg !4849
  call void @llvm.dbg.value(metadata %class.IPFlowID* %3, metadata !4845, metadata !DIExpression()), !dbg !4849
  call void @llvm.dbg.value(metadata %class.MyInputSpec* %4, metadata !4846, metadata !DIExpression()), !dbg !4849
  %7 = icmp eq i32 %1, 6, !dbg !4850
  %8 = getelementptr inbounds %class.MyIPRewriter, %class.MyIPRewriter* %0, i64 0, i32 4, !dbg !4851
  %9 = getelementptr inbounds %class.MyIPRewriter, %class.MyIPRewriter* %0, i64 0, i32 3, !dbg !4851
  %10 = select i1 %7, %class.HashMap* %8, %class.HashMap* %9, !dbg !4851
  call void @llvm.dbg.value(metadata %class.HashMap* %10, metadata !4847, metadata !DIExpression()), !dbg !4849
  %11 = bitcast %class.MyIPRewriterEntry* %6 to i8*, !dbg !4852
  call void @llvm.lifetime.start.p0i8(i64 28, i8* nonnull %11) #17, !dbg !4852
  call void @llvm.dbg.declare(metadata %class.MyIPRewriterEntry* %6, metadata !4848, metadata !DIExpression()), !dbg !4853
  %12 = bitcast %class.IPFlowID* %2 to i8*, !dbg !4854
  call void @llvm.memcpy.p0i8.p0i8.i64(i8* nonnull align 4 dereferenceable(12) %11, i8* nonnull align 4 dereferenceable(12) %12, i64 12, i1 false), !dbg !4854, !tbaa.struct !4785
  %13 = getelementptr inbounds %class.MyIPRewriterEntry, %class.MyIPRewriterEntry* %6, i64 0, i32 1, !dbg !4855
  %14 = bitcast %class.IPFlowID* %13 to i8*, !dbg !4856
  %15 = bitcast %class.IPFlowID* %3 to i8*, !dbg !4856
  call void @llvm.memcpy.p0i8.p0i8.i64(i8* nonnull align 4 dereferenceable(12) %14, i8* nonnull align 4 dereferenceable(12) %15, i64 12, i1 false), !dbg !4856, !tbaa.struct !4785
  %16 = getelementptr inbounds %class.MyInputSpec, %class.MyInputSpec* %4, i64 0, i32 1, !dbg !4857
  %17 = load i32, i32* %16, align 4, !dbg !4857, !tbaa !4780
  %18 = getelementptr inbounds %class.MyIPRewriterEntry, %class.MyIPRewriterEntry* %6, i64 0, i32 2, !dbg !4858
  store i32 %17, i32* %18, align 4, !dbg !4859, !tbaa !4860
  %19 = call zeroext i1 @_ZN7HashMapI8IPFlowID17MyIPRewriterEntryE6insertERKS0_RKS1_(%class.HashMap* nonnull %10, %class.IPFlowID* nonnull dereferenceable(12) %2, %class.MyIPRewriterEntry* nonnull dereferenceable(28) %6), !dbg !4861
  call void @llvm.lifetime.end.p0i8(i64 28, i8* nonnull %11) #17, !dbg !4862
  ret %class.IPRewriterEntry* null, !dbg !4863
}

; Function Attrs: sspstrong uwtable
define linkonce_odr dso_local zeroext i1 @_ZN7HashMapI8IPFlowID17MyIPRewriterEntryE6insertERKS0_RKS1_(%class.HashMap* %0, %class.IPFlowID* dereferenceable(12) %1, %class.MyIPRewriterEntry* dereferenceable(28) %2) local_unnamed_addr #0 comdat align 2 !dbg !4864 {
  call void @llvm.dbg.value(metadata %class.HashMap* %0, metadata !4866, metadata !DIExpression()), !dbg !4874
  call void @llvm.dbg.value(metadata %class.IPFlowID* %1, metadata !4867, metadata !DIExpression()), !dbg !4874
  call void @llvm.dbg.value(metadata %class.MyIPRewriterEntry* %2, metadata !4868, metadata !DIExpression()), !dbg !4874
  call void @llvm.dbg.value(metadata %class.HashMap* %0, metadata !4875, metadata !DIExpression()), !dbg !4880
  call void @llvm.dbg.value(metadata %class.IPFlowID* %1, metadata !4878, metadata !DIExpression()), !dbg !4880
  call void @llvm.dbg.value(metadata %class.IPFlowID* %1, metadata !4882, metadata !DIExpression()), !dbg !4889
  call void @llvm.dbg.value(metadata %class.IPFlowID* %1, metadata !4891, metadata !DIExpression()), !dbg !4899
  call void @llvm.dbg.value(metadata %class.IPFlowID* %1, metadata !4901, metadata !DIExpression()), !dbg !4904
  %4 = getelementptr inbounds %class.IPFlowID, %class.IPFlowID* %1, i64 0, i32 2, !dbg !4906
  %5 = load i16, i16* %4, align 4, !dbg !4906, !tbaa !4907
  %6 = tail call i16 @llvm.bswap.i16(i16 %5) #17
  call void @llvm.dbg.value(metadata i16 %6, metadata !4894, metadata !DIExpression()), !dbg !4899
  call void @llvm.dbg.value(metadata %class.IPFlowID* %1, metadata !4908, metadata !DIExpression()), !dbg !4911
  %7 = getelementptr inbounds %class.IPFlowID, %class.IPFlowID* %1, i64 0, i32 3, !dbg !4913
  %8 = load i16, i16* %7, align 2, !dbg !4913, !tbaa !4914
  %9 = tail call i16 @llvm.bswap.i16(i16 %8) #17
  call void @llvm.dbg.value(metadata i16 %9, metadata !4895, metadata !DIExpression()), !dbg !4899
  call void @llvm.dbg.value(metadata %class.IPFlowID* %1, metadata !4915, metadata !DIExpression()), !dbg !4918
  %10 = getelementptr inbounds %class.IPFlowID, %class.IPFlowID* %1, i64 0, i32 0, i32 0, !dbg !4920
  %11 = load i32, i32* %10, align 4, !dbg !4920, !tbaa.struct !4921
  call void @llvm.dbg.value(metadata %class.IPAddress* undef, metadata !4922, metadata !DIExpression()), !dbg !4929
  %12 = zext i32 %11 to i64, !dbg !4931
  call void @llvm.dbg.value(metadata i64 %12, metadata !4896, metadata !DIExpression()), !dbg !4899
  call void @llvm.dbg.value(metadata %class.IPFlowID* %1, metadata !4932, metadata !DIExpression()), !dbg !4935
  %13 = getelementptr inbounds %class.IPFlowID, %class.IPFlowID* %1, i64 0, i32 1, i32 0, !dbg !4937
  %14 = load i32, i32* %13, align 4, !dbg !4937, !tbaa.struct !4921
  call void @llvm.dbg.value(metadata %class.IPAddress* undef, metadata !4922, metadata !DIExpression()), !dbg !4938
  %15 = zext i32 %14 to i64, !dbg !4940
  call void @llvm.dbg.value(metadata i64 %15, metadata !4897, metadata !DIExpression()), !dbg !4899
  %16 = zext i16 %6 to i32, !dbg !4941
  %17 = and i32 %16, 15, !dbg !4941
  %18 = add nuw nsw i32 %17, 1, !dbg !4941
  %19 = zext i32 %18 to i64, !dbg !4941
  %20 = shl nuw nsw i64 %12, %19, !dbg !4941
  %21 = xor i32 %17, 31, !dbg !4941
  %22 = lshr i32 %11, %21, !dbg !4941
  %23 = zext i32 %22 to i64, !dbg !4941
  %24 = or i64 %20, %23, !dbg !4941
  %25 = zext i16 %9 to i32, !dbg !4942
  %26 = and i32 %25, 15, !dbg !4942
  %27 = xor i32 %26, 31, !dbg !4942
  %28 = zext i32 %27 to i64, !dbg !4942
  %29 = shl i64 %15, %28, !dbg !4942
  %30 = sub nuw nsw i32 32, %27, !dbg !4942
  %31 = lshr i32 %14, %30, !dbg !4942
  %32 = zext i32 %31 to i64, !dbg !4942
  %33 = or i64 %29, %32, !dbg !4942
  %34 = shl nuw i32 %25, 16, !dbg !4943
  %35 = or i32 %34, %16, !dbg !4944
  %36 = sext i32 %35 to i64, !dbg !4945
  %37 = xor i64 %24, %36, !dbg !4946
  %38 = xor i64 %37, %33, !dbg !4947
  %39 = getelementptr inbounds %class.HashMap, %class.HashMap* %0, i64 0, i32 1, !dbg !4948
  %40 = load i64, i64* %39, align 8, !dbg !4948, !tbaa !4045
  %41 = urem i64 %38, %40, !dbg !4949
  call void @llvm.dbg.value(metadata i64 %41, metadata !4869, metadata !DIExpression()), !dbg !4874
  %42 = getelementptr inbounds %class.HashMap, %class.HashMap* %0, i64 0, i32 0, !dbg !4950
  %43 = load %"struct.HashMap<IPFlowID, MyIPRewriterEntry>::Elt"**, %"struct.HashMap<IPFlowID, MyIPRewriterEntry>::Elt"*** %42, align 8, !dbg !4950, !tbaa !4049
  %44 = getelementptr inbounds %"struct.HashMap<IPFlowID, MyIPRewriterEntry>::Elt"*, %"struct.HashMap<IPFlowID, MyIPRewriterEntry>::Elt"** %43, i64 %41, !dbg !4950
  call void @llvm.dbg.value(metadata %"struct.HashMap<IPFlowID, MyIPRewriterEntry>::Elt"* undef, metadata !4870, metadata !DIExpression()), !dbg !4951
  %45 = load %"struct.HashMap<IPFlowID, MyIPRewriterEntry>::Elt"*, %"struct.HashMap<IPFlowID, MyIPRewriterEntry>::Elt"** %44, align 8, !dbg !4951, !tbaa !4054
  call void @llvm.dbg.value(metadata %"struct.HashMap<IPFlowID, MyIPRewriterEntry>::Elt"* %45, metadata !4870, metadata !DIExpression()), !dbg !4951
  %46 = icmp eq %"struct.HashMap<IPFlowID, MyIPRewriterEntry>::Elt"* %45, null, !dbg !4952
  br i1 %46, label %72, label %47, !dbg !4954

47:                                               ; preds = %3, %68
  %48 = phi %"struct.HashMap<IPFlowID, MyIPRewriterEntry>::Elt"* [ %70, %68 ], [ %45, %3 ]
  call void @llvm.dbg.value(metadata %"struct.HashMap<IPFlowID, MyIPRewriterEntry>::Elt"* %48, metadata !4955, metadata !DIExpression()), !dbg !4961
  call void @llvm.dbg.value(metadata %class.IPFlowID* %1, metadata !4960, metadata !DIExpression()), !dbg !4961
  call void @llvm.dbg.value(metadata %"struct.HashMap<IPFlowID, MyIPRewriterEntry>::Elt"* %48, metadata !4901, metadata !DIExpression()), !dbg !4964
  %49 = getelementptr inbounds %"struct.HashMap<IPFlowID, MyIPRewriterEntry>::Elt", %"struct.HashMap<IPFlowID, MyIPRewriterEntry>::Elt"* %48, i64 0, i32 0, i32 0, i32 2, !dbg !4966
  %50 = load i16, i16* %49, align 4, !dbg !4966, !tbaa !4907
  call void @llvm.dbg.value(metadata %class.IPFlowID* %1, metadata !4901, metadata !DIExpression()), !dbg !4967
  %51 = icmp eq i16 %50, %5, !dbg !4969
  br i1 %51, label %52, label %68, !dbg !4970

52:                                               ; preds = %47
  call void @llvm.dbg.value(metadata %"struct.HashMap<IPFlowID, MyIPRewriterEntry>::Elt"* %48, metadata !4908, metadata !DIExpression()), !dbg !4971
  %53 = getelementptr inbounds %"struct.HashMap<IPFlowID, MyIPRewriterEntry>::Elt", %"struct.HashMap<IPFlowID, MyIPRewriterEntry>::Elt"* %48, i64 0, i32 0, i32 0, i32 3, !dbg !4973
  %54 = load i16, i16* %53, align 2, !dbg !4973, !tbaa !4914
  call void @llvm.dbg.value(metadata %class.IPFlowID* %1, metadata !4908, metadata !DIExpression()), !dbg !4974
  %55 = icmp eq i16 %54, %8, !dbg !4976
  br i1 %55, label %56, label %68, !dbg !4977

56:                                               ; preds = %52
  call void @llvm.dbg.value(metadata %"struct.HashMap<IPFlowID, MyIPRewriterEntry>::Elt"* %48, metadata !4915, metadata !DIExpression()), !dbg !4978
  %57 = getelementptr inbounds %"struct.HashMap<IPFlowID, MyIPRewriterEntry>::Elt", %"struct.HashMap<IPFlowID, MyIPRewriterEntry>::Elt"* %48, i64 0, i32 0, i32 0, i32 0, i32 0, !dbg !4980
  %58 = load i32, i32* %57, align 4, !dbg !4980, !tbaa.struct !4921
  call void @llvm.dbg.value(metadata %class.IPFlowID* %1, metadata !4915, metadata !DIExpression()), !dbg !4981
  call void @llvm.dbg.value(metadata i32 %58, metadata !4983, metadata !DIExpression()), !dbg !4989
  call void @llvm.dbg.value(metadata i32 %11, metadata !4988, metadata !DIExpression()), !dbg !4989
  %59 = icmp eq i32 %58, %11, !dbg !4991
  br i1 %59, label %60, label %68, !dbg !4992

60:                                               ; preds = %56
  call void @llvm.dbg.value(metadata %"struct.HashMap<IPFlowID, MyIPRewriterEntry>::Elt"* %48, metadata !4932, metadata !DIExpression()), !dbg !4993
  %61 = getelementptr inbounds %"struct.HashMap<IPFlowID, MyIPRewriterEntry>::Elt", %"struct.HashMap<IPFlowID, MyIPRewriterEntry>::Elt"* %48, i64 0, i32 0, i32 0, i32 1, i32 0, !dbg !4995
  %62 = load i32, i32* %61, align 4, !dbg !4995, !tbaa.struct !4921
  call void @llvm.dbg.value(metadata %class.IPFlowID* %1, metadata !4932, metadata !DIExpression()), !dbg !4996
  call void @llvm.dbg.value(metadata i32 %62, metadata !4983, metadata !DIExpression()), !dbg !4998
  call void @llvm.dbg.value(metadata i32 %14, metadata !4988, metadata !DIExpression()), !dbg !4998
  %63 = icmp eq i32 %62, %14, !dbg !5000
  br i1 %63, label %64, label %68, !dbg !5001

64:                                               ; preds = %60
  call void @llvm.dbg.value(metadata %"struct.HashMap<IPFlowID, MyIPRewriterEntry>::Elt"* %48, metadata !4955, metadata !DIExpression()), !dbg !4961
  call void @llvm.dbg.value(metadata %"struct.HashMap<IPFlowID, MyIPRewriterEntry>::Elt"* %48, metadata !4955, metadata !DIExpression()), !dbg !4961
  call void @llvm.dbg.value(metadata %"struct.HashMap<IPFlowID, MyIPRewriterEntry>::Elt"* %48, metadata !4955, metadata !DIExpression()), !dbg !4961
  call void @llvm.dbg.value(metadata %"struct.HashMap<IPFlowID, MyIPRewriterEntry>::Elt"* %48, metadata !4955, metadata !DIExpression()), !dbg !4961
  call void @llvm.dbg.value(metadata %"struct.HashMap<IPFlowID, MyIPRewriterEntry>::Elt"* %48, metadata !4955, metadata !DIExpression()), !dbg !4961
  %65 = getelementptr inbounds %"struct.HashMap<IPFlowID, MyIPRewriterEntry>::Elt", %"struct.HashMap<IPFlowID, MyIPRewriterEntry>::Elt"* %48, i64 0, i32 0, i32 1, !dbg !5002
  %66 = bitcast %class.MyIPRewriterEntry* %65 to i8*, !dbg !5004
  %67 = bitcast %class.MyIPRewriterEntry* %2 to i8*, !dbg !5004
  tail call void @llvm.memcpy.p0i8.p0i8.i64(i8* nonnull align 4 dereferenceable(28) %66, i8* nonnull align 4 dereferenceable(28) %67, i64 28, i1 false), !dbg !5004, !tbaa.struct !5005
  br label %170

68:                                               ; preds = %47, %52, %56, %60
  %69 = getelementptr inbounds %"struct.HashMap<IPFlowID, MyIPRewriterEntry>::Elt", %"struct.HashMap<IPFlowID, MyIPRewriterEntry>::Elt"* %48, i64 0, i32 1, !dbg !5006
  call void @llvm.dbg.value(metadata %"struct.HashMap<IPFlowID, MyIPRewriterEntry>::Elt"* undef, metadata !4870, metadata !DIExpression()), !dbg !4951
  %70 = load %"struct.HashMap<IPFlowID, MyIPRewriterEntry>::Elt"*, %"struct.HashMap<IPFlowID, MyIPRewriterEntry>::Elt"** %69, align 8, !dbg !4951, !tbaa !4054
  call void @llvm.dbg.value(metadata %"struct.HashMap<IPFlowID, MyIPRewriterEntry>::Elt"* %70, metadata !4870, metadata !DIExpression()), !dbg !4951
  %71 = icmp eq %"struct.HashMap<IPFlowID, MyIPRewriterEntry>::Elt"* %70, null, !dbg !4952
  br i1 %71, label %72, label %47, !dbg !4954, !llvm.loop !5007

72:                                               ; preds = %68, %3
  %73 = getelementptr inbounds %class.HashMap, %class.HashMap* %0, i64 0, i32 3, !dbg !5009
  %74 = load i64, i64* %73, align 8, !dbg !5009, !tbaa !5011
  %75 = getelementptr inbounds %class.HashMap, %class.HashMap* %0, i64 0, i32 4, !dbg !5012
  %76 = load i64, i64* %75, align 8, !dbg !5012, !tbaa !5013
  %77 = icmp ult i64 %74, %76, !dbg !5014
  br i1 %77, label %128, label %78, !dbg !5015

78:                                               ; preds = %72
  %79 = add i64 %40, 1, !dbg !5016
  call void @llvm.dbg.value(metadata %class.HashMap* %0, metadata !5018, metadata !DIExpression()), !dbg !5023
  call void @llvm.dbg.value(metadata i64 %79, metadata !5021, metadata !DIExpression()), !dbg !5023
  call void @llvm.dbg.value(metadata i64 1, metadata !5022, metadata !DIExpression()), !dbg !5023
  %80 = icmp ugt i64 %79, 1, !dbg !5025
  br i1 %80, label %81, label %93, !dbg !5026

81:                                               ; preds = %78, %81
  %82 = phi i64 [ %84, %81 ], [ 1, %78 ]
  call void @llvm.dbg.value(metadata i64 %82, metadata !5022, metadata !DIExpression()), !dbg !5023
  %83 = shl nuw nsw i64 %82, 1, !dbg !5027
  %84 = or i64 %83, 1, !dbg !5028
  call void @llvm.dbg.value(metadata i64 %84, metadata !5022, metadata !DIExpression()), !dbg !5023
  %85 = icmp ult i64 %84, %79, !dbg !5025
  %86 = icmp ult i64 %84, 4194303, !dbg !5029
  %87 = and i1 %85, %86, !dbg !5029
  br i1 %87, label %81, label %88, !dbg !5026, !llvm.loop !5030

88:                                               ; preds = %81
  call void @llvm.dbg.value(metadata i64 %84, metadata !5022, metadata !DIExpression()), !dbg !5023
  %89 = icmp ult i64 %84, 4194304, !dbg !5032
  br i1 %89, label %91, label %90, !dbg !5032

90:                                               ; preds = %88
  tail call void @__assert_fail(i8* getelementptr inbounds ([49 x i8], [49 x i8]* @.str.25, i64 0, i64 0), i8* getelementptr inbounds ([30 x i8], [30 x i8]* @.str.22, i64 0, i64 0), i32 211, i8* getelementptr inbounds ([96 x i8], [96 x i8]* @__PRETTY_FUNCTION__._ZN7HashMapI8IPFlowID17MyIPRewriterEntryE6resizeEm, i64 0, i64 0)) #21, !dbg !5032
  unreachable, !dbg !5032

91:                                               ; preds = %88
  %92 = icmp eq i64 %40, %84, !dbg !5033
  br i1 %92, label %128, label %93, !dbg !5035

93:                                               ; preds = %78, %91
  %94 = phi i64 [ %84, %91 ], [ 1, %78 ]
  tail call void @_ZN7HashMapI8IPFlowID17MyIPRewriterEntryE7resize0Em(%class.HashMap* nonnull %0, i64 %94), !dbg !5036
  %95 = load i16, i16* %4, align 4, !dbg !5037, !tbaa !4907
  %96 = load i16, i16* %7, align 2, !dbg !5042, !tbaa !4914
  %97 = load i32, i32* %10, align 4, !dbg !5044, !tbaa.struct !4921
  %98 = load i32, i32* %13, align 4, !dbg !5046, !tbaa.struct !4921
  %99 = load i64, i64* %39, align 8, !dbg !5048, !tbaa !4045
  %100 = tail call i16 @llvm.bswap.i16(i16 %95) #17
  %101 = tail call i16 @llvm.bswap.i16(i16 %96) #17
  %102 = zext i32 %97 to i64, !dbg !5049
  %103 = zext i32 %98 to i64, !dbg !5051
  %104 = zext i16 %100 to i32, !dbg !5053
  %105 = and i32 %104, 15, !dbg !5053
  %106 = add nuw nsw i32 %105, 1, !dbg !5053
  %107 = zext i32 %106 to i64, !dbg !5053
  %108 = shl nuw nsw i64 %102, %107, !dbg !5053
  %109 = xor i32 %105, 31, !dbg !5053
  %110 = lshr i32 %97, %109, !dbg !5053
  %111 = zext i32 %110 to i64, !dbg !5053
  %112 = or i64 %108, %111, !dbg !5053
  %113 = zext i16 %101 to i32, !dbg !5054
  %114 = and i32 %113, 15, !dbg !5054
  %115 = xor i32 %114, 31, !dbg !5054
  %116 = zext i32 %115 to i64, !dbg !5054
  %117 = shl i64 %103, %116, !dbg !5054
  %118 = sub nuw nsw i32 32, %115, !dbg !5054
  %119 = lshr i32 %98, %118, !dbg !5054
  %120 = zext i32 %119 to i64, !dbg !5054
  %121 = or i64 %117, %120, !dbg !5054
  %122 = shl nuw i32 %113, 16, !dbg !5055
  %123 = or i32 %122, %104, !dbg !5056
  %124 = sext i32 %123 to i64, !dbg !5057
  %125 = xor i64 %112, %124, !dbg !5058
  %126 = xor i64 %125, %121, !dbg !5059
  %127 = urem i64 %126, %99, !dbg !5060
  br label %128, !dbg !5036

128:                                              ; preds = %93, %91, %72
  %129 = phi i64 [ %41, %72 ], [ %41, %91 ], [ %127, %93 ], !dbg !4874
  call void @llvm.dbg.value(metadata i64 %129, metadata !4869, metadata !DIExpression()), !dbg !4874
  %130 = getelementptr inbounds %class.HashMap, %class.HashMap* %0, i64 0, i32 5, !dbg !5061
  %131 = load %class.HashMap_Arena*, %class.HashMap_Arena** %130, align 8, !dbg !5061, !tbaa !4022
  call void @llvm.dbg.value(metadata %class.HashMap_Arena* %131, metadata !5062, metadata !DIExpression()), !dbg !5068
  %132 = getelementptr inbounds %class.HashMap_Arena, %class.HashMap_Arena* %131, i64 0, i32 0, !dbg !5070
  %133 = load %"struct.HashMap_Arena::Link"*, %"struct.HashMap_Arena::Link"** %132, align 8, !dbg !5070, !tbaa !4237
  %134 = icmp eq %"struct.HashMap_Arena::Link"* %133, null, !dbg !5070
  br i1 %134, label %140, label %135, !dbg !5071

135:                                              ; preds = %128
  %136 = bitcast %"struct.HashMap_Arena::Link"* %133 to i8*, !dbg !5072
  call void @llvm.dbg.value(metadata i8* %136, metadata !5065, metadata !DIExpression()), !dbg !5073
  %137 = bitcast %"struct.HashMap_Arena::Link"* %133 to i64*, !dbg !5074
  %138 = load i64, i64* %137, align 8, !dbg !5074, !tbaa !4242
  %139 = bitcast %class.HashMap_Arena* %131 to i64*, !dbg !5075
  store i64 %138, i64* %139, align 8, !dbg !5075, !tbaa !4237
  br label %154

140:                                              ; preds = %128
  %141 = getelementptr inbounds %class.HashMap_Arena, %class.HashMap_Arena* %131, i64 0, i32 2, !dbg !5076
  %142 = load i32, i32* %141, align 8, !dbg !5076, !tbaa !5078
  %143 = icmp sgt i32 %142, 0, !dbg !5079
  br i1 %143, label %144, label %152, !dbg !5080

144:                                              ; preds = %140
  %145 = getelementptr inbounds %class.HashMap_Arena, %class.HashMap_Arena* %131, i64 0, i32 3, !dbg !5081
  %146 = load i32, i32* %145, align 4, !dbg !5081, !tbaa !5083
  %147 = sub i32 %142, %146, !dbg !5084
  store i32 %147, i32* %141, align 8, !dbg !5084, !tbaa !5078
  %148 = getelementptr inbounds %class.HashMap_Arena, %class.HashMap_Arena* %131, i64 0, i32 1, !dbg !5085
  %149 = load i8*, i8** %148, align 8, !dbg !5085, !tbaa !5086
  %150 = sext i32 %147 to i64, !dbg !5087
  %151 = getelementptr inbounds i8, i8* %149, i64 %150, !dbg !5087
  br label %154, !dbg !5088

152:                                              ; preds = %140
  %153 = tail call i8* @_ZN13HashMap_Arena10hard_allocEv(%class.HashMap_Arena* nonnull %131), !dbg !5089
  br label %154, !dbg !5090

154:                                              ; preds = %135, %144, %152
  %155 = phi i8* [ %136, %135 ], [ %151, %144 ], [ %153, %152 ], !dbg !5091
  call void @llvm.dbg.value(metadata i8* %155, metadata !4872, metadata !DIExpression()), !dbg !5092
  %156 = icmp eq i8* %155, null, !dbg !5093
  br i1 %156, label %170, label %157, !dbg !5094

157:                                              ; preds = %154
  call void @llvm.dbg.value(metadata i8* %155, metadata !4872, metadata !DIExpression()), !dbg !5092
  %158 = bitcast %class.IPFlowID* %1 to i8*, !dbg !5095
  tail call void @llvm.memcpy.p0i8.p0i8.i64(i8* nonnull align 8 dereferenceable(12) %155, i8* nonnull align 4 dereferenceable(12) %158, i64 12, i1 false), !dbg !5095, !tbaa.struct !4785
  %159 = getelementptr inbounds i8, i8* %155, i64 12, !dbg !5097
  %160 = bitcast %class.MyIPRewriterEntry* %2 to i8*, !dbg !5098
  tail call void @llvm.memcpy.p0i8.p0i8.i64(i8* nonnull align 4 dereferenceable(28) %159, i8* nonnull align 4 dereferenceable(28) %160, i64 28, i1 false), !dbg !5098, !tbaa.struct !5005
  %161 = load %"struct.HashMap<IPFlowID, MyIPRewriterEntry>::Elt"**, %"struct.HashMap<IPFlowID, MyIPRewriterEntry>::Elt"*** %42, align 8, !dbg !5099, !tbaa !4049
  %162 = getelementptr inbounds %"struct.HashMap<IPFlowID, MyIPRewriterEntry>::Elt"*, %"struct.HashMap<IPFlowID, MyIPRewriterEntry>::Elt"** %161, i64 %129, !dbg !5099
  %163 = bitcast %"struct.HashMap<IPFlowID, MyIPRewriterEntry>::Elt"** %162 to i64*, !dbg !5099
  %164 = load i64, i64* %163, align 8, !dbg !5099, !tbaa !4054
  %165 = getelementptr inbounds i8, i8* %155, i64 40, !dbg !5100
  %166 = bitcast i8* %165 to i64*, !dbg !5101
  store i64 %164, i64* %166, align 8, !dbg !5101, !tbaa !4239
  %167 = bitcast %"struct.HashMap<IPFlowID, MyIPRewriterEntry>::Elt"** %162 to i8**, !dbg !5102
  store i8* %155, i8** %167, align 8, !dbg !5102, !tbaa !4054
  %168 = load i64, i64* %73, align 8, !dbg !5103, !tbaa !5011
  %169 = add i64 %168, 1, !dbg !5103
  store i64 %169, i64* %73, align 8, !dbg !5103, !tbaa !5011
  br label %170, !dbg !5104

170:                                              ; preds = %157, %154, %64
  %171 = phi i1 [ false, %64 ], [ true, %154 ], [ true, %157 ], !dbg !4874
  ret i1 %171, !dbg !5105
}

; Function Attrs: sspstrong uwtable
define dso_local void @_ZN12MyIPRewriter14tcp_flow_applyERK17MyIPRewriterEntryP14WritablePacket(%class.MyIPRewriter* nocapture readnone %0, %class.MyIPRewriterEntry* nocapture readonly dereferenceable(28) %1, %class.WritablePacket* %2) local_unnamed_addr #0 align 2 !dbg !5106 {
  call void @llvm.dbg.value(metadata %class.MyIPRewriter* undef, metadata !5108, metadata !DIExpression()), !dbg !5113
  call void @llvm.dbg.value(metadata %class.MyIPRewriterEntry* %1, metadata !5109, metadata !DIExpression()), !dbg !5113
  call void @llvm.dbg.value(metadata %class.WritablePacket* %2, metadata !5110, metadata !DIExpression()), !dbg !5113
  %4 = getelementptr %class.WritablePacket, %class.WritablePacket* %2, i64 0, i32 0, !dbg !5114
  %5 = tail call zeroext i1 @_ZNK6Packet18has_network_headerEv(%class.Packet* %4), !dbg !5114
  br i1 %5, label %7, label %6, !dbg !5114

6:                                                ; preds = %3
  tail call void @__assert_fail(i8* getelementptr inbounds ([24 x i8], [24 x i8]* @.str.8, i64 0, i64 0), i8* getelementptr inbounds ([33 x i8], [33 x i8]* @.str.9, i64 0, i64 0), i32 137, i8* getelementptr inbounds ([79 x i8], [79 x i8]* @__PRETTY_FUNCTION__._ZN12MyIPRewriter14tcp_flow_applyERK17MyIPRewriterEntryP14WritablePacket, i64 0, i64 0)) #21, !dbg !5114
  unreachable, !dbg !5114

7:                                                ; preds = %3
  %8 = tail call %struct.click_ip* @_ZNK14WritablePacket9ip_headerEv(%class.WritablePacket* %2), !dbg !5115
  call void @llvm.dbg.value(metadata %struct.click_ip* %8, metadata !5111, metadata !DIExpression()), !dbg !5113
  call void @llvm.dbg.value(metadata %class.MyIPRewriterEntry* %1, metadata !4915, metadata !DIExpression(DW_OP_plus_uconst, 12, DW_OP_stack_value)), !dbg !5116
  %9 = getelementptr inbounds %class.MyIPRewriterEntry, %class.MyIPRewriterEntry* %1, i64 0, i32 1, i32 0, i32 0, !dbg !5118
  %10 = load i32, i32* %9, align 4, !dbg !5118, !tbaa.struct !4921
  %11 = getelementptr inbounds %struct.click_ip, %struct.click_ip* %8, i64 0, i32 8, i32 0, !dbg !5119
  store i32 %10, i32* %11, align 4, !dbg !5119, !tbaa.struct !4921
  call void @llvm.dbg.value(metadata %class.MyIPRewriterEntry* %1, metadata !4932, metadata !DIExpression(DW_OP_plus_uconst, 12, DW_OP_stack_value)), !dbg !5120
  %12 = getelementptr inbounds %class.MyIPRewriterEntry, %class.MyIPRewriterEntry* %1, i64 0, i32 1, i32 1, i32 0, !dbg !5122
  %13 = load i32, i32* %12, align 4, !dbg !5122, !tbaa.struct !4921
  %14 = getelementptr inbounds %struct.click_ip, %struct.click_ip* %8, i64 0, i32 9, i32 0, !dbg !5123
  store i32 %13, i32* %14, align 4, !dbg !5123, !tbaa.struct !4921
  call void @llvm.dbg.value(metadata %class.WritablePacket* %2, metadata !5124, metadata !DIExpression()), !dbg !5128
  call void @llvm.dbg.value(metadata %class.Packet* %4, metadata !5130, metadata !DIExpression()), !dbg !5133
  %15 = tail call i8* @_ZNK6Packet16transport_headerEv(%class.Packet* %4), !dbg !5135
  call void @llvm.dbg.value(metadata i8* %15, metadata !5112, metadata !DIExpression()), !dbg !5113
  call void @llvm.dbg.value(metadata %class.MyIPRewriterEntry* %1, metadata !4901, metadata !DIExpression(DW_OP_plus_uconst, 12, DW_OP_stack_value)), !dbg !5136
  %16 = getelementptr inbounds %class.MyIPRewriterEntry, %class.MyIPRewriterEntry* %1, i64 0, i32 1, i32 2, !dbg !5138
  %17 = load i16, i16* %16, align 4, !dbg !5138, !tbaa !4907
  %18 = bitcast i8* %15 to i16*, !dbg !5139
  store i16 %17, i16* %18, align 4, !dbg !5140, !tbaa !5141
  call void @llvm.dbg.value(metadata %class.MyIPRewriterEntry* %1, metadata !4908, metadata !DIExpression(DW_OP_plus_uconst, 12, DW_OP_stack_value)), !dbg !5143
  %19 = getelementptr inbounds %class.MyIPRewriterEntry, %class.MyIPRewriterEntry* %1, i64 0, i32 1, i32 3, !dbg !5145
  %20 = load i16, i16* %19, align 2, !dbg !5145, !tbaa !4914
  %21 = getelementptr inbounds i8, i8* %15, i64 2, !dbg !5146
  %22 = bitcast i8* %21 to i16*, !dbg !5146
  store i16 %20, i16* %22, align 2, !dbg !5147, !tbaa !5148
  ret void, !dbg !5149
}

declare zeroext i1 @_ZNK6Packet18has_network_headerEv(%class.Packet*) local_unnamed_addr #2

; Function Attrs: noreturn nounwind
declare void @__assert_fail(i8*, i8*, i32, i8*) local_unnamed_addr #10

declare %struct.click_ip* @_ZNK14WritablePacket9ip_headerEv(%class.WritablePacket*) local_unnamed_addr #2

; Function Attrs: sspstrong uwtable
define dso_local void @_ZN12MyIPRewriter14udp_flow_applyERK17MyIPRewriterEntryP14WritablePacket(%class.MyIPRewriter* nocapture readnone %0, %class.MyIPRewriterEntry* nocapture readonly dereferenceable(28) %1, %class.WritablePacket* %2) local_unnamed_addr #0 align 2 !dbg !5150 {
  call void @llvm.dbg.value(metadata %class.MyIPRewriter* undef, metadata !5152, metadata !DIExpression()), !dbg !5157
  call void @llvm.dbg.value(metadata %class.MyIPRewriterEntry* %1, metadata !5153, metadata !DIExpression()), !dbg !5157
  call void @llvm.dbg.value(metadata %class.WritablePacket* %2, metadata !5154, metadata !DIExpression()), !dbg !5157
  %4 = getelementptr %class.WritablePacket, %class.WritablePacket* %2, i64 0, i32 0, !dbg !5158
  %5 = tail call zeroext i1 @_ZNK6Packet18has_network_headerEv(%class.Packet* %4), !dbg !5158
  br i1 %5, label %7, label %6, !dbg !5158

6:                                                ; preds = %3
  tail call void @__assert_fail(i8* getelementptr inbounds ([24 x i8], [24 x i8]* @.str.8, i64 0, i64 0), i8* getelementptr inbounds ([33 x i8], [33 x i8]* @.str.9, i64 0, i64 0), i32 150, i8* getelementptr inbounds ([79 x i8], [79 x i8]* @__PRETTY_FUNCTION__._ZN12MyIPRewriter14udp_flow_applyERK17MyIPRewriterEntryP14WritablePacket, i64 0, i64 0)) #21, !dbg !5158
  unreachable, !dbg !5158

7:                                                ; preds = %3
  %8 = tail call %struct.click_ip* @_ZNK14WritablePacket9ip_headerEv(%class.WritablePacket* %2), !dbg !5159
  call void @llvm.dbg.value(metadata %struct.click_ip* %8, metadata !5155, metadata !DIExpression()), !dbg !5157
  call void @llvm.dbg.value(metadata %class.MyIPRewriterEntry* %1, metadata !4915, metadata !DIExpression(DW_OP_plus_uconst, 12, DW_OP_stack_value)), !dbg !5160
  %9 = getelementptr inbounds %class.MyIPRewriterEntry, %class.MyIPRewriterEntry* %1, i64 0, i32 1, i32 0, i32 0, !dbg !5162
  %10 = load i32, i32* %9, align 4, !dbg !5162, !tbaa.struct !4921
  %11 = getelementptr inbounds %struct.click_ip, %struct.click_ip* %8, i64 0, i32 8, i32 0, !dbg !5163
  store i32 %10, i32* %11, align 4, !dbg !5163, !tbaa.struct !4921
  call void @llvm.dbg.value(metadata %class.MyIPRewriterEntry* %1, metadata !4932, metadata !DIExpression(DW_OP_plus_uconst, 12, DW_OP_stack_value)), !dbg !5164
  %12 = getelementptr inbounds %class.MyIPRewriterEntry, %class.MyIPRewriterEntry* %1, i64 0, i32 1, i32 1, i32 0, !dbg !5166
  %13 = load i32, i32* %12, align 4, !dbg !5166, !tbaa.struct !4921
  %14 = getelementptr inbounds %struct.click_ip, %struct.click_ip* %8, i64 0, i32 9, i32 0, !dbg !5167
  store i32 %13, i32* %14, align 4, !dbg !5167, !tbaa.struct !4921
  %15 = getelementptr inbounds %struct.click_ip, %struct.click_ip* %8, i64 0, i32 4, !dbg !5168
  %16 = load i16, i16* %15, align 2, !dbg !5168, !tbaa !5170
  %17 = and i16 %16, -225, !dbg !5168
  %18 = icmp eq i16 %17, 0, !dbg !5168
  br i1 %18, label %19, label %28, !dbg !5173

19:                                               ; preds = %7
  call void @llvm.dbg.value(metadata %class.WritablePacket* %2, metadata !5174, metadata !DIExpression()), !dbg !5177
  call void @llvm.dbg.value(metadata %class.Packet* %4, metadata !5179, metadata !DIExpression()), !dbg !5182
  %20 = tail call i8* @_ZNK6Packet16transport_headerEv(%class.Packet* %4), !dbg !5184
  call void @llvm.dbg.value(metadata i8* %20, metadata !5156, metadata !DIExpression()), !dbg !5157
  call void @llvm.dbg.value(metadata %class.MyIPRewriterEntry* %1, metadata !4901, metadata !DIExpression(DW_OP_plus_uconst, 12, DW_OP_stack_value)), !dbg !5185
  %21 = getelementptr inbounds %class.MyIPRewriterEntry, %class.MyIPRewriterEntry* %1, i64 0, i32 1, i32 2, !dbg !5187
  %22 = load i16, i16* %21, align 4, !dbg !5187, !tbaa !4907
  %23 = bitcast i8* %20 to i16*, !dbg !5188
  store i16 %22, i16* %23, align 2, !dbg !5189, !tbaa !5190
  call void @llvm.dbg.value(metadata %class.MyIPRewriterEntry* %1, metadata !4908, metadata !DIExpression(DW_OP_plus_uconst, 12, DW_OP_stack_value)), !dbg !5192
  %24 = getelementptr inbounds %class.MyIPRewriterEntry, %class.MyIPRewriterEntry* %1, i64 0, i32 1, i32 3, !dbg !5194
  %25 = load i16, i16* %24, align 2, !dbg !5194, !tbaa !4914
  %26 = getelementptr inbounds i8, i8* %20, i64 2, !dbg !5195
  %27 = bitcast i8* %26 to i16*, !dbg !5195
  store i16 %25, i16* %27, align 2, !dbg !5196, !tbaa !5197
  br label %28, !dbg !5198

28:                                               ; preds = %7, %19
  ret void, !dbg !5198
}

; Function Attrs: sspstrong uwtable
define dso_local void @_ZN12MyIPRewriter4pushEiP6Packet(%class.MyIPRewriter* %0, i32 %1, %class.Packet* %2) unnamed_addr #0 align 2 !dbg !5199 {
  %4 = alloca %class.MyIPRewriterEntry, align 4
  call void @llvm.dbg.declare(metadata %class.MyIPRewriterEntry* %4, metadata !4848, metadata !DIExpression()), !dbg !5214
  %5 = alloca %class.IPFlowID, align 4
  call void @llvm.dbg.value(metadata %class.MyIPRewriter* %0, metadata !5201, metadata !DIExpression()), !dbg !5218
  call void @llvm.dbg.value(metadata i32 %1, metadata !5202, metadata !DIExpression()), !dbg !5218
  call void @llvm.dbg.value(metadata %class.Packet* %2, metadata !5203, metadata !DIExpression()), !dbg !5218
  %6 = tail call %class.WritablePacket* @_ZN6Packet9uniqueifyEv(%class.Packet* %2), !dbg !5219
  call void @llvm.dbg.value(metadata %class.WritablePacket* %6, metadata !5204, metadata !DIExpression()), !dbg !5218
  %7 = tail call %struct.click_ip* @_ZNK14WritablePacket9ip_headerEv(%class.WritablePacket* %6), !dbg !5220
  call void @llvm.dbg.value(metadata %struct.click_ip* %7, metadata !5205, metadata !DIExpression()), !dbg !5218
  %8 = getelementptr inbounds %class.MyIPRewriter, %class.MyIPRewriter* %0, i64 0, i32 2, !dbg !5221
  %9 = tail call dereferenceable(40) %class.MyInputSpec* @_ZN6VectorI11MyInputSpecEixEi(%class.Vector.24* nonnull %8, i32 %1), !dbg !5221
  call void @llvm.dbg.value(metadata %class.MyInputSpec* %9, metadata !5206, metadata !DIExpression()), !dbg !5218
  %10 = getelementptr inbounds %struct.click_ip, %struct.click_ip* %7, i64 0, i32 6, !dbg !5222
  %11 = load i8, i8* %10, align 1, !dbg !5222, !tbaa !5224
  switch i8 %11, label %21 [
    i8 6, label %12
    i8 17, label %12
  ], !dbg !5225

12:                                               ; preds = %3, %3
  %13 = getelementptr inbounds %struct.click_ip, %struct.click_ip* %7, i64 0, i32 4, !dbg !5226
  %14 = load i16, i16* %13, align 2, !dbg !5226, !tbaa !5170
  %15 = and i16 %14, -225, !dbg !5226
  %16 = icmp eq i16 %15, 0, !dbg !5226
  br i1 %16, label %17, label %21, !dbg !5227

17:                                               ; preds = %12
  %18 = getelementptr %class.WritablePacket, %class.WritablePacket* %6, i64 0, i32 0, !dbg !5228
  %19 = tail call i32 @_ZNK6Packet16transport_lengthEv(%class.Packet* %18), !dbg !5228
  %20 = icmp slt i32 %19, 8, !dbg !5229
  br i1 %20, label %21, label %32, !dbg !5230

21:                                               ; preds = %3, %17, %12
  %22 = getelementptr inbounds %class.MyInputSpec, %class.MyInputSpec* %9, i64 0, i32 0, !dbg !5231
  %23 = load i32, i32* %22, align 4, !dbg !5231, !tbaa !4774
  %24 = icmp eq i32 %23, 1, !dbg !5234
  br i1 %24, label %25, label %30, !dbg !5235

25:                                               ; preds = %21
  %26 = bitcast %class.MyIPRewriter* %0 to %class.Element*, !dbg !5236
  %27 = getelementptr inbounds %class.MyInputSpec, %class.MyInputSpec* %9, i64 0, i32 1, !dbg !5237
  %28 = load i32, i32* %27, align 4, !dbg !5237, !tbaa !4780
  %29 = getelementptr %class.WritablePacket, %class.WritablePacket* %6, i64 0, i32 0, !dbg !5238
  tail call void @_ZNK7Element19checked_output_pushEiP6Packet(%class.Element* %26, i32 %28, %class.Packet* %29), !dbg !5236
  br label %118, !dbg !5236

30:                                               ; preds = %21
  %31 = getelementptr %class.WritablePacket, %class.WritablePacket* %6, i64 0, i32 0, !dbg !5239
  tail call void @_ZN6Packet4killEv(%class.Packet* %31), !dbg !5239
  br label %118

32:                                               ; preds = %17
  %33 = bitcast %class.IPFlowID* %5 to i8*, !dbg !5240
  call void @llvm.lifetime.start.p0i8(i64 12, i8* nonnull %33) #17, !dbg !5240
  call void @llvm.dbg.declare(metadata %class.IPFlowID* %5, metadata !5207, metadata !DIExpression()), !dbg !5241
  call void @_ZN8IPFlowIDC1EPK6Packetb(%class.IPFlowID* nonnull %5, %class.Packet* %18, i1 zeroext false), !dbg !5241
  %34 = load i8, i8* %10, align 1, !dbg !5242, !tbaa !5224
  %35 = icmp eq i8 %34, 6, !dbg !5243
  %36 = getelementptr inbounds %class.MyIPRewriter, %class.MyIPRewriter* %0, i64 0, i32 4, !dbg !5244
  %37 = getelementptr inbounds %class.MyIPRewriter, %class.MyIPRewriter* %0, i64 0, i32 3, !dbg !5244
  %38 = select i1 %35, %class.HashMap* %36, %class.HashMap* %37, !dbg !5244
  call void @llvm.dbg.value(metadata %class.HashMap* %38, metadata !5208, metadata !DIExpression()), !dbg !5218
  %39 = call %class.MyIPRewriterEntry* @_ZNK7HashMapI8IPFlowID17MyIPRewriterEntryE5findpERKS0_(%class.HashMap* nonnull %38, %class.IPFlowID* nonnull dereferenceable(12) %5), !dbg !5245
  call void @llvm.dbg.value(metadata %class.MyIPRewriterEntry* %39, metadata !5209, metadata !DIExpression()), !dbg !5218
  %40 = icmp eq %class.MyIPRewriterEntry* %39, null, !dbg !5246
  br i1 %40, label %41, label %69, !dbg !5247

41:                                               ; preds = %32
  call void @llvm.dbg.value(metadata i32 0, metadata !5210, metadata !DIExpression(DW_OP_LLVM_fragment, 0, 32)), !dbg !5248
  call void @llvm.dbg.value(metadata i32 0, metadata !5210, metadata !DIExpression(DW_OP_LLVM_fragment, 32, 32)), !dbg !5248
  call void @llvm.dbg.value(metadata %class.MyInputSpec* %9, metadata !5249, metadata !DIExpression()), !dbg !5258
  call void @llvm.dbg.value(metadata %class.IPFlowID* %5, metadata !5252, metadata !DIExpression()), !dbg !5258
  call void @llvm.dbg.value(metadata %class.IPFlowID* undef, metadata !5253, metadata !DIExpression()), !dbg !5258
  call void @llvm.dbg.value(metadata %class.WritablePacket* %6, metadata !5254, metadata !DIExpression()), !dbg !5258
  call void @llvm.dbg.value(metadata %class.HashMap* undef, metadata !5255, metadata !DIExpression()), !dbg !5258
  %42 = getelementptr inbounds %class.MyInputSpec, %class.MyInputSpec* %9, i64 0, i32 3, i32 1, !dbg !5260
  %43 = load i32, i32* %42, align 4, !dbg !5261, !tbaa !5262
  %44 = add nsw i32 %43, 1, !dbg !5261
  store i32 %44, i32* %42, align 4, !dbg !5261, !tbaa !5262
  call void @llvm.dbg.value(metadata i32 -559038737, metadata !5210, metadata !DIExpression(DW_OP_LLVM_fragment, 0, 32)), !dbg !5248
  %45 = trunc i32 %44 to i16, !dbg !5263
  call void @llvm.dbg.value(metadata i16 %45, metadata !5210, metadata !DIExpression(DW_OP_LLVM_fragment, 64, 16)), !dbg !5248
  call void @llvm.dbg.value(metadata %class.IPFlowID* %5, metadata !4932, metadata !DIExpression()), !dbg !5264
  %46 = getelementptr inbounds %class.IPFlowID, %class.IPFlowID* %5, i64 0, i32 1, i32 0, !dbg !5266
  %47 = load i32, i32* %46, align 4, !dbg !5266, !tbaa.struct !4921
  call void @llvm.dbg.value(metadata i32 %47, metadata !5210, metadata !DIExpression(DW_OP_LLVM_fragment, 32, 32)), !dbg !5248
  call void @llvm.dbg.value(metadata %class.IPFlowID* %5, metadata !4908, metadata !DIExpression()), !dbg !5267
  %48 = getelementptr inbounds %class.IPFlowID, %class.IPFlowID* %5, i64 0, i32 3, !dbg !5269
  %49 = load i16, i16* %48, align 2, !dbg !5269, !tbaa !4914
  call void @llvm.dbg.value(metadata i16 %49, metadata !5210, metadata !DIExpression(DW_OP_LLVM_fragment, 80, 16)), !dbg !5248
  %50 = call %struct.click_ip* @_ZNK14WritablePacket9ip_headerEv(%class.WritablePacket* %6), !dbg !5270
  call void @llvm.dbg.value(metadata %struct.click_ip* %50, metadata !5256, metadata !DIExpression()), !dbg !5258
  call void @llvm.dbg.value(metadata %class.IPFlowID* undef, metadata !4915, metadata !DIExpression()), !dbg !5271
  %51 = getelementptr inbounds %struct.click_ip, %struct.click_ip* %50, i64 0, i32 8, i32 0, !dbg !5273
  store i32 -559038737, i32* %51, align 4, !dbg !5273, !tbaa.struct !4921
  call void @llvm.dbg.value(metadata %class.IPFlowID* undef, metadata !4932, metadata !DIExpression()), !dbg !5274
  %52 = getelementptr inbounds %struct.click_ip, %struct.click_ip* %50, i64 0, i32 9, i32 0, !dbg !5276
  store i32 %47, i32* %52, align 4, !dbg !5276, !tbaa.struct !4921
  call void @llvm.dbg.value(metadata %class.WritablePacket* %6, metadata !5124, metadata !DIExpression()), !dbg !5277
  call void @llvm.dbg.value(metadata %class.Packet* %18, metadata !5130, metadata !DIExpression()), !dbg !5279
  %53 = call i8* @_ZNK6Packet16transport_headerEv(%class.Packet* %18), !dbg !5281
  call void @llvm.dbg.value(metadata i8* %53, metadata !5257, metadata !DIExpression()), !dbg !5258
  call void @llvm.dbg.value(metadata %class.IPFlowID* undef, metadata !4901, metadata !DIExpression()), !dbg !5282
  %54 = bitcast i8* %53 to i16*, !dbg !5284
  store i16 %45, i16* %54, align 4, !dbg !5285, !tbaa !5141
  call void @llvm.dbg.value(metadata %class.IPFlowID* undef, metadata !4908, metadata !DIExpression()), !dbg !5286
  %55 = getelementptr inbounds i8, i8* %53, i64 2, !dbg !5288
  %56 = bitcast i8* %55 to i16*, !dbg !5288
  store i16 %49, i16* %56, align 2, !dbg !5289, !tbaa !5148
  call void @llvm.dbg.value(metadata i32 -2, metadata !5213, metadata !DIExpression()), !dbg !5248
  %57 = load i8, i8* %10, align 1, !dbg !5290, !tbaa !5224
  call void @llvm.dbg.value(metadata %class.MyIPRewriter* %0, metadata !4842, metadata !DIExpression()), !dbg !5291
  call void @llvm.dbg.value(metadata i8 %57, metadata !4843, metadata !DIExpression()), !dbg !5291
  call void @llvm.dbg.value(metadata %class.IPFlowID* %5, metadata !4844, metadata !DIExpression()), !dbg !5291
  call void @llvm.dbg.value(metadata %class.IPFlowID* undef, metadata !4845, metadata !DIExpression()), !dbg !5291
  call void @llvm.dbg.value(metadata %class.MyInputSpec* %9, metadata !4846, metadata !DIExpression()), !dbg !5291
  %58 = icmp eq i8 %57, 6, !dbg !5292
  %59 = select i1 %58, %class.HashMap* %36, %class.HashMap* %37, !dbg !5293
  call void @llvm.dbg.value(metadata %class.HashMap* %59, metadata !4847, metadata !DIExpression()), !dbg !5291
  %60 = bitcast %class.MyIPRewriterEntry* %4 to i8*, !dbg !5294
  call void @llvm.lifetime.start.p0i8(i64 28, i8* nonnull %60) #17, !dbg !5294
  call void @llvm.memcpy.p0i8.p0i8.i64(i8* nonnull align 4 dereferenceable(12) %60, i8* nonnull align 4 dereferenceable(12) %33, i64 12, i1 false), !dbg !5295, !tbaa.struct !4785
  %61 = getelementptr inbounds %class.MyIPRewriterEntry, %class.MyIPRewriterEntry* %4, i64 0, i32 1, i32 0, i32 0, !dbg !5296
  store i32 -559038737, i32* %61, align 4, !dbg !5296, !tbaa.struct !4785
  %62 = getelementptr inbounds %class.MyIPRewriterEntry, %class.MyIPRewriterEntry* %4, i64 0, i32 1, i32 1, i32 0, !dbg !5296
  store i32 %47, i32* %62, align 4, !dbg !5296, !tbaa.struct !4785
  %63 = getelementptr inbounds %class.MyIPRewriterEntry, %class.MyIPRewriterEntry* %4, i64 0, i32 1, i32 2, !dbg !5296
  store i16 %45, i16* %63, align 4, !dbg !5296, !tbaa.struct !4785
  %64 = getelementptr inbounds %class.MyIPRewriterEntry, %class.MyIPRewriterEntry* %4, i64 0, i32 1, i32 3, !dbg !5296
  store i16 %49, i16* %64, align 2, !dbg !5296, !tbaa.struct !4785
  %65 = getelementptr inbounds %class.MyInputSpec, %class.MyInputSpec* %9, i64 0, i32 1, !dbg !5297
  %66 = load i32, i32* %65, align 4, !dbg !5297, !tbaa !4780
  %67 = getelementptr inbounds %class.MyIPRewriterEntry, %class.MyIPRewriterEntry* %4, i64 0, i32 2, !dbg !5298
  store i32 %66, i32* %67, align 4, !dbg !5299, !tbaa !4860
  %68 = call zeroext i1 @_ZN7HashMapI8IPFlowID17MyIPRewriterEntryE6insertERKS0_RKS1_(%class.HashMap* nonnull %59, %class.IPFlowID* nonnull dereferenceable(12) %5, %class.MyIPRewriterEntry* nonnull dereferenceable(28) %4), !dbg !5300
  call void @llvm.lifetime.end.p0i8(i64 28, i8* nonnull %60) #17, !dbg !5301
  br label %114

69:                                               ; preds = %32
  %70 = load i8, i8* %10, align 1, !dbg !5302, !tbaa !5224
  %71 = icmp eq i8 %70, 6, !dbg !5304
  %72 = call zeroext i1 @_ZNK6Packet18has_network_headerEv(%class.Packet* %18), !dbg !5305
  br i1 %71, label %73, label %87, !dbg !5306

73:                                               ; preds = %69
  call void @llvm.dbg.value(metadata %class.MyIPRewriter* undef, metadata !5108, metadata !DIExpression()), !dbg !5307
  call void @llvm.dbg.value(metadata %class.MyIPRewriterEntry* %39, metadata !5109, metadata !DIExpression()), !dbg !5307
  call void @llvm.dbg.value(metadata %class.WritablePacket* %6, metadata !5110, metadata !DIExpression()), !dbg !5307
  br i1 %72, label %75, label %74, !dbg !5310

74:                                               ; preds = %73
  call void @__assert_fail(i8* getelementptr inbounds ([24 x i8], [24 x i8]* @.str.8, i64 0, i64 0), i8* getelementptr inbounds ([33 x i8], [33 x i8]* @.str.9, i64 0, i64 0), i32 137, i8* getelementptr inbounds ([79 x i8], [79 x i8]* @__PRETTY_FUNCTION__._ZN12MyIPRewriter14tcp_flow_applyERK17MyIPRewriterEntryP14WritablePacket, i64 0, i64 0)) #21, !dbg !5310
  unreachable, !dbg !5310

75:                                               ; preds = %73
  %76 = call %struct.click_ip* @_ZNK14WritablePacket9ip_headerEv(%class.WritablePacket* %6), !dbg !5311
  call void @llvm.dbg.value(metadata %struct.click_ip* %76, metadata !5111, metadata !DIExpression()), !dbg !5307
  call void @llvm.dbg.value(metadata %class.MyIPRewriterEntry* %39, metadata !4915, metadata !DIExpression(DW_OP_plus_uconst, 12, DW_OP_stack_value)), !dbg !5312
  %77 = getelementptr inbounds %class.MyIPRewriterEntry, %class.MyIPRewriterEntry* %39, i64 0, i32 1, i32 0, i32 0, !dbg !5314
  %78 = load i32, i32* %77, align 4, !dbg !5314, !tbaa.struct !4921
  %79 = getelementptr inbounds %struct.click_ip, %struct.click_ip* %76, i64 0, i32 8, i32 0, !dbg !5315
  store i32 %78, i32* %79, align 4, !dbg !5315, !tbaa.struct !4921
  call void @llvm.dbg.value(metadata %class.MyIPRewriterEntry* %39, metadata !4932, metadata !DIExpression(DW_OP_plus_uconst, 12, DW_OP_stack_value)), !dbg !5316
  %80 = getelementptr inbounds %class.MyIPRewriterEntry, %class.MyIPRewriterEntry* %39, i64 0, i32 1, i32 1, i32 0, !dbg !5318
  %81 = load i32, i32* %80, align 4, !dbg !5318, !tbaa.struct !4921
  %82 = getelementptr inbounds %struct.click_ip, %struct.click_ip* %76, i64 0, i32 9, i32 0, !dbg !5319
  store i32 %81, i32* %82, align 4, !dbg !5319, !tbaa.struct !4921
  call void @llvm.dbg.value(metadata %class.WritablePacket* %6, metadata !5124, metadata !DIExpression()), !dbg !5320
  call void @llvm.dbg.value(metadata %class.Packet* %18, metadata !5130, metadata !DIExpression()), !dbg !5322
  %83 = call i8* @_ZNK6Packet16transport_headerEv(%class.Packet* %18), !dbg !5324
  call void @llvm.dbg.value(metadata i8* %83, metadata !5112, metadata !DIExpression()), !dbg !5307
  call void @llvm.dbg.value(metadata %class.MyIPRewriterEntry* %39, metadata !4901, metadata !DIExpression(DW_OP_plus_uconst, 12, DW_OP_stack_value)), !dbg !5325
  %84 = getelementptr inbounds %class.MyIPRewriterEntry, %class.MyIPRewriterEntry* %39, i64 0, i32 1, i32 2, !dbg !5327
  %85 = load i16, i16* %84, align 4, !dbg !5327, !tbaa !4907
  %86 = bitcast i8* %83 to i16*, !dbg !5328
  store i16 %85, i16* %86, align 4, !dbg !5329, !tbaa !5141
  call void @llvm.dbg.value(metadata %class.MyIPRewriterEntry* %39, metadata !4908, metadata !DIExpression(DW_OP_plus_uconst, 12, DW_OP_stack_value)), !dbg !5330
  br label %106, !dbg !5332

87:                                               ; preds = %69
  call void @llvm.dbg.value(metadata %class.MyIPRewriter* undef, metadata !5152, metadata !DIExpression()), !dbg !5333
  call void @llvm.dbg.value(metadata %class.MyIPRewriterEntry* %39, metadata !5153, metadata !DIExpression()), !dbg !5333
  call void @llvm.dbg.value(metadata %class.WritablePacket* %6, metadata !5154, metadata !DIExpression()), !dbg !5333
  br i1 %72, label %89, label %88, !dbg !5336

88:                                               ; preds = %87
  call void @__assert_fail(i8* getelementptr inbounds ([24 x i8], [24 x i8]* @.str.8, i64 0, i64 0), i8* getelementptr inbounds ([33 x i8], [33 x i8]* @.str.9, i64 0, i64 0), i32 150, i8* getelementptr inbounds ([79 x i8], [79 x i8]* @__PRETTY_FUNCTION__._ZN12MyIPRewriter14udp_flow_applyERK17MyIPRewriterEntryP14WritablePacket, i64 0, i64 0)) #21, !dbg !5336
  unreachable, !dbg !5336

89:                                               ; preds = %87
  %90 = call %struct.click_ip* @_ZNK14WritablePacket9ip_headerEv(%class.WritablePacket* %6), !dbg !5337
  call void @llvm.dbg.value(metadata %struct.click_ip* %90, metadata !5155, metadata !DIExpression()), !dbg !5333
  call void @llvm.dbg.value(metadata %class.MyIPRewriterEntry* %39, metadata !4915, metadata !DIExpression(DW_OP_plus_uconst, 12, DW_OP_stack_value)), !dbg !5338
  %91 = getelementptr inbounds %class.MyIPRewriterEntry, %class.MyIPRewriterEntry* %39, i64 0, i32 1, i32 0, i32 0, !dbg !5340
  %92 = load i32, i32* %91, align 4, !dbg !5340, !tbaa.struct !4921
  %93 = getelementptr inbounds %struct.click_ip, %struct.click_ip* %90, i64 0, i32 8, i32 0, !dbg !5341
  store i32 %92, i32* %93, align 4, !dbg !5341, !tbaa.struct !4921
  call void @llvm.dbg.value(metadata %class.MyIPRewriterEntry* %39, metadata !4932, metadata !DIExpression(DW_OP_plus_uconst, 12, DW_OP_stack_value)), !dbg !5342
  %94 = getelementptr inbounds %class.MyIPRewriterEntry, %class.MyIPRewriterEntry* %39, i64 0, i32 1, i32 1, i32 0, !dbg !5344
  %95 = load i32, i32* %94, align 4, !dbg !5344, !tbaa.struct !4921
  %96 = getelementptr inbounds %struct.click_ip, %struct.click_ip* %90, i64 0, i32 9, i32 0, !dbg !5345
  store i32 %95, i32* %96, align 4, !dbg !5345, !tbaa.struct !4921
  %97 = getelementptr inbounds %struct.click_ip, %struct.click_ip* %90, i64 0, i32 4, !dbg !5346
  %98 = load i16, i16* %97, align 2, !dbg !5346, !tbaa !5170
  %99 = and i16 %98, -225, !dbg !5346
  %100 = icmp eq i16 %99, 0, !dbg !5346
  br i1 %100, label %101, label %112, !dbg !5347

101:                                              ; preds = %89
  call void @llvm.dbg.value(metadata %class.WritablePacket* %6, metadata !5174, metadata !DIExpression()), !dbg !5348
  call void @llvm.dbg.value(metadata %class.Packet* %18, metadata !5179, metadata !DIExpression()), !dbg !5350
  %102 = call i8* @_ZNK6Packet16transport_headerEv(%class.Packet* %18), !dbg !5352
  call void @llvm.dbg.value(metadata i8* %102, metadata !5156, metadata !DIExpression()), !dbg !5333
  call void @llvm.dbg.value(metadata %class.MyIPRewriterEntry* %39, metadata !4901, metadata !DIExpression(DW_OP_plus_uconst, 12, DW_OP_stack_value)), !dbg !5353
  %103 = getelementptr inbounds %class.MyIPRewriterEntry, %class.MyIPRewriterEntry* %39, i64 0, i32 1, i32 2, !dbg !5355
  %104 = load i16, i16* %103, align 4, !dbg !5355, !tbaa !4907
  %105 = bitcast i8* %102 to i16*, !dbg !5356
  store i16 %104, i16* %105, align 2, !dbg !5357, !tbaa !5190
  call void @llvm.dbg.value(metadata %class.MyIPRewriterEntry* %39, metadata !4908, metadata !DIExpression(DW_OP_plus_uconst, 12, DW_OP_stack_value)), !dbg !5358
  br label %106, !dbg !5360

106:                                              ; preds = %75, %101
  %107 = phi i8* [ %102, %101 ], [ %83, %75 ]
  %108 = getelementptr inbounds %class.MyIPRewriterEntry, %class.MyIPRewriterEntry* %39, i64 0, i32 1, i32 3, !dbg !5305
  %109 = load i16, i16* %108, align 2, !dbg !5305, !tbaa !4914
  %110 = getelementptr inbounds i8, i8* %107, i64 2, !dbg !5305
  %111 = bitcast i8* %110 to i16*, !dbg !5305
  store i16 %109, i16* %111, align 2, !dbg !5305, !tbaa !4786
  br label %112, !dbg !5361

112:                                              ; preds = %106, %89
  %113 = getelementptr inbounds %class.MyInputSpec, %class.MyInputSpec* %9, i64 0, i32 1, !dbg !5362
  br label %114, !dbg !5363

114:                                              ; preds = %112, %41
  %115 = phi i32* [ %113, %112 ], [ %65, %41 ]
  %116 = bitcast %class.MyIPRewriter* %0 to %class.Element*, !dbg !5218
  %117 = load i32, i32* %115, align 4, !dbg !5218, !tbaa !4780
  call void @_ZNK7Element19checked_output_pushEiP6Packet(%class.Element* %116, i32 %117, %class.Packet* %18), !dbg !5218
  call void @llvm.lifetime.end.p0i8(i64 12, i8* nonnull %33) #17, !dbg !5363
  br label %118

118:                                              ; preds = %25, %30, %114
  ret void, !dbg !5363
}

declare %class.WritablePacket* @_ZN6Packet9uniqueifyEv(%class.Packet*) local_unnamed_addr #2

declare i32 @_ZNK6Packet16transport_lengthEv(%class.Packet*) local_unnamed_addr #2

; Function Attrs: noinline optnone sspstrong uwtable
define linkonce_odr dso_local void @_ZNK7Element19checked_output_pushEiP6Packet(%class.Element* %0, i32 %1, %class.Packet* %2) local_unnamed_addr #11 comdat align 2 !dbg !5364 {
  %4 = alloca %class.Element*, align 8
  %5 = alloca i32, align 4
  %6 = alloca %class.Packet*, align 8
  store %class.Element* %0, %class.Element** %4, align 8, !tbaa !4054
  call void @llvm.dbg.declare(metadata %class.Element** %4, metadata !5370, metadata !DIExpression()), !dbg !5373
  store i32 %1, i32* %5, align 4, !tbaa !4182
  call void @llvm.dbg.declare(metadata i32* %5, metadata !5371, metadata !DIExpression()), !dbg !5374
  store %class.Packet* %2, %class.Packet** %6, align 8, !tbaa !4054
  call void @llvm.dbg.declare(metadata %class.Packet** %6, metadata !5372, metadata !DIExpression()), !dbg !5375
  %7 = load %class.Element*, %class.Element** %4, align 8
  %8 = load i32, i32* %5, align 4, !dbg !5376, !tbaa !4182
  %9 = call i32 @_ZNK7Element8noutputsEv(%class.Element* %7), !dbg !5378
  %10 = icmp ult i32 %8, %9, !dbg !5379
  br i1 %10, label %11, label %19, !dbg !5380

11:                                               ; preds = %3
  %12 = getelementptr inbounds %class.Element, %class.Element* %7, i32 0, i32 1, !dbg !5381
  %13 = getelementptr inbounds [2 x %"class.Element::Port"*], [2 x %"class.Element::Port"*]* %12, i64 0, i64 1, !dbg !5381
  %14 = load %"class.Element::Port"*, %"class.Element::Port"** %13, align 8, !dbg !5381, !tbaa !4054
  %15 = load i32, i32* %5, align 4, !dbg !5382, !tbaa !4182
  %16 = sext i32 %15 to i64, !dbg !5381
  %17 = getelementptr inbounds %"class.Element::Port", %"class.Element::Port"* %14, i64 %16, !dbg !5381
  %18 = load %class.Packet*, %class.Packet** %6, align 8, !dbg !5383, !tbaa !4054
  call void @_ZNK7Element4Port4pushEP6Packet(%"class.Element::Port"* %17, %class.Packet* %18), !dbg !5384
  br label %21, !dbg !5381

19:                                               ; preds = %3
  %20 = load %class.Packet*, %class.Packet** %6, align 8, !dbg !5385, !tbaa !4054
  call void @_ZN6Packet4killEv(%class.Packet* %20), !dbg !5386
  br label %21

21:                                               ; preds = %19, %11
  ret void, !dbg !5387
}

declare void @_ZN6Packet4killEv(%class.Packet*) local_unnamed_addr #2

declare void @_ZN8IPFlowIDC1EPK6Packetb(%class.IPFlowID*, %class.Packet*, i1 zeroext) unnamed_addr #2

; Function Attrs: noinline optnone sspstrong uwtable
define linkonce_odr dso_local %class.MyIPRewriterEntry* @_ZNK7HashMapI8IPFlowID17MyIPRewriterEntryE5findpERKS0_(%class.HashMap* %0, %class.IPFlowID* dereferenceable(12) %1) local_unnamed_addr #11 comdat align 2 !dbg !5388 {
  %3 = alloca %class.HashMap*, align 8
  %4 = alloca %class.IPFlowID*, align 8
  %5 = alloca %"struct.HashMap<IPFlowID, MyIPRewriterEntry>::Pair"*, align 8
  store %class.HashMap* %0, %class.HashMap** %3, align 8, !tbaa !4054
  call void @llvm.dbg.declare(metadata %class.HashMap** %3, metadata !5390, metadata !DIExpression()), !dbg !5393
  store %class.IPFlowID* %1, %class.IPFlowID** %4, align 8, !tbaa !4054
  call void @llvm.dbg.declare(metadata %class.IPFlowID** %4, metadata !5391, metadata !DIExpression()), !dbg !5394
  %6 = load %class.HashMap*, %class.HashMap** %3, align 8
  %7 = bitcast %"struct.HashMap<IPFlowID, MyIPRewriterEntry>::Pair"** %5 to i8*, !dbg !5395
  call void @llvm.lifetime.start.p0i8(i64 8, i8* %7) #17, !dbg !5395
  call void @llvm.dbg.declare(metadata %"struct.HashMap<IPFlowID, MyIPRewriterEntry>::Pair"** %5, metadata !5392, metadata !DIExpression()), !dbg !5396
  %8 = load %class.IPFlowID*, %class.IPFlowID** %4, align 8, !dbg !5397, !tbaa !4054
  %9 = call %"struct.HashMap<IPFlowID, MyIPRewriterEntry>::Pair"* @_ZNK7HashMapI8IPFlowID17MyIPRewriterEntryE9find_pairERKS0_(%class.HashMap* %6, %class.IPFlowID* dereferenceable(12) %8), !dbg !5398
  store %"struct.HashMap<IPFlowID, MyIPRewriterEntry>::Pair"* %9, %"struct.HashMap<IPFlowID, MyIPRewriterEntry>::Pair"** %5, align 8, !dbg !5396, !tbaa !4054
  %10 = load %"struct.HashMap<IPFlowID, MyIPRewriterEntry>::Pair"*, %"struct.HashMap<IPFlowID, MyIPRewriterEntry>::Pair"** %5, align 8, !dbg !5399, !tbaa !4054
  %11 = icmp ne %"struct.HashMap<IPFlowID, MyIPRewriterEntry>::Pair"* %10, null, !dbg !5399
  br i1 %11, label %12, label %15, !dbg !5399

12:                                               ; preds = %2
  %13 = load %"struct.HashMap<IPFlowID, MyIPRewriterEntry>::Pair"*, %"struct.HashMap<IPFlowID, MyIPRewriterEntry>::Pair"** %5, align 8, !dbg !5400, !tbaa !4054
  %14 = getelementptr inbounds %"struct.HashMap<IPFlowID, MyIPRewriterEntry>::Pair", %"struct.HashMap<IPFlowID, MyIPRewriterEntry>::Pair"* %13, i32 0, i32 1, !dbg !5401
  br label %16, !dbg !5399

15:                                               ; preds = %2
  br label %16, !dbg !5399

16:                                               ; preds = %15, %12
  %17 = phi %class.MyIPRewriterEntry* [ %14, %12 ], [ null, %15 ], !dbg !5399
  %18 = bitcast %"struct.HashMap<IPFlowID, MyIPRewriterEntry>::Pair"** %5 to i8*, !dbg !5402
  call void @llvm.lifetime.end.p0i8(i64 8, i8* %18) #17, !dbg !5402
  ret %class.MyIPRewriterEntry* %17, !dbg !5403
}

; Function Attrs: sspstrong uwtable
define dso_local i32 @_ZN11MyInputSpec14rewrite_flowidERK8IPFlowIDRS0_P14WritablePacketP7HashMapIS0_17MyIPRewriterEntryE(%class.MyInputSpec* nocapture %0, %class.IPFlowID* nocapture readonly dereferenceable(12) %1, %class.IPFlowID* nocapture dereferenceable(12) %2, %class.WritablePacket* %3, %class.HashMap* nocapture readnone %4) local_unnamed_addr #0 align 2 !dbg !5250 {
  call void @llvm.dbg.value(metadata %class.MyInputSpec* %0, metadata !5249, metadata !DIExpression()), !dbg !5404
  call void @llvm.dbg.value(metadata %class.IPFlowID* %1, metadata !5252, metadata !DIExpression()), !dbg !5404
  call void @llvm.dbg.value(metadata %class.IPFlowID* %2, metadata !5253, metadata !DIExpression()), !dbg !5404
  call void @llvm.dbg.value(metadata %class.WritablePacket* %3, metadata !5254, metadata !DIExpression()), !dbg !5404
  call void @llvm.dbg.value(metadata %class.HashMap* undef, metadata !5255, metadata !DIExpression()), !dbg !5404
  %6 = getelementptr inbounds %class.MyInputSpec, %class.MyInputSpec* %0, i64 0, i32 3, i32 1, !dbg !5405
  %7 = load i32, i32* %6, align 4, !dbg !5406, !tbaa !5262
  %8 = add nsw i32 %7, 1, !dbg !5406
  store i32 %8, i32* %6, align 4, !dbg !5406, !tbaa !5262
  call void @llvm.dbg.value(metadata i32 -559038737, metadata !5407, metadata !DIExpression()), !dbg !5411
  call void @llvm.dbg.value(metadata %class.IPFlowID* %2, metadata !5410, metadata !DIExpression()), !dbg !5411
  %9 = getelementptr inbounds %class.IPFlowID, %class.IPFlowID* %2, i64 0, i32 0, i32 0, !dbg !5413
  store i32 -559038737, i32* %9, align 4, !dbg !5413, !tbaa.struct !4921
  %10 = load i32, i32* %6, align 4, !dbg !5414, !tbaa !5262
  %11 = trunc i32 %10 to i16, !dbg !5415
  call void @llvm.dbg.value(metadata %class.IPFlowID* %2, metadata !5416, metadata !DIExpression()), !dbg !5420
  call void @llvm.dbg.value(metadata i16 %11, metadata !5419, metadata !DIExpression()), !dbg !5420
  %12 = getelementptr inbounds %class.IPFlowID, %class.IPFlowID* %2, i64 0, i32 2, !dbg !5422
  store i16 %11, i16* %12, align 4, !dbg !5423, !tbaa !4907
  call void @llvm.dbg.value(metadata %class.IPFlowID* %1, metadata !4932, metadata !DIExpression()), !dbg !5424
  %13 = getelementptr inbounds %class.IPFlowID, %class.IPFlowID* %1, i64 0, i32 1, i32 0, !dbg !5426
  %14 = load i32, i32* %13, align 4, !dbg !5426, !tbaa.struct !4921
  call void @llvm.dbg.value(metadata i32 %14, metadata !5427, metadata !DIExpression()), !dbg !5431
  call void @llvm.dbg.value(metadata %class.IPFlowID* %2, metadata !5430, metadata !DIExpression()), !dbg !5431
  %15 = getelementptr inbounds %class.IPFlowID, %class.IPFlowID* %2, i64 0, i32 1, i32 0, !dbg !5433
  store i32 %14, i32* %15, align 4, !dbg !5433, !tbaa.struct !4921
  call void @llvm.dbg.value(metadata %class.IPFlowID* %1, metadata !4908, metadata !DIExpression()), !dbg !5434
  %16 = getelementptr inbounds %class.IPFlowID, %class.IPFlowID* %1, i64 0, i32 3, !dbg !5436
  %17 = load i16, i16* %16, align 2, !dbg !5436, !tbaa !4914
  call void @llvm.dbg.value(metadata %class.IPFlowID* %2, metadata !5437, metadata !DIExpression()), !dbg !5441
  call void @llvm.dbg.value(metadata i16 %17, metadata !5440, metadata !DIExpression()), !dbg !5441
  %18 = getelementptr inbounds %class.IPFlowID, %class.IPFlowID* %2, i64 0, i32 3, !dbg !5443
  store i16 %17, i16* %18, align 2, !dbg !5444, !tbaa !4914
  %19 = tail call %struct.click_ip* @_ZNK14WritablePacket9ip_headerEv(%class.WritablePacket* %3), !dbg !5445
  call void @llvm.dbg.value(metadata %struct.click_ip* %19, metadata !5256, metadata !DIExpression()), !dbg !5404
  call void @llvm.dbg.value(metadata %class.IPFlowID* %2, metadata !4915, metadata !DIExpression()), !dbg !5446
  %20 = load i32, i32* %9, align 4, !dbg !5448, !tbaa.struct !4921
  %21 = getelementptr inbounds %struct.click_ip, %struct.click_ip* %19, i64 0, i32 8, i32 0, !dbg !5449
  store i32 %20, i32* %21, align 4, !dbg !5449, !tbaa.struct !4921
  call void @llvm.dbg.value(metadata %class.IPFlowID* %2, metadata !4932, metadata !DIExpression()), !dbg !5450
  %22 = load i32, i32* %15, align 4, !dbg !5452, !tbaa.struct !4921
  %23 = getelementptr inbounds %struct.click_ip, %struct.click_ip* %19, i64 0, i32 9, i32 0, !dbg !5453
  store i32 %22, i32* %23, align 4, !dbg !5453, !tbaa.struct !4921
  call void @llvm.dbg.value(metadata %class.WritablePacket* %3, metadata !5124, metadata !DIExpression()), !dbg !5454
  %24 = getelementptr %class.WritablePacket, %class.WritablePacket* %3, i64 0, i32 0, !dbg !5456
  call void @llvm.dbg.value(metadata %class.Packet* %24, metadata !5130, metadata !DIExpression()), !dbg !5457
  %25 = tail call i8* @_ZNK6Packet16transport_headerEv(%class.Packet* %24), !dbg !5459
  call void @llvm.dbg.value(metadata i8* %25, metadata !5257, metadata !DIExpression()), !dbg !5404
  call void @llvm.dbg.value(metadata %class.IPFlowID* %2, metadata !4901, metadata !DIExpression()), !dbg !5460
  %26 = load i16, i16* %12, align 4, !dbg !5462, !tbaa !4907
  %27 = bitcast i8* %25 to i16*, !dbg !5463
  store i16 %26, i16* %27, align 4, !dbg !5464, !tbaa !5141
  call void @llvm.dbg.value(metadata %class.IPFlowID* %2, metadata !4908, metadata !DIExpression()), !dbg !5465
  %28 = load i16, i16* %18, align 2, !dbg !5467, !tbaa !4914
  %29 = getelementptr inbounds i8, i8* %25, i64 2, !dbg !5468
  %30 = bitcast i8* %29 to i16*, !dbg !5468
  store i16 %28, i16* %30, align 2, !dbg !5469, !tbaa !5148
  ret i32 -2, !dbg !5470
}

; Function Attrs: sspstrong uwtable
define dso_local void @_ZN12MyIPRewriter20udp_mappings_handlerEP7ElementPv(%class.String* noalias sret %0, %class.Element* %1, i8* nocapture readnone %2) #0 align 2 personality i8* bitcast (i32 (...)* @__gxx_personality_v0 to i8*) !dbg !5471 {
  %4 = alloca %class.StringAccum, align 8
  call void @llvm.dbg.value(metadata %class.Element* %1, metadata !5473, metadata !DIExpression()), !dbg !5480
  call void @llvm.dbg.value(metadata i8* undef, metadata !5474, metadata !DIExpression()), !dbg !5480
  call void @llvm.dbg.value(metadata %class.Element* %1, metadata !5475, metadata !DIExpression()), !dbg !5480
  %5 = tail call i32 @_Z13click_jiffiesv(), !dbg !5481
  call void @llvm.dbg.value(metadata i32 %5, metadata !5476, metadata !DIExpression()), !dbg !5480
  %6 = bitcast %class.StringAccum* %4 to i8*, !dbg !5482
  call void @llvm.lifetime.start.p0i8(i64 16, i8* nonnull %6) #17, !dbg !5482
  call void @llvm.dbg.declare(metadata %class.StringAccum* %4, metadata !5477, metadata !DIExpression()), !dbg !5483
  call void @llvm.dbg.value(metadata %class.StringAccum* %4, metadata !5484, metadata !DIExpression()), !dbg !5488
  call void @llvm.dbg.value(metadata %class.StringAccum* %4, metadata !5490, metadata !DIExpression()), !dbg !5494
  %7 = getelementptr inbounds %class.StringAccum, %class.StringAccum* %4, i64 0, i32 0, i32 0, !dbg !5496
  store i8* @_ZN6String9null_dataE, i8** %7, align 8, !dbg !5496, !tbaa !5497
  %8 = getelementptr inbounds %class.StringAccum, %class.StringAccum* %4, i64 0, i32 0, i32 1, !dbg !5499
  store i32 0, i32* %8, align 8, !dbg !5499, !tbaa !5500
  %9 = getelementptr inbounds %class.StringAccum, %class.StringAccum* %4, i64 0, i32 0, i32 2, !dbg !5501
  store i32 0, i32* %9, align 4, !dbg !5501, !tbaa !5502
  %10 = getelementptr inbounds %class.Element, %class.Element* %1, i64 3, i32 4, !dbg !5503
  %11 = bitcast %class.Router** %10 to %class.HashContainer*, !dbg !5503
  call void @llvm.dbg.value(metadata %class.HashContainer* %11, metadata !5504, metadata !DIExpression()), !dbg !5507
  call void @llvm.dbg.value(metadata %class.HashContainer_iterator* undef, metadata !5509, metadata !DIExpression()), !dbg !5514
  call void @llvm.dbg.value(metadata %class.HashContainer* %11, metadata !5512, metadata !DIExpression()), !dbg !5514
  call void @llvm.dbg.value(metadata %class.HashContainer_iterator* undef, metadata !5516, metadata !DIExpression()), !dbg !5521
  call void @llvm.dbg.value(metadata %class.HashContainer* %11, metadata !5519, metadata !DIExpression()), !dbg !5521
  call void @llvm.dbg.value(metadata %class.HashContainer* %11, metadata !5478, metadata !DIExpression(DW_OP_LLVM_fragment, 192, 64)), !dbg !5523
  %12 = getelementptr inbounds %class.HashContainer, %class.HashContainer* %11, i64 0, i32 0, i32 2, !dbg !5524
  %13 = load i32, i32* %12, align 4, !dbg !5524, !tbaa !4179, !noalias !5526
  call void @llvm.dbg.value(metadata i32 %13, metadata !5478, metadata !DIExpression(DW_OP_LLVM_fragment, 128, 32)), !dbg !5523
  %14 = bitcast %class.Router** %10 to %class.IPRewriterEntry***, !dbg !5529
  %15 = load %class.IPRewriterEntry**, %class.IPRewriterEntry*** %14, align 8, !dbg !5529, !tbaa !4176, !noalias !5526
  call void @llvm.dbg.value(metadata %class.IPRewriterEntry** undef, metadata !5478, metadata !DIExpression(DW_OP_LLVM_fragment, 64, 64)), !dbg !5523
  %16 = getelementptr inbounds %class.Router*, %class.Router** %10, i64 1, !dbg !5530
  %17 = bitcast %class.Router** %16 to i32*, !dbg !5530
  %18 = load i32, i32* %17, align 8, !dbg !5530, !tbaa !4172, !noalias !5526
  %19 = icmp eq i32 %13, %18, !dbg !5530
  br i1 %19, label %43, label %20, !dbg !5532, !prof !5533, !misexpect !5534

20:                                               ; preds = %3
  %21 = zext i32 %13 to i64, !dbg !5535
  %22 = getelementptr inbounds %class.IPRewriterEntry*, %class.IPRewriterEntry** %15, i64 %21, !dbg !5535
  call void @llvm.dbg.value(metadata %class.IPRewriterEntry** %22, metadata !5478, metadata !DIExpression(DW_OP_LLVM_fragment, 64, 64)), !dbg !5523
  %23 = load %class.IPRewriterEntry*, %class.IPRewriterEntry** %22, align 8, !dbg !5536, !tbaa !4054, !noalias !5526
  call void @llvm.dbg.value(metadata %class.IPRewriterEntry* %23, metadata !5478, metadata !DIExpression(DW_OP_LLVM_fragment, 0, 64)), !dbg !5523
  %24 = icmp eq %class.IPRewriterEntry* %23, null, !dbg !5538
  br i1 %24, label %25, label %37, !dbg !5539

25:                                               ; preds = %20, %29
  %26 = phi i32 [ %27, %29 ], [ %13, %20 ]
  %27 = add i32 %26, 1, !dbg !5540
  %28 = icmp eq i32 %27, %18, !dbg !5555
  br i1 %28, label %34, label %29, !dbg !5557

29:                                               ; preds = %25
  %30 = zext i32 %27 to i64, !dbg !5558
  %31 = getelementptr inbounds %class.IPRewriterEntry*, %class.IPRewriterEntry** %15, i64 %30, !dbg !5558
  call void @llvm.dbg.value(metadata %class.IPRewriterEntry** %31, metadata !5478, metadata !DIExpression(DW_OP_LLVM_fragment, 64, 64)), !dbg !5523
  %32 = load %class.IPRewriterEntry*, %class.IPRewriterEntry** %31, align 8, !dbg !5560, !tbaa !4054, !noalias !5526
  %33 = icmp eq %class.IPRewriterEntry* %32, null, !dbg !5560
  br i1 %33, label %25, label %34, !dbg !5561, !llvm.loop !5562

34:                                               ; preds = %29, %25
  %35 = phi i32 [ %27, %29 ], [ %18, %25 ], !dbg !5540
  %36 = phi %class.IPRewriterEntry* [ %32, %29 ], [ null, %25 ], !dbg !5564
  call void @llvm.dbg.value(metadata i32 %35, metadata !5478, metadata !DIExpression(DW_OP_LLVM_fragment, 128, 32)), !dbg !5523
  call void @llvm.dbg.value(metadata %class.IPRewriterEntry* %36, metadata !5478, metadata !DIExpression(DW_OP_LLVM_fragment, 0, 64)), !dbg !5523
  store i32 %35, i32* %12, align 4, !dbg !5565, !tbaa !4179, !noalias !5526
  br label %37, !dbg !5566

37:                                               ; preds = %20, %34
  %38 = phi i32 [ %35, %34 ], [ %13, %20 ], !dbg !5567
  %39 = phi %class.IPRewriterEntry* [ %36, %34 ], [ %23, %20 ]
  call void @llvm.dbg.value(metadata %class.IPRewriterEntry* %39, metadata !5478, metadata !DIExpression(DW_OP_LLVM_fragment, 0, 64)), !dbg !5523
  call void @llvm.dbg.value(metadata i32 %38, metadata !5478, metadata !DIExpression(DW_OP_LLVM_fragment, 128, 32)), !dbg !5523
  call void @llvm.dbg.value(metadata %class.HashContainer_const_iterator* undef, metadata !5568, metadata !DIExpression()), !dbg !5572
  %40 = icmp eq %class.IPRewriterEntry* %39, null, !dbg !5575
  br i1 %40, label %43, label %41, !dbg !5576

41:                                               ; preds = %37
  %42 = ptrtoint %class.IPRewriterEntry* %39 to i64, !dbg !5577
  call void @llvm.dbg.value(metadata i64 %42, metadata !5478, metadata !DIExpression(DW_OP_LLVM_fragment, 0, 64)), !dbg !5523
  br label %46, !dbg !5576

43:                                               ; preds = %94, %82, %3, %37
  invoke void @_ZN11StringAccum11take_stringEv(%class.String* sret %0, %class.StringAccum* nonnull %4)
          to label %98 unwind label %105, !dbg !5578

44:                                               ; preds = %61, %46
  %45 = landingpad { i8*, i32 }
          cleanup, !dbg !5579
  br label %107, !dbg !5580

46:                                               ; preds = %41, %94
  %47 = phi i64 [ %96, %94 ], [ %42, %41 ]
  %48 = phi i32 [ %95, %94 ], [ %38, %41 ]
  %49 = inttoptr i64 %47 to %class.IPRewriterEntry*, !dbg !5575
  call void @llvm.dbg.value(metadata i64 %47, metadata !5478, metadata !DIExpression(DW_OP_LLVM_fragment, 0, 64)), !dbg !5523
  call void @llvm.dbg.value(metadata i32 %48, metadata !5478, metadata !DIExpression(DW_OP_LLVM_fragment, 128, 32)), !dbg !5523
  call void @llvm.dbg.value(metadata %class.IPRewriterEntry* %49, metadata !5581, metadata !DIExpression()), !dbg !5584
  %50 = getelementptr inbounds %class.IPRewriterEntry, %class.IPRewriterEntry* %49, i64 0, i32 2, !dbg !5587
  %51 = load i8, i8* %50, align 1, !dbg !5587, !tbaa !5588
  %52 = zext i8 %51 to i64, !dbg !5590
  %53 = sub nsw i64 0, %52, !dbg !5590
  %54 = getelementptr inbounds %class.IPRewriterEntry, %class.IPRewriterEntry* %49, i64 %53, !dbg !5590
  %55 = bitcast %class.IPRewriterEntry* %54 to %class.IPRewriterFlow*, !dbg !5591
  call void @llvm.dbg.value(metadata %class.IPRewriterEntry* %49, metadata !5592, metadata !DIExpression()), !dbg !5595
  %56 = icmp ne i8 %51, 0, !dbg !5597
  invoke void @_ZNK14IPRewriterFlow7unparseER11StringAccumbj(%class.IPRewriterFlow* nonnull %55, %class.StringAccum* nonnull dereferenceable(16) %4, i1 zeroext %56, i32 %5)
          to label %57 unwind label %44, !dbg !5598

57:                                               ; preds = %46
  call void @llvm.dbg.value(metadata %class.StringAccum* %4, metadata !5599, metadata !DIExpression()), !dbg !5605
  call void @llvm.dbg.value(metadata i8 10, metadata !5604, metadata !DIExpression()), !dbg !5605
  call void @llvm.dbg.value(metadata %class.StringAccum* %4, metadata !5607, metadata !DIExpression()), !dbg !5611
  call void @llvm.dbg.value(metadata i8 10, metadata !5610, metadata !DIExpression()), !dbg !5611
  %58 = load i32, i32* %8, align 8, !dbg !5613, !tbaa !5615
  %59 = load i32, i32* %9, align 4, !dbg !5617, !tbaa !5618
  %60 = icmp slt i32 %58, %59, !dbg !5619
  br i1 %60, label %67, label %61, !dbg !5620

61:                                               ; preds = %57
  %62 = invoke i8* @_ZN11StringAccum4growEi(%class.StringAccum* nonnull %4, i32 %58)
          to label %63 unwind label %44, !dbg !5621

63:                                               ; preds = %61
  %64 = icmp eq i8* %62, null, !dbg !5621
  br i1 %64, label %73, label %65, !dbg !5622

65:                                               ; preds = %63
  %66 = load i32, i32* %8, align 8, !dbg !5623, !tbaa !5615
  br label %67, !dbg !5622

67:                                               ; preds = %65, %57
  %68 = phi i32 [ %66, %65 ], [ %58, %57 ], !dbg !5623
  %69 = load i8*, i8** %7, align 8, !dbg !5624, !tbaa !5625
  %70 = add nsw i32 %68, 1, !dbg !5623
  store i32 %70, i32* %8, align 8, !dbg !5623, !tbaa !5615
  %71 = sext i32 %68 to i64, !dbg !5626
  %72 = getelementptr inbounds i8, i8* %69, i64 %71, !dbg !5626
  store i8 10, i8* %72, align 1, !dbg !5627, !tbaa !4183
  br label %73, !dbg !5626

73:                                               ; preds = %63, %67
  call void @llvm.dbg.value(metadata %class.HashContainer_const_iterator* undef, metadata !5547, metadata !DIExpression()), !dbg !5628
  call void @llvm.dbg.value(metadata %class.IPRewriterEntry* %49, metadata !5630, metadata !DIExpression()), !dbg !5633
  %74 = getelementptr inbounds %class.IPRewriterEntry, %class.IPRewriterEntry* %49, i64 0, i32 3, !dbg !5635
  %75 = load %class.IPRewriterEntry*, %class.IPRewriterEntry** %74, align 8, !dbg !5636, !tbaa !4054
  %76 = icmp eq %class.IPRewriterEntry* %75, null, !dbg !5636
  br i1 %76, label %79, label %77, !dbg !5637

77:                                               ; preds = %73
  %78 = ptrtoint %class.IPRewriterEntry* %75 to i64, !dbg !5637
  call void @llvm.dbg.value(metadata %class.IPRewriterEntry* undef, metadata !5630, metadata !DIExpression()), !dbg !5638
  call void @llvm.dbg.value(metadata %class.IPRewriterEntry** %74, metadata !5478, metadata !DIExpression(DW_OP_LLVM_fragment, 64, 64)), !dbg !5523
  call void @llvm.dbg.value(metadata i64 %78, metadata !5478, metadata !DIExpression(DW_OP_LLVM_fragment, 0, 64)), !dbg !5523
  br label %94, !dbg !5641

79:                                               ; preds = %73
  %80 = load i32, i32* %17, align 8, !dbg !5642, !tbaa !4172
  %81 = icmp eq i32 %48, %80, !dbg !5643
  br i1 %81, label %94, label %82, !dbg !5644

82:                                               ; preds = %79, %86
  %83 = phi i32 [ %84, %86 ], [ %48, %79 ]
  %84 = add i32 %83, 1, !dbg !5645
  %85 = icmp eq i32 %84, %80, !dbg !5646
  br i1 %85, label %43, label %86, !dbg !5647

86:                                               ; preds = %82
  %87 = load %class.IPRewriterEntry**, %class.IPRewriterEntry*** %14, align 8, !dbg !5648, !tbaa !4176
  %88 = zext i32 %84 to i64, !dbg !5649
  %89 = getelementptr inbounds %class.IPRewriterEntry*, %class.IPRewriterEntry** %87, i64 %88, !dbg !5649
  call void @llvm.dbg.value(metadata %class.IPRewriterEntry** %89, metadata !5478, metadata !DIExpression(DW_OP_LLVM_fragment, 64, 64)), !dbg !5523
  %90 = load %class.IPRewriterEntry*, %class.IPRewriterEntry** %89, align 8, !dbg !5650, !tbaa !4054
  %91 = icmp eq %class.IPRewriterEntry* %90, null, !dbg !5650
  br i1 %91, label %82, label %92, !dbg !5651, !llvm.loop !5652

92:                                               ; preds = %86
  call void @llvm.dbg.value(metadata i32 %84, metadata !5478, metadata !DIExpression(DW_OP_LLVM_fragment, 128, 32)), !dbg !5523
  %93 = ptrtoint %class.IPRewriterEntry* %90 to i64, !dbg !5654
  call void @llvm.dbg.value(metadata i64 %93, metadata !5478, metadata !DIExpression(DW_OP_LLVM_fragment, 0, 64)), !dbg !5523
  br label %94, !dbg !5656

94:                                               ; preds = %77, %79, %92
  %95 = phi i32 [ %48, %79 ], [ %84, %92 ], [ %48, %77 ], !dbg !5523
  %96 = phi i64 [ %47, %79 ], [ %93, %92 ], [ %78, %77 ], !dbg !5523
  call void @llvm.dbg.value(metadata i64 %96, metadata !5478, metadata !DIExpression(DW_OP_LLVM_fragment, 0, 64)), !dbg !5523
  call void @llvm.dbg.value(metadata i32 %95, metadata !5478, metadata !DIExpression(DW_OP_LLVM_fragment, 128, 32)), !dbg !5523
  call void @llvm.dbg.value(metadata %class.HashContainer_const_iterator* undef, metadata !5568, metadata !DIExpression()), !dbg !5572
  %97 = icmp eq i64 %96, 0, !dbg !5575
  br i1 %97, label %43, label %46, !dbg !5576, !llvm.loop !5657

98:                                               ; preds = %43
  call void @llvm.dbg.value(metadata %class.StringAccum* %4, metadata !5659, metadata !DIExpression()) #17, !dbg !5662
  %99 = load i32, i32* %9, align 4, !dbg !5664, !tbaa !5618
  %100 = icmp sgt i32 %99, 0, !dbg !5667
  br i1 %100, label %101, label %104, !dbg !5668

101:                                              ; preds = %98
  %102 = load i8*, i8** %7, align 8, !dbg !5669, !tbaa !5625
  %103 = getelementptr inbounds i8, i8* %102, i64 -12, !dbg !5669
  call void @_ZdaPv(i8* nonnull %103) #19, !dbg !5669
  br label %104, !dbg !5669

104:                                              ; preds = %98, %101
  call void @llvm.lifetime.end.p0i8(i64 16, i8* nonnull %6) #17, !dbg !5670
  ret void, !dbg !5670

105:                                              ; preds = %43
  %106 = landingpad { i8*, i32 }
          cleanup, !dbg !5670
  br label %107, !dbg !5670

107:                                              ; preds = %105, %44
  %108 = phi { i8*, i32 } [ %106, %105 ], [ %45, %44 ]
  call void @llvm.dbg.value(metadata %class.StringAccum* %4, metadata !5659, metadata !DIExpression()) #17, !dbg !5671
  %109 = load i32, i32* %9, align 4, !dbg !5673, !tbaa !5618
  %110 = icmp sgt i32 %109, 0, !dbg !5674
  br i1 %110, label %111, label %114, !dbg !5675

111:                                              ; preds = %107
  %112 = load i8*, i8** %7, align 8, !dbg !5676, !tbaa !5625
  %113 = getelementptr inbounds i8, i8* %112, i64 -12, !dbg !5676
  call void @_ZdaPv(i8* nonnull %113) #19, !dbg !5676
  br label %114, !dbg !5676

114:                                              ; preds = %107, %111
  call void @llvm.lifetime.end.p0i8(i64 16, i8* nonnull %6) #17, !dbg !5670
  resume { i8*, i32 } %108, !dbg !5670
}

declare !dbg !2979 i32 @_Z13click_jiffiesv() local_unnamed_addr #2

declare void @_ZNK14IPRewriterFlow7unparseER11StringAccumbj(%class.IPRewriterFlow*, %class.StringAccum* dereferenceable(16), i1 zeroext, i32) local_unnamed_addr #2

declare void @_ZN11StringAccum11take_stringEv(%class.String* sret, %class.StringAccum*) local_unnamed_addr #2

; Function Attrs: sspstrong uwtable
define dso_local void @_ZN12MyIPRewriter12add_handlersEv(%class.MyIPRewriter* %0) unnamed_addr #0 align 2 !dbg !5677 {
  call void @llvm.dbg.value(metadata %class.MyIPRewriter* %0, metadata !5679, metadata !DIExpression()), !dbg !5680
  %2 = bitcast %class.MyIPRewriter* %0 to %class.Element*, !dbg !5681
  tail call void @_ZN7Element16add_read_handlerEPKcPF6StringPS_PvEij(%class.Element* %2, i8* getelementptr inbounds ([10 x i8], [10 x i8]* @.str.10, i64 0, i64 0), void (%class.String*, %class.Element*, i8*)* nonnull @_ZN11TCPRewriter20tcp_mappings_handlerEP7ElementPv, i32 0, i32 0), !dbg !5681
  tail call void @_ZN7Element16add_read_handlerEPKcPF6StringPS_PvEij(%class.Element* %2, i8* getelementptr inbounds ([10 x i8], [10 x i8]* @.str.11, i64 0, i64 0), void (%class.String*, %class.Element*, i8*)* nonnull @_ZN12MyIPRewriter20udp_mappings_handlerEP7ElementPv, i32 0, i32 0), !dbg !5682
  tail call void @_ZN7Element16add_read_handlerEPKcPF6StringPS_PvEij(%class.Element* %2, i8* getelementptr inbounds ([13 x i8], [13 x i8]* @.str.12, i64 0, i64 0), void (%class.String*, %class.Element*, i8*)* nonnull @_ZN11TCPRewriter20tcp_mappings_handlerEP7ElementPv, i32 0, i32 512), !dbg !5683
  tail call void @_ZN7Element16add_read_handlerEPKcPF6StringPS_PvEij(%class.Element* %2, i8* getelementptr inbounds ([13 x i8], [13 x i8]* @.str.13, i64 0, i64 0), void (%class.String*, %class.Element*, i8*)* nonnull @_ZN12MyIPRewriter20udp_mappings_handlerEP7ElementPv, i32 0, i32 512), !dbg !5684
  tail call void @_ZN7Element11set_handlerEPKciPFiiR6StringPS_PK7HandlerP12ErrorHandlerEii(%class.Element* %2, i8* getelementptr inbounds ([11 x i8], [11 x i8]* @.str.14, i64 0, i64 0), i32 5, i32 (i32, %class.String*, %class.Element*, %class.Handler*, %class.ErrorHandler*)* nonnull @_ZN11TCPRewriter18tcp_lookup_handlerEiR6StringP7ElementPK7HandlerP12ErrorHandler, i32 0, i32 0), !dbg !5685
  %3 = getelementptr %class.MyIPRewriter, %class.MyIPRewriter* %0, i64 0, i32 0, i32 0, !dbg !5686
  tail call void @_ZN14IPRewriterBase21add_rewriter_handlersEb(%class.IPRewriterBase* %3, i1 zeroext true), !dbg !5686
  ret void, !dbg !5687
}

declare void @_ZN7Element16add_read_handlerEPKcPF6StringPS_PvEij(%class.Element*, i8*, void (%class.String*, %class.Element*, i8*)*, i32, i32) local_unnamed_addr #2

declare void @_ZN11TCPRewriter20tcp_mappings_handlerEP7ElementPv(%class.String* sret, %class.Element*, i8*) #2

declare void @_ZN7Element11set_handlerEPKciPFiiR6StringPS_PK7HandlerP12ErrorHandlerEii(%class.Element*, i8*, i32, i32 (i32, %class.String*, %class.Element*, %class.Handler*, %class.ErrorHandler*)*, i32, i32) local_unnamed_addr #2

declare i32 @_ZN11TCPRewriter18tcp_lookup_handlerEiR6StringP7ElementPK7HandlerP12ErrorHandler(i32, %class.String* dereferenceable(24), %class.Element*, %class.Handler*, %class.ErrorHandler*) #2

declare void @_ZN14IPRewriterBase21add_rewriter_handlersEb(%class.IPRewriterBase*, i1 zeroext) local_unnamed_addr #2

declare %class.Packet* @_ZN7Element4pullEi(%class.Element*, i32) unnamed_addr #2

declare %class.Packet* @_ZN7Element13simple_actionEP6Packet(%class.Element*, %class.Packet*) unnamed_addr #2

declare zeroext i1 @_ZN7Element8run_taskEP4Task(%class.Element*, %class.Task*) unnamed_addr #2

declare void @_ZN7Element9run_timerEP5Timer(%class.Element*, %class.Timer*) unnamed_addr #2

declare void @_ZN7Element8selectedEii(%class.Element*, i32, i32) unnamed_addr #2

declare void @_ZN7Element8selectedEi(%class.Element*, i32) unnamed_addr #2

; Function Attrs: nounwind sspstrong uwtable
define linkonce_odr dso_local i8* @_ZNK12MyIPRewriter10class_nameEv(%class.MyIPRewriter* %0) unnamed_addr #4 comdat align 2 !dbg !5688 {
  call void @llvm.dbg.value(metadata %class.MyIPRewriter* %0, metadata !5690, metadata !DIExpression()), !dbg !5692
  ret i8* getelementptr inbounds ([13 x i8], [13 x i8]* @.str.2, i64 0, i64 0), !dbg !5693
}

; Function Attrs: nounwind sspstrong uwtable
define linkonce_odr dso_local i8* @_ZNK14IPRewriterBase10port_countEv(%class.IPRewriterBase* %0) unnamed_addr #4 comdat align 2 !dbg !5694 {
  call void @llvm.dbg.value(metadata %class.IPRewriterBase* %0, metadata !5701, metadata !DIExpression()), !dbg !5703
  ret i8* getelementptr inbounds ([6 x i8], [6 x i8]* @.str.17, i64 0, i64 0), !dbg !5704
}

; Function Attrs: nounwind sspstrong uwtable
define linkonce_odr dso_local i8* @_ZNK14IPRewriterBase10processingEv(%class.IPRewriterBase* %0) unnamed_addr #4 comdat align 2 !dbg !5705 {
  call void @llvm.dbg.value(metadata %class.IPRewriterBase* %0, metadata !5708, metadata !DIExpression()), !dbg !5709
  ret i8* getelementptr inbounds ([0 x i8], [0 x i8]* @_ZN7Element4PUSHE, i64 0, i64 0), !dbg !5710
}

declare i8* @_ZNK7Element9flow_codeEv(%class.Element*) unnamed_addr #2

declare i8* @_ZNK7Element5flagsEv(%class.Element*) unnamed_addr #2

declare i8* @_ZN7Element9port_castEbiPKc(%class.Element*, i1 zeroext, i32, i8*) unnamed_addr #2

; Function Attrs: nounwind sspstrong uwtable
define linkonce_odr dso_local i32 @_ZNK14IPRewriterBase15configure_phaseEv(%class.IPRewriterBase* %0) unnamed_addr #4 comdat align 2 !dbg !5711 {
  call void @llvm.dbg.value(metadata %class.IPRewriterBase* %0, metadata !5716, metadata !DIExpression()), !dbg !5717
  ret i32 100, !dbg !5718
}

declare i32 @_ZN14IPRewriterBase10initializeEP12ErrorHandler(%class.IPRewriterBase*, %class.ErrorHandler*) unnamed_addr #2

declare void @_ZN7Element10take_stateEPS_P12ErrorHandler(%class.Element*, %class.Element*, %class.ErrorHandler*) unnamed_addr #2

declare %class.Element* @_ZNK7Element15hotswap_elementEv(%class.Element*) unnamed_addr #2

declare void @_ZN14IPRewriterBase7cleanupEN7Element12CleanupStageE(%class.IPRewriterBase*, i32) unnamed_addr #2

declare void @_ZNK7Element11declarationEv(%class.String* sret, %class.Element*) unnamed_addr #2

declare zeroext i1 @_ZNK7Element20can_live_reconfigureEv(%class.Element*) unnamed_addr #2

declare i32 @_ZN7Element16live_reconfigureER6VectorI6StringEP12ErrorHandler(%class.Element*, %class.Vector.0* dereferenceable(16), %class.ErrorHandler*) unnamed_addr #2

declare i32 @_ZN14IPRewriterBase5llrpcEjPv(%class.IPRewriterBase*, i32, i8*) unnamed_addr #2

; Function Attrs: nounwind sspstrong uwtable
define linkonce_odr dso_local %class.HashContainer* @_ZN12MyIPRewriter7get_mapEi(%class.MyIPRewriter* %0, i32 %1) unnamed_addr #4 comdat align 2 !dbg !5719 {
  call void @llvm.dbg.value(metadata %class.MyIPRewriter* %0, metadata !5721, metadata !DIExpression()), !dbg !5723
  call void @llvm.dbg.value(metadata i32 %1, metadata !5722, metadata !DIExpression()), !dbg !5723
  switch i32 %1, label %7 [
    i32 0, label %3
    i32 1, label %5
  ], !dbg !5724

3:                                                ; preds = %2
  %4 = getelementptr inbounds %class.MyIPRewriter, %class.MyIPRewriter* %0, i64 0, i32 0, i32 0, i32 1, !dbg !5725
  br label %7, !dbg !5727

5:                                                ; preds = %2
  %6 = getelementptr inbounds %class.MyIPRewriter, %class.MyIPRewriter* %0, i64 0, i32 5, !dbg !5728
  br label %7, !dbg !5730

7:                                                ; preds = %2, %5, %3
  %8 = phi %class.HashContainer* [ %4, %3 ], [ %6, %5 ], [ null, %2 ], !dbg !5731
  ret %class.HashContainer* %8, !dbg !5732
}

; Function Attrs: inlinehint sspstrong uwtable
define linkonce_odr dso_local %class.IPRewriterEntry* @_ZN12MyIPRewriter9get_entryEiRK8IPFlowIDi(%class.MyIPRewriter* %0, i32 %1, %class.IPFlowID* dereferenceable(12) %2, i32 %3) unnamed_addr #12 comdat align 2 !dbg !5733 {
  %5 = alloca %class.MyIPRewriterEntry, align 4
  call void @llvm.dbg.declare(metadata %class.MyIPRewriterEntry* %5, metadata !4848, metadata !DIExpression()), !dbg !5744
  %6 = alloca %class.IPFlowID, align 4
  call void @llvm.dbg.value(metadata %class.MyIPRewriter* %0, metadata !5735, metadata !DIExpression()), !dbg !5747
  call void @llvm.dbg.value(metadata i32 %1, metadata !5736, metadata !DIExpression()), !dbg !5747
  call void @llvm.dbg.value(metadata %class.IPFlowID* %2, metadata !5737, metadata !DIExpression()), !dbg !5747
  call void @llvm.dbg.value(metadata i32 %3, metadata !5738, metadata !DIExpression()), !dbg !5747
  switch i32 %1, label %39 [
    i32 6, label %7
    i32 17, label %10
  ], !dbg !5748

7:                                                ; preds = %4
  %8 = getelementptr %class.MyIPRewriter, %class.MyIPRewriter* %0, i64 0, i32 0, i32 0, !dbg !5749
  %9 = tail call %class.IPRewriterEntry* @_ZN14IPRewriterBase9get_entryEiRK8IPFlowIDi(%class.IPRewriterBase* %8, i32 6, %class.IPFlowID* nonnull dereferenceable(12) %2, i32 %3), !dbg !5749
  br label %39, !dbg !5751

10:                                               ; preds = %4
  %11 = getelementptr inbounds %class.MyIPRewriter, %class.MyIPRewriter* %0, i64 0, i32 5, !dbg !5752
  %12 = tail call %class.IPRewriterEntry* @_ZNK13HashContainerI15IPRewriterEntry21HashContainer_adapterIS0_EE3getERK8IPFlowID(%class.HashContainer* nonnull %11, %class.IPFlowID* nonnull dereferenceable(12) %2), !dbg !5753
  call void @llvm.dbg.value(metadata %class.IPRewriterEntry* %12, metadata !5739, metadata !DIExpression()), !dbg !5747
  %13 = icmp eq %class.IPRewriterEntry* %12, null, !dbg !5754
  br i1 %13, label %14, label %39, !dbg !5755

14:                                               ; preds = %10
  call void @llvm.dbg.value(metadata %class.MyIPRewriter* %0, metadata !4528, metadata !DIExpression(DW_OP_plus_uconst, 144, DW_OP_stack_value)), !dbg !5756
  %15 = getelementptr inbounds %class.MyIPRewriter, %class.MyIPRewriter* %0, i64 0, i32 0, i32 0, i32 2, i32 0, i32 1, !dbg !5758
  %16 = load i32, i32* %15, align 8, !dbg !5758, !tbaa !4712
  %17 = icmp ugt i32 %16, %3, !dbg !5759
  br i1 %17, label %18, label %39, !dbg !5760

18:                                               ; preds = %14
  %19 = getelementptr inbounds %class.MyIPRewriter, %class.MyIPRewriter* %0, i64 0, i32 0, i32 0, i32 2, !dbg !5761
  call void @llvm.dbg.value(metadata %class.Vector.13* %19, metadata !4528, metadata !DIExpression()), !dbg !5756
  %20 = tail call dereferenceable(56) %class.IPRewriterInput* @_ZN6VectorI15IPRewriterInputEixEi(%class.Vector.13* nonnull %19, i32 %3), !dbg !5762
  call void @llvm.dbg.value(metadata %class.IPRewriterInput* %20, metadata !5740, metadata !DIExpression()), !dbg !5763
  %21 = bitcast %class.IPFlowID* %6 to i8*, !dbg !5764
  call void @llvm.lifetime.start.p0i8(i64 12, i8* nonnull %21) #17, !dbg !5764
  call void @llvm.dbg.declare(metadata %class.IPFlowID* %6, metadata !5743, metadata !DIExpression()), !dbg !5765
  call void @llvm.dbg.value(metadata %class.IPFlowID* %6, metadata !5766, metadata !DIExpression()), !dbg !5770
  call void @llvm.dbg.value(metadata %struct.uninitialized_type* undef, metadata !5769, metadata !DIExpression()), !dbg !5770
  call void @llvm.dbg.value(metadata %class.IPFlowID* %6, metadata !4007, metadata !DIExpression()), !dbg !5772
  %22 = getelementptr inbounds %class.IPFlowID, %class.IPFlowID* %6, i64 0, i32 0, i32 0, !dbg !5774
  store i32 0, i32* %22, align 4, !dbg !5774, !tbaa !5775
  call void @llvm.dbg.value(metadata %class.IPFlowID* %6, metadata !4007, metadata !DIExpression(DW_OP_plus_uconst, 4, DW_OP_stack_value)), !dbg !5776
  %23 = getelementptr inbounds %class.IPFlowID, %class.IPFlowID* %6, i64 0, i32 1, i32 0, !dbg !5778
  store i32 0, i32* %23, align 4, !dbg !5778, !tbaa !5775
  %24 = call i32 @_ZN15IPRewriterInput14rewrite_flowidERK8IPFlowIDRS0_P6Packeti(%class.IPRewriterInput* nonnull %20, %class.IPFlowID* nonnull dereferenceable(12) %2, %class.IPFlowID* nonnull dereferenceable(12) %6, %class.Packet* null, i32 1), !dbg !5779
  %25 = icmp eq i32 %24, -2, !dbg !5780
  br i1 %25, label %26, label %38, !dbg !5781

26:                                               ; preds = %18
  %27 = getelementptr inbounds %class.MyIPRewriter, %class.MyIPRewriter* %0, i64 0, i32 2, !dbg !5782
  %28 = call dereferenceable(40) %class.MyInputSpec* @_ZN6VectorI11MyInputSpecEixEi(%class.Vector.24* nonnull %27, i32 %3), !dbg !5782
  call void @llvm.dbg.value(metadata %class.MyIPRewriter* %0, metadata !4842, metadata !DIExpression()), !dbg !5783
  call void @llvm.dbg.value(metadata i32 0, metadata !4843, metadata !DIExpression()), !dbg !5783
  call void @llvm.dbg.value(metadata %class.IPFlowID* %2, metadata !4844, metadata !DIExpression()), !dbg !5783
  call void @llvm.dbg.value(metadata %class.IPFlowID* %6, metadata !4845, metadata !DIExpression()), !dbg !5783
  call void @llvm.dbg.value(metadata %class.MyInputSpec* %28, metadata !4846, metadata !DIExpression()), !dbg !5783
  %29 = getelementptr inbounds %class.MyIPRewriter, %class.MyIPRewriter* %0, i64 0, i32 3, !dbg !5784
  call void @llvm.dbg.value(metadata %class.HashMap* %29, metadata !4847, metadata !DIExpression()), !dbg !5783
  %30 = bitcast %class.MyIPRewriterEntry* %5 to i8*, !dbg !5785
  call void @llvm.lifetime.start.p0i8(i64 28, i8* nonnull %30) #17, !dbg !5785
  %31 = bitcast %class.IPFlowID* %2 to i8*, !dbg !5786
  call void @llvm.memcpy.p0i8.p0i8.i64(i8* nonnull align 4 dereferenceable(12) %30, i8* nonnull align 4 dereferenceable(12) %31, i64 12, i1 false), !dbg !5786, !tbaa.struct !4785
  %32 = getelementptr inbounds %class.MyIPRewriterEntry, %class.MyIPRewriterEntry* %5, i64 0, i32 1, !dbg !5787
  %33 = bitcast %class.IPFlowID* %32 to i8*, !dbg !5788
  call void @llvm.memcpy.p0i8.p0i8.i64(i8* nonnull align 4 dereferenceable(12) %33, i8* nonnull align 4 dereferenceable(12) %21, i64 12, i1 false), !dbg !5788, !tbaa.struct !4785
  %34 = getelementptr inbounds %class.MyInputSpec, %class.MyInputSpec* %28, i64 0, i32 1, !dbg !5789
  %35 = load i32, i32* %34, align 4, !dbg !5789, !tbaa !4780
  %36 = getelementptr inbounds %class.MyIPRewriterEntry, %class.MyIPRewriterEntry* %5, i64 0, i32 2, !dbg !5790
  store i32 %35, i32* %36, align 4, !dbg !5791, !tbaa !4860
  %37 = call zeroext i1 @_ZN7HashMapI8IPFlowID17MyIPRewriterEntryE6insertERKS0_RKS1_(%class.HashMap* nonnull %29, %class.IPFlowID* nonnull dereferenceable(12) %2, %class.MyIPRewriterEntry* nonnull dereferenceable(28) %5), !dbg !5792
  call void @llvm.lifetime.end.p0i8(i64 28, i8* nonnull %30) #17, !dbg !5793
  call void @llvm.dbg.value(metadata %class.IPRewriterEntry* null, metadata !5739, metadata !DIExpression()), !dbg !5747
  br label %38, !dbg !5794

38:                                               ; preds = %26, %18
  call void @llvm.dbg.value(metadata %class.IPRewriterEntry* null, metadata !5739, metadata !DIExpression()), !dbg !5747
  call void @llvm.lifetime.end.p0i8(i64 12, i8* nonnull %21) #17, !dbg !5795
  br label %39, !dbg !5796

39:                                               ; preds = %14, %38, %10, %4, %7
  %40 = phi %class.IPRewriterEntry* [ %9, %7 ], [ null, %4 ], [ %12, %10 ], [ null, %38 ], [ null, %14 ], !dbg !5747
  ret %class.IPRewriterEntry* %40, !dbg !5797
}

declare %class.IPRewriterEntry* @_ZN11TCPRewriter8add_flowEiRK8IPFlowIDS2_i(%class.TCPRewriter*, i32, %class.IPFlowID* dereferenceable(12), %class.IPFlowID* dereferenceable(12), i32) unnamed_addr #2

; Function Attrs: inlinehint sspstrong uwtable
define linkonce_odr dso_local void @_ZN12MyIPRewriter12destroy_flowEP14IPRewriterFlow(%class.MyIPRewriter* %0, %class.IPRewriterFlow* %1) unnamed_addr #12 comdat align 2 personality i32 (...)* @__gxx_personality_v0 !dbg !5798 {
  call void @llvm.dbg.value(metadata %class.MyIPRewriter* %0, metadata !5800, metadata !DIExpression()), !dbg !5802
  call void @llvm.dbg.value(metadata %class.IPRewriterFlow* %1, metadata !5801, metadata !DIExpression()), !dbg !5802
  call void @llvm.dbg.value(metadata %class.IPRewriterFlow* %1, metadata !5803, metadata !DIExpression()), !dbg !5806
  %3 = getelementptr inbounds %class.IPRewriterFlow, %class.IPRewriterFlow* %1, i64 0, i32 5, !dbg !5809
  %4 = load i8, i8* %3, align 4, !dbg !5809, !tbaa !5810
  %5 = icmp eq i8 %4, 6, !dbg !5812
  %6 = getelementptr %class.MyIPRewriter, %class.MyIPRewriter* %0, i64 0, i32 0, i32 0, !dbg !5813
  br i1 %5, label %7, label %24, !dbg !5814

7:                                                ; preds = %2
  call void @llvm.dbg.value(metadata %class.MyIPRewriter* %0, metadata !5815, metadata !DIExpression()), !dbg !5823
  call void @llvm.dbg.value(metadata %class.IPRewriterFlow* %1, metadata !5822, metadata !DIExpression()), !dbg !5823
  %8 = getelementptr inbounds %class.MyIPRewriter, %class.MyIPRewriter* %0, i64 0, i32 0, i32 0, i32 1, !dbg !5825
  tail call void @_ZN14IPRewriterBase10unmap_flowEP14IPRewriterFlowR13HashContainerI15IPRewriterEntry21HashContainer_adapterIS3_EEPS6_(%class.IPRewriterBase* %6, %class.IPRewriterFlow* nonnull %1, %class.HashContainer* nonnull dereferenceable(32) %8, %class.HashContainer* null), !dbg !5826
  call void @llvm.dbg.value(metadata %class.IPRewriterFlow* %1, metadata !5827, metadata !DIExpression()) #17, !dbg !5832
  %9 = getelementptr inbounds %class.IPRewriterFlow, %class.IPRewriterFlow* %1, i64 1, !dbg !5834
  %10 = bitcast %class.IPRewriterFlow* %9 to %"struct.TCPRewriter::TCPFlow::delta_transition"**, !dbg !5834
  %11 = load %"struct.TCPRewriter::TCPFlow::delta_transition"*, %"struct.TCPRewriter::TCPFlow::delta_transition"** %10, align 8, !dbg !5834, !tbaa !5835
  call void @llvm.dbg.value(metadata %"struct.TCPRewriter::TCPFlow::delta_transition"* %11, metadata !5830, metadata !DIExpression()) #17, !dbg !5837
  %12 = icmp eq %"struct.TCPRewriter::TCPFlow::delta_transition"* %11, null, !dbg !5838
  br i1 %12, label %22, label %13, !dbg !5839

13:                                               ; preds = %7, %13
  %14 = phi %"struct.TCPRewriter::TCPFlow::delta_transition"* [ %20, %13 ], [ %11, %7 ]
  call void @llvm.dbg.value(metadata %"struct.TCPRewriter::TCPFlow::delta_transition"* %14, metadata !5840, metadata !DIExpression()) #17, !dbg !5844
  %15 = getelementptr inbounds %"struct.TCPRewriter::TCPFlow::delta_transition", %"struct.TCPRewriter::TCPFlow::delta_transition"* %14, i64 0, i32 2, !dbg !5847
  %16 = load i64, i64* %15, align 8, !dbg !5847, !tbaa !5848
  %17 = and i64 %16, -4, !dbg !5850
  %18 = inttoptr i64 %17 to %"struct.TCPRewriter::TCPFlow::delta_transition"*, !dbg !5851
  store %"struct.TCPRewriter::TCPFlow::delta_transition"* %18, %"struct.TCPRewriter::TCPFlow::delta_transition"** %10, align 8, !dbg !5852, !tbaa !5835
  %19 = bitcast %"struct.TCPRewriter::TCPFlow::delta_transition"* %14 to i8*, !dbg !5853
  tail call void @_ZdlPv(i8* %19) #19, !dbg !5853
  %20 = load %"struct.TCPRewriter::TCPFlow::delta_transition"*, %"struct.TCPRewriter::TCPFlow::delta_transition"** %10, align 8, !dbg !5834, !tbaa !5835
  call void @llvm.dbg.value(metadata %"struct.TCPRewriter::TCPFlow::delta_transition"* %20, metadata !5830, metadata !DIExpression()) #17, !dbg !5837
  %21 = icmp eq %"struct.TCPRewriter::TCPFlow::delta_transition"* %20, null, !dbg !5838
  br i1 %21, label %22, label %13, !dbg !5839

22:                                               ; preds = %13, %7
  %23 = getelementptr inbounds %class.MyIPRewriter, %class.MyIPRewriter* %0, i64 0, i32 0, i32 1, i32 0, !dbg !5854
  call void @llvm.dbg.value(metadata %class.HashAllocator* %23, metadata !5855, metadata !DIExpression()), !dbg !5860
  call void @llvm.dbg.value(metadata %class.IPRewriterFlow* %1, metadata !5858, metadata !DIExpression()), !dbg !5860
  call void @llvm.dbg.value(metadata %class.IPRewriterFlow* %1, metadata !5858, metadata !DIExpression()), !dbg !5860
  br label %33, !dbg !5862

24:                                               ; preds = %2
  %25 = getelementptr inbounds %class.MyIPRewriter, %class.MyIPRewriter* %0, i64 0, i32 5, !dbg !5863
  call void @llvm.dbg.value(metadata %class.IPRewriterFlow* %1, metadata !5865, metadata !DIExpression()), !dbg !5868
  %26 = getelementptr inbounds %class.IPRewriterFlow, %class.IPRewriterFlow* %1, i64 0, i32 9, !dbg !5870
  %27 = load %class.IPRewriterInput*, %class.IPRewriterInput** %26, align 8, !dbg !5870, !tbaa !5871
  call void @llvm.dbg.value(metadata %class.IPRewriterInput* %27, metadata !5872, metadata !DIExpression()), !dbg !5876
  %28 = getelementptr inbounds %class.IPRewriterInput, %class.IPRewriterInput* %27, i64 0, i32 4, !dbg !5878
  %29 = bitcast %class.IPRewriterBase** %28 to %class.MyIPRewriter**, !dbg !5878
  %30 = load %class.MyIPRewriter*, %class.MyIPRewriter** %29, align 8, !dbg !5878, !tbaa !5879
  call void @llvm.dbg.value(metadata %class.MyIPRewriter* %30, metadata !5875, metadata !DIExpression()), !dbg !5876
  %31 = getelementptr inbounds %class.MyIPRewriter, %class.MyIPRewriter* %30, i64 0, i32 5, !dbg !5880
  tail call void @_ZN14IPRewriterBase10unmap_flowEP14IPRewriterFlowR13HashContainerI15IPRewriterEntry21HashContainer_adapterIS3_EEPS6_(%class.IPRewriterBase* %6, %class.IPRewriterFlow* nonnull %1, %class.HashContainer* nonnull dereferenceable(32) %25, %class.HashContainer* nonnull %31), !dbg !5881
  %32 = getelementptr inbounds %class.MyIPRewriter, %class.MyIPRewriter* %0, i64 0, i32 6, i32 0, !dbg !5882
  call void @llvm.dbg.value(metadata %class.HashAllocator* %32, metadata !5855, metadata !DIExpression()), !dbg !5883
  call void @llvm.dbg.value(metadata %class.IPRewriterFlow* %1, metadata !5858, metadata !DIExpression()), !dbg !5883
  call void @llvm.dbg.value(metadata %class.IPRewriterFlow* %1, metadata !5858, metadata !DIExpression()), !dbg !5883
  br label %33, !dbg !5885

33:                                               ; preds = %24, %22
  %34 = phi %class.HashAllocator* [ %32, %24 ], [ %23, %22 ]
  %35 = bitcast %class.HashAllocator* %34 to i64*, !dbg !5813
  %36 = load i64, i64* %35, align 8, !dbg !5813, !tbaa !5888
  %37 = bitcast %class.IPRewriterFlow* %1 to i64*, !dbg !5813
  store i64 %36, i64* %37, align 8, !dbg !5813, !tbaa !5890
  %38 = bitcast %class.HashAllocator* %34 to %class.IPRewriterFlow**, !dbg !5813
  store %class.IPRewriterFlow* %1, %class.IPRewriterFlow** %38, align 8, !dbg !5813, !tbaa !5888
  ret void, !dbg !5892
}

; Function Attrs: sspstrong uwtable
define linkonce_odr dso_local i32 @_ZN12MyIPRewriter18best_effort_expiryEPK14IPRewriterFlow(%class.MyIPRewriter* %0, %class.IPRewriterFlow* %1) unnamed_addr #0 comdat align 2 !dbg !5893 {
  call void @llvm.dbg.value(metadata %class.MyIPRewriter* %0, metadata !5895, metadata !DIExpression()), !dbg !5897
  call void @llvm.dbg.value(metadata %class.IPRewriterFlow* %1, metadata !5896, metadata !DIExpression()), !dbg !5897
  call void @llvm.dbg.value(metadata %class.IPRewriterFlow* %1, metadata !5803, metadata !DIExpression()), !dbg !5898
  %3 = getelementptr inbounds %class.IPRewriterFlow, %class.IPRewriterFlow* %1, i64 0, i32 5, !dbg !5901
  %4 = load i8, i8* %3, align 4, !dbg !5901, !tbaa !5810
  %5 = icmp eq i8 %4, 6, !dbg !5902
  %6 = getelementptr inbounds %class.IPRewriterFlow, %class.IPRewriterFlow* %1, i64 0, i32 3, !dbg !5903
  %7 = load i32, i32* %6, align 4, !dbg !5903, !tbaa !5904
  %8 = getelementptr inbounds %class.IPRewriterFlow, %class.IPRewriterFlow* %1, i64 0, i32 6, !dbg !5903
  %9 = load i8, i8* %8, align 1, !dbg !5903, !tbaa !5905
  br i1 %5, label %10, label %25, !dbg !5906

10:                                               ; preds = %2
  call void @llvm.dbg.value(metadata %class.MyIPRewriter* %0, metadata !5907, metadata !DIExpression()), !dbg !5914
  call void @llvm.dbg.value(metadata %class.IPRewriterFlow* %1, metadata !5913, metadata !DIExpression()), !dbg !5914
  call void @llvm.dbg.value(metadata %class.MyIPRewriter* %0, metadata !5916, metadata !DIExpression()), !dbg !5926
  call void @llvm.dbg.value(metadata %class.IPRewriterFlow* %1, metadata !5924, metadata !DIExpression()), !dbg !5926
  call void @llvm.dbg.value(metadata %class.IPRewriterFlow* %1, metadata !5928, metadata !DIExpression()), !dbg !5931
  %11 = and i8 %9, 3, !dbg !5934
  %12 = icmp eq i8 %11, 3, !dbg !5935
  br i1 %12, label %13, label %15, !dbg !5936

13:                                               ; preds = %10
  call void @llvm.dbg.value(metadata %class.MyIPRewriter* %0, metadata !5907, metadata !DIExpression()), !dbg !5914
  call void @llvm.dbg.value(metadata %class.MyIPRewriter* %0, metadata !5916, metadata !DIExpression()), !dbg !5926
  %14 = getelementptr inbounds %class.MyIPRewriter, %class.MyIPRewriter* %0, i64 0, i32 0, i32 4, !dbg !5937
  br label %22, !dbg !5938

15:                                               ; preds = %10
  call void @llvm.dbg.value(metadata %class.IPRewriterFlow* %1, metadata !5939, metadata !DIExpression()), !dbg !5942
  %16 = and i8 %9, 12, !dbg !5945
  %17 = icmp eq i8 %16, 12, !dbg !5946
  br i1 %17, label %18, label %20, !dbg !5947

18:                                               ; preds = %15
  %19 = getelementptr inbounds %class.MyIPRewriter, %class.MyIPRewriter* %0, i64 0, i32 0, i32 3, !dbg !5948
  br label %22, !dbg !5949

20:                                               ; preds = %15
  %21 = getelementptr inbounds %class.MyIPRewriter, %class.MyIPRewriter* %0, i64 0, i32 0, i32 0, i32 4, i64 0, !dbg !5950
  br label %22, !dbg !5951

22:                                               ; preds = %13, %18, %20
  %23 = phi i32* [ %14, %13 ], [ %19, %18 ], [ %21, %20 ]
  %24 = getelementptr inbounds %class.MyIPRewriter, %class.MyIPRewriter* %0, i64 0, i32 0, i32 0, i32 4, i64 1, !dbg !5952
  br label %31, !dbg !5953

25:                                               ; preds = %2
  call void @llvm.dbg.value(metadata %class.MyIPRewriter* %0, metadata !5954, metadata !DIExpression()), !dbg !5958
  call void @llvm.dbg.value(metadata %class.IPRewriterFlow* %1, metadata !5957, metadata !DIExpression()), !dbg !5958
  call void @llvm.dbg.value(metadata %class.IPRewriterFlow* %1, metadata !5960, metadata !DIExpression()), !dbg !5964
  %26 = icmp ugt i8 %9, 6, !dbg !5967
  %27 = getelementptr inbounds %class.MyIPRewriter, %class.MyIPRewriter* %0, i64 0, i32 8, !dbg !5968
  %28 = getelementptr inbounds %class.MyIPRewriter, %class.MyIPRewriter* %0, i64 0, i32 7, i64 0, !dbg !5968
  %29 = select i1 %26, i32* %27, i32* %28, !dbg !5968
  %30 = getelementptr inbounds %class.MyIPRewriter, %class.MyIPRewriter* %0, i64 0, i32 7, i64 1, !dbg !5969
  br label %31, !dbg !5970

31:                                               ; preds = %25, %22
  %32 = phi i32* [ %30, %25 ], [ %24, %22 ]
  %33 = phi i32* [ %29, %25 ], [ %23, %22 ]
  %34 = load i32, i32* %33, align 4, !dbg !5903, !tbaa !4182
  %35 = add i32 %34, %7, !dbg !5903
  %36 = load i32, i32* %32, align 4, !dbg !5903, !tbaa !4182
  %37 = sub i32 %35, %36, !dbg !5903
  ret i32 %37, !dbg !5971
}

; Function Attrs: noinline noreturn nounwind
define linkonce_odr hidden void @__clang_call_terminate(i8* %0) local_unnamed_addr #13 comdat {
  %2 = tail call i8* @__cxa_begin_catch(i8* %0) #17
  tail call void @_ZSt9terminatev() #21
  unreachable
}

declare i8* @__cxa_begin_catch(i8*) local_unnamed_addr

declare void @_ZSt9terminatev() local_unnamed_addr

; Function Attrs: nobuiltin nounwind
declare void @_ZdaPv(i8*) local_unnamed_addr #5

declare i8* @_ZNK6Packet16transport_headerEv(%class.Packet*) local_unnamed_addr #2

; Function Attrs: inlinehint nounwind sspstrong uwtable
define linkonce_odr dso_local i32 @_ZNK7Element8noutputsEv(%class.Element* %0) local_unnamed_addr #14 comdat align 2 !dbg !5972 {
  call void @llvm.dbg.value(metadata %class.Element* %0, metadata !5977, metadata !DIExpression()), !dbg !5978
  %2 = getelementptr inbounds %class.Element, %class.Element* %0, i64 0, i32 3, i64 1, !dbg !5979
  %3 = load i32, i32* %2, align 4, !dbg !5979, !tbaa !4182
  ret i32 %3, !dbg !5980
}

; Function Attrs: noinline optnone sspstrong uwtable
define linkonce_odr dso_local void @_ZNK7Element4Port4pushEP6Packet(%"class.Element::Port"* %0, %class.Packet* %1) local_unnamed_addr #11 comdat align 2 !dbg !5981 {
  %3 = alloca %"class.Element::Port"*, align 8
  %4 = alloca %class.Packet*, align 8
  store %"class.Element::Port"* %0, %"class.Element::Port"** %3, align 8, !tbaa !4054
  call void @llvm.dbg.declare(metadata %"class.Element::Port"** %3, metadata !6014, metadata !DIExpression()), !dbg !6017
  store %class.Packet* %1, %class.Packet** %4, align 8, !tbaa !4054
  call void @llvm.dbg.declare(metadata %class.Packet** %4, metadata !6016, metadata !DIExpression()), !dbg !6018
  %5 = load %"class.Element::Port"*, %"class.Element::Port"** %3, align 8
  %6 = getelementptr inbounds %"class.Element::Port", %"class.Element::Port"* %5, i32 0, i32 0, !dbg !6019
  %7 = load %class.Element*, %class.Element** %6, align 8, !dbg !6019, !tbaa !6020
  %8 = icmp ne %class.Element* %7, null, !dbg !6019
  br i1 %8, label %9, label %12, !dbg !6019

9:                                                ; preds = %2
  %10 = load %class.Packet*, %class.Packet** %4, align 8, !dbg !6019, !tbaa !4054
  %11 = icmp ne %class.Packet* %10, null, !dbg !6019
  br label %12

12:                                               ; preds = %9, %2
  %13 = phi i1 [ false, %2 ], [ %11, %9 ], !dbg !6017
  br i1 %13, label %14, label %15, !dbg !6019

14:                                               ; preds = %12
  br label %16, !dbg !6019

15:                                               ; preds = %12
  call void @__assert_fail(i8* getelementptr inbounds ([8 x i8], [8 x i8]* @.str.15, i64 0, i64 0), i8* getelementptr inbounds ([30 x i8], [30 x i8]* @.str.16, i64 0, i64 0), i32 611, i8* getelementptr inbounds ([41 x i8], [41 x i8]* @__PRETTY_FUNCTION__._ZNK7Element4Port4pushEP6Packet, i64 0, i64 0)) #21, !dbg !6019
  unreachable, !dbg !6019

16:                                               ; preds = %14
  %17 = getelementptr inbounds %"class.Element::Port", %"class.Element::Port"* %5, i32 0, i32 0, !dbg !6022
  %18 = load %class.Element*, %class.Element** %17, align 8, !dbg !6022, !tbaa !6020
  %19 = getelementptr inbounds %"class.Element::Port", %"class.Element::Port"* %5, i32 0, i32 1, !dbg !6023
  %20 = load i32, i32* %19, align 8, !dbg !6023, !tbaa !6024
  %21 = load %class.Packet*, %class.Packet** %4, align 8, !dbg !6025, !tbaa !4054
  %22 = bitcast %class.Element* %18 to void (%class.Element*, i32, %class.Packet*)***, !dbg !6026
  %23 = load void (%class.Element*, i32, %class.Packet*)**, void (%class.Element*, i32, %class.Packet*)*** %22, align 8, !dbg !6026, !tbaa !3969
  %24 = getelementptr inbounds void (%class.Element*, i32, %class.Packet*)*, void (%class.Element*, i32, %class.Packet*)** %23, i64 2, !dbg !6026
  %25 = load void (%class.Element*, i32, %class.Packet*)*, void (%class.Element*, i32, %class.Packet*)** %24, align 8, !dbg !6026
  call void %25(%class.Element* %18, i32 %20, %class.Packet* %21), !dbg !6026
  ret void, !dbg !6027
}

declare i8* @_ZN11StringAccum4growEi(%class.StringAccum*, i32) local_unnamed_addr #2

declare %class.IPRewriterEntry* @_ZN14IPRewriterBase9get_entryEiRK8IPFlowIDi(%class.IPRewriterBase*, i32, %class.IPFlowID* dereferenceable(12), i32) unnamed_addr #2

; Function Attrs: noinline optnone sspstrong uwtable
define linkonce_odr dso_local %class.IPRewriterEntry* @_ZNK13HashContainerI15IPRewriterEntry21HashContainer_adapterIS0_EE3getERK8IPFlowID(%class.HashContainer* %0, %class.IPFlowID* dereferenceable(12) %1) local_unnamed_addr #11 comdat align 2 !dbg !6028 {
  %3 = alloca %class.HashContainer*, align 8
  %4 = alloca %class.IPFlowID*, align 8
  %5 = alloca %class.HashContainer_const_iterator, align 8
  store %class.HashContainer* %0, %class.HashContainer** %3, align 8, !tbaa !4054
  call void @llvm.dbg.declare(metadata %class.HashContainer** %3, metadata !6030, metadata !DIExpression()), !dbg !6032
  store %class.IPFlowID* %1, %class.IPFlowID** %4, align 8, !tbaa !4054
  call void @llvm.dbg.declare(metadata %class.IPFlowID** %4, metadata !6031, metadata !DIExpression()), !dbg !6033
  %6 = load %class.HashContainer*, %class.HashContainer** %3, align 8
  %7 = bitcast %class.HashContainer_const_iterator* %5 to i8*, !dbg !6034
  call void @llvm.lifetime.start.p0i8(i64 32, i8* %7) #17, !dbg !6034
  %8 = load %class.IPFlowID*, %class.IPFlowID** %4, align 8, !dbg !6035, !tbaa !4054
  call void @_ZNK13HashContainerI15IPRewriterEntry21HashContainer_adapterIS0_EE4findERK8IPFlowID(%class.HashContainer_const_iterator* sret %5, %class.HashContainer* %6, %class.IPFlowID* dereferenceable(12) %8), !dbg !6034
  %9 = call %class.IPRewriterEntry* @_ZNK28HashContainer_const_iteratorI15IPRewriterEntry21HashContainer_adapterIS0_EE3getEv(%class.HashContainer_const_iterator* %5), !dbg !6036
  %10 = bitcast %class.HashContainer_const_iterator* %5 to i8*, !dbg !6037
  call void @llvm.lifetime.end.p0i8(i64 32, i8* %10) #17, !dbg !6037
  ret %class.IPRewriterEntry* %9, !dbg !6037
}

