; ModuleID = '../elements/tcpudp/myrewritermod.cc'
source_filename = "../elements/tcpudp/myrewritermod.cc"
target datalayout = "e-m:e-p270:32:32-p271:32:32-p272:64:64-i64:64-f80:128-n8:16:32:64-S128"
target triple = "x86_64-pc-linux-gnu"

%class.MyIPRewriterMod = type <{ %class.TCPRewriter.base, i32, %class.HashMap, %class.HashMap.24, %class.HashContainer, %class.SizedHashAllocator.25, [2 x i32], i32, [4 x i8] }>
%class.TCPRewriter.base = type <{ %class.IPRewriterBase, %class.SizedHashAllocator, i32, i32, i32 }>
%class.IPRewriterBase = type { %class.Element.base, %class.HashContainer, %class.Vector.13, %class.IPRewriterHeap*, [2 x i32], i32, %class.Timer }
%class.Element.base = type <{ i32 (...)**, [2 x %"class.Element::Port"*], [4 x %"class.Element::Port"], [2 x i32], %class.Router*, i32 }>
%"class.Element::Port" = type <{ %class.Element*, i32, [4 x i8] }>
%class.Element = type <{ i32 (...)**, [2 x %"class.Element::Port"*], [4 x %"class.Element::Port"], [2 x i32], %class.Router*, i32, [4 x i8] }>
%class.Router = type { %class.Master*, %class.atomic_uint32_t, i32, i8, i32, %class.atomic_uint32_t, %class.Vector, %class.Vector.0, %class.Vector.0, %class.Vector.2, %class.Vector.5, %class.Vector.6, i32, %class.Vector.5, [2 x %class.Vector.5], %class.Vector.5, %class.Vector.8, %class.Vector.5, %class.Vector.0, %class.Vector.5, %class.Vector.5, %class.Vector.5, %class.Vector.5, %class.Handler**, i32, i32, %class.Vector.0, %class.Vector.12, %class.Element*, %class.String, %"struct.Router::notifier_signals_t"*, %class.HashMap_ArenaFactory*, %class.Router*, %class.ThreadSched*, %class.NameInfo*, %class.Vector.5, %class.Vector.0, %class.Router* }
%class.Master = type opaque
%class.atomic_uint32_t = type { i32 }
%class.Vector = type { %class.vector_memory }
%class.vector_memory = type { %struct.char_array*, i32, i32 }
%struct.char_array = type { [8 x i8] }
%class.Vector.2 = type { %class.vector_memory.3 }
%class.vector_memory.3 = type { %struct.char_array.4*, i32, i32 }
%struct.char_array.4 = type opaque
%class.Vector.6 = type { %class.vector_memory.7 }
%class.vector_memory.7 = type { %"struct.Router::element_landmark_t"*, i32, i32 }
%"struct.Router::element_landmark_t" = type { i32, %class.String }
%class.Vector.8 = type { %class.vector_memory.9 }
%class.vector_memory.9 = type { %struct.char_array.10*, i32, i32 }
%struct.char_array.10 = type { [16 x i8] }
%class.Handler = type <{ %class.String, %union.anon, %union.anon.11, i8*, i8*, i32, i32, i32, [4 x i8] }>
%union.anon = type { i32 (i32, %class.String*, %class.Element*, %class.Handler*, %class.ErrorHandler*)* }
%class.ErrorHandler = type <{ i32 (...)**, i32, [4 x i8] }>
%union.anon.11 = type { i32 (i32, %class.String*, %class.Element*, %class.Handler*, %class.ErrorHandler*)* }
%class.Vector.12 = type { %class.vector_memory }
%class.String = type { %"struct.String::rep_t" }
%"struct.String::rep_t" = type { i8*, i32, %"struct.String::memo_t"* }
%"struct.String::memo_t" = type { i32, i32, i32, [8 x i8] }
%"struct.Router::notifier_signals_t" = type { %class.String, i32, [128 x %class.atomic_uint32_t], %"struct.Router::notifier_signals_t"* }
%class.HashMap_ArenaFactory = type { i32 (...)**, [2 x %class.HashMap_Arena**], [2 x i32] }
%class.HashMap_Arena = type <{ %"struct.HashMap_Arena::Link"*, i8*, i32, i32, i8**, i32, i32, i32, i8, [3 x i8] }>
%"struct.HashMap_Arena::Link" = type { %"struct.HashMap_Arena::Link"* }
%class.ThreadSched = type { i32 (...)** }
%class.NameInfo = type opaque
%class.Vector.5 = type { %class.vector_memory.3 }
%class.Vector.0 = type { %class.vector_memory.1 }
%class.vector_memory.1 = type { %class.String*, i32, i32 }
%class.Vector.13 = type { %class.vector_memory.14 }
%class.vector_memory.14 = type { %struct.char_array.15*, i32, i32 }
%struct.char_array.15 = type opaque
%class.IPRewriterHeap = type { [2 x %class.Vector.16], i32, i32 }
%class.Vector.16 = type { %class.vector_memory }
%class.Timer = type { i32, %class.Timestamp, %union.anon.17, i8*, %class.Element*, %class.RouterThread* }
%class.Timestamp = type { %"union.Timestamp::rep_t" }
%"union.Timestamp::rep_t" = type { i64 }
%union.anon.17 = type { void (%class.Timer*, i8*)* }
%class.RouterThread = type { %struct.TaskLink, i8, [7 x i8], %class.TimerSet, %class.SelectSet, [32 x i8], %class.Spinlock, %class.atomic_uint32_t, %class.atomic_uint32_t, %"union.Task::Pending", %"union.Task::Pending"*, %class.SpinlockIRQ, [31 x i8], %class.Master*, i32, i8, i32, i32, [40 x i8] }
%struct.TaskLink = type <{ %struct.TaskLink*, %struct.TaskLink*, i32, [4 x i8] }>
%class.TimerSet = type <{ %class.Timestamp, i32, i32, i32, [4 x i8], %class.Vector.18, %class.Vector.19, %class.SimpleSpinlock, [7 x i8], %class.Timestamp, i32, [4 x i8] }>
%class.Vector.18 = type { %class.vector_memory.9 }
%class.Vector.19 = type { %class.vector_memory }
%class.SimpleSpinlock = type { i8 }
%class.SelectSet = type { [2 x i32], i8, %class.Vector.20, %class.Vector.21 }
%class.Vector.20 = type { %class.vector_memory }
%class.Vector.21 = type { %class.vector_memory.22 }
%class.vector_memory.22 = type { %struct.char_array.23*, i32, i32 }
%struct.char_array.23 = type opaque
%class.Spinlock = type { i8 }
%"union.Task::Pending" = type { %class.Task* }
%class.Task = type { %struct.TaskLink.base, i32, i32, %"union.Task::Status", i1 (%class.Task*, i8*)*, i8*, %class.RouterThread*, %class.Element*, %"union.Task::Pending" }
%struct.TaskLink.base = type <{ %struct.TaskLink*, %struct.TaskLink*, i32 }>
%"union.Task::Status" = type { i32 }
%class.SpinlockIRQ = type { i8 }
%class.SizedHashAllocator = type { %class.HashAllocator }
%class.HashAllocator = type { %"struct.HashAllocator::link"*, %"struct.HashAllocator::buffer"*, i64 }
%"struct.HashAllocator::link" = type { %"struct.HashAllocator::link"* }
%"struct.HashAllocator::buffer" = type { %"struct.HashAllocator::buffer"*, i64, i64 }
%class.HashMap = type { %"struct.HashMap<NatExternKey, IPFlowID>::Elt"**, i64, %class.IPFlowID, i64, i64, %class.HashMap_Arena* }
%"struct.HashMap<NatExternKey, IPFlowID>::Elt" = type { %"struct.HashMap<NatExternKey, IPFlowID>::Pair", %"struct.HashMap<NatExternKey, IPFlowID>::Elt"* }
%"struct.HashMap<NatExternKey, IPFlowID>::Pair" = type { %struct.NatExternKey, %class.IPFlowID }
%struct.NatExternKey = type <{ i16, i8 }>
%class.IPFlowID = type { %class.IPAddress, %class.IPAddress, i16, i16 }
%class.IPAddress = type { i32 }
%class.HashMap.24 = type { %"struct.HashMap<NatInternKey, IPFlowID>::Elt"**, i64, %class.IPFlowID, i64, i64, %class.HashMap_Arena* }
%"struct.HashMap<NatInternKey, IPFlowID>::Elt" = type { %"struct.HashMap<NatInternKey, IPFlowID>::Pair", %"struct.HashMap<NatInternKey, IPFlowID>::Elt"* }
%"struct.HashMap<NatInternKey, IPFlowID>::Pair" = type { %struct.NatInternKey, %class.IPFlowID }
%struct.NatInternKey = type <{ %struct.in_addr, i16, i8 }>
%struct.in_addr = type { i32 }
%class.HashContainer = type { %class.HashContainer_rep }
%class.HashContainer_rep = type { %class.IPRewriterEntry**, i32, i32, i64, %struct.libdivide_u32_t }
%class.IPRewriterEntry = type { %class.IPFlowID, [3 x i8], i8, %class.IPRewriterEntry* }
%struct.libdivide_u32_t = type { i32, i8 }
%class.SizedHashAllocator.25 = type { %class.HashAllocator }
%class.TCPRewriter = type <{ %class.IPRewriterBase, %class.SizedHashAllocator, i32, i32, i32, [4 x i8] }>
%class.Args = type { %class.ArgContext.base, i8, i8, i8, %class.Vector.0*, %class.Vector.5, %"struct.Args::Slot"*, [48 x i8] }
%class.ArgContext.base = type <{ %class.Element*, %class.ErrorHandler*, i8*, i8 }>
%"struct.Args::Slot" = type { i32 (...)**, %"struct.Args::Slot"* }
%class.MyIPRewriterEntry = type { %class.IPFlowID, %class.IPFlowID, i32 }
%class.WritablePacket = type { %class.Packet }
%class.Packet = type { %class.atomic_uint32_t, %class.Packet*, i8*, i8*, i8*, i8*, %"struct.Packet::AllAnno", void (i8*, i64, i8*)*, i8* }
%"struct.Packet::AllAnno" = type { %"union.Packet::Anno", i8*, i8*, i8*, i32, [8 x i8], %class.Packet*, %class.Packet* }
%"union.Packet::Anno" = type { [6 x i64] }
%struct.click_ip = type { i8, i8, i16, i16, i16, i8, i8, i16, %struct.in_addr, %struct.in_addr }
%class.StringAccum = type { %"struct.StringAccum::rep_t" }
%"struct.StringAccum::rep_t" = type { i8*, i32, i32 }
%class.HashContainer_iterator = type { %class.HashContainer_const_iterator }
%class.HashContainer_const_iterator = type { %class.IPRewriterEntry*, %class.IPRewriterEntry**, i32, %class.HashContainer* }
%class.IPRewriterFlow = type { [2 x %class.IPRewriterEntry], i16, i16, i32, i32, i8, i8, i8, i8, %class.IPRewriterInput* }
%class.IPRewriterInput = type { %class.IPRewriterBase*, i32, i32, i32, %class.IPRewriterBase*, i32, i32, i32, %union.anon.26 }
%union.anon.26 = type { %class.IPRewriterPattern* }
%class.IPRewriterPattern = type { %class.IPAddress, i32, %class.IPAddress, i32, i32, i32, i8, i8, i8, i32 }
%struct.uninitialized_type = type { i8 }
%"struct.TCPRewriter::TCPFlow::delta_transition" = type { [2 x i32], [2 x i32], i64 }
%class.SecondsArg = type { i32, i32 }
%class.ArgContext = type <{ %class.Element*, %class.ErrorHandler*, i8*, i8, [7 x i8] }>

$_ZNK7HashMapI12NatInternKey8IPFlowIDE5findpERKS0_ = comdat any

$_ZNK7HashMapI12NatExternKey8IPFlowIDE5findpERKS0_ = comdat any

$_ZN7HashMapI12NatInternKey8IPFlowIDE6insertERKS0_RKS1_ = comdat any

$_ZN7HashMapI12NatExternKey8IPFlowIDE6insertERKS0_RKS1_ = comdat any

$_ZNK7Element19checked_output_pushEiP6Packet = comdat any

$_ZNK15MyIPRewriterMod10class_nameEv = comdat any

$_ZNK14IPRewriterBase10port_countEv = comdat any

$_ZNK14IPRewriterBase10processingEv = comdat any

$_ZNK14IPRewriterBase15configure_phaseEv = comdat any

$_ZN15MyIPRewriterMod7get_mapEi = comdat any

$_ZN15MyIPRewriterMod9get_entryEiRK8IPFlowIDi = comdat any

$_ZN15MyIPRewriterMod12destroy_flowEP14IPRewriterFlow = comdat any

$_ZN15MyIPRewriterMod18best_effort_expiryEPK14IPRewriterFlow = comdat any

$_ZNK7Element8noutputsEv = comdat any

$_ZNK7Element4Port4pushEP6Packet = comdat any

$_ZNK13HashContainerI15IPRewriterEntry21HashContainer_adapterIS0_EE3getERK8IPFlowID = comdat any

$_ZNK13HashContainerI15IPRewriterEntry21HashContainer_adapterIS0_EE4findERK8IPFlowID = comdat any

$_ZNK28HashContainer_const_iteratorI15IPRewriterEntry21HashContainer_adapterIS0_EE3getEv = comdat any

$_ZN14IPRewriterBase10unmap_flowEP14IPRewriterFlowR13HashContainerI15IPRewriterEntry21HashContainer_adapterIS3_EEPS6_ = comdat any

$__clang_call_terminate = comdat any

$_Z14args_base_readI10SecondsArgjEvP4ArgsPKciT_RT0_ = comdat any

$_ZN4Args9base_readI10SecondsArgjEEvPKciT_RT0_ = comdat any

$_ZNK6String6lengthEv = comdat any

$_ZNK7HashMapI12NatInternKey8IPFlowIDE9find_pairERKS0_ = comdat any

$_ZNK7HashMapI12NatExternKey8IPFlowIDE9find_pairERKS0_ = comdat any

@_ZTV15MyIPRewriterMod = dso_local unnamed_addr constant { [34 x i8*] } { [34 x i8*] [i8* null, i8* bitcast ({ i8*, i8*, i8* }* @_ZTI15MyIPRewriterMod to i8*), i8* bitcast (void (%class.MyIPRewriterMod*)* @_ZN15MyIPRewriterModD2Ev to i8*), i8* bitcast (void (%class.MyIPRewriterMod*)* @_ZN15MyIPRewriterModD0Ev to i8*), i8* bitcast (void (%class.MyIPRewriterMod*, i32, %class.Packet*)* @_ZN15MyIPRewriterMod4pushEiP6Packet to i8*), i8* bitcast (%class.Packet* (%class.Element*, i32)* @_ZN7Element4pullEi to i8*), i8* bitcast (%class.Packet* (%class.Element*, %class.Packet*)* @_ZN7Element13simple_actionEP6Packet to i8*), i8* bitcast (i1 (%class.Element*, %class.Task*)* @_ZN7Element8run_taskEP4Task to i8*), i8* bitcast (void (%class.Element*, %class.Timer*)* @_ZN7Element9run_timerEP5Timer to i8*), i8* bitcast (void (%class.Element*, i32, i32)* @_ZN7Element8selectedEii to i8*), i8* bitcast (void (%class.Element*, i32)* @_ZN7Element8selectedEi to i8*), i8* bitcast (i8* (%class.MyIPRewriterMod*)* @_ZNK15MyIPRewriterMod10class_nameEv to i8*), i8* bitcast (i8* (%class.IPRewriterBase*)* @_ZNK14IPRewriterBase10port_countEv to i8*), i8* bitcast (i8* (%class.IPRewriterBase*)* @_ZNK14IPRewriterBase10processingEv to i8*), i8* bitcast (i8* (%class.Element*)* @_ZNK7Element9flow_codeEv to i8*), i8* bitcast (i8* (%class.Element*)* @_ZNK7Element5flagsEv to i8*), i8* bitcast (i8* (%class.MyIPRewriterMod*, i8*)* @_ZN15MyIPRewriterMod4castEPKc to i8*), i8* bitcast (i8* (%class.Element*, i1, i32, i8*)* @_ZN7Element9port_castEbiPKc to i8*), i8* bitcast (i32 (%class.IPRewriterBase*)* @_ZNK14IPRewriterBase15configure_phaseEv to i8*), i8* bitcast (i32 (%class.MyIPRewriterMod*, %class.Vector.0*, %class.ErrorHandler*)* @_ZN15MyIPRewriterMod9configureER6VectorI6StringEP12ErrorHandler to i8*), i8* bitcast (void (%class.MyIPRewriterMod*)* @_ZN15MyIPRewriterMod12add_handlersEv to i8*), i8* bitcast (i32 (%class.IPRewriterBase*, %class.ErrorHandler*)* @_ZN14IPRewriterBase10initializeEP12ErrorHandler to i8*), i8* bitcast (void (%class.Element*, %class.Element*, %class.ErrorHandler*)* @_ZN7Element10take_stateEPS_P12ErrorHandler to i8*), i8* bitcast (%class.Element* (%class.Element*)* @_ZNK7Element15hotswap_elementEv to i8*), i8* bitcast (void (%class.IPRewriterBase*, i32)* @_ZN14IPRewriterBase7cleanupEN7Element12CleanupStageE to i8*), i8* bitcast (void (%class.String*, %class.Element*)* @_ZNK7Element11declarationEv to i8*), i8* bitcast (i1 (%class.Element*)* @_ZNK7Element20can_live_reconfigureEv to i8*), i8* bitcast (i32 (%class.Element*, %class.Vector.0*, %class.ErrorHandler*)* @_ZN7Element16live_reconfigureER6VectorI6StringEP12ErrorHandler to i8*), i8* bitcast (i32 (%class.IPRewriterBase*, i32, i8*)* @_ZN14IPRewriterBase5llrpcEjPv to i8*), i8* bitcast (%class.HashContainer* (%class.MyIPRewriterMod*, i32)* @_ZN15MyIPRewriterMod7get_mapEi to i8*), i8* bitcast (%class.IPRewriterEntry* (%class.MyIPRewriterMod*, i32, %class.IPFlowID*, i32)* @_ZN15MyIPRewriterMod9get_entryEiRK8IPFlowIDi to i8*), i8* bitcast (%class.IPRewriterEntry* (%class.MyIPRewriterMod*, i32, %class.IPFlowID*, %class.IPFlowID*, i32)* @_ZN15MyIPRewriterMod8add_flowEiRK8IPFlowIDS2_i to i8*), i8* bitcast (void (%class.MyIPRewriterMod*, %class.IPRewriterFlow*)* @_ZN15MyIPRewriterMod12destroy_flowEP14IPRewriterFlow to i8*), i8* bitcast (i32 (%class.MyIPRewriterMod*, %class.IPRewriterFlow*)* @_ZN15MyIPRewriterMod18best_effort_expiryEPK14IPRewriterFlow to i8*)] }, align 8
@.str = private unnamed_addr constant [15 x i8] c"IPRewriterBase\00", align 1
@.str.1 = private unnamed_addr constant [12 x i8] c"TCPRewriter\00", align 1
@.str.2 = private unnamed_addr constant [16 x i8] c"MyIPRewriterMod\00", align 1
@.str.3 = private unnamed_addr constant [12 x i8] c"UDP_TIMEOUT\00", align 1
@.str.4 = private unnamed_addr constant [22 x i8] c"UDP_STREAMING_TIMEOUT\00", align 1
@.str.5 = private unnamed_addr constant [14 x i8] c"UDP_GUARANTEE\00", align 1
@.str.6 = private unnamed_addr constant [24 x i8] c"p->has_network_header()\00", align 1
@.str.7 = private unnamed_addr constant [36 x i8] c"../elements/tcpudp/myrewritermod.cc\00", align 1
@__PRETTY_FUNCTION__._ZN15MyIPRewriterMod14tcp_flow_applyERK17MyIPRewriterEntryP14WritablePacket = private unnamed_addr constant [82 x i8] c"void MyIPRewriterMod::tcp_flow_apply(const MyIPRewriterEntry &, WritablePacket *)\00", align 1
@__PRETTY_FUNCTION__._ZN15MyIPRewriterMod14udp_flow_applyERK17MyIPRewriterEntryP14WritablePacket = private unnamed_addr constant [82 x i8] c"void MyIPRewriterMod::udp_flow_apply(const MyIPRewriterEntry &, WritablePacket *)\00", align 1
@.str.8 = private unnamed_addr constant [10 x i8] c"tcp_table\00", align 1
@.str.9 = private unnamed_addr constant [10 x i8] c"udp_table\00", align 1
@.str.10 = private unnamed_addr constant [13 x i8] c"tcp_mappings\00", align 1
@.str.11 = private unnamed_addr constant [13 x i8] c"udp_mappings\00", align 1
@.str.12 = private unnamed_addr constant [11 x i8] c"tcp_lookup\00", align 1
@_ZTVN10__cxxabiv120__si_class_type_infoE = external global i8*
@_ZTS15MyIPRewriterMod = dso_local constant [18 x i8] c"15MyIPRewriterMod\00", align 1
@_ZTI11TCPRewriter = external constant i8*
@_ZTI15MyIPRewriterMod = dso_local constant { i8*, i8*, i8* } { i8* bitcast (i8** getelementptr inbounds (i8*, i8** @_ZTVN10__cxxabiv120__si_class_type_infoE, i64 2) to i8*), i8* getelementptr inbounds ([18 x i8], [18 x i8]* @_ZTS15MyIPRewriterMod, i32 0, i32 0), i8* bitcast (i8** @_ZTI11TCPRewriter to i8*) }, align 8
@.str.13 = private unnamed_addr constant [8 x i8] c"_e && p\00", align 1
@.str.14 = private unnamed_addr constant [30 x i8] c"../dummy_inc/click/element.hh\00", align 1
@__PRETTY_FUNCTION__._ZNK7Element4Port4pushEP6Packet = private unnamed_addr constant [41 x i8] c"void Element::Port::push(Packet *) const\00", align 1
@_ZN6String9null_dataE = external constant i8, align 1
@.str.15 = private unnamed_addr constant [13 x i8] c"MyIPRewriter\00", align 1
@.str.16 = private unnamed_addr constant [6 x i8] c"1-/1-\00", align 1
@_ZN7Element4PUSHE = external constant [0 x i8], align 1
@.str.21 = private unnamed_addr constant [30 x i8] c"../dummy_inc/click/hashmap.cc\00", align 1
@.str.22 = private unnamed_addr constant [18 x i8] c"_r.memo->refcount\00", align 1
@.str.23 = private unnamed_addr constant [29 x i8] c"../dummy_inc/click/string.hh\00", align 1
@__PRETTY_FUNCTION__._ZNK6String5derefEv = private unnamed_addr constant [27 x i8] c"void String::deref() const\00", align 1
@.str.24 = private unnamed_addr constant [49 x i8] c"new_nbuckets > 0 && new_nbuckets <= MAX_NBUCKETS\00", align 1
@__PRETTY_FUNCTION__._ZN7HashMapI12NatInternKey8IPFlowIDE6resizeEm = private unnamed_addr constant [86 x i8] c"void HashMap<NatInternKey, IPFlowID>::resize(size_t) [K = NatInternKey, V = IPFlowID]\00", align 1
@__PRETTY_FUNCTION__._ZN7HashMapI12NatExternKey8IPFlowIDE6resizeEm = private unnamed_addr constant [86 x i8] c"void HashMap<NatExternKey, IPFlowID>::resize(size_t) [K = NatExternKey, V = IPFlowID]\00", align 1

@_ZN15MyIPRewriterModC1Ev = dso_local unnamed_addr alias void (%class.MyIPRewriterMod*), void (%class.MyIPRewriterMod*)* @_ZN15MyIPRewriterModC2Ev
@_ZN15MyIPRewriterModD1Ev = dso_local unnamed_addr alias void (%class.MyIPRewriterMod*), void (%class.MyIPRewriterMod*)* @_ZN15MyIPRewriterModD2Ev

; Function Attrs: sspstrong uwtable
define dso_local void @_ZN15MyIPRewriterModC2Ev(%class.MyIPRewriterMod* %0) unnamed_addr #0 align 2 personality i8* bitcast (i32 (...)* @__gxx_personality_v0 to i8*) !dbg !3885 {
  call void @llvm.dbg.value(metadata %class.MyIPRewriterMod* %0, metadata !3887, metadata !DIExpression()), !dbg !3888
  %2 = bitcast %class.MyIPRewriterMod* %0 to %class.TCPRewriter*, !dbg !3889
  tail call void @_ZN11TCPRewriterC2Ev(%class.TCPRewriter* %2), !dbg !3890
  %3 = getelementptr %class.MyIPRewriterMod, %class.MyIPRewriterMod* %0, i64 0, i32 0, i32 0, i32 0, i32 0, !dbg !3889
  store i32 (...)** bitcast (i8** getelementptr inbounds ({ [34 x i8*] }, { [34 x i8*] }* @_ZTV15MyIPRewriterMod, i64 0, inrange i32 0, i64 2) to i32 (...)**), i32 (...)*** %3, align 8, !dbg !3889, !tbaa !3891
  %4 = getelementptr inbounds %class.MyIPRewriterMod, %class.MyIPRewriterMod* %0, i64 0, i32 2, !dbg !3890
  call void @llvm.dbg.value(metadata %class.HashMap* %4, metadata !3894, metadata !DIExpression()), !dbg !3899
  %5 = getelementptr inbounds %class.MyIPRewriterMod, %class.MyIPRewriterMod* %0, i64 0, i32 2, i32 2, !dbg !3901
  call void @llvm.dbg.value(metadata %class.IPFlowID* %5, metadata !3902, metadata !DIExpression()), !dbg !3905
  call void @llvm.dbg.value(metadata %class.IPFlowID* %5, metadata !3907, metadata !DIExpression()), !dbg !3911
  call void @llvm.dbg.value(metadata %class.IPFlowID* %5, metadata !3907, metadata !DIExpression(DW_OP_plus_uconst, 4, DW_OP_stack_value)), !dbg !3913
  %6 = bitcast %class.IPFlowID* %5 to i8*, !dbg !3915
  tail call void @llvm.memset.p0i8.i64(i8* nonnull align 4 dereferenceable(12) %6, i8 0, i64 12, i1 false), !dbg !3916
  %7 = getelementptr inbounds %class.MyIPRewriterMod, %class.MyIPRewriterMod* %0, i64 0, i32 2, i32 5, !dbg !3917
  store %class.HashMap_Arena* null, %class.HashMap_Arena** %7, align 8, !dbg !3917, !tbaa !3918
  call void @llvm.dbg.value(metadata %class.HashMap* %4, metadata !3927, metadata !DIExpression()), !dbg !3934
  call void @llvm.dbg.value(metadata %class.HashMap_ArenaFactory* null, metadata !3930, metadata !DIExpression()), !dbg !3934
  call void @llvm.dbg.value(metadata i64 127, metadata !3931, metadata !DIExpression()), !dbg !3934
  %8 = getelementptr inbounds %class.MyIPRewriterMod, %class.MyIPRewriterMod* %0, i64 0, i32 2, i32 1, !dbg !3937
  store i64 127, i64* %8, align 8, !dbg !3938, !tbaa !3939
  %9 = invoke dereferenceable(1016) i8* @_Znam(i64 1016) #16
          to label %10 unwind label %104, !dbg !3940

10:                                               ; preds = %1
  %11 = getelementptr inbounds %class.HashMap, %class.HashMap* %4, i64 0, i32 0, !dbg !3941
  %12 = bitcast %class.HashMap* %4 to i8**, !dbg !3942
  store i8* %9, i8** %12, align 8, !dbg !3942, !tbaa !3943
  call void @llvm.dbg.value(metadata i64 0, metadata !3932, metadata !DIExpression()), !dbg !3944
  call void @llvm.dbg.value(metadata i64 0, metadata !3932, metadata !DIExpression()), !dbg !3944
  call void @llvm.dbg.value(metadata i64 1, metadata !3932, metadata !DIExpression()), !dbg !3944
  call void @llvm.dbg.value(metadata i64 2, metadata !3932, metadata !DIExpression()), !dbg !3944
  call void @llvm.memset.p0i8.i64(i8* nonnull align 8 dereferenceable(16) %9, i8 0, i64 16, i1 false), !dbg !3945
  call void @llvm.dbg.value(metadata i64 2, metadata !3932, metadata !DIExpression()), !dbg !3944
  %13 = getelementptr inbounds i8, i8* %9, i64 16, !dbg !3947
  %14 = bitcast i8* %13 to %"struct.HashMap<NatExternKey, IPFlowID>::Elt"**, !dbg !3947
  store %"struct.HashMap<NatExternKey, IPFlowID>::Elt"* null, %"struct.HashMap<NatExternKey, IPFlowID>::Elt"** %14, align 8, !dbg !3945, !tbaa !3948
  call void @llvm.dbg.value(metadata i64 3, metadata !3932, metadata !DIExpression()), !dbg !3944
  br label %15, !dbg !3949

15:                                               ; preds = %15, %10
  %16 = phi i64 [ 3, %10 ], [ %28, %15 ]
  %17 = load %"struct.HashMap<NatExternKey, IPFlowID>::Elt"**, %"struct.HashMap<NatExternKey, IPFlowID>::Elt"*** %11, align 8, !dbg !3947, !tbaa !3943
  call void @llvm.dbg.value(metadata i64 %16, metadata !3932, metadata !DIExpression()), !dbg !3944
  %18 = getelementptr inbounds %"struct.HashMap<NatExternKey, IPFlowID>::Elt"*, %"struct.HashMap<NatExternKey, IPFlowID>::Elt"** %17, i64 %16, !dbg !3947
  store %"struct.HashMap<NatExternKey, IPFlowID>::Elt"* null, %"struct.HashMap<NatExternKey, IPFlowID>::Elt"** %18, align 8, !dbg !3945, !tbaa !3948
  %19 = add nuw nsw i64 %16, 1, !dbg !3950
  call void @llvm.dbg.value(metadata i64 %19, metadata !3932, metadata !DIExpression()), !dbg !3944
  %20 = load %"struct.HashMap<NatExternKey, IPFlowID>::Elt"**, %"struct.HashMap<NatExternKey, IPFlowID>::Elt"*** %11, align 8, !dbg !3947, !tbaa !3943
  %21 = getelementptr inbounds %"struct.HashMap<NatExternKey, IPFlowID>::Elt"*, %"struct.HashMap<NatExternKey, IPFlowID>::Elt"** %20, i64 %19, !dbg !3947
  store %"struct.HashMap<NatExternKey, IPFlowID>::Elt"* null, %"struct.HashMap<NatExternKey, IPFlowID>::Elt"** %21, align 8, !dbg !3945, !tbaa !3948
  %22 = add nuw nsw i64 %16, 2, !dbg !3950
  call void @llvm.dbg.value(metadata i64 %22, metadata !3932, metadata !DIExpression()), !dbg !3944
  %23 = load %"struct.HashMap<NatExternKey, IPFlowID>::Elt"**, %"struct.HashMap<NatExternKey, IPFlowID>::Elt"*** %11, align 8, !dbg !3947, !tbaa !3943
  %24 = getelementptr inbounds %"struct.HashMap<NatExternKey, IPFlowID>::Elt"*, %"struct.HashMap<NatExternKey, IPFlowID>::Elt"** %23, i64 %22, !dbg !3947
  store %"struct.HashMap<NatExternKey, IPFlowID>::Elt"* null, %"struct.HashMap<NatExternKey, IPFlowID>::Elt"** %24, align 8, !dbg !3945, !tbaa !3948
  %25 = add nuw nsw i64 %16, 3, !dbg !3950
  call void @llvm.dbg.value(metadata i64 %25, metadata !3932, metadata !DIExpression()), !dbg !3944
  %26 = load %"struct.HashMap<NatExternKey, IPFlowID>::Elt"**, %"struct.HashMap<NatExternKey, IPFlowID>::Elt"*** %11, align 8, !dbg !3947, !tbaa !3943
  %27 = getelementptr inbounds %"struct.HashMap<NatExternKey, IPFlowID>::Elt"*, %"struct.HashMap<NatExternKey, IPFlowID>::Elt"** %26, i64 %25, !dbg !3947
  store %"struct.HashMap<NatExternKey, IPFlowID>::Elt"* null, %"struct.HashMap<NatExternKey, IPFlowID>::Elt"** %27, align 8, !dbg !3945, !tbaa !3948
  %28 = add nuw nsw i64 %16, 4, !dbg !3950
  call void @llvm.dbg.value(metadata i64 %28, metadata !3932, metadata !DIExpression()), !dbg !3944
  %29 = icmp eq i64 %28, 127, !dbg !3951
  br i1 %29, label %30, label %15, !dbg !3949, !llvm.loop !3952

30:                                               ; preds = %15
  call void @llvm.dbg.value(metadata %class.HashMap* %4, metadata !3954, metadata !DIExpression()), !dbg !3958
  call void @llvm.dbg.value(metadata i1 true, metadata !3957, metadata !DIExpression()), !dbg !3958
  %31 = getelementptr inbounds %class.MyIPRewriterMod, %class.MyIPRewriterMod* %0, i64 0, i32 2, i32 3, !dbg !3960
  %32 = bitcast i64* %31 to <2 x i64>*, !dbg !3961
  store <2 x i64> <i64 0, i64 254>, <2 x i64>* %32, align 8, !dbg !3961
  call void @llvm.dbg.value(metadata %class.HashMap* %4, metadata !3962, metadata !DIExpression()), !dbg !3966
  call void @llvm.dbg.value(metadata %class.HashMap_ArenaFactory* null, metadata !3965, metadata !DIExpression()), !dbg !3966
  %33 = load %class.HashMap_Arena*, %class.HashMap_Arena** %7, align 8, !dbg !3968, !tbaa !3918
  %34 = icmp eq %class.HashMap_Arena* %33, null, !dbg !3968
  br i1 %34, label %42, label %35, !dbg !3970

35:                                               ; preds = %30
  call void @llvm.dbg.value(metadata %class.HashMap_Arena* %33, metadata !3971, metadata !DIExpression()) #17, !dbg !3974
  %36 = getelementptr inbounds %class.HashMap_Arena, %class.HashMap_Arena* %33, i64 0, i32 7, !dbg !3976
  %37 = load i32, i32* %36, align 8, !dbg !3977, !tbaa !3978
  %38 = add i32 %37, -1, !dbg !3977
  store i32 %38, i32* %36, align 8, !dbg !3977, !tbaa !3978
  %39 = icmp eq i32 %38, 0, !dbg !3981
  br i1 %39, label %40, label %42, !dbg !3983

40:                                               ; preds = %35
  tail call void @_ZN13HashMap_ArenaD1Ev(%class.HashMap_Arena* nonnull %33) #17, !dbg !3984
  %41 = bitcast %class.HashMap_Arena* %33 to i8*, !dbg !3984
  tail call void @_ZdlPv(i8* %41) #18, !dbg !3984
  br label %42, !dbg !3984

42:                                               ; preds = %40, %35, %30
  %43 = invoke %class.HashMap_Arena* @_ZN20HashMap_ArenaFactory9get_arenaEjPS_(i32 24, %class.HashMap_ArenaFactory* null)
          to label %44 unwind label %104, !dbg !3985

44:                                               ; preds = %42
  store %class.HashMap_Arena* %43, %class.HashMap_Arena** %7, align 8, !dbg !3986, !tbaa !3918
  call void @llvm.dbg.value(metadata %class.HashMap_Arena* %43, metadata !3987, metadata !DIExpression()), !dbg !3990
  %45 = getelementptr inbounds %class.HashMap_Arena, %class.HashMap_Arena* %43, i64 0, i32 7, !dbg !3992
  %46 = load i32, i32* %45, align 8, !dbg !3993, !tbaa !3978
  %47 = add i32 %46, 1, !dbg !3993
  store i32 %47, i32* %45, align 8, !dbg !3993, !tbaa !3978
  %48 = getelementptr inbounds %class.MyIPRewriterMod, %class.MyIPRewriterMod* %0, i64 0, i32 3, !dbg !3890
  call void @llvm.dbg.value(metadata %class.HashMap.24* %48, metadata !3994, metadata !DIExpression()), !dbg !3998
  %49 = getelementptr inbounds %class.MyIPRewriterMod, %class.MyIPRewriterMod* %0, i64 0, i32 3, i32 2, !dbg !4000
  call void @llvm.dbg.value(metadata %class.IPFlowID* %49, metadata !3902, metadata !DIExpression()), !dbg !4001
  call void @llvm.dbg.value(metadata %class.IPFlowID* %49, metadata !3907, metadata !DIExpression()), !dbg !4003
  call void @llvm.dbg.value(metadata %class.IPFlowID* %49, metadata !3907, metadata !DIExpression(DW_OP_plus_uconst, 4, DW_OP_stack_value)), !dbg !4005
  %50 = bitcast %class.IPFlowID* %49 to i8*, !dbg !4007
  tail call void @llvm.memset.p0i8.i64(i8* nonnull align 4 dereferenceable(12) %50, i8 0, i64 12, i1 false), !dbg !4008
  %51 = getelementptr inbounds %class.MyIPRewriterMod, %class.MyIPRewriterMod* %0, i64 0, i32 3, i32 5, !dbg !4009
  store %class.HashMap_Arena* null, %class.HashMap_Arena** %51, align 8, !dbg !4009, !tbaa !4010
  call void @llvm.dbg.value(metadata %class.HashMap.24* %48, metadata !4012, metadata !DIExpression()), !dbg !4019
  call void @llvm.dbg.value(metadata %class.HashMap_ArenaFactory* null, metadata !4015, metadata !DIExpression()), !dbg !4019
  call void @llvm.dbg.value(metadata i64 127, metadata !4016, metadata !DIExpression()), !dbg !4019
  %52 = getelementptr inbounds %class.MyIPRewriterMod, %class.MyIPRewriterMod* %0, i64 0, i32 3, i32 1, !dbg !4022
  store i64 127, i64* %52, align 8, !dbg !4023, !tbaa !4024
  %53 = invoke dereferenceable(1016) i8* @_Znam(i64 1016) #16
          to label %54 unwind label %108, !dbg !4025

54:                                               ; preds = %44
  %55 = getelementptr inbounds %class.HashMap.24, %class.HashMap.24* %48, i64 0, i32 0, !dbg !4026
  %56 = bitcast %class.HashMap.24* %48 to i8**, !dbg !4027
  store i8* %53, i8** %56, align 8, !dbg !4027, !tbaa !4028
  call void @llvm.dbg.value(metadata i64 0, metadata !4017, metadata !DIExpression()), !dbg !4029
  call void @llvm.dbg.value(metadata i64 0, metadata !4017, metadata !DIExpression()), !dbg !4029
  call void @llvm.dbg.value(metadata i64 1, metadata !4017, metadata !DIExpression()), !dbg !4029
  call void @llvm.dbg.value(metadata i64 2, metadata !4017, metadata !DIExpression()), !dbg !4029
  call void @llvm.memset.p0i8.i64(i8* nonnull align 8 dereferenceable(16) %53, i8 0, i64 16, i1 false), !dbg !4030
  call void @llvm.dbg.value(metadata i64 2, metadata !4017, metadata !DIExpression()), !dbg !4029
  %57 = getelementptr inbounds i8, i8* %53, i64 16, !dbg !4032
  %58 = bitcast i8* %57 to %"struct.HashMap<NatInternKey, IPFlowID>::Elt"**, !dbg !4032
  store %"struct.HashMap<NatInternKey, IPFlowID>::Elt"* null, %"struct.HashMap<NatInternKey, IPFlowID>::Elt"** %58, align 8, !dbg !4030, !tbaa !3948
  call void @llvm.dbg.value(metadata i64 3, metadata !4017, metadata !DIExpression()), !dbg !4029
  br label %59, !dbg !4033

59:                                               ; preds = %59, %54
  %60 = phi i64 [ 3, %54 ], [ %72, %59 ]
  %61 = load %"struct.HashMap<NatInternKey, IPFlowID>::Elt"**, %"struct.HashMap<NatInternKey, IPFlowID>::Elt"*** %55, align 8, !dbg !4032, !tbaa !4028
  call void @llvm.dbg.value(metadata i64 %60, metadata !4017, metadata !DIExpression()), !dbg !4029
  %62 = getelementptr inbounds %"struct.HashMap<NatInternKey, IPFlowID>::Elt"*, %"struct.HashMap<NatInternKey, IPFlowID>::Elt"** %61, i64 %60, !dbg !4032
  store %"struct.HashMap<NatInternKey, IPFlowID>::Elt"* null, %"struct.HashMap<NatInternKey, IPFlowID>::Elt"** %62, align 8, !dbg !4030, !tbaa !3948
  %63 = add nuw nsw i64 %60, 1, !dbg !4034
  call void @llvm.dbg.value(metadata i64 %63, metadata !4017, metadata !DIExpression()), !dbg !4029
  %64 = load %"struct.HashMap<NatInternKey, IPFlowID>::Elt"**, %"struct.HashMap<NatInternKey, IPFlowID>::Elt"*** %55, align 8, !dbg !4032, !tbaa !4028
  %65 = getelementptr inbounds %"struct.HashMap<NatInternKey, IPFlowID>::Elt"*, %"struct.HashMap<NatInternKey, IPFlowID>::Elt"** %64, i64 %63, !dbg !4032
  store %"struct.HashMap<NatInternKey, IPFlowID>::Elt"* null, %"struct.HashMap<NatInternKey, IPFlowID>::Elt"** %65, align 8, !dbg !4030, !tbaa !3948
  %66 = add nuw nsw i64 %60, 2, !dbg !4034
  call void @llvm.dbg.value(metadata i64 %66, metadata !4017, metadata !DIExpression()), !dbg !4029
  %67 = load %"struct.HashMap<NatInternKey, IPFlowID>::Elt"**, %"struct.HashMap<NatInternKey, IPFlowID>::Elt"*** %55, align 8, !dbg !4032, !tbaa !4028
  %68 = getelementptr inbounds %"struct.HashMap<NatInternKey, IPFlowID>::Elt"*, %"struct.HashMap<NatInternKey, IPFlowID>::Elt"** %67, i64 %66, !dbg !4032
  store %"struct.HashMap<NatInternKey, IPFlowID>::Elt"* null, %"struct.HashMap<NatInternKey, IPFlowID>::Elt"** %68, align 8, !dbg !4030, !tbaa !3948
  %69 = add nuw nsw i64 %60, 3, !dbg !4034
  call void @llvm.dbg.value(metadata i64 %69, metadata !4017, metadata !DIExpression()), !dbg !4029
  %70 = load %"struct.HashMap<NatInternKey, IPFlowID>::Elt"**, %"struct.HashMap<NatInternKey, IPFlowID>::Elt"*** %55, align 8, !dbg !4032, !tbaa !4028
  %71 = getelementptr inbounds %"struct.HashMap<NatInternKey, IPFlowID>::Elt"*, %"struct.HashMap<NatInternKey, IPFlowID>::Elt"** %70, i64 %69, !dbg !4032
  store %"struct.HashMap<NatInternKey, IPFlowID>::Elt"* null, %"struct.HashMap<NatInternKey, IPFlowID>::Elt"** %71, align 8, !dbg !4030, !tbaa !3948
  %72 = add nuw nsw i64 %60, 4, !dbg !4034
  call void @llvm.dbg.value(metadata i64 %72, metadata !4017, metadata !DIExpression()), !dbg !4029
  %73 = icmp eq i64 %72, 127, !dbg !4035
  br i1 %73, label %74, label %59, !dbg !4033, !llvm.loop !4036

74:                                               ; preds = %59
  call void @llvm.dbg.value(metadata %class.HashMap.24* %48, metadata !4038, metadata !DIExpression()), !dbg !4042
  call void @llvm.dbg.value(metadata i1 true, metadata !4041, metadata !DIExpression()), !dbg !4042
  %75 = getelementptr inbounds %class.MyIPRewriterMod, %class.MyIPRewriterMod* %0, i64 0, i32 3, i32 3, !dbg !4044
  %76 = bitcast i64* %75 to <2 x i64>*, !dbg !4045
  store <2 x i64> <i64 0, i64 254>, <2 x i64>* %76, align 8, !dbg !4045
  call void @llvm.dbg.value(metadata %class.HashMap.24* %48, metadata !4046, metadata !DIExpression()), !dbg !4050
  call void @llvm.dbg.value(metadata %class.HashMap_ArenaFactory* null, metadata !4049, metadata !DIExpression()), !dbg !4050
  %77 = load %class.HashMap_Arena*, %class.HashMap_Arena** %51, align 8, !dbg !4052, !tbaa !4010
  %78 = icmp eq %class.HashMap_Arena* %77, null, !dbg !4052
  br i1 %78, label %86, label %79, !dbg !4054

79:                                               ; preds = %74
  call void @llvm.dbg.value(metadata %class.HashMap_Arena* %77, metadata !3971, metadata !DIExpression()) #17, !dbg !4055
  %80 = getelementptr inbounds %class.HashMap_Arena, %class.HashMap_Arena* %77, i64 0, i32 7, !dbg !4057
  %81 = load i32, i32* %80, align 8, !dbg !4058, !tbaa !3978
  %82 = add i32 %81, -1, !dbg !4058
  store i32 %82, i32* %80, align 8, !dbg !4058, !tbaa !3978
  %83 = icmp eq i32 %82, 0, !dbg !4059
  br i1 %83, label %84, label %86, !dbg !4060

84:                                               ; preds = %79
  tail call void @_ZN13HashMap_ArenaD1Ev(%class.HashMap_Arena* nonnull %77) #17, !dbg !4061
  %85 = bitcast %class.HashMap_Arena* %77 to i8*, !dbg !4061
  tail call void @_ZdlPv(i8* %85) #18, !dbg !4061
  br label %86, !dbg !4061

86:                                               ; preds = %84, %79, %74
  %87 = invoke %class.HashMap_Arena* @_ZN20HashMap_ArenaFactory9get_arenaEjPS_(i32 32, %class.HashMap_ArenaFactory* null)
          to label %88 unwind label %108, !dbg !4062

88:                                               ; preds = %86
  store %class.HashMap_Arena* %87, %class.HashMap_Arena** %51, align 8, !dbg !4063, !tbaa !4010
  call void @llvm.dbg.value(metadata %class.HashMap_Arena* %87, metadata !3987, metadata !DIExpression()), !dbg !4064
  %89 = getelementptr inbounds %class.HashMap_Arena, %class.HashMap_Arena* %87, i64 0, i32 7, !dbg !4066
  %90 = load i32, i32* %89, align 8, !dbg !4067, !tbaa !3978
  %91 = add i32 %90, 1, !dbg !4067
  store i32 %91, i32* %89, align 8, !dbg !4067, !tbaa !3978
  call void @llvm.dbg.value(metadata %class.MyIPRewriterMod* %0, metadata !4068, metadata !DIExpression(DW_OP_plus_uconst, 384, DW_OP_stack_value)), !dbg !4074
  call void @llvm.dbg.value(metadata i32 0, metadata !4071, metadata !DIExpression()), !dbg !4074
  call void @llvm.dbg.value(metadata i32 1, metadata !4072, metadata !DIExpression()), !dbg !4076
  call void @llvm.dbg.value(metadata i32 1, metadata !4072, metadata !DIExpression()), !dbg !4076
  %92 = getelementptr inbounds %class.MyIPRewriterMod, %class.MyIPRewriterMod* %0, i64 0, i32 4, i32 0, i32 3, !dbg !4077
  store i64 0, i64* %92, align 8, !dbg !4078, !tbaa !4079
  %93 = getelementptr inbounds %class.MyIPRewriterMod, %class.MyIPRewriterMod* %0, i64 0, i32 4, i32 0, i32 1, !dbg !4083
  store i32 1, i32* %93, align 8, !dbg !4084, !tbaa !4085
  %94 = invoke dereferenceable(8) i8* @_Znam(i64 8) #16
          to label %95 unwind label %112, !dbg !4086

95:                                               ; preds = %88
  %96 = getelementptr inbounds %class.MyIPRewriterMod, %class.MyIPRewriterMod* %0, i64 0, i32 4, !dbg !4087
  call void @llvm.dbg.value(metadata %class.HashContainer* %96, metadata !4068, metadata !DIExpression()), !dbg !4074
  %97 = bitcast %class.HashContainer* %96 to i8**, !dbg !4088
  store i8* %94, i8** %97, align 8, !dbg !4088, !tbaa !4089
  %98 = getelementptr inbounds %class.MyIPRewriterMod, %class.MyIPRewriterMod* %0, i64 0, i32 4, i32 0, i32 2, !dbg !4090
  store i32 1, i32* %98, align 4, !dbg !4091, !tbaa !4092
  %99 = getelementptr inbounds %class.MyIPRewriterMod, %class.MyIPRewriterMod* %0, i64 0, i32 4, i32 0, i32 4, !dbg !4093
  %100 = bitcast %struct.libdivide_u32_t* %99 to i64*, !dbg !4093
  store i64 549755813888, i64* %100, align 8, !dbg !4093, !tbaa.struct !4094
  call void @llvm.dbg.value(metadata i32 0, metadata !4072, metadata !DIExpression()), !dbg !4076
  call void @llvm.dbg.value(metadata i64 0, metadata !4072, metadata !DIExpression()), !dbg !4076
  %101 = bitcast i8* %94 to %class.IPRewriterEntry**, !dbg !4097
  store %class.IPRewriterEntry* null, %class.IPRewriterEntry** %101, align 8, !dbg !4100, !tbaa !3948
  call void @llvm.dbg.value(metadata i64 0, metadata !4072, metadata !DIExpression(DW_OP_plus_uconst, 1, DW_OP_stack_value)), !dbg !4076
  call void @llvm.dbg.value(metadata %class.MyIPRewriterMod* %0, metadata !4101, metadata !DIExpression(DW_OP_plus_uconst, 416, DW_OP_stack_value)), !dbg !4105
  %102 = getelementptr inbounds %class.MyIPRewriterMod, %class.MyIPRewriterMod* %0, i64 0, i32 5, i32 0, !dbg !4107
  invoke void @_ZN13HashAllocatorC2Em(%class.HashAllocator* nonnull %102, i64 72)
          to label %103 unwind label %116, !dbg !4108

103:                                              ; preds = %95
  ret void, !dbg !4109

104:                                              ; preds = %42, %1
  %105 = landingpad { i8*, i32 }
          cleanup, !dbg !4109
  %106 = extractvalue { i8*, i32 } %105, 0, !dbg !4109
  %107 = extractvalue { i8*, i32 } %105, 1, !dbg !4109
  br label %273, !dbg !4109

108:                                              ; preds = %86, %44
  %109 = landingpad { i8*, i32 }
          cleanup, !dbg !4109
  %110 = extractvalue { i8*, i32 } %109, 0, !dbg !4109
  %111 = extractvalue { i8*, i32 } %109, 1, !dbg !4109
  br label %198, !dbg !4109

112:                                              ; preds = %88
  %113 = landingpad { i8*, i32 }
          cleanup, !dbg !4109
  %114 = extractvalue { i8*, i32 } %113, 0, !dbg !4109
  %115 = extractvalue { i8*, i32 } %113, 1, !dbg !4109
  br label %123, !dbg !4109

116:                                              ; preds = %95
  %117 = landingpad { i8*, i32 }
          cleanup, !dbg !4109
  %118 = extractvalue { i8*, i32 } %117, 0, !dbg !4109
  %119 = extractvalue { i8*, i32 } %117, 1, !dbg !4109
  call void @llvm.dbg.value(metadata %class.HashContainer* %96, metadata !4110, metadata !DIExpression()) #17, !dbg !4113
  %120 = load i8*, i8** %97, align 8, !dbg !4116, !tbaa !4089
  %121 = icmp eq i8* %120, null, !dbg !4116
  br i1 %121, label %123, label %122, !dbg !4116

122:                                              ; preds = %116
  tail call void @_ZdaPv(i8* nonnull %120) #18, !dbg !4116
  br label %123, !dbg !4116

123:                                              ; preds = %122, %116, %112
  %124 = phi i8* [ %114, %112 ], [ %118, %116 ], [ %118, %122 ], !dbg !4109
  %125 = phi i32 [ %115, %112 ], [ %119, %116 ], [ %119, %122 ], !dbg !4109
  call void @llvm.dbg.value(metadata %class.HashMap.24* %48, metadata !4118, metadata !DIExpression()) #17, !dbg !4130
  call void @llvm.dbg.value(metadata i64 0, metadata !4121, metadata !DIExpression()) #17, !dbg !4132
  %126 = load i64, i64* %52, align 8, !dbg !4133, !tbaa !4024
  %127 = icmp eq i64 %126, 0, !dbg !4134
  br i1 %127, label %128, label %130, !dbg !4135

128:                                              ; preds = %123
  %129 = load i8*, i8** %56, align 8, !dbg !4136, !tbaa !4028
  br label %159, !dbg !4135

130:                                              ; preds = %123
  %131 = load %"struct.HashMap<NatInternKey, IPFlowID>::Elt"**, %"struct.HashMap<NatInternKey, IPFlowID>::Elt"*** %55, align 8, !dbg !4137, !tbaa !4028
  %132 = and i64 %126, 1, !dbg !4135
  %133 = icmp eq i64 %126, 1, !dbg !4135
  br i1 %133, label %136, label %134, !dbg !4135

134:                                              ; preds = %130
  %135 = sub i64 %126, %132, !dbg !4135
  br label %162, !dbg !4135

136:                                              ; preds = %310, %130
  %137 = phi i64 [ 0, %130 ], [ %311, %310 ]
  %138 = icmp eq i64 %132, 0, !dbg !4138
  br i1 %138, label %157, label %139, !dbg !4138

139:                                              ; preds = %136
  call void @llvm.dbg.value(metadata i64 %137, metadata !4121, metadata !DIExpression()) #17, !dbg !4132
  %140 = getelementptr inbounds %"struct.HashMap<NatInternKey, IPFlowID>::Elt"*, %"struct.HashMap<NatInternKey, IPFlowID>::Elt"** %131, i64 %137, !dbg !4139
  %141 = load %"struct.HashMap<NatInternKey, IPFlowID>::Elt"*, %"struct.HashMap<NatInternKey, IPFlowID>::Elt"** %140, align 8, !dbg !4139, !tbaa !3948
  call void @llvm.dbg.value(metadata %"struct.HashMap<NatInternKey, IPFlowID>::Elt"* %141, metadata !4124, metadata !DIExpression()) #17, !dbg !4137
  %142 = icmp eq %"struct.HashMap<NatInternKey, IPFlowID>::Elt"* %141, null, !dbg !4140
  br i1 %142, label %157, label %143, !dbg !4138

143:                                              ; preds = %139
  %144 = load %class.HashMap_Arena*, %class.HashMap_Arena** %51, align 8, !dbg !4141, !tbaa !4010
  %145 = bitcast %class.HashMap_Arena* %144 to i64*, !dbg !4142
  %146 = load i64, i64* %145, align 8, !dbg !4149, !tbaa !4150
  br label %147, !dbg !4138

147:                                              ; preds = %147, %143
  %148 = phi i64 [ %146, %143 ], [ %154, %147 ], !dbg !4149
  %149 = phi %"struct.HashMap<NatInternKey, IPFlowID>::Elt"* [ %141, %143 ], [ %151, %147 ]
  call void @llvm.dbg.value(metadata %"struct.HashMap<NatInternKey, IPFlowID>::Elt"* %149, metadata !4124, metadata !DIExpression()) #17, !dbg !4137
  %150 = getelementptr inbounds %"struct.HashMap<NatInternKey, IPFlowID>::Elt", %"struct.HashMap<NatInternKey, IPFlowID>::Elt"* %149, i64 0, i32 1, !dbg !4151
  %151 = load %"struct.HashMap<NatInternKey, IPFlowID>::Elt"*, %"struct.HashMap<NatInternKey, IPFlowID>::Elt"** %150, align 8, !dbg !4151, !tbaa !4152
  call void @llvm.dbg.value(metadata %"struct.HashMap<NatInternKey, IPFlowID>::Elt"* %151, metadata !4127, metadata !DIExpression()) #17, !dbg !4141
  call void @llvm.dbg.value(metadata %class.HashMap_Arena* %144, metadata !4145, metadata !DIExpression()) #17, !dbg !4142
  call void @llvm.dbg.value(metadata %"struct.HashMap<NatInternKey, IPFlowID>::Elt"* %149, metadata !4146, metadata !DIExpression()) #17, !dbg !4142
  call void @llvm.dbg.value(metadata %"struct.HashMap<NatInternKey, IPFlowID>::Elt"* %149, metadata !4147, metadata !DIExpression()) #17, !dbg !4142
  %152 = bitcast %"struct.HashMap<NatInternKey, IPFlowID>::Elt"* %149 to i64*, !dbg !4154
  store i64 %148, i64* %152, align 8, !dbg !4154, !tbaa !4155
  call void @llvm.dbg.value(metadata %"struct.HashMap<NatInternKey, IPFlowID>::Elt"* %151, metadata !4124, metadata !DIExpression()) #17, !dbg !4137
  %153 = icmp eq %"struct.HashMap<NatInternKey, IPFlowID>::Elt"* %151, null, !dbg !4140
  %154 = ptrtoint %"struct.HashMap<NatInternKey, IPFlowID>::Elt"* %149 to i64, !dbg !4138
  br i1 %153, label %155, label %147, !dbg !4138, !llvm.loop !4157

155:                                              ; preds = %147
  call void @llvm.dbg.value(metadata %"struct.HashMap<NatInternKey, IPFlowID>::Elt"* %149, metadata !4124, metadata !DIExpression()) #17, !dbg !4137
  call void @llvm.dbg.value(metadata %"struct.HashMap<NatInternKey, IPFlowID>::Elt"* %149, metadata !4124, metadata !DIExpression()) #17, !dbg !4137
  call void @llvm.dbg.value(metadata %"struct.HashMap<NatInternKey, IPFlowID>::Elt"* %149, metadata !4124, metadata !DIExpression()) #17, !dbg !4137
  call void @llvm.dbg.value(metadata %"struct.HashMap<NatInternKey, IPFlowID>::Elt"* %149, metadata !4124, metadata !DIExpression()) #17, !dbg !4137
  %156 = bitcast %class.HashMap_Arena* %144 to %"struct.HashMap<NatInternKey, IPFlowID>::Elt"**, !dbg !4142
  call void @llvm.dbg.value(metadata %"struct.HashMap<NatInternKey, IPFlowID>::Elt"* %149, metadata !4124, metadata !DIExpression()) #17, !dbg !4137
  call void @llvm.dbg.value(metadata %"struct.HashMap<NatInternKey, IPFlowID>::Elt"* %149, metadata !4124, metadata !DIExpression()) #17, !dbg !4137
  store %"struct.HashMap<NatInternKey, IPFlowID>::Elt"* %149, %"struct.HashMap<NatInternKey, IPFlowID>::Elt"** %156, align 8, !dbg !4159, !tbaa !4150
  br label %157, !dbg !4160

157:                                              ; preds = %155, %139, %136
  %158 = bitcast %"struct.HashMap<NatInternKey, IPFlowID>::Elt"** %131 to i8*, !dbg !4135
  br label %159, !dbg !4136

159:                                              ; preds = %157, %128
  %160 = phi i8* [ %129, %128 ], [ %158, %157 ], !dbg !4136
  %161 = icmp eq i8* %160, null, !dbg !4136
  br i1 %161, label %188, label %187, !dbg !4136

162:                                              ; preds = %310, %134
  %163 = phi i64 [ 0, %134 ], [ %311, %310 ]
  %164 = phi i64 [ %135, %134 ], [ %312, %310 ]
  call void @llvm.dbg.value(metadata i64 %163, metadata !4121, metadata !DIExpression()) #17, !dbg !4132
  %165 = getelementptr inbounds %"struct.HashMap<NatInternKey, IPFlowID>::Elt"*, %"struct.HashMap<NatInternKey, IPFlowID>::Elt"** %131, i64 %163, !dbg !4139
  %166 = load %"struct.HashMap<NatInternKey, IPFlowID>::Elt"*, %"struct.HashMap<NatInternKey, IPFlowID>::Elt"** %165, align 8, !dbg !4139, !tbaa !3948
  call void @llvm.dbg.value(metadata %"struct.HashMap<NatInternKey, IPFlowID>::Elt"* %166, metadata !4124, metadata !DIExpression()) #17, !dbg !4137
  %167 = icmp eq %"struct.HashMap<NatInternKey, IPFlowID>::Elt"* %166, null, !dbg !4140
  br i1 %167, label %174, label %168, !dbg !4138

168:                                              ; preds = %162
  %169 = load %class.HashMap_Arena*, %class.HashMap_Arena** %51, align 8, !dbg !4141, !tbaa !4010
  %170 = bitcast %class.HashMap_Arena* %169 to i64*, !dbg !4142
  %171 = load i64, i64* %170, align 8, !dbg !4149, !tbaa !4150
  br label %179, !dbg !4138

172:                                              ; preds = %179
  call void @llvm.dbg.value(metadata %"struct.HashMap<NatInternKey, IPFlowID>::Elt"* %181, metadata !4124, metadata !DIExpression()) #17, !dbg !4137
  call void @llvm.dbg.value(metadata %"struct.HashMap<NatInternKey, IPFlowID>::Elt"* %181, metadata !4124, metadata !DIExpression()) #17, !dbg !4137
  call void @llvm.dbg.value(metadata %"struct.HashMap<NatInternKey, IPFlowID>::Elt"* %181, metadata !4124, metadata !DIExpression()) #17, !dbg !4137
  call void @llvm.dbg.value(metadata %"struct.HashMap<NatInternKey, IPFlowID>::Elt"* %181, metadata !4124, metadata !DIExpression()) #17, !dbg !4137
  %173 = bitcast %class.HashMap_Arena* %169 to %"struct.HashMap<NatInternKey, IPFlowID>::Elt"**, !dbg !4142
  call void @llvm.dbg.value(metadata %"struct.HashMap<NatInternKey, IPFlowID>::Elt"* %181, metadata !4124, metadata !DIExpression()) #17, !dbg !4137
  call void @llvm.dbg.value(metadata %"struct.HashMap<NatInternKey, IPFlowID>::Elt"* %181, metadata !4124, metadata !DIExpression()) #17, !dbg !4137
  store %"struct.HashMap<NatInternKey, IPFlowID>::Elt"* %181, %"struct.HashMap<NatInternKey, IPFlowID>::Elt"** %173, align 8, !dbg !4159, !tbaa !4150
  br label %174, !dbg !4160

174:                                              ; preds = %172, %162
  %175 = or i64 %163, 1, !dbg !4160
  call void @llvm.dbg.value(metadata i64 %175, metadata !4121, metadata !DIExpression()) #17, !dbg !4132
  %176 = getelementptr inbounds %"struct.HashMap<NatInternKey, IPFlowID>::Elt"*, %"struct.HashMap<NatInternKey, IPFlowID>::Elt"** %131, i64 %175, !dbg !4139
  %177 = load %"struct.HashMap<NatInternKey, IPFlowID>::Elt"*, %"struct.HashMap<NatInternKey, IPFlowID>::Elt"** %176, align 8, !dbg !4139, !tbaa !3948
  call void @llvm.dbg.value(metadata %"struct.HashMap<NatInternKey, IPFlowID>::Elt"* %177, metadata !4124, metadata !DIExpression()) #17, !dbg !4137
  %178 = icmp eq %"struct.HashMap<NatInternKey, IPFlowID>::Elt"* %177, null, !dbg !4140
  br i1 %178, label %310, label %296, !dbg !4138

179:                                              ; preds = %179, %168
  %180 = phi i64 [ %171, %168 ], [ %186, %179 ], !dbg !4149
  %181 = phi %"struct.HashMap<NatInternKey, IPFlowID>::Elt"* [ %166, %168 ], [ %183, %179 ]
  call void @llvm.dbg.value(metadata %"struct.HashMap<NatInternKey, IPFlowID>::Elt"* %181, metadata !4124, metadata !DIExpression()) #17, !dbg !4137
  %182 = getelementptr inbounds %"struct.HashMap<NatInternKey, IPFlowID>::Elt", %"struct.HashMap<NatInternKey, IPFlowID>::Elt"* %181, i64 0, i32 1, !dbg !4151
  %183 = load %"struct.HashMap<NatInternKey, IPFlowID>::Elt"*, %"struct.HashMap<NatInternKey, IPFlowID>::Elt"** %182, align 8, !dbg !4151, !tbaa !4152
  call void @llvm.dbg.value(metadata %"struct.HashMap<NatInternKey, IPFlowID>::Elt"* %183, metadata !4127, metadata !DIExpression()) #17, !dbg !4141
  call void @llvm.dbg.value(metadata %class.HashMap_Arena* %169, metadata !4145, metadata !DIExpression()) #17, !dbg !4142
  call void @llvm.dbg.value(metadata %"struct.HashMap<NatInternKey, IPFlowID>::Elt"* %181, metadata !4146, metadata !DIExpression()) #17, !dbg !4142
  call void @llvm.dbg.value(metadata %"struct.HashMap<NatInternKey, IPFlowID>::Elt"* %181, metadata !4147, metadata !DIExpression()) #17, !dbg !4142
  %184 = bitcast %"struct.HashMap<NatInternKey, IPFlowID>::Elt"* %181 to i64*, !dbg !4154
  store i64 %180, i64* %184, align 8, !dbg !4154, !tbaa !4155
  call void @llvm.dbg.value(metadata %"struct.HashMap<NatInternKey, IPFlowID>::Elt"* %183, metadata !4124, metadata !DIExpression()) #17, !dbg !4137
  %185 = icmp eq %"struct.HashMap<NatInternKey, IPFlowID>::Elt"* %183, null, !dbg !4140
  %186 = ptrtoint %"struct.HashMap<NatInternKey, IPFlowID>::Elt"* %181 to i64, !dbg !4138
  br i1 %185, label %172, label %179, !dbg !4138, !llvm.loop !4157

187:                                              ; preds = %159
  tail call void @_ZdaPv(i8* nonnull %160) #18, !dbg !4136
  br label %188, !dbg !4136

188:                                              ; preds = %187, %159
  %189 = load %class.HashMap_Arena*, %class.HashMap_Arena** %51, align 8, !dbg !4161, !tbaa !4010
  call void @llvm.dbg.value(metadata %class.HashMap_Arena* %189, metadata !3971, metadata !DIExpression()) #17, !dbg !4162
  %190 = getelementptr inbounds %class.HashMap_Arena, %class.HashMap_Arena* %189, i64 0, i32 7, !dbg !4164
  %191 = load i32, i32* %190, align 8, !dbg !4165, !tbaa !3978
  %192 = add i32 %191, -1, !dbg !4165
  store i32 %192, i32* %190, align 8, !dbg !4165, !tbaa !3978
  %193 = icmp ne i32 %192, 0, !dbg !4166
  %194 = icmp eq %class.HashMap_Arena* %189, null, !dbg !4167
  %195 = or i1 %194, %193, !dbg !4168
  br i1 %195, label %198, label %196, !dbg !4168

196:                                              ; preds = %188
  tail call void @_ZN13HashMap_ArenaD1Ev(%class.HashMap_Arena* nonnull %189) #17, !dbg !4167
  %197 = bitcast %class.HashMap_Arena* %189 to i8*, !dbg !4167
  tail call void @_ZdlPv(i8* %197) #18, !dbg !4167
  br label %198, !dbg !4167

198:                                              ; preds = %196, %188, %108
  %199 = phi i8* [ %110, %108 ], [ %124, %188 ], [ %124, %196 ], !dbg !4109
  %200 = phi i32 [ %111, %108 ], [ %125, %188 ], [ %125, %196 ], !dbg !4109
  call void @llvm.dbg.value(metadata %class.HashMap* %4, metadata !4169, metadata !DIExpression()) #17, !dbg !4181
  call void @llvm.dbg.value(metadata i64 0, metadata !4172, metadata !DIExpression()) #17, !dbg !4183
  %201 = load i64, i64* %8, align 8, !dbg !4184, !tbaa !3939
  %202 = icmp eq i64 %201, 0, !dbg !4185
  br i1 %202, label %203, label %205, !dbg !4186

203:                                              ; preds = %198
  %204 = load i8*, i8** %12, align 8, !dbg !4187, !tbaa !3943
  br label %234, !dbg !4186

205:                                              ; preds = %198
  %206 = load %"struct.HashMap<NatExternKey, IPFlowID>::Elt"**, %"struct.HashMap<NatExternKey, IPFlowID>::Elt"*** %11, align 8, !dbg !4188, !tbaa !3943
  %207 = and i64 %201, 1, !dbg !4186
  %208 = icmp eq i64 %201, 1, !dbg !4186
  br i1 %208, label %211, label %209, !dbg !4186

209:                                              ; preds = %205
  %210 = sub i64 %201, %207, !dbg !4186
  br label %237, !dbg !4186

211:                                              ; preds = %292, %205
  %212 = phi i64 [ 0, %205 ], [ %293, %292 ]
  %213 = icmp eq i64 %207, 0, !dbg !4189
  br i1 %213, label %232, label %214, !dbg !4189

214:                                              ; preds = %211
  call void @llvm.dbg.value(metadata i64 %212, metadata !4172, metadata !DIExpression()) #17, !dbg !4183
  %215 = getelementptr inbounds %"struct.HashMap<NatExternKey, IPFlowID>::Elt"*, %"struct.HashMap<NatExternKey, IPFlowID>::Elt"** %206, i64 %212, !dbg !4190
  %216 = load %"struct.HashMap<NatExternKey, IPFlowID>::Elt"*, %"struct.HashMap<NatExternKey, IPFlowID>::Elt"** %215, align 8, !dbg !4190, !tbaa !3948
  call void @llvm.dbg.value(metadata %"struct.HashMap<NatExternKey, IPFlowID>::Elt"* %216, metadata !4175, metadata !DIExpression()) #17, !dbg !4188
  %217 = icmp eq %"struct.HashMap<NatExternKey, IPFlowID>::Elt"* %216, null, !dbg !4191
  br i1 %217, label %232, label %218, !dbg !4189

218:                                              ; preds = %214
  %219 = load %class.HashMap_Arena*, %class.HashMap_Arena** %7, align 8, !dbg !4192, !tbaa !3918
  %220 = bitcast %class.HashMap_Arena* %219 to i64*, !dbg !4193
  %221 = load i64, i64* %220, align 8, !dbg !4195, !tbaa !4150
  br label %222, !dbg !4189

222:                                              ; preds = %222, %218
  %223 = phi i64 [ %221, %218 ], [ %229, %222 ], !dbg !4195
  %224 = phi %"struct.HashMap<NatExternKey, IPFlowID>::Elt"* [ %216, %218 ], [ %226, %222 ]
  call void @llvm.dbg.value(metadata %"struct.HashMap<NatExternKey, IPFlowID>::Elt"* %224, metadata !4175, metadata !DIExpression()) #17, !dbg !4188
  %225 = getelementptr inbounds %"struct.HashMap<NatExternKey, IPFlowID>::Elt", %"struct.HashMap<NatExternKey, IPFlowID>::Elt"* %224, i64 0, i32 1, !dbg !4196
  %226 = load %"struct.HashMap<NatExternKey, IPFlowID>::Elt"*, %"struct.HashMap<NatExternKey, IPFlowID>::Elt"** %225, align 8, !dbg !4196, !tbaa !4197
  call void @llvm.dbg.value(metadata %"struct.HashMap<NatExternKey, IPFlowID>::Elt"* %226, metadata !4178, metadata !DIExpression()) #17, !dbg !4192
  call void @llvm.dbg.value(metadata %class.HashMap_Arena* %219, metadata !4145, metadata !DIExpression()) #17, !dbg !4193
  call void @llvm.dbg.value(metadata %"struct.HashMap<NatExternKey, IPFlowID>::Elt"* %224, metadata !4146, metadata !DIExpression()) #17, !dbg !4193
  call void @llvm.dbg.value(metadata %"struct.HashMap<NatExternKey, IPFlowID>::Elt"* %224, metadata !4147, metadata !DIExpression()) #17, !dbg !4193
  %227 = bitcast %"struct.HashMap<NatExternKey, IPFlowID>::Elt"* %224 to i64*, !dbg !4199
  store i64 %223, i64* %227, align 8, !dbg !4199, !tbaa !4155
  call void @llvm.dbg.value(metadata %"struct.HashMap<NatExternKey, IPFlowID>::Elt"* %226, metadata !4175, metadata !DIExpression()) #17, !dbg !4188
  %228 = icmp eq %"struct.HashMap<NatExternKey, IPFlowID>::Elt"* %226, null, !dbg !4191
  %229 = ptrtoint %"struct.HashMap<NatExternKey, IPFlowID>::Elt"* %224 to i64, !dbg !4189
  br i1 %228, label %230, label %222, !dbg !4189, !llvm.loop !4200

230:                                              ; preds = %222
  call void @llvm.dbg.value(metadata %"struct.HashMap<NatExternKey, IPFlowID>::Elt"* %224, metadata !4175, metadata !DIExpression()) #17, !dbg !4188
  call void @llvm.dbg.value(metadata %"struct.HashMap<NatExternKey, IPFlowID>::Elt"* %224, metadata !4175, metadata !DIExpression()) #17, !dbg !4188
  call void @llvm.dbg.value(metadata %"struct.HashMap<NatExternKey, IPFlowID>::Elt"* %224, metadata !4175, metadata !DIExpression()) #17, !dbg !4188
  call void @llvm.dbg.value(metadata %"struct.HashMap<NatExternKey, IPFlowID>::Elt"* %224, metadata !4175, metadata !DIExpression()) #17, !dbg !4188
  %231 = bitcast %class.HashMap_Arena* %219 to %"struct.HashMap<NatExternKey, IPFlowID>::Elt"**, !dbg !4193
  call void @llvm.dbg.value(metadata %"struct.HashMap<NatExternKey, IPFlowID>::Elt"* %224, metadata !4175, metadata !DIExpression()) #17, !dbg !4188
  call void @llvm.dbg.value(metadata %"struct.HashMap<NatExternKey, IPFlowID>::Elt"* %224, metadata !4175, metadata !DIExpression()) #17, !dbg !4188
  store %"struct.HashMap<NatExternKey, IPFlowID>::Elt"* %224, %"struct.HashMap<NatExternKey, IPFlowID>::Elt"** %231, align 8, !dbg !4202, !tbaa !4150
  br label %232, !dbg !4203

232:                                              ; preds = %230, %214, %211
  %233 = bitcast %"struct.HashMap<NatExternKey, IPFlowID>::Elt"** %206 to i8*, !dbg !4186
  br label %234, !dbg !4187

234:                                              ; preds = %232, %203
  %235 = phi i8* [ %204, %203 ], [ %233, %232 ], !dbg !4187
  %236 = icmp eq i8* %235, null, !dbg !4187
  br i1 %236, label %263, label %262, !dbg !4187

237:                                              ; preds = %292, %209
  %238 = phi i64 [ 0, %209 ], [ %293, %292 ]
  %239 = phi i64 [ %210, %209 ], [ %294, %292 ]
  call void @llvm.dbg.value(metadata i64 %238, metadata !4172, metadata !DIExpression()) #17, !dbg !4183
  %240 = getelementptr inbounds %"struct.HashMap<NatExternKey, IPFlowID>::Elt"*, %"struct.HashMap<NatExternKey, IPFlowID>::Elt"** %206, i64 %238, !dbg !4190
  %241 = load %"struct.HashMap<NatExternKey, IPFlowID>::Elt"*, %"struct.HashMap<NatExternKey, IPFlowID>::Elt"** %240, align 8, !dbg !4190, !tbaa !3948
  call void @llvm.dbg.value(metadata %"struct.HashMap<NatExternKey, IPFlowID>::Elt"* %241, metadata !4175, metadata !DIExpression()) #17, !dbg !4188
  %242 = icmp eq %"struct.HashMap<NatExternKey, IPFlowID>::Elt"* %241, null, !dbg !4191
  br i1 %242, label %249, label %243, !dbg !4189

243:                                              ; preds = %237
  %244 = load %class.HashMap_Arena*, %class.HashMap_Arena** %7, align 8, !dbg !4192, !tbaa !3918
  %245 = bitcast %class.HashMap_Arena* %244 to i64*, !dbg !4193
  %246 = load i64, i64* %245, align 8, !dbg !4195, !tbaa !4150
  br label %254, !dbg !4189

247:                                              ; preds = %254
  call void @llvm.dbg.value(metadata %"struct.HashMap<NatExternKey, IPFlowID>::Elt"* %256, metadata !4175, metadata !DIExpression()) #17, !dbg !4188
  call void @llvm.dbg.value(metadata %"struct.HashMap<NatExternKey, IPFlowID>::Elt"* %256, metadata !4175, metadata !DIExpression()) #17, !dbg !4188
  call void @llvm.dbg.value(metadata %"struct.HashMap<NatExternKey, IPFlowID>::Elt"* %256, metadata !4175, metadata !DIExpression()) #17, !dbg !4188
  call void @llvm.dbg.value(metadata %"struct.HashMap<NatExternKey, IPFlowID>::Elt"* %256, metadata !4175, metadata !DIExpression()) #17, !dbg !4188
  %248 = bitcast %class.HashMap_Arena* %244 to %"struct.HashMap<NatExternKey, IPFlowID>::Elt"**, !dbg !4193
  call void @llvm.dbg.value(metadata %"struct.HashMap<NatExternKey, IPFlowID>::Elt"* %256, metadata !4175, metadata !DIExpression()) #17, !dbg !4188
  call void @llvm.dbg.value(metadata %"struct.HashMap<NatExternKey, IPFlowID>::Elt"* %256, metadata !4175, metadata !DIExpression()) #17, !dbg !4188
  store %"struct.HashMap<NatExternKey, IPFlowID>::Elt"* %256, %"struct.HashMap<NatExternKey, IPFlowID>::Elt"** %248, align 8, !dbg !4202, !tbaa !4150
  br label %249, !dbg !4203

249:                                              ; preds = %247, %237
  %250 = or i64 %238, 1, !dbg !4203
  call void @llvm.dbg.value(metadata i64 %250, metadata !4172, metadata !DIExpression()) #17, !dbg !4183
  %251 = getelementptr inbounds %"struct.HashMap<NatExternKey, IPFlowID>::Elt"*, %"struct.HashMap<NatExternKey, IPFlowID>::Elt"** %206, i64 %250, !dbg !4190
  %252 = load %"struct.HashMap<NatExternKey, IPFlowID>::Elt"*, %"struct.HashMap<NatExternKey, IPFlowID>::Elt"** %251, align 8, !dbg !4190, !tbaa !3948
  call void @llvm.dbg.value(metadata %"struct.HashMap<NatExternKey, IPFlowID>::Elt"* %252, metadata !4175, metadata !DIExpression()) #17, !dbg !4188
  %253 = icmp eq %"struct.HashMap<NatExternKey, IPFlowID>::Elt"* %252, null, !dbg !4191
  br i1 %253, label %292, label %278, !dbg !4189

254:                                              ; preds = %254, %243
  %255 = phi i64 [ %246, %243 ], [ %261, %254 ], !dbg !4195
  %256 = phi %"struct.HashMap<NatExternKey, IPFlowID>::Elt"* [ %241, %243 ], [ %258, %254 ]
  call void @llvm.dbg.value(metadata %"struct.HashMap<NatExternKey, IPFlowID>::Elt"* %256, metadata !4175, metadata !DIExpression()) #17, !dbg !4188
  %257 = getelementptr inbounds %"struct.HashMap<NatExternKey, IPFlowID>::Elt", %"struct.HashMap<NatExternKey, IPFlowID>::Elt"* %256, i64 0, i32 1, !dbg !4196
  %258 = load %"struct.HashMap<NatExternKey, IPFlowID>::Elt"*, %"struct.HashMap<NatExternKey, IPFlowID>::Elt"** %257, align 8, !dbg !4196, !tbaa !4197
  call void @llvm.dbg.value(metadata %"struct.HashMap<NatExternKey, IPFlowID>::Elt"* %258, metadata !4178, metadata !DIExpression()) #17, !dbg !4192
  call void @llvm.dbg.value(metadata %class.HashMap_Arena* %244, metadata !4145, metadata !DIExpression()) #17, !dbg !4193
  call void @llvm.dbg.value(metadata %"struct.HashMap<NatExternKey, IPFlowID>::Elt"* %256, metadata !4146, metadata !DIExpression()) #17, !dbg !4193
  call void @llvm.dbg.value(metadata %"struct.HashMap<NatExternKey, IPFlowID>::Elt"* %256, metadata !4147, metadata !DIExpression()) #17, !dbg !4193
  %259 = bitcast %"struct.HashMap<NatExternKey, IPFlowID>::Elt"* %256 to i64*, !dbg !4199
  store i64 %255, i64* %259, align 8, !dbg !4199, !tbaa !4155
  call void @llvm.dbg.value(metadata %"struct.HashMap<NatExternKey, IPFlowID>::Elt"* %258, metadata !4175, metadata !DIExpression()) #17, !dbg !4188
  %260 = icmp eq %"struct.HashMap<NatExternKey, IPFlowID>::Elt"* %258, null, !dbg !4191
  %261 = ptrtoint %"struct.HashMap<NatExternKey, IPFlowID>::Elt"* %256 to i64, !dbg !4189
  br i1 %260, label %247, label %254, !dbg !4189, !llvm.loop !4200

262:                                              ; preds = %234
  tail call void @_ZdaPv(i8* nonnull %235) #18, !dbg !4187
  br label %263, !dbg !4187

263:                                              ; preds = %262, %234
  %264 = load %class.HashMap_Arena*, %class.HashMap_Arena** %7, align 8, !dbg !4204, !tbaa !3918
  call void @llvm.dbg.value(metadata %class.HashMap_Arena* %264, metadata !3971, metadata !DIExpression()) #17, !dbg !4205
  %265 = getelementptr inbounds %class.HashMap_Arena, %class.HashMap_Arena* %264, i64 0, i32 7, !dbg !4207
  %266 = load i32, i32* %265, align 8, !dbg !4208, !tbaa !3978
  %267 = add i32 %266, -1, !dbg !4208
  store i32 %267, i32* %265, align 8, !dbg !4208, !tbaa !3978
  %268 = icmp ne i32 %267, 0, !dbg !4209
  %269 = icmp eq %class.HashMap_Arena* %264, null, !dbg !4210
  %270 = or i1 %269, %268, !dbg !4211
  br i1 %270, label %273, label %271, !dbg !4211

271:                                              ; preds = %263
  tail call void @_ZN13HashMap_ArenaD1Ev(%class.HashMap_Arena* nonnull %264) #17, !dbg !4210
  %272 = bitcast %class.HashMap_Arena* %264 to i8*, !dbg !4210
  tail call void @_ZdlPv(i8* %272) #18, !dbg !4210
  br label %273, !dbg !4210

273:                                              ; preds = %271, %263, %104
  %274 = phi i8* [ %106, %104 ], [ %199, %263 ], [ %199, %271 ], !dbg !4109
  %275 = phi i32 [ %107, %104 ], [ %200, %263 ], [ %200, %271 ], !dbg !4109
  tail call void @_ZN11TCPRewriterD2Ev(%class.TCPRewriter* %2) #17, !dbg !4212
  %276 = insertvalue { i8*, i32 } undef, i8* %274, 0, !dbg !4212
  %277 = insertvalue { i8*, i32 } %276, i32 %275, 1, !dbg !4212
  resume { i8*, i32 } %277, !dbg !4212

278:                                              ; preds = %249
  %279 = load %class.HashMap_Arena*, %class.HashMap_Arena** %7, align 8, !dbg !4192, !tbaa !3918
  %280 = bitcast %class.HashMap_Arena* %279 to i64*, !dbg !4193
  %281 = load i64, i64* %280, align 8, !dbg !4195, !tbaa !4150
  br label %282, !dbg !4189

282:                                              ; preds = %282, %278
  %283 = phi i64 [ %281, %278 ], [ %289, %282 ], !dbg !4195
  %284 = phi %"struct.HashMap<NatExternKey, IPFlowID>::Elt"* [ %252, %278 ], [ %286, %282 ]
  call void @llvm.dbg.value(metadata %"struct.HashMap<NatExternKey, IPFlowID>::Elt"* %284, metadata !4175, metadata !DIExpression()) #17, !dbg !4188
  %285 = getelementptr inbounds %"struct.HashMap<NatExternKey, IPFlowID>::Elt", %"struct.HashMap<NatExternKey, IPFlowID>::Elt"* %284, i64 0, i32 1, !dbg !4196
  %286 = load %"struct.HashMap<NatExternKey, IPFlowID>::Elt"*, %"struct.HashMap<NatExternKey, IPFlowID>::Elt"** %285, align 8, !dbg !4196, !tbaa !4197
  call void @llvm.dbg.value(metadata %"struct.HashMap<NatExternKey, IPFlowID>::Elt"* %286, metadata !4178, metadata !DIExpression()) #17, !dbg !4192
  call void @llvm.dbg.value(metadata %class.HashMap_Arena* %279, metadata !4145, metadata !DIExpression()) #17, !dbg !4193
  call void @llvm.dbg.value(metadata %"struct.HashMap<NatExternKey, IPFlowID>::Elt"* %284, metadata !4146, metadata !DIExpression()) #17, !dbg !4193
  call void @llvm.dbg.value(metadata %"struct.HashMap<NatExternKey, IPFlowID>::Elt"* %284, metadata !4147, metadata !DIExpression()) #17, !dbg !4193
  %287 = bitcast %"struct.HashMap<NatExternKey, IPFlowID>::Elt"* %284 to i64*, !dbg !4199
  store i64 %283, i64* %287, align 8, !dbg !4199, !tbaa !4155
  call void @llvm.dbg.value(metadata %"struct.HashMap<NatExternKey, IPFlowID>::Elt"* %286, metadata !4175, metadata !DIExpression()) #17, !dbg !4188
  %288 = icmp eq %"struct.HashMap<NatExternKey, IPFlowID>::Elt"* %286, null, !dbg !4191
  %289 = ptrtoint %"struct.HashMap<NatExternKey, IPFlowID>::Elt"* %284 to i64, !dbg !4189
  br i1 %288, label %290, label %282, !dbg !4189, !llvm.loop !4200

290:                                              ; preds = %282
  call void @llvm.dbg.value(metadata %"struct.HashMap<NatExternKey, IPFlowID>::Elt"* %284, metadata !4175, metadata !DIExpression()) #17, !dbg !4188
  call void @llvm.dbg.value(metadata %"struct.HashMap<NatExternKey, IPFlowID>::Elt"* %284, metadata !4175, metadata !DIExpression()) #17, !dbg !4188
  call void @llvm.dbg.value(metadata %"struct.HashMap<NatExternKey, IPFlowID>::Elt"* %284, metadata !4175, metadata !DIExpression()) #17, !dbg !4188
  call void @llvm.dbg.value(metadata %"struct.HashMap<NatExternKey, IPFlowID>::Elt"* %284, metadata !4175, metadata !DIExpression()) #17, !dbg !4188
  %291 = bitcast %class.HashMap_Arena* %279 to %"struct.HashMap<NatExternKey, IPFlowID>::Elt"**, !dbg !4193
  call void @llvm.dbg.value(metadata %"struct.HashMap<NatExternKey, IPFlowID>::Elt"* %284, metadata !4175, metadata !DIExpression()) #17, !dbg !4188
  call void @llvm.dbg.value(metadata %"struct.HashMap<NatExternKey, IPFlowID>::Elt"* %284, metadata !4175, metadata !DIExpression()) #17, !dbg !4188
  store %"struct.HashMap<NatExternKey, IPFlowID>::Elt"* %284, %"struct.HashMap<NatExternKey, IPFlowID>::Elt"** %291, align 8, !dbg !4202, !tbaa !4150
  br label %292, !dbg !4203

292:                                              ; preds = %290, %249
  %293 = add nuw i64 %238, 2, !dbg !4203
  call void @llvm.dbg.value(metadata i64 %293, metadata !4172, metadata !DIExpression()) #17, !dbg !4183
  %294 = add i64 %239, -2, !dbg !4186
  %295 = icmp eq i64 %294, 0, !dbg !4186
  br i1 %295, label %211, label %237, !dbg !4186, !llvm.loop !4213

296:                                              ; preds = %174
  %297 = load %class.HashMap_Arena*, %class.HashMap_Arena** %51, align 8, !dbg !4141, !tbaa !4010
  %298 = bitcast %class.HashMap_Arena* %297 to i64*, !dbg !4142
  %299 = load i64, i64* %298, align 8, !dbg !4149, !tbaa !4150
  br label %300, !dbg !4138

300:                                              ; preds = %300, %296
  %301 = phi i64 [ %299, %296 ], [ %307, %300 ], !dbg !4149
  %302 = phi %"struct.HashMap<NatInternKey, IPFlowID>::Elt"* [ %177, %296 ], [ %304, %300 ]
  call void @llvm.dbg.value(metadata %"struct.HashMap<NatInternKey, IPFlowID>::Elt"* %302, metadata !4124, metadata !DIExpression()) #17, !dbg !4137
  %303 = getelementptr inbounds %"struct.HashMap<NatInternKey, IPFlowID>::Elt", %"struct.HashMap<NatInternKey, IPFlowID>::Elt"* %302, i64 0, i32 1, !dbg !4151
  %304 = load %"struct.HashMap<NatInternKey, IPFlowID>::Elt"*, %"struct.HashMap<NatInternKey, IPFlowID>::Elt"** %303, align 8, !dbg !4151, !tbaa !4152
  call void @llvm.dbg.value(metadata %"struct.HashMap<NatInternKey, IPFlowID>::Elt"* %304, metadata !4127, metadata !DIExpression()) #17, !dbg !4141
  call void @llvm.dbg.value(metadata %class.HashMap_Arena* %297, metadata !4145, metadata !DIExpression()) #17, !dbg !4142
  call void @llvm.dbg.value(metadata %"struct.HashMap<NatInternKey, IPFlowID>::Elt"* %302, metadata !4146, metadata !DIExpression()) #17, !dbg !4142
  call void @llvm.dbg.value(metadata %"struct.HashMap<NatInternKey, IPFlowID>::Elt"* %302, metadata !4147, metadata !DIExpression()) #17, !dbg !4142
  %305 = bitcast %"struct.HashMap<NatInternKey, IPFlowID>::Elt"* %302 to i64*, !dbg !4154
  store i64 %301, i64* %305, align 8, !dbg !4154, !tbaa !4155
  call void @llvm.dbg.value(metadata %"struct.HashMap<NatInternKey, IPFlowID>::Elt"* %304, metadata !4124, metadata !DIExpression()) #17, !dbg !4137
  %306 = icmp eq %"struct.HashMap<NatInternKey, IPFlowID>::Elt"* %304, null, !dbg !4140
  %307 = ptrtoint %"struct.HashMap<NatInternKey, IPFlowID>::Elt"* %302 to i64, !dbg !4138
  br i1 %306, label %308, label %300, !dbg !4138, !llvm.loop !4157

308:                                              ; preds = %300
  call void @llvm.dbg.value(metadata %"struct.HashMap<NatInternKey, IPFlowID>::Elt"* %302, metadata !4124, metadata !DIExpression()) #17, !dbg !4137
  call void @llvm.dbg.value(metadata %"struct.HashMap<NatInternKey, IPFlowID>::Elt"* %302, metadata !4124, metadata !DIExpression()) #17, !dbg !4137
  call void @llvm.dbg.value(metadata %"struct.HashMap<NatInternKey, IPFlowID>::Elt"* %302, metadata !4124, metadata !DIExpression()) #17, !dbg !4137
  call void @llvm.dbg.value(metadata %"struct.HashMap<NatInternKey, IPFlowID>::Elt"* %302, metadata !4124, metadata !DIExpression()) #17, !dbg !4137
  %309 = bitcast %class.HashMap_Arena* %297 to %"struct.HashMap<NatInternKey, IPFlowID>::Elt"**, !dbg !4142
  call void @llvm.dbg.value(metadata %"struct.HashMap<NatInternKey, IPFlowID>::Elt"* %302, metadata !4124, metadata !DIExpression()) #17, !dbg !4137
  call void @llvm.dbg.value(metadata %"struct.HashMap<NatInternKey, IPFlowID>::Elt"* %302, metadata !4124, metadata !DIExpression()) #17, !dbg !4137
  store %"struct.HashMap<NatInternKey, IPFlowID>::Elt"* %302, %"struct.HashMap<NatInternKey, IPFlowID>::Elt"** %309, align 8, !dbg !4159, !tbaa !4150
  br label %310, !dbg !4160

310:                                              ; preds = %308, %174
  %311 = add nuw i64 %163, 2, !dbg !4160
  call void @llvm.dbg.value(metadata i64 %311, metadata !4121, metadata !DIExpression()) #17, !dbg !4132
  %312 = add i64 %164, -2, !dbg !4135
  %313 = icmp eq i64 %312, 0, !dbg !4135
  br i1 %313, label %136, label %162, !dbg !4135, !llvm.loop !4215
}

; Function Attrs: nounwind readnone speculatable willreturn
declare void @llvm.dbg.declare(metadata, metadata, metadata) #1

declare void @_ZN11TCPRewriterC2Ev(%class.TCPRewriter*) unnamed_addr #2

declare i32 @__gxx_personality_v0(...)

; Function Attrs: nounwind
declare void @_ZN11TCPRewriterD2Ev(%class.TCPRewriter*) unnamed_addr #3

; Function Attrs: nounwind sspstrong uwtable
define dso_local void @_ZN15MyIPRewriterModD2Ev(%class.MyIPRewriterMod* %0) unnamed_addr #4 align 2 personality i32 (...)* @__gxx_personality_v0 !dbg !4217 {
  call void @llvm.dbg.value(metadata %class.MyIPRewriterMod* %0, metadata !4219, metadata !DIExpression()), !dbg !4220
  %2 = getelementptr %class.MyIPRewriterMod, %class.MyIPRewriterMod* %0, i64 0, i32 0, i32 0, i32 0, i32 0, !dbg !4221
  store i32 (...)** bitcast (i8** getelementptr inbounds ({ [34 x i8*] }, { [34 x i8*] }* @_ZTV15MyIPRewriterMod, i64 0, inrange i32 0, i64 2) to i32 (...)**), i32 (...)*** %2, align 8, !dbg !4221, !tbaa !3891
  %3 = getelementptr inbounds %class.MyIPRewriterMod, %class.MyIPRewriterMod* %0, i64 0, i32 5, i32 0, !dbg !4222
  tail call void @_ZN13HashAllocatorD2Ev(%class.HashAllocator* nonnull %3) #17, !dbg !4222
  %4 = getelementptr inbounds %class.MyIPRewriterMod, %class.MyIPRewriterMod* %0, i64 0, i32 4, !dbg !4222
  call void @llvm.dbg.value(metadata %class.HashContainer* %4, metadata !4110, metadata !DIExpression()) #17, !dbg !4224
  %5 = bitcast %class.HashContainer* %4 to i8**, !dbg !4226
  %6 = load i8*, i8** %5, align 8, !dbg !4226, !tbaa !4089
  %7 = icmp eq i8* %6, null, !dbg !4226
  br i1 %7, label %9, label %8, !dbg !4226

8:                                                ; preds = %1
  tail call void @_ZdaPv(i8* nonnull %6) #18, !dbg !4226
  br label %9, !dbg !4226

9:                                                ; preds = %1, %8
  %10 = getelementptr inbounds %class.MyIPRewriterMod, %class.MyIPRewriterMod* %0, i64 0, i32 3, !dbg !4222
  call void @llvm.dbg.value(metadata %class.HashMap.24* %10, metadata !4118, metadata !DIExpression()) #17, !dbg !4227
  call void @llvm.dbg.value(metadata i64 0, metadata !4121, metadata !DIExpression()) #17, !dbg !4229
  %11 = getelementptr inbounds %class.MyIPRewriterMod, %class.MyIPRewriterMod* %0, i64 0, i32 3, i32 1, !dbg !4230
  %12 = load i64, i64* %11, align 8, !dbg !4230, !tbaa !4024
  %13 = icmp eq i64 %12, 0, !dbg !4231
  br i1 %13, label %14, label %17, !dbg !4232

14:                                               ; preds = %9
  %15 = bitcast %class.HashMap.24* %10 to i8**, !dbg !4233
  %16 = load i8*, i8** %15, align 8, !dbg !4234, !tbaa !4028
  br label %48, !dbg !4232

17:                                               ; preds = %9
  %18 = getelementptr inbounds %class.HashMap.24, %class.HashMap.24* %10, i64 0, i32 0, !dbg !4235
  %19 = load %"struct.HashMap<NatInternKey, IPFlowID>::Elt"**, %"struct.HashMap<NatInternKey, IPFlowID>::Elt"*** %18, align 8, !dbg !4235, !tbaa !4028
  %20 = getelementptr inbounds %class.MyIPRewriterMod, %class.MyIPRewriterMod* %0, i64 0, i32 3, i32 5, !dbg !4236
  %21 = and i64 %12, 1, !dbg !4232
  %22 = icmp eq i64 %12, 1, !dbg !4232
  br i1 %22, label %25, label %23, !dbg !4232

23:                                               ; preds = %17
  %24 = sub i64 %12, %21, !dbg !4232
  br label %51, !dbg !4232

25:                                               ; preds = %201, %17
  %26 = phi i64 [ 0, %17 ], [ %202, %201 ]
  %27 = icmp eq i64 %21, 0, !dbg !4237
  br i1 %27, label %46, label %28, !dbg !4237

28:                                               ; preds = %25
  call void @llvm.dbg.value(metadata i64 %26, metadata !4121, metadata !DIExpression()) #17, !dbg !4229
  %29 = getelementptr inbounds %"struct.HashMap<NatInternKey, IPFlowID>::Elt"*, %"struct.HashMap<NatInternKey, IPFlowID>::Elt"** %19, i64 %26, !dbg !4238
  %30 = load %"struct.HashMap<NatInternKey, IPFlowID>::Elt"*, %"struct.HashMap<NatInternKey, IPFlowID>::Elt"** %29, align 8, !dbg !4238, !tbaa !3948
  call void @llvm.dbg.value(metadata %"struct.HashMap<NatInternKey, IPFlowID>::Elt"* %30, metadata !4124, metadata !DIExpression()) #17, !dbg !4235
  %31 = icmp eq %"struct.HashMap<NatInternKey, IPFlowID>::Elt"* %30, null, !dbg !4239
  br i1 %31, label %46, label %32, !dbg !4237

32:                                               ; preds = %28
  %33 = load %class.HashMap_Arena*, %class.HashMap_Arena** %20, align 8, !dbg !4236, !tbaa !4010
  %34 = bitcast %class.HashMap_Arena* %33 to i64*, !dbg !4240
  %35 = load i64, i64* %34, align 8, !dbg !4242, !tbaa !4150
  br label %36, !dbg !4237

36:                                               ; preds = %36, %32
  %37 = phi i64 [ %35, %32 ], [ %43, %36 ], !dbg !4242
  %38 = phi %"struct.HashMap<NatInternKey, IPFlowID>::Elt"* [ %30, %32 ], [ %40, %36 ]
  call void @llvm.dbg.value(metadata %"struct.HashMap<NatInternKey, IPFlowID>::Elt"* %38, metadata !4124, metadata !DIExpression()) #17, !dbg !4235
  %39 = getelementptr inbounds %"struct.HashMap<NatInternKey, IPFlowID>::Elt", %"struct.HashMap<NatInternKey, IPFlowID>::Elt"* %38, i64 0, i32 1, !dbg !4243
  %40 = load %"struct.HashMap<NatInternKey, IPFlowID>::Elt"*, %"struct.HashMap<NatInternKey, IPFlowID>::Elt"** %39, align 8, !dbg !4243, !tbaa !4152
  call void @llvm.dbg.value(metadata %"struct.HashMap<NatInternKey, IPFlowID>::Elt"* %40, metadata !4127, metadata !DIExpression()) #17, !dbg !4236
  call void @llvm.dbg.value(metadata %class.HashMap_Arena* %33, metadata !4145, metadata !DIExpression()) #17, !dbg !4240
  call void @llvm.dbg.value(metadata %"struct.HashMap<NatInternKey, IPFlowID>::Elt"* %38, metadata !4146, metadata !DIExpression()) #17, !dbg !4240
  call void @llvm.dbg.value(metadata %"struct.HashMap<NatInternKey, IPFlowID>::Elt"* %38, metadata !4147, metadata !DIExpression()) #17, !dbg !4240
  %41 = bitcast %"struct.HashMap<NatInternKey, IPFlowID>::Elt"* %38 to i64*, !dbg !4244
  store i64 %37, i64* %41, align 8, !dbg !4244, !tbaa !4155
  call void @llvm.dbg.value(metadata %"struct.HashMap<NatInternKey, IPFlowID>::Elt"* %40, metadata !4124, metadata !DIExpression()) #17, !dbg !4235
  %42 = icmp eq %"struct.HashMap<NatInternKey, IPFlowID>::Elt"* %40, null, !dbg !4239
  %43 = ptrtoint %"struct.HashMap<NatInternKey, IPFlowID>::Elt"* %38 to i64, !dbg !4237
  br i1 %42, label %44, label %36, !dbg !4237, !llvm.loop !4245

44:                                               ; preds = %36
  call void @llvm.dbg.value(metadata %"struct.HashMap<NatInternKey, IPFlowID>::Elt"* %38, metadata !4124, metadata !DIExpression()) #17, !dbg !4235
  call void @llvm.dbg.value(metadata %"struct.HashMap<NatInternKey, IPFlowID>::Elt"* %38, metadata !4124, metadata !DIExpression()) #17, !dbg !4235
  call void @llvm.dbg.value(metadata %"struct.HashMap<NatInternKey, IPFlowID>::Elt"* %38, metadata !4124, metadata !DIExpression()) #17, !dbg !4235
  call void @llvm.dbg.value(metadata %"struct.HashMap<NatInternKey, IPFlowID>::Elt"* %38, metadata !4124, metadata !DIExpression()) #17, !dbg !4235
  %45 = bitcast %class.HashMap_Arena* %33 to %"struct.HashMap<NatInternKey, IPFlowID>::Elt"**, !dbg !4240
  call void @llvm.dbg.value(metadata %"struct.HashMap<NatInternKey, IPFlowID>::Elt"* %38, metadata !4124, metadata !DIExpression()) #17, !dbg !4235
  call void @llvm.dbg.value(metadata %"struct.HashMap<NatInternKey, IPFlowID>::Elt"* %38, metadata !4124, metadata !DIExpression()) #17, !dbg !4235
  store %"struct.HashMap<NatInternKey, IPFlowID>::Elt"* %38, %"struct.HashMap<NatInternKey, IPFlowID>::Elt"** %45, align 8, !dbg !4247, !tbaa !4150
  br label %46, !dbg !4248

46:                                               ; preds = %44, %28, %25
  %47 = bitcast %"struct.HashMap<NatInternKey, IPFlowID>::Elt"** %19 to i8*, !dbg !4232
  br label %48, !dbg !4234

48:                                               ; preds = %46, %14
  %49 = phi i8* [ %16, %14 ], [ %47, %46 ], !dbg !4234
  %50 = icmp eq i8* %49, null, !dbg !4234
  br i1 %50, label %77, label %76, !dbg !4234

51:                                               ; preds = %201, %23
  %52 = phi i64 [ 0, %23 ], [ %202, %201 ]
  %53 = phi i64 [ %24, %23 ], [ %203, %201 ]
  call void @llvm.dbg.value(metadata i64 %52, metadata !4121, metadata !DIExpression()) #17, !dbg !4229
  %54 = getelementptr inbounds %"struct.HashMap<NatInternKey, IPFlowID>::Elt"*, %"struct.HashMap<NatInternKey, IPFlowID>::Elt"** %19, i64 %52, !dbg !4238
  %55 = load %"struct.HashMap<NatInternKey, IPFlowID>::Elt"*, %"struct.HashMap<NatInternKey, IPFlowID>::Elt"** %54, align 8, !dbg !4238, !tbaa !3948
  call void @llvm.dbg.value(metadata %"struct.HashMap<NatInternKey, IPFlowID>::Elt"* %55, metadata !4124, metadata !DIExpression()) #17, !dbg !4235
  %56 = icmp eq %"struct.HashMap<NatInternKey, IPFlowID>::Elt"* %55, null, !dbg !4239
  br i1 %56, label %63, label %57, !dbg !4237

57:                                               ; preds = %51
  %58 = load %class.HashMap_Arena*, %class.HashMap_Arena** %20, align 8, !dbg !4236, !tbaa !4010
  %59 = bitcast %class.HashMap_Arena* %58 to i64*, !dbg !4240
  %60 = load i64, i64* %59, align 8, !dbg !4242, !tbaa !4150
  br label %68, !dbg !4237

61:                                               ; preds = %68
  call void @llvm.dbg.value(metadata %"struct.HashMap<NatInternKey, IPFlowID>::Elt"* %70, metadata !4124, metadata !DIExpression()) #17, !dbg !4235
  call void @llvm.dbg.value(metadata %"struct.HashMap<NatInternKey, IPFlowID>::Elt"* %70, metadata !4124, metadata !DIExpression()) #17, !dbg !4235
  call void @llvm.dbg.value(metadata %"struct.HashMap<NatInternKey, IPFlowID>::Elt"* %70, metadata !4124, metadata !DIExpression()) #17, !dbg !4235
  call void @llvm.dbg.value(metadata %"struct.HashMap<NatInternKey, IPFlowID>::Elt"* %70, metadata !4124, metadata !DIExpression()) #17, !dbg !4235
  %62 = bitcast %class.HashMap_Arena* %58 to %"struct.HashMap<NatInternKey, IPFlowID>::Elt"**, !dbg !4240
  call void @llvm.dbg.value(metadata %"struct.HashMap<NatInternKey, IPFlowID>::Elt"* %70, metadata !4124, metadata !DIExpression()) #17, !dbg !4235
  call void @llvm.dbg.value(metadata %"struct.HashMap<NatInternKey, IPFlowID>::Elt"* %70, metadata !4124, metadata !DIExpression()) #17, !dbg !4235
  store %"struct.HashMap<NatInternKey, IPFlowID>::Elt"* %70, %"struct.HashMap<NatInternKey, IPFlowID>::Elt"** %62, align 8, !dbg !4247, !tbaa !4150
  br label %63, !dbg !4248

63:                                               ; preds = %61, %51
  %64 = or i64 %52, 1, !dbg !4248
  call void @llvm.dbg.value(metadata i64 %64, metadata !4121, metadata !DIExpression()) #17, !dbg !4229
  %65 = getelementptr inbounds %"struct.HashMap<NatInternKey, IPFlowID>::Elt"*, %"struct.HashMap<NatInternKey, IPFlowID>::Elt"** %19, i64 %64, !dbg !4238
  %66 = load %"struct.HashMap<NatInternKey, IPFlowID>::Elt"*, %"struct.HashMap<NatInternKey, IPFlowID>::Elt"** %65, align 8, !dbg !4238, !tbaa !3948
  call void @llvm.dbg.value(metadata %"struct.HashMap<NatInternKey, IPFlowID>::Elt"* %66, metadata !4124, metadata !DIExpression()) #17, !dbg !4235
  %67 = icmp eq %"struct.HashMap<NatInternKey, IPFlowID>::Elt"* %66, null, !dbg !4239
  br i1 %67, label %201, label %187, !dbg !4237

68:                                               ; preds = %68, %57
  %69 = phi i64 [ %60, %57 ], [ %75, %68 ], !dbg !4242
  %70 = phi %"struct.HashMap<NatInternKey, IPFlowID>::Elt"* [ %55, %57 ], [ %72, %68 ]
  call void @llvm.dbg.value(metadata %"struct.HashMap<NatInternKey, IPFlowID>::Elt"* %70, metadata !4124, metadata !DIExpression()) #17, !dbg !4235
  %71 = getelementptr inbounds %"struct.HashMap<NatInternKey, IPFlowID>::Elt", %"struct.HashMap<NatInternKey, IPFlowID>::Elt"* %70, i64 0, i32 1, !dbg !4243
  %72 = load %"struct.HashMap<NatInternKey, IPFlowID>::Elt"*, %"struct.HashMap<NatInternKey, IPFlowID>::Elt"** %71, align 8, !dbg !4243, !tbaa !4152
  call void @llvm.dbg.value(metadata %"struct.HashMap<NatInternKey, IPFlowID>::Elt"* %72, metadata !4127, metadata !DIExpression()) #17, !dbg !4236
  call void @llvm.dbg.value(metadata %class.HashMap_Arena* %58, metadata !4145, metadata !DIExpression()) #17, !dbg !4240
  call void @llvm.dbg.value(metadata %"struct.HashMap<NatInternKey, IPFlowID>::Elt"* %70, metadata !4146, metadata !DIExpression()) #17, !dbg !4240
  call void @llvm.dbg.value(metadata %"struct.HashMap<NatInternKey, IPFlowID>::Elt"* %70, metadata !4147, metadata !DIExpression()) #17, !dbg !4240
  %73 = bitcast %"struct.HashMap<NatInternKey, IPFlowID>::Elt"* %70 to i64*, !dbg !4244
  store i64 %69, i64* %73, align 8, !dbg !4244, !tbaa !4155
  call void @llvm.dbg.value(metadata %"struct.HashMap<NatInternKey, IPFlowID>::Elt"* %72, metadata !4124, metadata !DIExpression()) #17, !dbg !4235
  %74 = icmp eq %"struct.HashMap<NatInternKey, IPFlowID>::Elt"* %72, null, !dbg !4239
  %75 = ptrtoint %"struct.HashMap<NatInternKey, IPFlowID>::Elt"* %70 to i64, !dbg !4237
  br i1 %74, label %61, label %68, !dbg !4237, !llvm.loop !4245

76:                                               ; preds = %48
  tail call void @_ZdaPv(i8* nonnull %49) #18, !dbg !4234
  br label %77, !dbg !4234

77:                                               ; preds = %76, %48
  %78 = getelementptr inbounds %class.MyIPRewriterMod, %class.MyIPRewriterMod* %0, i64 0, i32 3, i32 5, !dbg !4249
  %79 = load %class.HashMap_Arena*, %class.HashMap_Arena** %78, align 8, !dbg !4249, !tbaa !4010
  call void @llvm.dbg.value(metadata %class.HashMap_Arena* %79, metadata !3971, metadata !DIExpression()) #17, !dbg !4250
  %80 = getelementptr inbounds %class.HashMap_Arena, %class.HashMap_Arena* %79, i64 0, i32 7, !dbg !4252
  %81 = load i32, i32* %80, align 8, !dbg !4253, !tbaa !3978
  %82 = add i32 %81, -1, !dbg !4253
  store i32 %82, i32* %80, align 8, !dbg !4253, !tbaa !3978
  %83 = icmp ne i32 %82, 0, !dbg !4254
  %84 = icmp eq %class.HashMap_Arena* %79, null, !dbg !4255
  %85 = or i1 %84, %83, !dbg !4256
  br i1 %85, label %88, label %86, !dbg !4256

86:                                               ; preds = %77
  tail call void @_ZN13HashMap_ArenaD1Ev(%class.HashMap_Arena* nonnull %79) #17, !dbg !4255
  %87 = bitcast %class.HashMap_Arena* %79 to i8*, !dbg !4255
  tail call void @_ZdlPv(i8* %87) #18, !dbg !4255
  br label %88, !dbg !4255

88:                                               ; preds = %77, %86
  %89 = getelementptr inbounds %class.MyIPRewriterMod, %class.MyIPRewriterMod* %0, i64 0, i32 2, !dbg !4222
  call void @llvm.dbg.value(metadata %class.HashMap* %89, metadata !4169, metadata !DIExpression()) #17, !dbg !4257
  call void @llvm.dbg.value(metadata i64 0, metadata !4172, metadata !DIExpression()) #17, !dbg !4259
  %90 = getelementptr inbounds %class.MyIPRewriterMod, %class.MyIPRewriterMod* %0, i64 0, i32 2, i32 1, !dbg !4260
  %91 = load i64, i64* %90, align 8, !dbg !4260, !tbaa !3939
  %92 = icmp eq i64 %91, 0, !dbg !4261
  br i1 %92, label %93, label %96, !dbg !4262

93:                                               ; preds = %88
  %94 = bitcast %class.HashMap* %89 to i8**, !dbg !4263
  %95 = load i8*, i8** %94, align 8, !dbg !4264, !tbaa !3943
  br label %127, !dbg !4262

96:                                               ; preds = %88
  %97 = getelementptr inbounds %class.HashMap, %class.HashMap* %89, i64 0, i32 0, !dbg !4265
  %98 = load %"struct.HashMap<NatExternKey, IPFlowID>::Elt"**, %"struct.HashMap<NatExternKey, IPFlowID>::Elt"*** %97, align 8, !dbg !4265, !tbaa !3943
  %99 = getelementptr inbounds %class.MyIPRewriterMod, %class.MyIPRewriterMod* %0, i64 0, i32 2, i32 5, !dbg !4266
  %100 = and i64 %91, 1, !dbg !4262
  %101 = icmp eq i64 %91, 1, !dbg !4262
  br i1 %101, label %104, label %102, !dbg !4262

102:                                              ; preds = %96
  %103 = sub i64 %91, %100, !dbg !4262
  br label %130, !dbg !4262

104:                                              ; preds = %183, %96
  %105 = phi i64 [ 0, %96 ], [ %184, %183 ]
  %106 = icmp eq i64 %100, 0, !dbg !4267
  br i1 %106, label %125, label %107, !dbg !4267

107:                                              ; preds = %104
  call void @llvm.dbg.value(metadata i64 %105, metadata !4172, metadata !DIExpression()) #17, !dbg !4259
  %108 = getelementptr inbounds %"struct.HashMap<NatExternKey, IPFlowID>::Elt"*, %"struct.HashMap<NatExternKey, IPFlowID>::Elt"** %98, i64 %105, !dbg !4268
  %109 = load %"struct.HashMap<NatExternKey, IPFlowID>::Elt"*, %"struct.HashMap<NatExternKey, IPFlowID>::Elt"** %108, align 8, !dbg !4268, !tbaa !3948
  call void @llvm.dbg.value(metadata %"struct.HashMap<NatExternKey, IPFlowID>::Elt"* %109, metadata !4175, metadata !DIExpression()) #17, !dbg !4265
  %110 = icmp eq %"struct.HashMap<NatExternKey, IPFlowID>::Elt"* %109, null, !dbg !4269
  br i1 %110, label %125, label %111, !dbg !4267

111:                                              ; preds = %107
  %112 = load %class.HashMap_Arena*, %class.HashMap_Arena** %99, align 8, !dbg !4266, !tbaa !3918
  %113 = bitcast %class.HashMap_Arena* %112 to i64*, !dbg !4270
  %114 = load i64, i64* %113, align 8, !dbg !4272, !tbaa !4150
  br label %115, !dbg !4267

115:                                              ; preds = %115, %111
  %116 = phi i64 [ %114, %111 ], [ %122, %115 ], !dbg !4272
  %117 = phi %"struct.HashMap<NatExternKey, IPFlowID>::Elt"* [ %109, %111 ], [ %119, %115 ]
  call void @llvm.dbg.value(metadata %"struct.HashMap<NatExternKey, IPFlowID>::Elt"* %117, metadata !4175, metadata !DIExpression()) #17, !dbg !4265
  %118 = getelementptr inbounds %"struct.HashMap<NatExternKey, IPFlowID>::Elt", %"struct.HashMap<NatExternKey, IPFlowID>::Elt"* %117, i64 0, i32 1, !dbg !4273
  %119 = load %"struct.HashMap<NatExternKey, IPFlowID>::Elt"*, %"struct.HashMap<NatExternKey, IPFlowID>::Elt"** %118, align 8, !dbg !4273, !tbaa !4197
  call void @llvm.dbg.value(metadata %"struct.HashMap<NatExternKey, IPFlowID>::Elt"* %119, metadata !4178, metadata !DIExpression()) #17, !dbg !4266
  call void @llvm.dbg.value(metadata %class.HashMap_Arena* %112, metadata !4145, metadata !DIExpression()) #17, !dbg !4270
  call void @llvm.dbg.value(metadata %"struct.HashMap<NatExternKey, IPFlowID>::Elt"* %117, metadata !4146, metadata !DIExpression()) #17, !dbg !4270
  call void @llvm.dbg.value(metadata %"struct.HashMap<NatExternKey, IPFlowID>::Elt"* %117, metadata !4147, metadata !DIExpression()) #17, !dbg !4270
  %120 = bitcast %"struct.HashMap<NatExternKey, IPFlowID>::Elt"* %117 to i64*, !dbg !4274
  store i64 %116, i64* %120, align 8, !dbg !4274, !tbaa !4155
  call void @llvm.dbg.value(metadata %"struct.HashMap<NatExternKey, IPFlowID>::Elt"* %119, metadata !4175, metadata !DIExpression()) #17, !dbg !4265
  %121 = icmp eq %"struct.HashMap<NatExternKey, IPFlowID>::Elt"* %119, null, !dbg !4269
  %122 = ptrtoint %"struct.HashMap<NatExternKey, IPFlowID>::Elt"* %117 to i64, !dbg !4267
  br i1 %121, label %123, label %115, !dbg !4267, !llvm.loop !4275

123:                                              ; preds = %115
  call void @llvm.dbg.value(metadata %"struct.HashMap<NatExternKey, IPFlowID>::Elt"* %117, metadata !4175, metadata !DIExpression()) #17, !dbg !4265
  call void @llvm.dbg.value(metadata %"struct.HashMap<NatExternKey, IPFlowID>::Elt"* %117, metadata !4175, metadata !DIExpression()) #17, !dbg !4265
  call void @llvm.dbg.value(metadata %"struct.HashMap<NatExternKey, IPFlowID>::Elt"* %117, metadata !4175, metadata !DIExpression()) #17, !dbg !4265
  call void @llvm.dbg.value(metadata %"struct.HashMap<NatExternKey, IPFlowID>::Elt"* %117, metadata !4175, metadata !DIExpression()) #17, !dbg !4265
  %124 = bitcast %class.HashMap_Arena* %112 to %"struct.HashMap<NatExternKey, IPFlowID>::Elt"**, !dbg !4270
  call void @llvm.dbg.value(metadata %"struct.HashMap<NatExternKey, IPFlowID>::Elt"* %117, metadata !4175, metadata !DIExpression()) #17, !dbg !4265
  call void @llvm.dbg.value(metadata %"struct.HashMap<NatExternKey, IPFlowID>::Elt"* %117, metadata !4175, metadata !DIExpression()) #17, !dbg !4265
  store %"struct.HashMap<NatExternKey, IPFlowID>::Elt"* %117, %"struct.HashMap<NatExternKey, IPFlowID>::Elt"** %124, align 8, !dbg !4277, !tbaa !4150
  br label %125, !dbg !4278

125:                                              ; preds = %123, %107, %104
  %126 = bitcast %"struct.HashMap<NatExternKey, IPFlowID>::Elt"** %98 to i8*, !dbg !4262
  br label %127, !dbg !4264

127:                                              ; preds = %125, %93
  %128 = phi i8* [ %95, %93 ], [ %126, %125 ], !dbg !4264
  %129 = icmp eq i8* %128, null, !dbg !4264
  br i1 %129, label %156, label %155, !dbg !4264

130:                                              ; preds = %183, %102
  %131 = phi i64 [ 0, %102 ], [ %184, %183 ]
  %132 = phi i64 [ %103, %102 ], [ %185, %183 ]
  call void @llvm.dbg.value(metadata i64 %131, metadata !4172, metadata !DIExpression()) #17, !dbg !4259
  %133 = getelementptr inbounds %"struct.HashMap<NatExternKey, IPFlowID>::Elt"*, %"struct.HashMap<NatExternKey, IPFlowID>::Elt"** %98, i64 %131, !dbg !4268
  %134 = load %"struct.HashMap<NatExternKey, IPFlowID>::Elt"*, %"struct.HashMap<NatExternKey, IPFlowID>::Elt"** %133, align 8, !dbg !4268, !tbaa !3948
  call void @llvm.dbg.value(metadata %"struct.HashMap<NatExternKey, IPFlowID>::Elt"* %134, metadata !4175, metadata !DIExpression()) #17, !dbg !4265
  %135 = icmp eq %"struct.HashMap<NatExternKey, IPFlowID>::Elt"* %134, null, !dbg !4269
  br i1 %135, label %142, label %136, !dbg !4267

136:                                              ; preds = %130
  %137 = load %class.HashMap_Arena*, %class.HashMap_Arena** %99, align 8, !dbg !4266, !tbaa !3918
  %138 = bitcast %class.HashMap_Arena* %137 to i64*, !dbg !4270
  %139 = load i64, i64* %138, align 8, !dbg !4272, !tbaa !4150
  br label %147, !dbg !4267

140:                                              ; preds = %147
  call void @llvm.dbg.value(metadata %"struct.HashMap<NatExternKey, IPFlowID>::Elt"* %149, metadata !4175, metadata !DIExpression()) #17, !dbg !4265
  call void @llvm.dbg.value(metadata %"struct.HashMap<NatExternKey, IPFlowID>::Elt"* %149, metadata !4175, metadata !DIExpression()) #17, !dbg !4265
  call void @llvm.dbg.value(metadata %"struct.HashMap<NatExternKey, IPFlowID>::Elt"* %149, metadata !4175, metadata !DIExpression()) #17, !dbg !4265
  call void @llvm.dbg.value(metadata %"struct.HashMap<NatExternKey, IPFlowID>::Elt"* %149, metadata !4175, metadata !DIExpression()) #17, !dbg !4265
  %141 = bitcast %class.HashMap_Arena* %137 to %"struct.HashMap<NatExternKey, IPFlowID>::Elt"**, !dbg !4270
  call void @llvm.dbg.value(metadata %"struct.HashMap<NatExternKey, IPFlowID>::Elt"* %149, metadata !4175, metadata !DIExpression()) #17, !dbg !4265
  call void @llvm.dbg.value(metadata %"struct.HashMap<NatExternKey, IPFlowID>::Elt"* %149, metadata !4175, metadata !DIExpression()) #17, !dbg !4265
  store %"struct.HashMap<NatExternKey, IPFlowID>::Elt"* %149, %"struct.HashMap<NatExternKey, IPFlowID>::Elt"** %141, align 8, !dbg !4277, !tbaa !4150
  br label %142, !dbg !4278

142:                                              ; preds = %140, %130
  %143 = or i64 %131, 1, !dbg !4278
  call void @llvm.dbg.value(metadata i64 %143, metadata !4172, metadata !DIExpression()) #17, !dbg !4259
  %144 = getelementptr inbounds %"struct.HashMap<NatExternKey, IPFlowID>::Elt"*, %"struct.HashMap<NatExternKey, IPFlowID>::Elt"** %98, i64 %143, !dbg !4268
  %145 = load %"struct.HashMap<NatExternKey, IPFlowID>::Elt"*, %"struct.HashMap<NatExternKey, IPFlowID>::Elt"** %144, align 8, !dbg !4268, !tbaa !3948
  call void @llvm.dbg.value(metadata %"struct.HashMap<NatExternKey, IPFlowID>::Elt"* %145, metadata !4175, metadata !DIExpression()) #17, !dbg !4265
  %146 = icmp eq %"struct.HashMap<NatExternKey, IPFlowID>::Elt"* %145, null, !dbg !4269
  br i1 %146, label %183, label %169, !dbg !4267

147:                                              ; preds = %147, %136
  %148 = phi i64 [ %139, %136 ], [ %154, %147 ], !dbg !4272
  %149 = phi %"struct.HashMap<NatExternKey, IPFlowID>::Elt"* [ %134, %136 ], [ %151, %147 ]
  call void @llvm.dbg.value(metadata %"struct.HashMap<NatExternKey, IPFlowID>::Elt"* %149, metadata !4175, metadata !DIExpression()) #17, !dbg !4265
  %150 = getelementptr inbounds %"struct.HashMap<NatExternKey, IPFlowID>::Elt", %"struct.HashMap<NatExternKey, IPFlowID>::Elt"* %149, i64 0, i32 1, !dbg !4273
  %151 = load %"struct.HashMap<NatExternKey, IPFlowID>::Elt"*, %"struct.HashMap<NatExternKey, IPFlowID>::Elt"** %150, align 8, !dbg !4273, !tbaa !4197
  call void @llvm.dbg.value(metadata %"struct.HashMap<NatExternKey, IPFlowID>::Elt"* %151, metadata !4178, metadata !DIExpression()) #17, !dbg !4266
  call void @llvm.dbg.value(metadata %class.HashMap_Arena* %137, metadata !4145, metadata !DIExpression()) #17, !dbg !4270
  call void @llvm.dbg.value(metadata %"struct.HashMap<NatExternKey, IPFlowID>::Elt"* %149, metadata !4146, metadata !DIExpression()) #17, !dbg !4270
  call void @llvm.dbg.value(metadata %"struct.HashMap<NatExternKey, IPFlowID>::Elt"* %149, metadata !4147, metadata !DIExpression()) #17, !dbg !4270
  %152 = bitcast %"struct.HashMap<NatExternKey, IPFlowID>::Elt"* %149 to i64*, !dbg !4274
  store i64 %148, i64* %152, align 8, !dbg !4274, !tbaa !4155
  call void @llvm.dbg.value(metadata %"struct.HashMap<NatExternKey, IPFlowID>::Elt"* %151, metadata !4175, metadata !DIExpression()) #17, !dbg !4265
  %153 = icmp eq %"struct.HashMap<NatExternKey, IPFlowID>::Elt"* %151, null, !dbg !4269
  %154 = ptrtoint %"struct.HashMap<NatExternKey, IPFlowID>::Elt"* %149 to i64, !dbg !4267
  br i1 %153, label %140, label %147, !dbg !4267, !llvm.loop !4275

155:                                              ; preds = %127
  tail call void @_ZdaPv(i8* nonnull %128) #18, !dbg !4264
  br label %156, !dbg !4264

156:                                              ; preds = %155, %127
  %157 = getelementptr inbounds %class.MyIPRewriterMod, %class.MyIPRewriterMod* %0, i64 0, i32 2, i32 5, !dbg !4279
  %158 = load %class.HashMap_Arena*, %class.HashMap_Arena** %157, align 8, !dbg !4279, !tbaa !3918
  call void @llvm.dbg.value(metadata %class.HashMap_Arena* %158, metadata !3971, metadata !DIExpression()) #17, !dbg !4280
  %159 = getelementptr inbounds %class.HashMap_Arena, %class.HashMap_Arena* %158, i64 0, i32 7, !dbg !4282
  %160 = load i32, i32* %159, align 8, !dbg !4283, !tbaa !3978
  %161 = add i32 %160, -1, !dbg !4283
  store i32 %161, i32* %159, align 8, !dbg !4283, !tbaa !3978
  %162 = icmp ne i32 %161, 0, !dbg !4284
  %163 = icmp eq %class.HashMap_Arena* %158, null, !dbg !4285
  %164 = or i1 %163, %162, !dbg !4286
  br i1 %164, label %167, label %165, !dbg !4286

165:                                              ; preds = %156
  tail call void @_ZN13HashMap_ArenaD1Ev(%class.HashMap_Arena* nonnull %158) #17, !dbg !4285
  %166 = bitcast %class.HashMap_Arena* %158 to i8*, !dbg !4285
  tail call void @_ZdlPv(i8* %166) #18, !dbg !4285
  br label %167, !dbg !4285

167:                                              ; preds = %156, %165
  %168 = bitcast %class.MyIPRewriterMod* %0 to %class.TCPRewriter*, !dbg !4222
  tail call void @_ZN11TCPRewriterD2Ev(%class.TCPRewriter* %168) #17, !dbg !4222
  ret void, !dbg !4287

169:                                              ; preds = %142
  %170 = load %class.HashMap_Arena*, %class.HashMap_Arena** %99, align 8, !dbg !4266, !tbaa !3918
  %171 = bitcast %class.HashMap_Arena* %170 to i64*, !dbg !4270
  %172 = load i64, i64* %171, align 8, !dbg !4272, !tbaa !4150
  br label %173, !dbg !4267

173:                                              ; preds = %173, %169
  %174 = phi i64 [ %172, %169 ], [ %180, %173 ], !dbg !4272
  %175 = phi %"struct.HashMap<NatExternKey, IPFlowID>::Elt"* [ %145, %169 ], [ %177, %173 ]
  call void @llvm.dbg.value(metadata %"struct.HashMap<NatExternKey, IPFlowID>::Elt"* %175, metadata !4175, metadata !DIExpression()) #17, !dbg !4265
  %176 = getelementptr inbounds %"struct.HashMap<NatExternKey, IPFlowID>::Elt", %"struct.HashMap<NatExternKey, IPFlowID>::Elt"* %175, i64 0, i32 1, !dbg !4273
  %177 = load %"struct.HashMap<NatExternKey, IPFlowID>::Elt"*, %"struct.HashMap<NatExternKey, IPFlowID>::Elt"** %176, align 8, !dbg !4273, !tbaa !4197
  call void @llvm.dbg.value(metadata %"struct.HashMap<NatExternKey, IPFlowID>::Elt"* %177, metadata !4178, metadata !DIExpression()) #17, !dbg !4266
  call void @llvm.dbg.value(metadata %class.HashMap_Arena* %170, metadata !4145, metadata !DIExpression()) #17, !dbg !4270
  call void @llvm.dbg.value(metadata %"struct.HashMap<NatExternKey, IPFlowID>::Elt"* %175, metadata !4146, metadata !DIExpression()) #17, !dbg !4270
  call void @llvm.dbg.value(metadata %"struct.HashMap<NatExternKey, IPFlowID>::Elt"* %175, metadata !4147, metadata !DIExpression()) #17, !dbg !4270
  %178 = bitcast %"struct.HashMap<NatExternKey, IPFlowID>::Elt"* %175 to i64*, !dbg !4274
  store i64 %174, i64* %178, align 8, !dbg !4274, !tbaa !4155
  call void @llvm.dbg.value(metadata %"struct.HashMap<NatExternKey, IPFlowID>::Elt"* %177, metadata !4175, metadata !DIExpression()) #17, !dbg !4265
  %179 = icmp eq %"struct.HashMap<NatExternKey, IPFlowID>::Elt"* %177, null, !dbg !4269
  %180 = ptrtoint %"struct.HashMap<NatExternKey, IPFlowID>::Elt"* %175 to i64, !dbg !4267
  br i1 %179, label %181, label %173, !dbg !4267, !llvm.loop !4275

181:                                              ; preds = %173
  call void @llvm.dbg.value(metadata %"struct.HashMap<NatExternKey, IPFlowID>::Elt"* %175, metadata !4175, metadata !DIExpression()) #17, !dbg !4265
  call void @llvm.dbg.value(metadata %"struct.HashMap<NatExternKey, IPFlowID>::Elt"* %175, metadata !4175, metadata !DIExpression()) #17, !dbg !4265
  call void @llvm.dbg.value(metadata %"struct.HashMap<NatExternKey, IPFlowID>::Elt"* %175, metadata !4175, metadata !DIExpression()) #17, !dbg !4265
  call void @llvm.dbg.value(metadata %"struct.HashMap<NatExternKey, IPFlowID>::Elt"* %175, metadata !4175, metadata !DIExpression()) #17, !dbg !4265
  %182 = bitcast %class.HashMap_Arena* %170 to %"struct.HashMap<NatExternKey, IPFlowID>::Elt"**, !dbg !4270
  call void @llvm.dbg.value(metadata %"struct.HashMap<NatExternKey, IPFlowID>::Elt"* %175, metadata !4175, metadata !DIExpression()) #17, !dbg !4265
  call void @llvm.dbg.value(metadata %"struct.HashMap<NatExternKey, IPFlowID>::Elt"* %175, metadata !4175, metadata !DIExpression()) #17, !dbg !4265
  store %"struct.HashMap<NatExternKey, IPFlowID>::Elt"* %175, %"struct.HashMap<NatExternKey, IPFlowID>::Elt"** %182, align 8, !dbg !4277, !tbaa !4150
  br label %183, !dbg !4278

183:                                              ; preds = %181, %142
  %184 = add nuw i64 %131, 2, !dbg !4278
  call void @llvm.dbg.value(metadata i64 %184, metadata !4172, metadata !DIExpression()) #17, !dbg !4259
  %185 = add i64 %132, -2, !dbg !4262
  %186 = icmp eq i64 %185, 0, !dbg !4262
  br i1 %186, label %104, label %130, !dbg !4262, !llvm.loop !4288

187:                                              ; preds = %63
  %188 = load %class.HashMap_Arena*, %class.HashMap_Arena** %20, align 8, !dbg !4236, !tbaa !4010
  %189 = bitcast %class.HashMap_Arena* %188 to i64*, !dbg !4240
  %190 = load i64, i64* %189, align 8, !dbg !4242, !tbaa !4150
  br label %191, !dbg !4237

191:                                              ; preds = %191, %187
  %192 = phi i64 [ %190, %187 ], [ %198, %191 ], !dbg !4242
  %193 = phi %"struct.HashMap<NatInternKey, IPFlowID>::Elt"* [ %66, %187 ], [ %195, %191 ]
  call void @llvm.dbg.value(metadata %"struct.HashMap<NatInternKey, IPFlowID>::Elt"* %193, metadata !4124, metadata !DIExpression()) #17, !dbg !4235
  %194 = getelementptr inbounds %"struct.HashMap<NatInternKey, IPFlowID>::Elt", %"struct.HashMap<NatInternKey, IPFlowID>::Elt"* %193, i64 0, i32 1, !dbg !4243
  %195 = load %"struct.HashMap<NatInternKey, IPFlowID>::Elt"*, %"struct.HashMap<NatInternKey, IPFlowID>::Elt"** %194, align 8, !dbg !4243, !tbaa !4152
  call void @llvm.dbg.value(metadata %"struct.HashMap<NatInternKey, IPFlowID>::Elt"* %195, metadata !4127, metadata !DIExpression()) #17, !dbg !4236
  call void @llvm.dbg.value(metadata %class.HashMap_Arena* %188, metadata !4145, metadata !DIExpression()) #17, !dbg !4240
  call void @llvm.dbg.value(metadata %"struct.HashMap<NatInternKey, IPFlowID>::Elt"* %193, metadata !4146, metadata !DIExpression()) #17, !dbg !4240
  call void @llvm.dbg.value(metadata %"struct.HashMap<NatInternKey, IPFlowID>::Elt"* %193, metadata !4147, metadata !DIExpression()) #17, !dbg !4240
  %196 = bitcast %"struct.HashMap<NatInternKey, IPFlowID>::Elt"* %193 to i64*, !dbg !4244
  store i64 %192, i64* %196, align 8, !dbg !4244, !tbaa !4155
  call void @llvm.dbg.value(metadata %"struct.HashMap<NatInternKey, IPFlowID>::Elt"* %195, metadata !4124, metadata !DIExpression()) #17, !dbg !4235
  %197 = icmp eq %"struct.HashMap<NatInternKey, IPFlowID>::Elt"* %195, null, !dbg !4239
  %198 = ptrtoint %"struct.HashMap<NatInternKey, IPFlowID>::Elt"* %193 to i64, !dbg !4237
  br i1 %197, label %199, label %191, !dbg !4237, !llvm.loop !4245

199:                                              ; preds = %191
  call void @llvm.dbg.value(metadata %"struct.HashMap<NatInternKey, IPFlowID>::Elt"* %193, metadata !4124, metadata !DIExpression()) #17, !dbg !4235
  call void @llvm.dbg.value(metadata %"struct.HashMap<NatInternKey, IPFlowID>::Elt"* %193, metadata !4124, metadata !DIExpression()) #17, !dbg !4235
  call void @llvm.dbg.value(metadata %"struct.HashMap<NatInternKey, IPFlowID>::Elt"* %193, metadata !4124, metadata !DIExpression()) #17, !dbg !4235
  call void @llvm.dbg.value(metadata %"struct.HashMap<NatInternKey, IPFlowID>::Elt"* %193, metadata !4124, metadata !DIExpression()) #17, !dbg !4235
  %200 = bitcast %class.HashMap_Arena* %188 to %"struct.HashMap<NatInternKey, IPFlowID>::Elt"**, !dbg !4240
  call void @llvm.dbg.value(metadata %"struct.HashMap<NatInternKey, IPFlowID>::Elt"* %193, metadata !4124, metadata !DIExpression()) #17, !dbg !4235
  call void @llvm.dbg.value(metadata %"struct.HashMap<NatInternKey, IPFlowID>::Elt"* %193, metadata !4124, metadata !DIExpression()) #17, !dbg !4235
  store %"struct.HashMap<NatInternKey, IPFlowID>::Elt"* %193, %"struct.HashMap<NatInternKey, IPFlowID>::Elt"** %200, align 8, !dbg !4247, !tbaa !4150
  br label %201, !dbg !4248

201:                                              ; preds = %199, %63
  %202 = add nuw i64 %52, 2, !dbg !4248
  call void @llvm.dbg.value(metadata i64 %202, metadata !4121, metadata !DIExpression()) #17, !dbg !4229
  %203 = add i64 %53, -2, !dbg !4232
  %204 = icmp eq i64 %203, 0, !dbg !4232
  br i1 %204, label %25, label %51, !dbg !4232, !llvm.loop !4290
}

; Function Attrs: nounwind
declare void @_ZN13HashAllocatorD2Ev(%class.HashAllocator*) unnamed_addr #3

; Function Attrs: nounwind sspstrong uwtable
define dso_local void @_ZN15MyIPRewriterModD0Ev(%class.MyIPRewriterMod* %0) unnamed_addr #4 align 2 !dbg !4292 {
  call void @llvm.dbg.value(metadata %class.MyIPRewriterMod* %0, metadata !4294, metadata !DIExpression()), !dbg !4295
  tail call void @_ZN15MyIPRewriterModD2Ev(%class.MyIPRewriterMod* %0) #17, !dbg !4296
  %2 = bitcast %class.MyIPRewriterMod* %0 to i8*, !dbg !4296
  tail call void @_ZdlPv(i8* %2) #18, !dbg !4296
  ret void, !dbg !4297
}

; Function Attrs: nobuiltin nounwind
declare void @_ZdlPv(i8*) local_unnamed_addr #5

; Function Attrs: nounwind readonly sspstrong uwtable
define dso_local i8* @_ZN15MyIPRewriterMod4castEPKc(%class.MyIPRewriterMod* readnone %0, i8* nocapture readonly %1) unnamed_addr #6 align 2 !dbg !4298 {
  call void @llvm.dbg.value(metadata %class.MyIPRewriterMod* %0, metadata !4300, metadata !DIExpression()), !dbg !4302
  call void @llvm.dbg.value(metadata i8* %1, metadata !4301, metadata !DIExpression()), !dbg !4302
  %3 = tail call i32 @strcmp(i8* nonnull dereferenceable(1) %1, i8* nonnull dereferenceable(15) getelementptr inbounds ([15 x i8], [15 x i8]* @.str, i64 0, i64 0)) #19, !dbg !4303
  %4 = icmp eq i32 %3, 0, !dbg !4305
  br i1 %4, label %13, label %5, !dbg !4306

5:                                                ; preds = %2
  %6 = tail call i32 @strcmp(i8* nonnull dereferenceable(1) %1, i8* nonnull dereferenceable(12) getelementptr inbounds ([12 x i8], [12 x i8]* @.str.1, i64 0, i64 0)) #19, !dbg !4307
  %7 = icmp eq i32 %6, 0, !dbg !4309
  br i1 %7, label %13, label %8, !dbg !4310

8:                                                ; preds = %5
  %9 = tail call i32 @strcmp(i8* nonnull dereferenceable(1) %1, i8* nonnull dereferenceable(16) getelementptr inbounds ([16 x i8], [16 x i8]* @.str.2, i64 0, i64 0)) #19, !dbg !4311
  %10 = icmp eq i32 %9, 0, !dbg !4313
  %11 = bitcast %class.MyIPRewriterMod* %0 to i8*, !dbg !4314
  %12 = select i1 %10, i8* %11, i8* null, !dbg !4315
  ret i8* %12, !dbg !4315

13:                                               ; preds = %5, %2
  %14 = bitcast %class.MyIPRewriterMod* %0 to i8*, !dbg !4316
  ret i8* %14, !dbg !4317
}

; Function Attrs: nofree nounwind readonly
declare i32 @strcmp(i8* nocapture, i8* nocapture) local_unnamed_addr #7

; Function Attrs: sspstrong uwtable
define dso_local i32 @_ZN15MyIPRewriterMod9configureER6VectorI6StringEP12ErrorHandler(%class.MyIPRewriterMod* %0, %class.Vector.0* dereferenceable(16) %1, %class.ErrorHandler* %2) unnamed_addr #0 align 2 personality i8* bitcast (i32 (...)* @__gxx_personality_v0 to i8*) !dbg !4318 {
  %4 = alloca %class.Args, align 8
  call void @llvm.dbg.value(metadata %class.MyIPRewriterMod* %0, metadata !4320, metadata !DIExpression()), !dbg !4325
  call void @llvm.dbg.value(metadata %class.Vector.0* %1, metadata !4321, metadata !DIExpression()), !dbg !4325
  call void @llvm.dbg.value(metadata %class.ErrorHandler* %2, metadata !4322, metadata !DIExpression()), !dbg !4325
  call void @llvm.dbg.value(metadata i8 0, metadata !4323, metadata !DIExpression()), !dbg !4325
  %5 = getelementptr inbounds %class.MyIPRewriterMod, %class.MyIPRewriterMod* %0, i64 0, i32 6, i64 0, !dbg !4326
  store i32 300, i32* %5, align 8, !dbg !4327, !tbaa !4095
  %6 = getelementptr inbounds %class.MyIPRewriterMod, %class.MyIPRewriterMod* %0, i64 0, i32 6, i64 1, !dbg !4328
  store i32 5, i32* %6, align 4, !dbg !4329, !tbaa !4095
  %7 = bitcast %class.Args* %4 to i8*, !dbg !4330
  call void @llvm.lifetime.start.p0i8(i64 112, i8* nonnull %7) #17, !dbg !4330
  %8 = bitcast %class.MyIPRewriterMod* %0 to %class.Element*, !dbg !4332
  call void @_ZN4ArgsC1EPK7ElementP12ErrorHandler(%class.Args* nonnull %4, %class.Element* %8, %class.ErrorHandler* %2), !dbg !4330
  %9 = invoke dereferenceable(112) %class.Args* @_ZN4Args4bindER6VectorI6StringE(%class.Args* nonnull %4, %class.Vector.0* nonnull dereferenceable(16) %1)
          to label %10 unwind label %20, !dbg !4333

10:                                               ; preds = %3
  call void @llvm.dbg.value(metadata i64 0, metadata !4334, metadata !DIExpression()), !dbg !4343
  call void @llvm.dbg.value(metadata %class.Args* %9, metadata !4340, metadata !DIExpression()), !dbg !4343
  call void @llvm.dbg.value(metadata i8* getelementptr inbounds ([12 x i8], [12 x i8]* @.str.3, i64 0, i64 0), metadata !4341, metadata !DIExpression()), !dbg !4343
  call void @llvm.dbg.value(metadata i32* %5, metadata !4342, metadata !DIExpression()), !dbg !4343
  call void @llvm.dbg.value(metadata i64 0, metadata !4345, metadata !DIExpression()), !dbg !4355
  call void @llvm.dbg.value(metadata %class.Args* %9, metadata !4351, metadata !DIExpression()), !dbg !4355
  call void @llvm.dbg.value(metadata i8* getelementptr inbounds ([12 x i8], [12 x i8]* @.str.3, i64 0, i64 0), metadata !4352, metadata !DIExpression()), !dbg !4355
  call void @llvm.dbg.value(metadata i32 0, metadata !4353, metadata !DIExpression()), !dbg !4355
  call void @llvm.dbg.value(metadata i32* %5, metadata !4354, metadata !DIExpression()), !dbg !4355
  invoke void @_Z14args_base_readI10SecondsArgjEvP4ArgsPKciT_RT0_(%class.Args* nonnull %9, i8* getelementptr inbounds ([12 x i8], [12 x i8]* @.str.3, i64 0, i64 0), i32 0, i64 0, i32* nonnull dereferenceable(4) %5)
          to label %11 unwind label %20, !dbg !4357

11:                                               ; preds = %10
  %12 = getelementptr inbounds %class.MyIPRewriterMod, %class.MyIPRewriterMod* %0, i64 0, i32 7, !dbg !4358
  call void @llvm.dbg.value(metadata i64 0, metadata !4334, metadata !DIExpression()), !dbg !4359
  call void @llvm.dbg.value(metadata %class.Args* %9, metadata !4340, metadata !DIExpression()), !dbg !4359
  call void @llvm.dbg.value(metadata i8* getelementptr inbounds ([22 x i8], [22 x i8]* @.str.4, i64 0, i64 0), metadata !4341, metadata !DIExpression()), !dbg !4359
  call void @llvm.dbg.value(metadata i32* %12, metadata !4342, metadata !DIExpression()), !dbg !4359
  call void @llvm.dbg.value(metadata i64 0, metadata !4345, metadata !DIExpression()), !dbg !4361
  call void @llvm.dbg.value(metadata %class.Args* %9, metadata !4351, metadata !DIExpression()), !dbg !4361
  call void @llvm.dbg.value(metadata i8* getelementptr inbounds ([22 x i8], [22 x i8]* @.str.4, i64 0, i64 0), metadata !4352, metadata !DIExpression()), !dbg !4361
  call void @llvm.dbg.value(metadata i32 0, metadata !4353, metadata !DIExpression()), !dbg !4361
  call void @llvm.dbg.value(metadata i32* %12, metadata !4354, metadata !DIExpression()), !dbg !4361
  invoke void @_Z14args_base_readI10SecondsArgjEvP4ArgsPKciT_RT0_(%class.Args* nonnull %9, i8* getelementptr inbounds ([22 x i8], [22 x i8]* @.str.4, i64 0, i64 0), i32 0, i64 0, i32* nonnull dereferenceable(4) %12)
          to label %13 unwind label %20, !dbg !4363

13:                                               ; preds = %11
  call void @llvm.dbg.value(metadata %class.Args* %9, metadata !4364, metadata !DIExpression()), !dbg !4368
  %14 = getelementptr inbounds %class.Args, %class.Args* %9, i64 0, i32 0, i32 3, !dbg !4370
  %15 = load i8, i8* %14, align 8, !dbg !4370, !tbaa !4371, !range !4373
  call void @llvm.dbg.value(metadata i64 0, metadata !4334, metadata !DIExpression()), !dbg !4374
  call void @llvm.dbg.value(metadata %class.Args* %9, metadata !4340, metadata !DIExpression()), !dbg !4374
  call void @llvm.dbg.value(metadata i8* getelementptr inbounds ([14 x i8], [14 x i8]* @.str.5, i64 0, i64 0), metadata !4341, metadata !DIExpression()), !dbg !4374
  call void @llvm.dbg.value(metadata i32* %6, metadata !4342, metadata !DIExpression()), !dbg !4374
  call void @llvm.dbg.value(metadata i64 0, metadata !4345, metadata !DIExpression()), !dbg !4376
  call void @llvm.dbg.value(metadata %class.Args* %9, metadata !4351, metadata !DIExpression()), !dbg !4376
  call void @llvm.dbg.value(metadata i8* getelementptr inbounds ([14 x i8], [14 x i8]* @.str.5, i64 0, i64 0), metadata !4352, metadata !DIExpression()), !dbg !4376
  call void @llvm.dbg.value(metadata i32 0, metadata !4353, metadata !DIExpression()), !dbg !4376
  call void @llvm.dbg.value(metadata i32* %6, metadata !4354, metadata !DIExpression()), !dbg !4376
  invoke void @_Z14args_base_readI10SecondsArgjEvP4ArgsPKciT_RT0_(%class.Args* nonnull %9, i8* getelementptr inbounds ([14 x i8], [14 x i8]* @.str.5, i64 0, i64 0), i32 0, i64 0, i32* nonnull dereferenceable(4) %6)
          to label %16 unwind label %20, !dbg !4378

16:                                               ; preds = %13
  %17 = invoke i32 @_ZN4Args7consumeEv(%class.Args* nonnull %9)
          to label %18 unwind label %20, !dbg !4379

18:                                               ; preds = %16
  %19 = icmp slt i32 %17, 0, !dbg !4380
  call void @_ZN4ArgsD1Ev(%class.Args* nonnull %4) #17, !dbg !4330
  call void @llvm.lifetime.end.p0i8(i64 112, i8* nonnull %7) #17, !dbg !4330
  br i1 %19, label %36, label %22, !dbg !4381

20:                                               ; preds = %11, %10, %13, %16, %3
  %21 = landingpad { i8*, i32 }
          cleanup, !dbg !4382
  call void @_ZN4ArgsD1Ev(%class.Args* nonnull %4) #17, !dbg !4330
  call void @llvm.lifetime.end.p0i8(i64 112, i8* nonnull %7) #17, !dbg !4330
  resume { i8*, i32 } %21, !dbg !4383

22:                                               ; preds = %18
  call void @llvm.dbg.value(metadata i8 %15, metadata !4323, metadata !DIExpression()), !dbg !4325
  %23 = icmp eq i8 %15, 0, !dbg !4384
  %24 = load i32, i32* %5, align 8, !dbg !4325, !tbaa !4095
  br i1 %23, label %27, label %25, !dbg !4386

25:                                               ; preds = %22
  %26 = load i32, i32* %12, align 8, !dbg !4387, !tbaa !4388
  br label %28, !dbg !4386

27:                                               ; preds = %22
  store i32 %24, i32* %12, align 8, !dbg !4391, !tbaa !4388
  br label %28, !dbg !4392

28:                                               ; preds = %25, %27
  %29 = phi i32 [ %26, %25 ], [ %24, %27 ], !dbg !4387
  %30 = mul i32 %24, 1000, !dbg !4393
  store i32 %30, i32* %5, align 8, !dbg !4393, !tbaa !4095
  %31 = load i32, i32* %6, align 4, !dbg !4394, !tbaa !4095
  %32 = mul i32 %31, 1000, !dbg !4394
  store i32 %32, i32* %6, align 4, !dbg !4394, !tbaa !4095
  %33 = mul i32 %29, 1000, !dbg !4387
  store i32 %33, i32* %12, align 8, !dbg !4387, !tbaa !4388
  %34 = bitcast %class.MyIPRewriterMod* %0 to %class.TCPRewriter*, !dbg !4395
  %35 = call i32 @_ZN11TCPRewriter9configureER6VectorI6StringEP12ErrorHandler(%class.TCPRewriter* %34, %class.Vector.0* nonnull dereferenceable(16) %1, %class.ErrorHandler* %2), !dbg !4395
  call void @llvm.dbg.value(metadata i32 %35, metadata !4324, metadata !DIExpression()), !dbg !4325
  br label %36

36:                                               ; preds = %18, %28
  %37 = phi i32 [ %35, %28 ], [ -1, %18 ], !dbg !4325
  ret i32 %37, !dbg !4383
}

; Function Attrs: argmemonly nounwind willreturn
declare void @llvm.lifetime.start.p0i8(i64 immarg, i8* nocapture) #8

declare void @_ZN4ArgsC1EPK7ElementP12ErrorHandler(%class.Args*, %class.Element*, %class.ErrorHandler*) unnamed_addr #2

declare dereferenceable(112) %class.Args* @_ZN4Args4bindER6VectorI6StringE(%class.Args*, %class.Vector.0* dereferenceable(16)) local_unnamed_addr #2

declare i32 @_ZN4Args7consumeEv(%class.Args*) local_unnamed_addr #2

; Function Attrs: nounwind
declare void @_ZN4ArgsD1Ev(%class.Args*) unnamed_addr #3

; Function Attrs: argmemonly nounwind willreturn
declare void @llvm.lifetime.end.p0i8(i64 immarg, i8* nocapture) #8

declare i32 @_ZN11TCPRewriter9configureER6VectorI6StringEP12ErrorHandler(%class.TCPRewriter*, %class.Vector.0* dereferenceable(16), %class.ErrorHandler*) unnamed_addr #2

; Function Attrs: norecurse nounwind readnone sspstrong uwtable
define dso_local noalias %class.IPRewriterEntry* @_ZN15MyIPRewriterMod8add_flowEiRK8IPFlowIDS2_i(%class.MyIPRewriterMod* nocapture readnone %0, i32 %1, %class.IPFlowID* nocapture readnone dereferenceable(12) %2, %class.IPFlowID* nocapture readnone dereferenceable(12) %3, i32 %4) unnamed_addr #9 align 2 !dbg !4396 {
  call void @llvm.dbg.value(metadata %class.MyIPRewriterMod* undef, metadata !4398, metadata !DIExpression()), !dbg !4403
  call void @llvm.dbg.value(metadata i32 undef, metadata !4399, metadata !DIExpression()), !dbg !4403
  call void @llvm.dbg.value(metadata %class.IPFlowID* undef, metadata !4400, metadata !DIExpression()), !dbg !4403
  call void @llvm.dbg.value(metadata %class.IPFlowID* undef, metadata !4401, metadata !DIExpression()), !dbg !4403
  call void @llvm.dbg.value(metadata i32 undef, metadata !4402, metadata !DIExpression()), !dbg !4403
  ret %class.IPRewriterEntry* null, !dbg !4404
}

; Function Attrs: sspstrong uwtable
define dso_local void @_ZN15MyIPRewriterMod14tcp_flow_applyERK17MyIPRewriterEntryP14WritablePacket(%class.MyIPRewriterMod* nocapture readnone %0, %class.MyIPRewriterEntry* nocapture readonly dereferenceable(28) %1, %class.WritablePacket* %2) local_unnamed_addr #0 align 2 !dbg !4405 {
  call void @llvm.dbg.value(metadata %class.MyIPRewriterMod* %0, metadata !4407, metadata !DIExpression()), !dbg !4412
  call void @llvm.dbg.value(metadata %class.MyIPRewriterEntry* %1, metadata !4408, metadata !DIExpression()), !dbg !4412
  call void @llvm.dbg.value(metadata %class.WritablePacket* %2, metadata !4409, metadata !DIExpression()), !dbg !4412
  %4 = getelementptr %class.WritablePacket, %class.WritablePacket* %2, i64 0, i32 0, !dbg !4413
  %5 = tail call zeroext i1 @_ZNK6Packet18has_network_headerEv(%class.Packet* %4), !dbg !4413
  br i1 %5, label %7, label %6, !dbg !4413

6:                                                ; preds = %3
  tail call void @__assert_fail(i8* getelementptr inbounds ([24 x i8], [24 x i8]* @.str.6, i64 0, i64 0), i8* getelementptr inbounds ([36 x i8], [36 x i8]* @.str.7, i64 0, i64 0), i32 112, i8* getelementptr inbounds ([82 x i8], [82 x i8]* @__PRETTY_FUNCTION__._ZN15MyIPRewriterMod14tcp_flow_applyERK17MyIPRewriterEntryP14WritablePacket, i64 0, i64 0)) #20, !dbg !4413
  unreachable, !dbg !4413

7:                                                ; preds = %3
  %8 = tail call %struct.click_ip* @_ZNK14WritablePacket9ip_headerEv(%class.WritablePacket* %2), !dbg !4414
  call void @llvm.dbg.value(metadata %struct.click_ip* %8, metadata !4410, metadata !DIExpression()), !dbg !4412
  call void @llvm.dbg.value(metadata %class.MyIPRewriterEntry* %1, metadata !4415, metadata !DIExpression(DW_OP_plus_uconst, 12, DW_OP_stack_value)), !dbg !4419
  %9 = getelementptr inbounds %class.MyIPRewriterEntry, %class.MyIPRewriterEntry* %1, i64 0, i32 1, i32 0, i32 0, !dbg !4421
  %10 = load i32, i32* %9, align 4, !dbg !4421, !tbaa.struct !4422
  %11 = getelementptr inbounds %struct.click_ip, %struct.click_ip* %8, i64 0, i32 8, i32 0, !dbg !4423
  store i32 %10, i32* %11, align 4, !dbg !4423, !tbaa.struct !4422
  call void @llvm.dbg.value(metadata %class.MyIPRewriterEntry* %1, metadata !4424, metadata !DIExpression(DW_OP_plus_uconst, 12, DW_OP_stack_value)), !dbg !4427
  %12 = getelementptr inbounds %class.MyIPRewriterEntry, %class.MyIPRewriterEntry* %1, i64 0, i32 1, i32 1, i32 0, !dbg !4429
  %13 = load i32, i32* %12, align 4, !dbg !4429, !tbaa.struct !4422
  %14 = getelementptr inbounds %struct.click_ip, %struct.click_ip* %8, i64 0, i32 9, i32 0, !dbg !4430
  store i32 %13, i32* %14, align 4, !dbg !4430, !tbaa.struct !4422
  %15 = getelementptr inbounds %struct.click_ip, %struct.click_ip* %8, i64 0, i32 4, !dbg !4431
  %16 = load i16, i16* %15, align 2, !dbg !4431, !tbaa !4433
  %17 = and i16 %16, -225, !dbg !4431
  %18 = icmp eq i16 %17, 0, !dbg !4431
  br i1 %18, label %19, label %32, !dbg !4436

19:                                               ; preds = %7
  %20 = tail call i32 @_ZNK6Packet16transport_lengthEv(%class.Packet* %4), !dbg !4437
  %21 = icmp slt i32 %20, 18, !dbg !4438
  br i1 %21, label %32, label %22, !dbg !4439

22:                                               ; preds = %19
  call void @llvm.dbg.value(metadata %class.WritablePacket* %2, metadata !4440, metadata !DIExpression()), !dbg !4444
  call void @llvm.dbg.value(metadata %class.Packet* %4, metadata !4446, metadata !DIExpression()), !dbg !4449
  %23 = tail call i8* @_ZNK6Packet16transport_headerEv(%class.Packet* %4), !dbg !4451
  call void @llvm.dbg.value(metadata i8* %23, metadata !4411, metadata !DIExpression()), !dbg !4412
  call void @llvm.dbg.value(metadata %class.MyIPRewriterEntry* %1, metadata !4452, metadata !DIExpression(DW_OP_plus_uconst, 12, DW_OP_stack_value)), !dbg !4455
  %24 = getelementptr inbounds %class.MyIPRewriterEntry, %class.MyIPRewriterEntry* %1, i64 0, i32 1, i32 2, !dbg !4457
  %25 = load i16, i16* %24, align 4, !dbg !4457, !tbaa !4458
  %26 = bitcast i8* %23 to i16*, !dbg !4459
  store i16 %25, i16* %26, align 4, !dbg !4460, !tbaa !4461
  call void @llvm.dbg.value(metadata %class.MyIPRewriterEntry* %1, metadata !4463, metadata !DIExpression(DW_OP_plus_uconst, 12, DW_OP_stack_value)), !dbg !4466
  %27 = getelementptr inbounds %class.MyIPRewriterEntry, %class.MyIPRewriterEntry* %1, i64 0, i32 1, i32 3, !dbg !4468
  %28 = load i16, i16* %27, align 2, !dbg !4468, !tbaa !4469
  %29 = getelementptr inbounds i8, i8* %23, i64 2, !dbg !4470
  %30 = bitcast i8* %29 to i16*, !dbg !4470
  store i16 %28, i16* %30, align 2, !dbg !4471, !tbaa !4472
  %31 = tail call i32 @_ZNK6Packet16transport_lengthEv(%class.Packet* %4), !dbg !4473
  br label %32

32:                                               ; preds = %7, %19, %22
  ret void, !dbg !4475
}

declare zeroext i1 @_ZNK6Packet18has_network_headerEv(%class.Packet*) local_unnamed_addr #2

; Function Attrs: noreturn nounwind
declare void @__assert_fail(i8*, i8*, i32, i8*) local_unnamed_addr #10

declare %struct.click_ip* @_ZNK14WritablePacket9ip_headerEv(%class.WritablePacket*) local_unnamed_addr #2

; Function Attrs: argmemonly nounwind willreturn
declare void @llvm.memcpy.p0i8.p0i8.i64(i8* noalias nocapture writeonly, i8* noalias nocapture readonly, i64, i1 immarg) #8

declare i32 @_ZNK6Packet16transport_lengthEv(%class.Packet*) local_unnamed_addr #2

; Function Attrs: sspstrong uwtable
define dso_local void @_ZN15MyIPRewriterMod14udp_flow_applyERK17MyIPRewriterEntryP14WritablePacket(%class.MyIPRewriterMod* nocapture readnone %0, %class.MyIPRewriterEntry* nocapture readonly dereferenceable(28) %1, %class.WritablePacket* %2) local_unnamed_addr #0 align 2 !dbg !4476 {
  call void @llvm.dbg.value(metadata %class.MyIPRewriterMod* %0, metadata !4478, metadata !DIExpression()), !dbg !4483
  call void @llvm.dbg.value(metadata %class.MyIPRewriterEntry* %1, metadata !4479, metadata !DIExpression()), !dbg !4483
  call void @llvm.dbg.value(metadata %class.WritablePacket* %2, metadata !4480, metadata !DIExpression()), !dbg !4483
  %4 = getelementptr %class.WritablePacket, %class.WritablePacket* %2, i64 0, i32 0, !dbg !4484
  %5 = tail call zeroext i1 @_ZNK6Packet18has_network_headerEv(%class.Packet* %4), !dbg !4484
  br i1 %5, label %7, label %6, !dbg !4484

6:                                                ; preds = %3
  tail call void @__assert_fail(i8* getelementptr inbounds ([24 x i8], [24 x i8]* @.str.6, i64 0, i64 0), i8* getelementptr inbounds ([36 x i8], [36 x i8]* @.str.7, i64 0, i64 0), i32 133, i8* getelementptr inbounds ([82 x i8], [82 x i8]* @__PRETTY_FUNCTION__._ZN15MyIPRewriterMod14udp_flow_applyERK17MyIPRewriterEntryP14WritablePacket, i64 0, i64 0)) #20, !dbg !4484
  unreachable, !dbg !4484

7:                                                ; preds = %3
  %8 = tail call %struct.click_ip* @_ZNK14WritablePacket9ip_headerEv(%class.WritablePacket* %2), !dbg !4485
  call void @llvm.dbg.value(metadata %struct.click_ip* %8, metadata !4481, metadata !DIExpression()), !dbg !4483
  call void @llvm.dbg.value(metadata %class.MyIPRewriterEntry* %1, metadata !4415, metadata !DIExpression(DW_OP_plus_uconst, 12, DW_OP_stack_value)), !dbg !4486
  %9 = getelementptr inbounds %class.MyIPRewriterEntry, %class.MyIPRewriterEntry* %1, i64 0, i32 1, i32 0, i32 0, !dbg !4488
  %10 = load i32, i32* %9, align 4, !dbg !4488, !tbaa.struct !4422
  %11 = getelementptr inbounds %struct.click_ip, %struct.click_ip* %8, i64 0, i32 8, i32 0, !dbg !4489
  store i32 %10, i32* %11, align 4, !dbg !4489, !tbaa.struct !4422
  call void @llvm.dbg.value(metadata %class.MyIPRewriterEntry* %1, metadata !4424, metadata !DIExpression(DW_OP_plus_uconst, 12, DW_OP_stack_value)), !dbg !4490
  %12 = getelementptr inbounds %class.MyIPRewriterEntry, %class.MyIPRewriterEntry* %1, i64 0, i32 1, i32 1, i32 0, !dbg !4492
  %13 = load i32, i32* %12, align 4, !dbg !4492, !tbaa.struct !4422
  %14 = getelementptr inbounds %struct.click_ip, %struct.click_ip* %8, i64 0, i32 9, i32 0, !dbg !4493
  store i32 %13, i32* %14, align 4, !dbg !4493, !tbaa.struct !4422
  %15 = getelementptr inbounds %struct.click_ip, %struct.click_ip* %8, i64 0, i32 4, !dbg !4494
  %16 = load i16, i16* %15, align 2, !dbg !4494, !tbaa !4433
  %17 = and i16 %16, -225, !dbg !4494
  %18 = icmp eq i16 %17, 0, !dbg !4494
  br i1 %18, label %19, label %28, !dbg !4496

19:                                               ; preds = %7
  call void @llvm.dbg.value(metadata %class.WritablePacket* %2, metadata !4497, metadata !DIExpression()), !dbg !4500
  call void @llvm.dbg.value(metadata %class.Packet* %4, metadata !4502, metadata !DIExpression()), !dbg !4505
  %20 = tail call i8* @_ZNK6Packet16transport_headerEv(%class.Packet* %4), !dbg !4507
  call void @llvm.dbg.value(metadata i8* %20, metadata !4482, metadata !DIExpression()), !dbg !4483
  call void @llvm.dbg.value(metadata %class.MyIPRewriterEntry* %1, metadata !4452, metadata !DIExpression(DW_OP_plus_uconst, 12, DW_OP_stack_value)), !dbg !4508
  %21 = getelementptr inbounds %class.MyIPRewriterEntry, %class.MyIPRewriterEntry* %1, i64 0, i32 1, i32 2, !dbg !4510
  %22 = load i16, i16* %21, align 4, !dbg !4510, !tbaa !4458
  %23 = bitcast i8* %20 to i16*, !dbg !4511
  store i16 %22, i16* %23, align 2, !dbg !4512, !tbaa !4513
  call void @llvm.dbg.value(metadata %class.MyIPRewriterEntry* %1, metadata !4463, metadata !DIExpression(DW_OP_plus_uconst, 12, DW_OP_stack_value)), !dbg !4515
  %24 = getelementptr inbounds %class.MyIPRewriterEntry, %class.MyIPRewriterEntry* %1, i64 0, i32 1, i32 3, !dbg !4517
  %25 = load i16, i16* %24, align 2, !dbg !4517, !tbaa !4469
  %26 = getelementptr inbounds i8, i8* %20, i64 2, !dbg !4518
  %27 = bitcast i8* %26 to i16*, !dbg !4518
  store i16 %25, i16* %27, align 2, !dbg !4519, !tbaa !4520
  br label %28, !dbg !4521

28:                                               ; preds = %7, %19
  ret void, !dbg !4521
}

; Function Attrs: sspstrong uwtable
define dso_local void @_ZN15MyIPRewriterMod4pushEiP6Packet(%class.MyIPRewriterMod* %0, i32 %1, %class.Packet* %2) unnamed_addr #0 align 2 !dbg !4522 {
  %4 = alloca %class.IPFlowID, align 4
  %5 = alloca %struct.NatInternKey, align 4
  %6 = alloca %struct.NatExternKey, align 2
  %7 = alloca %struct.NatExternKey, align 2
  call void @llvm.dbg.value(metadata %class.MyIPRewriterMod* %0, metadata !4524, metadata !DIExpression()), !dbg !4550
  call void @llvm.dbg.value(metadata i32 %1, metadata !4525, metadata !DIExpression()), !dbg !4550
  call void @llvm.dbg.value(metadata %class.Packet* %2, metadata !4526, metadata !DIExpression()), !dbg !4550
  %8 = tail call %class.WritablePacket* @_ZN6Packet9uniqueifyEv(%class.Packet* %2), !dbg !4551
  call void @llvm.dbg.value(metadata %class.WritablePacket* %8, metadata !4527, metadata !DIExpression()), !dbg !4550
  %9 = tail call %struct.click_ip* @_ZNK14WritablePacket9ip_headerEv(%class.WritablePacket* %8), !dbg !4552
  call void @llvm.dbg.value(metadata %struct.click_ip* %9, metadata !4528, metadata !DIExpression()), !dbg !4550
  %10 = tail call i8* @_ZNK14WritablePacket16transport_headerEv(%class.WritablePacket* %8), !dbg !4553
  %11 = bitcast i8* %10 to i16*, !dbg !4554
  call void @llvm.dbg.value(metadata i16* %11, metadata !4529, metadata !DIExpression()), !dbg !4550
  %12 = load i16, i16* %11, align 2, !dbg !4555, !tbaa !4556
  %13 = tail call i16 @llvm.bswap.i16(i16 %12) #17
  call void @llvm.dbg.value(metadata i16 %13, metadata !4530, metadata !DIExpression()), !dbg !4550
  %14 = getelementptr inbounds i8, i8* %10, i64 2, !dbg !4557
  %15 = bitcast i8* %14 to i16*, !dbg !4557
  %16 = load i16, i16* %15, align 2, !dbg !4557, !tbaa !4556
  %17 = tail call i16 @llvm.bswap.i16(i16 %16) #17
  call void @llvm.dbg.value(metadata i16 %17, metadata !4531, metadata !DIExpression()), !dbg !4550
  %18 = getelementptr inbounds %struct.click_ip, %struct.click_ip* %9, i64 0, i32 6, !dbg !4558
  %19 = load i8, i8* %18, align 1, !dbg !4558, !tbaa !4559
  call void @llvm.dbg.value(metadata i8 %19, metadata !4532, metadata !DIExpression()), !dbg !4550
  %20 = getelementptr inbounds %struct.click_ip, %struct.click_ip* %9, i64 0, i32 8, i32 0, !dbg !4560
  %21 = load i32, i32* %20, align 4, !dbg !4560, !tbaa !4561
  call void @llvm.dbg.value(metadata i32 %21, metadata !4562, metadata !DIExpression()) #17, !dbg !4568
  %22 = tail call i32 @llvm.bswap.i32(i32 %21) #17, !dbg !4570
  call void @llvm.dbg.value(metadata i32 %22, metadata !4533, metadata !DIExpression()), !dbg !4550
  %23 = getelementptr inbounds %struct.click_ip, %struct.click_ip* %9, i64 0, i32 9, i32 0, !dbg !4571
  %24 = load i32, i32* %23, align 4, !dbg !4571, !tbaa !4572
  call void @llvm.dbg.value(metadata i32 %24, metadata !4562, metadata !DIExpression()) #17, !dbg !4573
  %25 = tail call i32 @llvm.bswap.i32(i32 %24) #17, !dbg !4575
  call void @llvm.dbg.value(metadata i32 %25, metadata !4534, metadata !DIExpression()), !dbg !4550
  %26 = bitcast %class.IPFlowID* %4 to i8*, !dbg !4576
  call void @llvm.lifetime.start.p0i8(i64 12, i8* nonnull %26) #17, !dbg !4576
  call void @llvm.dbg.declare(metadata %class.IPFlowID* %4, metadata !4535, metadata !DIExpression()), !dbg !4577
  call void @llvm.dbg.value(metadata %class.IPFlowID* %4, metadata !3902, metadata !DIExpression()), !dbg !4578
  call void @llvm.dbg.value(metadata %class.IPFlowID* %4, metadata !3907, metadata !DIExpression()), !dbg !4580
  call void @llvm.dbg.value(metadata %class.IPFlowID* %4, metadata !3907, metadata !DIExpression(DW_OP_plus_uconst, 4, DW_OP_stack_value)), !dbg !4582
  call void @llvm.memset.p0i8.i64(i8* nonnull align 4 dereferenceable(12) %26, i8 0, i64 12, i1 false), !dbg !4584
  %27 = bitcast %struct.NatInternKey* %5 to i8*, !dbg !4585
  call void @llvm.lifetime.start.p0i8(i64 7, i8* nonnull %27) #17, !dbg !4585
  call void @llvm.dbg.declare(metadata %struct.NatInternKey* %5, metadata !4536, metadata !DIExpression()), !dbg !4586
  %28 = getelementptr inbounds %struct.NatInternKey, %struct.NatInternKey* %5, i64 0, i32 0, i32 0, !dbg !4587
  store i32 %22, i32* %28, align 4, !dbg !4587, !tbaa.struct !4422
  %29 = getelementptr inbounds %struct.NatInternKey, %struct.NatInternKey* %5, i64 0, i32 1, !dbg !4588
  store i16 %13, i16* %29, align 4, !dbg !4589, !tbaa !4590
  %30 = getelementptr inbounds %struct.NatInternKey, %struct.NatInternKey* %5, i64 0, i32 2, !dbg !4592
  store i8 %19, i8* %30, align 2, !dbg !4593, !tbaa !4594
  %31 = bitcast %struct.NatExternKey* %6 to i8*, !dbg !4595
  call void @llvm.lifetime.start.p0i8(i64 3, i8* nonnull %31) #17, !dbg !4595
  call void @llvm.dbg.declare(metadata %struct.NatExternKey* %6, metadata !4537, metadata !DIExpression()), !dbg !4596
  %32 = getelementptr inbounds %struct.NatExternKey, %struct.NatExternKey* %6, i64 0, i32 0, !dbg !4597
  store i16 %17, i16* %32, align 2, !dbg !4598, !tbaa !4599
  %33 = getelementptr inbounds %struct.NatExternKey, %struct.NatExternKey* %6, i64 0, i32 1, !dbg !4601
  store i8 %19, i8* %33, align 2, !dbg !4602, !tbaa !4603
  call void @llvm.dbg.value(metadata i8 0, metadata !4538, metadata !DIExpression()), !dbg !4550
  call void @llvm.dbg.value(metadata i8 0, metadata !4539, metadata !DIExpression()), !dbg !4550
  %34 = getelementptr inbounds %class.MyIPRewriterMod, %class.MyIPRewriterMod* %0, i64 0, i32 1, !dbg !4604
  %35 = load i32, i32* %34, align 4, !dbg !4604, !tbaa !4606
  %36 = icmp eq i32 %25, %35, !dbg !4607
  call void @llvm.dbg.value(metadata i1 %36, metadata !4538, metadata !DIExpression()), !dbg !4550
  %37 = xor i1 %36, true, !dbg !4608
  %38 = icmp eq i32 %1, 0, !dbg !4609
  %39 = and i1 %38, %37, !dbg !4608
  br i1 %39, label %40, label %71, !dbg !4608

40:                                               ; preds = %3
  %41 = getelementptr inbounds %class.MyIPRewriterMod, %class.MyIPRewriterMod* %0, i64 0, i32 3, !dbg !4610
  %42 = call %class.IPFlowID* @_ZNK7HashMapI12NatInternKey8IPFlowIDE5findpERKS0_(%class.HashMap.24* nonnull %41, %struct.NatInternKey* nonnull dereferenceable(7) %5), !dbg !4611
  call void @llvm.dbg.value(metadata %class.IPFlowID* %42, metadata !4540, metadata !DIExpression()), !dbg !4612
  %43 = icmp eq %class.IPFlowID* %42, null, !dbg !4613
  br i1 %43, label %44, label %61, !dbg !4614

44:                                               ; preds = %40
  call void @llvm.dbg.value(metadata i16 -16657, metadata !4543, metadata !DIExpression()), !dbg !4615
  %45 = bitcast %struct.NatExternKey* %7 to i8*, !dbg !4616
  call void @llvm.lifetime.start.p0i8(i64 3, i8* nonnull %45) #17, !dbg !4616
  call void @llvm.dbg.declare(metadata %struct.NatExternKey* %7, metadata !4546, metadata !DIExpression()), !dbg !4617
  %46 = getelementptr inbounds %struct.NatExternKey, %struct.NatExternKey* %7, i64 0, i32 0, !dbg !4618
  store i16 -16657, i16* %46, align 2, !dbg !4619, !tbaa !4599
  %47 = getelementptr inbounds %struct.NatExternKey, %struct.NatExternKey* %7, i64 0, i32 1, !dbg !4620
  store i8 %19, i8* %47, align 2, !dbg !4621, !tbaa !4603
  %48 = load i32, i32* %34, align 4, !dbg !4622, !tbaa !4606
  call void @llvm.dbg.value(metadata i32 %48, metadata !4623, metadata !DIExpression()), !dbg !4627
  call void @llvm.dbg.value(metadata %class.IPFlowID* %4, metadata !4626, metadata !DIExpression()), !dbg !4627
  %49 = getelementptr inbounds %class.IPFlowID, %class.IPFlowID* %4, i64 0, i32 0, i32 0, !dbg !4629
  store i32 %48, i32* %49, align 4, !dbg !4629, !tbaa.struct !4422
  call void @llvm.dbg.value(metadata %class.IPFlowID* %4, metadata !4630, metadata !DIExpression()), !dbg !4634
  call void @llvm.dbg.value(metadata i16 -16657, metadata !4633, metadata !DIExpression()), !dbg !4634
  %50 = getelementptr inbounds %class.IPFlowID, %class.IPFlowID* %4, i64 0, i32 2, !dbg !4636
  store i16 -16657, i16* %50, align 4, !dbg !4637, !tbaa !4458
  call void @llvm.dbg.value(metadata i32 %22, metadata !4638, metadata !DIExpression()), !dbg !4642
  call void @llvm.dbg.value(metadata %class.IPFlowID* %4, metadata !4641, metadata !DIExpression()), !dbg !4642
  %51 = getelementptr inbounds %class.IPFlowID, %class.IPFlowID* %4, i64 0, i32 1, i32 0, !dbg !4644
  store i32 %22, i32* %51, align 4, !dbg !4644, !tbaa.struct !4422
  call void @llvm.dbg.value(metadata %class.IPFlowID* %4, metadata !4645, metadata !DIExpression()), !dbg !4649
  call void @llvm.dbg.value(metadata i16 %13, metadata !4648, metadata !DIExpression()), !dbg !4649
  %52 = getelementptr inbounds %class.IPFlowID, %class.IPFlowID* %4, i64 0, i32 3, !dbg !4651
  store i16 %13, i16* %52, align 2, !dbg !4652, !tbaa !4469
  %53 = getelementptr inbounds %class.MyIPRewriterMod, %class.MyIPRewriterMod* %0, i64 0, i32 2, !dbg !4653
  %54 = call %class.IPFlowID* @_ZNK7HashMapI12NatExternKey8IPFlowIDE5findpERKS0_(%class.HashMap* nonnull %53, %struct.NatExternKey* nonnull dereferenceable(3) %7), !dbg !4655
  %55 = icmp eq %class.IPFlowID* %54, null, !dbg !4656
  br i1 %55, label %56, label %59, !dbg !4657

56:                                               ; preds = %44
  %57 = call zeroext i1 @_ZN7HashMapI12NatInternKey8IPFlowIDE6insertERKS0_RKS1_(%class.HashMap.24* nonnull %41, %struct.NatInternKey* nonnull dereferenceable(7) %5, %class.IPFlowID* nonnull dereferenceable(12) %4), !dbg !4658
  %58 = call zeroext i1 @_ZN7HashMapI12NatExternKey8IPFlowIDE6insertERKS0_RKS1_(%class.HashMap* nonnull %53, %struct.NatExternKey* nonnull dereferenceable(3) %7, %class.IPFlowID* nonnull dereferenceable(12) %4), !dbg !4660
  call void @llvm.dbg.value(metadata %class.IPFlowID* %4, metadata !4540, metadata !DIExpression()), !dbg !4612
  call void @llvm.dbg.value(metadata i8 1, metadata !4539, metadata !DIExpression()), !dbg !4550
  call void @llvm.dbg.value(metadata %class.IPFlowID* null, metadata !4540, metadata !DIExpression()), !dbg !4612
  call void @llvm.lifetime.end.p0i8(i64 3, i8* nonnull %45) #17, !dbg !4661
  call void @llvm.dbg.value(metadata i8 1, metadata !4539, metadata !DIExpression()), !dbg !4550
  call void @llvm.dbg.value(metadata %class.IPFlowID* null, metadata !4540, metadata !DIExpression()), !dbg !4612
  br label %61, !dbg !4662

59:                                               ; preds = %44
  call void @llvm.dbg.value(metadata i8 1, metadata !4539, metadata !DIExpression()), !dbg !4550
  call void @llvm.dbg.value(metadata %class.IPFlowID* null, metadata !4540, metadata !DIExpression()), !dbg !4612
  call void @llvm.lifetime.end.p0i8(i64 3, i8* nonnull %45) #17, !dbg !4661
  call void @llvm.dbg.value(metadata i8 undef, metadata !4538, metadata !DIExpression()), !dbg !4550
  call void @llvm.dbg.value(metadata i8 0, metadata !4539, metadata !DIExpression()), !dbg !4550
  %60 = getelementptr %class.WritablePacket, %class.WritablePacket* %8, i64 0, i32 0, !dbg !4664
  call void @_ZN6Packet4killEv(%class.Packet* %60), !dbg !4664
  br label %86, !dbg !4667

61:                                               ; preds = %40, %56
  %62 = phi %class.IPFlowID* [ %4, %56 ], [ %42, %40 ]
  call void @llvm.dbg.value(metadata %class.IPFlowID* null, metadata !4415, metadata !DIExpression()), !dbg !4668
  %63 = getelementptr inbounds %class.IPFlowID, %class.IPFlowID* %62, i64 0, i32 0, i32 0, !dbg !4671
  %64 = load i32, i32* %63, align 4, !dbg !4671, !tbaa.struct !4422
  call void @llvm.dbg.value(metadata i32 %64, metadata !4562, metadata !DIExpression()) #17, !dbg !4672
  %65 = call i32 @llvm.bswap.i32(i32 %64) #17, !dbg !4674
  store i32 %65, i32* %20, align 4, !dbg !4675, !tbaa !4561
  call void @llvm.dbg.value(metadata %class.IPFlowID* null, metadata !4452, metadata !DIExpression()), !dbg !4676
  %66 = getelementptr inbounds %class.IPFlowID, %class.IPFlowID* %62, i64 0, i32 2, !dbg !4678
  %67 = load i16, i16* %66, align 4, !dbg !4678, !tbaa !4458
  %68 = call i16 @llvm.bswap.i16(i16 %67) #17
  store i16 %68, i16* %11, align 2, !dbg !4679, !tbaa !4556
  %69 = bitcast %class.MyIPRewriterMod* %0 to %class.Element*, !dbg !4680
  %70 = getelementptr %class.WritablePacket, %class.WritablePacket* %8, i64 0, i32 0, !dbg !4681
  call void @_ZNK7Element19checked_output_pushEiP6Packet(%class.Element* %69, i32 0, %class.Packet* %70), !dbg !4680
  call void @llvm.dbg.value(metadata i8 undef, metadata !4538, metadata !DIExpression()), !dbg !4550
  call void @llvm.dbg.value(metadata i8 0, metadata !4539, metadata !DIExpression()), !dbg !4550
  br i1 %36, label %71, label %86, !dbg !4682

71:                                               ; preds = %3, %61
  %72 = getelementptr inbounds %class.MyIPRewriterMod, %class.MyIPRewriterMod* %0, i64 0, i32 2, !dbg !4683
  %73 = call %class.IPFlowID* @_ZNK7HashMapI12NatExternKey8IPFlowIDE5findpERKS0_(%class.HashMap* nonnull %72, %struct.NatExternKey* nonnull dereferenceable(3) %6), !dbg !4684
  call void @llvm.dbg.value(metadata %class.IPFlowID* %73, metadata !4547, metadata !DIExpression()), !dbg !4685
  %74 = icmp eq %class.IPFlowID* %73, null, !dbg !4686
  br i1 %74, label %84, label %75, !dbg !4688

75:                                               ; preds = %71
  call void @llvm.dbg.value(metadata %class.IPFlowID* %73, metadata !4424, metadata !DIExpression()), !dbg !4689
  %76 = getelementptr inbounds %class.IPFlowID, %class.IPFlowID* %73, i64 0, i32 1, i32 0, !dbg !4692
  %77 = load i32, i32* %76, align 4, !dbg !4692, !tbaa.struct !4422
  call void @llvm.dbg.value(metadata i32 %77, metadata !4562, metadata !DIExpression()) #17, !dbg !4693
  %78 = call i32 @llvm.bswap.i32(i32 %77) #17, !dbg !4695
  store i32 %78, i32* %23, align 4, !dbg !4696, !tbaa !4572
  call void @llvm.dbg.value(metadata %class.IPFlowID* %73, metadata !4463, metadata !DIExpression()), !dbg !4697
  %79 = getelementptr inbounds %class.IPFlowID, %class.IPFlowID* %73, i64 0, i32 3, !dbg !4699
  %80 = load i16, i16* %79, align 2, !dbg !4699, !tbaa !4469
  %81 = call i16 @llvm.bswap.i16(i16 %80) #17
  store i16 %81, i16* %15, align 2, !dbg !4700, !tbaa !4556
  %82 = bitcast %class.MyIPRewriterMod* %0 to %class.Element*, !dbg !4701
  %83 = getelementptr %class.WritablePacket, %class.WritablePacket* %8, i64 0, i32 0, !dbg !4702
  call void @_ZNK7Element19checked_output_pushEiP6Packet(%class.Element* %82, i32 1, %class.Packet* %83), !dbg !4701
  br label %86, !dbg !4703

84:                                               ; preds = %71
  %85 = getelementptr %class.WritablePacket, %class.WritablePacket* %8, i64 0, i32 0, !dbg !4704
  call void @_ZN6Packet4killEv(%class.Packet* %85), !dbg !4704
  br label %86, !dbg !4703

86:                                               ; preds = %61, %84, %75, %59
  call void @llvm.lifetime.end.p0i8(i64 3, i8* nonnull %31) #17, !dbg !4706
  call void @llvm.lifetime.end.p0i8(i64 7, i8* nonnull %27) #17, !dbg !4706
  call void @llvm.lifetime.end.p0i8(i64 12, i8* nonnull %26) #17, !dbg !4706
  ret void, !dbg !4706
}

declare %class.WritablePacket* @_ZN6Packet9uniqueifyEv(%class.Packet*) local_unnamed_addr #2

declare i8* @_ZNK14WritablePacket16transport_headerEv(%class.WritablePacket*) local_unnamed_addr #2

; Function Attrs: noinline optnone sspstrong uwtable
define linkonce_odr dso_local %class.IPFlowID* @_ZNK7HashMapI12NatInternKey8IPFlowIDE5findpERKS0_(%class.HashMap.24* %0, %struct.NatInternKey* dereferenceable(7) %1) local_unnamed_addr #11 comdat align 2 !dbg !4707 {
  %3 = alloca %class.HashMap.24*, align 8
  %4 = alloca %struct.NatInternKey*, align 8
  %5 = alloca %"struct.HashMap<NatInternKey, IPFlowID>::Pair"*, align 8
  store %class.HashMap.24* %0, %class.HashMap.24** %3, align 8, !tbaa !3948
  call void @llvm.dbg.declare(metadata %class.HashMap.24** %3, metadata !4709, metadata !DIExpression()), !dbg !4713
  store %struct.NatInternKey* %1, %struct.NatInternKey** %4, align 8, !tbaa !3948
  call void @llvm.dbg.declare(metadata %struct.NatInternKey** %4, metadata !4711, metadata !DIExpression()), !dbg !4714
  %6 = load %class.HashMap.24*, %class.HashMap.24** %3, align 8
  %7 = bitcast %"struct.HashMap<NatInternKey, IPFlowID>::Pair"** %5 to i8*, !dbg !4715
  call void @llvm.lifetime.start.p0i8(i64 8, i8* %7) #17, !dbg !4715
  call void @llvm.dbg.declare(metadata %"struct.HashMap<NatInternKey, IPFlowID>::Pair"** %5, metadata !4712, metadata !DIExpression()), !dbg !4716
  %8 = load %struct.NatInternKey*, %struct.NatInternKey** %4, align 8, !dbg !4717, !tbaa !3948
  %9 = call %"struct.HashMap<NatInternKey, IPFlowID>::Pair"* @_ZNK7HashMapI12NatInternKey8IPFlowIDE9find_pairERKS0_(%class.HashMap.24* %6, %struct.NatInternKey* dereferenceable(7) %8), !dbg !4718
  store %"struct.HashMap<NatInternKey, IPFlowID>::Pair"* %9, %"struct.HashMap<NatInternKey, IPFlowID>::Pair"** %5, align 8, !dbg !4716, !tbaa !3948
  %10 = load %"struct.HashMap<NatInternKey, IPFlowID>::Pair"*, %"struct.HashMap<NatInternKey, IPFlowID>::Pair"** %5, align 8, !dbg !4719, !tbaa !3948
  %11 = icmp ne %"struct.HashMap<NatInternKey, IPFlowID>::Pair"* %10, null, !dbg !4719
  br i1 %11, label %12, label %15, !dbg !4719

12:                                               ; preds = %2
  %13 = load %"struct.HashMap<NatInternKey, IPFlowID>::Pair"*, %"struct.HashMap<NatInternKey, IPFlowID>::Pair"** %5, align 8, !dbg !4720, !tbaa !3948
  %14 = getelementptr inbounds %"struct.HashMap<NatInternKey, IPFlowID>::Pair", %"struct.HashMap<NatInternKey, IPFlowID>::Pair"* %13, i32 0, i32 1, !dbg !4721
  br label %16, !dbg !4719

15:                                               ; preds = %2
  br label %16, !dbg !4719

16:                                               ; preds = %15, %12
  %17 = phi %class.IPFlowID* [ %14, %12 ], [ null, %15 ], !dbg !4719
  %18 = bitcast %"struct.HashMap<NatInternKey, IPFlowID>::Pair"** %5 to i8*, !dbg !4722
  call void @llvm.lifetime.end.p0i8(i64 8, i8* %18) #17, !dbg !4722
  ret %class.IPFlowID* %17, !dbg !4723
}

; Function Attrs: noinline optnone sspstrong uwtable
define linkonce_odr dso_local %class.IPFlowID* @_ZNK7HashMapI12NatExternKey8IPFlowIDE5findpERKS0_(%class.HashMap* %0, %struct.NatExternKey* dereferenceable(3) %1) local_unnamed_addr #11 comdat align 2 !dbg !4724 {
  %3 = alloca %class.HashMap*, align 8
  %4 = alloca %struct.NatExternKey*, align 8
  %5 = alloca %"struct.HashMap<NatExternKey, IPFlowID>::Pair"*, align 8
  store %class.HashMap* %0, %class.HashMap** %3, align 8, !tbaa !3948
  call void @llvm.dbg.declare(metadata %class.HashMap** %3, metadata !4726, metadata !DIExpression()), !dbg !4730
  store %struct.NatExternKey* %1, %struct.NatExternKey** %4, align 8, !tbaa !3948
  call void @llvm.dbg.declare(metadata %struct.NatExternKey** %4, metadata !4728, metadata !DIExpression()), !dbg !4731
  %6 = load %class.HashMap*, %class.HashMap** %3, align 8
  %7 = bitcast %"struct.HashMap<NatExternKey, IPFlowID>::Pair"** %5 to i8*, !dbg !4732
  call void @llvm.lifetime.start.p0i8(i64 8, i8* %7) #17, !dbg !4732
  call void @llvm.dbg.declare(metadata %"struct.HashMap<NatExternKey, IPFlowID>::Pair"** %5, metadata !4729, metadata !DIExpression()), !dbg !4733
  %8 = load %struct.NatExternKey*, %struct.NatExternKey** %4, align 8, !dbg !4734, !tbaa !3948
  %9 = call %"struct.HashMap<NatExternKey, IPFlowID>::Pair"* @_ZNK7HashMapI12NatExternKey8IPFlowIDE9find_pairERKS0_(%class.HashMap* %6, %struct.NatExternKey* dereferenceable(3) %8), !dbg !4735
  store %"struct.HashMap<NatExternKey, IPFlowID>::Pair"* %9, %"struct.HashMap<NatExternKey, IPFlowID>::Pair"** %5, align 8, !dbg !4733, !tbaa !3948
  %10 = load %"struct.HashMap<NatExternKey, IPFlowID>::Pair"*, %"struct.HashMap<NatExternKey, IPFlowID>::Pair"** %5, align 8, !dbg !4736, !tbaa !3948
  %11 = icmp ne %"struct.HashMap<NatExternKey, IPFlowID>::Pair"* %10, null, !dbg !4736
  br i1 %11, label %12, label %15, !dbg !4736

12:                                               ; preds = %2
  %13 = load %"struct.HashMap<NatExternKey, IPFlowID>::Pair"*, %"struct.HashMap<NatExternKey, IPFlowID>::Pair"** %5, align 8, !dbg !4737, !tbaa !3948
  %14 = getelementptr inbounds %"struct.HashMap<NatExternKey, IPFlowID>::Pair", %"struct.HashMap<NatExternKey, IPFlowID>::Pair"* %13, i32 0, i32 1, !dbg !4738
  br label %16, !dbg !4736

15:                                               ; preds = %2
  br label %16, !dbg !4736

16:                                               ; preds = %15, %12
  %17 = phi %class.IPFlowID* [ %14, %12 ], [ null, %15 ], !dbg !4736
  %18 = bitcast %"struct.HashMap<NatExternKey, IPFlowID>::Pair"** %5 to i8*, !dbg !4739
  call void @llvm.lifetime.end.p0i8(i64 8, i8* %18) #17, !dbg !4739
  ret %class.IPFlowID* %17, !dbg !4740
}

; Function Attrs: sspstrong uwtable
define linkonce_odr dso_local zeroext i1 @_ZN7HashMapI12NatInternKey8IPFlowIDE6insertERKS0_RKS1_(%class.HashMap.24* %0, %struct.NatInternKey* dereferenceable(7) %1, %class.IPFlowID* dereferenceable(12) %2) local_unnamed_addr #0 comdat align 2 !dbg !4741 {
  call void @llvm.dbg.value(metadata %class.HashMap.24* %0, metadata !4743, metadata !DIExpression()), !dbg !4751
  call void @llvm.dbg.value(metadata %struct.NatInternKey* %1, metadata !4744, metadata !DIExpression()), !dbg !4751
  call void @llvm.dbg.value(metadata %class.IPFlowID* %2, metadata !4745, metadata !DIExpression()), !dbg !4751
  call void @llvm.dbg.value(metadata %class.HashMap.24* %0, metadata !4752, metadata !DIExpression()), !dbg !4756
  call void @llvm.dbg.value(metadata %struct.NatInternKey* %1, metadata !4755, metadata !DIExpression()), !dbg !4756
  call void @llvm.dbg.value(metadata %struct.NatInternKey* %1, metadata !4758, metadata !DIExpression()), !dbg !4765
  call void @llvm.dbg.value(metadata %struct.NatInternKey* %1, metadata !4767, metadata !DIExpression()), !dbg !4771
  %4 = getelementptr inbounds %struct.NatInternKey, %struct.NatInternKey* %1, i64 0, i32 0, i32 0, !dbg !4773
  call void @llvm.dbg.value(metadata i32* %4, metadata !4774, metadata !DIExpression()), !dbg !4782
  %5 = load i32, i32* %4, align 4, !dbg !4784, !tbaa !4095
  %6 = zext i32 %5 to i64, !dbg !4784
  %7 = getelementptr inbounds %struct.NatInternKey, %struct.NatInternKey* %1, i64 0, i32 1, !dbg !4785
  call void @llvm.dbg.value(metadata i16* %7, metadata !4786, metadata !DIExpression()), !dbg !4795
  %8 = load i16, i16* %7, align 2, !dbg !4797, !tbaa !4556
  %9 = zext i16 %8 to i64, !dbg !4797
  %10 = xor i64 %9, %6, !dbg !4798
  %11 = getelementptr inbounds %struct.NatInternKey, %struct.NatInternKey* %1, i64 0, i32 2, !dbg !4799
  call void @llvm.dbg.value(metadata i8* %11, metadata !4800, metadata !DIExpression()), !dbg !4808
  %12 = load i8, i8* %11, align 1, !dbg !4810, !tbaa !4096
  %13 = zext i8 %12 to i64, !dbg !4810
  %14 = xor i64 %10, %13, !dbg !4811
  %15 = getelementptr inbounds %class.HashMap.24, %class.HashMap.24* %0, i64 0, i32 1, !dbg !4812
  %16 = load i64, i64* %15, align 8, !dbg !4812, !tbaa !4024
  %17 = urem i64 %14, %16, !dbg !4813
  call void @llvm.dbg.value(metadata i64 %17, metadata !4746, metadata !DIExpression()), !dbg !4751
  %18 = getelementptr inbounds %class.HashMap.24, %class.HashMap.24* %0, i64 0, i32 0, !dbg !4814
  %19 = load %"struct.HashMap<NatInternKey, IPFlowID>::Elt"**, %"struct.HashMap<NatInternKey, IPFlowID>::Elt"*** %18, align 8, !dbg !4814, !tbaa !4028
  %20 = getelementptr inbounds %"struct.HashMap<NatInternKey, IPFlowID>::Elt"*, %"struct.HashMap<NatInternKey, IPFlowID>::Elt"** %19, i64 %17, !dbg !4814
  call void @llvm.dbg.value(metadata %"struct.HashMap<NatInternKey, IPFlowID>::Elt"* undef, metadata !4747, metadata !DIExpression()), !dbg !4815
  %21 = load %"struct.HashMap<NatInternKey, IPFlowID>::Elt"*, %"struct.HashMap<NatInternKey, IPFlowID>::Elt"** %20, align 8, !dbg !4815, !tbaa !3948
  call void @llvm.dbg.value(metadata %"struct.HashMap<NatInternKey, IPFlowID>::Elt"* %21, metadata !4747, metadata !DIExpression()), !dbg !4815
  %22 = icmp eq %"struct.HashMap<NatInternKey, IPFlowID>::Elt"* %21, null, !dbg !4816
  br i1 %22, label %44, label %23, !dbg !4818

23:                                               ; preds = %3, %40
  %24 = phi %"struct.HashMap<NatInternKey, IPFlowID>::Elt"* [ %42, %40 ], [ %21, %3 ]
  call void @llvm.dbg.value(metadata %"struct.HashMap<NatInternKey, IPFlowID>::Elt"* %24, metadata !4819, metadata !DIExpression()), !dbg !4823
  call void @llvm.dbg.value(metadata %struct.NatInternKey* %1, metadata !4822, metadata !DIExpression()), !dbg !4823
  %25 = getelementptr inbounds %"struct.HashMap<NatInternKey, IPFlowID>::Elt", %"struct.HashMap<NatInternKey, IPFlowID>::Elt"* %24, i64 0, i32 0, i32 0, i32 0, i32 0, !dbg !4826
  %26 = load i32, i32* %25, align 1, !dbg !4826, !tbaa.struct !4422
  call void @llvm.dbg.value(metadata i32 %26, metadata !4827, metadata !DIExpression()), !dbg !4833
  call void @llvm.dbg.value(metadata i32 %5, metadata !4832, metadata !DIExpression()), !dbg !4833
  %27 = icmp eq i32 %26, %5, !dbg !4835
  br i1 %27, label %28, label %40, !dbg !4836

28:                                               ; preds = %23
  %29 = getelementptr inbounds %"struct.HashMap<NatInternKey, IPFlowID>::Elt", %"struct.HashMap<NatInternKey, IPFlowID>::Elt"* %24, i64 0, i32 0, i32 0, i32 1, !dbg !4837
  %30 = load i16, i16* %29, align 1, !dbg !4837, !tbaa !4590
  %31 = icmp eq i16 %30, %8, !dbg !4838
  br i1 %31, label %32, label %40, !dbg !4839

32:                                               ; preds = %28
  %33 = getelementptr inbounds %"struct.HashMap<NatInternKey, IPFlowID>::Elt", %"struct.HashMap<NatInternKey, IPFlowID>::Elt"* %24, i64 0, i32 0, i32 0, i32 2, !dbg !4840
  %34 = load i8, i8* %33, align 1, !dbg !4840, !tbaa !4594
  %35 = icmp eq i8 %34, %12, !dbg !4841
  br i1 %35, label %36, label %40, !dbg !4842

36:                                               ; preds = %32
  call void @llvm.dbg.value(metadata %"struct.HashMap<NatInternKey, IPFlowID>::Elt"* %24, metadata !4819, metadata !DIExpression()), !dbg !4823
  call void @llvm.dbg.value(metadata %"struct.HashMap<NatInternKey, IPFlowID>::Elt"* %24, metadata !4819, metadata !DIExpression()), !dbg !4823
  call void @llvm.dbg.value(metadata %"struct.HashMap<NatInternKey, IPFlowID>::Elt"* %24, metadata !4819, metadata !DIExpression()), !dbg !4823
  call void @llvm.dbg.value(metadata %"struct.HashMap<NatInternKey, IPFlowID>::Elt"* %24, metadata !4819, metadata !DIExpression()), !dbg !4823
  call void @llvm.dbg.value(metadata %"struct.HashMap<NatInternKey, IPFlowID>::Elt"* %24, metadata !4819, metadata !DIExpression()), !dbg !4823
  %37 = getelementptr inbounds %"struct.HashMap<NatInternKey, IPFlowID>::Elt", %"struct.HashMap<NatInternKey, IPFlowID>::Elt"* %24, i64 0, i32 0, i32 1, !dbg !4843
  %38 = bitcast %class.IPFlowID* %37 to i8*, !dbg !4845
  %39 = bitcast %class.IPFlowID* %2 to i8*, !dbg !4845
  tail call void @llvm.memcpy.p0i8.p0i8.i64(i8* nonnull align 8 dereferenceable(12) %38, i8* nonnull align 4 dereferenceable(12) %39, i64 12, i1 false), !dbg !4845, !tbaa.struct !4846
  br label %166

40:                                               ; preds = %23, %28, %32
  %41 = getelementptr inbounds %"struct.HashMap<NatInternKey, IPFlowID>::Elt", %"struct.HashMap<NatInternKey, IPFlowID>::Elt"* %24, i64 0, i32 1, !dbg !4847
  call void @llvm.dbg.value(metadata %"struct.HashMap<NatInternKey, IPFlowID>::Elt"* undef, metadata !4747, metadata !DIExpression()), !dbg !4815
  %42 = load %"struct.HashMap<NatInternKey, IPFlowID>::Elt"*, %"struct.HashMap<NatInternKey, IPFlowID>::Elt"** %41, align 8, !dbg !4815, !tbaa !3948
  call void @llvm.dbg.value(metadata %"struct.HashMap<NatInternKey, IPFlowID>::Elt"* %42, metadata !4747, metadata !DIExpression()), !dbg !4815
  %43 = icmp eq %"struct.HashMap<NatInternKey, IPFlowID>::Elt"* %42, null, !dbg !4816
  br i1 %43, label %44, label %23, !dbg !4818, !llvm.loop !4848

44:                                               ; preds = %40, %3
  %45 = getelementptr inbounds %class.HashMap.24, %class.HashMap.24* %0, i64 0, i32 3, !dbg !4850
  %46 = load i64, i64* %45, align 8, !dbg !4850, !tbaa !4852
  %47 = getelementptr inbounds %class.HashMap.24, %class.HashMap.24* %0, i64 0, i32 4, !dbg !4853
  %48 = load i64, i64* %47, align 8, !dbg !4853, !tbaa !4854
  %49 = icmp ult i64 %46, %48, !dbg !4855
  br i1 %49, label %124, label %50, !dbg !4856

50:                                               ; preds = %44
  %51 = add i64 %16, 1, !dbg !4857
  call void @llvm.dbg.value(metadata %class.HashMap.24* %0, metadata !4859, metadata !DIExpression()), !dbg !4864
  call void @llvm.dbg.value(metadata i64 %51, metadata !4862, metadata !DIExpression()), !dbg !4864
  call void @llvm.dbg.value(metadata i64 1, metadata !4863, metadata !DIExpression()), !dbg !4864
  %52 = icmp ugt i64 %51, 1, !dbg !4866
  br i1 %52, label %53, label %65, !dbg !4867

53:                                               ; preds = %50, %53
  %54 = phi i64 [ %56, %53 ], [ 1, %50 ]
  call void @llvm.dbg.value(metadata i64 %54, metadata !4863, metadata !DIExpression()), !dbg !4864
  %55 = shl nuw nsw i64 %54, 1, !dbg !4868
  %56 = or i64 %55, 1, !dbg !4869
  call void @llvm.dbg.value(metadata i64 %56, metadata !4863, metadata !DIExpression()), !dbg !4864
  %57 = icmp ult i64 %56, %51, !dbg !4866
  %58 = icmp ult i64 %56, 4194303, !dbg !4870
  %59 = and i1 %57, %58, !dbg !4870
  br i1 %59, label %53, label %60, !dbg !4867, !llvm.loop !4871

60:                                               ; preds = %53
  call void @llvm.dbg.value(metadata i64 %56, metadata !4863, metadata !DIExpression()), !dbg !4864
  %61 = icmp ult i64 %56, 4194304, !dbg !4873
  br i1 %61, label %63, label %62, !dbg !4873

62:                                               ; preds = %60
  tail call void @__assert_fail(i8* getelementptr inbounds ([49 x i8], [49 x i8]* @.str.24, i64 0, i64 0), i8* getelementptr inbounds ([30 x i8], [30 x i8]* @.str.21, i64 0, i64 0), i32 211, i8* getelementptr inbounds ([86 x i8], [86 x i8]* @__PRETTY_FUNCTION__._ZN7HashMapI12NatInternKey8IPFlowIDE6resizeEm, i64 0, i64 0)) #20, !dbg !4873
  unreachable, !dbg !4873

63:                                               ; preds = %60
  %64 = icmp eq i64 %16, %56, !dbg !4874
  br i1 %64, label %117, label %65, !dbg !4876

65:                                               ; preds = %50, %63
  %66 = phi i64 [ %56, %63 ], [ 1, %50 ]
  call void @llvm.dbg.value(metadata %class.HashMap.24* %0, metadata !4877, metadata !DIExpression()), !dbg !4895
  call void @llvm.dbg.value(metadata i64 %56, metadata !4880, metadata !DIExpression()), !dbg !4895
  %67 = shl nuw nsw i64 %66, 3, !dbg !4897
  %68 = tail call i8* @_Znam(i64 %67) #16, !dbg !4897
  %69 = bitcast i8* %68 to %"struct.HashMap<NatInternKey, IPFlowID>::Elt"**, !dbg !4898
  call void @llvm.dbg.value(metadata %"struct.HashMap<NatInternKey, IPFlowID>::Elt"** %69, metadata !4881, metadata !DIExpression()), !dbg !4895
  call void @llvm.dbg.value(metadata i64 0, metadata !4882, metadata !DIExpression()), !dbg !4899
  tail call void @llvm.memset.p0i8.i64(i8* nonnull align 8 %68, i8 0, i64 %67, i1 false), !dbg !4900
  call void @llvm.dbg.value(metadata i32 undef, metadata !4882, metadata !DIExpression()), !dbg !4899
  call void @llvm.dbg.value(metadata i64 %16, metadata !4884, metadata !DIExpression()), !dbg !4895
  call void @llvm.dbg.value(metadata %"struct.HashMap<NatInternKey, IPFlowID>::Elt"** %19, metadata !4885, metadata !DIExpression()), !dbg !4895
  store i64 %66, i64* %15, align 8, !dbg !4902, !tbaa !4024
  %70 = bitcast %class.HashMap.24* %0 to i8**, !dbg !4903
  store i8* %68, i8** %70, align 8, !dbg !4903, !tbaa !4028
  call void @llvm.dbg.value(metadata %class.HashMap.24* %0, metadata !4904, metadata !DIExpression()), !dbg !4907
  %71 = icmp ult i64 %48, 2147483647, !dbg !4910
  br i1 %71, label %72, label %76, !dbg !4911

72:                                               ; preds = %65
  call void @llvm.dbg.value(metadata %class.HashMap.24* %0, metadata !4038, metadata !DIExpression()), !dbg !4912
  call void @llvm.dbg.value(metadata i1 true, metadata !4041, metadata !DIExpression()), !dbg !4912
  %73 = icmp ugt i64 %66, 4194302, !dbg !4914
  %74 = shl nuw nsw i64 %66, 1, !dbg !4917
  %75 = select i1 %73, i64 2147483646, i64 %74, !dbg !4917
  store i64 %75, i64* %47, align 8, !dbg !4918, !tbaa !4854
  br label %76, !dbg !4919

76:                                               ; preds = %72, %65
  call void @llvm.dbg.value(metadata i64 0, metadata !4886, metadata !DIExpression()), !dbg !4920
  %77 = icmp eq i64 %16, 0, !dbg !4919
  br i1 %77, label %78, label %80, !dbg !4921

78:                                               ; preds = %85, %76
  %79 = icmp eq %"struct.HashMap<NatInternKey, IPFlowID>::Elt"** %19, null, !dbg !4922
  br i1 %79, label %117, label %109, !dbg !4922

80:                                               ; preds = %76, %85
  %81 = phi i64 [ %86, %85 ], [ 0, %76 ]
  call void @llvm.dbg.value(metadata i64 %81, metadata !4886, metadata !DIExpression()), !dbg !4920
  %82 = getelementptr inbounds %"struct.HashMap<NatInternKey, IPFlowID>::Elt"*, %"struct.HashMap<NatInternKey, IPFlowID>::Elt"** %19, i64 %81, !dbg !4923
  %83 = load %"struct.HashMap<NatInternKey, IPFlowID>::Elt"*, %"struct.HashMap<NatInternKey, IPFlowID>::Elt"** %82, align 8, !dbg !4923, !tbaa !3948
  call void @llvm.dbg.value(metadata %"struct.HashMap<NatInternKey, IPFlowID>::Elt"* %83, metadata !4888, metadata !DIExpression()), !dbg !4924
  %84 = icmp eq %"struct.HashMap<NatInternKey, IPFlowID>::Elt"* %83, null, !dbg !4925
  br i1 %84, label %85, label %88, !dbg !4926

85:                                               ; preds = %88, %80
  %86 = add nuw i64 %81, 1, !dbg !4927
  call void @llvm.dbg.value(metadata i64 %86, metadata !4886, metadata !DIExpression()), !dbg !4920
  %87 = icmp eq i64 %86, %16, !dbg !4919
  br i1 %87, label %78, label %80, !dbg !4921, !llvm.loop !4928

88:                                               ; preds = %80, %88
  %89 = phi %"struct.HashMap<NatInternKey, IPFlowID>::Elt"* [ %91, %88 ], [ %83, %80 ]
  call void @llvm.dbg.value(metadata %"struct.HashMap<NatInternKey, IPFlowID>::Elt"* %89, metadata !4888, metadata !DIExpression()), !dbg !4924
  %90 = getelementptr inbounds %"struct.HashMap<NatInternKey, IPFlowID>::Elt", %"struct.HashMap<NatInternKey, IPFlowID>::Elt"* %89, i64 0, i32 1, !dbg !4930
  %91 = load %"struct.HashMap<NatInternKey, IPFlowID>::Elt"*, %"struct.HashMap<NatInternKey, IPFlowID>::Elt"** %90, align 8, !dbg !4930, !tbaa !4152
  call void @llvm.dbg.value(metadata %"struct.HashMap<NatInternKey, IPFlowID>::Elt"* %91, metadata !4891, metadata !DIExpression()), !dbg !4931
  call void @llvm.dbg.value(metadata %class.HashMap.24* %0, metadata !4752, metadata !DIExpression()), !dbg !4932
  call void @llvm.dbg.value(metadata %"struct.HashMap<NatInternKey, IPFlowID>::Elt"* %89, metadata !4755, metadata !DIExpression()), !dbg !4932
  call void @llvm.dbg.value(metadata %"struct.HashMap<NatInternKey, IPFlowID>::Elt"* %89, metadata !4758, metadata !DIExpression()), !dbg !4934
  call void @llvm.dbg.value(metadata %"struct.HashMap<NatInternKey, IPFlowID>::Elt"* %89, metadata !4767, metadata !DIExpression()), !dbg !4936
  %92 = getelementptr inbounds %"struct.HashMap<NatInternKey, IPFlowID>::Elt", %"struct.HashMap<NatInternKey, IPFlowID>::Elt"* %89, i64 0, i32 0, i32 0, i32 0, i32 0, !dbg !4938
  call void @llvm.dbg.value(metadata i32* %92, metadata !4774, metadata !DIExpression()), !dbg !4939
  %93 = load i32, i32* %92, align 4, !dbg !4941, !tbaa !4095
  %94 = zext i32 %93 to i64, !dbg !4941
  %95 = getelementptr inbounds %"struct.HashMap<NatInternKey, IPFlowID>::Elt", %"struct.HashMap<NatInternKey, IPFlowID>::Elt"* %89, i64 0, i32 0, i32 0, i32 1, !dbg !4942
  call void @llvm.dbg.value(metadata i16* %95, metadata !4786, metadata !DIExpression()), !dbg !4943
  %96 = load i16, i16* %95, align 2, !dbg !4945, !tbaa !4556
  %97 = zext i16 %96 to i64, !dbg !4945
  %98 = xor i64 %97, %94, !dbg !4946
  %99 = getelementptr inbounds %"struct.HashMap<NatInternKey, IPFlowID>::Elt", %"struct.HashMap<NatInternKey, IPFlowID>::Elt"* %89, i64 0, i32 0, i32 0, i32 2, !dbg !4947
  call void @llvm.dbg.value(metadata i8* %99, metadata !4800, metadata !DIExpression()), !dbg !4948
  %100 = load i8, i8* %99, align 1, !dbg !4950, !tbaa !4096
  %101 = zext i8 %100 to i64, !dbg !4950
  %102 = xor i64 %98, %101, !dbg !4951
  %103 = urem i64 %102, %66, !dbg !4952
  call void @llvm.dbg.value(metadata i64 %103, metadata !4894, metadata !DIExpression()), !dbg !4931
  %104 = getelementptr inbounds %"struct.HashMap<NatInternKey, IPFlowID>::Elt"*, %"struct.HashMap<NatInternKey, IPFlowID>::Elt"** %69, i64 %103, !dbg !4953
  %105 = bitcast %"struct.HashMap<NatInternKey, IPFlowID>::Elt"** %104 to i64*, !dbg !4953
  %106 = load i64, i64* %105, align 8, !dbg !4953, !tbaa !3948
  %107 = bitcast %"struct.HashMap<NatInternKey, IPFlowID>::Elt"** %90 to i64*, !dbg !4954
  store i64 %106, i64* %107, align 8, !dbg !4954, !tbaa !4152
  store %"struct.HashMap<NatInternKey, IPFlowID>::Elt"* %89, %"struct.HashMap<NatInternKey, IPFlowID>::Elt"** %104, align 8, !dbg !4955, !tbaa !3948
  call void @llvm.dbg.value(metadata %"struct.HashMap<NatInternKey, IPFlowID>::Elt"* %91, metadata !4888, metadata !DIExpression()), !dbg !4924
  %108 = icmp eq %"struct.HashMap<NatInternKey, IPFlowID>::Elt"* %91, null, !dbg !4925
  br i1 %108, label %85, label %88, !dbg !4926, !llvm.loop !4956

109:                                              ; preds = %78
  %110 = bitcast %"struct.HashMap<NatInternKey, IPFlowID>::Elt"** %19 to i8*, !dbg !4922
  tail call void @_ZdaPv(i8* %110) #18, !dbg !4922
  %111 = load i32, i32* %4, align 4, !dbg !4958, !tbaa !4095
  %112 = load i16, i16* %7, align 2, !dbg !4963, !tbaa !4556
  %113 = load i64, i64* %15, align 8, !dbg !4965, !tbaa !4024
  %114 = zext i32 %111 to i64, !dbg !4958
  %115 = zext i16 %112 to i64, !dbg !4963
  %116 = xor i64 %115, %114, !dbg !4966
  br label %117, !dbg !4922

117:                                              ; preds = %109, %78, %63
  %118 = phi i64 [ %116, %109 ], [ %10, %78 ], [ %10, %63 ], !dbg !4966
  %119 = phi i64 [ %113, %109 ], [ %66, %78 ], [ %16, %63 ], !dbg !4965
  call void @llvm.dbg.value(metadata %class.HashMap.24* %0, metadata !4752, metadata !DIExpression()), !dbg !4967
  call void @llvm.dbg.value(metadata %struct.NatInternKey* %1, metadata !4755, metadata !DIExpression()), !dbg !4967
  call void @llvm.dbg.value(metadata %struct.NatInternKey* %1, metadata !4758, metadata !DIExpression()), !dbg !4968
  call void @llvm.dbg.value(metadata %struct.NatInternKey* %1, metadata !4767, metadata !DIExpression()), !dbg !4969
  call void @llvm.dbg.value(metadata i32* %4, metadata !4774, metadata !DIExpression()), !dbg !4970
  call void @llvm.dbg.value(metadata i16* %7, metadata !4786, metadata !DIExpression()), !dbg !4971
  call void @llvm.dbg.value(metadata i8* %11, metadata !4800, metadata !DIExpression()), !dbg !4972
  %120 = load i8, i8* %11, align 1, !dbg !4974, !tbaa !4096
  %121 = zext i8 %120 to i64, !dbg !4974
  %122 = xor i64 %118, %121, !dbg !4975
  %123 = urem i64 %122, %119, !dbg !4976
  call void @llvm.dbg.value(metadata i64 %123, metadata !4746, metadata !DIExpression()), !dbg !4751
  br label %124, !dbg !4977

124:                                              ; preds = %44, %117
  %125 = phi i64 [ %123, %117 ], [ %17, %44 ], !dbg !4751
  call void @llvm.dbg.value(metadata i64 %125, metadata !4746, metadata !DIExpression()), !dbg !4751
  %126 = getelementptr inbounds %class.HashMap.24, %class.HashMap.24* %0, i64 0, i32 5, !dbg !4978
  %127 = load %class.HashMap_Arena*, %class.HashMap_Arena** %126, align 8, !dbg !4978, !tbaa !4010
  call void @llvm.dbg.value(metadata %class.HashMap_Arena* %127, metadata !4979, metadata !DIExpression()), !dbg !4985
  %128 = getelementptr inbounds %class.HashMap_Arena, %class.HashMap_Arena* %127, i64 0, i32 0, !dbg !4987
  %129 = load %"struct.HashMap_Arena::Link"*, %"struct.HashMap_Arena::Link"** %128, align 8, !dbg !4987, !tbaa !4150
  %130 = icmp eq %"struct.HashMap_Arena::Link"* %129, null, !dbg !4987
  br i1 %130, label %136, label %131, !dbg !4988

131:                                              ; preds = %124
  %132 = bitcast %"struct.HashMap_Arena::Link"* %129 to i8*, !dbg !4989
  call void @llvm.dbg.value(metadata i8* %132, metadata !4982, metadata !DIExpression()), !dbg !4990
  %133 = bitcast %"struct.HashMap_Arena::Link"* %129 to i64*, !dbg !4991
  %134 = load i64, i64* %133, align 8, !dbg !4991, !tbaa !4155
  %135 = bitcast %class.HashMap_Arena* %127 to i64*, !dbg !4992
  store i64 %134, i64* %135, align 8, !dbg !4992, !tbaa !4150
  br label %150

136:                                              ; preds = %124
  %137 = getelementptr inbounds %class.HashMap_Arena, %class.HashMap_Arena* %127, i64 0, i32 2, !dbg !4993
  %138 = load i32, i32* %137, align 8, !dbg !4993, !tbaa !4995
  %139 = icmp sgt i32 %138, 0, !dbg !4996
  br i1 %139, label %140, label %148, !dbg !4997

140:                                              ; preds = %136
  %141 = getelementptr inbounds %class.HashMap_Arena, %class.HashMap_Arena* %127, i64 0, i32 3, !dbg !4998
  %142 = load i32, i32* %141, align 4, !dbg !4998, !tbaa !5000
  %143 = sub i32 %138, %142, !dbg !5001
  store i32 %143, i32* %137, align 8, !dbg !5001, !tbaa !4995
  %144 = getelementptr inbounds %class.HashMap_Arena, %class.HashMap_Arena* %127, i64 0, i32 1, !dbg !5002
  %145 = load i8*, i8** %144, align 8, !dbg !5002, !tbaa !5003
  %146 = sext i32 %143 to i64, !dbg !5004
  %147 = getelementptr inbounds i8, i8* %145, i64 %146, !dbg !5004
  br label %150, !dbg !5005

148:                                              ; preds = %136
  %149 = tail call i8* @_ZN13HashMap_Arena10hard_allocEv(%class.HashMap_Arena* nonnull %127), !dbg !5006
  br label %150, !dbg !5007

150:                                              ; preds = %131, %140, %148
  %151 = phi i8* [ %132, %131 ], [ %147, %140 ], [ %149, %148 ], !dbg !5008
  call void @llvm.dbg.value(metadata i8* %151, metadata !4749, metadata !DIExpression()), !dbg !5009
  %152 = icmp eq i8* %151, null, !dbg !5010
  br i1 %152, label %166, label %153, !dbg !5011

153:                                              ; preds = %150
  call void @llvm.dbg.value(metadata i8* %151, metadata !4749, metadata !DIExpression()), !dbg !5009
  %154 = bitcast %struct.NatInternKey* %1 to i8*, !dbg !5012
  tail call void @llvm.memcpy.p0i8.p0i8.i64(i8* nonnull align 8 dereferenceable(7) %151, i8* nonnull align 1 dereferenceable(7) %154, i64 7, i1 false), !dbg !5012, !tbaa.struct !5014
  %155 = getelementptr inbounds i8, i8* %151, i64 8, !dbg !5015
  %156 = bitcast %class.IPFlowID* %2 to i8*, !dbg !5016
  tail call void @llvm.memcpy.p0i8.p0i8.i64(i8* nonnull align 8 dereferenceable(12) %155, i8* nonnull align 4 dereferenceable(12) %156, i64 12, i1 false), !dbg !5016, !tbaa.struct !4846
  %157 = load %"struct.HashMap<NatInternKey, IPFlowID>::Elt"**, %"struct.HashMap<NatInternKey, IPFlowID>::Elt"*** %18, align 8, !dbg !5017, !tbaa !4028
  %158 = getelementptr inbounds %"struct.HashMap<NatInternKey, IPFlowID>::Elt"*, %"struct.HashMap<NatInternKey, IPFlowID>::Elt"** %157, i64 %125, !dbg !5017
  %159 = bitcast %"struct.HashMap<NatInternKey, IPFlowID>::Elt"** %158 to i64*, !dbg !5017
  %160 = load i64, i64* %159, align 8, !dbg !5017, !tbaa !3948
  %161 = getelementptr inbounds i8, i8* %151, i64 24, !dbg !5018
  %162 = bitcast i8* %161 to i64*, !dbg !5019
  store i64 %160, i64* %162, align 8, !dbg !5019, !tbaa !4152
  %163 = bitcast %"struct.HashMap<NatInternKey, IPFlowID>::Elt"** %158 to i8**, !dbg !5020
  store i8* %151, i8** %163, align 8, !dbg !5020, !tbaa !3948
  %164 = load i64, i64* %45, align 8, !dbg !5021, !tbaa !4852
  %165 = add i64 %164, 1, !dbg !5021
  store i64 %165, i64* %45, align 8, !dbg !5021, !tbaa !4852
  br label %166, !dbg !5022

166:                                              ; preds = %153, %150, %36
  %167 = phi i1 [ false, %36 ], [ true, %150 ], [ true, %153 ], !dbg !4751
  ret i1 %167, !dbg !5023
}

; Function Attrs: sspstrong uwtable
define linkonce_odr dso_local zeroext i1 @_ZN7HashMapI12NatExternKey8IPFlowIDE6insertERKS0_RKS1_(%class.HashMap* %0, %struct.NatExternKey* dereferenceable(3) %1, %class.IPFlowID* dereferenceable(12) %2) local_unnamed_addr #0 comdat align 2 !dbg !5024 {
  call void @llvm.dbg.value(metadata %class.HashMap* %0, metadata !5026, metadata !DIExpression()), !dbg !5034
  call void @llvm.dbg.value(metadata %struct.NatExternKey* %1, metadata !5027, metadata !DIExpression()), !dbg !5034
  call void @llvm.dbg.value(metadata %class.IPFlowID* %2, metadata !5028, metadata !DIExpression()), !dbg !5034
  call void @llvm.dbg.value(metadata %class.HashMap* %0, metadata !5035, metadata !DIExpression()), !dbg !5039
  call void @llvm.dbg.value(metadata %struct.NatExternKey* %1, metadata !5038, metadata !DIExpression()), !dbg !5039
  call void @llvm.dbg.value(metadata %struct.NatExternKey* %1, metadata !5041, metadata !DIExpression()), !dbg !5048
  call void @llvm.dbg.value(metadata %struct.NatExternKey* %1, metadata !5050, metadata !DIExpression()), !dbg !5054
  %4 = getelementptr inbounds %struct.NatExternKey, %struct.NatExternKey* %1, i64 0, i32 0, !dbg !5056
  call void @llvm.dbg.value(metadata i16* %4, metadata !4786, metadata !DIExpression()), !dbg !5057
  %5 = load i16, i16* %4, align 2, !dbg !5059, !tbaa !4556
  %6 = zext i16 %5 to i64, !dbg !5059
  %7 = getelementptr inbounds %struct.NatExternKey, %struct.NatExternKey* %1, i64 0, i32 1, !dbg !5060
  call void @llvm.dbg.value(metadata i8* %7, metadata !4800, metadata !DIExpression()), !dbg !5061
  %8 = load i8, i8* %7, align 1, !dbg !5063, !tbaa !4096
  %9 = zext i8 %8 to i64, !dbg !5063
  %10 = xor i64 %9, %6, !dbg !5064
  %11 = getelementptr inbounds %class.HashMap, %class.HashMap* %0, i64 0, i32 1, !dbg !5065
  %12 = load i64, i64* %11, align 8, !dbg !5065, !tbaa !3939
  %13 = urem i64 %10, %12, !dbg !5066
  call void @llvm.dbg.value(metadata i64 %13, metadata !5029, metadata !DIExpression()), !dbg !5034
  %14 = getelementptr inbounds %class.HashMap, %class.HashMap* %0, i64 0, i32 0, !dbg !5067
  %15 = load %"struct.HashMap<NatExternKey, IPFlowID>::Elt"**, %"struct.HashMap<NatExternKey, IPFlowID>::Elt"*** %14, align 8, !dbg !5067, !tbaa !3943
  %16 = getelementptr inbounds %"struct.HashMap<NatExternKey, IPFlowID>::Elt"*, %"struct.HashMap<NatExternKey, IPFlowID>::Elt"** %15, i64 %13, !dbg !5067
  call void @llvm.dbg.value(metadata %"struct.HashMap<NatExternKey, IPFlowID>::Elt"* undef, metadata !5030, metadata !DIExpression()), !dbg !5068
  %17 = load %"struct.HashMap<NatExternKey, IPFlowID>::Elt"*, %"struct.HashMap<NatExternKey, IPFlowID>::Elt"** %16, align 8, !dbg !5068, !tbaa !3948
  call void @llvm.dbg.value(metadata %"struct.HashMap<NatExternKey, IPFlowID>::Elt"* %17, metadata !5030, metadata !DIExpression()), !dbg !5068
  %18 = icmp eq %"struct.HashMap<NatExternKey, IPFlowID>::Elt"* %17, null, !dbg !5069
  br i1 %18, label %36, label %19, !dbg !5071

19:                                               ; preds = %3, %32
  %20 = phi %"struct.HashMap<NatExternKey, IPFlowID>::Elt"* [ %34, %32 ], [ %17, %3 ]
  call void @llvm.dbg.value(metadata %"struct.HashMap<NatExternKey, IPFlowID>::Elt"* %20, metadata !5072, metadata !DIExpression()), !dbg !5076
  call void @llvm.dbg.value(metadata %struct.NatExternKey* %1, metadata !5075, metadata !DIExpression()), !dbg !5076
  %21 = getelementptr inbounds %"struct.HashMap<NatExternKey, IPFlowID>::Elt", %"struct.HashMap<NatExternKey, IPFlowID>::Elt"* %20, i64 0, i32 0, i32 0, i32 0, !dbg !5079
  %22 = load i16, i16* %21, align 1, !dbg !5079, !tbaa !4599
  %23 = icmp eq i16 %22, %5, !dbg !5080
  br i1 %23, label %24, label %32, !dbg !5081

24:                                               ; preds = %19
  call void @llvm.dbg.value(metadata %"struct.HashMap<NatExternKey, IPFlowID>::Elt"* %20, metadata !5072, metadata !DIExpression()), !dbg !5076
  %25 = getelementptr inbounds %"struct.HashMap<NatExternKey, IPFlowID>::Elt", %"struct.HashMap<NatExternKey, IPFlowID>::Elt"* %20, i64 0, i32 0, i32 0, i32 1, !dbg !5082
  %26 = load i8, i8* %25, align 1, !dbg !5082, !tbaa !4603
  %27 = icmp eq i8 %26, %8, !dbg !5083
  br i1 %27, label %28, label %32, !dbg !5084

28:                                               ; preds = %24
  call void @llvm.dbg.value(metadata %"struct.HashMap<NatExternKey, IPFlowID>::Elt"* %20, metadata !5072, metadata !DIExpression()), !dbg !5076
  call void @llvm.dbg.value(metadata %"struct.HashMap<NatExternKey, IPFlowID>::Elt"* %20, metadata !5072, metadata !DIExpression()), !dbg !5076
  call void @llvm.dbg.value(metadata %"struct.HashMap<NatExternKey, IPFlowID>::Elt"* %20, metadata !5072, metadata !DIExpression()), !dbg !5076
  call void @llvm.dbg.value(metadata %"struct.HashMap<NatExternKey, IPFlowID>::Elt"* %20, metadata !5072, metadata !DIExpression()), !dbg !5076
  call void @llvm.dbg.value(metadata %"struct.HashMap<NatExternKey, IPFlowID>::Elt"* %20, metadata !5072, metadata !DIExpression()), !dbg !5076
  %29 = getelementptr inbounds %"struct.HashMap<NatExternKey, IPFlowID>::Elt", %"struct.HashMap<NatExternKey, IPFlowID>::Elt"* %20, i64 0, i32 0, i32 1, !dbg !5085
  %30 = bitcast %class.IPFlowID* %29 to i8*, !dbg !5087
  %31 = bitcast %class.IPFlowID* %2 to i8*, !dbg !5087
  tail call void @llvm.memcpy.p0i8.p0i8.i64(i8* nonnull align 4 dereferenceable(12) %30, i8* nonnull align 4 dereferenceable(12) %31, i64 12, i1 false), !dbg !5087, !tbaa.struct !4846
  br label %151

32:                                               ; preds = %19, %24
  %33 = getelementptr inbounds %"struct.HashMap<NatExternKey, IPFlowID>::Elt", %"struct.HashMap<NatExternKey, IPFlowID>::Elt"* %20, i64 0, i32 1, !dbg !5088
  call void @llvm.dbg.value(metadata %"struct.HashMap<NatExternKey, IPFlowID>::Elt"* undef, metadata !5030, metadata !DIExpression()), !dbg !5068
  %34 = load %"struct.HashMap<NatExternKey, IPFlowID>::Elt"*, %"struct.HashMap<NatExternKey, IPFlowID>::Elt"** %33, align 8, !dbg !5068, !tbaa !3948
  call void @llvm.dbg.value(metadata %"struct.HashMap<NatExternKey, IPFlowID>::Elt"* %34, metadata !5030, metadata !DIExpression()), !dbg !5068
  %35 = icmp eq %"struct.HashMap<NatExternKey, IPFlowID>::Elt"* %34, null, !dbg !5069
  br i1 %35, label %36, label %19, !dbg !5071, !llvm.loop !5089

36:                                               ; preds = %32, %3
  %37 = getelementptr inbounds %class.HashMap, %class.HashMap* %0, i64 0, i32 3, !dbg !5091
  %38 = load i64, i64* %37, align 8, !dbg !5091, !tbaa !5093
  %39 = getelementptr inbounds %class.HashMap, %class.HashMap* %0, i64 0, i32 4, !dbg !5094
  %40 = load i64, i64* %39, align 8, !dbg !5094, !tbaa !5095
  %41 = icmp ult i64 %38, %40, !dbg !5096
  br i1 %41, label %109, label %42, !dbg !5097

42:                                               ; preds = %36
  %43 = add i64 %12, 1, !dbg !5098
  call void @llvm.dbg.value(metadata %class.HashMap* %0, metadata !5100, metadata !DIExpression()), !dbg !5105
  call void @llvm.dbg.value(metadata i64 %43, metadata !5103, metadata !DIExpression()), !dbg !5105
  call void @llvm.dbg.value(metadata i64 1, metadata !5104, metadata !DIExpression()), !dbg !5105
  %44 = icmp ugt i64 %43, 1, !dbg !5107
  br i1 %44, label %45, label %57, !dbg !5108

45:                                               ; preds = %42, %45
  %46 = phi i64 [ %48, %45 ], [ 1, %42 ]
  call void @llvm.dbg.value(metadata i64 %46, metadata !5104, metadata !DIExpression()), !dbg !5105
  %47 = shl nuw nsw i64 %46, 1, !dbg !5109
  %48 = or i64 %47, 1, !dbg !5110
  call void @llvm.dbg.value(metadata i64 %48, metadata !5104, metadata !DIExpression()), !dbg !5105
  %49 = icmp ult i64 %48, %43, !dbg !5107
  %50 = icmp ult i64 %48, 4194303, !dbg !5111
  %51 = and i1 %49, %50, !dbg !5111
  br i1 %51, label %45, label %52, !dbg !5108, !llvm.loop !5112

52:                                               ; preds = %45
  call void @llvm.dbg.value(metadata i64 %48, metadata !5104, metadata !DIExpression()), !dbg !5105
  %53 = icmp ult i64 %48, 4194304, !dbg !5114
  br i1 %53, label %55, label %54, !dbg !5114

54:                                               ; preds = %52
  tail call void @__assert_fail(i8* getelementptr inbounds ([49 x i8], [49 x i8]* @.str.24, i64 0, i64 0), i8* getelementptr inbounds ([30 x i8], [30 x i8]* @.str.21, i64 0, i64 0), i32 211, i8* getelementptr inbounds ([86 x i8], [86 x i8]* @__PRETTY_FUNCTION__._ZN7HashMapI12NatExternKey8IPFlowIDE6resizeEm, i64 0, i64 0)) #20, !dbg !5114
  unreachable, !dbg !5114

55:                                               ; preds = %52
  %56 = icmp eq i64 %12, %48, !dbg !5115
  br i1 %56, label %102, label %57, !dbg !5117

57:                                               ; preds = %42, %55
  %58 = phi i64 [ %48, %55 ], [ 1, %42 ]
  call void @llvm.dbg.value(metadata %class.HashMap* %0, metadata !5118, metadata !DIExpression()), !dbg !5136
  call void @llvm.dbg.value(metadata i64 %48, metadata !5121, metadata !DIExpression()), !dbg !5136
  %59 = shl nuw nsw i64 %58, 3, !dbg !5138
  %60 = tail call i8* @_Znam(i64 %59) #16, !dbg !5138
  %61 = bitcast i8* %60 to %"struct.HashMap<NatExternKey, IPFlowID>::Elt"**, !dbg !5139
  call void @llvm.dbg.value(metadata %"struct.HashMap<NatExternKey, IPFlowID>::Elt"** %61, metadata !5122, metadata !DIExpression()), !dbg !5136
  call void @llvm.dbg.value(metadata i64 0, metadata !5123, metadata !DIExpression()), !dbg !5140
  tail call void @llvm.memset.p0i8.i64(i8* nonnull align 8 %60, i8 0, i64 %59, i1 false), !dbg !5141
  call void @llvm.dbg.value(metadata i32 undef, metadata !5123, metadata !DIExpression()), !dbg !5140
  call void @llvm.dbg.value(metadata i64 %12, metadata !5125, metadata !DIExpression()), !dbg !5136
  call void @llvm.dbg.value(metadata %"struct.HashMap<NatExternKey, IPFlowID>::Elt"** %15, metadata !5126, metadata !DIExpression()), !dbg !5136
  store i64 %58, i64* %11, align 8, !dbg !5143, !tbaa !3939
  %62 = bitcast %class.HashMap* %0 to i8**, !dbg !5144
  store i8* %60, i8** %62, align 8, !dbg !5144, !tbaa !3943
  call void @llvm.dbg.value(metadata %class.HashMap* %0, metadata !5145, metadata !DIExpression()), !dbg !5148
  %63 = icmp ult i64 %40, 2147483647, !dbg !5151
  br i1 %63, label %64, label %68, !dbg !5152

64:                                               ; preds = %57
  call void @llvm.dbg.value(metadata %class.HashMap* %0, metadata !3954, metadata !DIExpression()), !dbg !5153
  call void @llvm.dbg.value(metadata i1 true, metadata !3957, metadata !DIExpression()), !dbg !5153
  %65 = icmp ugt i64 %58, 4194302, !dbg !5155
  %66 = shl nuw nsw i64 %58, 1, !dbg !5158
  %67 = select i1 %65, i64 2147483646, i64 %66, !dbg !5158
  store i64 %67, i64* %39, align 8, !dbg !5159, !tbaa !5095
  br label %68, !dbg !5160

68:                                               ; preds = %64, %57
  call void @llvm.dbg.value(metadata i64 0, metadata !5127, metadata !DIExpression()), !dbg !5161
  %69 = icmp eq i64 %12, 0, !dbg !5160
  br i1 %69, label %70, label %72, !dbg !5162

70:                                               ; preds = %77, %68
  %71 = icmp eq %"struct.HashMap<NatExternKey, IPFlowID>::Elt"** %15, null, !dbg !5163
  br i1 %71, label %102, label %97, !dbg !5163

72:                                               ; preds = %68, %77
  %73 = phi i64 [ %78, %77 ], [ 0, %68 ]
  call void @llvm.dbg.value(metadata i64 %73, metadata !5127, metadata !DIExpression()), !dbg !5161
  %74 = getelementptr inbounds %"struct.HashMap<NatExternKey, IPFlowID>::Elt"*, %"struct.HashMap<NatExternKey, IPFlowID>::Elt"** %15, i64 %73, !dbg !5164
  %75 = load %"struct.HashMap<NatExternKey, IPFlowID>::Elt"*, %"struct.HashMap<NatExternKey, IPFlowID>::Elt"** %74, align 8, !dbg !5164, !tbaa !3948
  call void @llvm.dbg.value(metadata %"struct.HashMap<NatExternKey, IPFlowID>::Elt"* %75, metadata !5129, metadata !DIExpression()), !dbg !5165
  %76 = icmp eq %"struct.HashMap<NatExternKey, IPFlowID>::Elt"* %75, null, !dbg !5166
  br i1 %76, label %77, label %80, !dbg !5167

77:                                               ; preds = %80, %72
  %78 = add nuw i64 %73, 1, !dbg !5168
  call void @llvm.dbg.value(metadata i64 %78, metadata !5127, metadata !DIExpression()), !dbg !5161
  %79 = icmp eq i64 %78, %12, !dbg !5160
  br i1 %79, label %70, label %72, !dbg !5162, !llvm.loop !5169

80:                                               ; preds = %72, %80
  %81 = phi %"struct.HashMap<NatExternKey, IPFlowID>::Elt"* [ %83, %80 ], [ %75, %72 ]
  call void @llvm.dbg.value(metadata %"struct.HashMap<NatExternKey, IPFlowID>::Elt"* %81, metadata !5129, metadata !DIExpression()), !dbg !5165
  %82 = getelementptr inbounds %"struct.HashMap<NatExternKey, IPFlowID>::Elt", %"struct.HashMap<NatExternKey, IPFlowID>::Elt"* %81, i64 0, i32 1, !dbg !5171
  %83 = load %"struct.HashMap<NatExternKey, IPFlowID>::Elt"*, %"struct.HashMap<NatExternKey, IPFlowID>::Elt"** %82, align 8, !dbg !5171, !tbaa !4197
  call void @llvm.dbg.value(metadata %"struct.HashMap<NatExternKey, IPFlowID>::Elt"* %83, metadata !5132, metadata !DIExpression()), !dbg !5172
  call void @llvm.dbg.value(metadata %class.HashMap* %0, metadata !5035, metadata !DIExpression()), !dbg !5173
  call void @llvm.dbg.value(metadata %"struct.HashMap<NatExternKey, IPFlowID>::Elt"* %81, metadata !5038, metadata !DIExpression()), !dbg !5173
  call void @llvm.dbg.value(metadata %"struct.HashMap<NatExternKey, IPFlowID>::Elt"* %81, metadata !5041, metadata !DIExpression()), !dbg !5175
  call void @llvm.dbg.value(metadata %"struct.HashMap<NatExternKey, IPFlowID>::Elt"* %81, metadata !5050, metadata !DIExpression()), !dbg !5177
  %84 = getelementptr inbounds %"struct.HashMap<NatExternKey, IPFlowID>::Elt", %"struct.HashMap<NatExternKey, IPFlowID>::Elt"* %81, i64 0, i32 0, i32 0, i32 0, !dbg !5179
  call void @llvm.dbg.value(metadata i16* %84, metadata !4786, metadata !DIExpression()), !dbg !5180
  %85 = load i16, i16* %84, align 2, !dbg !5182, !tbaa !4556
  %86 = zext i16 %85 to i64, !dbg !5182
  %87 = getelementptr inbounds %"struct.HashMap<NatExternKey, IPFlowID>::Elt", %"struct.HashMap<NatExternKey, IPFlowID>::Elt"* %81, i64 0, i32 0, i32 0, i32 1, !dbg !5183
  call void @llvm.dbg.value(metadata i8* %87, metadata !4800, metadata !DIExpression()), !dbg !5184
  %88 = load i8, i8* %87, align 1, !dbg !5186, !tbaa !4096
  %89 = zext i8 %88 to i64, !dbg !5186
  %90 = xor i64 %89, %86, !dbg !5187
  %91 = urem i64 %90, %58, !dbg !5188
  call void @llvm.dbg.value(metadata i64 %91, metadata !5135, metadata !DIExpression()), !dbg !5172
  %92 = getelementptr inbounds %"struct.HashMap<NatExternKey, IPFlowID>::Elt"*, %"struct.HashMap<NatExternKey, IPFlowID>::Elt"** %61, i64 %91, !dbg !5189
  %93 = bitcast %"struct.HashMap<NatExternKey, IPFlowID>::Elt"** %92 to i64*, !dbg !5189
  %94 = load i64, i64* %93, align 8, !dbg !5189, !tbaa !3948
  %95 = bitcast %"struct.HashMap<NatExternKey, IPFlowID>::Elt"** %82 to i64*, !dbg !5190
  store i64 %94, i64* %95, align 8, !dbg !5190, !tbaa !4197
  store %"struct.HashMap<NatExternKey, IPFlowID>::Elt"* %81, %"struct.HashMap<NatExternKey, IPFlowID>::Elt"** %92, align 8, !dbg !5191, !tbaa !3948
  call void @llvm.dbg.value(metadata %"struct.HashMap<NatExternKey, IPFlowID>::Elt"* %83, metadata !5129, metadata !DIExpression()), !dbg !5165
  %96 = icmp eq %"struct.HashMap<NatExternKey, IPFlowID>::Elt"* %83, null, !dbg !5166
  br i1 %96, label %77, label %80, !dbg !5167, !llvm.loop !5192

97:                                               ; preds = %70
  %98 = bitcast %"struct.HashMap<NatExternKey, IPFlowID>::Elt"** %15 to i8*, !dbg !5163
  tail call void @_ZdaPv(i8* %98) #18, !dbg !5163
  %99 = load i16, i16* %4, align 2, !dbg !5194, !tbaa !4556
  %100 = load i64, i64* %11, align 8, !dbg !5199, !tbaa !3939
  %101 = zext i16 %99 to i64, !dbg !5194
  br label %102, !dbg !5163

102:                                              ; preds = %97, %70, %55
  %103 = phi i64 [ %101, %97 ], [ %6, %70 ], [ %6, %55 ], !dbg !5194
  %104 = phi i64 [ %100, %97 ], [ %58, %70 ], [ %12, %55 ], !dbg !5199
  call void @llvm.dbg.value(metadata %class.HashMap* %0, metadata !5035, metadata !DIExpression()), !dbg !5200
  call void @llvm.dbg.value(metadata %struct.NatExternKey* %1, metadata !5038, metadata !DIExpression()), !dbg !5200
  call void @llvm.dbg.value(metadata %struct.NatExternKey* %1, metadata !5041, metadata !DIExpression()), !dbg !5201
  call void @llvm.dbg.value(metadata %struct.NatExternKey* %1, metadata !5050, metadata !DIExpression()), !dbg !5202
  call void @llvm.dbg.value(metadata i16* %4, metadata !4786, metadata !DIExpression()), !dbg !5203
  call void @llvm.dbg.value(metadata i8* %7, metadata !4800, metadata !DIExpression()), !dbg !5204
  %105 = load i8, i8* %7, align 1, !dbg !5206, !tbaa !4096
  %106 = zext i8 %105 to i64, !dbg !5206
  %107 = xor i64 %103, %106, !dbg !5207
  %108 = urem i64 %107, %104, !dbg !5208
  call void @llvm.dbg.value(metadata i64 %108, metadata !5029, metadata !DIExpression()), !dbg !5034
  br label %109, !dbg !5209

109:                                              ; preds = %36, %102
  %110 = phi i64 [ %108, %102 ], [ %13, %36 ], !dbg !5034
  call void @llvm.dbg.value(metadata i64 %110, metadata !5029, metadata !DIExpression()), !dbg !5034
  %111 = getelementptr inbounds %class.HashMap, %class.HashMap* %0, i64 0, i32 5, !dbg !5210
  %112 = load %class.HashMap_Arena*, %class.HashMap_Arena** %111, align 8, !dbg !5210, !tbaa !3918
  call void @llvm.dbg.value(metadata %class.HashMap_Arena* %112, metadata !4979, metadata !DIExpression()), !dbg !5211
  %113 = getelementptr inbounds %class.HashMap_Arena, %class.HashMap_Arena* %112, i64 0, i32 0, !dbg !5213
  %114 = load %"struct.HashMap_Arena::Link"*, %"struct.HashMap_Arena::Link"** %113, align 8, !dbg !5213, !tbaa !4150
  %115 = icmp eq %"struct.HashMap_Arena::Link"* %114, null, !dbg !5213
  br i1 %115, label %121, label %116, !dbg !5214

116:                                              ; preds = %109
  %117 = bitcast %"struct.HashMap_Arena::Link"* %114 to i8*, !dbg !5215
  call void @llvm.dbg.value(metadata i8* %117, metadata !4982, metadata !DIExpression()), !dbg !5216
  %118 = bitcast %"struct.HashMap_Arena::Link"* %114 to i64*, !dbg !5217
  %119 = load i64, i64* %118, align 8, !dbg !5217, !tbaa !4155
  %120 = bitcast %class.HashMap_Arena* %112 to i64*, !dbg !5218
  store i64 %119, i64* %120, align 8, !dbg !5218, !tbaa !4150
  br label %135

121:                                              ; preds = %109
  %122 = getelementptr inbounds %class.HashMap_Arena, %class.HashMap_Arena* %112, i64 0, i32 2, !dbg !5219
  %123 = load i32, i32* %122, align 8, !dbg !5219, !tbaa !4995
  %124 = icmp sgt i32 %123, 0, !dbg !5220
  br i1 %124, label %125, label %133, !dbg !5221

125:                                              ; preds = %121
  %126 = getelementptr inbounds %class.HashMap_Arena, %class.HashMap_Arena* %112, i64 0, i32 3, !dbg !5222
  %127 = load i32, i32* %126, align 4, !dbg !5222, !tbaa !5000
  %128 = sub i32 %123, %127, !dbg !5223
  store i32 %128, i32* %122, align 8, !dbg !5223, !tbaa !4995
  %129 = getelementptr inbounds %class.HashMap_Arena, %class.HashMap_Arena* %112, i64 0, i32 1, !dbg !5224
  %130 = load i8*, i8** %129, align 8, !dbg !5224, !tbaa !5003
  %131 = sext i32 %128 to i64, !dbg !5225
  %132 = getelementptr inbounds i8, i8* %130, i64 %131, !dbg !5225
  br label %135, !dbg !5226

133:                                              ; preds = %121
  %134 = tail call i8* @_ZN13HashMap_Arena10hard_allocEv(%class.HashMap_Arena* nonnull %112), !dbg !5227
  br label %135, !dbg !5228

135:                                              ; preds = %116, %125, %133
  %136 = phi i8* [ %117, %116 ], [ %132, %125 ], [ %134, %133 ], !dbg !5229
  call void @llvm.dbg.value(metadata i8* %136, metadata !5032, metadata !DIExpression()), !dbg !5230
  %137 = icmp eq i8* %136, null, !dbg !5231
  br i1 %137, label %151, label %138, !dbg !5232

138:                                              ; preds = %135
  call void @llvm.dbg.value(metadata i8* %136, metadata !5032, metadata !DIExpression()), !dbg !5230
  %139 = bitcast %struct.NatExternKey* %1 to i8*, !dbg !5233
  tail call void @llvm.memcpy.p0i8.p0i8.i64(i8* nonnull align 8 dereferenceable(3) %136, i8* nonnull align 1 dereferenceable(3) %139, i64 3, i1 false), !dbg !5233, !tbaa.struct !5235
  %140 = getelementptr inbounds i8, i8* %136, i64 4, !dbg !5236
  %141 = bitcast %class.IPFlowID* %2 to i8*, !dbg !5237
  tail call void @llvm.memcpy.p0i8.p0i8.i64(i8* nonnull align 4 dereferenceable(12) %140, i8* nonnull align 4 dereferenceable(12) %141, i64 12, i1 false), !dbg !5237, !tbaa.struct !4846
  %142 = load %"struct.HashMap<NatExternKey, IPFlowID>::Elt"**, %"struct.HashMap<NatExternKey, IPFlowID>::Elt"*** %14, align 8, !dbg !5238, !tbaa !3943
  %143 = getelementptr inbounds %"struct.HashMap<NatExternKey, IPFlowID>::Elt"*, %"struct.HashMap<NatExternKey, IPFlowID>::Elt"** %142, i64 %110, !dbg !5238
  %144 = bitcast %"struct.HashMap<NatExternKey, IPFlowID>::Elt"** %143 to i64*, !dbg !5238
  %145 = load i64, i64* %144, align 8, !dbg !5238, !tbaa !3948
  %146 = getelementptr inbounds i8, i8* %136, i64 16, !dbg !5239
  %147 = bitcast i8* %146 to i64*, !dbg !5240
  store i64 %145, i64* %147, align 8, !dbg !5240, !tbaa !4197
  %148 = bitcast %"struct.HashMap<NatExternKey, IPFlowID>::Elt"** %143 to i8**, !dbg !5241
  store i8* %136, i8** %148, align 8, !dbg !5241, !tbaa !3948
  %149 = load i64, i64* %37, align 8, !dbg !5242, !tbaa !5093
  %150 = add i64 %149, 1, !dbg !5242
  store i64 %150, i64* %37, align 8, !dbg !5242, !tbaa !5093
  br label %151, !dbg !5243

151:                                              ; preds = %138, %135, %28
  %152 = phi i1 [ false, %28 ], [ true, %135 ], [ true, %138 ], !dbg !5034
  ret i1 %152, !dbg !5244
}

; Function Attrs: noinline optnone sspstrong uwtable
define linkonce_odr dso_local void @_ZNK7Element19checked_output_pushEiP6Packet(%class.Element* %0, i32 %1, %class.Packet* %2) local_unnamed_addr #11 comdat align 2 !dbg !5245 {
  %4 = alloca %class.Element*, align 8
  %5 = alloca i32, align 4
  %6 = alloca %class.Packet*, align 8
  store %class.Element* %0, %class.Element** %4, align 8, !tbaa !3948
  call void @llvm.dbg.declare(metadata %class.Element** %4, metadata !5251, metadata !DIExpression()), !dbg !5254
  store i32 %1, i32* %5, align 4, !tbaa !4095
  call void @llvm.dbg.declare(metadata i32* %5, metadata !5252, metadata !DIExpression()), !dbg !5255
  store %class.Packet* %2, %class.Packet** %6, align 8, !tbaa !3948
  call void @llvm.dbg.declare(metadata %class.Packet** %6, metadata !5253, metadata !DIExpression()), !dbg !5256
  %7 = load %class.Element*, %class.Element** %4, align 8
  %8 = load i32, i32* %5, align 4, !dbg !5257, !tbaa !4095
  %9 = call i32 @_ZNK7Element8noutputsEv(%class.Element* %7), !dbg !5259
  %10 = icmp ult i32 %8, %9, !dbg !5260
  br i1 %10, label %11, label %19, !dbg !5261

11:                                               ; preds = %3
  %12 = getelementptr inbounds %class.Element, %class.Element* %7, i32 0, i32 1, !dbg !5262
  %13 = getelementptr inbounds [2 x %"class.Element::Port"*], [2 x %"class.Element::Port"*]* %12, i64 0, i64 1, !dbg !5262
  %14 = load %"class.Element::Port"*, %"class.Element::Port"** %13, align 8, !dbg !5262, !tbaa !3948
  %15 = load i32, i32* %5, align 4, !dbg !5263, !tbaa !4095
  %16 = sext i32 %15 to i64, !dbg !5262
  %17 = getelementptr inbounds %"class.Element::Port", %"class.Element::Port"* %14, i64 %16, !dbg !5262
  %18 = load %class.Packet*, %class.Packet** %6, align 8, !dbg !5264, !tbaa !3948
  call void @_ZNK7Element4Port4pushEP6Packet(%"class.Element::Port"* %17, %class.Packet* %18), !dbg !5265
  br label %21, !dbg !5262

19:                                               ; preds = %3
  %20 = load %class.Packet*, %class.Packet** %6, align 8, !dbg !5266, !tbaa !3948
  call void @_ZN6Packet4killEv(%class.Packet* %20), !dbg !5267
  br label %21

21:                                               ; preds = %19, %11
  ret void, !dbg !5268
}

declare void @_ZN6Packet4killEv(%class.Packet*) local_unnamed_addr #2

; Function Attrs: sspstrong uwtable
define dso_local void @_ZN15MyIPRewriterMod20udp_mappings_handlerEP7ElementPv(%class.String* noalias sret %0, %class.Element* %1, i8* nocapture readnone %2) #0 align 2 personality i8* bitcast (i32 (...)* @__gxx_personality_v0 to i8*) !dbg !5269 {
  %4 = alloca %class.StringAccum, align 8
  call void @llvm.dbg.value(metadata %class.Element* %1, metadata !5271, metadata !DIExpression()), !dbg !5278
  call void @llvm.dbg.value(metadata i8* undef, metadata !5272, metadata !DIExpression()), !dbg !5278
  call void @llvm.dbg.value(metadata %class.Element* %1, metadata !5273, metadata !DIExpression()), !dbg !5278
  %5 = tail call i32 @_Z13click_jiffiesv(), !dbg !5279
  call void @llvm.dbg.value(metadata i32 %5, metadata !5274, metadata !DIExpression()), !dbg !5278
  %6 = bitcast %class.StringAccum* %4 to i8*, !dbg !5280
  call void @llvm.lifetime.start.p0i8(i64 16, i8* nonnull %6) #17, !dbg !5280
  call void @llvm.dbg.declare(metadata %class.StringAccum* %4, metadata !5275, metadata !DIExpression()), !dbg !5281
  call void @llvm.dbg.value(metadata %class.StringAccum* %4, metadata !5282, metadata !DIExpression()), !dbg !5286
  call void @llvm.dbg.value(metadata %class.StringAccum* %4, metadata !5288, metadata !DIExpression()), !dbg !5292
  %7 = getelementptr inbounds %class.StringAccum, %class.StringAccum* %4, i64 0, i32 0, i32 0, !dbg !5294
  store i8* @_ZN6String9null_dataE, i8** %7, align 8, !dbg !5294, !tbaa !5295
  %8 = getelementptr inbounds %class.StringAccum, %class.StringAccum* %4, i64 0, i32 0, i32 1, !dbg !5297
  store i32 0, i32* %8, align 8, !dbg !5297, !tbaa !5298
  %9 = getelementptr inbounds %class.StringAccum, %class.StringAccum* %4, i64 0, i32 0, i32 2, !dbg !5299
  store i32 0, i32* %9, align 4, !dbg !5299, !tbaa !5300
  %10 = getelementptr inbounds %class.Element, %class.Element* %1, i64 3, i32 2, i64 1, i32 1, !dbg !5301
  call void @llvm.dbg.value(metadata i32* %10, metadata !5302, metadata !DIExpression()), !dbg !5305
  call void @llvm.dbg.value(metadata %class.HashContainer_iterator* undef, metadata !5307, metadata !DIExpression()), !dbg !5312
  call void @llvm.dbg.value(metadata i32* %10, metadata !5310, metadata !DIExpression()), !dbg !5312
  call void @llvm.dbg.value(metadata %class.HashContainer_iterator* undef, metadata !5314, metadata !DIExpression()), !dbg !5319
  call void @llvm.dbg.value(metadata i32* %10, metadata !5317, metadata !DIExpression()), !dbg !5319
  call void @llvm.dbg.value(metadata i32* %10, metadata !5276, metadata !DIExpression(DW_OP_LLVM_fragment, 192, 64)), !dbg !5321
  %11 = getelementptr inbounds i32, i32* %10, i64 3, !dbg !5322
  %12 = load i32, i32* %11, align 4, !dbg !5322, !tbaa !4092, !noalias !5324
  call void @llvm.dbg.value(metadata i32 %12, metadata !5276, metadata !DIExpression(DW_OP_LLVM_fragment, 128, 32)), !dbg !5321
  %13 = bitcast i32* %10 to %class.IPRewriterEntry***, !dbg !5327
  %14 = load %class.IPRewriterEntry**, %class.IPRewriterEntry*** %13, align 8, !dbg !5327, !tbaa !4089, !noalias !5324
  call void @llvm.dbg.value(metadata %class.IPRewriterEntry** undef, metadata !5276, metadata !DIExpression(DW_OP_LLVM_fragment, 64, 64)), !dbg !5321
  %15 = getelementptr inbounds i32, i32* %10, i64 2, !dbg !5328
  %16 = load i32, i32* %15, align 8, !dbg !5328, !tbaa !4085, !noalias !5324
  %17 = icmp eq i32 %12, %16, !dbg !5328
  br i1 %17, label %41, label %18, !dbg !5330, !prof !5331, !misexpect !5332

18:                                               ; preds = %3
  %19 = zext i32 %12 to i64, !dbg !5333
  %20 = getelementptr inbounds %class.IPRewriterEntry*, %class.IPRewriterEntry** %14, i64 %19, !dbg !5333
  call void @llvm.dbg.value(metadata %class.IPRewriterEntry** %20, metadata !5276, metadata !DIExpression(DW_OP_LLVM_fragment, 64, 64)), !dbg !5321
  %21 = load %class.IPRewriterEntry*, %class.IPRewriterEntry** %20, align 8, !dbg !5334, !tbaa !3948, !noalias !5324
  call void @llvm.dbg.value(metadata %class.IPRewriterEntry* %21, metadata !5276, metadata !DIExpression(DW_OP_LLVM_fragment, 0, 64)), !dbg !5321
  %22 = icmp eq %class.IPRewriterEntry* %21, null, !dbg !5336
  br i1 %22, label %23, label %35, !dbg !5337

23:                                               ; preds = %18, %27
  %24 = phi i32 [ %25, %27 ], [ %12, %18 ]
  %25 = add i32 %24, 1, !dbg !5338
  %26 = icmp eq i32 %25, %16, !dbg !5353
  br i1 %26, label %32, label %27, !dbg !5355

27:                                               ; preds = %23
  %28 = zext i32 %25 to i64, !dbg !5356
  %29 = getelementptr inbounds %class.IPRewriterEntry*, %class.IPRewriterEntry** %14, i64 %28, !dbg !5356
  call void @llvm.dbg.value(metadata %class.IPRewriterEntry** %29, metadata !5276, metadata !DIExpression(DW_OP_LLVM_fragment, 64, 64)), !dbg !5321
  %30 = load %class.IPRewriterEntry*, %class.IPRewriterEntry** %29, align 8, !dbg !5358, !tbaa !3948, !noalias !5324
  %31 = icmp eq %class.IPRewriterEntry* %30, null, !dbg !5358
  br i1 %31, label %23, label %32, !dbg !5359, !llvm.loop !5360

32:                                               ; preds = %27, %23
  %33 = phi i32 [ %25, %27 ], [ %16, %23 ], !dbg !5338
  %34 = phi %class.IPRewriterEntry* [ %30, %27 ], [ null, %23 ], !dbg !5362
  call void @llvm.dbg.value(metadata i32 %33, metadata !5276, metadata !DIExpression(DW_OP_LLVM_fragment, 128, 32)), !dbg !5321
  call void @llvm.dbg.value(metadata %class.IPRewriterEntry* %34, metadata !5276, metadata !DIExpression(DW_OP_LLVM_fragment, 0, 64)), !dbg !5321
  store i32 %33, i32* %11, align 4, !dbg !5363, !tbaa !4092, !noalias !5324
  br label %35, !dbg !5364

35:                                               ; preds = %18, %32
  %36 = phi i32 [ %33, %32 ], [ %12, %18 ], !dbg !5365
  %37 = phi %class.IPRewriterEntry* [ %34, %32 ], [ %21, %18 ]
  call void @llvm.dbg.value(metadata %class.IPRewriterEntry* %37, metadata !5276, metadata !DIExpression(DW_OP_LLVM_fragment, 0, 64)), !dbg !5321
  call void @llvm.dbg.value(metadata i32 %36, metadata !5276, metadata !DIExpression(DW_OP_LLVM_fragment, 128, 32)), !dbg !5321
  call void @llvm.dbg.value(metadata %class.HashContainer_const_iterator* undef, metadata !5366, metadata !DIExpression()), !dbg !5370
  %38 = icmp eq %class.IPRewriterEntry* %37, null, !dbg !5373
  br i1 %38, label %41, label %39, !dbg !5374

39:                                               ; preds = %35
  %40 = ptrtoint %class.IPRewriterEntry* %37 to i64, !dbg !5375
  call void @llvm.dbg.value(metadata i64 %40, metadata !5276, metadata !DIExpression(DW_OP_LLVM_fragment, 0, 64)), !dbg !5321
  br label %44, !dbg !5374

41:                                               ; preds = %92, %80, %3, %35
  invoke void @_ZN11StringAccum11take_stringEv(%class.String* sret %0, %class.StringAccum* nonnull %4)
          to label %96 unwind label %103, !dbg !5376

42:                                               ; preds = %59, %44
  %43 = landingpad { i8*, i32 }
          cleanup, !dbg !5377
  br label %105, !dbg !5378

44:                                               ; preds = %39, %92
  %45 = phi i64 [ %94, %92 ], [ %40, %39 ]
  %46 = phi i32 [ %93, %92 ], [ %36, %39 ]
  %47 = inttoptr i64 %45 to %class.IPRewriterEntry*, !dbg !5373
  call void @llvm.dbg.value(metadata i64 %45, metadata !5276, metadata !DIExpression(DW_OP_LLVM_fragment, 0, 64)), !dbg !5321
  call void @llvm.dbg.value(metadata i32 %46, metadata !5276, metadata !DIExpression(DW_OP_LLVM_fragment, 128, 32)), !dbg !5321
  call void @llvm.dbg.value(metadata %class.IPRewriterEntry* %47, metadata !5379, metadata !DIExpression()), !dbg !5382
  %48 = getelementptr inbounds %class.IPRewriterEntry, %class.IPRewriterEntry* %47, i64 0, i32 2, !dbg !5385
  %49 = load i8, i8* %48, align 1, !dbg !5385, !tbaa !5386
  %50 = zext i8 %49 to i64, !dbg !5388
  %51 = sub nsw i64 0, %50, !dbg !5388
  %52 = getelementptr inbounds %class.IPRewriterEntry, %class.IPRewriterEntry* %47, i64 %51, !dbg !5388
  %53 = bitcast %class.IPRewriterEntry* %52 to %class.IPRewriterFlow*, !dbg !5389
  call void @llvm.dbg.value(metadata %class.IPRewriterEntry* %47, metadata !5390, metadata !DIExpression()), !dbg !5393
  %54 = icmp ne i8 %49, 0, !dbg !5395
  invoke void @_ZNK14IPRewriterFlow7unparseER11StringAccumbj(%class.IPRewriterFlow* nonnull %53, %class.StringAccum* nonnull dereferenceable(16) %4, i1 zeroext %54, i32 %5)
          to label %55 unwind label %42, !dbg !5396

55:                                               ; preds = %44
  call void @llvm.dbg.value(metadata %class.StringAccum* %4, metadata !5397, metadata !DIExpression()), !dbg !5403
  call void @llvm.dbg.value(metadata i8 10, metadata !5402, metadata !DIExpression()), !dbg !5403
  call void @llvm.dbg.value(metadata %class.StringAccum* %4, metadata !5405, metadata !DIExpression()), !dbg !5409
  call void @llvm.dbg.value(metadata i8 10, metadata !5408, metadata !DIExpression()), !dbg !5409
  %56 = load i32, i32* %8, align 8, !dbg !5411, !tbaa !5413
  %57 = load i32, i32* %9, align 4, !dbg !5415, !tbaa !5416
  %58 = icmp slt i32 %56, %57, !dbg !5417
  br i1 %58, label %65, label %59, !dbg !5418

59:                                               ; preds = %55
  %60 = invoke i8* @_ZN11StringAccum4growEi(%class.StringAccum* nonnull %4, i32 %56)
          to label %61 unwind label %42, !dbg !5419

61:                                               ; preds = %59
  %62 = icmp eq i8* %60, null, !dbg !5419
  br i1 %62, label %71, label %63, !dbg !5420

63:                                               ; preds = %61
  %64 = load i32, i32* %8, align 8, !dbg !5421, !tbaa !5413
  br label %65, !dbg !5420

65:                                               ; preds = %63, %55
  %66 = phi i32 [ %64, %63 ], [ %56, %55 ], !dbg !5421
  %67 = load i8*, i8** %7, align 8, !dbg !5422, !tbaa !5423
  %68 = add nsw i32 %66, 1, !dbg !5421
  store i32 %68, i32* %8, align 8, !dbg !5421, !tbaa !5413
  %69 = sext i32 %66 to i64, !dbg !5424
  %70 = getelementptr inbounds i8, i8* %67, i64 %69, !dbg !5424
  store i8 10, i8* %70, align 1, !dbg !5425, !tbaa !4096
  br label %71, !dbg !5424

71:                                               ; preds = %61, %65
  call void @llvm.dbg.value(metadata %class.HashContainer_const_iterator* undef, metadata !5345, metadata !DIExpression()), !dbg !5426
  call void @llvm.dbg.value(metadata %class.IPRewriterEntry* %47, metadata !5428, metadata !DIExpression()), !dbg !5431
  %72 = getelementptr inbounds %class.IPRewriterEntry, %class.IPRewriterEntry* %47, i64 0, i32 3, !dbg !5433
  %73 = load %class.IPRewriterEntry*, %class.IPRewriterEntry** %72, align 8, !dbg !5434, !tbaa !3948
  %74 = icmp eq %class.IPRewriterEntry* %73, null, !dbg !5434
  br i1 %74, label %77, label %75, !dbg !5435

75:                                               ; preds = %71
  %76 = ptrtoint %class.IPRewriterEntry* %73 to i64, !dbg !5435
  call void @llvm.dbg.value(metadata %class.IPRewriterEntry* undef, metadata !5428, metadata !DIExpression()), !dbg !5436
  call void @llvm.dbg.value(metadata %class.IPRewriterEntry** %72, metadata !5276, metadata !DIExpression(DW_OP_LLVM_fragment, 64, 64)), !dbg !5321
  call void @llvm.dbg.value(metadata i64 %76, metadata !5276, metadata !DIExpression(DW_OP_LLVM_fragment, 0, 64)), !dbg !5321
  br label %92, !dbg !5439

77:                                               ; preds = %71
  %78 = load i32, i32* %15, align 8, !dbg !5440, !tbaa !4085
  %79 = icmp eq i32 %46, %78, !dbg !5441
  br i1 %79, label %92, label %80, !dbg !5442

80:                                               ; preds = %77, %84
  %81 = phi i32 [ %82, %84 ], [ %46, %77 ]
  %82 = add i32 %81, 1, !dbg !5443
  %83 = icmp eq i32 %82, %78, !dbg !5444
  br i1 %83, label %41, label %84, !dbg !5445

84:                                               ; preds = %80
  %85 = load %class.IPRewriterEntry**, %class.IPRewriterEntry*** %13, align 8, !dbg !5446, !tbaa !4089
  %86 = zext i32 %82 to i64, !dbg !5447
  %87 = getelementptr inbounds %class.IPRewriterEntry*, %class.IPRewriterEntry** %85, i64 %86, !dbg !5447
  call void @llvm.dbg.value(metadata %class.IPRewriterEntry** %87, metadata !5276, metadata !DIExpression(DW_OP_LLVM_fragment, 64, 64)), !dbg !5321
  %88 = load %class.IPRewriterEntry*, %class.IPRewriterEntry** %87, align 8, !dbg !5448, !tbaa !3948
  %89 = icmp eq %class.IPRewriterEntry* %88, null, !dbg !5448
  br i1 %89, label %80, label %90, !dbg !5449, !llvm.loop !5450

90:                                               ; preds = %84
  call void @llvm.dbg.value(metadata i32 %82, metadata !5276, metadata !DIExpression(DW_OP_LLVM_fragment, 128, 32)), !dbg !5321
  %91 = ptrtoint %class.IPRewriterEntry* %88 to i64, !dbg !5452
  call void @llvm.dbg.value(metadata i64 %91, metadata !5276, metadata !DIExpression(DW_OP_LLVM_fragment, 0, 64)), !dbg !5321
  br label %92, !dbg !5454

92:                                               ; preds = %75, %77, %90
  %93 = phi i32 [ %46, %77 ], [ %82, %90 ], [ %46, %75 ], !dbg !5321
  %94 = phi i64 [ %45, %77 ], [ %91, %90 ], [ %76, %75 ], !dbg !5321
  call void @llvm.dbg.value(metadata i64 %94, metadata !5276, metadata !DIExpression(DW_OP_LLVM_fragment, 0, 64)), !dbg !5321
  call void @llvm.dbg.value(metadata i32 %93, metadata !5276, metadata !DIExpression(DW_OP_LLVM_fragment, 128, 32)), !dbg !5321
  call void @llvm.dbg.value(metadata %class.HashContainer_const_iterator* undef, metadata !5366, metadata !DIExpression()), !dbg !5370
  %95 = icmp eq i64 %94, 0, !dbg !5373
  br i1 %95, label %41, label %44, !dbg !5374, !llvm.loop !5455

96:                                               ; preds = %41
  call void @llvm.dbg.value(metadata %class.StringAccum* %4, metadata !5457, metadata !DIExpression()) #17, !dbg !5460
  %97 = load i32, i32* %9, align 4, !dbg !5462, !tbaa !5416
  %98 = icmp sgt i32 %97, 0, !dbg !5465
  br i1 %98, label %99, label %102, !dbg !5466

99:                                               ; preds = %96
  %100 = load i8*, i8** %7, align 8, !dbg !5467, !tbaa !5423
  %101 = getelementptr inbounds i8, i8* %100, i64 -12, !dbg !5467
  call void @_ZdaPv(i8* nonnull %101) #18, !dbg !5467
  br label %102, !dbg !5467

102:                                              ; preds = %96, %99
  call void @llvm.lifetime.end.p0i8(i64 16, i8* nonnull %6) #17, !dbg !5468
  ret void, !dbg !5468

103:                                              ; preds = %41
  %104 = landingpad { i8*, i32 }
          cleanup, !dbg !5468
  br label %105, !dbg !5468

105:                                              ; preds = %103, %42
  %106 = phi { i8*, i32 } [ %104, %103 ], [ %43, %42 ]
  call void @llvm.dbg.value(metadata %class.StringAccum* %4, metadata !5457, metadata !DIExpression()) #17, !dbg !5469
  %107 = load i32, i32* %9, align 4, !dbg !5471, !tbaa !5416
  %108 = icmp sgt i32 %107, 0, !dbg !5472
  br i1 %108, label %109, label %112, !dbg !5473

109:                                              ; preds = %105
  %110 = load i8*, i8** %7, align 8, !dbg !5474, !tbaa !5423
  %111 = getelementptr inbounds i8, i8* %110, i64 -12, !dbg !5474
  call void @_ZdaPv(i8* nonnull %111) #18, !dbg !5474
  br label %112, !dbg !5474

112:                                              ; preds = %105, %109
  call void @llvm.lifetime.end.p0i8(i64 16, i8* nonnull %6) #17, !dbg !5468
  resume { i8*, i32 } %106, !dbg !5468
}

declare !dbg !2903 i32 @_Z13click_jiffiesv() local_unnamed_addr #2

declare void @_ZNK14IPRewriterFlow7unparseER11StringAccumbj(%class.IPRewriterFlow*, %class.StringAccum* dereferenceable(16), i1 zeroext, i32) local_unnamed_addr #2

declare void @_ZN11StringAccum11take_stringEv(%class.String* sret, %class.StringAccum*) local_unnamed_addr #2

; Function Attrs: sspstrong uwtable
define dso_local void @_ZN15MyIPRewriterMod12add_handlersEv(%class.MyIPRewriterMod* %0) unnamed_addr #0 align 2 !dbg !5475 {
  call void @llvm.dbg.value(metadata %class.MyIPRewriterMod* %0, metadata !5477, metadata !DIExpression()), !dbg !5478
  %2 = bitcast %class.MyIPRewriterMod* %0 to %class.Element*, !dbg !5479
  tail call void @_ZN7Element16add_read_handlerEPKcPF6StringPS_PvEij(%class.Element* %2, i8* getelementptr inbounds ([10 x i8], [10 x i8]* @.str.8, i64 0, i64 0), void (%class.String*, %class.Element*, i8*)* nonnull @_ZN11TCPRewriter20tcp_mappings_handlerEP7ElementPv, i32 0, i32 0), !dbg !5479
  tail call void @_ZN7Element16add_read_handlerEPKcPF6StringPS_PvEij(%class.Element* %2, i8* getelementptr inbounds ([10 x i8], [10 x i8]* @.str.9, i64 0, i64 0), void (%class.String*, %class.Element*, i8*)* nonnull @_ZN15MyIPRewriterMod20udp_mappings_handlerEP7ElementPv, i32 0, i32 0), !dbg !5480
  tail call void @_ZN7Element16add_read_handlerEPKcPF6StringPS_PvEij(%class.Element* %2, i8* getelementptr inbounds ([13 x i8], [13 x i8]* @.str.10, i64 0, i64 0), void (%class.String*, %class.Element*, i8*)* nonnull @_ZN11TCPRewriter20tcp_mappings_handlerEP7ElementPv, i32 0, i32 512), !dbg !5481
  tail call void @_ZN7Element16add_read_handlerEPKcPF6StringPS_PvEij(%class.Element* %2, i8* getelementptr inbounds ([13 x i8], [13 x i8]* @.str.11, i64 0, i64 0), void (%class.String*, %class.Element*, i8*)* nonnull @_ZN15MyIPRewriterMod20udp_mappings_handlerEP7ElementPv, i32 0, i32 512), !dbg !5482
  tail call void @_ZN7Element11set_handlerEPKciPFiiR6StringPS_PK7HandlerP12ErrorHandlerEii(%class.Element* %2, i8* getelementptr inbounds ([11 x i8], [11 x i8]* @.str.12, i64 0, i64 0), i32 5, i32 (i32, %class.String*, %class.Element*, %class.Handler*, %class.ErrorHandler*)* nonnull @_ZN11TCPRewriter18tcp_lookup_handlerEiR6StringP7ElementPK7HandlerP12ErrorHandler, i32 0, i32 0), !dbg !5483
  %3 = getelementptr %class.MyIPRewriterMod, %class.MyIPRewriterMod* %0, i64 0, i32 0, i32 0, !dbg !5484
  tail call void @_ZN14IPRewriterBase21add_rewriter_handlersEb(%class.IPRewriterBase* %3, i1 zeroext true), !dbg !5484
  ret void, !dbg !5485
}

declare void @_ZN7Element16add_read_handlerEPKcPF6StringPS_PvEij(%class.Element*, i8*, void (%class.String*, %class.Element*, i8*)*, i32, i32) local_unnamed_addr #2

declare void @_ZN11TCPRewriter20tcp_mappings_handlerEP7ElementPv(%class.String* sret, %class.Element*, i8*) #2

declare void @_ZN7Element11set_handlerEPKciPFiiR6StringPS_PK7HandlerP12ErrorHandlerEii(%class.Element*, i8*, i32, i32 (i32, %class.String*, %class.Element*, %class.Handler*, %class.ErrorHandler*)*, i32, i32) local_unnamed_addr #2

declare i32 @_ZN11TCPRewriter18tcp_lookup_handlerEiR6StringP7ElementPK7HandlerP12ErrorHandler(i32, %class.String* dereferenceable(24), %class.Element*, %class.Handler*, %class.ErrorHandler*) #2

declare void @_ZN14IPRewriterBase21add_rewriter_handlersEb(%class.IPRewriterBase*, i1 zeroext) local_unnamed_addr #2

declare %class.Packet* @_ZN7Element4pullEi(%class.Element*, i32) unnamed_addr #2

declare %class.Packet* @_ZN7Element13simple_actionEP6Packet(%class.Element*, %class.Packet*) unnamed_addr #2

declare zeroext i1 @_ZN7Element8run_taskEP4Task(%class.Element*, %class.Task*) unnamed_addr #2

declare void @_ZN7Element9run_timerEP5Timer(%class.Element*, %class.Timer*) unnamed_addr #2

declare void @_ZN7Element8selectedEii(%class.Element*, i32, i32) unnamed_addr #2

declare void @_ZN7Element8selectedEi(%class.Element*, i32) unnamed_addr #2

; Function Attrs: nounwind sspstrong uwtable
define linkonce_odr dso_local i8* @_ZNK15MyIPRewriterMod10class_nameEv(%class.MyIPRewriterMod* %0) unnamed_addr #4 comdat align 2 !dbg !5486 {
  call void @llvm.dbg.value(metadata %class.MyIPRewriterMod* %0, metadata !5488, metadata !DIExpression()), !dbg !5490
  ret i8* getelementptr inbounds ([13 x i8], [13 x i8]* @.str.15, i64 0, i64 0), !dbg !5491
}

; Function Attrs: nounwind sspstrong uwtable
define linkonce_odr dso_local i8* @_ZNK14IPRewriterBase10port_countEv(%class.IPRewriterBase* %0) unnamed_addr #4 comdat align 2 !dbg !5492 {
  call void @llvm.dbg.value(metadata %class.IPRewriterBase* %0, metadata !5499, metadata !DIExpression()), !dbg !5501
  ret i8* getelementptr inbounds ([6 x i8], [6 x i8]* @.str.16, i64 0, i64 0), !dbg !5502
}

; Function Attrs: nounwind sspstrong uwtable
define linkonce_odr dso_local i8* @_ZNK14IPRewriterBase10processingEv(%class.IPRewriterBase* %0) unnamed_addr #4 comdat align 2 !dbg !5503 {
  call void @llvm.dbg.value(metadata %class.IPRewriterBase* %0, metadata !5506, metadata !DIExpression()), !dbg !5507
  ret i8* getelementptr inbounds ([0 x i8], [0 x i8]* @_ZN7Element4PUSHE, i64 0, i64 0), !dbg !5508
}

declare i8* @_ZNK7Element9flow_codeEv(%class.Element*) unnamed_addr #2

declare i8* @_ZNK7Element5flagsEv(%class.Element*) unnamed_addr #2

declare i8* @_ZN7Element9port_castEbiPKc(%class.Element*, i1 zeroext, i32, i8*) unnamed_addr #2

; Function Attrs: nounwind sspstrong uwtable
define linkonce_odr dso_local i32 @_ZNK14IPRewriterBase15configure_phaseEv(%class.IPRewriterBase* %0) unnamed_addr #4 comdat align 2 !dbg !5509 {
  call void @llvm.dbg.value(metadata %class.IPRewriterBase* %0, metadata !5514, metadata !DIExpression()), !dbg !5515
  ret i32 100, !dbg !5516
}

declare i32 @_ZN14IPRewriterBase10initializeEP12ErrorHandler(%class.IPRewriterBase*, %class.ErrorHandler*) unnamed_addr #2

declare void @_ZN7Element10take_stateEPS_P12ErrorHandler(%class.Element*, %class.Element*, %class.ErrorHandler*) unnamed_addr #2

declare %class.Element* @_ZNK7Element15hotswap_elementEv(%class.Element*) unnamed_addr #2

declare void @_ZN14IPRewriterBase7cleanupEN7Element12CleanupStageE(%class.IPRewriterBase*, i32) unnamed_addr #2

declare void @_ZNK7Element11declarationEv(%class.String* sret, %class.Element*) unnamed_addr #2

declare zeroext i1 @_ZNK7Element20can_live_reconfigureEv(%class.Element*) unnamed_addr #2

declare i32 @_ZN7Element16live_reconfigureER6VectorI6StringEP12ErrorHandler(%class.Element*, %class.Vector.0* dereferenceable(16), %class.ErrorHandler*) unnamed_addr #2

declare i32 @_ZN14IPRewriterBase5llrpcEjPv(%class.IPRewriterBase*, i32, i8*) unnamed_addr #2

; Function Attrs: nounwind sspstrong uwtable
define linkonce_odr dso_local %class.HashContainer* @_ZN15MyIPRewriterMod7get_mapEi(%class.MyIPRewriterMod* %0, i32 %1) unnamed_addr #4 comdat align 2 !dbg !5517 {
  call void @llvm.dbg.value(metadata %class.MyIPRewriterMod* %0, metadata !5519, metadata !DIExpression()), !dbg !5521
  call void @llvm.dbg.value(metadata i32 %1, metadata !5520, metadata !DIExpression()), !dbg !5521
  switch i32 %1, label %7 [
    i32 0, label %3
    i32 1, label %5
  ], !dbg !5522

3:                                                ; preds = %2
  %4 = getelementptr inbounds %class.MyIPRewriterMod, %class.MyIPRewriterMod* %0, i64 0, i32 0, i32 0, i32 1, !dbg !5523
  br label %7, !dbg !5525

5:                                                ; preds = %2
  %6 = getelementptr inbounds %class.MyIPRewriterMod, %class.MyIPRewriterMod* %0, i64 0, i32 4, !dbg !5526
  br label %7, !dbg !5528

7:                                                ; preds = %2, %5, %3
  %8 = phi %class.HashContainer* [ %4, %3 ], [ %6, %5 ], [ null, %2 ], !dbg !5529
  ret %class.HashContainer* %8, !dbg !5530
}

; Function Attrs: inlinehint sspstrong uwtable
define linkonce_odr dso_local %class.IPRewriterEntry* @_ZN15MyIPRewriterMod9get_entryEiRK8IPFlowIDi(%class.MyIPRewriterMod* %0, i32 %1, %class.IPFlowID* dereferenceable(12) %2, i32 %3) unnamed_addr #12 comdat align 2 !dbg !5531 {
  %5 = alloca %class.IPFlowID, align 4
  call void @llvm.dbg.value(metadata %class.MyIPRewriterMod* %0, metadata !5533, metadata !DIExpression()), !dbg !5543
  call void @llvm.dbg.value(metadata i32 %1, metadata !5534, metadata !DIExpression()), !dbg !5543
  call void @llvm.dbg.value(metadata %class.IPFlowID* %2, metadata !5535, metadata !DIExpression()), !dbg !5543
  call void @llvm.dbg.value(metadata i32 %3, metadata !5536, metadata !DIExpression()), !dbg !5543
  switch i32 %1, label %24 [
    i32 6, label %6
    i32 17, label %9
  ], !dbg !5544

6:                                                ; preds = %4
  %7 = getelementptr %class.MyIPRewriterMod, %class.MyIPRewriterMod* %0, i64 0, i32 0, i32 0, !dbg !5545
  %8 = tail call %class.IPRewriterEntry* @_ZN14IPRewriterBase9get_entryEiRK8IPFlowIDi(%class.IPRewriterBase* %7, i32 6, %class.IPFlowID* nonnull dereferenceable(12) %2, i32 %3), !dbg !5545
  br label %24, !dbg !5547

9:                                                ; preds = %4
  %10 = getelementptr inbounds %class.MyIPRewriterMod, %class.MyIPRewriterMod* %0, i64 0, i32 4, !dbg !5548
  %11 = tail call %class.IPRewriterEntry* @_ZNK13HashContainerI15IPRewriterEntry21HashContainer_adapterIS0_EE3getERK8IPFlowID(%class.HashContainer* nonnull %10, %class.IPFlowID* nonnull dereferenceable(12) %2), !dbg !5549
  call void @llvm.dbg.value(metadata %class.IPRewriterEntry* %11, metadata !5537, metadata !DIExpression()), !dbg !5543
  %12 = icmp eq %class.IPRewriterEntry* %11, null, !dbg !5550
  br i1 %12, label %13, label %24, !dbg !5551

13:                                               ; preds = %9
  call void @llvm.dbg.value(metadata %class.MyIPRewriterMod* %0, metadata !5552, metadata !DIExpression(DW_OP_plus_uconst, 144, DW_OP_stack_value)), !dbg !5734
  %14 = getelementptr inbounds %class.MyIPRewriterMod, %class.MyIPRewriterMod* %0, i64 0, i32 0, i32 0, i32 2, i32 0, i32 1, !dbg !5736
  %15 = load i32, i32* %14, align 8, !dbg !5736, !tbaa !5737
  %16 = icmp ugt i32 %15, %3, !dbg !5740
  br i1 %16, label %17, label %24, !dbg !5741

17:                                               ; preds = %13
  %18 = getelementptr inbounds %class.MyIPRewriterMod, %class.MyIPRewriterMod* %0, i64 0, i32 0, i32 0, i32 2, !dbg !5742
  call void @llvm.dbg.value(metadata %class.Vector.13* %18, metadata !5552, metadata !DIExpression()), !dbg !5734
  %19 = tail call dereferenceable(56) %class.IPRewriterInput* @_ZN6VectorI15IPRewriterInputEixEi(%class.Vector.13* nonnull %18, i32 %3), !dbg !5743
  call void @llvm.dbg.value(metadata %class.IPRewriterInput* %19, metadata !5538, metadata !DIExpression()), !dbg !5744
  %20 = bitcast %class.IPFlowID* %5 to i8*, !dbg !5745
  call void @llvm.lifetime.start.p0i8(i64 12, i8* nonnull %20) #17, !dbg !5745
  call void @llvm.dbg.declare(metadata %class.IPFlowID* %5, metadata !5542, metadata !DIExpression()), !dbg !5746
  call void @llvm.dbg.value(metadata %class.IPFlowID* %5, metadata !5747, metadata !DIExpression()), !dbg !5751
  call void @llvm.dbg.value(metadata %struct.uninitialized_type* undef, metadata !5750, metadata !DIExpression()), !dbg !5751
  call void @llvm.dbg.value(metadata %class.IPFlowID* %5, metadata !3907, metadata !DIExpression()), !dbg !5753
  %21 = getelementptr inbounds %class.IPFlowID, %class.IPFlowID* %5, i64 0, i32 0, i32 0, !dbg !5755
  store i32 0, i32* %21, align 4, !dbg !5755, !tbaa !5756
  call void @llvm.dbg.value(metadata %class.IPFlowID* %5, metadata !3907, metadata !DIExpression(DW_OP_plus_uconst, 4, DW_OP_stack_value)), !dbg !5757
  %22 = getelementptr inbounds %class.IPFlowID, %class.IPFlowID* %5, i64 0, i32 1, i32 0, !dbg !5759
  store i32 0, i32* %22, align 4, !dbg !5759, !tbaa !5756
  %23 = call i32 @_ZN15IPRewriterInput14rewrite_flowidERK8IPFlowIDRS0_P6Packeti(%class.IPRewriterInput* nonnull %19, %class.IPFlowID* nonnull dereferenceable(12) %2, %class.IPFlowID* nonnull dereferenceable(12) %5, %class.Packet* null, i32 1), !dbg !5760
  call void @llvm.dbg.value(metadata %class.IPRewriterEntry* null, metadata !5537, metadata !DIExpression()), !dbg !5543
  call void @llvm.lifetime.end.p0i8(i64 12, i8* nonnull %20) #17, !dbg !5762
  br label %24, !dbg !5763

24:                                               ; preds = %13, %17, %9, %4, %6
  %25 = phi %class.IPRewriterEntry* [ %8, %6 ], [ null, %4 ], [ %11, %9 ], [ null, %17 ], [ null, %13 ], !dbg !5543
  ret %class.IPRewriterEntry* %25, !dbg !5764
}

; Function Attrs: inlinehint sspstrong uwtable
define linkonce_odr dso_local void @_ZN15MyIPRewriterMod12destroy_flowEP14IPRewriterFlow(%class.MyIPRewriterMod* %0, %class.IPRewriterFlow* %1) unnamed_addr #12 comdat align 2 personality i32 (...)* @__gxx_personality_v0 !dbg !5765 {
  call void @llvm.dbg.value(metadata %class.MyIPRewriterMod* %0, metadata !5767, metadata !DIExpression()), !dbg !5769
  call void @llvm.dbg.value(metadata %class.IPRewriterFlow* %1, metadata !5768, metadata !DIExpression()), !dbg !5769
  call void @llvm.dbg.value(metadata %class.IPRewriterFlow* %1, metadata !5770, metadata !DIExpression()), !dbg !5773
  %3 = getelementptr inbounds %class.IPRewriterFlow, %class.IPRewriterFlow* %1, i64 0, i32 5, !dbg !5776
  %4 = load i8, i8* %3, align 4, !dbg !5776, !tbaa !5777
  %5 = icmp eq i8 %4, 6, !dbg !5779
  %6 = getelementptr %class.MyIPRewriterMod, %class.MyIPRewriterMod* %0, i64 0, i32 0, i32 0, !dbg !5780
  br i1 %5, label %7, label %24, !dbg !5781

7:                                                ; preds = %2
  call void @llvm.dbg.value(metadata %class.MyIPRewriterMod* %0, metadata !5782, metadata !DIExpression()), !dbg !5790
  call void @llvm.dbg.value(metadata %class.IPRewriterFlow* %1, metadata !5789, metadata !DIExpression()), !dbg !5790
  %8 = getelementptr inbounds %class.MyIPRewriterMod, %class.MyIPRewriterMod* %0, i64 0, i32 0, i32 0, i32 1, !dbg !5792
  tail call void @_ZN14IPRewriterBase10unmap_flowEP14IPRewriterFlowR13HashContainerI15IPRewriterEntry21HashContainer_adapterIS3_EEPS6_(%class.IPRewriterBase* %6, %class.IPRewriterFlow* nonnull %1, %class.HashContainer* nonnull dereferenceable(32) %8, %class.HashContainer* null), !dbg !5793
  call void @llvm.dbg.value(metadata %class.IPRewriterFlow* %1, metadata !5794, metadata !DIExpression()) #17, !dbg !5799
  %9 = getelementptr inbounds %class.IPRewriterFlow, %class.IPRewriterFlow* %1, i64 1, !dbg !5801
  %10 = bitcast %class.IPRewriterFlow* %9 to %"struct.TCPRewriter::TCPFlow::delta_transition"**, !dbg !5801
  %11 = load %"struct.TCPRewriter::TCPFlow::delta_transition"*, %"struct.TCPRewriter::TCPFlow::delta_transition"** %10, align 8, !dbg !5801, !tbaa !5802
  call void @llvm.dbg.value(metadata %"struct.TCPRewriter::TCPFlow::delta_transition"* %11, metadata !5797, metadata !DIExpression()) #17, !dbg !5804
  %12 = icmp eq %"struct.TCPRewriter::TCPFlow::delta_transition"* %11, null, !dbg !5805
  br i1 %12, label %22, label %13, !dbg !5806

13:                                               ; preds = %7, %13
  %14 = phi %"struct.TCPRewriter::TCPFlow::delta_transition"* [ %20, %13 ], [ %11, %7 ]
  call void @llvm.dbg.value(metadata %"struct.TCPRewriter::TCPFlow::delta_transition"* %14, metadata !5807, metadata !DIExpression()) #17, !dbg !5811
  %15 = getelementptr inbounds %"struct.TCPRewriter::TCPFlow::delta_transition", %"struct.TCPRewriter::TCPFlow::delta_transition"* %14, i64 0, i32 2, !dbg !5814
  %16 = load i64, i64* %15, align 8, !dbg !5814, !tbaa !5815
  %17 = and i64 %16, -4, !dbg !5817
  %18 = inttoptr i64 %17 to %"struct.TCPRewriter::TCPFlow::delta_transition"*, !dbg !5818
  store %"struct.TCPRewriter::TCPFlow::delta_transition"* %18, %"struct.TCPRewriter::TCPFlow::delta_transition"** %10, align 8, !dbg !5819, !tbaa !5802
  %19 = bitcast %"struct.TCPRewriter::TCPFlow::delta_transition"* %14 to i8*, !dbg !5820
  tail call void @_ZdlPv(i8* %19) #18, !dbg !5820
  %20 = load %"struct.TCPRewriter::TCPFlow::delta_transition"*, %"struct.TCPRewriter::TCPFlow::delta_transition"** %10, align 8, !dbg !5801, !tbaa !5802
  call void @llvm.dbg.value(metadata %"struct.TCPRewriter::TCPFlow::delta_transition"* %20, metadata !5797, metadata !DIExpression()) #17, !dbg !5804
  %21 = icmp eq %"struct.TCPRewriter::TCPFlow::delta_transition"* %20, null, !dbg !5805
  br i1 %21, label %22, label %13, !dbg !5806

22:                                               ; preds = %13, %7
  %23 = getelementptr inbounds %class.MyIPRewriterMod, %class.MyIPRewriterMod* %0, i64 0, i32 0, i32 1, i32 0, !dbg !5821
  call void @llvm.dbg.value(metadata %class.HashAllocator* %23, metadata !5822, metadata !DIExpression()), !dbg !5827
  call void @llvm.dbg.value(metadata %class.IPRewriterFlow* %1, metadata !5825, metadata !DIExpression()), !dbg !5827
  call void @llvm.dbg.value(metadata %class.IPRewriterFlow* %1, metadata !5825, metadata !DIExpression()), !dbg !5827
  br label %33, !dbg !5829

24:                                               ; preds = %2
  %25 = getelementptr inbounds %class.MyIPRewriterMod, %class.MyIPRewriterMod* %0, i64 0, i32 4, !dbg !5830
  call void @llvm.dbg.value(metadata %class.IPRewriterFlow* %1, metadata !5832, metadata !DIExpression()), !dbg !5835
  %26 = getelementptr inbounds %class.IPRewriterFlow, %class.IPRewriterFlow* %1, i64 0, i32 9, !dbg !5837
  %27 = load %class.IPRewriterInput*, %class.IPRewriterInput** %26, align 8, !dbg !5837, !tbaa !5838
  call void @llvm.dbg.value(metadata %class.IPRewriterInput* %27, metadata !5839, metadata !DIExpression()), !dbg !5843
  %28 = getelementptr inbounds %class.IPRewriterInput, %class.IPRewriterInput* %27, i64 0, i32 4, !dbg !5845
  %29 = bitcast %class.IPRewriterBase** %28 to %class.MyIPRewriterMod**, !dbg !5845
  %30 = load %class.MyIPRewriterMod*, %class.MyIPRewriterMod** %29, align 8, !dbg !5845, !tbaa !5846
  call void @llvm.dbg.value(metadata %class.MyIPRewriterMod* %30, metadata !5842, metadata !DIExpression()), !dbg !5843
  %31 = getelementptr inbounds %class.MyIPRewriterMod, %class.MyIPRewriterMod* %30, i64 0, i32 4, !dbg !5848
  tail call void @_ZN14IPRewriterBase10unmap_flowEP14IPRewriterFlowR13HashContainerI15IPRewriterEntry21HashContainer_adapterIS3_EEPS6_(%class.IPRewriterBase* %6, %class.IPRewriterFlow* nonnull %1, %class.HashContainer* nonnull dereferenceable(32) %25, %class.HashContainer* nonnull %31), !dbg !5849
  %32 = getelementptr inbounds %class.MyIPRewriterMod, %class.MyIPRewriterMod* %0, i64 0, i32 5, i32 0, !dbg !5850
  call void @llvm.dbg.value(metadata %class.HashAllocator* %32, metadata !5822, metadata !DIExpression()), !dbg !5851
  call void @llvm.dbg.value(metadata %class.IPRewriterFlow* %1, metadata !5825, metadata !DIExpression()), !dbg !5851
  call void @llvm.dbg.value(metadata %class.IPRewriterFlow* %1, metadata !5825, metadata !DIExpression()), !dbg !5851
  br label %33, !dbg !5853

33:                                               ; preds = %24, %22
  %34 = phi %class.HashAllocator* [ %32, %24 ], [ %23, %22 ]
  %35 = bitcast %class.HashAllocator* %34 to i64*, !dbg !5780
  %36 = load i64, i64* %35, align 8, !dbg !5780, !tbaa !5856
  %37 = bitcast %class.IPRewriterFlow* %1 to i64*, !dbg !5780
  store i64 %36, i64* %37, align 8, !dbg !5780, !tbaa !5858
  %38 = bitcast %class.HashAllocator* %34 to %class.IPRewriterFlow**, !dbg !5780
  store %class.IPRewriterFlow* %1, %class.IPRewriterFlow** %38, align 8, !dbg !5780, !tbaa !5856
  ret void, !dbg !5860
}

; Function Attrs: sspstrong uwtable
define linkonce_odr dso_local i32 @_ZN15MyIPRewriterMod18best_effort_expiryEPK14IPRewriterFlow(%class.MyIPRewriterMod* %0, %class.IPRewriterFlow* %1) unnamed_addr #0 comdat align 2 !dbg !5861 {
  call void @llvm.dbg.value(metadata %class.MyIPRewriterMod* %0, metadata !5863, metadata !DIExpression()), !dbg !5865
  call void @llvm.dbg.value(metadata %class.IPRewriterFlow* %1, metadata !5864, metadata !DIExpression()), !dbg !5865
  call void @llvm.dbg.value(metadata %class.IPRewriterFlow* %1, metadata !5770, metadata !DIExpression()), !dbg !5866
  %3 = getelementptr inbounds %class.IPRewriterFlow, %class.IPRewriterFlow* %1, i64 0, i32 5, !dbg !5869
  %4 = load i8, i8* %3, align 4, !dbg !5869, !tbaa !5777
  %5 = icmp eq i8 %4, 6, !dbg !5870
  %6 = getelementptr inbounds %class.IPRewriterFlow, %class.IPRewriterFlow* %1, i64 0, i32 3, !dbg !5871
  %7 = load i32, i32* %6, align 4, !dbg !5871, !tbaa !5872
  %8 = getelementptr inbounds %class.IPRewriterFlow, %class.IPRewriterFlow* %1, i64 0, i32 6, !dbg !5871
  %9 = load i8, i8* %8, align 1, !dbg !5871, !tbaa !5873
  br i1 %5, label %10, label %25, !dbg !5874

10:                                               ; preds = %2
  call void @llvm.dbg.value(metadata %class.MyIPRewriterMod* %0, metadata !5875, metadata !DIExpression()), !dbg !5882
  call void @llvm.dbg.value(metadata %class.IPRewriterFlow* %1, metadata !5881, metadata !DIExpression()), !dbg !5882
  call void @llvm.dbg.value(metadata %class.MyIPRewriterMod* %0, metadata !5884, metadata !DIExpression()), !dbg !5894
  call void @llvm.dbg.value(metadata %class.IPRewriterFlow* %1, metadata !5892, metadata !DIExpression()), !dbg !5894
  call void @llvm.dbg.value(metadata %class.IPRewriterFlow* %1, metadata !5896, metadata !DIExpression()), !dbg !5899
  %11 = and i8 %9, 3, !dbg !5902
  %12 = icmp eq i8 %11, 3, !dbg !5903
  br i1 %12, label %13, label %15, !dbg !5904

13:                                               ; preds = %10
  call void @llvm.dbg.value(metadata %class.MyIPRewriterMod* %0, metadata !5875, metadata !DIExpression()), !dbg !5882
  call void @llvm.dbg.value(metadata %class.MyIPRewriterMod* %0, metadata !5884, metadata !DIExpression()), !dbg !5894
  %14 = getelementptr inbounds %class.MyIPRewriterMod, %class.MyIPRewriterMod* %0, i64 0, i32 0, i32 4, !dbg !5905
  br label %22, !dbg !5906

15:                                               ; preds = %10
  call void @llvm.dbg.value(metadata %class.IPRewriterFlow* %1, metadata !5907, metadata !DIExpression()), !dbg !5910
  %16 = and i8 %9, 12, !dbg !5913
  %17 = icmp eq i8 %16, 12, !dbg !5914
  br i1 %17, label %18, label %20, !dbg !5915

18:                                               ; preds = %15
  %19 = getelementptr inbounds %class.MyIPRewriterMod, %class.MyIPRewriterMod* %0, i64 0, i32 0, i32 3, !dbg !5916
  br label %22, !dbg !5917

20:                                               ; preds = %15
  %21 = getelementptr inbounds %class.MyIPRewriterMod, %class.MyIPRewriterMod* %0, i64 0, i32 0, i32 0, i32 4, i64 0, !dbg !5918
  br label %22, !dbg !5919

22:                                               ; preds = %13, %18, %20
  %23 = phi i32* [ %14, %13 ], [ %19, %18 ], [ %21, %20 ]
  %24 = getelementptr inbounds %class.MyIPRewriterMod, %class.MyIPRewriterMod* %0, i64 0, i32 0, i32 0, i32 4, i64 1, !dbg !5920
  br label %31, !dbg !5921

25:                                               ; preds = %2
  call void @llvm.dbg.value(metadata %class.MyIPRewriterMod* %0, metadata !5922, metadata !DIExpression()), !dbg !5926
  call void @llvm.dbg.value(metadata %class.IPRewriterFlow* %1, metadata !5925, metadata !DIExpression()), !dbg !5926
  call void @llvm.dbg.value(metadata %class.IPRewriterFlow* %1, metadata !5928, metadata !DIExpression()), !dbg !5932
  %26 = icmp ugt i8 %9, 6, !dbg !5935
  %27 = getelementptr inbounds %class.MyIPRewriterMod, %class.MyIPRewriterMod* %0, i64 0, i32 7, !dbg !5936
  %28 = getelementptr inbounds %class.MyIPRewriterMod, %class.MyIPRewriterMod* %0, i64 0, i32 6, i64 0, !dbg !5936
  %29 = select i1 %26, i32* %27, i32* %28, !dbg !5936
  %30 = getelementptr inbounds %class.MyIPRewriterMod, %class.MyIPRewriterMod* %0, i64 0, i32 6, i64 1, !dbg !5937
  br label %31, !dbg !5938

31:                                               ; preds = %25, %22
  %32 = phi i32* [ %30, %25 ], [ %24, %22 ]
  %33 = phi i32* [ %29, %25 ], [ %23, %22 ]
  %34 = load i32, i32* %33, align 4, !dbg !5871, !tbaa !4095
  %35 = add i32 %34, %7, !dbg !5871
  %36 = load i32, i32* %32, align 4, !dbg !5871, !tbaa !4095
  %37 = sub i32 %35, %36, !dbg !5871
  ret i32 %37, !dbg !5939
}

declare i8* @_ZNK6Packet16transport_headerEv(%class.Packet*) local_unnamed_addr #2

; Function Attrs: inlinehint nounwind sspstrong uwtable
define linkonce_odr dso_local i32 @_ZNK7Element8noutputsEv(%class.Element* %0) local_unnamed_addr #13 comdat align 2 !dbg !5940 {
  call void @llvm.dbg.value(metadata %class.Element* %0, metadata !5945, metadata !DIExpression()), !dbg !5946
  %2 = getelementptr inbounds %class.Element, %class.Element* %0, i64 0, i32 3, i64 1, !dbg !5947
  %3 = load i32, i32* %2, align 4, !dbg !5947, !tbaa !4095
  ret i32 %3, !dbg !5948
}

; Function Attrs: noinline optnone sspstrong uwtable
define linkonce_odr dso_local void @_ZNK7Element4Port4pushEP6Packet(%"class.Element::Port"* %0, %class.Packet* %1) local_unnamed_addr #11 comdat align 2 !dbg !5949 {
  %3 = alloca %"class.Element::Port"*, align 8
  %4 = alloca %class.Packet*, align 8
  store %"class.Element::Port"* %0, %"class.Element::Port"** %3, align 8, !tbaa !3948
  call void @llvm.dbg.declare(metadata %"class.Element::Port"** %3, metadata !5982, metadata !DIExpression()), !dbg !5985
  store %class.Packet* %1, %class.Packet** %4, align 8, !tbaa !3948
  call void @llvm.dbg.declare(metadata %class.Packet** %4, metadata !5984, metadata !DIExpression()), !dbg !5986
  %5 = load %"class.Element::Port"*, %"class.Element::Port"** %3, align 8
  %6 = getelementptr inbounds %"class.Element::Port", %"class.Element::Port"* %5, i32 0, i32 0, !dbg !5987
  %7 = load %class.Element*, %class.Element** %6, align 8, !dbg !5987, !tbaa !5988
  %8 = icmp ne %class.Element* %7, null, !dbg !5987
  br i1 %8, label %9, label %12, !dbg !5987

9:                                                ; preds = %2
  %10 = load %class.Packet*, %class.Packet** %4, align 8, !dbg !5987, !tbaa !3948
  %11 = icmp ne %class.Packet* %10, null, !dbg !5987
  br label %12

12:                                               ; preds = %9, %2
  %13 = phi i1 [ false, %2 ], [ %11, %9 ], !dbg !5985
  br i1 %13, label %14, label %15, !dbg !5987

14:                                               ; preds = %12
  br label %16, !dbg !5987

15:                                               ; preds = %12
  call void @__assert_fail(i8* getelementptr inbounds ([8 x i8], [8 x i8]* @.str.13, i64 0, i64 0), i8* getelementptr inbounds ([30 x i8], [30 x i8]* @.str.14, i64 0, i64 0), i32 611, i8* getelementptr inbounds ([41 x i8], [41 x i8]* @__PRETTY_FUNCTION__._ZNK7Element4Port4pushEP6Packet, i64 0, i64 0)) #20, !dbg !5987
  unreachable, !dbg !5987

16:                                               ; preds = %14
  %17 = getelementptr inbounds %"class.Element::Port", %"class.Element::Port"* %5, i32 0, i32 0, !dbg !5990
  %18 = load %class.Element*, %class.Element** %17, align 8, !dbg !5990, !tbaa !5988
  %19 = getelementptr inbounds %"class.Element::Port", %"class.Element::Port"* %5, i32 0, i32 1, !dbg !5991
  %20 = load i32, i32* %19, align 8, !dbg !5991, !tbaa !5992
  %21 = load %class.Packet*, %class.Packet** %4, align 8, !dbg !5993, !tbaa !3948
  %22 = bitcast %class.Element* %18 to void (%class.Element*, i32, %class.Packet*)***, !dbg !5994
  %23 = load void (%class.Element*, i32, %class.Packet*)**, void (%class.Element*, i32, %class.Packet*)*** %22, align 8, !dbg !5994, !tbaa !3891
  %24 = getelementptr inbounds void (%class.Element*, i32, %class.Packet*)*, void (%class.Element*, i32, %class.Packet*)** %23, i64 2, !dbg !5994
  %25 = load void (%class.Element*, i32, %class.Packet*)*, void (%class.Element*, i32, %class.Packet*)** %24, align 8, !dbg !5994
  call void %25(%class.Element* %18, i32 %20, %class.Packet* %21), !dbg !5994
  ret void, !dbg !5995
}

declare i8* @_ZN11StringAccum4growEi(%class.StringAccum*, i32) local_unnamed_addr #2

; Function Attrs: nobuiltin nounwind
declare void @_ZdaPv(i8*) local_unnamed_addr #5

declare %class.IPRewriterEntry* @_ZN14IPRewriterBase9get_entryEiRK8IPFlowIDi(%class.IPRewriterBase*, i32, %class.IPFlowID* dereferenceable(12), i32) unnamed_addr #2

; Function Attrs: noinline optnone sspstrong uwtable
define linkonce_odr dso_local %class.IPRewriterEntry* @_ZNK13HashContainerI15IPRewriterEntry21HashContainer_adapterIS0_EE3getERK8IPFlowID(%class.HashContainer* %0, %class.IPFlowID* dereferenceable(12) %1) local_unnamed_addr #11 comdat align 2 !dbg !5996 {
  %3 = alloca %class.HashContainer*, align 8
  %4 = alloca %class.IPFlowID*, align 8
  %5 = alloca %class.HashContainer_const_iterator, align 8
  store %class.HashContainer* %0, %class.HashContainer** %3, align 8, !tbaa !3948
  call void @llvm.dbg.declare(metadata %class.HashContainer** %3, metadata !5998, metadata !DIExpression()), !dbg !6000
  store %class.IPFlowID* %1, %class.IPFlowID** %4, align 8, !tbaa !3948
  call void @llvm.dbg.declare(metadata %class.IPFlowID** %4, metadata !5999, metadata !DIExpression()), !dbg !6001
  %6 = load %class.HashContainer*, %class.HashContainer** %3, align 8
  %7 = bitcast %class.HashContainer_const_iterator* %5 to i8*, !dbg !6002
  call void @llvm.lifetime.start.p0i8(i64 32, i8* %7) #17, !dbg !6002
  %8 = load %class.IPFlowID*, %class.IPFlowID** %4, align 8, !dbg !6003, !tbaa !3948
  call void @_ZNK13HashContainerI15IPRewriterEntry21HashContainer_adapterIS0_EE4findERK8IPFlowID(%class.HashContainer_const_iterator* sret %5, %class.HashContainer* %6, %class.IPFlowID* dereferenceable(12) %8), !dbg !6002
  %9 = call %class.IPRewriterEntry* @_ZNK28HashContainer_const_iteratorI15IPRewriterEntry21HashContainer_adapterIS0_EE3getEv(%class.HashContainer_const_iterator* %5), !dbg !6004
  %10 = bitcast %class.HashContainer_const_iterator* %5 to i8*, !dbg !6005
  call void @llvm.lifetime.end.p0i8(i64 32, i8* %10) #17, !dbg !6005
  ret %class.IPRewriterEntry* %9, !dbg !6005
}

declare dereferenceable(56) %class.IPRewriterInput* @_ZN6VectorI15IPRewriterInputEixEi(%class.Vector.13*, i32) local_unnamed_addr #2

declare i32 @_ZN15IPRewriterInput14rewrite_flowidERK8IPFlowIDRS0_P6Packeti(%class.IPRewriterInput*, %class.IPFlowID* dereferenceable(12), %class.IPFlowID* dereferenceable(12), %class.Packet*, i32) local_unnamed_addr #2

; Function Attrs: inlinehint sspstrong uwtable
define linkonce_odr dso_local void @_ZNK13HashContainerI15IPRewriterEntry21HashContainer_adapterIS0_EE4findERK8IPFlowID(%class.HashContainer_const_iterator* noalias sret %0, %class.HashContainer* %1, %class.IPFlowID* dereferenceable(12) %2) local_unnamed_addr #12 comdat align 2 !dbg !6006 {
  call void @llvm.dbg.value(metadata %class.HashContainer* %1, metadata !6008, metadata !DIExpression()), !dbg !6010
  call void @llvm.dbg.value(metadata %class.IPFlowID* %2, metadata !6009, metadata !DIExpression()), !dbg !6010
  call void @llvm.dbg.value(metadata %class.HashContainer* %1, metadata !6011, metadata !DIExpression()), !dbg !6017
  call void @llvm.dbg.value(metadata %class.IPFlowID* %2, metadata !6014, metadata !DIExpression()), !dbg !6017
  call void @llvm.dbg.value(metadata %class.HashContainer* %1, metadata !6019, metadata !DIExpression()), !dbg !6026
  call void @llvm.dbg.value(metadata %class.IPFlowID* %2, metadata !6022, metadata !DIExpression()), !dbg !6026
  call void @llvm.dbg.value(metadata %class.IPFlowID* %2, metadata !6028, metadata !DIExpression()), !dbg !6035
  call void @llvm.dbg.value(metadata %class.IPFlowID* %2, metadata !6037, metadata !DIExpression()), !dbg !6044
  call void @llvm.dbg.value(metadata %class.IPFlowID* %2, metadata !4452, metadata !DIExpression()), !dbg !6046
  %4 = getelementptr inbounds %class.IPFlowID, %class.IPFlowID* %2, i64 0, i32 2, !dbg !6048
  %5 = load i16, i16* %4, align 4, !dbg !6048, !tbaa !4458, !noalias !6049
  %6 = tail call i16 @llvm.bswap.i16(i16 %5) #17
  call void @llvm.dbg.value(metadata i16 %6, metadata !6040, metadata !DIExpression()), !dbg !6044
  call void @llvm.dbg.value(metadata %class.IPFlowID* %2, metadata !4463, metadata !DIExpression()), !dbg !6052
  %7 = getelementptr inbounds %class.IPFlowID, %class.IPFlowID* %2, i64 0, i32 3, !dbg !6054
  %8 = load i16, i16* %7, align 2, !dbg !6054, !tbaa !4469, !noalias !6049
  %9 = tail call i16 @llvm.bswap.i16(i16 %8) #17
  call void @llvm.dbg.value(metadata i16 %9, metadata !6041, metadata !DIExpression()), !dbg !6044
  call void @llvm.dbg.value(metadata %class.IPFlowID* %2, metadata !4415, metadata !DIExpression()), !dbg !6055
  %10 = getelementptr inbounds %class.IPFlowID, %class.IPFlowID* %2, i64 0, i32 0, i32 0, !dbg !6057
  %11 = load i32, i32* %10, align 4, !dbg !6057, !tbaa.struct !4422, !noalias !6049
  call void @llvm.dbg.value(metadata %class.IPAddress* undef, metadata !6058, metadata !DIExpression()), !dbg !6065
  %12 = zext i32 %11 to i64, !dbg !6067
  call void @llvm.dbg.value(metadata i64 %12, metadata !6042, metadata !DIExpression()), !dbg !6044
  call void @llvm.dbg.value(metadata %class.IPFlowID* %2, metadata !4424, metadata !DIExpression()), !dbg !6068
  %13 = getelementptr inbounds %class.IPFlowID, %class.IPFlowID* %2, i64 0, i32 1, i32 0, !dbg !6070
  %14 = load i32, i32* %13, align 4, !dbg !6070, !tbaa.struct !4422, !noalias !6049
  call void @llvm.dbg.value(metadata %class.IPAddress* undef, metadata !6058, metadata !DIExpression()), !dbg !6071
  %15 = zext i32 %14 to i64, !dbg !6073
  call void @llvm.dbg.value(metadata i64 %15, metadata !6043, metadata !DIExpression()), !dbg !6044
  %16 = zext i16 %6 to i32, !dbg !6074
  %17 = and i32 %16, 15, !dbg !6074
  %18 = add nuw nsw i32 %17, 1, !dbg !6074
  %19 = zext i32 %18 to i64, !dbg !6074
  %20 = shl nuw nsw i64 %12, %19, !dbg !6074
  %21 = xor i32 %17, 31, !dbg !6074
  %22 = lshr i32 %11, %21, !dbg !6074
  %23 = zext i32 %22 to i64, !dbg !6074
  %24 = or i64 %20, %23, !dbg !6074
  %25 = zext i16 %9 to i32, !dbg !6075
  %26 = and i32 %25, 15, !dbg !6075
  %27 = xor i32 %26, 31, !dbg !6075
  %28 = zext i32 %27 to i64, !dbg !6075
  %29 = shl i64 %15, %28, !dbg !6075
  %30 = sub nuw nsw i32 32, %27, !dbg !6075
  %31 = lshr i32 %14, %30, !dbg !6075
  %32 = zext i32 %31 to i64, !dbg !6075
  %33 = or i64 %29, %32, !dbg !6075
  %34 = shl nuw i32 %25, 16, !dbg !6076
  %35 = or i32 %34, %16, !dbg !6077
  %36 = zext i32 %35 to i64, !dbg !6078
  %37 = xor i64 %24, %36, !dbg !6079
  %38 = xor i64 %37, %33, !dbg !6080
  %39 = trunc i64 %38 to i32, !dbg !6081
  call void @llvm.dbg.value(metadata i32 %39, metadata !6023, metadata !DIExpression()), !dbg !6026
  call void @llvm.dbg.value(metadata i32 %39, metadata !6082, metadata !DIExpression()), !dbg !6097
  call void @llvm.dbg.value(metadata %class.HashContainer* %1, metadata !6089, metadata !DIExpression(DW_OP_plus_uconst, 24, DW_OP_stack_value)), !dbg !6097
  %40 = getelementptr inbounds %class.HashContainer, %class.HashContainer* %1, i64 0, i32 0, i32 4, i32 1, !dbg !6099
  %41 = load i8, i8* %40, align 4, !dbg !6099, !tbaa !6100, !noalias !6049
  call void @llvm.dbg.value(metadata i8 %41, metadata !6090, metadata !DIExpression()), !dbg !6097
  %42 = zext i8 %41 to i32, !dbg !6101
  %43 = icmp slt i8 %41, 0, !dbg !6101
  br i1 %43, label %44, label %47, !dbg !6102

44:                                               ; preds = %3
  %45 = and i32 %42, 31, !dbg !6103
  %46 = lshr i32 %39, %45, !dbg !6105
  br label %65, !dbg !6106

47:                                               ; preds = %3
  call void @llvm.dbg.value(metadata %class.HashContainer* %1, metadata !6089, metadata !DIExpression(DW_OP_plus_uconst, 24, DW_OP_stack_value)), !dbg !6097
  %48 = getelementptr inbounds %class.HashContainer, %class.HashContainer* %1, i64 0, i32 0, i32 4, i32 0, !dbg !6107
  %49 = load i32, i32* %48, align 4, !dbg !6107, !tbaa !6108, !noalias !6049
  call void @llvm.dbg.value(metadata i32 %49, metadata !6109, metadata !DIExpression()), !dbg !6118
  call void @llvm.dbg.value(metadata i32 %39, metadata !6114, metadata !DIExpression()), !dbg !6118
  %50 = zext i32 %49 to i64, !dbg !6120
  call void @llvm.dbg.value(metadata i64 %50, metadata !6115, metadata !DIExpression()), !dbg !6118
  %51 = and i64 %38, 4294967295, !dbg !6121
  call void @llvm.dbg.value(metadata i64 %51, metadata !6116, metadata !DIExpression()), !dbg !6118
  %52 = mul nuw i64 %51, %50, !dbg !6122
  call void @llvm.dbg.value(metadata i64 %52, metadata !6117, metadata !DIExpression()), !dbg !6118
  %53 = lshr i64 %52, 32, !dbg !6123
  %54 = trunc i64 %53 to i32, !dbg !6124
  call void @llvm.dbg.value(metadata i32 %54, metadata !6091, metadata !DIExpression()), !dbg !6125
  %55 = and i32 %42, 64, !dbg !6126
  %56 = icmp eq i32 %55, 0, !dbg !6127
  br i1 %56, label %63, label %57, !dbg !6128

57:                                               ; preds = %47
  %58 = sub i32 %39, %54, !dbg !6129
  %59 = lshr i32 %58, 1, !dbg !6130
  %60 = add i32 %59, %54, !dbg !6131
  call void @llvm.dbg.value(metadata i32 %60, metadata !6094, metadata !DIExpression()), !dbg !6132
  %61 = and i32 %42, 31, !dbg !6133
  %62 = lshr i32 %60, %61, !dbg !6134
  br label %65

63:                                               ; preds = %47
  %64 = lshr i32 %54, %42, !dbg !6135
  br label %65, !dbg !6137

65:                                               ; preds = %63, %57, %44
  %66 = phi i32 [ %46, %44 ], [ %62, %57 ], [ %64, %63 ], !dbg !6138
