; ModuleID = '../elements/ethernet/etherpausesource.cc'
source_filename = "../elements/ethernet/etherpausesource.cc"
target datalayout = "e-m:e-p270:32:32-p271:32:32-p272:64:64-i64:64-f80:128-n8:16:32:64-S128"
target triple = "x86_64-pc-linux-gnu"

%class.ArgContext = type <{ %class.Element*, %class.ErrorHandler*, i8*, i8, [7 x i8] }>
%class.Element = type <{ i32 (...)**, [2 x %"class.Element::Port"*], [4 x %"class.Element::Port"], [2 x i32], %class.Router*, i32, [4 x i8] }>
%"class.Element::Port" = type <{ %class.Element*, i32, [4 x i8] }>
%class.Router = type opaque
%class.ErrorHandler = type <{ i32 (...)**, i32, [4 x i8] }>
%class.EtherPauseSource = type { %class.Element.base, i32, i32, i8, i32, %class.Packet*, %class.Timer }
%class.Element.base = type <{ i32 (...)**, [2 x %"class.Element::Port"*], [4 x %"class.Element::Port"], [2 x i32], %class.Router*, i32 }>
%class.Packet = type { %class.atomic_uint32_t, %class.Packet*, i8*, i8*, i8*, i8*, %"struct.Packet::AllAnno", void (i8*, i64, i8*)*, i8* }
%class.atomic_uint32_t = type { i32 }
%"struct.Packet::AllAnno" = type { %"union.Packet::Anno", i8*, i8*, i8*, i32, [8 x i8], %class.Packet*, %class.Packet* }
%"union.Packet::Anno" = type { [6 x i64] }
%class.Timer = type { i32, %class.Timestamp, %union.anon, i8*, %class.Element*, %class.RouterThread* }
%class.Timestamp = type { %"union.Timestamp::rep_t" }
%"union.Timestamp::rep_t" = type { i64 }
%union.anon = type { void (%class.Timer*, i8*)* }
%class.RouterThread = type opaque
%class.Vector = type { %class.vector_memory }
%class.vector_memory = type { %class.String*, i32, i32 }
%class.String = type { %"struct.String::rep_t" }
%"struct.String::rep_t" = type { i8*, i32, %"struct.String::memo_t"* }
%"struct.String::memo_t" = type { i32, i32, i32, [8 x i8] }
%class.EtherAddress = type { [3 x i16] }
%class.Args = type { %class.ArgContext.base, i8, i8, i8, %class.Vector*, %class.Vector.0, %"struct.Args::Slot"*, [48 x i8] }
%class.ArgContext.base = type <{ %class.Element*, %class.ErrorHandler*, i8*, i8 }>
%class.Vector.0 = type { %class.vector_memory.1 }
%class.vector_memory.1 = type { %struct.char_array*, i32, i32 }
%struct.char_array = type opaque
%"struct.Args::Slot" = type { i32 (...)**, %"struct.Args::Slot"* }
%class.WritablePacket = type { %class.Packet }
%struct.click_ether = type { [6 x i8], [6 x i8], i16 }
%class.IntArg = type { i32, i32 }
%class.EtherAddressArg = type { i32 }
%class.Task = type opaque
%class.SecondsArg = type { i32, i32 }

$_ZNK7Element6outputEi = comdat any

$_ZNK7Element4Port4pushEP6Packet = comdat any

$_ZNK16EtherPauseSource10class_nameEv = comdat any

$_ZNK16EtherPauseSource10port_countEv = comdat any

$__clang_call_terminate = comdat any

$_ZNK7Element4portEbi = comdat any

$_Z14args_base_readI12EtherAddressEvP4ArgsPKciRT_ = comdat any

$_ZN4Args9base_readI12EtherAddressEEvPKciRT_ = comdat any

$_ZNK6String6lengthEv = comdat any

$_Z14args_base_readItEvP4ArgsPKciRT_ = comdat any

$_ZN4Args9base_readItEEvPKciRT_ = comdat any

$_Z14args_base_readIiEvP4ArgsPKciRT_ = comdat any

$_ZN4Args9base_readIiEEvPKciRT_ = comdat any

$_Z14args_base_readIbEvP4ArgsPKciRT_ = comdat any

$_ZN4Args9base_readIbEEvPKciRT_ = comdat any

$_Z14args_base_readI10SecondsArgjEvP4ArgsPKciT_RT0_ = comdat any

$_ZN4Args9base_readI10SecondsArgjEEvPKciT_RT0_ = comdat any

@_ZTV16EtherPauseSource = dso_local unnamed_addr constant { [29 x i8*] } { [29 x i8*] [i8* null, i8* bitcast ({ i8*, i8*, i8* }* @_ZTI16EtherPauseSource to i8*), i8* bitcast (void (%class.EtherPauseSource*)* @_ZN16EtherPauseSourceD2Ev to i8*), i8* bitcast (void (%class.EtherPauseSource*)* @_ZN16EtherPauseSourceD0Ev to i8*), i8* bitcast (void (%class.Element*, i32, %class.Packet*)* @_ZN7Element4pushEiP6Packet to i8*), i8* bitcast (%class.Packet* (%class.EtherPauseSource*, i32)* @_ZN16EtherPauseSource4pullEi to i8*), i8* bitcast (%class.Packet* (%class.Element*, %class.Packet*)* @_ZN7Element13simple_actionEP6Packet to i8*), i8* bitcast (i1 (%class.Element*, %class.Task*)* @_ZN7Element8run_taskEP4Task to i8*), i8* bitcast (void (%class.EtherPauseSource*, %class.Timer*)* @_ZN16EtherPauseSource9run_timerEP5Timer to i8*), i8* bitcast (void (%class.Element*, i32, i32)* @_ZN7Element8selectedEii to i8*), i8* bitcast (void (%class.Element*, i32)* @_ZN7Element8selectedEi to i8*), i8* bitcast (i8* (%class.EtherPauseSource*)* @_ZNK16EtherPauseSource10class_nameEv to i8*), i8* bitcast (i8* (%class.EtherPauseSource*)* @_ZNK16EtherPauseSource10port_countEv to i8*), i8* bitcast (i8* (%class.Element*)* @_ZNK7Element10processingEv to i8*), i8* bitcast (i8* (%class.Element*)* @_ZNK7Element9flow_codeEv to i8*), i8* bitcast (i8* (%class.Element*)* @_ZNK7Element5flagsEv to i8*), i8* bitcast (i8* (%class.Element*, i8*)* @_ZN7Element4castEPKc to i8*), i8* bitcast (i8* (%class.Element*, i1, i32, i8*)* @_ZN7Element9port_castEbiPKc to i8*), i8* bitcast (i32 (%class.Element*)* @_ZNK7Element15configure_phaseEv to i8*), i8* bitcast (i32 (%class.EtherPauseSource*, %class.Vector*, %class.ErrorHandler*)* @_ZN16EtherPauseSource9configureER6VectorI6StringEP12ErrorHandler to i8*), i8* bitcast (void (%class.EtherPauseSource*)* @_ZN16EtherPauseSource12add_handlersEv to i8*), i8* bitcast (i32 (%class.EtherPauseSource*, %class.ErrorHandler*)* @_ZN16EtherPauseSource10initializeEP12ErrorHandler to i8*), i8* bitcast (void (%class.Element*, %class.Element*, %class.ErrorHandler*)* @_ZN7Element10take_stateEPS_P12ErrorHandler to i8*), i8* bitcast (%class.Element* (%class.Element*)* @_ZNK7Element15hotswap_elementEv to i8*), i8* bitcast (void (%class.EtherPauseSource*, i32)* @_ZN16EtherPauseSource7cleanupEN7Element12CleanupStageE to i8*), i8* bitcast (void (%class.String*, %class.Element*)* @_ZNK7Element11declarationEv to i8*), i8* bitcast (i1 (%class.Element*)* @_ZNK7Element20can_live_reconfigureEv to i8*), i8* bitcast (i32 (%class.Element*, %class.Vector*, %class.ErrorHandler*)* @_ZN7Element16live_reconfigureER6VectorI6StringEP12ErrorHandler to i8*), i8* bitcast (i32 (%class.Element*, i32, i8*)* @_ZN7Element5llrpcEjPv to i8*)] }, align 8
@_ZL19default_destination = internal unnamed_addr constant [6 x i8] c"\01\80\C2\00\00\01", align 1, !dbg !0
@.str = private unnamed_addr constant [4 x i8] c"SRC\00", align 1
@.str.1 = private unnamed_addr constant [10 x i8] c"PAUSETIME\00", align 1
@.str.2 = private unnamed_addr constant [4 x i8] c"DST\00", align 1
@.str.3 = private unnamed_addr constant [6 x i8] c"LIMIT\00", align 1
@.str.4 = private unnamed_addr constant [7 x i8] c"ACTIVE\00", align 1
@.str.5 = private unnamed_addr constant [9 x i8] c"INTERVAL\00", align 1
@.str.6 = private unnamed_addr constant [15 x i8] c"out of memory!\00", align 1
@.str.7 = private unnamed_addr constant [14 x i8] c"type mismatch\00", align 1
@blank_args = external global %class.ArgContext, align 8
@.str.8 = private unnamed_addr constant [6 x i8] c"count\00", align 1
@.str.9 = private unnamed_addr constant [6 x i8] c"limit\00", align 1
@.str.10 = private unnamed_addr constant [7 x i8] c"active\00", align 1
@.str.11 = private unnamed_addr constant [4 x i8] c"src\00", align 1
@.str.12 = private unnamed_addr constant [4 x i8] c"dst\00", align 1
@.str.13 = private unnamed_addr constant [10 x i8] c"pausetime\00", align 1
@.str.14 = private unnamed_addr constant [13 x i8] c"reset_counts\00", align 1
@_ZTVN10__cxxabiv120__si_class_type_infoE = external global i8*
@_ZTS16EtherPauseSource = dso_local constant [19 x i8] c"16EtherPauseSource\00", align 1
@_ZTI7Element = external constant i8*
@_ZTI16EtherPauseSource = dso_local constant { i8*, i8*, i8* } { i8* bitcast (i8** getelementptr inbounds (i8*, i8** @_ZTVN10__cxxabiv120__si_class_type_infoE, i64 2) to i8*), i8* getelementptr inbounds ([19 x i8], [19 x i8]* @_ZTS16EtherPauseSource, i32 0, i32 0), i8* bitcast (i8** @_ZTI7Element to i8*) }, align 8
@.str.15 = private unnamed_addr constant [41 x i8] c"p >= buffer() && p + len <= end_buffer()\00", align 1
@.str.16 = private unnamed_addr constant [29 x i8] c"../dummy_inc/click/packet.hh\00", align 1
@__PRETTY_FUNCTION__._ZN6Packet14set_mac_headerEPKhj = private unnamed_addr constant [61 x i8] c"void Packet::set_mac_header(const unsigned char *, uint32_t)\00", align 1
@.str.17 = private unnamed_addr constant [47 x i8] c"(unsigned) port < (unsigned) _nports[isoutput]\00", align 1
@.str.18 = private unnamed_addr constant [30 x i8] c"../dummy_inc/click/element.hh\00", align 1
@__PRETTY_FUNCTION__._ZNK7Element4portEbi = private unnamed_addr constant [52 x i8] c"const Element::Port &Element::port(bool, int) const\00", align 1
@.str.19 = private unnamed_addr constant [8 x i8] c"_e && p\00", align 1
@__PRETTY_FUNCTION__._ZNK7Element4Port4pushEP6Packet = private unnamed_addr constant [41 x i8] c"void Element::Port::push(Packet *) const\00", align 1
@_ZN6String9null_dataE = external constant i8, align 1
@.str.20 = private unnamed_addr constant [17 x i8] c"EtherPauseSource\00", align 1
@_ZN7Element9PORTS_0_1E = external constant [0 x i8], align 1
@.str.21 = private unnamed_addr constant [18 x i8] c"_r.memo->refcount\00", align 1
@.str.22 = private unnamed_addr constant [29 x i8] c"../dummy_inc/click/string.hh\00", align 1
@__PRETTY_FUNCTION__._ZNK6String5derefEv = private unnamed_addr constant [27 x i8] c"void String::deref() const\00", align 1
@.str.23 = private unnamed_addr constant [15 x i8] c"invalid number\00", align 1

@_ZN16EtherPauseSourceC1Ev = dso_local unnamed_addr alias void (%class.EtherPauseSource*), void (%class.EtherPauseSource*)* @_ZN16EtherPauseSourceC2Ev
@_ZN16EtherPauseSourceD1Ev = dso_local unnamed_addr alias void (%class.EtherPauseSource*), void (%class.EtherPauseSource*)* @_ZN16EtherPauseSourceD2Ev

; Function Attrs: sspstrong uwtable
define dso_local void @_ZN16EtherPauseSourceC2Ev(%class.EtherPauseSource* %0) unnamed_addr #0 align 2 personality i8* bitcast (i32 (...)* @__gxx_personality_v0 to i8*) !dbg !2837 {
  call void @llvm.dbg.value(metadata %class.EtherPauseSource* %0, metadata !2839, metadata !DIExpression()), !dbg !2840
  %2 = bitcast %class.EtherPauseSource* %0 to %class.Element*, !dbg !2841
  tail call void @_ZN7ElementC2Ev(%class.Element* %2), !dbg !2842
  %3 = getelementptr %class.EtherPauseSource, %class.EtherPauseSource* %0, i64 0, i32 0, i32 0, !dbg !2841
  store i32 (...)** bitcast (i8** getelementptr inbounds ({ [29 x i8*] }, { [29 x i8*] }* @_ZTV16EtherPauseSource, i64 0, inrange i32 0, i64 2) to i32 (...)**), i32 (...)*** %3, align 8, !dbg !2841, !tbaa !2843
  %4 = getelementptr inbounds %class.EtherPauseSource, %class.EtherPauseSource* %0, i64 0, i32 5, !dbg !2846
  store %class.Packet* null, %class.Packet** %4, align 8, !dbg !2846, !tbaa !2847
  %5 = getelementptr inbounds %class.EtherPauseSource, %class.EtherPauseSource* %0, i64 0, i32 6, !dbg !2855
  invoke void @_ZN5TimerC1EP7Element(%class.Timer* nonnull %5, %class.Element* %2)
          to label %6 unwind label %7, !dbg !2855

6:                                                ; preds = %1
  ret void, !dbg !2856

7:                                                ; preds = %1
  %8 = landingpad { i8*, i32 }
          cleanup, !dbg !2856
  tail call void @_ZN7ElementD2Ev(%class.Element* %2) #12, !dbg !2857
  resume { i8*, i32 } %8, !dbg !2857
}

; Function Attrs: nounwind readnone speculatable willreturn
declare void @llvm.dbg.declare(metadata, metadata, metadata) #1

declare void @_ZN7ElementC2Ev(%class.Element*) unnamed_addr #2

declare void @_ZN5TimerC1EP7Element(%class.Timer*, %class.Element*) unnamed_addr #2

declare i32 @__gxx_personality_v0(...)

; Function Attrs: nounwind
declare void @_ZN7ElementD2Ev(%class.Element*) unnamed_addr #3

; Function Attrs: nounwind sspstrong uwtable
define dso_local void @_ZN16EtherPauseSourceD2Ev(%class.EtherPauseSource* %0) unnamed_addr #4 align 2 personality i32 (...)* @__gxx_personality_v0 !dbg !2859 {
  call void @llvm.dbg.value(metadata %class.EtherPauseSource* %0, metadata !2861, metadata !DIExpression()), !dbg !2862
  %2 = getelementptr %class.EtherPauseSource, %class.EtherPauseSource* %0, i64 0, i32 0, i32 0, !dbg !2863
  store i32 (...)** bitcast (i8** getelementptr inbounds ({ [29 x i8*] }, { [29 x i8*] }* @_ZTV16EtherPauseSource, i64 0, inrange i32 0, i64 2) to i32 (...)**), i32 (...)*** %2, align 8, !dbg !2863, !tbaa !2843
  %3 = getelementptr inbounds %class.EtherPauseSource, %class.EtherPauseSource* %0, i64 0, i32 6, !dbg !2864
  call void @llvm.dbg.value(metadata %class.Timer* %3, metadata !2866, metadata !DIExpression()) #12, !dbg !2869
  call void @llvm.dbg.value(metadata %class.Timer* %3, metadata !2871, metadata !DIExpression()) #12, !dbg !2875
  %4 = getelementptr inbounds %class.Timer, %class.Timer* %3, i64 0, i32 0, !dbg !2879
  %5 = load i32, i32* %4, align 8, !dbg !2879, !tbaa !2880
  %6 = icmp eq i32 %5, 0, !dbg !2881
  br i1 %6, label %11, label %7, !dbg !2882

7:                                                ; preds = %1
  invoke void @_ZN5Timer10unscheduleEv(%class.Timer* nonnull %3)
          to label %11 unwind label %8, !dbg !2883

8:                                                ; preds = %7
  %9 = landingpad { i8*, i32 }
          catch i8* null, !dbg !2884
  %10 = extractvalue { i8*, i32 } %9, 0, !dbg !2884
  tail call void @__clang_call_terminate(i8* %10) #13, !dbg !2884
  unreachable, !dbg !2884

11:                                               ; preds = %1, %7
  %12 = bitcast %class.EtherPauseSource* %0 to %class.Element*, !dbg !2864
  tail call void @_ZN7ElementD2Ev(%class.Element* %12) #12, !dbg !2864
  ret void, !dbg !2885
}

; Function Attrs: nounwind sspstrong uwtable
define dso_local void @_ZN16EtherPauseSourceD0Ev(%class.EtherPauseSource* %0) unnamed_addr #4 align 2 personality i32 (...)* @__gxx_personality_v0 !dbg !2886 {
  call void @llvm.dbg.value(metadata %class.EtherPauseSource* %0, metadata !2888, metadata !DIExpression()), !dbg !2889
  call void @llvm.dbg.value(metadata %class.EtherPauseSource* %0, metadata !2861, metadata !DIExpression()) #12, !dbg !2890
  %2 = getelementptr %class.EtherPauseSource, %class.EtherPauseSource* %0, i64 0, i32 0, i32 0, !dbg !2892
  store i32 (...)** bitcast (i8** getelementptr inbounds ({ [29 x i8*] }, { [29 x i8*] }* @_ZTV16EtherPauseSource, i64 0, inrange i32 0, i64 2) to i32 (...)**), i32 (...)*** %2, align 8, !dbg !2892, !tbaa !2843
  %3 = getelementptr inbounds %class.EtherPauseSource, %class.EtherPauseSource* %0, i64 0, i32 6, !dbg !2893
  call void @llvm.dbg.value(metadata %class.Timer* %3, metadata !2866, metadata !DIExpression()) #12, !dbg !2894
  call void @llvm.dbg.value(metadata %class.Timer* %3, metadata !2871, metadata !DIExpression()) #12, !dbg !2896
  %4 = getelementptr inbounds %class.Timer, %class.Timer* %3, i64 0, i32 0, !dbg !2898
  %5 = load i32, i32* %4, align 8, !dbg !2898, !tbaa !2880
  %6 = icmp eq i32 %5, 0, !dbg !2899
  br i1 %6, label %11, label %7, !dbg !2900

7:                                                ; preds = %1
  invoke void @_ZN5Timer10unscheduleEv(%class.Timer* nonnull %3)
          to label %11 unwind label %8, !dbg !2901

8:                                                ; preds = %7
  %9 = landingpad { i8*, i32 }
          catch i8* null, !dbg !2902
  %10 = extractvalue { i8*, i32 } %9, 0, !dbg !2902
  tail call void @__clang_call_terminate(i8* %10) #13, !dbg !2902
  unreachable, !dbg !2902

11:                                               ; preds = %1, %7
  %12 = bitcast %class.EtherPauseSource* %0 to %class.Element*, !dbg !2893
  tail call void @_ZN7ElementD2Ev(%class.Element* %12) #12, !dbg !2893
  %13 = bitcast %class.EtherPauseSource* %0 to i8*, !dbg !2903
  tail call void @_ZdlPv(i8* %13) #14, !dbg !2903
  ret void, !dbg !2904
}

; Function Attrs: nobuiltin nounwind
declare void @_ZdlPv(i8*) local_unnamed_addr #5

; Function Attrs: sspstrong uwtable
define dso_local i32 @_ZN16EtherPauseSource9configureER6VectorI6StringEP12ErrorHandler(%class.EtherPauseSource* %0, %class.Vector* dereferenceable(16) %1, %class.ErrorHandler* %2) unnamed_addr #0 align 2 personality i8* bitcast (i32 (...)* @__gxx_personality_v0 to i8*) !dbg !2905 {
  %4 = alloca %class.EtherAddress, align 2
  %5 = alloca %class.EtherAddress, align 1
  %6 = alloca i16, align 2
  %7 = alloca %class.Args, align 8
  call void @llvm.dbg.value(metadata %class.EtherPauseSource* %0, metadata !2907, metadata !DIExpression()), !dbg !2916
  call void @llvm.dbg.value(metadata %class.Vector* %1, metadata !2908, metadata !DIExpression()), !dbg !2916
  call void @llvm.dbg.value(metadata %class.ErrorHandler* %2, metadata !2909, metadata !DIExpression()), !dbg !2916
  %8 = bitcast %class.EtherAddress* %4 to i8*, !dbg !2917
  call void @llvm.lifetime.start.p0i8(i64 6, i8* nonnull %8) #12, !dbg !2917
  call void @llvm.dbg.declare(metadata %class.EtherAddress* %4, metadata !2910, metadata !DIExpression()), !dbg !2918
  call void @llvm.dbg.value(metadata %class.EtherAddress* %4, metadata !2919, metadata !DIExpression()), !dbg !2923
  %9 = getelementptr inbounds %class.EtherAddress, %class.EtherAddress* %4, i64 0, i32 0, i64 2, !dbg !2925
  store i16 0, i16* %9, align 2, !dbg !2927, !tbaa !2928
  %10 = getelementptr inbounds %class.EtherAddress, %class.EtherAddress* %4, i64 0, i32 0, i64 1, !dbg !2930
  store i16 0, i16* %10, align 2, !dbg !2931, !tbaa !2928
  %11 = getelementptr inbounds %class.EtherAddress, %class.EtherAddress* %4, i64 0, i32 0, i64 0, !dbg !2932
  store i16 0, i16* %11, align 2, !dbg !2933, !tbaa !2928
  %12 = bitcast %class.EtherAddress* %5 to i8*, !dbg !2917
  call void @llvm.lifetime.start.p0i8(i64 6, i8* nonnull %12) #12, !dbg !2917
  call void @llvm.dbg.declare(metadata %class.EtherAddress* %5, metadata !2911, metadata !DIExpression()), !dbg !2934
  call void @llvm.dbg.value(metadata %class.EtherAddress* %5, metadata !2935, metadata !DIExpression()) #12, !dbg !2939
  call void @llvm.dbg.value(metadata i8* getelementptr inbounds ([6 x i8], [6 x i8]* @_ZL19default_destination, i64 0, i64 0), metadata !2938, metadata !DIExpression()) #12, !dbg !2939
  call void @llvm.memcpy.p0i8.p0i8.i64(i8* nonnull align 1 dereferenceable(6) %12, i8* nonnull align 1 dereferenceable(6) getelementptr inbounds ([6 x i8], [6 x i8]* @_ZL19default_destination, i64 0, i64 0), i64 6, i1 false) #12, !dbg !2941
  %13 = bitcast i16* %6 to i8*, !dbg !2943
  call void @llvm.lifetime.start.p0i8(i64 2, i8* nonnull %13) #12, !dbg !2943
  %14 = getelementptr inbounds %class.EtherPauseSource, %class.EtherPauseSource* %0, i64 0, i32 2, !dbg !2944
  store i32 -1, i32* %14, align 8, !dbg !2945, !tbaa !2946
  %15 = getelementptr inbounds %class.EtherPauseSource, %class.EtherPauseSource* %0, i64 0, i32 3, !dbg !2947
  store i8 1, i8* %15, align 4, !dbg !2948, !tbaa !2949
  %16 = getelementptr inbounds %class.EtherPauseSource, %class.EtherPauseSource* %0, i64 0, i32 4, !dbg !2950
  store i32 1000, i32* %16, align 8, !dbg !2951, !tbaa !2952
  %17 = bitcast %class.Args* %7 to i8*, !dbg !2953
  call void @llvm.lifetime.start.p0i8(i64 112, i8* nonnull %17) #12, !dbg !2953
  %18 = bitcast %class.EtherPauseSource* %0 to %class.Element*, !dbg !2955
  call void @_ZN4ArgsC1ERK6VectorI6StringEPK7ElementP12ErrorHandler(%class.Args* nonnull %7, %class.Vector* nonnull dereferenceable(16) %1, %class.Element* %18, %class.ErrorHandler* %2), !dbg !2953
  call void @llvm.dbg.value(metadata %class.Args* %7, metadata !2956, metadata !DIExpression()), !dbg !2964
  call void @llvm.dbg.value(metadata i8* getelementptr inbounds ([4 x i8], [4 x i8]* @.str, i64 0, i64 0), metadata !2962, metadata !DIExpression()), !dbg !2964
  call void @llvm.dbg.value(metadata %class.EtherAddress* %4, metadata !2963, metadata !DIExpression()), !dbg !2964
  call void @llvm.dbg.value(metadata %class.Args* %7, metadata !2966, metadata !DIExpression()), !dbg !2975
  call void @llvm.dbg.value(metadata i8* getelementptr inbounds ([4 x i8], [4 x i8]* @.str, i64 0, i64 0), metadata !2972, metadata !DIExpression()), !dbg !2975
  call void @llvm.dbg.value(metadata i32 3, metadata !2973, metadata !DIExpression()), !dbg !2975
  call void @llvm.dbg.value(metadata %class.EtherAddress* %4, metadata !2974, metadata !DIExpression()), !dbg !2975
  invoke void @_Z14args_base_readI12EtherAddressEvP4ArgsPKciRT_(%class.Args* nonnull %7, i8* getelementptr inbounds ([4 x i8], [4 x i8]* @.str, i64 0, i64 0), i32 3, %class.EtherAddress* nonnull dereferenceable(6) %4)
          to label %19 unwind label %28, !dbg !2977

19:                                               ; preds = %3
  call void @llvm.dbg.value(metadata %class.Args* %7, metadata !2978, metadata !DIExpression()), !dbg !2986
  call void @llvm.dbg.value(metadata i8* getelementptr inbounds ([10 x i8], [10 x i8]* @.str.1, i64 0, i64 0), metadata !2984, metadata !DIExpression()), !dbg !2986
  call void @llvm.dbg.value(metadata i16* %6, metadata !2985, metadata !DIExpression()), !dbg !2986
  call void @llvm.dbg.value(metadata %class.Args* %7, metadata !2988, metadata !DIExpression()), !dbg !2997
  call void @llvm.dbg.value(metadata i8* getelementptr inbounds ([10 x i8], [10 x i8]* @.str.1, i64 0, i64 0), metadata !2994, metadata !DIExpression()), !dbg !2997
  call void @llvm.dbg.value(metadata i32 3, metadata !2995, metadata !DIExpression()), !dbg !2997
  call void @llvm.dbg.value(metadata i16* %6, metadata !2996, metadata !DIExpression()), !dbg !2997
  invoke void @_Z14args_base_readItEvP4ArgsPKciRT_(%class.Args* nonnull %7, i8* getelementptr inbounds ([10 x i8], [10 x i8]* @.str.1, i64 0, i64 0), i32 3, i16* nonnull dereferenceable(2) %6)
          to label %20 unwind label %28, !dbg !2999

20:                                               ; preds = %19
  call void @llvm.dbg.value(metadata %class.Args* %7, metadata !3000, metadata !DIExpression()), !dbg !3006
  call void @llvm.dbg.value(metadata i8* getelementptr inbounds ([4 x i8], [4 x i8]* @.str.2, i64 0, i64 0), metadata !3004, metadata !DIExpression()), !dbg !3006
  call void @llvm.dbg.value(metadata %class.EtherAddress* %5, metadata !3005, metadata !DIExpression()), !dbg !3006
  call void @llvm.dbg.value(metadata %class.Args* %7, metadata !2966, metadata !DIExpression()), !dbg !3008
  call void @llvm.dbg.value(metadata i8* getelementptr inbounds ([4 x i8], [4 x i8]* @.str.2, i64 0, i64 0), metadata !2972, metadata !DIExpression()), !dbg !3008
  call void @llvm.dbg.value(metadata i32 0, metadata !2973, metadata !DIExpression()), !dbg !3008
  call void @llvm.dbg.value(metadata %class.EtherAddress* %5, metadata !2974, metadata !DIExpression()), !dbg !3008
  invoke void @_Z14args_base_readI12EtherAddressEvP4ArgsPKciRT_(%class.Args* nonnull %7, i8* getelementptr inbounds ([4 x i8], [4 x i8]* @.str.2, i64 0, i64 0), i32 0, %class.EtherAddress* nonnull dereferenceable(6) %5)
          to label %21 unwind label %28, !dbg !3010

21:                                               ; preds = %20
  call void @llvm.dbg.value(metadata %class.Args* %7, metadata !3011, metadata !DIExpression()), !dbg !3019
  call void @llvm.dbg.value(metadata i8* getelementptr inbounds ([6 x i8], [6 x i8]* @.str.3, i64 0, i64 0), metadata !3017, metadata !DIExpression()), !dbg !3019
  call void @llvm.dbg.value(metadata i32* %14, metadata !3018, metadata !DIExpression()), !dbg !3019
  call void @llvm.dbg.value(metadata %class.Args* %7, metadata !3021, metadata !DIExpression()), !dbg !3030
  call void @llvm.dbg.value(metadata i8* getelementptr inbounds ([6 x i8], [6 x i8]* @.str.3, i64 0, i64 0), metadata !3027, metadata !DIExpression()), !dbg !3030
  call void @llvm.dbg.value(metadata i32 0, metadata !3028, metadata !DIExpression()), !dbg !3030
  call void @llvm.dbg.value(metadata i32* %14, metadata !3029, metadata !DIExpression()), !dbg !3030
  invoke void @_Z14args_base_readIiEvP4ArgsPKciRT_(%class.Args* nonnull %7, i8* getelementptr inbounds ([6 x i8], [6 x i8]* @.str.3, i64 0, i64 0), i32 0, i32* nonnull dereferenceable(4) %14)
          to label %22 unwind label %28, !dbg !3032

22:                                               ; preds = %21
  call void @llvm.dbg.value(metadata %class.Args* %7, metadata !3033, metadata !DIExpression()), !dbg !3041
  call void @llvm.dbg.value(metadata i8* getelementptr inbounds ([7 x i8], [7 x i8]* @.str.4, i64 0, i64 0), metadata !3039, metadata !DIExpression()), !dbg !3041
  call void @llvm.dbg.value(metadata i8* %15, metadata !3040, metadata !DIExpression()), !dbg !3041
  call void @llvm.dbg.value(metadata %class.Args* %7, metadata !3043, metadata !DIExpression()), !dbg !3052
  call void @llvm.dbg.value(metadata i8* getelementptr inbounds ([7 x i8], [7 x i8]* @.str.4, i64 0, i64 0), metadata !3049, metadata !DIExpression()), !dbg !3052
  call void @llvm.dbg.value(metadata i32 0, metadata !3050, metadata !DIExpression()), !dbg !3052
  call void @llvm.dbg.value(metadata i8* %15, metadata !3051, metadata !DIExpression()), !dbg !3052
  invoke void @_Z14args_base_readIbEvP4ArgsPKciRT_(%class.Args* nonnull %7, i8* getelementptr inbounds ([7 x i8], [7 x i8]* @.str.4, i64 0, i64 0), i32 0, i8* nonnull dereferenceable(1) %15)
          to label %23 unwind label %28, !dbg !3054

23:                                               ; preds = %22
  call void @llvm.dbg.value(metadata i64 3, metadata !3055, metadata !DIExpression()), !dbg !3064
  call void @llvm.dbg.value(metadata %class.Args* %7, metadata !3061, metadata !DIExpression()), !dbg !3064
  call void @llvm.dbg.value(metadata i8* getelementptr inbounds ([9 x i8], [9 x i8]* @.str.5, i64 0, i64 0), metadata !3062, metadata !DIExpression()), !dbg !3064
  call void @llvm.dbg.value(metadata i32* %16, metadata !3063, metadata !DIExpression()), !dbg !3064
  call void @llvm.dbg.value(metadata i64 3, metadata !3066, metadata !DIExpression()), !dbg !3076
  call void @llvm.dbg.value(metadata %class.Args* %7, metadata !3072, metadata !DIExpression()), !dbg !3076
  call void @llvm.dbg.value(metadata i8* getelementptr inbounds ([9 x i8], [9 x i8]* @.str.5, i64 0, i64 0), metadata !3073, metadata !DIExpression()), !dbg !3076
  call void @llvm.dbg.value(metadata i32 0, metadata !3074, metadata !DIExpression()), !dbg !3076
  call void @llvm.dbg.value(metadata i32* %16, metadata !3075, metadata !DIExpression()), !dbg !3076
  invoke void @_Z14args_base_readI10SecondsArgjEvP4ArgsPKciT_RT0_(%class.Args* nonnull %7, i8* getelementptr inbounds ([9 x i8], [9 x i8]* @.str.5, i64 0, i64 0), i32 0, i64 3, i32* nonnull dereferenceable(4) %16)
          to label %24 unwind label %28, !dbg !3078

24:                                               ; preds = %23
  %25 = invoke i32 @_ZN4Args8completeEv(%class.Args* nonnull %7)
          to label %26 unwind label %28, !dbg !3079

26:                                               ; preds = %24
  %27 = icmp slt i32 %25, 0, !dbg !3080
  call void @_ZN4ArgsD1Ev(%class.Args* nonnull %7) #12, !dbg !2953
  call void @llvm.lifetime.end.p0i8(i64 112, i8* nonnull %17) #12, !dbg !2953
  br i1 %27, label %62, label %30, !dbg !3081

28:                                               ; preds = %23, %22, %21, %20, %19, %3, %24
  %29 = landingpad { i8*, i32 }
          cleanup, !dbg !3082
  call void @_ZN4ArgsD1Ev(%class.Args* nonnull %7) #12, !dbg !2953
  call void @llvm.lifetime.end.p0i8(i64 112, i8* nonnull %17) #12, !dbg !2953
  call void @llvm.lifetime.end.p0i8(i64 2, i8* nonnull %13) #12, !dbg !3083
  call void @llvm.lifetime.end.p0i8(i64 6, i8* nonnull %12) #12, !dbg !3083
  call void @llvm.lifetime.end.p0i8(i64 6, i8* nonnull %8) #12, !dbg !3083
  resume { i8*, i32 } %29, !dbg !3083

30:                                               ; preds = %26
  call void @llvm.dbg.value(metadata i32 64, metadata !3084, metadata !DIExpression()), !dbg !3087
  %31 = call %class.WritablePacket* @_ZN6Packet4makeEjPKvjj(i32 28, i8* null, i32 64, i32 0), !dbg !3090
  call void @llvm.dbg.value(metadata %class.WritablePacket* %31, metadata !2913, metadata !DIExpression()), !dbg !2916
  %32 = icmp eq %class.WritablePacket* %31, null, !dbg !3091
  br i1 %32, label %33, label %35, !dbg !3092

33:                                               ; preds = %30
  %34 = call i32 (%class.ErrorHandler*, i8*, ...) @_ZN12ErrorHandler5errorEPKcz(%class.ErrorHandler* %2, i8* getelementptr inbounds ([15 x i8], [15 x i8]* @.str.6, i64 0, i64 0)), !dbg !3093
  br label %62, !dbg !3094

35:                                               ; preds = %30
  %36 = getelementptr %class.WritablePacket, %class.WritablePacket* %31, i64 0, i32 0, !dbg !3095
  %37 = call i8* @_ZNK14WritablePacket4dataEv(%class.WritablePacket* nonnull %31), !dbg !3096
  call void @llvm.dbg.value(metadata %class.Packet* %36, metadata !3097, metadata !DIExpression()), !dbg !3102
  call void @llvm.dbg.value(metadata i8* %37, metadata !3100, metadata !DIExpression()), !dbg !3102
  call void @llvm.dbg.value(metadata i32 14, metadata !3101, metadata !DIExpression()), !dbg !3102
  call void @llvm.dbg.value(metadata %class.Packet* %36, metadata !3104, metadata !DIExpression()), !dbg !3107
  %38 = getelementptr inbounds %class.WritablePacket, %class.WritablePacket* %31, i64 0, i32 0, i32 2, !dbg !3109
  %39 = load i8*, i8** %38, align 8, !dbg !3109, !tbaa !3110
  %40 = icmp ugt i8* %39, %37, !dbg !3115
  br i1 %40, label %46, label %41, !dbg !3115

41:                                               ; preds = %35
  %42 = getelementptr inbounds i8, i8* %37, i64 14, !dbg !3115
  call void @llvm.dbg.value(metadata %class.Packet* %36, metadata !3116, metadata !DIExpression()), !dbg !3119
  %43 = getelementptr inbounds %class.WritablePacket, %class.WritablePacket* %31, i64 0, i32 0, i32 5, !dbg !3121
  %44 = load i8*, i8** %43, align 8, !dbg !3121, !tbaa !3122
  %45 = icmp ugt i8* %42, %44, !dbg !3115
  br i1 %45, label %46, label %47, !dbg !3115

46:                                               ; preds = %41, %35
  call void @__assert_fail(i8* getelementptr inbounds ([41 x i8], [41 x i8]* @.str.15, i64 0, i64 0), i8* getelementptr inbounds ([29 x i8], [29 x i8]* @.str.16, i64 0, i64 0), i32 1735, i8* getelementptr inbounds ([61 x i8], [61 x i8]* @__PRETTY_FUNCTION__._ZN6Packet14set_mac_headerEPKhj, i64 0, i64 0)) #13, !dbg !3115
  unreachable, !dbg !3115

47:                                               ; preds = %41
  %48 = getelementptr inbounds %class.WritablePacket, %class.WritablePacket* %31, i64 0, i32 0, i32 6, i32 1, !dbg !3123
  store i8* %37, i8** %48, align 8, !dbg !3124, !tbaa !3125
  %49 = getelementptr inbounds %class.WritablePacket, %class.WritablePacket* %31, i64 0, i32 0, i32 6, i32 2, !dbg !3126
  store i8* %42, i8** %49, align 8, !dbg !3127, !tbaa !3128
  %50 = call %struct.click_ether* @_ZNK14WritablePacket12ether_headerEv(%class.WritablePacket* nonnull %31), !dbg !3129
  call void @llvm.dbg.value(metadata %struct.click_ether* %50, metadata !2914, metadata !DIExpression()), !dbg !2916
  %51 = getelementptr inbounds %struct.click_ether, %struct.click_ether* %50, i64 0, i32 0, i64 0, !dbg !3130
  call void @llvm.memcpy.p0i8.p0i8.i64(i8* nonnull align 1 dereferenceable(6) %51, i8* nonnull align 1 dereferenceable(6) %12, i64 6, i1 false), !dbg !3130
  %52 = getelementptr inbounds %struct.click_ether, %struct.click_ether* %50, i64 0, i32 1, i64 0, !dbg !3131
  call void @llvm.memcpy.p0i8.p0i8.i64(i8* nonnull align 1 dereferenceable(6) %52, i8* nonnull align 2 dereferenceable(6) %8, i64 6, i1 false), !dbg !3131
  %53 = getelementptr inbounds %struct.click_ether, %struct.click_ether* %50, i64 0, i32 2, !dbg !3132
  store i16 2184, i16* %53, align 1, !dbg !3133, !tbaa !3134
  %54 = call i8* @_ZNK14WritablePacket14network_headerEv(%class.WritablePacket* nonnull %31), !dbg !3136
  call void @llvm.dbg.value(metadata i8* %54, metadata !2915, metadata !DIExpression()), !dbg !2916
  %55 = bitcast i8* %54 to i16*, !dbg !3137
  store i16 256, i16* %55, align 2, !dbg !3138, !tbaa !3139
  %56 = load i16, i16* %6, align 2, !dbg !3141, !tbaa !2928
  call void @llvm.dbg.value(metadata i16 %56, metadata !2912, metadata !DIExpression()), !dbg !2916
  %57 = call i16 @llvm.bswap.i16(i16 %56) #12
  %58 = getelementptr inbounds i8, i8* %54, i64 2, !dbg !3142
  %59 = bitcast i8* %58 to i16*, !dbg !3142
  store i16 %57, i16* %59, align 2, !dbg !3143, !tbaa !3144
  %60 = getelementptr inbounds i8, i8* %54, i64 4, !dbg !3145
  call void @llvm.memset.p0i8.i64(i8* nonnull align 2 dereferenceable(42) %60, i8 0, i64 42, i1 false), !dbg !3146
  %61 = getelementptr inbounds %class.EtherPauseSource, %class.EtherPauseSource* %0, i64 0, i32 5, !dbg !3147
  store %class.Packet* %36, %class.Packet** %61, align 8, !dbg !3148, !tbaa !2847
  br label %62

62:                                               ; preds = %33, %47, %26
  %63 = phi i32 [ -1, %26 ], [ 0, %47 ], [ -12, %33 ], !dbg !2916
  call void @llvm.lifetime.end.p0i8(i64 2, i8* nonnull %13) #12, !dbg !3083
  call void @llvm.lifetime.end.p0i8(i64 6, i8* nonnull %12) #12, !dbg !3083
  call void @llvm.lifetime.end.p0i8(i64 6, i8* nonnull %8) #12, !dbg !3083
  ret i32 %63, !dbg !3083
}

; Function Attrs: argmemonly nounwind willreturn
declare void @llvm.lifetime.start.p0i8(i64 immarg, i8* nocapture) #6

declare void @_ZN4ArgsC1ERK6VectorI6StringEPK7ElementP12ErrorHandler(%class.Args*, %class.Vector* dereferenceable(16), %class.Element*, %class.ErrorHandler*) unnamed_addr #2

declare i32 @_ZN4Args8completeEv(%class.Args*) local_unnamed_addr #2

; Function Attrs: nounwind
declare void @_ZN4ArgsD1Ev(%class.Args*) unnamed_addr #3

; Function Attrs: argmemonly nounwind willreturn
declare void @llvm.lifetime.end.p0i8(i64 immarg, i8* nocapture) #6

declare i32 @_ZN12ErrorHandler5errorEPKcz(%class.ErrorHandler*, i8*, ...) local_unnamed_addr #2

declare i8* @_ZNK14WritablePacket4dataEv(%class.WritablePacket*) local_unnamed_addr #2

declare %struct.click_ether* @_ZNK14WritablePacket12ether_headerEv(%class.WritablePacket*) local_unnamed_addr #2

; Function Attrs: argmemonly nounwind willreturn
declare void @llvm.memcpy.p0i8.p0i8.i64(i8* noalias nocapture writeonly, i8* noalias nocapture readonly, i64, i1 immarg) #6

declare i8* @_ZNK14WritablePacket14network_headerEv(%class.WritablePacket*) local_unnamed_addr #2

; Function Attrs: argmemonly nounwind willreturn
declare void @llvm.memset.p0i8.i64(i8* nocapture writeonly, i8, i64, i1 immarg) #6

; Function Attrs: sspstrong uwtable
define dso_local i32 @_ZN16EtherPauseSource10initializeEP12ErrorHandler(%class.EtherPauseSource* %0, %class.ErrorHandler* nocapture readnone %1) unnamed_addr #0 align 2 !dbg !3149 {
  %3 = alloca %class.Timestamp, align 8
  call void @llvm.dbg.value(metadata %class.EtherPauseSource* %0, metadata !3151, metadata !DIExpression()), !dbg !3153
  call void @llvm.dbg.value(metadata %class.ErrorHandler* undef, metadata !3152, metadata !DIExpression()), !dbg !3153
  %4 = getelementptr inbounds %class.EtherPauseSource, %class.EtherPauseSource* %0, i64 0, i32 1, !dbg !3154
  store i32 0, i32* %4, align 4, !dbg !3155, !tbaa !3156
  %5 = getelementptr inbounds %class.EtherPauseSource, %class.EtherPauseSource* %0, i64 0, i32 6, !dbg !3157
  %6 = bitcast %class.EtherPauseSource* %0 to %class.Element*, !dbg !3158
  tail call void @_ZN5Timer10initializeEP7Elementb(%class.Timer* nonnull %5, %class.Element* %6, i1 zeroext false), !dbg !3159
  %7 = getelementptr inbounds %class.EtherPauseSource, %class.EtherPauseSource* %0, i64 0, i32 2, !dbg !3160
  %8 = load i32, i32* %7, align 8, !dbg !3160, !tbaa !2946
  %9 = icmp eq i32 %8, 0, !dbg !3162
  br i1 %9, label %31, label %10, !dbg !3163

10:                                               ; preds = %2
  %11 = getelementptr inbounds %class.EtherPauseSource, %class.EtherPauseSource* %0, i64 0, i32 3, !dbg !3164
  %12 = load i8, i8* %11, align 4, !dbg !3164, !tbaa !2949, !range !3165
  %13 = icmp eq i8 %12, 0, !dbg !3164
  br i1 %13, label %31, label %14, !dbg !3166

14:                                               ; preds = %10
  call void @llvm.dbg.value(metadata %class.Element* %6, metadata !3167, metadata !DIExpression()), !dbg !3175
  call void @llvm.dbg.value(metadata i32 0, metadata !3174, metadata !DIExpression()), !dbg !3175
  call void @llvm.dbg.value(metadata %class.Element* %6, metadata !3177, metadata !DIExpression()), !dbg !3185
  call void @llvm.dbg.value(metadata i1 true, metadata !3183, metadata !DIExpression()), !dbg !3185
  call void @llvm.dbg.value(metadata i32 0, metadata !3184, metadata !DIExpression()), !dbg !3185
  call void @llvm.dbg.value(metadata %class.Element* %6, metadata !3187, metadata !DIExpression()), !dbg !3194
  call void @llvm.dbg.value(metadata i1 true, metadata !3193, metadata !DIExpression()), !dbg !3194
  %15 = getelementptr inbounds %class.EtherPauseSource, %class.EtherPauseSource* %0, i64 0, i32 0, i32 3, i64 1, !dbg !3196
  %16 = load i32, i32* %15, align 4, !dbg !3196, !tbaa !3197
  %17 = icmp eq i32 %16, 0, !dbg !3198
  br i1 %17, label %31, label %18, !dbg !3199

18:                                               ; preds = %14
  %19 = getelementptr inbounds %class.EtherPauseSource, %class.EtherPauseSource* %0, i64 0, i32 0, i32 1, i64 1, !dbg !3200
  %20 = load %"class.Element::Port"*, %"class.Element::Port"** %19, align 8, !dbg !3200, !tbaa !3201
  call void @llvm.dbg.value(metadata %"class.Element::Port"* undef, metadata !3202, metadata !DIExpression()), !dbg !3237
  %21 = getelementptr inbounds %"class.Element::Port", %"class.Element::Port"* %20, i64 0, i32 1, !dbg !3239
  %22 = load i32, i32* %21, align 8, !dbg !3239, !tbaa !3240
  %23 = icmp sgt i32 %22, -1, !dbg !3242
  br i1 %23, label %24, label %31, !dbg !3243

24:                                               ; preds = %18
  %25 = getelementptr inbounds %class.EtherPauseSource, %class.EtherPauseSource* %0, i64 0, i32 4, !dbg !3244
  %26 = load i32, i32* %25, align 8, !dbg !3244, !tbaa !2952
  call void @llvm.dbg.value(metadata %class.Timer* %5, metadata !3245, metadata !DIExpression()), !dbg !3249
  call void @llvm.dbg.value(metadata i32 %26, metadata !3248, metadata !DIExpression()), !dbg !3249
  %27 = bitcast %class.Timestamp* %3 to i8*, !dbg !3251
  call void @llvm.lifetime.start.p0i8(i64 8, i8* nonnull %27) #12, !dbg !3251
  %28 = zext i32 %26 to i64, !dbg !3252
  call void @llvm.dbg.value(metadata i64 %28, metadata !3253, metadata !DIExpression()), !dbg !3257
  %29 = mul nuw nsw i64 %28, 1000000, !dbg !3259
  call void @llvm.dbg.value(metadata i64 %29, metadata !3256, metadata !DIExpression()), !dbg !3257
  %30 = getelementptr inbounds %class.Timestamp, %class.Timestamp* %3, i64 0, i32 0, i32 0, !dbg !3251
  store i64 %29, i64* %30, align 8, !dbg !3251
  call void @_ZN5Timer14schedule_afterERK9Timestamp(%class.Timer* nonnull %5, %class.Timestamp* nonnull dereferenceable(8) %3), !dbg !3260
  call void @llvm.lifetime.end.p0i8(i64 8, i8* nonnull %27) #12, !dbg !3260
  br label %31, !dbg !3261

31:                                               ; preds = %14, %10, %2, %24, %18
  ret i32 0, !dbg !3262
}

declare void @_ZN5Timer10initializeEP7Elementb(%class.Timer*, %class.Element*, i1 zeroext) local_unnamed_addr #2

; Function Attrs: sspstrong uwtable
define dso_local void @_ZN16EtherPauseSource7cleanupEN7Element12CleanupStageE(%class.EtherPauseSource* nocapture %0, i32 %1) unnamed_addr #0 align 2 !dbg !3263 {
  call void @llvm.dbg.value(metadata %class.EtherPauseSource* %0, metadata !3265, metadata !DIExpression()), !dbg !3267
  call void @llvm.dbg.value(metadata i32 undef, metadata !3266, metadata !DIExpression()), !dbg !3267
  %3 = getelementptr inbounds %class.EtherPauseSource, %class.EtherPauseSource* %0, i64 0, i32 5, !dbg !3268
  %4 = load %class.Packet*, %class.Packet** %3, align 8, !dbg !3268, !tbaa !2847
  %5 = icmp eq %class.Packet* %4, null, !dbg !3268
  br i1 %5, label %7, label %6, !dbg !3270

6:                                                ; preds = %2
  tail call void @_ZN6Packet4killEv(%class.Packet* nonnull %4), !dbg !3271
  store %class.Packet* null, %class.Packet** %3, align 8, !dbg !3273, !tbaa !2847
  br label %7, !dbg !3274

7:                                                ; preds = %2, %6
  ret void, !dbg !3275
}

declare void @_ZN6Packet4killEv(%class.Packet*) local_unnamed_addr #2

; Function Attrs: sspstrong uwtable
define dso_local void @_ZN16EtherPauseSource9run_timerEP5Timer(%class.EtherPauseSource* %0, %class.Timer* nocapture readnone %1) unnamed_addr #0 align 2 !dbg !3276 {
  %3 = alloca %class.Timestamp, align 8
  call void @llvm.dbg.value(metadata %class.EtherPauseSource* %0, metadata !3278, metadata !DIExpression()), !dbg !3282
  call void @llvm.dbg.value(metadata %class.Timer* undef, metadata !3279, metadata !DIExpression()), !dbg !3282
  %4 = getelementptr inbounds %class.EtherPauseSource, %class.EtherPauseSource* %0, i64 0, i32 5, !dbg !3283
  %5 = load %class.Packet*, %class.Packet** %4, align 8, !dbg !3283, !tbaa !2847
  %6 = tail call %class.Packet* @_ZN6Packet5cloneEv(%class.Packet* %5), !dbg !3284
  call void @llvm.dbg.value(metadata %class.Packet* %6, metadata !3280, metadata !DIExpression()), !dbg !3285
  %7 = icmp eq %class.Packet* %6, null, !dbg !3286
  br i1 %7, label %14, label %8, !dbg !3287

8:                                                ; preds = %2
  %9 = getelementptr inbounds %class.EtherPauseSource, %class.EtherPauseSource* %0, i64 0, i32 1, !dbg !3288
  %10 = load i32, i32* %9, align 4, !dbg !3290, !tbaa !3156
  %11 = add nsw i32 %10, 1, !dbg !3290
  store i32 %11, i32* %9, align 4, !dbg !3290, !tbaa !3156
  %12 = bitcast %class.EtherPauseSource* %0 to %class.Element*, !dbg !3291
  %13 = tail call dereferenceable(16) %"class.Element::Port"* @_ZNK7Element6outputEi(%class.Element* %12, i32 0), !dbg !3291
  tail call void @_ZNK7Element4Port4pushEP6Packet(%"class.Element::Port"* nonnull %13, %class.Packet* nonnull %6), !dbg !3292
  br label %14, !dbg !3293

14:                                               ; preds = %2, %8
  %15 = getelementptr inbounds %class.EtherPauseSource, %class.EtherPauseSource* %0, i64 0, i32 2, !dbg !3294
  %16 = load i32, i32* %15, align 8, !dbg !3294, !tbaa !2946
  %17 = icmp slt i32 %16, 0, !dbg !3296
  br i1 %17, label %22, label %18, !dbg !3297

18:                                               ; preds = %14
  %19 = getelementptr inbounds %class.EtherPauseSource, %class.EtherPauseSource* %0, i64 0, i32 1, !dbg !3298
  %20 = load i32, i32* %19, align 4, !dbg !3298, !tbaa !3156
  %21 = icmp slt i32 %20, %16, !dbg !3299
  br i1 %21, label %22, label %33, !dbg !3300

22:                                               ; preds = %18, %14
  %23 = getelementptr inbounds %class.EtherPauseSource, %class.EtherPauseSource* %0, i64 0, i32 6, !dbg !3301
  %24 = getelementptr inbounds %class.EtherPauseSource, %class.EtherPauseSource* %0, i64 0, i32 4, !dbg !3302
  %25 = load i32, i32* %24, align 8, !dbg !3302, !tbaa !2952
  call void @llvm.dbg.value(metadata %class.Timer* %23, metadata !3303, metadata !DIExpression()), !dbg !3307
  call void @llvm.dbg.value(metadata i32 %25, metadata !3306, metadata !DIExpression()), !dbg !3307
  %26 = bitcast %class.Timestamp* %3 to i8*, !dbg !3309
  call void @llvm.lifetime.start.p0i8(i64 8, i8* nonnull %26) #12, !dbg !3309
  %27 = getelementptr inbounds %class.EtherPauseSource, %class.EtherPauseSource* %0, i64 0, i32 6, i32 1, i32 0, i32 0, !dbg !3309
  %28 = load i64, i64* %27, align 8, !dbg !3309, !tbaa.struct !3310
  %29 = zext i32 %25 to i64, !dbg !3313
  call void @llvm.dbg.value(metadata i64 %29, metadata !3253, metadata !DIExpression()), !dbg !3314
  %30 = mul nuw nsw i64 %29, 1000000, !dbg !3316
  call void @llvm.dbg.value(metadata i64 %30, metadata !3256, metadata !DIExpression()), !dbg !3314
  call void @llvm.dbg.value(metadata i64 %28, metadata !3317, metadata !DIExpression()), !dbg !3323
  call void @llvm.dbg.value(metadata %class.Timestamp* undef, metadata !3322, metadata !DIExpression()), !dbg !3323
  call void @llvm.dbg.value(metadata %class.Timestamp* undef, metadata !3325, metadata !DIExpression()), !dbg !3331
  call void @llvm.dbg.value(metadata %class.Timestamp* undef, metadata !3330, metadata !DIExpression()), !dbg !3331
  %31 = add nsw i64 %28, %30, !dbg !3333
  call void @llvm.dbg.value(metadata i64 %31, metadata !3317, metadata !DIExpression()), !dbg !3323
  %32 = getelementptr inbounds %class.Timestamp, %class.Timestamp* %3, i64 0, i32 0, i32 0, !dbg !3334
  store i64 %31, i64* %32, align 8, !dbg !3334
  call void @_ZN5Timer18schedule_at_steadyERK9Timestamp(%class.Timer* nonnull %23, %class.Timestamp* nonnull dereferenceable(8) %3), !dbg !3335
  call void @llvm.lifetime.end.p0i8(i64 8, i8* nonnull %26) #12, !dbg !3335
  br label %33, !dbg !3301

33:                                               ; preds = %22, %18
  ret void, !dbg !3336
}

declare %class.Packet* @_ZN6Packet5cloneEv(%class.Packet*) local_unnamed_addr #2

; Function Attrs: noinline optnone sspstrong uwtable
define linkonce_odr dso_local dereferenceable(16) %"class.Element::Port"* @_ZNK7Element6outputEi(%class.Element* %0, i32 %1) local_unnamed_addr #7 comdat align 2 !dbg !3337 {
  %3 = alloca %class.Element*, align 8
  %4 = alloca i32, align 4
  store %class.Element* %0, %class.Element** %3, align 8, !tbaa !3201
  call void @llvm.dbg.declare(metadata %class.Element** %3, metadata !3343, metadata !DIExpression()), !dbg !3345
  store i32 %1, i32* %4, align 4, !tbaa !3197
  call void @llvm.dbg.declare(metadata i32* %4, metadata !3344, metadata !DIExpression()), !dbg !3346
  %5 = load %class.Element*, %class.Element** %3, align 8
  %6 = load i32, i32* %4, align 4, !dbg !3347, !tbaa !3197
  %7 = call dereferenceable(16) %"class.Element::Port"* @_ZNK7Element4portEbi(%class.Element* %5, i1 zeroext true, i32 %6), !dbg !3348
  ret %"class.Element::Port"* %7, !dbg !3349
}

; Function Attrs: noinline optnone sspstrong uwtable
define linkonce_odr dso_local void @_ZNK7Element4Port4pushEP6Packet(%"class.Element::Port"* %0, %class.Packet* %1) local_unnamed_addr #7 comdat align 2 !dbg !3350 {
  %3 = alloca %"class.Element::Port"*, align 8
  %4 = alloca %class.Packet*, align 8
  store %"class.Element::Port"* %0, %"class.Element::Port"** %3, align 8, !tbaa !3201
  call void @llvm.dbg.declare(metadata %"class.Element::Port"** %3, metadata !3352, metadata !DIExpression()), !dbg !3354
  store %class.Packet* %1, %class.Packet** %4, align 8, !tbaa !3201
  call void @llvm.dbg.declare(metadata %class.Packet** %4, metadata !3353, metadata !DIExpression()), !dbg !3355
  %5 = load %"class.Element::Port"*, %"class.Element::Port"** %3, align 8
  %6 = getelementptr inbounds %"class.Element::Port", %"class.Element::Port"* %5, i32 0, i32 0, !dbg !3356
  %7 = load %class.Element*, %class.Element** %6, align 8, !dbg !3356, !tbaa !3357
  %8 = icmp ne %class.Element* %7, null, !dbg !3356
  br i1 %8, label %9, label %12, !dbg !3356

9:                                                ; preds = %2
  %10 = load %class.Packet*, %class.Packet** %4, align 8, !dbg !3356, !tbaa !3201
  %11 = icmp ne %class.Packet* %10, null, !dbg !3356
  br label %12

12:                                               ; preds = %9, %2
  %13 = phi i1 [ false, %2 ], [ %11, %9 ], !dbg !3354
  br i1 %13, label %14, label %15, !dbg !3356

14:                                               ; preds = %12
  br label %16, !dbg !3356

15:                                               ; preds = %12
  call void @__assert_fail(i8* getelementptr inbounds ([8 x i8], [8 x i8]* @.str.19, i64 0, i64 0), i8* getelementptr inbounds ([30 x i8], [30 x i8]* @.str.18, i64 0, i64 0), i32 611, i8* getelementptr inbounds ([41 x i8], [41 x i8]* @__PRETTY_FUNCTION__._ZNK7Element4Port4pushEP6Packet, i64 0, i64 0)) #13, !dbg !3356
  unreachable, !dbg !3356

16:                                               ; preds = %14
  %17 = getelementptr inbounds %"class.Element::Port", %"class.Element::Port"* %5, i32 0, i32 0, !dbg !3358
  %18 = load %class.Element*, %class.Element** %17, align 8, !dbg !3358, !tbaa !3357
  %19 = getelementptr inbounds %"class.Element::Port", %"class.Element::Port"* %5, i32 0, i32 1, !dbg !3359
  %20 = load i32, i32* %19, align 8, !dbg !3359, !tbaa !3240
  %21 = load %class.Packet*, %class.Packet** %4, align 8, !dbg !3360, !tbaa !3201
  %22 = bitcast %class.Element* %18 to void (%class.Element*, i32, %class.Packet*)***, !dbg !3361
  %23 = load void (%class.Element*, i32, %class.Packet*)**, void (%class.Element*, i32, %class.Packet*)*** %22, align 8, !dbg !3361, !tbaa !2843
  %24 = getelementptr inbounds void (%class.Element*, i32, %class.Packet*)*, void (%class.Element*, i32, %class.Packet*)** %23, i64 2, !dbg !3361
  %25 = load void (%class.Element*, i32, %class.Packet*)*, void (%class.Element*, i32, %class.Packet*)** %24, align 8, !dbg !3361
  call void %25(%class.Element* %18, i32 %20, %class.Packet* %21), !dbg !3361
  ret void, !dbg !3362
}

; Function Attrs: sspstrong uwtable
define dso_local %class.Packet* @_ZN16EtherPauseSource4pullEi(%class.EtherPauseSource* nocapture %0, i32 %1) unnamed_addr #0 align 2 !dbg !3363 {
  call void @llvm.dbg.value(metadata %class.EtherPauseSource* %0, metadata !3365, metadata !DIExpression()), !dbg !3369
  call void @llvm.dbg.value(metadata i32 undef, metadata !3366, metadata !DIExpression()), !dbg !3369
  %3 = getelementptr inbounds %class.EtherPauseSource, %class.EtherPauseSource* %0, i64 0, i32 3, !dbg !3370
  %4 = load i8, i8* %3, align 4, !dbg !3370, !tbaa !2949, !range !3165
  %5 = icmp eq i8 %4, 0, !dbg !3370
  br i1 %5, label %23, label %6, !dbg !3372

6:                                                ; preds = %2
  %7 = getelementptr inbounds %class.EtherPauseSource, %class.EtherPauseSource* %0, i64 0, i32 2, !dbg !3373
  %8 = load i32, i32* %7, align 8, !dbg !3373, !tbaa !2946
  %9 = icmp sgt i32 %8, -1, !dbg !3374
  br i1 %9, label %10, label %14, !dbg !3375

10:                                               ; preds = %6
  %11 = getelementptr inbounds %class.EtherPauseSource, %class.EtherPauseSource* %0, i64 0, i32 1, !dbg !3376
  %12 = load i32, i32* %11, align 4, !dbg !3376, !tbaa !3156
  %13 = icmp slt i32 %12, %8, !dbg !3377
  br i1 %13, label %14, label %23, !dbg !3378

14:                                               ; preds = %10, %6
  %15 = getelementptr inbounds %class.EtherPauseSource, %class.EtherPauseSource* %0, i64 0, i32 5, !dbg !3379
  %16 = load %class.Packet*, %class.Packet** %15, align 8, !dbg !3379, !tbaa !2847
  %17 = tail call %class.Packet* @_ZN6Packet5cloneEv(%class.Packet* %16), !dbg !3380
  call void @llvm.dbg.value(metadata %class.Packet* %17, metadata !3367, metadata !DIExpression()), !dbg !3381
  %18 = icmp eq %class.Packet* %17, null, !dbg !3382
  br i1 %18, label %23, label %19, !dbg !3383

19:                                               ; preds = %14
  %20 = getelementptr inbounds %class.EtherPauseSource, %class.EtherPauseSource* %0, i64 0, i32 1, !dbg !3384
  %21 = load i32, i32* %20, align 4, !dbg !3386, !tbaa !3156
  %22 = add nsw i32 %21, 1, !dbg !3386
  store i32 %22, i32* %20, align 4, !dbg !3386, !tbaa !3156
  br label %23, !dbg !3387

23:                                               ; preds = %19, %14, %2, %10
  %24 = phi %class.Packet* [ null, %10 ], [ null, %2 ], [ %17, %19 ], [ null, %14 ], !dbg !3369
  ret %class.Packet* %24, !dbg !3388
}

; Function Attrs: sspstrong uwtable
define dso_local void @_ZN16EtherPauseSource6readerEP7ElementPv(%class.String* noalias sret %0, %class.Element* nocapture readonly %1, i8* %2) #0 align 2 !dbg !3389 {
  %4 = alloca %class.EtherAddress, align 1
  %5 = alloca %class.EtherAddress, align 1
  call void @llvm.dbg.value(metadata %class.Element* %1, metadata !3391, metadata !DIExpression()), !dbg !3397
  call void @llvm.dbg.value(metadata i8* %2, metadata !3392, metadata !DIExpression()), !dbg !3397
  call void @llvm.dbg.value(metadata %class.Element* %1, metadata !3393, metadata !DIExpression()), !dbg !3397
  %6 = ptrtoint i8* %2 to i64, !dbg !3398
  switch i64 %6, label %35 [
    i64 2, label %7
    i64 3, label %16
    i64 4, label %25
  ], !dbg !3399

7:                                                ; preds = %3
  call void @llvm.dbg.value(metadata %class.Element* %1, metadata !3393, metadata !DIExpression()), !dbg !3397
  %8 = bitcast %class.EtherAddress* %4 to i8*, !dbg !3400
  call void @llvm.lifetime.start.p0i8(i64 6, i8* nonnull %8) #12, !dbg !3400
  %9 = getelementptr inbounds %class.Element, %class.Element* %1, i64 1, i32 1, i64 1, !dbg !3401
  %10 = bitcast %"class.Element::Port"** %9 to %class.Packet**, !dbg !3401
  %11 = load %class.Packet*, %class.Packet** %10, align 8, !dbg !3401, !tbaa !2847
  call void @llvm.dbg.value(metadata %class.Packet* %11, metadata !3402, metadata !DIExpression()), !dbg !3405
  call void @llvm.dbg.value(metadata %class.Packet* %11, metadata !3407, metadata !DIExpression()), !dbg !3410
  %12 = getelementptr inbounds %class.Packet, %class.Packet* %11, i64 0, i32 6, i32 1, !dbg !3412
  %13 = bitcast i8** %12 to %struct.click_ether**, !dbg !3412
  %14 = load %struct.click_ether*, %struct.click_ether** %13, align 8, !dbg !3412, !tbaa !3125
  %15 = getelementptr inbounds %struct.click_ether, %struct.click_ether* %14, i64 0, i32 1, i64 0, !dbg !3413
  call void @llvm.dbg.value(metadata %class.EtherAddress* %4, metadata !2935, metadata !DIExpression()) #12, !dbg !3414
  call void @llvm.dbg.value(metadata i8* %15, metadata !2938, metadata !DIExpression()) #12, !dbg !3414
  call void @llvm.memcpy.p0i8.p0i8.i64(i8* nonnull align 1 dereferenceable(6) %8, i8* nonnull align 1 dereferenceable(6) %15, i64 6, i1 false) #12, !dbg !3416
  call void @llvm.dbg.value(metadata %class.EtherAddress* %4, metadata !3417, metadata !DIExpression()), !dbg !3421
  call void @_ZNK12EtherAddress12unparse_dashEv(%class.String* sret %0, %class.EtherAddress* nonnull %4), !dbg !3423
  call void @llvm.lifetime.end.p0i8(i64 6, i8* nonnull %8) #12, !dbg !3424
  br label %39, !dbg !3424

16:                                               ; preds = %3
  %17 = bitcast %class.EtherAddress* %5 to i8*, !dbg !3425
  call void @llvm.lifetime.start.p0i8(i64 6, i8* nonnull %17) #12, !dbg !3425
  %18 = getelementptr inbounds %class.Element, %class.Element* %1, i64 1, i32 1, i64 1, !dbg !3426
  %19 = bitcast %"class.Element::Port"** %18 to %class.Packet**, !dbg !3426
  %20 = load %class.Packet*, %class.Packet** %19, align 8, !dbg !3426, !tbaa !2847
  call void @llvm.dbg.value(metadata %class.Packet* %20, metadata !3402, metadata !DIExpression()), !dbg !3427
  call void @llvm.dbg.value(metadata %class.Packet* %20, metadata !3407, metadata !DIExpression()), !dbg !3429
  %21 = getelementptr inbounds %class.Packet, %class.Packet* %20, i64 0, i32 6, i32 1, !dbg !3431
  %22 = bitcast i8** %21 to %struct.click_ether**, !dbg !3431
  %23 = load %struct.click_ether*, %struct.click_ether** %22, align 8, !dbg !3431, !tbaa !3125
  %24 = getelementptr inbounds %struct.click_ether, %struct.click_ether* %23, i64 0, i32 0, i64 0, !dbg !3432
  call void @llvm.dbg.value(metadata %class.EtherAddress* %5, metadata !2935, metadata !DIExpression()) #12, !dbg !3433
  call void @llvm.dbg.value(metadata i8* %24, metadata !2938, metadata !DIExpression()) #12, !dbg !3433
  call void @llvm.memcpy.p0i8.p0i8.i64(i8* nonnull align 1 dereferenceable(6) %17, i8* nonnull align 1 dereferenceable(6) %24, i64 6, i1 false) #12, !dbg !3435
  call void @llvm.dbg.value(metadata %class.EtherAddress* %5, metadata !3417, metadata !DIExpression()), !dbg !3436
  call void @_ZNK12EtherAddress12unparse_dashEv(%class.String* sret %0, %class.EtherAddress* nonnull %5), !dbg !3438
  call void @llvm.lifetime.end.p0i8(i64 6, i8* nonnull %17) #12, !dbg !3439
  br label %39, !dbg !3439

25:                                               ; preds = %3
  %26 = getelementptr inbounds %class.Element, %class.Element* %1, i64 1, i32 1, i64 1, !dbg !3440
  %27 = bitcast %"class.Element::Port"** %26 to %class.Packet**, !dbg !3440
  %28 = load %class.Packet*, %class.Packet** %27, align 8, !dbg !3440, !tbaa !2847
  %29 = tail call i8* @_ZNK6Packet14network_headerEv(%class.Packet* %28), !dbg !3441
  call void @llvm.dbg.value(metadata i8* %29, metadata !3394, metadata !DIExpression()), !dbg !3442
  %30 = getelementptr inbounds i8, i8* %29, i64 2, !dbg !3443
  %31 = bitcast i8* %30 to i16*, !dbg !3443
  %32 = load i16, i16* %31, align 2, !dbg !3443, !tbaa !3144
  %33 = tail call i16 @llvm.bswap.i16(i16 %32) #12
  %34 = zext i16 %33 to i32, !dbg !3443
  tail call void @_ZN6StringC1Ei(%class.String* %0, i32 %34), !dbg !3444
  br label %39

35:                                               ; preds = %3
  call void @llvm.dbg.value(metadata %class.String* %0, metadata !3445, metadata !DIExpression()), !dbg !3448
  call void @llvm.dbg.value(metadata %class.String* %0, metadata !3450, metadata !DIExpression()), !dbg !3456
  call void @llvm.dbg.value(metadata i8* @_ZN6String9null_dataE, metadata !3453, metadata !DIExpression()), !dbg !3456
  call void @llvm.dbg.value(metadata i32 0, metadata !3454, metadata !DIExpression()), !dbg !3456
  call void @llvm.dbg.value(metadata %"struct.String::memo_t"* null, metadata !3455, metadata !DIExpression()), !dbg !3456
  %36 = getelementptr inbounds %class.String, %class.String* %0, i64 0, i32 0, i32 0, !dbg !3459
  store i8* @_ZN6String9null_dataE, i8** %36, align 8, !dbg !3460, !tbaa !3461
  %37 = getelementptr inbounds %class.String, %class.String* %0, i64 0, i32 0, i32 1, !dbg !3464
  store i32 0, i32* %37, align 8, !dbg !3465, !tbaa !3466
  %38 = getelementptr inbounds %class.String, %class.String* %0, i64 0, i32 0, i32 2, !dbg !3467
  store %"struct.String::memo_t"* null, %"struct.String::memo_t"** %38, align 8, !dbg !3469, !tbaa !3470
  br label %39, !dbg !3471

39:                                               ; preds = %35, %25, %16, %7
  ret void, !dbg !3472
}

declare i8* @_ZNK6Packet14network_headerEv(%class.Packet*) local_unnamed_addr #2

declare void @_ZN6StringC1Ei(%class.String*, i32) unnamed_addr #2

; Function Attrs: sspstrong uwtable
define dso_local i32 @_ZN16EtherPauseSource14rewrite_packetEPKvjjP12ErrorHandler(%class.EtherPauseSource* nocapture %0, i8* nocapture readonly %1, i32 %2, i32 %3, %class.ErrorHandler* %4) local_unnamed_addr #0 align 2 !dbg !3473 {
  call void @llvm.dbg.value(metadata %class.EtherPauseSource* %0, metadata !3475, metadata !DIExpression()), !dbg !3482
  call void @llvm.dbg.value(metadata i8* %1, metadata !3476, metadata !DIExpression()), !dbg !3482
  call void @llvm.dbg.value(metadata i32 %2, metadata !3477, metadata !DIExpression()), !dbg !3482
  call void @llvm.dbg.value(metadata i32 %3, metadata !3478, metadata !DIExpression()), !dbg !3482
  call void @llvm.dbg.value(metadata %class.ErrorHandler* %4, metadata !3479, metadata !DIExpression()), !dbg !3482
  call void @llvm.dbg.value(metadata i32 64, metadata !3084, metadata !DIExpression()), !dbg !3483
  %6 = tail call %class.WritablePacket* @_ZN6Packet4makeEjPKvjj(i32 28, i8* null, i32 64, i32 0), !dbg !3485
  call void @llvm.dbg.value(metadata %class.WritablePacket* %6, metadata !3480, metadata !DIExpression()), !dbg !3486
  %7 = icmp eq %class.WritablePacket* %6, null, !dbg !3487
  br i1 %7, label %32, label %8, !dbg !3488

8:                                                ; preds = %5
  %9 = tail call i8* @_ZNK14WritablePacket4dataEv(%class.WritablePacket* nonnull %6), !dbg !3489
  %10 = getelementptr inbounds %class.EtherPauseSource, %class.EtherPauseSource* %0, i64 0, i32 5, !dbg !3491
  %11 = load %class.Packet*, %class.Packet** %10, align 8, !dbg !3491, !tbaa !2847
  %12 = tail call i8* @_ZNK6Packet4dataEv(%class.Packet* %11), !dbg !3492
  tail call void @llvm.memcpy.p0i8.p0i8.i64(i8* nonnull align 1 dereferenceable(64) %9, i8* nonnull align 1 dereferenceable(64) %12, i64 64, i1 false), !dbg !3493
  %13 = tail call i8* @_ZNK14WritablePacket4dataEv(%class.WritablePacket* nonnull %6), !dbg !3494
  %14 = zext i32 %2 to i64, !dbg !3495
  %15 = getelementptr inbounds i8, i8* %13, i64 %14, !dbg !3495
  %16 = zext i32 %3 to i64, !dbg !3496
  tail call void @llvm.memcpy.p0i8.p0i8.i64(i8* align 1 %15, i8* align 1 %1, i64 %16, i1 false), !dbg !3497
  %17 = getelementptr %class.WritablePacket, %class.WritablePacket* %6, i64 0, i32 0, !dbg !3498
  %18 = tail call i8* @_ZNK14WritablePacket4dataEv(%class.WritablePacket* nonnull %6), !dbg !3499
  call void @llvm.dbg.value(metadata %class.Packet* %17, metadata !3097, metadata !DIExpression()), !dbg !3500
  call void @llvm.dbg.value(metadata i8* %18, metadata !3100, metadata !DIExpression()), !dbg !3500
  call void @llvm.dbg.value(metadata i32 14, metadata !3101, metadata !DIExpression()), !dbg !3500
  call void @llvm.dbg.value(metadata %class.Packet* %17, metadata !3104, metadata !DIExpression()), !dbg !3502
  %19 = getelementptr inbounds %class.WritablePacket, %class.WritablePacket* %6, i64 0, i32 0, i32 2, !dbg !3504
  %20 = load i8*, i8** %19, align 8, !dbg !3504, !tbaa !3110
  %21 = icmp ugt i8* %20, %18, !dbg !3505
  br i1 %21, label %27, label %22, !dbg !3505

22:                                               ; preds = %8
  %23 = getelementptr inbounds i8, i8* %18, i64 14, !dbg !3505
  call void @llvm.dbg.value(metadata %class.Packet* %17, metadata !3116, metadata !DIExpression()), !dbg !3506
  %24 = getelementptr inbounds %class.WritablePacket, %class.WritablePacket* %6, i64 0, i32 0, i32 5, !dbg !3508
  %25 = load i8*, i8** %24, align 8, !dbg !3508, !tbaa !3122
  %26 = icmp ugt i8* %23, %25, !dbg !3505
  br i1 %26, label %27, label %28, !dbg !3505

27:                                               ; preds = %22, %8
  tail call void @__assert_fail(i8* getelementptr inbounds ([41 x i8], [41 x i8]* @.str.15, i64 0, i64 0), i8* getelementptr inbounds ([29 x i8], [29 x i8]* @.str.16, i64 0, i64 0), i32 1735, i8* getelementptr inbounds ([61 x i8], [61 x i8]* @__PRETTY_FUNCTION__._ZN6Packet14set_mac_headerEPKhj, i64 0, i64 0)) #13, !dbg !3505
  unreachable, !dbg !3505

28:                                               ; preds = %22
  %29 = getelementptr inbounds %class.WritablePacket, %class.WritablePacket* %6, i64 0, i32 0, i32 6, i32 1, !dbg !3509
  store i8* %18, i8** %29, align 8, !dbg !3510, !tbaa !3125
  %30 = getelementptr inbounds %class.WritablePacket, %class.WritablePacket* %6, i64 0, i32 0, i32 6, i32 2, !dbg !3511
  store i8* %23, i8** %30, align 8, !dbg !3512, !tbaa !3128
  %31 = load %class.Packet*, %class.Packet** %10, align 8, !dbg !3513, !tbaa !2847
  tail call void @_ZN6Packet4killEv(%class.Packet* %31), !dbg !3514
  store %class.Packet* %17, %class.Packet** %10, align 8, !dbg !3515, !tbaa !2847
  br label %34, !dbg !3516

32:                                               ; preds = %5
  %33 = tail call i32 (%class.ErrorHandler*, i8*, ...) @_ZN12ErrorHandler5errorEPKcz(%class.ErrorHandler* %4, i8* getelementptr inbounds ([15 x i8], [15 x i8]* @.str.6, i64 0, i64 0)), !dbg !3517
  br label %34, !dbg !3518

34:                                               ; preds = %32, %28
  %35 = phi i32 [ 0, %28 ], [ -12, %32 ], !dbg !3486
  ret i32 %35, !dbg !3519
}

declare i8* @_ZNK6Packet4dataEv(%class.Packet*) local_unnamed_addr #2

; Function Attrs: sspstrong uwtable
define dso_local void @_ZN16EtherPauseSource11check_awakeEv(%class.EtherPauseSource* %0) local_unnamed_addr #0 align 2 !dbg !3520 {
  %2 = alloca %class.Timestamp, align 8
  call void @llvm.dbg.declare(metadata %class.Timestamp* %2, metadata !3523, metadata !DIExpression()), !dbg !3526
  %3 = alloca %class.Timestamp, align 8
  call void @llvm.dbg.value(metadata %class.EtherPauseSource* %0, metadata !3522, metadata !DIExpression()), !dbg !3533
  call void @llvm.dbg.value(metadata %class.EtherPauseSource* %0, metadata !3167, metadata !DIExpression()), !dbg !3534
  call void @llvm.dbg.value(metadata i32 0, metadata !3174, metadata !DIExpression()), !dbg !3534
  call void @llvm.dbg.value(metadata %class.EtherPauseSource* %0, metadata !3177, metadata !DIExpression()), !dbg !3536
  call void @llvm.dbg.value(metadata i1 true, metadata !3183, metadata !DIExpression()), !dbg !3536
  call void @llvm.dbg.value(metadata i32 0, metadata !3184, metadata !DIExpression()), !dbg !3536
  call void @llvm.dbg.value(metadata %class.EtherPauseSource* %0, metadata !3187, metadata !DIExpression()), !dbg !3538
  call void @llvm.dbg.value(metadata i1 true, metadata !3193, metadata !DIExpression()), !dbg !3538
  %4 = getelementptr inbounds %class.EtherPauseSource, %class.EtherPauseSource* %0, i64 0, i32 0, i32 3, i64 1, !dbg !3540
  %5 = load i32, i32* %4, align 4, !dbg !3540, !tbaa !3197
  %6 = icmp eq i32 %5, 0, !dbg !3541
  br i1 %6, label %28, label %7, !dbg !3542

7:                                                ; preds = %1
  call void @llvm.dbg.value(metadata %class.EtherPauseSource* %0, metadata !3167, metadata !DIExpression()), !dbg !3534
  call void @llvm.dbg.value(metadata %class.EtherPauseSource* %0, metadata !3177, metadata !DIExpression()), !dbg !3536
  call void @llvm.dbg.value(metadata %class.EtherPauseSource* %0, metadata !3187, metadata !DIExpression()), !dbg !3538
  %8 = getelementptr inbounds %class.EtherPauseSource, %class.EtherPauseSource* %0, i64 0, i32 0, i32 1, i64 1, !dbg !3543
  %9 = load %"class.Element::Port"*, %"class.Element::Port"** %8, align 8, !dbg !3543, !tbaa !3201
  call void @llvm.dbg.value(metadata %"class.Element::Port"* undef, metadata !3202, metadata !DIExpression()), !dbg !3544
  %10 = getelementptr inbounds %"class.Element::Port", %"class.Element::Port"* %9, i64 0, i32 1, !dbg !3546
  %11 = load i32, i32* %10, align 8, !dbg !3546, !tbaa !3240
  %12 = icmp sgt i32 %11, -1, !dbg !3547
  br i1 %12, label %13, label %28, !dbg !3548

13:                                               ; preds = %7
  %14 = getelementptr inbounds %class.EtherPauseSource, %class.EtherPauseSource* %0, i64 0, i32 6, !dbg !3549
  call void @llvm.dbg.value(metadata %class.Timer* %14, metadata !2871, metadata !DIExpression()), !dbg !3550
  %15 = getelementptr inbounds %class.Timer, %class.Timer* %14, i64 0, i32 0, !dbg !3552
  %16 = load i32, i32* %15, align 8, !dbg !3552, !tbaa !2880
  %17 = icmp eq i32 %16, 0, !dbg !3553
  br i1 %17, label %18, label %28, !dbg !3554

18:                                               ; preds = %13
  %19 = getelementptr inbounds %class.EtherPauseSource, %class.EtherPauseSource* %0, i64 0, i32 3, !dbg !3555
  %20 = load i8, i8* %19, align 4, !dbg !3555, !tbaa !2949, !range !3165
  %21 = icmp eq i8 %20, 0, !dbg !3555
  br i1 %21, label %28, label %22, !dbg !3556

22:                                               ; preds = %18
  call void @llvm.dbg.value(metadata %class.Timer* %14, metadata !3530, metadata !DIExpression()), !dbg !3557
  %23 = bitcast %class.Timestamp* %3 to i8*, !dbg !3558
  call void @llvm.lifetime.start.p0i8(i64 8, i8* nonnull %23) #12, !dbg !3558
  %24 = bitcast %class.Timestamp* %2 to i8*, !dbg !3559
  call void @llvm.lifetime.start.p0i8(i64 8, i8* nonnull %24), !dbg !3559
  call void @llvm.dbg.value(metadata %class.Timestamp* %2, metadata !3562, metadata !DIExpression()), !dbg !3559
  call void @_ZN9Timestamp10assign_nowEbbb(%class.Timestamp* nonnull %2, i1 zeroext true, i1 zeroext true, i1 zeroext false), !dbg !3565
  %25 = getelementptr inbounds %class.Timestamp, %class.Timestamp* %2, i64 0, i32 0, i32 0, !dbg !3566
  %26 = load i64, i64* %25, align 8, !dbg !3566
  call void @llvm.lifetime.end.p0i8(i64 8, i8* nonnull %24), !dbg !3566
  %27 = getelementptr inbounds %class.Timestamp, %class.Timestamp* %3, i64 0, i32 0, i32 0, !dbg !3558
  store i64 %26, i64* %27, align 8, !dbg !3558
  call void @_ZN5Timer18schedule_at_steadyERK9Timestamp(%class.Timer* nonnull %14, %class.Timestamp* nonnull dereferenceable(8) %3), !dbg !3567
  call void @llvm.lifetime.end.p0i8(i64 8, i8* nonnull %23) #12, !dbg !3567
  br label %28, !dbg !3568

28:                                               ; preds = %13, %1, %18, %22, %7
  ret void, !dbg !3569
}

; Function Attrs: sspstrong uwtable
define dso_local i32 @_ZN16EtherPauseSource6writerERK6StringP7ElementPvP12ErrorHandler(%class.String* dereferenceable(24) %0, %class.Element* %1, i8* %2, %class.ErrorHandler* %3) #0 align 2 !dbg !3570 {
  %5 = alloca %class.Timestamp, align 8
  call void @llvm.dbg.declare(metadata %class.Timestamp* %5, metadata !3523, metadata !DIExpression()), !dbg !3583
  %6 = alloca %class.Timestamp, align 8
  %7 = alloca [1 x i32], align 4
  call void @llvm.dbg.declare(metadata [1 x i32]* %7, metadata !2167, metadata !DIExpression()), !dbg !3587
  call void @llvm.dbg.declare(metadata [1 x i32]* %7, metadata !3600, metadata !DIExpression()), !dbg !3614
  %8 = alloca %class.Timestamp, align 8
  call void @llvm.dbg.declare(metadata %class.Timestamp* %8, metadata !3523, metadata !DIExpression()), !dbg !3627
  %9 = alloca %class.Timestamp, align 8
  %10 = alloca %class.Timestamp, align 8
  call void @llvm.dbg.declare(metadata %class.Timestamp* %10, metadata !3523, metadata !DIExpression()), !dbg !3631
  %11 = alloca %class.Timestamp, align 8
  %12 = alloca %class.EtherAddress, align 2
  %13 = alloca %class.ArgContext, align 8
  %14 = alloca %class.IntArg, align 4
  %15 = alloca i16, align 2
  %16 = alloca %class.IntArg, align 4
  call void @llvm.dbg.value(metadata %class.String* %0, metadata !3572, metadata !DIExpression()), !dbg !3635
  call void @llvm.dbg.value(metadata %class.Element* %1, metadata !3573, metadata !DIExpression()), !dbg !3635
  call void @llvm.dbg.value(metadata i8* %2, metadata !3574, metadata !DIExpression()), !dbg !3635
  call void @llvm.dbg.value(metadata %class.ErrorHandler* %3, metadata !3575, metadata !DIExpression()), !dbg !3635
  %17 = bitcast %class.Element* %1 to %class.EtherPauseSource*, !dbg !3636
  call void @llvm.dbg.value(metadata %class.EtherPauseSource* %17, metadata !3576, metadata !DIExpression()), !dbg !3635
  %18 = ptrtoint i8* %2 to i64, !dbg !3637
  switch i64 %18, label %187 [
    i64 2, label %19
    i64 3, label %19
    i64 4, label %37
    i64 0, label %73
    i64 1, label %129
    i64 5, label %159
  ], !dbg !3638

19:                                               ; preds = %4, %4
  %20 = bitcast %class.EtherAddress* %12 to i8*, !dbg !3639
  call void @llvm.lifetime.start.p0i8(i64 6, i8* nonnull %20) #12, !dbg !3639
  call void @llvm.dbg.declare(metadata %class.EtherAddress* %12, metadata !3577, metadata !DIExpression()), !dbg !3640
  call void @llvm.dbg.value(metadata %class.EtherAddress* %12, metadata !2919, metadata !DIExpression()), !dbg !3641
  %21 = getelementptr inbounds %class.EtherAddress, %class.EtherAddress* %12, i64 0, i32 0, i64 2, !dbg !3643
  store i16 0, i16* %21, align 2, !dbg !3644, !tbaa !2928
  %22 = getelementptr inbounds %class.EtherAddress, %class.EtherAddress* %12, i64 0, i32 0, i64 1, !dbg !3645
  store i16 0, i16* %22, align 2, !dbg !3646, !tbaa !2928
  %23 = getelementptr inbounds %class.EtherAddress, %class.EtherAddress* %12, i64 0, i32 0, i64 0, !dbg !3647
  store i16 0, i16* %23, align 2, !dbg !3648, !tbaa !2928
  %24 = bitcast %class.ArgContext* %13 to i8*, !dbg !3649
  call void @llvm.lifetime.start.p0i8(i64 32, i8* nonnull %24) #12, !dbg !3649
  call void @llvm.dbg.value(metadata %class.ArgContext* %13, metadata !3651, metadata !DIExpression()), !dbg !3657
  call void @llvm.dbg.value(metadata %class.Element* %1, metadata !3654, metadata !DIExpression()), !dbg !3657
  call void @llvm.dbg.value(metadata %class.ErrorHandler* null, metadata !3655, metadata !DIExpression()), !dbg !3657
  %25 = getelementptr inbounds %class.ArgContext, %class.ArgContext* %13, i64 0, i32 0, !dbg !3659
  store %class.Element* %1, %class.Element** %25, align 8, !dbg !3659, !tbaa !3660
  %26 = getelementptr inbounds %class.ArgContext, %class.ArgContext* %13, i64 0, i32 1, !dbg !3662
  call void @llvm.dbg.value(metadata %class.EtherAddressArg* undef, metadata !3663, metadata !DIExpression()), !dbg !3695
  call void @llvm.dbg.value(metadata %class.String* %0, metadata !3691, metadata !DIExpression()), !dbg !3695
  call void @llvm.dbg.value(metadata %class.EtherAddress* %12, metadata !3692, metadata !DIExpression()), !dbg !3695
  call void @llvm.dbg.value(metadata %class.ArgContext* %13, metadata !3693, metadata !DIExpression()), !dbg !3695
  %27 = bitcast %class.ErrorHandler** %26 to i8*, !dbg !3697
  call void @llvm.memset.p0i8.i64(i8* nonnull align 8 dereferenceable(17) %27, i8 0, i64 17, i1 false), !dbg !3698
  %28 = call zeroext i1 @_ZN15EtherAddressArg5parseERK6StringR12EtherAddressRK10ArgContexti(%class.String* nonnull dereferenceable(24) %0, %class.EtherAddress* nonnull dereferenceable(6) %12, %class.ArgContext* nonnull dereferenceable(32) %13, i32 0), !dbg !3697
  call void @llvm.lifetime.end.p0i8(i64 32, i8* nonnull %24) #12, !dbg !3699
  br i1 %28, label %31, label %29, !dbg !3700

29:                                               ; preds = %19
  %30 = call i32 (%class.ErrorHandler*, i8*, ...) @_ZN12ErrorHandler5errorEPKcz(%class.ErrorHandler* %3, i8* getelementptr inbounds ([14 x i8], [14 x i8]* @.str.7, i64 0, i64 0)), !dbg !3701
  br label %35, !dbg !3702

31:                                               ; preds = %19
  %32 = icmp eq i8* %2, inttoptr (i64 2 to i8*), !dbg !3703
  %33 = select i1 %32, i32 6, i32 0, !dbg !3704
  %34 = call i32 @_ZN16EtherPauseSource14rewrite_packetEPKvjjP12ErrorHandler(%class.EtherPauseSource* %17, i8* nonnull %20, i32 %33, i32 6, %class.ErrorHandler* %3), !dbg !3705
  br label %35, !dbg !3706

35:                                               ; preds = %31, %29
  %36 = phi i32 [ %30, %29 ], [ %34, %31 ], !dbg !3707
  call void @llvm.lifetime.end.p0i8(i64 6, i8* nonnull %20) #12, !dbg !3708
  br label %187

37:                                               ; preds = %4
  %38 = bitcast %class.IntArg* %14 to i8*, !dbg !3709
  call void @llvm.lifetime.start.p0i8(i64 8, i8* nonnull %38) #12, !dbg !3709
  call void @llvm.dbg.value(metadata %class.IntArg* %14, metadata !3710, metadata !DIExpression()), !dbg !3714
  call void @llvm.dbg.value(metadata i32 0, metadata !3713, metadata !DIExpression()), !dbg !3714
  %39 = getelementptr inbounds %class.IntArg, %class.IntArg* %14, i64 0, i32 0, !dbg !3716
  store i32 0, i32* %39, align 4, !dbg !3716, !tbaa !3717
  call void @llvm.dbg.value(metadata %class.IntArg* %14, metadata !3620, metadata !DIExpression()), !dbg !3719
  call void @llvm.dbg.value(metadata %class.String* %0, metadata !3621, metadata !DIExpression()), !dbg !3719
  call void @llvm.dbg.value(metadata %class.ArgContext* @blank_args, metadata !3623, metadata !DIExpression()), !dbg !3719
  call void @llvm.dbg.value(metadata %class.IntArg* %14, metadata !3608, metadata !DIExpression()), !dbg !3720
  call void @llvm.dbg.value(metadata %class.String* %0, metadata !3609, metadata !DIExpression()), !dbg !3720
  call void @llvm.dbg.value(metadata %class.ArgContext* @blank_args, metadata !3611, metadata !DIExpression()), !dbg !3720
  call void @llvm.dbg.value(metadata i8 0, metadata !3612, metadata !DIExpression()), !dbg !3720
  call void @llvm.dbg.value(metadata i32 1, metadata !3613, metadata !DIExpression()), !dbg !3720
  %40 = bitcast [1 x i32]* %7 to i8*, !dbg !3721
  call void @llvm.lifetime.start.p0i8(i64 4, i8* nonnull %40) #12, !dbg !3721
  call void @llvm.dbg.value(metadata %class.String* %0, metadata !3722, metadata !DIExpression()), !dbg !3725
  %41 = getelementptr inbounds %class.String, %class.String* %0, i64 0, i32 0, i32 0, !dbg !3728
  %42 = load i8*, i8** %41, align 8, !dbg !3728, !tbaa !3461
  call void @llvm.dbg.value(metadata %class.String* %0, metadata !3729, metadata !DIExpression()), !dbg !3732
  %43 = getelementptr inbounds %class.String, %class.String* %0, i64 0, i32 0, i32 1, !dbg !3734
  %44 = load i32, i32* %43, align 8, !dbg !3734, !tbaa !3466
  %45 = sext i32 %44 to i64, !dbg !3735
  %46 = getelementptr inbounds i8, i8* %42, i64 %45, !dbg !3735
  %47 = getelementptr inbounds [1 x i32], [1 x i32]* %7, i64 0, i64 0, !dbg !3736
  %48 = call i8* @_ZN6IntArg5parseEPKcS1_biPji(%class.IntArg* nonnull %14, i8* %42, i8* %46, i1 zeroext false, i32 4, i32* nonnull %47, i32 1), !dbg !3737
  call void @llvm.dbg.value(metadata %class.String* %0, metadata !3729, metadata !DIExpression()), !dbg !3738
  %49 = load i8*, i8** %41, align 8, !dbg !3740, !tbaa !3461
  %50 = load i32, i32* %43, align 8, !dbg !3741, !tbaa !3466
  %51 = sext i32 %50 to i64, !dbg !3742
  %52 = getelementptr inbounds i8, i8* %49, i64 %51, !dbg !3742
  %53 = icmp eq i8* %48, %52, !dbg !3743
  %54 = getelementptr inbounds %class.IntArg, %class.IntArg* %14, i64 0, i32 1, !dbg !3720
  br i1 %53, label %56, label %55, !dbg !3744

55:                                               ; preds = %37
  store i32 22, i32* %54, align 4, !dbg !3745, !tbaa !3746
  br label %58, !dbg !3747

56:                                               ; preds = %37
  %57 = load i32, i32* %54, align 4, !dbg !3749, !tbaa !3746
  switch i32 %57, label %58 [
    i32 0, label %59
    i32 34, label %59
  ], !dbg !3747

58:                                               ; preds = %56, %55
  call void (%class.ArgContext*, i8*, ...) @_ZNK10ArgContext5errorEPKcz(%class.ArgContext* nonnull @blank_args, i8* getelementptr inbounds ([15 x i8], [15 x i8]* @.str.23, i64 0, i64 0)), !dbg !3750
  call void @llvm.lifetime.end.p0i8(i64 4, i8* nonnull %40) #12, !dbg !3752
  br label %63, !dbg !3753

59:                                               ; preds = %56, %56
  call void @llvm.dbg.value(metadata i32* %47, metadata !3754, metadata !DIExpression()), !dbg !3763
  call void @llvm.dbg.value(metadata i32* %47, metadata !3765, metadata !DIExpression()), !dbg !3774
  %60 = load i32, i32* %47, align 4, !dbg !3776, !tbaa !3197
  call void @llvm.lifetime.end.p0i8(i64 4, i8* nonnull %40) #12, !dbg !3752
  switch i32 %57, label %63 [
    i32 34, label %61
    i32 0, label %64
  ], !dbg !3777

61:                                               ; preds = %59
  %62 = zext i32 %60 to i64, !dbg !3778
  call void @_ZN6IntArg11range_errorERK10ArgContextbx(%class.IntArg* nonnull %14, %class.ArgContext* nonnull dereferenceable(32) @blank_args, i1 zeroext false, i64 %62), !dbg !3781
  br label %63, !dbg !3782

63:                                               ; preds = %61, %59, %58
  call void @llvm.dbg.value(metadata i32 %60, metadata !3580, metadata !DIExpression()), !dbg !3783
  call void @llvm.lifetime.end.p0i8(i64 8, i8* nonnull %38) #12, !dbg !3784
  br label %66, !dbg !3785

64:                                               ; preds = %59
  call void @llvm.dbg.value(metadata i32 %60, metadata !3580, metadata !DIExpression()), !dbg !3783
  %65 = icmp ugt i32 %60, 65535, !dbg !3786
  call void @llvm.lifetime.end.p0i8(i64 8, i8* nonnull %38) #12, !dbg !3784
  br i1 %65, label %66, label %68, !dbg !3785

66:                                               ; preds = %63, %64
  %67 = call i32 (%class.ErrorHandler*, i8*, ...) @_ZN12ErrorHandler5errorEPKcz(%class.ErrorHandler* %3, i8* getelementptr inbounds ([14 x i8], [14 x i8]* @.str.7, i64 0, i64 0)), !dbg !3787
  br label %187, !dbg !3788

68:                                               ; preds = %64
  %69 = bitcast i16* %15 to i8*, !dbg !3789
  call void @llvm.lifetime.start.p0i8(i64 2, i8* nonnull %69) #12, !dbg !3789
  call void @llvm.dbg.value(metadata i32 %60, metadata !3580, metadata !DIExpression()), !dbg !3783
  %70 = trunc i32 %60 to i16, !dbg !3790
  %71 = call i16 @llvm.bswap.i16(i16 %70) #12
  call void @llvm.dbg.value(metadata i16 %71, metadata !3582, metadata !DIExpression()), !dbg !3783
  store i16 %71, i16* %15, align 2, !dbg !3791, !tbaa !2928
  call void @llvm.dbg.value(metadata i16* %15, metadata !3582, metadata !DIExpression(DW_OP_deref)), !dbg !3783
  %72 = call i32 @_ZN16EtherPauseSource14rewrite_packetEPKvjjP12ErrorHandler(%class.EtherPauseSource* %17, i8* nonnull %69, i32 16, i32 2, %class.ErrorHandler* %3), !dbg !3792
  call void @llvm.lifetime.end.p0i8(i64 2, i8* nonnull %69) #12, !dbg !3793
  br label %187

73:                                               ; preds = %4
  %74 = bitcast %class.IntArg* %16 to i8*, !dbg !3794
  call void @llvm.lifetime.start.p0i8(i64 8, i8* nonnull %74) #12, !dbg !3794
  call void @llvm.dbg.value(metadata %class.IntArg* %16, metadata !3710, metadata !DIExpression()), !dbg !3795
  call void @llvm.dbg.value(metadata i32 0, metadata !3713, metadata !DIExpression()), !dbg !3795
  %75 = getelementptr inbounds %class.IntArg, %class.IntArg* %16, i64 0, i32 0, !dbg !3797
  store i32 0, i32* %75, align 4, !dbg !3797, !tbaa !3717
  %76 = getelementptr inbounds %class.Element, %class.Element* %1, i64 1, !dbg !3798
  %77 = bitcast %class.Element* %76 to i32*, !dbg !3798
  call void @llvm.dbg.value(metadata %class.IntArg* %16, metadata !3593, metadata !DIExpression()), !dbg !3799
  call void @llvm.dbg.value(metadata %class.String* %0, metadata !3594, metadata !DIExpression()), !dbg !3799
  call void @llvm.dbg.value(metadata i32* %77, metadata !3595, metadata !DIExpression()), !dbg !3799
  call void @llvm.dbg.value(metadata %class.ArgContext* @blank_args, metadata !3596, metadata !DIExpression()), !dbg !3799
  call void @llvm.dbg.value(metadata %class.IntArg* %16, metadata !2160, metadata !DIExpression()), !dbg !3800
  call void @llvm.dbg.value(metadata %class.String* %0, metadata !2162, metadata !DIExpression()), !dbg !3800
  call void @llvm.dbg.value(metadata %class.ArgContext* @blank_args, metadata !2164, metadata !DIExpression()), !dbg !3800
  call void @llvm.dbg.value(metadata i8 1, metadata !2165, metadata !DIExpression()), !dbg !3800
  call void @llvm.dbg.value(metadata i32 1, metadata !2166, metadata !DIExpression()), !dbg !3800
  %78 = bitcast [1 x i32]* %7 to i8*, !dbg !3801
  call void @llvm.lifetime.start.p0i8(i64 4, i8* nonnull %78) #12, !dbg !3801
  call void @llvm.dbg.value(metadata %class.String* %0, metadata !3722, metadata !DIExpression()), !dbg !3802
  %79 = getelementptr inbounds %class.String, %class.String* %0, i64 0, i32 0, i32 0, !dbg !3805
  %80 = load i8*, i8** %79, align 8, !dbg !3805, !tbaa !3461
  call void @llvm.dbg.value(metadata %class.String* %0, metadata !3729, metadata !DIExpression()), !dbg !3806
  %81 = getelementptr inbounds %class.String, %class.String* %0, i64 0, i32 0, i32 1, !dbg !3808
  %82 = load i32, i32* %81, align 8, !dbg !3808, !tbaa !3466
  %83 = sext i32 %82 to i64, !dbg !3809
  %84 = getelementptr inbounds i8, i8* %80, i64 %83, !dbg !3809
  %85 = getelementptr inbounds [1 x i32], [1 x i32]* %7, i64 0, i64 0, !dbg !3810
  %86 = call i8* @_ZN6IntArg5parseEPKcS1_biPji(%class.IntArg* nonnull %16, i8* %80, i8* %84, i1 zeroext true, i32 4, i32* nonnull %85, i32 1), !dbg !3811
  call void @llvm.dbg.value(metadata %class.String* %0, metadata !3729, metadata !DIExpression()), !dbg !3812
  %87 = load i8*, i8** %79, align 8, !dbg !3814, !tbaa !3461
  %88 = load i32, i32* %81, align 8, !dbg !3815, !tbaa !3466
  %89 = sext i32 %88 to i64, !dbg !3816
  %90 = getelementptr inbounds i8, i8* %87, i64 %89, !dbg !3816
  %91 = icmp eq i8* %86, %90, !dbg !3817
  %92 = getelementptr inbounds %class.IntArg, %class.IntArg* %16, i64 0, i32 1, !dbg !3800
  br i1 %91, label %94, label %93, !dbg !3818

93:                                               ; preds = %73
  store i32 22, i32* %92, align 4, !dbg !3819, !tbaa !3746
  br label %96, !dbg !3820

94:                                               ; preds = %73
  %95 = load i32, i32* %92, align 4, !dbg !3822, !tbaa !3746
  switch i32 %95, label %96 [
    i32 0, label %97
    i32 34, label %97
  ], !dbg !3820

96:                                               ; preds = %94, %93
  call void (%class.ArgContext*, i8*, ...) @_ZNK10ArgContext5errorEPKcz(%class.ArgContext* nonnull @blank_args, i8* getelementptr inbounds ([15 x i8], [15 x i8]* @.str.23, i64 0, i64 0)), !dbg !3823
  call void @llvm.lifetime.end.p0i8(i64 4, i8* nonnull %78) #12, !dbg !3825
  br label %101, !dbg !3826

97:                                               ; preds = %94, %94
  call void @llvm.dbg.value(metadata i32* %85, metadata !3754, metadata !DIExpression()), !dbg !3827
  call void @llvm.dbg.value(metadata i32* %85, metadata !3765, metadata !DIExpression()), !dbg !3829
  %98 = load i32, i32* %85, align 4, !dbg !3831, !tbaa !3197
  call void @llvm.lifetime.end.p0i8(i64 4, i8* nonnull %78) #12, !dbg !3825
  switch i32 %95, label %101 [
    i32 34, label %99
    i32 0, label %103
  ], !dbg !3832

99:                                               ; preds = %97
  %100 = sext i32 %98 to i64, !dbg !3833
  call void @_ZN6IntArg11range_errorERK10ArgContextbx(%class.IntArg* nonnull %16, %class.ArgContext* nonnull dereferenceable(32) @blank_args, i1 zeroext true, i64 %100), !dbg !3836
  br label %101, !dbg !3837

101:                                              ; preds = %99, %97, %96
  call void @llvm.lifetime.end.p0i8(i64 8, i8* nonnull %74) #12, !dbg !3838
  %102 = call i32 (%class.ErrorHandler*, i8*, ...) @_ZN12ErrorHandler5errorEPKcz(%class.ErrorHandler* %3, i8* getelementptr inbounds ([14 x i8], [14 x i8]* @.str.7, i64 0, i64 0)), !dbg !3839
  br label %187, !dbg !3840

103:                                              ; preds = %97
  store i32 %98, i32* %77, align 4, !dbg !3841, !tbaa !3197
  call void @llvm.lifetime.end.p0i8(i64 8, i8* nonnull %74) #12, !dbg !3838
  call void @llvm.dbg.value(metadata %class.EtherPauseSource* %17, metadata !3522, metadata !DIExpression()), !dbg !3843
  call void @llvm.dbg.value(metadata %class.EtherPauseSource* %17, metadata !3167, metadata !DIExpression()), !dbg !3844
  call void @llvm.dbg.value(metadata i32 0, metadata !3174, metadata !DIExpression()), !dbg !3844
  call void @llvm.dbg.value(metadata %class.EtherPauseSource* %17, metadata !3177, metadata !DIExpression()), !dbg !3846
  call void @llvm.dbg.value(metadata i1 true, metadata !3183, metadata !DIExpression()), !dbg !3846
  call void @llvm.dbg.value(metadata i32 0, metadata !3184, metadata !DIExpression()), !dbg !3846
  call void @llvm.dbg.value(metadata %class.EtherPauseSource* %17, metadata !3187, metadata !DIExpression()), !dbg !3848
  call void @llvm.dbg.value(metadata i1 true, metadata !3193, metadata !DIExpression()), !dbg !3848
  %104 = getelementptr inbounds %class.Element, %class.Element* %1, i64 0, i32 3, i64 1, !dbg !3850
  %105 = load i32, i32* %104, align 4, !dbg !3850, !tbaa !3197
  %106 = icmp eq i32 %105, 0, !dbg !3851
  br i1 %106, label %187, label %107, !dbg !3852

107:                                              ; preds = %103
  call void @llvm.dbg.value(metadata %class.EtherPauseSource* %17, metadata !3167, metadata !DIExpression()), !dbg !3844
  call void @llvm.dbg.value(metadata %class.EtherPauseSource* %17, metadata !3177, metadata !DIExpression()), !dbg !3846
  call void @llvm.dbg.value(metadata %class.EtherPauseSource* %17, metadata !3187, metadata !DIExpression()), !dbg !3848
  %108 = getelementptr inbounds %class.Element, %class.Element* %1, i64 0, i32 1, i64 1, !dbg !3853
  %109 = load %"class.Element::Port"*, %"class.Element::Port"** %108, align 8, !dbg !3853, !tbaa !3201
  call void @llvm.dbg.value(metadata %"class.Element::Port"* undef, metadata !3202, metadata !DIExpression()), !dbg !3854
  %110 = getelementptr inbounds %"class.Element::Port", %"class.Element::Port"* %109, i64 0, i32 1, !dbg !3856
  %111 = load i32, i32* %110, align 8, !dbg !3856, !tbaa !3240
  %112 = icmp sgt i32 %111, -1, !dbg !3857
  br i1 %112, label %113, label %187, !dbg !3858

113:                                              ; preds = %107
  %114 = getelementptr inbounds %class.Element, %class.Element* %1, i64 1, i32 2, !dbg !3859
  %115 = bitcast [4 x %"class.Element::Port"]* %114 to %class.Timer*, !dbg !3859
  call void @llvm.dbg.value(metadata %class.Timer* %115, metadata !2871, metadata !DIExpression()), !dbg !3860
  %116 = bitcast [4 x %"class.Element::Port"]* %114 to i32*, !dbg !3862
  %117 = load i32, i32* %116, align 8, !dbg !3862, !tbaa !2880
  %118 = icmp eq i32 %117, 0, !dbg !3863
  br i1 %118, label %119, label %187, !dbg !3864

119:                                              ; preds = %113
  %120 = getelementptr inbounds %class.EtherPauseSource, %class.EtherPauseSource* %17, i64 0, i32 3, !dbg !3865
  %121 = load i8, i8* %120, align 4, !dbg !3865, !tbaa !2949, !range !3165
  %122 = icmp eq i8 %121, 0, !dbg !3865
  br i1 %122, label %187, label %123, !dbg !3866

123:                                              ; preds = %119
  call void @llvm.dbg.value(metadata %class.Timer* %115, metadata !3530, metadata !DIExpression()), !dbg !3867
  %124 = bitcast %class.Timestamp* %6 to i8*, !dbg !3868
  call void @llvm.lifetime.start.p0i8(i64 8, i8* nonnull %124) #12, !dbg !3868
  %125 = bitcast %class.Timestamp* %5 to i8*, !dbg !3869
  call void @llvm.lifetime.start.p0i8(i64 8, i8* nonnull %125), !dbg !3869
  call void @llvm.dbg.value(metadata %class.Timestamp* %5, metadata !3562, metadata !DIExpression()), !dbg !3869
  call void @_ZN9Timestamp10assign_nowEbbb(%class.Timestamp* nonnull %5, i1 zeroext true, i1 zeroext true, i1 zeroext false), !dbg !3871
  %126 = getelementptr inbounds %class.Timestamp, %class.Timestamp* %5, i64 0, i32 0, i32 0, !dbg !3872
  %127 = load i64, i64* %126, align 8, !dbg !3872
  call void @llvm.lifetime.end.p0i8(i64 8, i8* nonnull %125), !dbg !3872
  %128 = getelementptr inbounds %class.Timestamp, %class.Timestamp* %6, i64 0, i32 0, i32 0, !dbg !3868
  store i64 %127, i64* %128, align 8, !dbg !3868
  call void @_ZN5Timer18schedule_at_steadyERK9Timestamp(%class.Timer* nonnull %115, %class.Timestamp* nonnull dereferenceable(8) %6), !dbg !3873
  call void @llvm.lifetime.end.p0i8(i64 8, i8* nonnull %124) #12, !dbg !3873
  br label %187, !dbg !3874

129:                                              ; preds = %4
  %130 = getelementptr inbounds %class.EtherPauseSource, %class.EtherPauseSource* %17, i64 0, i32 3, !dbg !3875
  %131 = tail call zeroext i1 @_ZN7BoolArg5parseERK6StringRbRK10ArgContext(%class.String* nonnull dereferenceable(24) %0, i8* nonnull dereferenceable(1) %130, %class.ArgContext* nonnull dereferenceable(32) @blank_args), !dbg !3877
  br i1 %131, label %134, label %132, !dbg !3878

132:                                              ; preds = %129
  %133 = tail call i32 (%class.ErrorHandler*, i8*, ...) @_ZN12ErrorHandler5errorEPKcz(%class.ErrorHandler* %3, i8* getelementptr inbounds ([14 x i8], [14 x i8]* @.str.7, i64 0, i64 0)), !dbg !3879
  br label %187, !dbg !3880

134:                                              ; preds = %129
  call void @llvm.dbg.value(metadata %class.EtherPauseSource* %17, metadata !3522, metadata !DIExpression()), !dbg !3881
  call void @llvm.dbg.value(metadata %class.EtherPauseSource* %17, metadata !3167, metadata !DIExpression()), !dbg !3882
  call void @llvm.dbg.value(metadata i32 0, metadata !3174, metadata !DIExpression()), !dbg !3882
  call void @llvm.dbg.value(metadata %class.EtherPauseSource* %17, metadata !3177, metadata !DIExpression()), !dbg !3884
  call void @llvm.dbg.value(metadata i1 true, metadata !3183, metadata !DIExpression()), !dbg !3884
  call void @llvm.dbg.value(metadata i32 0, metadata !3184, metadata !DIExpression()), !dbg !3884
  call void @llvm.dbg.value(metadata %class.EtherPauseSource* %17, metadata !3187, metadata !DIExpression()), !dbg !3886
  call void @llvm.dbg.value(metadata i1 true, metadata !3193, metadata !DIExpression()), !dbg !3886
  %135 = getelementptr inbounds %class.Element, %class.Element* %1, i64 0, i32 3, i64 1, !dbg !3888
  %136 = load i32, i32* %135, align 4, !dbg !3888, !tbaa !3197
  %137 = icmp eq i32 %136, 0, !dbg !3889
  br i1 %137, label %187, label %138, !dbg !3890

138:                                              ; preds = %134
  call void @llvm.dbg.value(metadata %class.EtherPauseSource* %17, metadata !3167, metadata !DIExpression()), !dbg !3882
  call void @llvm.dbg.value(metadata %class.EtherPauseSource* %17, metadata !3177, metadata !DIExpression()), !dbg !3884
  call void @llvm.dbg.value(metadata %class.EtherPauseSource* %17, metadata !3187, metadata !DIExpression()), !dbg !3886
  %139 = getelementptr inbounds %class.Element, %class.Element* %1, i64 0, i32 1, i64 1, !dbg !3891
  %140 = load %"class.Element::Port"*, %"class.Element::Port"** %139, align 8, !dbg !3891, !tbaa !3201
  call void @llvm.dbg.value(metadata %"class.Element::Port"* undef, metadata !3202, metadata !DIExpression()), !dbg !3892
  %141 = getelementptr inbounds %"class.Element::Port", %"class.Element::Port"* %140, i64 0, i32 1, !dbg !3894
  %142 = load i32, i32* %141, align 8, !dbg !3894, !tbaa !3240
  %143 = icmp sgt i32 %142, -1, !dbg !3895
  br i1 %143, label %144, label %187, !dbg !3896

144:                                              ; preds = %138
  %145 = getelementptr inbounds %class.Element, %class.Element* %1, i64 1, i32 2, !dbg !3897
  %146 = bitcast [4 x %"class.Element::Port"]* %145 to %class.Timer*, !dbg !3897
  call void @llvm.dbg.value(metadata %class.Timer* %146, metadata !2871, metadata !DIExpression()), !dbg !3898
  %147 = bitcast [4 x %"class.Element::Port"]* %145 to i32*, !dbg !3900
  %148 = load i32, i32* %147, align 8, !dbg !3900, !tbaa !2880
  %149 = icmp eq i32 %148, 0, !dbg !3901
  br i1 %149, label %150, label %187, !dbg !3902

150:                                              ; preds = %144
  %151 = load i8, i8* %130, align 4, !dbg !3903, !tbaa !2949, !range !3165
  %152 = icmp eq i8 %151, 0, !dbg !3903
  br i1 %152, label %187, label %153, !dbg !3904

153:                                              ; preds = %150
  call void @llvm.dbg.value(metadata %class.Timer* %146, metadata !3530, metadata !DIExpression()), !dbg !3905
  %154 = bitcast %class.Timestamp* %9 to i8*, !dbg !3906
  call void @llvm.lifetime.start.p0i8(i64 8, i8* nonnull %154) #12, !dbg !3906
  %155 = bitcast %class.Timestamp* %8 to i8*, !dbg !3907
  call void @llvm.lifetime.start.p0i8(i64 8, i8* nonnull %155), !dbg !3907
  call void @llvm.dbg.value(metadata %class.Timestamp* %8, metadata !3562, metadata !DIExpression()), !dbg !3907
  call void @_ZN9Timestamp10assign_nowEbbb(%class.Timestamp* nonnull %8, i1 zeroext true, i1 zeroext true, i1 zeroext false), !dbg !3909
  %156 = getelementptr inbounds %class.Timestamp, %class.Timestamp* %8, i64 0, i32 0, i32 0, !dbg !3910
  %157 = load i64, i64* %156, align 8, !dbg !3910
  call void @llvm.lifetime.end.p0i8(i64 8, i8* nonnull %155), !dbg !3910
  %158 = getelementptr inbounds %class.Timestamp, %class.Timestamp* %9, i64 0, i32 0, i32 0, !dbg !3906
  store i64 %157, i64* %158, align 8, !dbg !3906
  call void @_ZN5Timer18schedule_at_steadyERK9Timestamp(%class.Timer* nonnull %146, %class.Timestamp* nonnull dereferenceable(8) %9), !dbg !3911
  call void @llvm.lifetime.end.p0i8(i64 8, i8* nonnull %154) #12, !dbg !3911
  br label %187, !dbg !3912

159:                                              ; preds = %4
  %160 = getelementptr inbounds %class.Element, %class.Element* %1, i64 0, i32 6, !dbg !3913
  %161 = bitcast [4 x i8]* %160 to i32*, !dbg !3913
  store i32 0, i32* %161, align 4, !dbg !3914, !tbaa !3156
  call void @llvm.dbg.value(metadata %class.EtherPauseSource* %17, metadata !3522, metadata !DIExpression()), !dbg !3915
  call void @llvm.dbg.value(metadata %class.EtherPauseSource* %17, metadata !3167, metadata !DIExpression()), !dbg !3916
  call void @llvm.dbg.value(metadata i32 0, metadata !3174, metadata !DIExpression()), !dbg !3916
  call void @llvm.dbg.value(metadata %class.EtherPauseSource* %17, metadata !3177, metadata !DIExpression()), !dbg !3918
  call void @llvm.dbg.value(metadata i1 true, metadata !3183, metadata !DIExpression()), !dbg !3918
  call void @llvm.dbg.value(metadata i32 0, metadata !3184, metadata !DIExpression()), !dbg !3918
  call void @llvm.dbg.value(metadata %class.EtherPauseSource* %17, metadata !3187, metadata !DIExpression()), !dbg !3920
  call void @llvm.dbg.value(metadata i1 true, metadata !3193, metadata !DIExpression()), !dbg !3920
  %162 = getelementptr inbounds %class.Element, %class.Element* %1, i64 0, i32 3, i64 1, !dbg !3922
  %163 = load i32, i32* %162, align 4, !dbg !3922, !tbaa !3197
  %164 = icmp eq i32 %163, 0, !dbg !3923
  br i1 %164, label %187, label %165, !dbg !3924

165:                                              ; preds = %159
  call void @llvm.dbg.value(metadata %class.EtherPauseSource* %17, metadata !3167, metadata !DIExpression()), !dbg !3916
  call void @llvm.dbg.value(metadata %class.EtherPauseSource* %17, metadata !3177, metadata !DIExpression()), !dbg !3918
  call void @llvm.dbg.value(metadata %class.EtherPauseSource* %17, metadata !3187, metadata !DIExpression()), !dbg !3920
  %166 = getelementptr inbounds %class.Element, %class.Element* %1, i64 0, i32 1, i64 1, !dbg !3925
  %167 = load %"class.Element::Port"*, %"class.Element::Port"** %166, align 8, !dbg !3925, !tbaa !3201
  call void @llvm.dbg.value(metadata %"class.Element::Port"* undef, metadata !3202, metadata !DIExpression()), !dbg !3926
  %168 = getelementptr inbounds %"class.Element::Port", %"class.Element::Port"* %167, i64 0, i32 1, !dbg !3928
  %169 = load i32, i32* %168, align 8, !dbg !3928, !tbaa !3240
  %170 = icmp sgt i32 %169, -1, !dbg !3929
  br i1 %170, label %171, label %187, !dbg !3930

171:                                              ; preds = %165
  %172 = getelementptr inbounds %class.Element, %class.Element* %1, i64 1, i32 2, !dbg !3931
  %173 = bitcast [4 x %"class.Element::Port"]* %172 to %class.Timer*, !dbg !3931
  call void @llvm.dbg.value(metadata %class.Timer* %173, metadata !2871, metadata !DIExpression()), !dbg !3932
  %174 = bitcast [4 x %"class.Element::Port"]* %172 to i32*, !dbg !3934
  %175 = load i32, i32* %174, align 8, !dbg !3934, !tbaa !2880
  %176 = icmp eq i32 %175, 0, !dbg !3935
  br i1 %176, label %177, label %187, !dbg !3936

177:                                              ; preds = %171
  %178 = getelementptr inbounds %class.EtherPauseSource, %class.EtherPauseSource* %17, i64 0, i32 3, !dbg !3937
  %179 = load i8, i8* %178, align 4, !dbg !3937, !tbaa !2949, !range !3165
  %180 = icmp eq i8 %179, 0, !dbg !3937
  br i1 %180, label %187, label %181, !dbg !3938

181:                                              ; preds = %177
  call void @llvm.dbg.value(metadata %class.Timer* %173, metadata !3530, metadata !DIExpression()), !dbg !3939
  %182 = bitcast %class.Timestamp* %11 to i8*, !dbg !3940
  call void @llvm.lifetime.start.p0i8(i64 8, i8* nonnull %182) #12, !dbg !3940
  %183 = bitcast %class.Timestamp* %10 to i8*, !dbg !3941
  call void @llvm.lifetime.start.p0i8(i64 8, i8* nonnull %183), !dbg !3941
  call void @llvm.dbg.value(metadata %class.Timestamp* %10, metadata !3562, metadata !DIExpression()), !dbg !3941
  call void @_ZN9Timestamp10assign_nowEbbb(%class.Timestamp* nonnull %10, i1 zeroext true, i1 zeroext true, i1 zeroext false), !dbg !3943
  %184 = getelementptr inbounds %class.Timestamp, %class.Timestamp* %10, i64 0, i32 0, i32 0, !dbg !3944
  %185 = load i64, i64* %184, align 8, !dbg !3944
  call void @llvm.lifetime.end.p0i8(i64 8, i8* nonnull %183), !dbg !3944
  %186 = getelementptr inbounds %class.Timestamp, %class.Timestamp* %11, i64 0, i32 0, i32 0, !dbg !3940
  store i64 %185, i64* %186, align 8, !dbg !3940
  call void @_ZN5Timer18schedule_at_steadyERK9Timestamp(%class.Timer* nonnull %173, %class.Timestamp* nonnull dereferenceable(8) %11), !dbg !3945
  call void @llvm.lifetime.end.p0i8(i64 8, i8* nonnull %182) #12, !dbg !3945
  br label %187, !dbg !3946

187:                                              ; preds = %181, %177, %171, %165, %159, %153, %150, %144, %138, %134, %123, %119, %113, %107, %103, %66, %68, %4, %132, %101, %35
  %188 = phi i32 [ %133, %132 ], [ %102, %101 ], [ %36, %35 ], [ 0, %4 ], [ %67, %66 ], [ %72, %68 ], [ 0, %103 ], [ 0, %107 ], [ 0, %113 ], [ 0, %119 ], [ 0, %123 ], [ 0, %134 ], [ 0, %138 ], [ 0, %144 ], [ 0, %150 ], [ 0, %153 ], [ 0, %159 ], [ 0, %165 ], [ 0, %171 ], [ 0, %177 ], [ 0, %181 ], !dbg !3947
  ret i32 %188, !dbg !3948
}

declare zeroext i1 @_ZN7BoolArg5parseERK6StringRbRK10ArgContext(%class.String* dereferenceable(24), i8* dereferenceable(1), %class.ArgContext* dereferenceable(32)) local_unnamed_addr #2

; Function Attrs: sspstrong uwtable
define dso_local void @_ZN16EtherPauseSource12add_handlersEv(%class.EtherPauseSource* %0) unnamed_addr #0 align 2 !dbg !3949 {
  call void @llvm.dbg.value(metadata %class.EtherPauseSource* %0, metadata !3951, metadata !DIExpression()), !dbg !3952
  %2 = bitcast %class.EtherPauseSource* %0 to %class.Element*, !dbg !3953
  %3 = getelementptr inbounds %class.EtherPauseSource, %class.EtherPauseSource* %0, i64 0, i32 1, !dbg !3954
  tail call void @_ZN7Element17add_data_handlersEPKciPi(%class.Element* %2, i8* getelementptr inbounds ([6 x i8], [6 x i8]* @.str.8, i64 0, i64 0), i32 1, i32* nonnull %3), !dbg !3953
  %4 = getelementptr inbounds %class.EtherPauseSource, %class.EtherPauseSource* %0, i64 0, i32 2, !dbg !3955
  tail call void @_ZN7Element17add_data_handlersEPKciPi(%class.Element* %2, i8* getelementptr inbounds ([6 x i8], [6 x i8]* @.str.9, i64 0, i64 0), i32 1, i32* nonnull %4), !dbg !3956
  tail call void @_ZN7Element17add_write_handlerEPKcPFiRK6StringPS_PvP12ErrorHandlerEij(%class.Element* %2, i8* getelementptr inbounds ([6 x i8], [6 x i8]* @.str.9, i64 0, i64 0), i32 (%class.String*, %class.Element*, i8*, %class.ErrorHandler*)* nonnull @_ZN16EtherPauseSource6writerERK6StringP7ElementPvP12ErrorHandler, i32 0, i32 0), !dbg !3957
  %5 = getelementptr inbounds %class.EtherPauseSource, %class.EtherPauseSource* %0, i64 0, i32 3, !dbg !3958
  tail call void @_ZN7Element17add_data_handlersEPKciPb(%class.Element* %2, i8* getelementptr inbounds ([7 x i8], [7 x i8]* @.str.10, i64 0, i64 0), i32 16385, i8* nonnull %5), !dbg !3959
  tail call void @_ZN7Element17add_write_handlerEPKcPFiRK6StringPS_PvP12ErrorHandlerEij(%class.Element* %2, i8* getelementptr inbounds ([7 x i8], [7 x i8]* @.str.10, i64 0, i64 0), i32 (%class.String*, %class.Element*, i8*, %class.ErrorHandler*)* nonnull @_ZN16EtherPauseSource6writerERK6StringP7ElementPvP12ErrorHandler, i32 1, i32 0), !dbg !3960
  tail call void @_ZN7Element16add_read_handlerEPKcPF6StringPS_PvEij(%class.Element* %2, i8* getelementptr inbounds ([4 x i8], [4 x i8]* @.str.11, i64 0, i64 0), void (%class.String*, %class.Element*, i8*)* nonnull @_ZN16EtherPauseSource6readerEP7ElementPv, i32 2, i32 0), !dbg !3961
  tail call void @_ZN7Element17add_write_handlerEPKcPFiRK6StringPS_PvP12ErrorHandlerEij(%class.Element* %2, i8* getelementptr inbounds ([4 x i8], [4 x i8]* @.str.11, i64 0, i64 0), i32 (%class.String*, %class.Element*, i8*, %class.ErrorHandler*)* nonnull @_ZN16EtherPauseSource6writerERK6StringP7ElementPvP12ErrorHandler, i32 2, i32 0), !dbg !3962
  tail call void @_ZN7Element16add_read_handlerEPKcPF6StringPS_PvEij(%class.Element* %2, i8* getelementptr inbounds ([4 x i8], [4 x i8]* @.str.12, i64 0, i64 0), void (%class.String*, %class.Element*, i8*)* nonnull @_ZN16EtherPauseSource6readerEP7ElementPv, i32 3, i32 0), !dbg !3963
  tail call void @_ZN7Element17add_write_handlerEPKcPFiRK6StringPS_PvP12ErrorHandlerEij(%class.Element* %2, i8* getelementptr inbounds ([4 x i8], [4 x i8]* @.str.12, i64 0, i64 0), i32 (%class.String*, %class.Element*, i8*, %class.ErrorHandler*)* nonnull @_ZN16EtherPauseSource6writerERK6StringP7ElementPvP12ErrorHandler, i32 3, i32 0), !dbg !3964
  tail call void @_ZN7Element16add_read_handlerEPKcPF6StringPS_PvEij(%class.Element* %2, i8* getelementptr inbounds ([10 x i8], [10 x i8]* @.str.13, i64 0, i64 0), void (%class.String*, %class.Element*, i8*)* nonnull @_ZN16EtherPauseSource6readerEP7ElementPv, i32 4, i32 0), !dbg !3965
  tail call void @_ZN7Element17add_write_handlerEPKcPFiRK6StringPS_PvP12ErrorHandlerEij(%class.Element* %2, i8* getelementptr inbounds ([10 x i8], [10 x i8]* @.str.13, i64 0, i64 0), i32 (%class.String*, %class.Element*, i8*, %class.ErrorHandler*)* nonnull @_ZN16EtherPauseSource6writerERK6StringP7ElementPvP12ErrorHandler, i32 4, i32 0), !dbg !3966
  tail call void @_ZN7Element17add_write_handlerEPKcPFiRK6StringPS_PvP12ErrorHandlerEij(%class.Element* %2, i8* getelementptr inbounds ([13 x i8], [13 x i8]* @.str.14, i64 0, i64 0), i32 (%class.String*, %class.Element*, i8*, %class.ErrorHandler*)* nonnull @_ZN16EtherPauseSource6writerERK6StringP7ElementPvP12ErrorHandler, i32 5, i32 0), !dbg !3967
  ret void, !dbg !3968
}

declare void @_ZN7Element17add_data_handlersEPKciPi(%class.Element*, i8*, i32, i32*) local_unnamed_addr #2

declare void @_ZN7Element17add_write_handlerEPKcPFiRK6StringPS_PvP12ErrorHandlerEij(%class.Element*, i8*, i32 (%class.String*, %class.Element*, i8*, %class.ErrorHandler*)*, i32, i32) local_unnamed_addr #2

declare void @_ZN7Element17add_data_handlersEPKciPb(%class.Element*, i8*, i32, i8*) local_unnamed_addr #2

declare void @_ZN7Element16add_read_handlerEPKcPF6StringPS_PvEij(%class.Element*, i8*, void (%class.String*, %class.Element*, i8*)*, i32, i32) local_unnamed_addr #2

declare void @_ZN7Element4pushEiP6Packet(%class.Element*, i32, %class.Packet*) unnamed_addr #2

declare %class.Packet* @_ZN7Element13simple_actionEP6Packet(%class.Element*, %class.Packet*) unnamed_addr #2

declare zeroext i1 @_ZN7Element8run_taskEP4Task(%class.Element*, %class.Task*) unnamed_addr #2

declare void @_ZN7Element8selectedEii(%class.Element*, i32, i32) unnamed_addr #2

declare void @_ZN7Element8selectedEi(%class.Element*, i32) unnamed_addr #2

; Function Attrs: nounwind sspstrong uwtable
define linkonce_odr dso_local i8* @_ZNK16EtherPauseSource10class_nameEv(%class.EtherPauseSource* %0) unnamed_addr #4 comdat align 2 !dbg !3969 {
  call void @llvm.dbg.value(metadata %class.EtherPauseSource* %0, metadata !3971, metadata !DIExpression()), !dbg !3973
  ret i8* getelementptr inbounds ([17 x i8], [17 x i8]* @.str.20, i64 0, i64 0), !dbg !3974
}

; Function Attrs: nounwind sspstrong uwtable
define linkonce_odr dso_local i8* @_ZNK16EtherPauseSource10port_countEv(%class.EtherPauseSource* %0) unnamed_addr #4 comdat align 2 !dbg !3975 {
  call void @llvm.dbg.value(metadata %class.EtherPauseSource* %0, metadata !3977, metadata !DIExpression()), !dbg !3978
  ret i8* getelementptr inbounds ([0 x i8], [0 x i8]* @_ZN7Element9PORTS_0_1E, i64 0, i64 0), !dbg !3979
}

declare i8* @_ZNK7Element10processingEv(%class.Element*) unnamed_addr #2

declare i8* @_ZNK7Element9flow_codeEv(%class.Element*) unnamed_addr #2

declare i8* @_ZNK7Element5flagsEv(%class.Element*) unnamed_addr #2

declare i8* @_ZN7Element4castEPKc(%class.Element*, i8*) unnamed_addr #2

declare i8* @_ZN7Element9port_castEbiPKc(%class.Element*, i1 zeroext, i32, i8*) unnamed_addr #2

declare i32 @_ZNK7Element15configure_phaseEv(%class.Element*) unnamed_addr #2

declare void @_ZN7Element10take_stateEPS_P12ErrorHandler(%class.Element*, %class.Element*, %class.ErrorHandler*) unnamed_addr #2

declare %class.Element* @_ZNK7Element15hotswap_elementEv(%class.Element*) unnamed_addr #2

declare void @_ZNK7Element11declarationEv(%class.String* sret, %class.Element*) unnamed_addr #2

declare zeroext i1 @_ZNK7Element20can_live_reconfigureEv(%class.Element*) unnamed_addr #2

declare i32 @_ZN7Element16live_reconfigureER6VectorI6StringEP12ErrorHandler(%class.Element*, %class.Vector* dereferenceable(16), %class.ErrorHandler*) unnamed_addr #2

declare i32 @_ZN7Element5llrpcEjPv(%class.Element*, i32, i8*) unnamed_addr #2

; Function Attrs: noinline noreturn nounwind
define linkonce_odr hidden void @__clang_call_terminate(i8* %0) local_unnamed_addr #8 comdat {
  %2 = tail call i8* @__cxa_begin_catch(i8* %0) #12
  tail call void @_ZSt9terminatev() #13
  unreachable
}

declare i8* @__cxa_begin_catch(i8*) local_unnamed_addr

declare void @_ZSt9terminatev() local_unnamed_addr

declare void @_ZN5Timer10unscheduleEv(%class.Timer*) local_unnamed_addr #2

declare %class.WritablePacket* @_ZN6Packet4makeEjPKvjj(i32, i8*, i32, i32) local_unnamed_addr #2

; Function Attrs: noreturn nounwind
declare void @__assert_fail(i8*, i8*, i32, i8*) local_unnamed_addr #9

declare void @_ZN5Timer14schedule_afterERK9Timestamp(%class.Timer*, %class.Timestamp* dereferenceable(8)) local_unnamed_addr #2

; Function Attrs: noinline nounwind optnone sspstrong uwtable
define linkonce_odr dso_local dereferenceable(16) %"class.Element::Port"* @_ZNK7Element4portEbi(%class.Element* %0, i1 zeroext %1, i32 %2) local_unnamed_addr #10 comdat align 2 !dbg !3980 {
  %4 = alloca %class.Element*, align 8
  %5 = alloca i8, align 1
  %6 = alloca i32, align 4
  store %class.Element* %0, %class.Element** %4, align 8, !tbaa !3201
  call void @llvm.dbg.declare(metadata %class.Element** %4, metadata !3985, metadata !DIExpression()), !dbg !3988
  %7 = zext i1 %1 to i8
  store i8 %7, i8* %5, align 1, !tbaa !3989
  call void @llvm.dbg.declare(metadata i8* %5, metadata !3986, metadata !DIExpression()), !dbg !3990
  store i32 %2, i32* %6, align 4, !tbaa !3197
  call void @llvm.dbg.declare(metadata i32* %6, metadata !3987, metadata !DIExpression()), !dbg !3991
  %8 = load %class.Element*, %class.Element** %4, align 8
  %9 = load i32, i32* %6, align 4, !dbg !3992, !tbaa !3197
  %10 = getelementptr inbounds %class.Element, %class.Element* %8, i32 0, i32 3, !dbg !3992
  %11 = load i8, i8* %5, align 1, !dbg !3992, !tbaa !3989, !range !3165
  %12 = trunc i8 %11 to i1, !dbg !3992
  %13 = zext i1 %12 to i64, !dbg !3992
  %14 = getelementptr inbounds [2 x i32], [2 x i32]* %10, i64 0, i64 %13, !dbg !3992
  %15 = load i32, i32* %14, align 4, !dbg !3992, !tbaa !3197
  %16 = icmp ult i32 %9, %15, !dbg !3992
  br i1 %16, label %17, label %18, !dbg !3992

17:                                               ; preds = %3
  br label %19, !dbg !3992

18:                                               ; preds = %3
  call void @__assert_fail(i8* getelementptr inbounds ([47 x i8], [47 x i8]* @.str.17, i64 0, i64 0), i8* getelementptr inbounds ([30 x i8], [30 x i8]* @.str.18, i64 0, i64 0), i32 437, i8* getelementptr inbounds ([52 x i8], [52 x i8]* @__PRETTY_FUNCTION__._ZNK7Element4portEbi, i64 0, i64 0)) #13, !dbg !3992
  unreachable, !dbg !3992

19:                                               ; preds = %17
  %20 = getelementptr inbounds %class.Element, %class.Element* %8, i32 0, i32 1, !dbg !3993
  %21 = load i8, i8* %5, align 1, !dbg !3994, !tbaa !3989, !range !3165
  %22 = trunc i8 %21 to i1, !dbg !3994
  %23 = zext i1 %22 to i64, !dbg !3993
  %24 = getelementptr inbounds [2 x %"class.Element::Port"*], [2 x %"class.Element::Port"*]* %20, i64 0, i64 %23, !dbg !3993
  %25 = load %"class.Element::Port"*, %"class.Element::Port"** %24, align 8, !dbg !3993, !tbaa !3201
  %26 = load i32, i32* %6, align 4, !dbg !3995, !tbaa !3197
  %27 = sext i32 %26 to i64, !dbg !3993
  %28 = getelementptr inbounds %"class.Element::Port", %"class.Element::Port"* %25, i64 %27, !dbg !3993
  ret %"class.Element::Port"* %28, !dbg !3996
}

declare void @_ZN5Timer18schedule_at_steadyERK9Timestamp(%class.Timer*, %class.Timestamp* dereferenceable(8)) local_unnamed_addr #2

declare void @_ZNK12EtherAddress12unparse_dashEv(%class.String* sret, %class.EtherAddress*) local_unnamed_addr #2

declare void @_ZN9Timestamp10assign_nowEbbb(%class.Timestamp*, i1 zeroext, i1 zeroext, i1 zeroext) local_unnamed_addr #2

declare zeroext i1 @_ZN15EtherAddressArg5parseERK6StringR12EtherAddressRK10ArgContexti(%class.String* dereferenceable(24), %class.EtherAddress* dereferenceable(6), %class.ArgContext* dereferenceable(32), i32) local_unnamed_addr #2

; Function Attrs: noinline optnone sspstrong uwtable
define linkonce_odr dso_local void @_Z14args_base_readI12EtherAddressEvP4ArgsPKciRT_(%class.Args* %0, i8* %1, i32 %2, %class.EtherAddress* dereferenceable(6) %3) local_unnamed_addr #7 comdat !dbg !3997 {
  %5 = alloca %class.Args*, align 8
  %6 = alloca i8*, align 8
  %7 = alloca i32, align 4
  %8 = alloca %class.EtherAddress*, align 8
  store %class.Args* %0, %class.Args** %5, align 8, !tbaa !3201
  call void @llvm.dbg.declare(metadata %class.Args** %5, metadata !3999, metadata !DIExpression()), !dbg !4003
  store i8* %1, i8** %6, align 8, !tbaa !3201
  call void @llvm.dbg.declare(metadata i8** %6, metadata !4000, metadata !DIExpression()), !dbg !4004
  store i32 %2, i32* %7, align 4, !tbaa !3197
  call void @llvm.dbg.declare(metadata i32* %7, metadata !4001, metadata !DIExpression()), !dbg !4005
  store %class.EtherAddress* %3, %class.EtherAddress** %8, align 8, !tbaa !3201
  call void @llvm.dbg.declare(metadata %class.EtherAddress** %8, metadata !4002, metadata !DIExpression()), !dbg !4006
  %9 = load %class.Args*, %class.Args** %5, align 8, !dbg !4007, !tbaa !3201
  %10 = load i8*, i8** %6, align 8, !dbg !4008, !tbaa !3201
  %11 = load i32, i32* %7, align 4, !dbg !4009, !tbaa !3197
  %12 = load %class.EtherAddress*, %class.EtherAddress** %8, align 8, !dbg !4010, !tbaa !3201
  call void @_ZN4Args9base_readI12EtherAddressEEvPKciRT_(%class.Args* %9, i8* %10, i32 %11, %class.EtherAddress* dereferenceable(6) %12), !dbg !4011
  ret void, !dbg !4012
}

; Function Attrs: sspstrong uwtable
define linkonce_odr dso_local void @_ZN4Args9base_readI12EtherAddressEEvPKciRT_(%class.Args* %0, i8* %1, i32 %2, %class.EtherAddress* dereferenceable(6) %3) local_unnamed_addr #0 comdat align 2 personality i8* bitcast (i32 (...)* @__gxx_personality_v0 to i8*) !dbg !4013 {
  %5 = alloca %"struct.Args::Slot"*, align 8
  %6 = alloca %class.String, align 8
  call void @llvm.dbg.value(metadata %class.Args* %0, metadata !4018, metadata !DIExpression()), !dbg !4027
  call void @llvm.dbg.value(metadata i8* %1, metadata !4019, metadata !DIExpression()), !dbg !4027
  call void @llvm.dbg.value(metadata i32 %2, metadata !4020, metadata !DIExpression()), !dbg !4027
  call void @llvm.dbg.value(metadata %class.EtherAddress* %3, metadata !4021, metadata !DIExpression()), !dbg !4027
  %7 = bitcast %"struct.Args::Slot"** %5 to i8*, !dbg !4028
  call void @llvm.lifetime.start.p0i8(i64 8, i8* nonnull %7) #12, !dbg !4028
  %8 = bitcast %class.String* %6 to i8*, !dbg !4029
  call void @llvm.lifetime.start.p0i8(i64 24, i8* nonnull %8) #12, !dbg !4029
  call void @llvm.dbg.declare(metadata %class.String* %6, metadata !4023, metadata !DIExpression()), !dbg !4030
  call void @llvm.dbg.value(metadata %"struct.Args::Slot"** %5, metadata !4022, metadata !DIExpression(DW_OP_deref)), !dbg !4027
  call void @_ZN4Args4findEPKciRPNS_4SlotE(%class.String* nonnull sret %6, %class.Args* %0, i8* %1, i32 %2, %"struct.Args::Slot"** nonnull dereferenceable(8) %5), !dbg !4031
  call void @llvm.dbg.value(metadata %class.String* %6, metadata !4032, metadata !DIExpression()), !dbg !4035
  %9 = getelementptr inbounds %class.String, %class.String* %6, i64 0, i32 0, i32 1, !dbg !4037
  %10 = load i32, i32* %9, align 8, !dbg !4037, !tbaa !3466
  %11 = icmp eq i32 %10, 0, !dbg !4038
  %12 = select i1 %11, { i64, i64 } zeroinitializer, { i64, i64 } { i64 ptrtoint (i32 (%class.String*)* @_ZNK6String6lengthEv to i64), i64 0 }, !dbg !4039
  %13 = extractvalue { i64, i64 } %12, 0, !dbg !4030
  %14 = icmp eq i64 %13, 0, !dbg !4030
  br i1 %14, label %39, label %15, !dbg !4029

15:                                               ; preds = %4
  call void @llvm.dbg.value(metadata %class.EtherAddress* %3, metadata !4025, metadata !DIExpression()), !dbg !4040
  call void @llvm.dbg.value(metadata i32 0, metadata !4041, metadata !DIExpression()), !dbg !4059
  call void @llvm.dbg.value(metadata %class.String* %6, metadata !4056, metadata !DIExpression()), !dbg !4059
  call void @llvm.dbg.value(metadata %class.EtherAddress* %3, metadata !4057, metadata !DIExpression()), !dbg !4059
  call void @llvm.dbg.value(metadata %class.Args* %0, metadata !4058, metadata !DIExpression()), !dbg !4059
  call void @llvm.dbg.value(metadata %class.EtherAddressArg* undef, metadata !4061, metadata !DIExpression()), !dbg !4067
  call void @llvm.dbg.value(metadata %class.String* %6, metadata !4064, metadata !DIExpression()), !dbg !4067
  call void @llvm.dbg.value(metadata %class.EtherAddress* %3, metadata !4065, metadata !DIExpression()), !dbg !4067
  call void @llvm.dbg.value(metadata %class.Args* %0, metadata !4066, metadata !DIExpression()), !dbg !4067
  %16 = invoke zeroext i1 @_ZN15EtherAddressArg12direct_parseERK6StringR12EtherAddressR4Argsi(%class.String* nonnull dereferenceable(24) %6, %class.EtherAddress* nonnull dereferenceable(6) %3, %class.Args* nonnull dereferenceable(112) %0, i32 0)
          to label %17 unwind label %19, !dbg !4069

17:                                               ; preds = %15
  %18 = load %"struct.Args::Slot"*, %"struct.Args::Slot"** %5, align 8, !dbg !4070, !tbaa !3201
  call void @llvm.dbg.value(metadata %"struct.Args::Slot"* %18, metadata !4022, metadata !DIExpression()), !dbg !4027
  invoke void @_ZN4Args9postparseEbPNS_4SlotE(%class.Args* nonnull %0, i1 zeroext %16, %"struct.Args::Slot"* %18)
          to label %39 unwind label %19, !dbg !4071

19:                                               ; preds = %15, %17
  %20 = landingpad { i8*, i32 }
          cleanup, !dbg !4072
  call void @llvm.dbg.value(metadata %class.String* %6, metadata !4073, metadata !DIExpression()) #12, !dbg !4076
  call void @llvm.dbg.value(metadata %class.String* %6, metadata !4078, metadata !DIExpression()) #12, !dbg !4081
  %21 = getelementptr inbounds %class.String, %class.String* %6, i64 0, i32 0, i32 2, !dbg !4084
  %22 = load %"struct.String::memo_t"*, %"struct.String::memo_t"** %21, align 8, !dbg !4084, !tbaa !3470
  %23 = icmp eq %"struct.String::memo_t"* %22, null, !dbg !4086
  br i1 %23, label %38, label %24, !dbg !4087

24:                                               ; preds = %19
  %25 = getelementptr inbounds %"struct.String::memo_t", %"struct.String::memo_t"* %22, i64 0, i32 0, !dbg !4088
  %26 = load volatile i32, i32* %25, align 4, !dbg !4088, !tbaa !4090
  %27 = icmp eq i32 %26, 0, !dbg !4088
  br i1 %27, label %28, label %29, !dbg !4088

28:                                               ; preds = %24
  call void @__assert_fail(i8* getelementptr inbounds ([18 x i8], [18 x i8]* @.str.21, i64 0, i64 0), i8* getelementptr inbounds ([29 x i8], [29 x i8]* @.str.22, i64 0, i64 0), i32 273, i8* getelementptr inbounds ([27 x i8], [27 x i8]* @__PRETTY_FUNCTION__._ZNK6String5derefEv, i64 0, i64 0)) #13, !dbg !4088
  unreachable, !dbg !4088

29:                                               ; preds = %24
  call void @llvm.dbg.value(metadata i32* %25, metadata !4092, metadata !DIExpression()) #12, !dbg !4095
  %30 = load volatile i32, i32* %25, align 4, !dbg !4098, !tbaa !3197
  %31 = add i32 %30, -1, !dbg !4098
  store volatile i32 %31, i32* %25, align 4, !dbg !4098, !tbaa !3197
  %32 = icmp eq i32 %31, 0, !dbg !4099
  br i1 %32, label %33, label %34, !dbg !4100

33:                                               ; preds = %29
  invoke void @_ZN6String11delete_memoEPNS_6memo_tE(%"struct.String::memo_t"* nonnull %22)
          to label %34 unwind label %35, !dbg !4101

34:                                               ; preds = %33, %29
  store %"struct.String::memo_t"* null, %"struct.String::memo_t"** %21, align 8, !dbg !4102, !tbaa !3470
  br label %38, !dbg !4103

35:                                               ; preds = %33
  %36 = landingpad { i8*, i32 }
          catch i8* null, !dbg !4104
  %37 = extractvalue { i8*, i32 } %36, 0, !dbg !4104
  call void @__clang_call_terminate(i8* %37) #13, !dbg !4104
  unreachable, !dbg !4104

38:                                               ; preds = %19, %34
  call void @llvm.lifetime.end.p0i8(i64 24, i8* nonnull %8) #12, !dbg !4029
  call void @llvm.lifetime.end.p0i8(i64 8, i8* nonnull %7) #12, !dbg !4105
  resume { i8*, i32 } %20, !dbg !4105

39:                                               ; preds = %17, %4
  call void @llvm.dbg.value(metadata %class.String* %6, metadata !4073, metadata !DIExpression()) #12, !dbg !4106
  call void @llvm.dbg.value(metadata %class.String* %6, metadata !4078, metadata !DIExpression()) #12, !dbg !4108
  %40 = getelementptr inbounds %class.String, %class.String* %6, i64 0, i32 0, i32 2, !dbg !4110
  %41 = load %"struct.String::memo_t"*, %"struct.String::memo_t"** %40, align 8, !dbg !4110, !tbaa !3470
  %42 = icmp eq %"struct.String::memo_t"* %41, null, !dbg !4111
  br i1 %42, label %57, label %43, !dbg !4112

43:                                               ; preds = %39
  %44 = getelementptr inbounds %"struct.String::memo_t", %"struct.String::memo_t"* %41, i64 0, i32 0, !dbg !4113
  %45 = load volatile i32, i32* %44, align 4, !dbg !4113, !tbaa !4090
  %46 = icmp eq i32 %45, 0, !dbg !4113
  br i1 %46, label %47, label %48, !dbg !4113

47:                                               ; preds = %43
  call void @__assert_fail(i8* getelementptr inbounds ([18 x i8], [18 x i8]* @.str.21, i64 0, i64 0), i8* getelementptr inbounds ([29 x i8], [29 x i8]* @.str.22, i64 0, i64 0), i32 273, i8* getelementptr inbounds ([27 x i8], [27 x i8]* @__PRETTY_FUNCTION__._ZNK6String5derefEv, i64 0, i64 0)) #13, !dbg !4113
  unreachable, !dbg !4113

48:                                               ; preds = %43
  call void @llvm.dbg.value(metadata i32* %44, metadata !4092, metadata !DIExpression()) #12, !dbg !4114
  %49 = load volatile i32, i32* %44, align 4, !dbg !4116, !tbaa !3197
  %50 = add i32 %49, -1, !dbg !4116
  store volatile i32 %50, i32* %44, align 4, !dbg !4116, !tbaa !3197
  %51 = icmp eq i32 %50, 0, !dbg !4117
  br i1 %51, label %52, label %53, !dbg !4118

52:                                               ; preds = %48
  invoke void @_ZN6String11delete_memoEPNS_6memo_tE(%"struct.String::memo_t"* nonnull %41)
          to label %53 unwind label %54, !dbg !4119

53:                                               ; preds = %52, %48
  store %"struct.String::memo_t"* null, %"struct.String::memo_t"** %40, align 8, !dbg !4120, !tbaa !3470
  br label %57, !dbg !4121

54:                                               ; preds = %52
  %55 = landingpad { i8*, i32 }
          catch i8* null, !dbg !4122
  %56 = extractvalue { i8*, i32 } %55, 0, !dbg !4122
  call void @__clang_call_terminate(i8* %56) #13, !dbg !4122
  unreachable, !dbg !4122

57:                                               ; preds = %39, %53
  call void @llvm.lifetime.end.p0i8(i64 24, i8* nonnull %8) #12, !dbg !4029
  call void @llvm.lifetime.end.p0i8(i64 8, i8* nonnull %7) #12, !dbg !4105
  ret void, !dbg !4105
}

declare void @_ZN4Args4findEPKciRPNS_4SlotE(%class.String* sret, %class.Args*, i8*, i32, %"struct.Args::Slot"** dereferenceable(8)) local_unnamed_addr #2

declare void @_ZN4Args9postparseEbPNS_4SlotE(%class.Args*, i1 zeroext, %"struct.Args::Slot"*) local_unnamed_addr #2

; Function Attrs: inlinehint nounwind sspstrong uwtable
define linkonce_odr dso_local i32 @_ZNK6String6lengthEv(%class.String* %0) #11 comdat align 2 !dbg !4123 {
  call void @llvm.dbg.value(metadata %class.String* %0, metadata !4125, metadata !DIExpression()), !dbg !4126
  %2 = getelementptr inbounds %class.String, %class.String* %0, i64 0, i32 0, i32 1, !dbg !4127
  %3 = load i32, i32* %2, align 8, !dbg !4127, !tbaa !3466
  ret i32 %3, !dbg !4128
}

declare zeroext i1 @_ZN15EtherAddressArg12direct_parseERK6StringR12EtherAddressR4Argsi(%class.String* dereferenceable(24), %class.EtherAddress* dereferenceable(6), %class.Args* dereferenceable(112), i32) local_unnamed_addr #2

declare void @_ZN6String11delete_memoEPNS_6memo_tE(%"struct.String::memo_t"*) local_unnamed_addr #2

; Function Attrs: noinline optnone sspstrong uwtable
define linkonce_odr dso_local void @_Z14args_base_readItEvP4ArgsPKciRT_(%class.Args* %0, i8* %1, i32 %2, i16* dereferenceable(2) %3) local_unnamed_addr #7 comdat !dbg !4129 {
  %5 = alloca %class.Args*, align 8
  %6 = alloca i8*, align 8
  %7 = alloca i32, align 4
  %8 = alloca i16*, align 8
  store %class.Args* %0, %class.Args** %5, align 8, !tbaa !3201
  call void @llvm.dbg.declare(metadata %class.Args** %5, metadata !4131, metadata !DIExpression()), !dbg !4135
  store i8* %1, i8** %6, align 8, !tbaa !3201
  call void @llvm.dbg.declare(metadata i8** %6, metadata !4132, metadata !DIExpression()), !dbg !4136
  store i32 %2, i32* %7, align 4, !tbaa !3197
  call void @llvm.dbg.declare(metadata i32* %7, metadata !4133, metadata !DIExpression()), !dbg !4137
  store i16* %3, i16** %8, align 8, !tbaa !3201
  call void @llvm.dbg.declare(metadata i16** %8, metadata !4134, metadata !DIExpression()), !dbg !4138
  %9 = load %class.Args*, %class.Args** %5, align 8, !dbg !4139, !tbaa !3201
  %10 = load i8*, i8** %6, align 8, !dbg !4140, !tbaa !3201
  %11 = load i32, i32* %7, align 4, !dbg !4141, !tbaa !3197
  %12 = load i16*, i16** %8, align 8, !dbg !4142, !tbaa !3201
  call void @_ZN4Args9base_readItEEvPKciRT_(%class.Args* %9, i8* %10, i32 %11, i16* dereferenceable(2) %12), !dbg !4143
  ret void, !dbg !4144
}

; Function Attrs: sspstrong uwtable
define linkonce_odr dso_local void @_ZN4Args9base_readItEEvPKciRT_(%class.Args* %0, i8* %1, i32 %2, i16* dereferenceable(2) %3) local_unnamed_addr #0 comdat align 2 personality i8* bitcast (i32 (...)* @__gxx_personality_v0 to i8*) !dbg !4145 {
  %5 = alloca [1 x i32], align 4
  call void @llvm.dbg.declare(metadata [1 x i32]* %5, metadata !4159, metadata !DIExpression()), !dbg !4173
  %6 = alloca i64, align 8
  %7 = alloca %"struct.Args::Slot"*, align 8
  %8 = alloca %class.String, align 8
  call void @llvm.dbg.value(metadata %class.Args* %0, metadata !4150, metadata !DIExpression()), !dbg !4203
  call void @llvm.dbg.value(metadata i8* %1, metadata !4151, metadata !DIExpression()), !dbg !4203
  call void @llvm.dbg.value(metadata i32 %2, metadata !4152, metadata !DIExpression()), !dbg !4203
  call void @llvm.dbg.value(metadata i16* %3, metadata !4153, metadata !DIExpression()), !dbg !4203
  %9 = bitcast %"struct.Args::Slot"** %7 to i8*, !dbg !4204
  call void @llvm.lifetime.start.p0i8(i64 8, i8* nonnull %9) #12, !dbg !4204
  %10 = bitcast %class.String* %8 to i8*, !dbg !4205
  call void @llvm.lifetime.start.p0i8(i64 24, i8* nonnull %10) #12, !dbg !4205
  call void @llvm.dbg.declare(metadata %class.String* %8, metadata !4155, metadata !DIExpression()), !dbg !4206
  call void @llvm.dbg.value(metadata %"struct.Args::Slot"** %7, metadata !4154, metadata !DIExpression(DW_OP_deref)), !dbg !4203
  call void @_ZN4Args4findEPKciRPNS_4SlotE(%class.String* nonnull sret %8, %class.Args* %0, i8* %1, i32 %2, %"struct.Args::Slot"** nonnull dereferenceable(8) %7), !dbg !4207
  call void @llvm.dbg.value(metadata %class.String* %8, metadata !4032, metadata !DIExpression()), !dbg !4208
  %11 = getelementptr inbounds %class.String, %class.String* %8, i64 0, i32 0, i32 1, !dbg !4210
  %12 = load i32, i32* %11, align 8, !dbg !4210, !tbaa !3466
  %13 = icmp eq i32 %12, 0, !dbg !4211
  %14 = select i1 %13, { i64, i64 } zeroinitializer, { i64, i64 } { i64 ptrtoint (i32 (%class.String*)* @_ZNK6String6lengthEv to i64), i64 0 }, !dbg !4212
  %15 = extractvalue { i64, i64 } %14, 0, !dbg !4206
  %16 = icmp eq i64 %15, 0, !dbg !4206
  br i1 %16, label %79, label %17, !dbg !4205

17:                                               ; preds = %4
  call void @llvm.dbg.value(metadata i16* %3, metadata !4213, metadata !DIExpression()), !dbg !4220
  call void @llvm.dbg.value(metadata %class.Args* %0, metadata !4219, metadata !DIExpression()), !dbg !4220
  call void @llvm.dbg.value(metadata %class.Args* %0, metadata !4222, metadata !DIExpression()), !dbg !4229
  call void @llvm.dbg.value(metadata i16* %3, metadata !4228, metadata !DIExpression()), !dbg !4229
  %18 = bitcast i16* %3 to i8*, !dbg !4231
  %19 = invoke i8* @_ZN4Args11simple_slotEPvm(%class.Args* nonnull %0, i8* nonnull %18, i64 2)
          to label %20 unwind label %59, !dbg !4233

20:                                               ; preds = %17
  %21 = bitcast i8* %19 to i16*, !dbg !4234
  call void @llvm.dbg.value(metadata i16* %21, metadata !4157, metadata !DIExpression()), !dbg !4235
  %22 = icmp eq i8* %19, null, !dbg !4236
  br i1 %22, label %56, label %23, !dbg !4237

23:                                               ; preds = %20
  %24 = bitcast i64* %6 to i8*, !dbg !4238
  call void @llvm.lifetime.start.p0i8(i64 8, i8* nonnull %24), !dbg !4238
  call void @llvm.dbg.value(metadata i64 0, metadata !4198, metadata !DIExpression()), !dbg !4238
  store i64 0, i64* %6, align 8
  call void @llvm.dbg.value(metadata %class.String* %8, metadata !4199, metadata !DIExpression()), !dbg !4238
  call void @llvm.dbg.value(metadata i16* %21, metadata !4200, metadata !DIExpression()), !dbg !4238
  call void @llvm.dbg.value(metadata %class.Args* %0, metadata !4201, metadata !DIExpression()), !dbg !4238
  %25 = bitcast i64* %6 to %class.IntArg*, !dbg !4239
  %26 = bitcast %class.Args* %0 to %class.ArgContext*, !dbg !4240
  call void @llvm.dbg.value(metadata %class.IntArg* %25, metadata !4179, metadata !DIExpression()), !dbg !4241
  call void @llvm.dbg.value(metadata %class.String* %8, metadata !4180, metadata !DIExpression()), !dbg !4241
  call void @llvm.dbg.value(metadata i16* %21, metadata !4181, metadata !DIExpression()), !dbg !4241
  call void @llvm.dbg.value(metadata %class.ArgContext* %26, metadata !4182, metadata !DIExpression()), !dbg !4241
  call void @llvm.dbg.value(metadata %class.IntArg* %25, metadata !4167, metadata !DIExpression()), !dbg !4242
  call void @llvm.dbg.value(metadata %class.String* %8, metadata !4168, metadata !DIExpression()), !dbg !4242
  call void @llvm.dbg.value(metadata %class.ArgContext* %26, metadata !4170, metadata !DIExpression()), !dbg !4242
  call void @llvm.dbg.value(metadata i8 0, metadata !4171, metadata !DIExpression()), !dbg !4242
  call void @llvm.dbg.value(metadata i32 1, metadata !4172, metadata !DIExpression()), !dbg !4242
  %27 = bitcast [1 x i32]* %5 to i8*, !dbg !4243
  call void @llvm.lifetime.start.p0i8(i64 4, i8* nonnull %27) #12, !dbg !4243
  call void @llvm.dbg.value(metadata %class.String* %8, metadata !3722, metadata !DIExpression()), !dbg !4244
  %28 = getelementptr inbounds %class.String, %class.String* %8, i64 0, i32 0, i32 0, !dbg !4247
  %29 = load i8*, i8** %28, align 8, !dbg !4247, !tbaa !3461
  call void @llvm.dbg.value(metadata %class.String* %8, metadata !3729, metadata !DIExpression()), !dbg !4248
  %30 = load i32, i32* %11, align 8, !dbg !4250, !tbaa !3466
  %31 = sext i32 %30 to i64, !dbg !4251
  %32 = getelementptr inbounds i8, i8* %29, i64 %31, !dbg !4251
  %33 = getelementptr inbounds [1 x i32], [1 x i32]* %5, i64 0, i64 0, !dbg !4252
  call void @llvm.dbg.value(metadata i64* %6, metadata !4198, metadata !DIExpression(DW_OP_deref)), !dbg !4238
  %34 = invoke i8* @_ZN6IntArg5parseEPKcS1_biPji(%class.IntArg* nonnull %25, i8* %29, i8* %32, i1 zeroext false, i32 2, i32* nonnull %33, i32 1)
          to label %35 unwind label %59, !dbg !4253

35:                                               ; preds = %23
  call void @llvm.dbg.value(metadata %class.String* %8, metadata !3729, metadata !DIExpression()), !dbg !4254
  %36 = load i8*, i8** %28, align 8, !dbg !4256, !tbaa !3461
  %37 = load i32, i32* %11, align 8, !dbg !4257, !tbaa !3466
  %38 = sext i32 %37 to i64, !dbg !4258
  %39 = getelementptr inbounds i8, i8* %36, i64 %38, !dbg !4258
  %40 = icmp eq i8* %34, %39, !dbg !4259
  %41 = getelementptr inbounds %class.IntArg, %class.IntArg* %25, i64 0, i32 1, !dbg !4242
  br i1 %40, label %43, label %42, !dbg !4260

42:                                               ; preds = %35
  store i32 22, i32* %41, align 4, !dbg !4261, !tbaa !3746
  br label %45, !dbg !4262

43:                                               ; preds = %35
  %44 = load i32, i32* %41, align 4, !dbg !4264, !tbaa !3746
  switch i32 %44, label %45 [
    i32 0, label %47
    i32 34, label %47
  ], !dbg !4262

45:                                               ; preds = %43, %42
  invoke void (%class.ArgContext*, i8*, ...) @_ZNK10ArgContext5errorEPKcz(%class.ArgContext* nonnull %26, i8* getelementptr inbounds ([15 x i8], [15 x i8]* @.str.23, i64 0, i64 0))
          to label %46 unwind label %59, !dbg !4265

46:                                               ; preds = %45
  call void @llvm.lifetime.end.p0i8(i64 4, i8* nonnull %27) #12, !dbg !4267
  br label %54, !dbg !4268

47:                                               ; preds = %43, %43
  call void @llvm.dbg.value(metadata i32* %33, metadata !4269, metadata !DIExpression()), !dbg !4276
  call void @llvm.dbg.value(metadata i32* %33, metadata !4278, metadata !DIExpression()), !dbg !4286
  %48 = load i32, i32* %33, align 4, !dbg !4288, !tbaa !3197
  call void @llvm.lifetime.end.p0i8(i64 4, i8* nonnull %27) #12, !dbg !4267
  switch i32 %44, label %54 [
    i32 34, label %49
    i32 0, label %52
  ], !dbg !4289

49:                                               ; preds = %47
  %50 = and i32 %48, 65535, !dbg !4290
  %51 = zext i32 %50 to i64, !dbg !4290
  call void @llvm.dbg.value(metadata i64* %6, metadata !4198, metadata !DIExpression(DW_OP_deref)), !dbg !4238
  invoke void @_ZN6IntArg11range_errorERK10ArgContextbx(%class.IntArg* nonnull %25, %class.ArgContext* nonnull dereferenceable(32) %26, i1 zeroext false, i64 %51)
          to label %54 unwind label %59, !dbg !4293

52:                                               ; preds = %47
  %53 = trunc i32 %48 to i16, !dbg !4288
  store i16 %53, i16* %21, align 2, !dbg !4294, !tbaa !2928
  br label %54, !dbg !4296

54:                                               ; preds = %49, %46, %47, %52
  %55 = phi i1 [ true, %52 ], [ false, %47 ], [ false, %46 ], [ false, %49 ], !dbg !4297
  call void @llvm.lifetime.end.p0i8(i64 8, i8* nonnull %24), !dbg !4298
  br label %56, !dbg !4298

56:                                               ; preds = %54, %20
  %57 = phi i1 [ false, %20 ], [ %55, %54 ], !dbg !4235
  %58 = load %"struct.Args::Slot"*, %"struct.Args::Slot"** %7, align 8, !dbg !4299, !tbaa !3201
  call void @llvm.dbg.value(metadata %"struct.Args::Slot"* %58, metadata !4154, metadata !DIExpression()), !dbg !4203
  invoke void @_ZN4Args9postparseEbPNS_4SlotE(%class.Args* nonnull %0, i1 zeroext %57, %"struct.Args::Slot"* %58)
          to label %79 unwind label %59, !dbg !4300

59:                                               ; preds = %49, %45, %23, %17, %56
  %60 = landingpad { i8*, i32 }
          cleanup, !dbg !4301
  call void @llvm.dbg.value(metadata %class.String* %8, metadata !4073, metadata !DIExpression()) #12, !dbg !4302
  call void @llvm.dbg.value(metadata %class.String* %8, metadata !4078, metadata !DIExpression()) #12, !dbg !4304
  %61 = getelementptr inbounds %class.String, %class.String* %8, i64 0, i32 0, i32 2, !dbg !4306
  %62 = load %"struct.String::memo_t"*, %"struct.String::memo_t"** %61, align 8, !dbg !4306, !tbaa !3470
  %63 = icmp eq %"struct.String::memo_t"* %62, null, !dbg !4307
  br i1 %63, label %78, label %64, !dbg !4308

64:                                               ; preds = %59
  %65 = getelementptr inbounds %"struct.String::memo_t", %"struct.String::memo_t"* %62, i64 0, i32 0, !dbg !4309
  %66 = load volatile i32, i32* %65, align 4, !dbg !4309, !tbaa !4090
  %67 = icmp eq i32 %66, 0, !dbg !4309
  br i1 %67, label %68, label %69, !dbg !4309

68:                                               ; preds = %64
  call void @__assert_fail(i8* getelementptr inbounds ([18 x i8], [18 x i8]* @.str.21, i64 0, i64 0), i8* getelementptr inbounds ([29 x i8], [29 x i8]* @.str.22, i64 0, i64 0), i32 273, i8* getelementptr inbounds ([27 x i8], [27 x i8]* @__PRETTY_FUNCTION__._ZNK6String5derefEv, i64 0, i64 0)) #13, !dbg !4309
  unreachable, !dbg !4309

69:                                               ; preds = %64
  call void @llvm.dbg.value(metadata i32* %65, metadata !4092, metadata !DIExpression()) #12, !dbg !4310
  %70 = load volatile i32, i32* %65, align 4, !dbg !4312, !tbaa !3197
  %71 = add i32 %70, -1, !dbg !4312
  store volatile i32 %71, i32* %65, align 4, !dbg !4312, !tbaa !3197
  %72 = icmp eq i32 %71, 0, !dbg !4313
  br i1 %72, label %73, label %74, !dbg !4314

73:                                               ; preds = %69
  invoke void @_ZN6String11delete_memoEPNS_6memo_tE(%"struct.String::memo_t"* nonnull %62)
          to label %74 unwind label %75, !dbg !4315

74:                                               ; preds = %73, %69
  store %"struct.String::memo_t"* null, %"struct.String::memo_t"** %61, align 8, !dbg !4316, !tbaa !3470
  br label %78, !dbg !4317

75:                                               ; preds = %73
  %76 = landingpad { i8*, i32 }
          catch i8* null, !dbg !4318
  %77 = extractvalue { i8*, i32 } %76, 0, !dbg !4318
  call void @__clang_call_terminate(i8* %77) #13, !dbg !4318
  unreachable, !dbg !4318

78:                                               ; preds = %59, %74
  call void @llvm.lifetime.end.p0i8(i64 24, i8* nonnull %10) #12, !dbg !4205
  call void @llvm.lifetime.end.p0i8(i64 8, i8* nonnull %9) #12, !dbg !4319
  resume { i8*, i32 } %60, !dbg !4319

79:                                               ; preds = %56, %4
  call void @llvm.dbg.value(metadata %class.String* %8, metadata !4073, metadata !DIExpression()) #12, !dbg !4320
  call void @llvm.dbg.value(metadata %class.String* %8, metadata !4078, metadata !DIExpression()) #12, !dbg !4322
  %80 = getelementptr inbounds %class.String, %class.String* %8, i64 0, i32 0, i32 2, !dbg !4324
  %81 = load %"struct.String::memo_t"*, %"struct.String::memo_t"** %80, align 8, !dbg !4324, !tbaa !3470
  %82 = icmp eq %"struct.String::memo_t"* %81, null, !dbg !4325
  br i1 %82, label %97, label %83, !dbg !4326

83:                                               ; preds = %79
  %84 = getelementptr inbounds %"struct.String::memo_t", %"struct.String::memo_t"* %81, i64 0, i32 0, !dbg !4327
  %85 = load volatile i32, i32* %84, align 4, !dbg !4327, !tbaa !4090
  %86 = icmp eq i32 %85, 0, !dbg !4327
  br i1 %86, label %87, label %88, !dbg !4327

87:                                               ; preds = %83
  call void @__assert_fail(i8* getelementptr inbounds ([18 x i8], [18 x i8]* @.str.21, i64 0, i64 0), i8* getelementptr inbounds ([29 x i8], [29 x i8]* @.str.22, i64 0, i64 0), i32 273, i8* getelementptr inbounds ([27 x i8], [27 x i8]* @__PRETTY_FUNCTION__._ZNK6String5derefEv, i64 0, i64 0)) #13, !dbg !4327
  unreachable, !dbg !4327

88:                                               ; preds = %83
  call void @llvm.dbg.value(metadata i32* %84, metadata !4092, metadata !DIExpression()) #12, !dbg !4328
  %89 = load volatile i32, i32* %84, align 4, !dbg !4330, !tbaa !3197
  %90 = add i32 %89, -1, !dbg !4330
  store volatile i32 %90, i32* %84, align 4, !dbg !4330, !tbaa !3197
  %91 = icmp eq i32 %90, 0, !dbg !4331
  br i1 %91, label %92, label %93, !dbg !4332

92:                                               ; preds = %88
  invoke void @_ZN6String11delete_memoEPNS_6memo_tE(%"struct.String::memo_t"* nonnull %81)
          to label %93 unwind label %94, !dbg !4333

93:                                               ; preds = %92, %88
  store %"struct.String::memo_t"* null, %"struct.String::memo_t"** %80, align 8, !dbg !4334, !tbaa !3470
  br label %97, !dbg !4335

94:                                               ; preds = %92
  %95 = landingpad { i8*, i32 }
          catch i8* null, !dbg !4336
  %96 = extractvalue { i8*, i32 } %95, 0, !dbg !4336
  call void @__clang_call_terminate(i8* %96) #13, !dbg !4336
  unreachable, !dbg !4336

97:                                               ; preds = %79, %93
  call void @llvm.lifetime.end.p0i8(i64 24, i8* nonnull %10) #12, !dbg !4205
  call void @llvm.lifetime.end.p0i8(i64 8, i8* nonnull %9) #12, !dbg !4319
  ret void, !dbg !4319
}

declare i8* @_ZN4Args11simple_slotEPvm(%class.Args*, i8*, i64) local_unnamed_addr #2

declare void @_ZN6IntArg11range_errorERK10ArgContextbx(%class.IntArg*, %class.ArgContext* dereferenceable(32), i1 zeroext, i64) local_unnamed_addr #2

declare i8* @_ZN6IntArg5parseEPKcS1_biPji(%class.IntArg*, i8*, i8*, i1 zeroext, i32, i32*, i32) local_unnamed_addr #2

declare void @_ZNK10ArgContext5errorEPKcz(%class.ArgContext*, i8*, ...) local_unnamed_addr #2

; Function Attrs: noinline optnone sspstrong uwtable
define linkonce_odr dso_local void @_Z14args_base_readIiEvP4ArgsPKciRT_(%class.Args* %0, i8* %1, i32 %2, i32* dereferenceable(4) %3) local_unnamed_addr #7 comdat !dbg !4337 {
  %5 = alloca %class.Args*, align 8
  %6 = alloca i8*, align 8
  %7 = alloca i32, align 4
  %8 = alloca i32*, align 8
  store %class.Args* %0, %class.Args** %5, align 8, !tbaa !3201
  call void @llvm.dbg.declare(metadata %class.Args** %5, metadata !4339, metadata !DIExpression()), !dbg !4343
  store i8* %1, i8** %6, align 8, !tbaa !3201
  call void @llvm.dbg.declare(metadata i8** %6, metadata !4340, metadata !DIExpression()), !dbg !4344
  store i32 %2, i32* %7, align 4, !tbaa !3197
  call void @llvm.dbg.declare(metadata i32* %7, metadata !4341, metadata !DIExpression()), !dbg !4345
  store i32* %3, i32** %8, align 8, !tbaa !3201
  call void @llvm.dbg.declare(metadata i32** %8, metadata !4342, metadata !DIExpression()), !dbg !4346
  %9 = load %class.Args*, %class.Args** %5, align 8, !dbg !4347, !tbaa !3201
  %10 = load i8*, i8** %6, align 8, !dbg !4348, !tbaa !3201
  %11 = load i32, i32* %7, align 4, !dbg !4349, !tbaa !3197
  %12 = load i32*, i32** %8, align 8, !dbg !4350, !tbaa !3201
  call void @_ZN4Args9base_readIiEEvPKciRT_(%class.Args* %9, i8* %10, i32 %11, i32* dereferenceable(4) %12), !dbg !4351
  ret void, !dbg !4352
}

; Function Attrs: sspstrong uwtable
define linkonce_odr dso_local void @_ZN4Args9base_readIiEEvPKciRT_(%class.Args* %0, i8* %1, i32 %2, i32* dereferenceable(4) %3) local_unnamed_addr #0 comdat align 2 personality i8* bitcast (i32 (...)* @__gxx_personality_v0 to i8*) !dbg !4353 {
  %5 = alloca [1 x i32], align 4
  call void @llvm.dbg.declare(metadata [1 x i32]* %5, metadata !2167, metadata !DIExpression()), !dbg !4367
  %6 = alloca i64, align 8
  %7 = alloca %"struct.Args::Slot"*, align 8
  %8 = alloca %class.String, align 8
  call void @llvm.dbg.value(metadata %class.Args* %0, metadata !4358, metadata !DIExpression()), !dbg !4387
  call void @llvm.dbg.value(metadata i8* %1, metadata !4359, metadata !DIExpression()), !dbg !4387
  call void @llvm.dbg.value(metadata i32 %2, metadata !4360, metadata !DIExpression()), !dbg !4387
  call void @llvm.dbg.value(metadata i32* %3, metadata !4361, metadata !DIExpression()), !dbg !4387
  %9 = bitcast %"struct.Args::Slot"** %7 to i8*, !dbg !4388
  call void @llvm.lifetime.start.p0i8(i64 8, i8* nonnull %9) #12, !dbg !4388
  %10 = bitcast %class.String* %8 to i8*, !dbg !4389
  call void @llvm.lifetime.start.p0i8(i64 24, i8* nonnull %10) #12, !dbg !4389
  call void @llvm.dbg.declare(metadata %class.String* %8, metadata !4363, metadata !DIExpression()), !dbg !4390
  call void @llvm.dbg.value(metadata %"struct.Args::Slot"** %7, metadata !4362, metadata !DIExpression(DW_OP_deref)), !dbg !4387
  call void @_ZN4Args4findEPKciRPNS_4SlotE(%class.String* nonnull sret %8, %class.Args* %0, i8* %1, i32 %2, %"struct.Args::Slot"** nonnull dereferenceable(8) %7), !dbg !4391
  call void @llvm.dbg.value(metadata %class.String* %8, metadata !4032, metadata !DIExpression()), !dbg !4392
  %11 = getelementptr inbounds %class.String, %class.String* %8, i64 0, i32 0, i32 1, !dbg !4394
  %12 = load i32, i32* %11, align 8, !dbg !4394, !tbaa !3466
  %13 = icmp eq i32 %12, 0, !dbg !4395
  %14 = select i1 %13, { i64, i64 } zeroinitializer, { i64, i64 } { i64 ptrtoint (i32 (%class.String*)* @_ZNK6String6lengthEv to i64), i64 0 }, !dbg !4396
  %15 = extractvalue { i64, i64 } %14, 0, !dbg !4390
  %16 = icmp eq i64 %15, 0, !dbg !4390
  br i1 %16, label %77, label %17, !dbg !4389

17:                                               ; preds = %4
  call void @llvm.dbg.value(metadata i32* %3, metadata !4397, metadata !DIExpression()), !dbg !4404
  call void @llvm.dbg.value(metadata %class.Args* %0, metadata !4403, metadata !DIExpression()), !dbg !4404
  call void @llvm.dbg.value(metadata %class.Args* %0, metadata !4406, metadata !DIExpression()), !dbg !4413
  call void @llvm.dbg.value(metadata i32* %3, metadata !4412, metadata !DIExpression()), !dbg !4413
  %18 = bitcast i32* %3 to i8*, !dbg !4415
  %19 = invoke i8* @_ZN4Args11simple_slotEPvm(%class.Args* nonnull %0, i8* nonnull %18, i64 4)
          to label %20 unwind label %57, !dbg !4417

20:                                               ; preds = %17
  %21 = bitcast i8* %19 to i32*, !dbg !4418
  call void @llvm.dbg.value(metadata i32* %21, metadata !4365, metadata !DIExpression()), !dbg !4419
  %22 = icmp eq i8* %19, null, !dbg !4420
  br i1 %22, label %54, label %23, !dbg !4421

23:                                               ; preds = %20
  %24 = bitcast i64* %6 to i8*, !dbg !4422
  call void @llvm.lifetime.start.p0i8(i64 8, i8* nonnull %24), !dbg !4422
  call void @llvm.dbg.value(metadata i64 0, metadata !4382, metadata !DIExpression()), !dbg !4422
  store i64 0, i64* %6, align 8
  call void @llvm.dbg.value(metadata %class.String* %8, metadata !4383, metadata !DIExpression()), !dbg !4422
  call void @llvm.dbg.value(metadata i32* %21, metadata !4384, metadata !DIExpression()), !dbg !4422
  call void @llvm.dbg.value(metadata %class.Args* %0, metadata !4385, metadata !DIExpression()), !dbg !4422
  %25 = bitcast i64* %6 to %class.IntArg*, !dbg !4423
  %26 = bitcast %class.Args* %0 to %class.ArgContext*, !dbg !4424
  call void @llvm.dbg.value(metadata %class.IntArg* %25, metadata !3593, metadata !DIExpression()), !dbg !4425
  call void @llvm.dbg.value(metadata %class.String* %8, metadata !3594, metadata !DIExpression()), !dbg !4425
  call void @llvm.dbg.value(metadata i32* %21, metadata !3595, metadata !DIExpression()), !dbg !4425
  call void @llvm.dbg.value(metadata %class.ArgContext* %26, metadata !3596, metadata !DIExpression()), !dbg !4425
  call void @llvm.dbg.value(metadata %class.IntArg* %25, metadata !2160, metadata !DIExpression()), !dbg !4426
  call void @llvm.dbg.value(metadata %class.String* %8, metadata !2162, metadata !DIExpression()), !dbg !4426
  call void @llvm.dbg.value(metadata %class.ArgContext* %26, metadata !2164, metadata !DIExpression()), !dbg !4426
  call void @llvm.dbg.value(metadata i8 1, metadata !2165, metadata !DIExpression()), !dbg !4426
  call void @llvm.dbg.value(metadata i32 1, metadata !2166, metadata !DIExpression()), !dbg !4426
  %27 = bitcast [1 x i32]* %5 to i8*, !dbg !4427
  call void @llvm.lifetime.start.p0i8(i64 4, i8* nonnull %27) #12, !dbg !4427
  call void @llvm.dbg.value(metadata %class.String* %8, metadata !3722, metadata !DIExpression()), !dbg !4428
  %28 = getelementptr inbounds %class.String, %class.String* %8, i64 0, i32 0, i32 0, !dbg !4430
  %29 = load i8*, i8** %28, align 8, !dbg !4430, !tbaa !3461
  call void @llvm.dbg.value(metadata %class.String* %8, metadata !3729, metadata !DIExpression()), !dbg !4431
  %30 = load i32, i32* %11, align 8, !dbg !4433, !tbaa !3466
  %31 = sext i32 %30 to i64, !dbg !4434
  %32 = getelementptr inbounds i8, i8* %29, i64 %31, !dbg !4434
  %33 = getelementptr inbounds [1 x i32], [1 x i32]* %5, i64 0, i64 0, !dbg !4435
  call void @llvm.dbg.value(metadata i64* %6, metadata !4382, metadata !DIExpression(DW_OP_deref)), !dbg !4422
  %34 = invoke i8* @_ZN6IntArg5parseEPKcS1_biPji(%class.IntArg* nonnull %25, i8* %29, i8* %32, i1 zeroext true, i32 4, i32* nonnull %33, i32 1)
          to label %35 unwind label %57, !dbg !4436

35:                                               ; preds = %23
  call void @llvm.dbg.value(metadata %class.String* %8, metadata !3729, metadata !DIExpression()), !dbg !4437
  %36 = load i8*, i8** %28, align 8, !dbg !4439, !tbaa !3461
  %37 = load i32, i32* %11, align 8, !dbg !4440, !tbaa !3466
  %38 = sext i32 %37 to i64, !dbg !4441
  %39 = getelementptr inbounds i8, i8* %36, i64 %38, !dbg !4441
  %40 = icmp eq i8* %34, %39, !dbg !4442
  %41 = getelementptr inbounds %class.IntArg, %class.IntArg* %25, i64 0, i32 1, !dbg !4426
  br i1 %40, label %43, label %42, !dbg !4443

42:                                               ; preds = %35
  store i32 22, i32* %41, align 4, !dbg !4444, !tbaa !3746
  br label %45, !dbg !4445

43:                                               ; preds = %35
  %44 = load i32, i32* %41, align 4, !dbg !4446, !tbaa !3746
  switch i32 %44, label %45 [
    i32 0, label %47
    i32 34, label %47
  ], !dbg !4445

45:                                               ; preds = %43, %42
  invoke void (%class.ArgContext*, i8*, ...) @_ZNK10ArgContext5errorEPKcz(%class.ArgContext* nonnull %26, i8* getelementptr inbounds ([15 x i8], [15 x i8]* @.str.23, i64 0, i64 0))
          to label %46 unwind label %57, !dbg !4447

46:                                               ; preds = %45
  call void @llvm.lifetime.end.p0i8(i64 4, i8* nonnull %27) #12, !dbg !4448
  br label %52, !dbg !4449

47:                                               ; preds = %43, %43
  call void @llvm.dbg.value(metadata i32* %33, metadata !3754, metadata !DIExpression()), !dbg !4450
  call void @llvm.dbg.value(metadata i32* %33, metadata !3765, metadata !DIExpression()), !dbg !4452
  %48 = load i32, i32* %33, align 4, !dbg !4454, !tbaa !3197
  call void @llvm.lifetime.end.p0i8(i64 4, i8* nonnull %27) #12, !dbg !4448
  switch i32 %44, label %52 [
    i32 34, label %49
    i32 0, label %51
  ], !dbg !4455

49:                                               ; preds = %47
  %50 = sext i32 %48 to i64, !dbg !4456
  call void @llvm.dbg.value(metadata i64* %6, metadata !4382, metadata !DIExpression(DW_OP_deref)), !dbg !4422
  invoke void @_ZN6IntArg11range_errorERK10ArgContextbx(%class.IntArg* nonnull %25, %class.ArgContext* nonnull dereferenceable(32) %26, i1 zeroext true, i64 %50)
          to label %52 unwind label %57, !dbg !4457

51:                                               ; preds = %47
  store i32 %48, i32* %21, align 4, !dbg !4458, !tbaa !3197
  br label %52, !dbg !4459

52:                                               ; preds = %49, %46, %47, %51
  %53 = phi i1 [ true, %51 ], [ false, %47 ], [ false, %46 ], [ false, %49 ], !dbg !4460
  call void @llvm.lifetime.end.p0i8(i64 8, i8* nonnull %24), !dbg !4461
  br label %54, !dbg !4461

54:                                               ; preds = %52, %20
  %55 = phi i1 [ false, %20 ], [ %53, %52 ], !dbg !4419
  %56 = load %"struct.Args::Slot"*, %"struct.Args::Slot"** %7, align 8, !dbg !4462, !tbaa !3201
  call void @llvm.dbg.value(metadata %"struct.Args::Slot"* %56, metadata !4362, metadata !DIExpression()), !dbg !4387
  invoke void @_ZN4Args9postparseEbPNS_4SlotE(%class.Args* nonnull %0, i1 zeroext %55, %"struct.Args::Slot"* %56)
          to label %77 unwind label %57, !dbg !4463

57:                                               ; preds = %49, %45, %23, %17, %54
  %58 = landingpad { i8*, i32 }
          cleanup, !dbg !4464
  call void @llvm.dbg.value(metadata %class.String* %8, metadata !4073, metadata !DIExpression()) #12, !dbg !4465
  call void @llvm.dbg.value(metadata %class.String* %8, metadata !4078, metadata !DIExpression()) #12, !dbg !4467
  %59 = getelementptr inbounds %class.String, %class.String* %8, i64 0, i32 0, i32 2, !dbg !4469
  %60 = load %"struct.String::memo_t"*, %"struct.String::memo_t"** %59, align 8, !dbg !4469, !tbaa !3470
  %61 = icmp eq %"struct.String::memo_t"* %60, null, !dbg !4470
  br i1 %61, label %76, label %62, !dbg !4471

62:                                               ; preds = %57
  %63 = getelementptr inbounds %"struct.String::memo_t", %"struct.String::memo_t"* %60, i64 0, i32 0, !dbg !4472
  %64 = load volatile i32, i32* %63, align 4, !dbg !4472, !tbaa !4090
  %65 = icmp eq i32 %64, 0, !dbg !4472
  br i1 %65, label %66, label %67, !dbg !4472

66:                                               ; preds = %62
  call void @__assert_fail(i8* getelementptr inbounds ([18 x i8], [18 x i8]* @.str.21, i64 0, i64 0), i8* getelementptr inbounds ([29 x i8], [29 x i8]* @.str.22, i64 0, i64 0), i32 273, i8* getelementptr inbounds ([27 x i8], [27 x i8]* @__PRETTY_FUNCTION__._ZNK6String5derefEv, i64 0, i64 0)) #13, !dbg !4472
  unreachable, !dbg !4472

67:                                               ; preds = %62
  call void @llvm.dbg.value(metadata i32* %63, metadata !4092, metadata !DIExpression()) #12, !dbg !4473
  %68 = load volatile i32, i32* %63, align 4, !dbg !4475, !tbaa !3197
  %69 = add i32 %68, -1, !dbg !4475
  store volatile i32 %69, i32* %63, align 4, !dbg !4475, !tbaa !3197
  %70 = icmp eq i32 %69, 0, !dbg !4476
  br i1 %70, label %71, label %72, !dbg !4477

71:                                               ; preds = %67
  invoke void @_ZN6String11delete_memoEPNS_6memo_tE(%"struct.String::memo_t"* nonnull %60)
          to label %72 unwind label %73, !dbg !4478

72:                                               ; preds = %71, %67
  store %"struct.String::memo_t"* null, %"struct.String::memo_t"** %59, align 8, !dbg !4479, !tbaa !3470
  br label %76, !dbg !4480

73:                                               ; preds = %71
  %74 = landingpad { i8*, i32 }
          catch i8* null, !dbg !4481
  %75 = extractvalue { i8*, i32 } %74, 0, !dbg !4481
  call void @__clang_call_terminate(i8* %75) #13, !dbg !4481
  unreachable, !dbg !4481

76:                                               ; preds = %57, %72
  call void @llvm.lifetime.end.p0i8(i64 24, i8* nonnull %10) #12, !dbg !4389
  call void @llvm.lifetime.end.p0i8(i64 8, i8* nonnull %9) #12, !dbg !4482
  resume { i8*, i32 } %58, !dbg !4482

77:                                               ; preds = %54, %4
  call void @llvm.dbg.value(metadata %class.String* %8, metadata !4073, metadata !DIExpression()) #12, !dbg !4483
  call void @llvm.dbg.value(metadata %class.String* %8, metadata !4078, metadata !DIExpression()) #12, !dbg !4485
  %78 = getelementptr inbounds %class.String, %class.String* %8, i64 0, i32 0, i32 2, !dbg !4487
  %79 = load %"struct.String::memo_t"*, %"struct.String::memo_t"** %78, align 8, !dbg !4487, !tbaa !3470
  %80 = icmp eq %"struct.String::memo_t"* %79, null, !dbg !4488
  br i1 %80, label %95, label %81, !dbg !4489

81:                                               ; preds = %77
  %82 = getelementptr inbounds %"struct.String::memo_t", %"struct.String::memo_t"* %79, i64 0, i32 0, !dbg !4490
  %83 = load volatile i32, i32* %82, align 4, !dbg !4490, !tbaa !4090
  %84 = icmp eq i32 %83, 0, !dbg !4490
  br i1 %84, label %85, label %86, !dbg !4490

85:                                               ; preds = %81
  call void @__assert_fail(i8* getelementptr inbounds ([18 x i8], [18 x i8]* @.str.21, i64 0, i64 0), i8* getelementptr inbounds ([29 x i8], [29 x i8]* @.str.22, i64 0, i64 0), i32 273, i8* getelementptr inbounds ([27 x i8], [27 x i8]* @__PRETTY_FUNCTION__._ZNK6String5derefEv, i64 0, i64 0)) #13, !dbg !4490
  unreachable, !dbg !4490

86:                                               ; preds = %81
  call void @llvm.dbg.value(metadata i32* %82, metadata !4092, metadata !DIExpression()) #12, !dbg !4491
  %87 = load volatile i32, i32* %82, align 4, !dbg !4493, !tbaa !3197
  %88 = add i32 %87, -1, !dbg !4493
  store volatile i32 %88, i32* %82, align 4, !dbg !4493, !tbaa !3197
  %89 = icmp eq i32 %88, 0, !dbg !4494
  br i1 %89, label %90, label %91, !dbg !4495

90:                                               ; preds = %86
  invoke void @_ZN6String11delete_memoEPNS_6memo_tE(%"struct.String::memo_t"* nonnull %79)
          to label %91 unwind label %92, !dbg !4496

91:                                               ; preds = %90, %86
  store %"struct.String::memo_t"* null, %"struct.String::memo_t"** %78, align 8, !dbg !4497, !tbaa !3470
  br label %95, !dbg !4498

92:                                               ; preds = %90
  %93 = landingpad { i8*, i32 }
          catch i8* null, !dbg !4499
  %94 = extractvalue { i8*, i32 } %93, 0, !dbg !4499
  call void @__clang_call_terminate(i8* %94) #13, !dbg !4499
  unreachable, !dbg !4499

95:                                               ; preds = %77, %91
  call void @llvm.lifetime.end.p0i8(i64 24, i8* nonnull %10) #12, !dbg !4389
  call void @llvm.lifetime.end.p0i8(i64 8, i8* nonnull %9) #12, !dbg !4482
  ret void, !dbg !4482
}

; Function Attrs: noinline optnone sspstrong uwtable
define linkonce_odr dso_local void @_Z14args_base_readIbEvP4ArgsPKciRT_(%class.Args* %0, i8* %1, i32 %2, i8* dereferenceable(1) %3) local_unnamed_addr #7 comdat !dbg !4500 {
  %5 = alloca %class.Args*, align 8
  %6 = alloca i8*, align 8
  %7 = alloca i32, align 4
  %8 = alloca i8*, align 8
  store %class.Args* %0, %class.Args** %5, align 8, !tbaa !3201
  call void @llvm.dbg.declare(metadata %class.Args** %5, metadata !4502, metadata !DIExpression()), !dbg !4506
  store i8* %1, i8** %6, align 8, !tbaa !3201
  call void @llvm.dbg.declare(metadata i8** %6, metadata !4503, metadata !DIExpression()), !dbg !4507
  store i32 %2, i32* %7, align 4, !tbaa !3197
  call void @llvm.dbg.declare(metadata i32* %7, metadata !4504, metadata !DIExpression()), !dbg !4508
  store i8* %3, i8** %8, align 8, !tbaa !3201
  call void @llvm.dbg.declare(metadata i8** %8, metadata !4505, metadata !DIExpression()), !dbg !4509
  %9 = load %class.Args*, %class.Args** %5, align 8, !dbg !4510, !tbaa !3201
  %10 = load i8*, i8** %6, align 8, !dbg !4511, !tbaa !3201
  %11 = load i32, i32* %7, align 4, !dbg !4512, !tbaa !3197
  %12 = load i8*, i8** %8, align 8, !dbg !4513, !tbaa !3201
  call void @_ZN4Args9base_readIbEEvPKciRT_(%class.Args* %9, i8* %10, i32 %11, i8* dereferenceable(1) %12), !dbg !4514
  ret void, !dbg !4515
}

; Function Attrs: sspstrong uwtable
define linkonce_odr dso_local void @_ZN4Args9base_readIbEEvPKciRT_(%class.Args* %0, i8* %1, i32 %2, i8* dereferenceable(1) %3) local_unnamed_addr #0 comdat align 2 personality i8* bitcast (i32 (...)* @__gxx_personality_v0 to i8*) !dbg !4516 {
  %5 = alloca %"struct.Args::Slot"*, align 8
  %6 = alloca %class.String, align 8
  call void @llvm.dbg.value(metadata %class.Args* %0, metadata !4521, metadata !DIExpression()), !dbg !4530
  call void @llvm.dbg.value(metadata i8* %1, metadata !4522, metadata !DIExpression()), !dbg !4530
  call void @llvm.dbg.value(metadata i32 %2, metadata !4523, metadata !DIExpression()), !dbg !4530
  call void @llvm.dbg.value(metadata i8* %3, metadata !4524, metadata !DIExpression()), !dbg !4530
  %7 = bitcast %"struct.Args::Slot"** %5 to i8*, !dbg !4531
  call void @llvm.lifetime.start.p0i8(i64 8, i8* nonnull %7) #12, !dbg !4531
  %8 = bitcast %class.String* %6 to i8*, !dbg !4532
  call void @llvm.lifetime.start.p0i8(i64 24, i8* nonnull %8) #12, !dbg !4532
  call void @llvm.dbg.declare(metadata %class.String* %6, metadata !4526, metadata !DIExpression()), !dbg !4533
  call void @llvm.dbg.value(metadata %"struct.Args::Slot"** %5, metadata !4525, metadata !DIExpression(DW_OP_deref)), !dbg !4530
  call void @_ZN4Args4findEPKciRPNS_4SlotE(%class.String* nonnull sret %6, %class.Args* %0, i8* %1, i32 %2, %"struct.Args::Slot"** nonnull dereferenceable(8) %5), !dbg !4534
  call void @llvm.dbg.value(metadata %class.String* %6, metadata !4032, metadata !DIExpression()), !dbg !4535
  %9 = getelementptr inbounds %class.String, %class.String* %6, i64 0, i32 0, i32 1, !dbg !4537
  %10 = load i32, i32* %9, align 8, !dbg !4537, !tbaa !3466
  %11 = icmp eq i32 %10, 0, !dbg !4538
  %12 = select i1 %11, { i64, i64 } zeroinitializer, { i64, i64 } { i64 ptrtoint (i32 (%class.String*)* @_ZNK6String6lengthEv to i64), i64 0 }, !dbg !4539
  %13 = extractvalue { i64, i64 } %12, 0, !dbg !4533
  %14 = icmp eq i64 %13, 0, !dbg !4533
  br i1 %14, label %45, label %15, !dbg !4532

15:                                               ; preds = %4
  call void @llvm.dbg.value(metadata i8* %3, metadata !4540, metadata !DIExpression()), !dbg !4562
  call void @llvm.dbg.value(metadata %class.Args* %0, metadata !4561, metadata !DIExpression()), !dbg !4562
  call void @llvm.dbg.value(metadata %class.Args* %0, metadata !4564, metadata !DIExpression()), !dbg !4571
  call void @llvm.dbg.value(metadata i8* %3, metadata !4570, metadata !DIExpression()), !dbg !4571
  %16 = invoke i8* @_ZN4Args11simple_slotEPvm(%class.Args* nonnull %0, i8* nonnull %3, i64 1)
          to label %17 unwind label %25, !dbg !4573

17:                                               ; preds = %15
  call void @llvm.dbg.value(metadata i8* %16, metadata !4528, metadata !DIExpression()), !dbg !4575
  %18 = icmp eq i8* %16, null, !dbg !4576
  br i1 %18, label %22, label %19, !dbg !4577

19:                                               ; preds = %17
  call void @llvm.dbg.value(metadata %class.String* %6, metadata !4578, metadata !DIExpression()), !dbg !4587
  call void @llvm.dbg.value(metadata i8* %16, metadata !4585, metadata !DIExpression()), !dbg !4587
  call void @llvm.dbg.value(metadata %class.Args* %0, metadata !4586, metadata !DIExpression()), !dbg !4587
  %20 = bitcast %class.Args* %0 to %class.ArgContext*, !dbg !4589
  %21 = invoke zeroext i1 @_ZN7BoolArg5parseERK6StringRbRK10ArgContext(%class.String* nonnull dereferenceable(24) %6, i8* nonnull dereferenceable(1) %16, %class.ArgContext* nonnull dereferenceable(32) %20)
          to label %22 unwind label %25, !dbg !4590

22:                                               ; preds = %19, %17
  %23 = phi i1 [ false, %17 ], [ %21, %19 ], !dbg !4575
  %24 = load %"struct.Args::Slot"*, %"struct.Args::Slot"** %5, align 8, !dbg !4591, !tbaa !3201
  call void @llvm.dbg.value(metadata %"struct.Args::Slot"* %24, metadata !4525, metadata !DIExpression()), !dbg !4530
  invoke void @_ZN4Args9postparseEbPNS_4SlotE(%class.Args* nonnull %0, i1 zeroext %23, %"struct.Args::Slot"* %24)
          to label %45 unwind label %25, !dbg !4592

25:                                               ; preds = %19, %15, %22
  %26 = landingpad { i8*, i32 }
          cleanup, !dbg !4593
  call void @llvm.dbg.value(metadata %class.String* %6, metadata !4073, metadata !DIExpression()) #12, !dbg !4594
  call void @llvm.dbg.value(metadata %class.String* %6, metadata !4078, metadata !DIExpression()) #12, !dbg !4596
  %27 = getelementptr inbounds %class.String, %class.String* %6, i64 0, i32 0, i32 2, !dbg !4598
  %28 = load %"struct.String::memo_t"*, %"struct.String::memo_t"** %27, align 8, !dbg !4598, !tbaa !3470
  %29 = icmp eq %"struct.String::memo_t"* %28, null, !dbg !4599
  br i1 %29, label %44, label %30, !dbg !4600

30:                                               ; preds = %25
  %31 = getelementptr inbounds %"struct.String::memo_t", %"struct.String::memo_t"* %28, i64 0, i32 0, !dbg !4601
  %32 = load volatile i32, i32* %31, align 4, !dbg !4601, !tbaa !4090
  %33 = icmp eq i32 %32, 0, !dbg !4601
  br i1 %33, label %34, label %35, !dbg !4601

34:                                               ; preds = %30
  call void @__assert_fail(i8* getelementptr inbounds ([18 x i8], [18 x i8]* @.str.21, i64 0, i64 0), i8* getelementptr inbounds ([29 x i8], [29 x i8]* @.str.22, i64 0, i64 0), i32 273, i8* getelementptr inbounds ([27 x i8], [27 x i8]* @__PRETTY_FUNCTION__._ZNK6String5derefEv, i64 0, i64 0)) #13, !dbg !4601
  unreachable, !dbg !4601

35:                                               ; preds = %30
  call void @llvm.dbg.value(metadata i32* %31, metadata !4092, metadata !DIExpression()) #12, !dbg !4602
  %36 = load volatile i32, i32* %31, align 4, !dbg !4604, !tbaa !3197
  %37 = add i32 %36, -1, !dbg !4604
  store volatile i32 %37, i32* %31, align 4, !dbg !4604, !tbaa !3197
  %38 = icmp eq i32 %37, 0, !dbg !4605
  br i1 %38, label %39, label %40, !dbg !4606

39:                                               ; preds = %35
  invoke void @_ZN6String11delete_memoEPNS_6memo_tE(%"struct.String::memo_t"* nonnull %28)
          to label %40 unwind label %41, !dbg !4607

40:                                               ; preds = %39, %35
  store %"struct.String::memo_t"* null, %"struct.String::memo_t"** %27, align 8, !dbg !4608, !tbaa !3470
  br label %44, !dbg !4609

41:                                               ; preds = %39
  %42 = landingpad { i8*, i32 }
          catch i8* null, !dbg !4610
  %43 = extractvalue { i8*, i32 } %42, 0, !dbg !4610
  call void @__clang_call_terminate(i8* %43) #13, !dbg !4610
  unreachable, !dbg !4610

44:                                               ; preds = %25, %40
  call void @llvm.lifetime.end.p0i8(i64 24, i8* nonnull %8) #12, !dbg !4532
  call void @llvm.lifetime.end.p0i8(i64 8, i8* nonnull %7) #12, !dbg !4611
  resume { i8*, i32 } %26, !dbg !4611

45:                                               ; preds = %22, %4
  call void @llvm.dbg.value(metadata %class.String* %6, metadata !4073, metadata !DIExpression()) #12, !dbg !4612
  call void @llvm.dbg.value(metadata %class.String* %6, metadata !4078, metadata !DIExpression()) #12, !dbg !4614
  %46 = getelementptr inbounds %class.String, %class.String* %6, i64 0, i32 0, i32 2, !dbg !4616
  %47 = load %"struct.String::memo_t"*, %"struct.String::memo_t"** %46, align 8, !dbg !4616, !tbaa !3470
  %48 = icmp eq %"struct.String::memo_t"* %47, null, !dbg !4617
  br i1 %48, label %63, label %49, !dbg !4618

49:                                               ; preds = %45
  %50 = getelementptr inbounds %"struct.String::memo_t", %"struct.String::memo_t"* %47, i64 0, i32 0, !dbg !4619
  %51 = load volatile i32, i32* %50, align 4, !dbg !4619, !tbaa !4090
  %52 = icmp eq i32 %51, 0, !dbg !4619
  br i1 %52, label %53, label %54, !dbg !4619

53:                                               ; preds = %49
  call void @__assert_fail(i8* getelementptr inbounds ([18 x i8], [18 x i8]* @.str.21, i64 0, i64 0), i8* getelementptr inbounds ([29 x i8], [29 x i8]* @.str.22, i64 0, i64 0), i32 273, i8* getelementptr inbounds ([27 x i8], [27 x i8]* @__PRETTY_FUNCTION__._ZNK6String5derefEv, i64 0, i64 0)) #13, !dbg !4619
  unreachable, !dbg !4619

54:                                               ; preds = %49
  call void @llvm.dbg.value(metadata i32* %50, metadata !4092, metadata !DIExpression()) #12, !dbg !4620
  %55 = load volatile i32, i32* %50, align 4, !dbg !4622, !tbaa !3197
  %56 = add i32 %55, -1, !dbg !4622
  store volatile i32 %56, i32* %50, align 4, !dbg !4622, !tbaa !3197
  %57 = icmp eq i32 %56, 0, !dbg !4623
  br i1 %57, label %58, label %59, !dbg !4624

58:                                               ; preds = %54
  invoke void @_ZN6String11delete_memoEPNS_6memo_tE(%"struct.String::memo_t"* nonnull %47)
          to label %59 unwind label %60, !dbg !4625

59:                                               ; preds = %58, %54
  store %"struct.String::memo_t"* null, %"struct.String::memo_t"** %46, align 8, !dbg !4626, !tbaa !3470
  br label %63, !dbg !4627

60:                                               ; preds = %58
  %61 = landingpad { i8*, i32 }
          catch i8* null, !dbg !4628
  %62 = extractvalue { i8*, i32 } %61, 0, !dbg !4628
  call void @__clang_call_terminate(i8* %62) #13, !dbg !4628
  unreachable, !dbg !4628

63:                                               ; preds = %45, %59
  call void @llvm.lifetime.end.p0i8(i64 24, i8* nonnull %8) #12, !dbg !4532
  call void @llvm.lifetime.end.p0i8(i64 8, i8* nonnull %7) #12, !dbg !4611
  ret void, !dbg !4611
}

; Function Attrs: noinline optnone sspstrong uwtable
define linkonce_odr dso_local void @_Z14args_base_readI10SecondsArgjEvP4ArgsPKciT_RT0_(%class.Args* %0, i8* %1, i32 %2, i64 %3, i32* dereferenceable(4) %4) local_unnamed_addr #7 comdat !dbg !4629 {
  %6 = alloca %class.SecondsArg, align 4
  %7 = alloca %class.Args*, align 8
  %8 = alloca i8*, align 8
  %9 = alloca i32, align 4
  %10 = alloca i32*, align 8
  %11 = alloca %class.SecondsArg, align 4
  %12 = bitcast %class.SecondsArg* %6 to i64*
  store i64 %3, i64* %12, align 4
  store %class.Args* %0, %class.Args** %7, align 8, !tbaa !3201
  call void @llvm.dbg.declare(metadata %class.Args** %7, metadata !4631, metadata !DIExpression()), !dbg !4636
  store i8* %1, i8** %8, align 8, !tbaa !3201
  call void @llvm.dbg.declare(metadata i8** %8, metadata !4632, metadata !DIExpression()), !dbg !4637
  store i32 %2, i32* %9, align 4, !tbaa !3197
  call void @llvm.dbg.declare(metadata i32* %9, metadata !4633, metadata !DIExpression()), !dbg !4638
  call void @llvm.dbg.declare(metadata %class.SecondsArg* %6, metadata !4634, metadata !DIExpression()), !dbg !4639
  store i32* %4, i32** %10, align 8, !tbaa !3201
  call void @llvm.dbg.declare(metadata i32** %10, metadata !4635, metadata !DIExpression()), !dbg !4640
  %13 = load %class.Args*, %class.Args** %7, align 8, !dbg !4641, !tbaa !3201
  %14 = load i8*, i8** %8, align 8, !dbg !4642, !tbaa !3201
  %15 = load i32, i32* %9, align 4, !dbg !4643, !tbaa !3197
  %16 = bitcast %class.SecondsArg* %11 to i8*, !dbg !4644
  %17 = bitcast %class.SecondsArg* %6 to i8*, !dbg !4644
  call void @llvm.memcpy.p0i8.p0i8.i64(i8* align 4 %16, i8* align 4 %17, i64 8, i1 false), !dbg !4644
  %18 = load i32*, i32** %10, align 8, !dbg !4645, !tbaa !3201
  %19 = bitcast %class.SecondsArg* %11 to i64*, !dbg !4646
  %20 = load i64, i64* %19, align 4, !dbg !4646
  call void @_ZN4Args9base_readI10SecondsArgjEEvPKciT_RT0_(%class.Args* %13, i8* %14, i32 %15, i64 %20, i32* dereferenceable(4) %18), !dbg !4646
  ret void, !dbg !4647
}

; Function Attrs: sspstrong uwtable
define linkonce_odr dso_local void @_ZN4Args9base_readI10SecondsArgjEEvPKciT_RT0_(%class.Args* %0, i8* %1, i32 %2, i64 %3, i32* dereferenceable(4) %4) local_unnamed_addr #0 comdat align 2 personality i8* bitcast (i32 (...)* @__gxx_personality_v0 to i8*) !dbg !4648 {
  %6 = alloca i64, align 8
  %7 = alloca %"struct.Args::Slot"*, align 8
  %8 = alloca %class.String, align 8
  call void @llvm.dbg.value(metadata i64 %3, metadata !4656, metadata !DIExpression()), !dbg !4663
  call void @llvm.dbg.value(metadata %class.Args* %0, metadata !4653, metadata !DIExpression()), !dbg !4663
  call void @llvm.dbg.value(metadata i8* %1, metadata !4654, metadata !DIExpression()), !dbg !4663
  call void @llvm.dbg.value(metadata i32 %2, metadata !4655, metadata !DIExpression()), !dbg !4663
  call void @llvm.dbg.value(metadata i32* %4, metadata !4657, metadata !DIExpression()), !dbg !4663
  %9 = bitcast %"struct.Args::Slot"** %7 to i8*, !dbg !4664
  call void @llvm.lifetime.start.p0i8(i64 8, i8* nonnull %9) #12, !dbg !4664
  %10 = bitcast %class.String* %8 to i8*, !dbg !4665
  call void @llvm.lifetime.start.p0i8(i64 24, i8* nonnull %10) #12, !dbg !4665
  call void @llvm.dbg.declare(metadata %class.String* %8, metadata !4659, metadata !DIExpression()), !dbg !4666
  call void @llvm.dbg.value(metadata %"struct.Args::Slot"** %7, metadata !4658, metadata !DIExpression(DW_OP_deref)), !dbg !4663
  call void @_ZN4Args4findEPKciRPNS_4SlotE(%class.String* nonnull sret %8, %class.Args* %0, i8* %1, i32 %2, %"struct.Args::Slot"** nonnull dereferenceable(8) %7), !dbg !4667
  call void @llvm.dbg.value(metadata %class.String* %8, metadata !4032, metadata !DIExpression()), !dbg !4668
  %11 = getelementptr inbounds %class.String, %class.String* %8, i64 0, i32 0, i32 1, !dbg !4670
  %12 = load i32, i32* %11, align 8, !dbg !4670, !tbaa !3466
  %13 = icmp eq i32 %12, 0, !dbg !4671
  %14 = select i1 %13, { i64, i64 } zeroinitializer, { i64, i64 } { i64 ptrtoint (i32 (%class.String*)* @_ZNK6String6lengthEv to i64), i64 0 }, !dbg !4672
  %15 = extractvalue { i64, i64 } %14, 0, !dbg !4666
  %16 = icmp eq i64 %15, 0, !dbg !4666
  br i1 %16, label %52, label %17, !dbg !4665

17:                                               ; preds = %5
  call void @llvm.dbg.value(metadata i32* %4, metadata !4673, metadata !DIExpression()), !dbg !4683
  call void @llvm.dbg.value(metadata %class.Args* %0, metadata !4682, metadata !DIExpression()), !dbg !4683
  call void @llvm.dbg.value(metadata %class.Args* %0, metadata !4685, metadata !DIExpression()), !dbg !4692
  call void @llvm.dbg.value(metadata i32* %4, metadata !4691, metadata !DIExpression()), !dbg !4692
  %18 = bitcast i32* %4 to i8*, !dbg !4694
  %19 = invoke i8* @_ZN4Args11simple_slotEPvm(%class.Args* nonnull %0, i8* nonnull %18, i64 4)
          to label %20 unwind label %32, !dbg !4696

20:                                               ; preds = %17
  call void @llvm.dbg.value(metadata i8* %19, metadata !4661, metadata !DIExpression()), !dbg !4697
  %21 = icmp eq i8* %19, null, !dbg !4698
  br i1 %21, label %29, label %22, !dbg !4699

22:                                               ; preds = %20
  %23 = bitcast i8* %19 to i32*, !dbg !4700
  call void @llvm.dbg.value(metadata i32* %23, metadata !4661, metadata !DIExpression()), !dbg !4697
  %24 = bitcast i64* %6 to i8*
  call void @llvm.lifetime.start.p0i8(i64 8, i8* nonnull %24)
  %25 = bitcast i64* %6 to %class.SecondsArg*
  store i64 %3, i64* %6, align 8
  call void @llvm.dbg.declare(metadata %class.SecondsArg* %25, metadata !4701, metadata !DIExpression()), !dbg !4710
  call void @llvm.dbg.value(metadata %class.String* %8, metadata !4707, metadata !DIExpression()), !dbg !4712
  call void @llvm.dbg.value(metadata i32* %23, metadata !4708, metadata !DIExpression()), !dbg !4712
  call void @llvm.dbg.value(metadata %class.Args* %0, metadata !4709, metadata !DIExpression()), !dbg !4712
  %26 = bitcast %class.Args* %0 to %class.ArgContext*, !dbg !4713
  %27 = invoke zeroext i1 @_ZN10SecondsArg5parseERK6StringRjRK10ArgContext(%class.SecondsArg* nonnull %25, %class.String* nonnull dereferenceable(24) %8, i32* nonnull dereferenceable(4) %23, %class.ArgContext* nonnull dereferenceable(32) %26)
          to label %28 unwind label %32, !dbg !4714

28:                                               ; preds = %22
  call void @llvm.lifetime.end.p0i8(i64 8, i8* nonnull %24), !dbg !4715
  br label %29, !dbg !4715

29:                                               ; preds = %28, %20
  %30 = phi i1 [ false, %20 ], [ %27, %28 ], !dbg !4697
  %31 = load %"struct.Args::Slot"*, %"struct.Args::Slot"** %7, align 8, !dbg !4716, !tbaa !3201
  call void @llvm.dbg.value(metadata %"struct.Args::Slot"* %31, metadata !4658, metadata !DIExpression()), !dbg !4663
  invoke void @_ZN4Args9postparseEbPNS_4SlotE(%class.Args* nonnull %0, i1 zeroext %30, %"struct.Args::Slot"* %31)
          to label %52 unwind label %32, !dbg !4717

32:                                               ; preds = %22, %17, %29
  %33 = landingpad { i8*, i32 }
          cleanup, !dbg !4718
  call void @llvm.dbg.value(metadata %class.String* %8, metadata !4073, metadata !DIExpression()) #12, !dbg !4719
  call void @llvm.dbg.value(metadata %class.String* %8, metadata !4078, metadata !DIExpression()) #12, !dbg !4721
  %34 = getelementptr inbounds %class.String, %class.String* %8, i64 0, i32 0, i32 2, !dbg !4723
  %35 = load %"struct.String::memo_t"*, %"struct.String::memo_t"** %34, align 8, !dbg !4723, !tbaa !3470
  %36 = icmp eq %"struct.String::memo_t"* %35, null, !dbg !4724
  br i1 %36, label %51, label %37, !dbg !4725

37:                                               ; preds = %32
  %38 = getelementptr inbounds %"struct.String::memo_t", %"struct.String::memo_t"* %35, i64 0, i32 0, !dbg !4726
  %39 = load volatile i32, i32* %38, align 4, !dbg !4726, !tbaa !4090
  %40 = icmp eq i32 %39, 0, !dbg !4726
  br i1 %40, label %41, label %42, !dbg !4726

41:                                               ; preds = %37
  call void @__assert_fail(i8* getelementptr inbounds ([18 x i8], [18 x i8]* @.str.21, i64 0, i64 0), i8* getelementptr inbounds ([29 x i8], [29 x i8]* @.str.22, i64 0, i64 0), i32 273, i8* getelementptr inbounds ([27 x i8], [27 x i8]* @__PRETTY_FUNCTION__._ZNK6String5derefEv, i64 0, i64 0)) #13, !dbg !4726
  unreachable, !dbg !4726

42:                                               ; preds = %37
  call void @llvm.dbg.value(metadata i32* %38, metadata !4092, metadata !DIExpression()) #12, !dbg !4727
  %43 = load volatile i32, i32* %38, align 4, !dbg !4729, !tbaa !3197
  %44 = add i32 %43, -1, !dbg !4729
  store volatile i32 %44, i32* %38, align 4, !dbg !4729, !tbaa !3197
  %45 = icmp eq i32 %44, 0, !dbg !4730
  br i1 %45, label %46, label %47, !dbg !4731

46:                                               ; preds = %42
  invoke void @_ZN6String11delete_memoEPNS_6memo_tE(%"struct.String::memo_t"* nonnull %35)
          to label %47 unwind label %48, !dbg !4732

47:                                               ; preds = %46, %42
  store %"struct.String::memo_t"* null, %"struct.String::memo_t"** %34, align 8, !dbg !4733, !tbaa !3470
  br label %51, !dbg !4734

48:                                               ; preds = %46
  %49 = landingpad { i8*, i32 }
          catch i8* null, !dbg !4735
  %50 = extractvalue { i8*, i32 } %49, 0, !dbg !4735
  call void @__clang_call_terminate(i8* %50) #13, !dbg !4735
  unreachable, !dbg !4735

51:                                               ; preds = %32, %47
  call void @llvm.lifetime.end.p0i8(i64 24, i8* nonnull %10) #12, !dbg !4665
  call void @llvm.lifetime.end.p0i8(i64 8, i8* nonnull %9) #12, !dbg !4736
  resume { i8*, i32 } %33, !dbg !4736

52:                                               ; preds = %29, %5
  call void @llvm.dbg.value(metadata %class.String* %8, metadata !4073, metadata !DIExpression()) #12, !dbg !4737
  call void @llvm.dbg.value(metadata %class.String* %8, metadata !4078, metadata !DIExpression()) #12, !dbg !4739
  %53 = getelementptr inbounds %class.String, %class.String* %8, i64 0, i32 0, i32 2, !dbg !4741
  %54 = load %"struct.String::memo_t"*, %"struct.String::memo_t"** %53, align 8, !dbg !4741, !tbaa !3470
  %55 = icmp eq %"struct.String::memo_t"* %54, null, !dbg !4742
  br i1 %55, label %70, label %56, !dbg !4743

56:                                               ; preds = %52
  %57 = getelementptr inbounds %"struct.String::memo_t", %"struct.String::memo_t"* %54, i64 0, i32 0, !dbg !4744
  %58 = load volatile i32, i32* %57, align 4, !dbg !4744, !tbaa !4090
  %59 = icmp eq i32 %58, 0, !dbg !4744
  br i1 %59, label %60, label %61, !dbg !4744

60:                                               ; preds = %56
  call void @__assert_fail(i8* getelementptr inbounds ([18 x i8], [18 x i8]* @.str.21, i64 0, i64 0), i8* getelementptr inbounds ([29 x i8], [29 x i8]* @.str.22, i64 0, i64 0), i32 273, i8* getelementptr inbounds ([27 x i8], [27 x i8]* @__PRETTY_FUNCTION__._ZNK6String5derefEv, i64 0, i64 0)) #13, !dbg !4744
  unreachable, !dbg !4744

61:                                               ; preds = %56
  call void @llvm.dbg.value(metadata i32* %57, metadata !4092, metadata !DIExpression()) #12, !dbg !4745
  %62 = load volatile i32, i32* %57, align 4, !dbg !4747, !tbaa !3197
  %63 = add i32 %62, -1, !dbg !4747
  store volatile i32 %63, i32* %57, align 4, !dbg !4747, !tbaa !3197
  %64 = icmp eq i32 %63, 0, !dbg !4748
  br i1 %64, label %65, label %66, !dbg !4749

65:                                               ; preds = %61
  invoke void @_ZN6String11delete_memoEPNS_6memo_tE(%"struct.String::memo_t"* nonnull %54)
          to label %66 unwind label %67, !dbg !4750

66:                                               ; preds = %65, %61
  store %"struct.String::memo_t"* null, %"struct.String::memo_t"** %53, align 8, !dbg !4751, !tbaa !3470
  br label %70, !dbg !4752

67:                                               ; preds = %65
  %68 = landingpad { i8*, i32 }
          catch i8* null, !dbg !4753
  %69 = extractvalue { i8*, i32 } %68, 0, !dbg !4753
  call void @__clang_call_terminate(i8* %69) #13, !dbg !4753
  unreachable, !dbg !4753

70:                                               ; preds = %52, %66
  call void @llvm.lifetime.end.p0i8(i64 24, i8* nonnull %10) #12, !dbg !4665
  call void @llvm.lifetime.end.p0i8(i64 8, i8* nonnull %9) #12, !dbg !4736
  ret void, !dbg !4736
}

declare zeroext i1 @_ZN10SecondsArg5parseERK6StringRjRK10ArgContext(%class.SecondsArg*, %class.String* dereferenceable(24), i32* dereferenceable(4), %class.ArgContext* dereferenceable(32)) local_unnamed_addr #2

; Function Attrs: nounwind readnone speculatable willreturn
declare void @llvm.dbg.value(metadata, metadata, metadata) #1

; Function Attrs: nounwind readnone speculatable willreturn
declare i16 @llvm.bswap.i16(i16) #1

attributes #0 = { sspstrong uwtable "correctly-rounded-divide-sqrt-fp-math"="false" "disable-tail-calls"="false" "frame-pointer"="none" "less-precise-fpmad"="false" "min-legal-vector-width"="0" "no-infs-fp-math"="false" "no-jump-tables"="false" "no-nans-fp-math"="false" "no-signed-zeros-fp-math"="false" "no-trapping-math"="false" "stack-protector-buffer-size"="8" "target-cpu"="x86-64" "target-features"="+cx8,+fxsr,+mmx,+sse,+sse2,+x87" "unsafe-fp-math"="false" "use-soft-float"="false" }
attributes #1 = { nounwind readnone speculatable willreturn }
attributes #2 = { "correctly-rounded-divide-sqrt-fp-math"="false" "disable-tail-calls"="false" "frame-pointer"="none" "less-precise-fpmad"="false" "no-infs-fp-math"="false" "no-nans-fp-math"="false" "no-signed-zeros-fp-math"="false" "no-trapping-math"="false" "stack-protector-buffer-size"="8" "target-cpu"="x86-64" "target-features"="+cx8,+fxsr,+mmx,+sse,+sse2,+x87" "unsafe-fp-math"="false" "use-soft-float"="false" }
attributes #3 = { nounwind "correctly-rounded-divide-sqrt-fp-math"="false" "disable-tail-calls"="false" "frame-pointer"="none" "less-precise-fpmad"="false" "no-infs-fp-math"="false" "no-nans-fp-math"="false" "no-signed-zeros-fp-math"="false" "no-trapping-math"="false" "stack-protector-buffer-size"="8" "target-cpu"="x86-64" "target-features"="+cx8,+fxsr,+mmx,+sse,+sse2,+x87" "unsafe-fp-math"="false" "use-soft-float"="false" }
attributes #4 = { nounwind sspstrong uwtable "correctly-rounded-divide-sqrt-fp-math"="false" "disable-tail-calls"="false" "frame-pointer"="none" "less-precise-fpmad"="false" "min-legal-vector-width"="0" "no-infs-fp-math"="false" "no-jump-tables"="false" "no-nans-fp-math"="false" "no-signed-zeros-fp-math"="false" "no-trapping-math"="false" "stack-protector-buffer-size"="8" "target-cpu"="x86-64" "target-features"="+cx8,+fxsr,+mmx,+sse,+sse2,+x87" "unsafe-fp-math"="false" "use-soft-float"="false" }
attributes #5 = { nobuiltin nounwind "correctly-rounded-divide-sqrt-fp-math"="false" "disable-tail-calls"="false" "frame-pointer"="none" "less-precise-fpmad"="false" "no-infs-fp-math"="false" "no-nans-fp-math"="false" "no-signed-zeros-fp-math"="false" "no-trapping-math"="false" "stack-protector-buffer-size"="8" "target-cpu"="x86-64" "target-features"="+cx8,+fxsr,+mmx,+sse,+sse2,+x87" "unsafe-fp-math"="false" "use-soft-float"="false" }
attributes #6 = { argmemonly nounwind willreturn }
attributes #7 = { noinline optnone sspstrong uwtable "correctly-rounded-divide-sqrt-fp-math"="false" "disable-tail-calls"="false" "frame-pointer"="none" "less-precise-fpmad"="false" "min-legal-vector-width"="0" "no-infs-fp-math"="false" "no-jump-tables"="false" "no-nans-fp-math"="false" "no-signed-zeros-fp-math"="false" "no-trapping-math"="false" "stack-protector-buffer-size"="8" "target-cpu"="x86-64" "target-features"="+cx8,+fxsr,+mmx,+sse,+sse2,+x87" "unsafe-fp-math"="false" "use-soft-float"="false" }
attributes #8 = { noinline noreturn nounwind }
attributes #9 = { noreturn nounwind "correctly-rounded-divide-sqrt-fp-math"="false" "disable-tail-calls"="false" "frame-pointer"="none" "less-precise-fpmad"="false" "no-infs-fp-math"="false" "no-nans-fp-math"="false" "no-signed-zeros-fp-math"="false" "no-trapping-math"="false" "stack-protector-buffer-size"="8" "target-cpu"="x86-64" "target-features"="+cx8,+fxsr,+mmx,+sse,+sse2,+x87" "unsafe-fp-math"="false" "use-soft-float"="false" }
attributes #10 = { noinline nounwind optnone sspstrong uwtable "correctly-rounded-divide-sqrt-fp-math"="false" "disable-tail-calls"="false" "frame-pointer"="none" "less-precise-fpmad"="false" "min-legal-vector-width"="0" "no-infs-fp-math"="false" "no-jump-tables"="false" "no-nans-fp-math"="false" "no-signed-zeros-fp-math"="false" "no-trapping-math"="false" "stack-protector-buffer-size"="8" "target-cpu"="x86-64" "target-features"="+cx8,+fxsr,+mmx,+sse,+sse2,+x87" "unsafe-fp-math"="false" "use-soft-float"="false" }
attributes #11 = { inlinehint nounwind sspstrong uwtable "correctly-rounded-divide-sqrt-fp-math"="false" "disable-tail-calls"="false" "frame-pointer"="none" "less-precise-fpmad"="false" "min-legal-vector-width"="0" "no-infs-fp-math"="false" "no-jump-tables"="false" "no-nans-fp-math"="false" "no-signed-zeros-fp-math"="false" "no-trapping-math"="false" "stack-protector-buffer-size"="8" "target-cpu"="x86-64" "target-features"="+cx8,+fxsr,+mmx,+sse,+sse2,+x87" "unsafe-fp-math"="false" "use-soft-float"="false" }
attributes #12 = { nounwind }
attributes #13 = { noreturn nounwind }
attributes #14 = { builtin nounwind }

!llvm.dbg.cu = !{!2}
!llvm.module.flags = !{!2831, !2832, !2833, !2834, !2835}
!llvm.ident = !{!2836}

!0 = !DIGlobalVariableExpression(var: !1, expr: !DIExpression())
!1 = distinct !DIGlobalVariable(name: "default_destination", linkageName: "_ZL19default_destination", scope: !2, file: !3, line: 27, type: !2830, isLocal: true, isDefinition: true)
!2 = distinct !DICompileUnit(language: DW_LANG_C_plus_plus_14, file: !3, producer: "clang version 10.0.0 ", isOptimized: true, runtimeVersion: 0, emissionKind: FullDebug, enums: !4, retainedTypes: !1674, globals: !2209, imports: !2210, splitDebugInlining: false, nameTableKind: None)
!3 = !DIFile(filename: "../elements/ethernet/etherpausesource.cc", directory: "/home/john/projects/click/ir-dir")
!4 = !{!5, !865, !1170, !1182, !1550, !1650, !1654, !1665}
!5 = !DICompositeType(tag: DW_TAG_enumeration_type, name: "PacketType", scope: !7, file: !6, line: 368, baseType: !18, size: 32, elements: !1162, identifier: "_ZTSN6Packet10PacketTypeE")
!6 = !DIFile(filename: "../dummy_inc/click/packet.hh", directory: "/home/john/projects/click/ir-dir")
!7 = distinct !DICompositeType(tag: DW_TAG_class_type, name: "Packet", file: !6, line: 35, size: 1344, flags: DIFlagTypePassByReference | DIFlagNonTrivial, elements: !8, identifier: "_ZTS6Packet")
!8 = !{!9, !79, !81, !84, !85, !86, !87, !130, !138, !139, !234, !237, !240, !243, !246, !250, !254, !257, !260, !265, !266, !269, !270, !271, !272, !273, !274, !277, !280, !283, !284, !287, !288, !291, !294, !295, !296, !297, !300, !303, !306, !309, !310, !311, !314, !315, !316, !319, !320, !321, !322, !323, !324, !325, !326, !327, !328, !329, !330, !331, !332, !333, !334, !339, !342, !347, !348, !349, !352, !357, !358, !359, !362, !365, !370, !375, !380, !385, !389, !906, !910, !913, !919, !922, !925, !928, !931, !935, !938, !939, !940, !941, !1031, !1034, !1035, !1038, !1042, !1047, !1051, !1056, !1059, !1062, !1065, !1068, !1074, !1077, !1080, !1083, !1086, !1089, !1092, !1095, !1098, !1101, !1102, !1105, !1109, !1110, !1111, !1112, !1113, !1114, !1115, !1116, !1117, !1118, !1119, !1120, !1121, !1122, !1123, !1124, !1125, !1126, !1127, !1128, !1129, !1130, !1131, !1132, !1133, !1134, !1135, !1136, !1137, !1138, !1139, !1140, !1141, !1142, !1143, !1146, !1147, !1151, !1154, !1157, !1160, !1161}
!9 = !DIDerivedType(tag: DW_TAG_member, name: "_use_count", scope: !7, file: !6, line: 731, baseType: !10, size: 32)
!10 = distinct !DICompositeType(tag: DW_TAG_class_type, name: "atomic_uint32_t", file: !11, line: 52, size: 32, flags: DIFlagTypePassByValue, elements: !12, identifier: "_ZTS15atomic_uint32_t")
!11 = !DIFile(filename: "../dummy_inc/click/atomic.hh", directory: "/home/john/projects/click/ir-dir")
!12 = !{!13, !19, !24, !25, !30, !37, !38, !39, !40, !43, !46, !47, !48, !51, !52, !56, !59, !62, !67, !70, !73, !76}
!13 = !DIDerivedType(tag: DW_TAG_member, name: "_val", scope: !10, file: !11, line: 91, baseType: !14, size: 32)
!14 = !DIDerivedType(tag: DW_TAG_typedef, name: "uint32_t", file: !15, line: 26, baseType: !16)
!15 = !DIFile(filename: "/usr/include/bits/stdint-uintn.h", directory: "")
!16 = !DIDerivedType(tag: DW_TAG_typedef, name: "__uint32_t", file: !17, line: 42, baseType: !18)
!17 = !DIFile(filename: "/usr/include/bits/types.h", directory: "")
!18 = !DIBasicType(name: "unsigned int", size: 32, encoding: DW_ATE_unsigned)
!19 = !DISubprogram(name: "value", linkageName: "_ZNK15atomic_uint32_t5valueEv", scope: !10, file: !11, line: 57, type: !20, scopeLine: 57, flags: DIFlagPublic | DIFlagPrototyped, spFlags: DISPFlagOptimized)
!20 = !DISubroutineType(types: !21)
!21 = !{!14, !22}
!22 = !DIDerivedType(tag: DW_TAG_pointer_type, baseType: !23, size: 64, flags: DIFlagArtificial | DIFlagObjectPointer)
!23 = !DIDerivedType(tag: DW_TAG_const_type, baseType: !10)
!24 = !DISubprogram(name: "operator unsigned int", linkageName: "_ZNK15atomic_uint32_tcvjEv", scope: !10, file: !11, line: 58, type: !20, scopeLine: 58, flags: DIFlagPublic | DIFlagPrototyped, spFlags: DISPFlagOptimized)
!25 = !DISubprogram(name: "operator=", linkageName: "_ZN15atomic_uint32_taSEj", scope: !10, file: !11, line: 60, type: !26, scopeLine: 60, flags: DIFlagPublic | DIFlagPrototyped, spFlags: DISPFlagOptimized)
!26 = !DISubroutineType(types: !27)
!27 = !{!28, !29, !14}
!28 = !DIDerivedType(tag: DW_TAG_reference_type, baseType: !10, size: 64)
!29 = !DIDerivedType(tag: DW_TAG_pointer_type, baseType: !10, size: 64, flags: DIFlagArtificial | DIFlagObjectPointer)
!30 = !DISubprogram(name: "operator+=", linkageName: "_ZN15atomic_uint32_tpLEi", scope: !10, file: !11, line: 62, type: !31, scopeLine: 62, flags: DIFlagPublic | DIFlagPrototyped, spFlags: DISPFlagOptimized)
!31 = !DISubroutineType(types: !32)
!32 = !{!28, !29, !33}
!33 = !DIDerivedType(tag: DW_TAG_typedef, name: "int32_t", file: !34, line: 26, baseType: !35)
!34 = !DIFile(filename: "/usr/include/bits/stdint-intn.h", directory: "")
!35 = !DIDerivedType(tag: DW_TAG_typedef, name: "__int32_t", file: !17, line: 41, baseType: !36)
!36 = !DIBasicType(name: "int", size: 32, encoding: DW_ATE_signed)
!37 = !DISubprogram(name: "operator-=", linkageName: "_ZN15atomic_uint32_tmIEi", scope: !10, file: !11, line: 63, type: !31, scopeLine: 63, flags: DIFlagPublic | DIFlagPrototyped, spFlags: DISPFlagOptimized)
!38 = !DISubprogram(name: "operator|=", linkageName: "_ZN15atomic_uint32_toREj", scope: !10, file: !11, line: 64, type: !26, scopeLine: 64, flags: DIFlagPublic | DIFlagPrototyped, spFlags: DISPFlagOptimized)
!39 = !DISubprogram(name: "operator&=", linkageName: "_ZN15atomic_uint32_taNEj", scope: !10, file: !11, line: 65, type: !26, scopeLine: 65, flags: DIFlagPublic | DIFlagPrototyped, spFlags: DISPFlagOptimized)
!40 = !DISubprogram(name: "operator++", linkageName: "_ZN15atomic_uint32_tppEv", scope: !10, file: !11, line: 67, type: !41, scopeLine: 67, flags: DIFlagPublic | DIFlagPrototyped, spFlags: DISPFlagOptimized)
!41 = !DISubroutineType(types: !42)
!42 = !{null, !29}
!43 = !DISubprogram(name: "operator++", linkageName: "_ZN15atomic_uint32_tppEi", scope: !10, file: !11, line: 68, type: !44, scopeLine: 68, flags: DIFlagPublic | DIFlagPrototyped, spFlags: DISPFlagOptimized)
!44 = !DISubroutineType(types: !45)
!45 = !{null, !29, !36}
!46 = !DISubprogram(name: "operator--", linkageName: "_ZN15atomic_uint32_tmmEv", scope: !10, file: !11, line: 69, type: !41, scopeLine: 69, flags: DIFlagPublic | DIFlagPrototyped, spFlags: DISPFlagOptimized)
!47 = !DISubprogram(name: "operator--", linkageName: "_ZN15atomic_uint32_tmmEi", scope: !10, file: !11, line: 70, type: !44, scopeLine: 70, flags: DIFlagPublic | DIFlagPrototyped, spFlags: DISPFlagOptimized)
!48 = !DISubprogram(name: "swap", linkageName: "_ZN15atomic_uint32_t4swapEj", scope: !10, file: !11, line: 72, type: !49, scopeLine: 72, flags: DIFlagPublic | DIFlagPrototyped, spFlags: DISPFlagOptimized)
!49 = !DISubroutineType(types: !50)
!50 = !{!14, !29, !14}
!51 = !DISubprogram(name: "fetch_and_add", linkageName: "_ZN15atomic_uint32_t13fetch_and_addEj", scope: !10, file: !11, line: 73, type: !49, scopeLine: 73, flags: DIFlagPublic | DIFlagPrototyped, spFlags: DISPFlagOptimized)
!52 = !DISubprogram(name: "dec_and_test", linkageName: "_ZN15atomic_uint32_t12dec_and_testEv", scope: !10, file: !11, line: 74, type: !53, scopeLine: 74, flags: DIFlagPublic | DIFlagPrototyped, spFlags: DISPFlagOptimized)
!53 = !DISubroutineType(types: !54)
!54 = !{!55, !29}
!55 = !DIBasicType(name: "bool", size: 8, encoding: DW_ATE_boolean)
!56 = !DISubprogram(name: "compare_swap", linkageName: "_ZN15atomic_uint32_t12compare_swapEjj", scope: !10, file: !11, line: 75, type: !57, scopeLine: 75, flags: DIFlagPublic | DIFlagPrototyped, spFlags: DISPFlagOptimized)
!57 = !DISubroutineType(types: !58)
!58 = !{!14, !29, !14, !14}
!59 = !DISubprogram(name: "compare_and_swap", linkageName: "_ZN15atomic_uint32_t16compare_and_swapEjj", scope: !10, file: !11, line: 76, type: !60, scopeLine: 76, flags: DIFlagPublic | DIFlagPrototyped, spFlags: DISPFlagOptimized)
!60 = !DISubroutineType(types: !61)
!61 = !{!55, !29, !14, !14}
!62 = !DISubprogram(name: "swap", linkageName: "_ZN15atomic_uint32_t4swapERVjj", scope: !10, file: !11, line: 78, type: !63, scopeLine: 78, flags: DIFlagPublic | DIFlagPrototyped | DIFlagStaticMember, spFlags: DISPFlagOptimized)
!63 = !DISubroutineType(types: !64)
!64 = !{!14, !65, !14}
!65 = !DIDerivedType(tag: DW_TAG_reference_type, baseType: !66, size: 64)
!66 = !DIDerivedType(tag: DW_TAG_volatile_type, baseType: !14)
!67 = !DISubprogram(name: "inc", linkageName: "_ZN15atomic_uint32_t3incERVj", scope: !10, file: !11, line: 79, type: !68, scopeLine: 79, flags: DIFlagPublic | DIFlagPrototyped | DIFlagStaticMember, spFlags: DISPFlagOptimized)
!68 = !DISubroutineType(types: !69)
!69 = !{null, !65}
!70 = !DISubprogram(name: "dec_and_test", linkageName: "_ZN15atomic_uint32_t12dec_and_testERVj", scope: !10, file: !11, line: 80, type: !71, scopeLine: 80, flags: DIFlagPublic | DIFlagPrototyped | DIFlagStaticMember, spFlags: DISPFlagOptimized)
!71 = !DISubroutineType(types: !72)
!72 = !{!55, !65}
!73 = !DISubprogram(name: "compare_swap", linkageName: "_ZN15atomic_uint32_t12compare_swapERVjjj", scope: !10, file: !11, line: 81, type: !74, scopeLine: 81, flags: DIFlagPublic | DIFlagPrototyped | DIFlagStaticMember, spFlags: DISPFlagOptimized)
!74 = !DISubroutineType(types: !75)
!75 = !{!14, !65, !14, !14}
!76 = !DISubprogram(name: "compare_and_swap", linkageName: "_ZN15atomic_uint32_t16compare_and_swapERVjjj", scope: !10, file: !11, line: 82, type: !77, scopeLine: 82, flags: DIFlagPublic | DIFlagPrototyped | DIFlagStaticMember, spFlags: DISPFlagOptimized)
!77 = !DISubroutineType(types: !78)
!78 = !{!55, !65, !14, !14}
!79 = !DIDerivedType(tag: DW_TAG_member, name: "_data_packet", scope: !7, file: !6, line: 732, baseType: !80, size: 64, offset: 64)
!80 = !DIDerivedType(tag: DW_TAG_pointer_type, baseType: !7, size: 64)
!81 = !DIDerivedType(tag: DW_TAG_member, name: "_head", scope: !7, file: !6, line: 734, baseType: !82, size: 64, offset: 128)
!82 = !DIDerivedType(tag: DW_TAG_pointer_type, baseType: !83, size: 64)
!83 = !DIBasicType(name: "unsigned char", size: 8, encoding: DW_ATE_unsigned_char)
!84 = !DIDerivedType(tag: DW_TAG_member, name: "_data", scope: !7, file: !6, line: 735, baseType: !82, size: 64, offset: 192)
!85 = !DIDerivedType(tag: DW_TAG_member, name: "_tail", scope: !7, file: !6, line: 736, baseType: !82, size: 64, offset: 256)
!86 = !DIDerivedType(tag: DW_TAG_member, name: "_end", scope: !7, file: !6, line: 737, baseType: !82, size: 64, offset: 320)
!87 = !DIDerivedType(tag: DW_TAG_member, name: "_aa", scope: !7, file: !6, line: 741, baseType: !88, size: 832, offset: 384)
!88 = distinct !DICompositeType(tag: DW_TAG_structure_type, name: "AllAnno", scope: !7, file: !6, line: 716, size: 832, flags: DIFlagTypePassByValue, elements: !89, identifier: "_ZTSN6Packet7AllAnnoE")
!89 = !{!90, !120, !121, !122, !123, !124, !128, !129}
!90 = !DIDerivedType(tag: DW_TAG_member, name: "cb", scope: !88, file: !6, line: 717, baseType: !91, size: 384)
!91 = distinct !DICompositeType(tag: DW_TAG_union_type, name: "Anno", scope: !7, file: !6, line: 702, size: 384, flags: DIFlagTypePassByValue, elements: !92, identifier: "_ZTSN6Packet4AnnoE")
!92 = !{!93, !98, !102, !109, !113}
!93 = !DIDerivedType(tag: DW_TAG_member, name: "c", scope: !91, file: !6, line: 703, baseType: !94, size: 384)
!94 = !DICompositeType(tag: DW_TAG_array_type, baseType: !95, size: 384, elements: !96)
!95 = !DIBasicType(name: "char", size: 8, encoding: DW_ATE_signed_char)
!96 = !{!97}
!97 = !DISubrange(count: 48)
!98 = !DIDerivedType(tag: DW_TAG_member, name: "u8", scope: !91, file: !6, line: 704, baseType: !99, size: 384)
!99 = !DICompositeType(tag: DW_TAG_array_type, baseType: !100, size: 384, elements: !96)
!100 = !DIDerivedType(tag: DW_TAG_typedef, name: "uint8_t", file: !15, line: 24, baseType: !101)
!101 = !DIDerivedType(tag: DW_TAG_typedef, name: "__uint8_t", file: !17, line: 38, baseType: !83)
!102 = !DIDerivedType(tag: DW_TAG_member, name: "u16", scope: !91, file: !6, line: 705, baseType: !103, size: 384)
!103 = !DICompositeType(tag: DW_TAG_array_type, baseType: !104, size: 384, elements: !107)
!104 = !DIDerivedType(tag: DW_TAG_typedef, name: "uint16_t", file: !15, line: 25, baseType: !105)
!105 = !DIDerivedType(tag: DW_TAG_typedef, name: "__uint16_t", file: !17, line: 40, baseType: !106)
!106 = !DIBasicType(name: "unsigned short", size: 16, encoding: DW_ATE_unsigned)
!107 = !{!108}
!108 = !DISubrange(count: 24)
!109 = !DIDerivedType(tag: DW_TAG_member, name: "u32", scope: !91, file: !6, line: 706, baseType: !110, size: 384)
!110 = !DICompositeType(tag: DW_TAG_array_type, baseType: !14, size: 384, elements: !111)
!111 = !{!112}
!112 = !DISubrange(count: 12)
!113 = !DIDerivedType(tag: DW_TAG_member, name: "u64", scope: !91, file: !6, line: 708, baseType: !114, size: 384)
!114 = !DICompositeType(tag: DW_TAG_array_type, baseType: !115, size: 384, elements: !118)
!115 = !DIDerivedType(tag: DW_TAG_typedef, name: "uint64_t", file: !15, line: 27, baseType: !116)
!116 = !DIDerivedType(tag: DW_TAG_typedef, name: "__uint64_t", file: !17, line: 45, baseType: !117)
!117 = !DIBasicType(name: "long unsigned int", size: 64, encoding: DW_ATE_unsigned)
!118 = !{!119}
!119 = !DISubrange(count: 6)
!120 = !DIDerivedType(tag: DW_TAG_member, name: "mac", scope: !88, file: !6, line: 718, baseType: !82, size: 64, offset: 384)
!121 = !DIDerivedType(tag: DW_TAG_member, name: "nh", scope: !88, file: !6, line: 719, baseType: !82, size: 64, offset: 448)
!122 = !DIDerivedType(tag: DW_TAG_member, name: "h", scope: !88, file: !6, line: 720, baseType: !82, size: 64, offset: 512)
!123 = !DIDerivedType(tag: DW_TAG_member, name: "pkt_type", scope: !88, file: !6, line: 721, baseType: !5, size: 32, offset: 576)
!124 = !DIDerivedType(tag: DW_TAG_member, name: "timestamp", scope: !88, file: !6, line: 722, baseType: !125, size: 64, offset: 608)
!125 = !DICompositeType(tag: DW_TAG_array_type, baseType: !95, size: 64, elements: !126)
!126 = !{!127}
!127 = !DISubrange(count: 8)
!128 = !DIDerivedType(tag: DW_TAG_member, name: "next", scope: !88, file: !6, line: 723, baseType: !80, size: 64, offset: 704)
!129 = !DIDerivedType(tag: DW_TAG_member, name: "prev", scope: !88, file: !6, line: 724, baseType: !80, size: 64, offset: 768)
!130 = !DIDerivedType(tag: DW_TAG_member, name: "_destructor", scope: !7, file: !6, line: 746, baseType: !131, size: 64, offset: 1216)
!131 = !DIDerivedType(tag: DW_TAG_typedef, name: "buffer_destructor_type", scope: !7, file: !6, line: 65, baseType: !132)
!132 = !DIDerivedType(tag: DW_TAG_pointer_type, baseType: !133, size: 64)
!133 = !DISubroutineType(types: !134)
!134 = !{null, !82, !135, !137}
!135 = !DIDerivedType(tag: DW_TAG_typedef, name: "size_t", file: !136, line: 46, baseType: !117)
!136 = !DIFile(filename: "/usr/lib/clang/10.0.0/include/stddef.h", directory: "")
!137 = !DIDerivedType(tag: DW_TAG_pointer_type, baseType: null, size: 64)
!138 = !DIDerivedType(tag: DW_TAG_member, name: "_destructor_argument", scope: !7, file: !6, line: 747, baseType: !137, size: 64, offset: 1280)
!139 = !DISubprogram(name: "make", linkageName: "_ZN6Packet4makeEjPKvjj", scope: !7, file: !6, line: 52, type: !140, scopeLine: 52, flags: DIFlagPublic | DIFlagPrototyped | DIFlagStaticMember, spFlags: DISPFlagOptimized)
!140 = !DISubroutineType(types: !141)
!141 = !{!142, !14, !232, !14, !14}
!142 = !DIDerivedType(tag: DW_TAG_pointer_type, baseType: !143, size: 64)
!143 = distinct !DICompositeType(tag: DW_TAG_class_type, name: "WritablePacket", file: !6, line: 778, size: 1344, flags: DIFlagTypePassByReference | DIFlagNonTrivial, elements: !144, identifier: "_ZTS14WritablePacket")
!144 = !{!145, !146, !151, !152, !153, !154, !155, !166, !167, !190, !195, !196, !201, !206, !211, !212, !216, !217, !222, !223, !226, !229}
!145 = !DIDerivedType(tag: DW_TAG_inheritance, scope: !143, baseType: !7, flags: DIFlagPublic, extraData: i32 0)
!146 = !DISubprogram(name: "data", linkageName: "_ZNK14WritablePacket4dataEv", scope: !143, file: !6, line: 780, type: !147, scopeLine: 780, flags: DIFlagPublic | DIFlagPrototyped, spFlags: DISPFlagOptimized)
!147 = !DISubroutineType(types: !148)
!148 = !{!82, !149}
!149 = !DIDerivedType(tag: DW_TAG_pointer_type, baseType: !150, size: 64, flags: DIFlagArtificial | DIFlagObjectPointer)
!150 = !DIDerivedType(tag: DW_TAG_const_type, baseType: !143)
!151 = !DISubprogram(name: "end_data", linkageName: "_ZNK14WritablePacket8end_dataEv", scope: !143, file: !6, line: 781, type: !147, scopeLine: 781, flags: DIFlagPublic | DIFlagPrototyped, spFlags: DISPFlagOptimized)
!152 = !DISubprogram(name: "buffer", linkageName: "_ZNK14WritablePacket6bufferEv", scope: !143, file: !6, line: 782, type: !147, scopeLine: 782, flags: DIFlagPublic | DIFlagPrototyped, spFlags: DISPFlagOptimized)
!153 = !DISubprogram(name: "end_buffer", linkageName: "_ZNK14WritablePacket10end_bufferEv", scope: !143, file: !6, line: 783, type: !147, scopeLine: 783, flags: DIFlagPublic | DIFlagPrototyped, spFlags: DISPFlagOptimized)
!154 = !DISubprogram(name: "mac_header", linkageName: "_ZNK14WritablePacket10mac_headerEv", scope: !143, file: !6, line: 784, type: !147, scopeLine: 784, flags: DIFlagPublic | DIFlagPrototyped, spFlags: DISPFlagOptimized)
!155 = !DISubprogram(name: "ether_header", linkageName: "_ZNK14WritablePacket12ether_headerEv", scope: !143, file: !6, line: 785, type: !156, scopeLine: 785, flags: DIFlagPublic | DIFlagPrototyped, spFlags: DISPFlagOptimized)
!156 = !DISubroutineType(types: !157)
!157 = !{!158, !149}
!158 = !DIDerivedType(tag: DW_TAG_pointer_type, baseType: !159, size: 64)
!159 = distinct !DICompositeType(tag: DW_TAG_structure_type, name: "click_ether", file: !160, line: 17, size: 112, flags: DIFlagTypePassByValue, elements: !161, identifier: "_ZTS11click_ether")
!160 = !DIFile(filename: "../dummy_inc/clicknet/ether.h", directory: "/home/john/projects/click/ir-dir")
!161 = !{!162, !164, !165}
!162 = !DIDerivedType(tag: DW_TAG_member, name: "ether_dhost", scope: !159, file: !160, line: 18, baseType: !163, size: 48)
!163 = !DICompositeType(tag: DW_TAG_array_type, baseType: !100, size: 48, elements: !118)
!164 = !DIDerivedType(tag: DW_TAG_member, name: "ether_shost", scope: !159, file: !160, line: 19, baseType: !163, size: 48, offset: 48)
!165 = !DIDerivedType(tag: DW_TAG_member, name: "ether_type", scope: !159, file: !160, line: 20, baseType: !104, size: 16, offset: 96)
!166 = !DISubprogram(name: "network_header", linkageName: "_ZNK14WritablePacket14network_headerEv", scope: !143, file: !6, line: 786, type: !147, scopeLine: 786, flags: DIFlagPublic | DIFlagPrototyped, spFlags: DISPFlagOptimized)
!167 = !DISubprogram(name: "ip_header", linkageName: "_ZNK14WritablePacket9ip_headerEv", scope: !143, file: !6, line: 787, type: !168, scopeLine: 787, flags: DIFlagPublic | DIFlagPrototyped, spFlags: DISPFlagOptimized)
!168 = !DISubroutineType(types: !169)
!169 = !{!170, !149}
!170 = !DIDerivedType(tag: DW_TAG_pointer_type, baseType: !171, size: 64)
!171 = distinct !DICompositeType(tag: DW_TAG_structure_type, name: "click_ip", file: !172, line: 23, size: 160, flags: DIFlagTypePassByValue, elements: !173, identifier: "_ZTS8click_ip")
!172 = !DIFile(filename: "../dummy_inc/clicknet/ip.h", directory: "/home/john/projects/click/ir-dir")
!173 = !{!174, !175, !176, !177, !178, !179, !180, !181, !182, !183, !189}
!174 = !DIDerivedType(tag: DW_TAG_member, name: "ip_hl", scope: !171, file: !172, line: 28, baseType: !18, size: 4, flags: DIFlagBitField, extraData: i64 0)
!175 = !DIDerivedType(tag: DW_TAG_member, name: "ip_v", scope: !171, file: !172, line: 29, baseType: !18, size: 4, offset: 4, flags: DIFlagBitField, extraData: i64 0)
!176 = !DIDerivedType(tag: DW_TAG_member, name: "ip_tos", scope: !171, file: !172, line: 33, baseType: !100, size: 8, offset: 8)
!177 = !DIDerivedType(tag: DW_TAG_member, name: "ip_len", scope: !171, file: !172, line: 40, baseType: !104, size: 16, offset: 16)
!178 = !DIDerivedType(tag: DW_TAG_member, name: "ip_id", scope: !171, file: !172, line: 41, baseType: !104, size: 16, offset: 32)
!179 = !DIDerivedType(tag: DW_TAG_member, name: "ip_off", scope: !171, file: !172, line: 42, baseType: !104, size: 16, offset: 48)
!180 = !DIDerivedType(tag: DW_TAG_member, name: "ip_ttl", scope: !171, file: !172, line: 47, baseType: !100, size: 8, offset: 64)
!181 = !DIDerivedType(tag: DW_TAG_member, name: "ip_p", scope: !171, file: !172, line: 48, baseType: !100, size: 8, offset: 72)
!182 = !DIDerivedType(tag: DW_TAG_member, name: "ip_sum", scope: !171, file: !172, line: 49, baseType: !104, size: 16, offset: 80)
!183 = !DIDerivedType(tag: DW_TAG_member, name: "ip_src", scope: !171, file: !172, line: 50, baseType: !184, size: 32, offset: 96)
!184 = distinct !DICompositeType(tag: DW_TAG_structure_type, name: "in_addr", file: !185, line: 31, size: 32, flags: DIFlagTypePassByValue, elements: !186, identifier: "_ZTS7in_addr")
!185 = !DIFile(filename: "/usr/include/netinet/in.h", directory: "")
!186 = !{!187}
!187 = !DIDerivedType(tag: DW_TAG_member, name: "s_addr", scope: !184, file: !185, line: 33, baseType: !188, size: 32)
!188 = !DIDerivedType(tag: DW_TAG_typedef, name: "in_addr_t", file: !185, line: 30, baseType: !14)
!189 = !DIDerivedType(tag: DW_TAG_member, name: "ip_dst", scope: !171, file: !172, line: 51, baseType: !184, size: 32, offset: 128)
!190 = !DISubprogram(name: "ip6_header", linkageName: "_ZNK14WritablePacket10ip6_headerEv", scope: !143, file: !6, line: 788, type: !191, scopeLine: 788, flags: DIFlagPublic | DIFlagPrototyped, spFlags: DISPFlagOptimized)
!191 = !DISubroutineType(types: !192)
!192 = !{!193, !149}
!193 = !DIDerivedType(tag: DW_TAG_pointer_type, baseType: !194, size: 64)
!194 = !DICompositeType(tag: DW_TAG_structure_type, name: "click_ip6", file: !6, line: 27, flags: DIFlagFwdDecl, identifier: "_ZTS9click_ip6")
!195 = !DISubprogram(name: "transport_header", linkageName: "_ZNK14WritablePacket16transport_headerEv", scope: !143, file: !6, line: 789, type: !147, scopeLine: 789, flags: DIFlagPublic | DIFlagPrototyped, spFlags: DISPFlagOptimized)
!196 = !DISubprogram(name: "icmp_header", linkageName: "_ZNK14WritablePacket11icmp_headerEv", scope: !143, file: !6, line: 790, type: !197, scopeLine: 790, flags: DIFlagPublic | DIFlagPrototyped, spFlags: DISPFlagOptimized)
!197 = !DISubroutineType(types: !198)
!198 = !{!199, !149}
!199 = !DIDerivedType(tag: DW_TAG_pointer_type, baseType: !200, size: 64)
!200 = !DICompositeType(tag: DW_TAG_structure_type, name: "click_icmp", file: !6, line: 26, flags: DIFlagFwdDecl, identifier: "_ZTS10click_icmp")
!201 = !DISubprogram(name: "tcp_header", linkageName: "_ZNK14WritablePacket10tcp_headerEv", scope: !143, file: !6, line: 791, type: !202, scopeLine: 791, flags: DIFlagPublic | DIFlagPrototyped, spFlags: DISPFlagOptimized)
!202 = !DISubroutineType(types: !203)
!203 = !{!204, !149}
!204 = !DIDerivedType(tag: DW_TAG_pointer_type, baseType: !205, size: 64)
!205 = !DICompositeType(tag: DW_TAG_structure_type, name: "click_tcp", file: !6, line: 28, flags: DIFlagFwdDecl, identifier: "_ZTS9click_tcp")
!206 = !DISubprogram(name: "udp_header", linkageName: "_ZNK14WritablePacket10udp_headerEv", scope: !143, file: !6, line: 792, type: !207, scopeLine: 792, flags: DIFlagPublic | DIFlagPrototyped, spFlags: DISPFlagOptimized)
!207 = !DISubroutineType(types: !208)
!208 = !{!209, !149}
!209 = !DIDerivedType(tag: DW_TAG_pointer_type, baseType: !210, size: 64)
!210 = !DICompositeType(tag: DW_TAG_structure_type, name: "click_udp", file: !6, line: 29, flags: DIFlagFwdDecl, identifier: "_ZTS9click_udp")
!211 = !DISubprogram(name: "buffer_data", linkageName: "_ZNK14WritablePacket11buffer_dataEv", scope: !143, file: !6, line: 795, type: !147, scopeLine: 795, flags: DIFlagPublic | DIFlagPrototyped, spFlags: DISPFlagOptimized)
!212 = !DISubprogram(name: "WritablePacket", scope: !143, file: !6, line: 800, type: !213, scopeLine: 800, flags: DIFlagPrototyped, spFlags: DISPFlagOptimized)
!213 = !DISubroutineType(types: !214)
!214 = !{null, !215}
!215 = !DIDerivedType(tag: DW_TAG_pointer_type, baseType: !143, size: 64, flags: DIFlagArtificial | DIFlagObjectPointer)
!216 = !DISubprogram(name: "initialize", linkageName: "_ZN14WritablePacket10initializeEv", scope: !143, file: !6, line: 802, type: !213, scopeLine: 802, flags: DIFlagPrototyped, spFlags: DISPFlagOptimized)
!217 = !DISubprogram(name: "WritablePacket", scope: !143, file: !6, line: 804, type: !218, scopeLine: 804, flags: DIFlagPrototyped, spFlags: DISPFlagOptimized)
!218 = !DISubroutineType(types: !219)
!219 = !{null, !215, !220}
!220 = !DIDerivedType(tag: DW_TAG_reference_type, baseType: !221, size: 64)
!221 = !DIDerivedType(tag: DW_TAG_const_type, baseType: !7)
!222 = !DISubprogram(name: "~WritablePacket", scope: !143, file: !6, line: 805, type: !213, scopeLine: 805, flags: DIFlagPrototyped, spFlags: DISPFlagOptimized)
!223 = !DISubprogram(name: "pool_allocate", linkageName: "_ZN14WritablePacket13pool_allocateEb", scope: !143, file: !6, line: 808, type: !224, scopeLine: 808, flags: DIFlagPrototyped | DIFlagStaticMember, spFlags: DISPFlagOptimized)
!224 = !DISubroutineType(types: !225)
!225 = !{!142, !55}
!226 = !DISubprogram(name: "pool_allocate", linkageName: "_ZN14WritablePacket13pool_allocateEjjj", scope: !143, file: !6, line: 809, type: !227, scopeLine: 809, flags: DIFlagPrototyped | DIFlagStaticMember, spFlags: DISPFlagOptimized)
!227 = !DISubroutineType(types: !228)
!228 = !{!142, !14, !14, !14}
!229 = !DISubprogram(name: "recycle", linkageName: "_ZN14WritablePacket7recycleEPS_", scope: !143, file: !6, line: 811, type: !230, scopeLine: 811, flags: DIFlagPrototyped | DIFlagStaticMember, spFlags: DISPFlagOptimized)
!230 = !DISubroutineType(types: !231)
!231 = !{null, !142}
!232 = !DIDerivedType(tag: DW_TAG_pointer_type, baseType: !233, size: 64)
!233 = !DIDerivedType(tag: DW_TAG_const_type, baseType: null)
!234 = !DISubprogram(name: "make", linkageName: "_ZN6Packet4makeEPKvj", scope: !7, file: !6, line: 54, type: !235, scopeLine: 54, flags: DIFlagPublic | DIFlagPrototyped | DIFlagStaticMember, spFlags: DISPFlagOptimized)
!235 = !DISubroutineType(types: !236)
!236 = !{!142, !232, !14}
!237 = !DISubprogram(name: "make", linkageName: "_ZN6Packet4makeEj", scope: !7, file: !6, line: 55, type: !238, scopeLine: 55, flags: DIFlagPublic | DIFlagPrototyped | DIFlagStaticMember, spFlags: DISPFlagOptimized)
!238 = !DISubroutineType(types: !239)
!239 = !{!142, !14}
!240 = !DISubprogram(name: "make", linkageName: "_ZN6Packet4makeEPhjPFvS0_mPvES1_ii", scope: !7, file: !6, line: 66, type: !241, scopeLine: 66, flags: DIFlagPublic | DIFlagPrototyped | DIFlagStaticMember, spFlags: DISPFlagOptimized)
!241 = !DISubroutineType(types: !242)
!242 = !{!142, !82, !14, !131, !137, !36, !36}
!243 = !DISubprogram(name: "static_cleanup", linkageName: "_ZN6Packet14static_cleanupEv", scope: !7, file: !6, line: 71, type: !244, scopeLine: 71, flags: DIFlagPublic | DIFlagPrototyped | DIFlagStaticMember, spFlags: DISPFlagOptimized)
!244 = !DISubroutineType(types: !245)
!245 = !{null}
!246 = !DISubprogram(name: "kill", linkageName: "_ZN6Packet4killEv", scope: !7, file: !6, line: 73, type: !247, scopeLine: 73, flags: DIFlagPublic | DIFlagPrototyped, spFlags: DISPFlagOptimized)
!247 = !DISubroutineType(types: !248)
!248 = !{null, !249}
!249 = !DIDerivedType(tag: DW_TAG_pointer_type, baseType: !7, size: 64, flags: DIFlagArtificial | DIFlagObjectPointer)
!250 = !DISubprogram(name: "shared", linkageName: "_ZNK6Packet6sharedEv", scope: !7, file: !6, line: 75, type: !251, scopeLine: 75, flags: DIFlagPublic | DIFlagPrototyped, spFlags: DISPFlagOptimized)
!251 = !DISubroutineType(types: !252)
!252 = !{!55, !253}
!253 = !DIDerivedType(tag: DW_TAG_pointer_type, baseType: !221, size: 64, flags: DIFlagArtificial | DIFlagObjectPointer)
!254 = !DISubprogram(name: "clone", linkageName: "_ZN6Packet5cloneEv", scope: !7, file: !6, line: 76, type: !255, scopeLine: 76, flags: DIFlagPublic | DIFlagPrototyped, spFlags: DISPFlagOptimized)
!255 = !DISubroutineType(types: !256)
!256 = !{!80, !249}
!257 = !DISubprogram(name: "uniqueify", linkageName: "_ZN6Packet9uniqueifyEv", scope: !7, file: !6, line: 77, type: !258, scopeLine: 77, flags: DIFlagPublic | DIFlagPrototyped, spFlags: DISPFlagOptimized)
!258 = !DISubroutineType(types: !259)
!259 = !{!142, !249}
!260 = !DISubprogram(name: "data", linkageName: "_ZNK6Packet4dataEv", scope: !7, file: !6, line: 79, type: !261, scopeLine: 79, flags: DIFlagPublic | DIFlagPrototyped, spFlags: DISPFlagOptimized)
!261 = !DISubroutineType(types: !262)
!262 = !{!263, !253}
!263 = !DIDerivedType(tag: DW_TAG_pointer_type, baseType: !264, size: 64)
!264 = !DIDerivedType(tag: DW_TAG_const_type, baseType: !83)
!265 = !DISubprogram(name: "end_data", linkageName: "_ZNK6Packet8end_dataEv", scope: !7, file: !6, line: 80, type: !261, scopeLine: 80, flags: DIFlagPublic | DIFlagPrototyped, spFlags: DISPFlagOptimized)
!266 = !DISubprogram(name: "length", linkageName: "_ZNK6Packet6lengthEv", scope: !7, file: !6, line: 81, type: !267, scopeLine: 81, flags: DIFlagPublic | DIFlagPrototyped, spFlags: DISPFlagOptimized)
!267 = !DISubroutineType(types: !268)
!268 = !{!14, !253}
!269 = !DISubprogram(name: "headroom", linkageName: "_ZNK6Packet8headroomEv", scope: !7, file: !6, line: 82, type: !267, scopeLine: 82, flags: DIFlagPublic | DIFlagPrototyped, spFlags: DISPFlagOptimized)
!270 = !DISubprogram(name: "tailroom", linkageName: "_ZNK6Packet8tailroomEv", scope: !7, file: !6, line: 83, type: !267, scopeLine: 83, flags: DIFlagPublic | DIFlagPrototyped, spFlags: DISPFlagOptimized)
!271 = !DISubprogram(name: "buffer", linkageName: "_ZNK6Packet6bufferEv", scope: !7, file: !6, line: 84, type: !261, scopeLine: 84, flags: DIFlagPublic | DIFlagPrototyped, spFlags: DISPFlagOptimized)
!272 = !DISubprogram(name: "end_buffer", linkageName: "_ZNK6Packet10end_bufferEv", scope: !7, file: !6, line: 85, type: !261, scopeLine: 85, flags: DIFlagPublic | DIFlagPrototyped, spFlags: DISPFlagOptimized)
!273 = !DISubprogram(name: "buffer_length", linkageName: "_ZNK6Packet13buffer_lengthEv", scope: !7, file: !6, line: 86, type: !267, scopeLine: 86, flags: DIFlagPublic | DIFlagPrototyped, spFlags: DISPFlagOptimized)
!274 = !DISubprogram(name: "buffer_destructor", linkageName: "_ZNK6Packet17buffer_destructorEv", scope: !7, file: !6, line: 97, type: !275, scopeLine: 97, flags: DIFlagPublic | DIFlagPrototyped, spFlags: DISPFlagOptimized)
!275 = !DISubroutineType(types: !276)
!276 = !{!131, !253}
!277 = !DISubprogram(name: "set_buffer_destructor", linkageName: "_ZN6Packet21set_buffer_destructorEPFvPhmPvE", scope: !7, file: !6, line: 101, type: !278, scopeLine: 101, flags: DIFlagPublic | DIFlagPrototyped, spFlags: DISPFlagOptimized)
!278 = !DISubroutineType(types: !279)
!279 = !{null, !249, !131}
!280 = !DISubprogram(name: "destructor_argument", linkageName: "_ZN6Packet19destructor_argumentEv", scope: !7, file: !6, line: 105, type: !281, scopeLine: 105, flags: DIFlagPublic | DIFlagPrototyped, spFlags: DISPFlagOptimized)
!281 = !DISubroutineType(types: !282)
!282 = !{!137, !249}
!283 = !DISubprogram(name: "reset_buffer", linkageName: "_ZN6Packet12reset_bufferEv", scope: !7, file: !6, line: 109, type: !247, scopeLine: 109, flags: DIFlagPublic | DIFlagPrototyped, spFlags: DISPFlagOptimized)
!284 = !DISubprogram(name: "push", linkageName: "_ZN6Packet4pushEj", scope: !7, file: !6, line: 141, type: !285, scopeLine: 141, flags: DIFlagPublic | DIFlagPrototyped, spFlags: DISPFlagOptimized)
!285 = !DISubroutineType(types: !286)
!286 = !{!142, !249, !14}
!287 = !DISubprogram(name: "push_mac_header", linkageName: "_ZN6Packet15push_mac_headerEj", scope: !7, file: !6, line: 152, type: !285, scopeLine: 152, flags: DIFlagPublic | DIFlagPrototyped, spFlags: DISPFlagOptimized)
!288 = !DISubprogram(name: "nonunique_push", linkageName: "_ZN6Packet14nonunique_pushEj", scope: !7, file: !6, line: 171, type: !289, scopeLine: 171, flags: DIFlagPublic | DIFlagPrototyped, spFlags: DISPFlagOptimized)
!289 = !DISubroutineType(types: !290)
!290 = !{!80, !249, !14}
!291 = !DISubprogram(name: "pull", linkageName: "_ZN6Packet4pullEj", scope: !7, file: !6, line: 187, type: !292, scopeLine: 187, flags: DIFlagPublic | DIFlagPrototyped, spFlags: DISPFlagOptimized)
!292 = !DISubroutineType(types: !293)
!293 = !{null, !249, !14}
!294 = !DISubprogram(name: "put", linkageName: "_ZN6Packet3putEj", scope: !7, file: !6, line: 213, type: !285, scopeLine: 213, flags: DIFlagPublic | DIFlagPrototyped, spFlags: DISPFlagOptimized)
!295 = !DISubprogram(name: "nonunique_put", linkageName: "_ZN6Packet13nonunique_putEj", scope: !7, file: !6, line: 230, type: !289, scopeLine: 230, flags: DIFlagPublic | DIFlagPrototyped, spFlags: DISPFlagOptimized)
!296 = !DISubprogram(name: "take", linkageName: "_ZN6Packet4takeEj", scope: !7, file: !6, line: 245, type: !292, scopeLine: 245, flags: DIFlagPublic | DIFlagPrototyped, spFlags: DISPFlagOptimized)
!297 = !DISubprogram(name: "shift_data", linkageName: "_ZN6Packet10shift_dataEib", scope: !7, file: !6, line: 269, type: !298, scopeLine: 269, flags: DIFlagPublic | DIFlagPrototyped, spFlags: DISPFlagOptimized)
!298 = !DISubroutineType(types: !299)
!299 = !{!80, !249, !36, !55}
!300 = !DISubprogram(name: "shrink_data", linkageName: "_ZN6Packet11shrink_dataEPKhj", scope: !7, file: !6, line: 271, type: !301, scopeLine: 271, flags: DIFlagPublic | DIFlagPrototyped, spFlags: DISPFlagOptimized)
!301 = !DISubroutineType(types: !302)
!302 = !{null, !249, !263, !14}
!303 = !DISubprogram(name: "change_headroom_and_length", linkageName: "_ZN6Packet26change_headroom_and_lengthEjj", scope: !7, file: !6, line: 272, type: !304, scopeLine: 272, flags: DIFlagPublic | DIFlagPrototyped, spFlags: DISPFlagOptimized)
!304 = !DISubroutineType(types: !305)
!305 = !{null, !249, !14, !14}
!306 = !DISubprogram(name: "copy", linkageName: "_ZN6Packet4copyEPS_i", scope: !7, file: !6, line: 274, type: !307, scopeLine: 274, flags: DIFlagPublic | DIFlagPrototyped, spFlags: DISPFlagOptimized)
!307 = !DISubroutineType(types: !308)
!308 = !{!55, !249, !80, !36}
!309 = !DISubprogram(name: "has_mac_header", linkageName: "_ZNK6Packet14has_mac_headerEv", scope: !7, file: !6, line: 279, type: !251, scopeLine: 279, flags: DIFlagPublic | DIFlagPrototyped, spFlags: DISPFlagOptimized)
!310 = !DISubprogram(name: "mac_header", linkageName: "_ZNK6Packet10mac_headerEv", scope: !7, file: !6, line: 280, type: !261, scopeLine: 280, flags: DIFlagPublic | DIFlagPrototyped, spFlags: DISPFlagOptimized)
!311 = !DISubprogram(name: "mac_header_offset", linkageName: "_ZNK6Packet17mac_header_offsetEv", scope: !7, file: !6, line: 281, type: !312, scopeLine: 281, flags: DIFlagPublic | DIFlagPrototyped, spFlags: DISPFlagOptimized)
!312 = !DISubroutineType(types: !313)
!313 = !{!36, !253}
!314 = !DISubprogram(name: "mac_header_length", linkageName: "_ZNK6Packet17mac_header_lengthEv", scope: !7, file: !6, line: 282, type: !267, scopeLine: 282, flags: DIFlagPublic | DIFlagPrototyped, spFlags: DISPFlagOptimized)
!315 = !DISubprogram(name: "mac_length", linkageName: "_ZNK6Packet10mac_lengthEv", scope: !7, file: !6, line: 283, type: !312, scopeLine: 283, flags: DIFlagPublic | DIFlagPrototyped, spFlags: DISPFlagOptimized)
!316 = !DISubprogram(name: "set_mac_header", linkageName: "_ZN6Packet14set_mac_headerEPKh", scope: !7, file: !6, line: 284, type: !317, scopeLine: 284, flags: DIFlagPublic | DIFlagPrototyped, spFlags: DISPFlagOptimized)
!317 = !DISubroutineType(types: !318)
!318 = !{null, !249, !263}
!319 = !DISubprogram(name: "set_mac_header", linkageName: "_ZN6Packet14set_mac_headerEPKhj", scope: !7, file: !6, line: 285, type: !301, scopeLine: 285, flags: DIFlagPublic | DIFlagPrototyped, spFlags: DISPFlagOptimized)
!320 = !DISubprogram(name: "clear_mac_header", linkageName: "_ZN6Packet16clear_mac_headerEv", scope: !7, file: !6, line: 286, type: !247, scopeLine: 286, flags: DIFlagPublic | DIFlagPrototyped, spFlags: DISPFlagOptimized)
!321 = !DISubprogram(name: "has_network_header", linkageName: "_ZNK6Packet18has_network_headerEv", scope: !7, file: !6, line: 288, type: !251, scopeLine: 288, flags: DIFlagPublic | DIFlagPrototyped, spFlags: DISPFlagOptimized)
!322 = !DISubprogram(name: "network_header", linkageName: "_ZNK6Packet14network_headerEv", scope: !7, file: !6, line: 289, type: !261, scopeLine: 289, flags: DIFlagPublic | DIFlagPrototyped, spFlags: DISPFlagOptimized)
!323 = !DISubprogram(name: "network_header_offset", linkageName: "_ZNK6Packet21network_header_offsetEv", scope: !7, file: !6, line: 290, type: !312, scopeLine: 290, flags: DIFlagPublic | DIFlagPrototyped, spFlags: DISPFlagOptimized)
!324 = !DISubprogram(name: "network_header_length", linkageName: "_ZNK6Packet21network_header_lengthEv", scope: !7, file: !6, line: 291, type: !267, scopeLine: 291, flags: DIFlagPublic | DIFlagPrototyped, spFlags: DISPFlagOptimized)
!325 = !DISubprogram(name: "network_length", linkageName: "_ZNK6Packet14network_lengthEv", scope: !7, file: !6, line: 292, type: !312, scopeLine: 292, flags: DIFlagPublic | DIFlagPrototyped, spFlags: DISPFlagOptimized)
!326 = !DISubprogram(name: "set_network_header", linkageName: "_ZN6Packet18set_network_headerEPKhj", scope: !7, file: !6, line: 293, type: !301, scopeLine: 293, flags: DIFlagPublic | DIFlagPrototyped, spFlags: DISPFlagOptimized)
!327 = !DISubprogram(name: "set_network_header_length", linkageName: "_ZN6Packet25set_network_header_lengthEj", scope: !7, file: !6, line: 294, type: !292, scopeLine: 294, flags: DIFlagPublic | DIFlagPrototyped, spFlags: DISPFlagOptimized)
!328 = !DISubprogram(name: "clear_network_header", linkageName: "_ZN6Packet20clear_network_headerEv", scope: !7, file: !6, line: 295, type: !247, scopeLine: 295, flags: DIFlagPublic | DIFlagPrototyped, spFlags: DISPFlagOptimized)
!329 = !DISubprogram(name: "has_transport_header", linkageName: "_ZNK6Packet20has_transport_headerEv", scope: !7, file: !6, line: 297, type: !251, scopeLine: 297, flags: DIFlagPublic | DIFlagPrototyped, spFlags: DISPFlagOptimized)
!330 = !DISubprogram(name: "transport_header", linkageName: "_ZNK6Packet16transport_headerEv", scope: !7, file: !6, line: 298, type: !261, scopeLine: 298, flags: DIFlagPublic | DIFlagPrototyped, spFlags: DISPFlagOptimized)
!331 = !DISubprogram(name: "transport_header_offset", linkageName: "_ZNK6Packet23transport_header_offsetEv", scope: !7, file: !6, line: 299, type: !312, scopeLine: 299, flags: DIFlagPublic | DIFlagPrototyped, spFlags: DISPFlagOptimized)
!332 = !DISubprogram(name: "transport_length", linkageName: "_ZNK6Packet16transport_lengthEv", scope: !7, file: !6, line: 300, type: !312, scopeLine: 300, flags: DIFlagPublic | DIFlagPrototyped, spFlags: DISPFlagOptimized)
!333 = !DISubprogram(name: "clear_transport_header", linkageName: "_ZN6Packet22clear_transport_headerEv", scope: !7, file: !6, line: 301, type: !247, scopeLine: 301, flags: DIFlagPublic | DIFlagPrototyped, spFlags: DISPFlagOptimized)
!334 = !DISubprogram(name: "ether_header", linkageName: "_ZNK6Packet12ether_headerEv", scope: !7, file: !6, line: 304, type: !335, scopeLine: 304, flags: DIFlagPublic | DIFlagPrototyped, spFlags: DISPFlagOptimized)
!335 = !DISubroutineType(types: !336)
!336 = !{!337, !253}
!337 = !DIDerivedType(tag: DW_TAG_pointer_type, baseType: !338, size: 64)
!338 = !DIDerivedType(tag: DW_TAG_const_type, baseType: !159)
!339 = !DISubprogram(name: "set_ether_header", linkageName: "_ZN6Packet16set_ether_headerEPK11click_ether", scope: !7, file: !6, line: 305, type: !340, scopeLine: 305, flags: DIFlagPublic | DIFlagPrototyped, spFlags: DISPFlagOptimized)
!340 = !DISubroutineType(types: !341)
!341 = !{null, !249, !337}
!342 = !DISubprogram(name: "ip_header", linkageName: "_ZNK6Packet9ip_headerEv", scope: !7, file: !6, line: 307, type: !343, scopeLine: 307, flags: DIFlagPublic | DIFlagPrototyped, spFlags: DISPFlagOptimized)
!343 = !DISubroutineType(types: !344)
!344 = !{!345, !253}
!345 = !DIDerivedType(tag: DW_TAG_pointer_type, baseType: !346, size: 64)
!346 = !DIDerivedType(tag: DW_TAG_const_type, baseType: !171)
!347 = !DISubprogram(name: "ip_header_offset", linkageName: "_ZNK6Packet16ip_header_offsetEv", scope: !7, file: !6, line: 308, type: !312, scopeLine: 308, flags: DIFlagPublic | DIFlagPrototyped, spFlags: DISPFlagOptimized)
!348 = !DISubprogram(name: "ip_header_length", linkageName: "_ZNK6Packet16ip_header_lengthEv", scope: !7, file: !6, line: 309, type: !267, scopeLine: 309, flags: DIFlagPublic | DIFlagPrototyped, spFlags: DISPFlagOptimized)
!349 = !DISubprogram(name: "set_ip_header", linkageName: "_ZN6Packet13set_ip_headerEPK8click_ipj", scope: !7, file: !6, line: 310, type: !350, scopeLine: 310, flags: DIFlagPublic | DIFlagPrototyped, spFlags: DISPFlagOptimized)
!350 = !DISubroutineType(types: !351)
!351 = !{null, !249, !345, !14}
!352 = !DISubprogram(name: "ip6_header", linkageName: "_ZNK6Packet10ip6_headerEv", scope: !7, file: !6, line: 312, type: !353, scopeLine: 312, flags: DIFlagPublic | DIFlagPrototyped, spFlags: DISPFlagOptimized)
!353 = !DISubroutineType(types: !354)
!354 = !{!355, !253}
!355 = !DIDerivedType(tag: DW_TAG_pointer_type, baseType: !356, size: 64)
!356 = !DIDerivedType(tag: DW_TAG_const_type, baseType: !194)
!357 = !DISubprogram(name: "ip6_header_offset", linkageName: "_ZNK6Packet17ip6_header_offsetEv", scope: !7, file: !6, line: 313, type: !312, scopeLine: 313, flags: DIFlagPublic | DIFlagPrototyped, spFlags: DISPFlagOptimized)
!358 = !DISubprogram(name: "ip6_header_length", linkageName: "_ZNK6Packet17ip6_header_lengthEv", scope: !7, file: !6, line: 314, type: !267, scopeLine: 314, flags: DIFlagPublic | DIFlagPrototyped, spFlags: DISPFlagOptimized)
!359 = !DISubprogram(name: "set_ip6_header", linkageName: "_ZN6Packet14set_ip6_headerEPK9click_ip6", scope: !7, file: !6, line: 315, type: !360, scopeLine: 315, flags: DIFlagPublic | DIFlagPrototyped, spFlags: DISPFlagOptimized)
!360 = !DISubroutineType(types: !361)
!361 = !{null, !249, !355}
!362 = !DISubprogram(name: "set_ip6_header", linkageName: "_ZN6Packet14set_ip6_headerEPK9click_ip6j", scope: !7, file: !6, line: 316, type: !363, scopeLine: 316, flags: DIFlagPublic | DIFlagPrototyped, spFlags: DISPFlagOptimized)
!363 = !DISubroutineType(types: !364)
!364 = !{null, !249, !355, !14}
!365 = !DISubprogram(name: "icmp_header", linkageName: "_ZNK6Packet11icmp_headerEv", scope: !7, file: !6, line: 318, type: !366, scopeLine: 318, flags: DIFlagPublic | DIFlagPrototyped, spFlags: DISPFlagOptimized)
!366 = !DISubroutineType(types: !367)
!367 = !{!368, !253}
!368 = !DIDerivedType(tag: DW_TAG_pointer_type, baseType: !369, size: 64)
!369 = !DIDerivedType(tag: DW_TAG_const_type, baseType: !200)
!370 = !DISubprogram(name: "tcp_header", linkageName: "_ZNK6Packet10tcp_headerEv", scope: !7, file: !6, line: 319, type: !371, scopeLine: 319, flags: DIFlagPublic | DIFlagPrototyped, spFlags: DISPFlagOptimized)
!371 = !DISubroutineType(types: !372)
!372 = !{!373, !253}
!373 = !DIDerivedType(tag: DW_TAG_pointer_type, baseType: !374, size: 64)
!374 = !DIDerivedType(tag: DW_TAG_const_type, baseType: !205)
!375 = !DISubprogram(name: "udp_header", linkageName: "_ZNK6Packet10udp_headerEv", scope: !7, file: !6, line: 320, type: !376, scopeLine: 320, flags: DIFlagPublic | DIFlagPrototyped, spFlags: DISPFlagOptimized)
!376 = !DISubroutineType(types: !377)
!377 = !{!378, !253}
!378 = !DIDerivedType(tag: DW_TAG_pointer_type, baseType: !379, size: 64)
!379 = !DIDerivedType(tag: DW_TAG_const_type, baseType: !210)
!380 = !DISubprogram(name: "xanno", linkageName: "_ZNK6Packet5xannoEv", scope: !7, file: !6, line: 340, type: !381, scopeLine: 340, flags: DIFlagPrototyped, spFlags: DISPFlagOptimized)
!381 = !DISubroutineType(types: !382)
!382 = !{!383, !253}
!383 = !DIDerivedType(tag: DW_TAG_pointer_type, baseType: !384, size: 64)
!384 = !DIDerivedType(tag: DW_TAG_const_type, baseType: !91)
!385 = !DISubprogram(name: "xanno", linkageName: "_ZN6Packet5xannoEv", scope: !7, file: !6, line: 341, type: !386, scopeLine: 341, flags: DIFlagPrototyped, spFlags: DISPFlagOptimized)
!386 = !DISubroutineType(types: !387)
!387 = !{!388, !249}
!388 = !DIDerivedType(tag: DW_TAG_pointer_type, baseType: !91, size: 64)
!389 = !DISubprogram(name: "timestamp_anno", linkageName: "_ZNK6Packet14timestamp_annoEv", scope: !7, file: !6, line: 354, type: !390, scopeLine: 354, flags: DIFlagPublic | DIFlagPrototyped, spFlags: DISPFlagOptimized)
!390 = !DISubroutineType(types: !391)
!391 = !{!392, !253}
!392 = !DIDerivedType(tag: DW_TAG_reference_type, baseType: !393, size: 64)
!393 = !DIDerivedType(tag: DW_TAG_const_type, baseType: !394)
!394 = distinct !DICompositeType(tag: DW_TAG_class_type, name: "Timestamp", file: !395, line: 122, size: 64, flags: DIFlagTypePassByValue | DIFlagNonTrivial, elements: !396, identifier: "_ZTS9Timestamp")
!395 = !DIFile(filename: "../dummy_inc/click/timestamp.hh", directory: "/home/john/projects/click/ir-dir")
!396 = !{!397, !404, !408, !411, !414, !417, !420, !424, !436, !447, !452, !461, !470, !473, !474, !477, !478, !479, !480, !483, !486, !487, !488, !489, !492, !493, !496, !499, !503, !504, !505, !508, !509, !510, !515, !519, !522, !525, !528, !531, !532, !533, !534, !535, !538, !539, !542, !543, !544, !545, !546, !547, !548, !551, !552, !553, !554, !555, !556, !557, !558, !559, !849, !850, !853, !854, !855, !856, !857, !858, !859, !862, !871, !874, !875, !878, !881, !882, !883, !884, !885, !886, !887, !890, !894, !897, !900, !903}
!397 = !DIDerivedType(tag: DW_TAG_member, name: "_t", scope: !394, file: !395, line: 672, baseType: !398, size: 64)
!398 = distinct !DICompositeType(tag: DW_TAG_union_type, name: "rep_t", scope: !394, file: !395, line: 539, size: 64, flags: DIFlagTypePassByValue, elements: !399, identifier: "_ZTSN9Timestamp5rep_tE")
!399 = !{!400}
!400 = !DIDerivedType(tag: DW_TAG_member, name: "x", scope: !398, file: !395, line: 541, baseType: !401, size: 64)
!401 = !DIDerivedType(tag: DW_TAG_typedef, name: "int64_t", file: !34, line: 27, baseType: !402)
!402 = !DIDerivedType(tag: DW_TAG_typedef, name: "__int64_t", file: !17, line: 44, baseType: !403)
!403 = !DIBasicType(name: "long int", size: 64, encoding: DW_ATE_signed)
!404 = !DISubprogram(name: "Timestamp", scope: !394, file: !395, line: 174, type: !405, scopeLine: 174, flags: DIFlagPublic | DIFlagPrototyped, spFlags: DISPFlagOptimized)
!405 = !DISubroutineType(types: !406)
!406 = !{null, !407}
!407 = !DIDerivedType(tag: DW_TAG_pointer_type, baseType: !394, size: 64, flags: DIFlagArtificial | DIFlagObjectPointer)
!408 = !DISubprogram(name: "Timestamp", scope: !394, file: !395, line: 187, type: !409, scopeLine: 187, flags: DIFlagPublic | DIFlagExplicit | DIFlagPrototyped, spFlags: DISPFlagOptimized)
!409 = !DISubroutineType(types: !410)
!410 = !{null, !407, !403, !14}
!411 = !DISubprogram(name: "Timestamp", scope: !394, file: !395, line: 191, type: !412, scopeLine: 191, flags: DIFlagPublic | DIFlagExplicit | DIFlagPrototyped, spFlags: DISPFlagOptimized)
!412 = !DISubroutineType(types: !413)
!413 = !{null, !407, !36, !14}
!414 = !DISubprogram(name: "Timestamp", scope: !394, file: !395, line: 195, type: !415, scopeLine: 195, flags: DIFlagPublic | DIFlagExplicit | DIFlagPrototyped, spFlags: DISPFlagOptimized)
!415 = !DISubroutineType(types: !416)
!416 = !{null, !407, !117, !14}
!417 = !DISubprogram(name: "Timestamp", scope: !394, file: !395, line: 199, type: !418, scopeLine: 199, flags: DIFlagPublic | DIFlagExplicit | DIFlagPrototyped, spFlags: DISPFlagOptimized)
!418 = !DISubroutineType(types: !419)
!419 = !{null, !407, !18, !14}
!420 = !DISubprogram(name: "Timestamp", scope: !394, file: !395, line: 203, type: !421, scopeLine: 203, flags: DIFlagPublic | DIFlagExplicit | DIFlagPrototyped, spFlags: DISPFlagOptimized)
!421 = !DISubroutineType(types: !422)
!422 = !{null, !407, !423}
!423 = !DIBasicType(name: "double", size: 64, encoding: DW_ATE_float)
!424 = !DISubprogram(name: "Timestamp", scope: !394, file: !395, line: 206, type: !425, scopeLine: 206, flags: DIFlagPublic | DIFlagPrototyped, spFlags: DISPFlagOptimized)
!425 = !DISubroutineType(types: !426)
!426 = !{null, !407, !427}
!427 = !DIDerivedType(tag: DW_TAG_reference_type, baseType: !428, size: 64)
!428 = !DIDerivedType(tag: DW_TAG_const_type, baseType: !429)
!429 = distinct !DICompositeType(tag: DW_TAG_structure_type, name: "timeval", file: !430, line: 8, size: 128, flags: DIFlagTypePassByValue, elements: !431, identifier: "_ZTS7timeval")
!430 = !DIFile(filename: "/usr/include/bits/types/struct_timeval.h", directory: "")
!431 = !{!432, !434}
!432 = !DIDerivedType(tag: DW_TAG_member, name: "tv_sec", scope: !429, file: !430, line: 10, baseType: !433, size: 64)
!433 = !DIDerivedType(tag: DW_TAG_typedef, name: "__time_t", file: !17, line: 160, baseType: !403)
!434 = !DIDerivedType(tag: DW_TAG_member, name: "tv_usec", scope: !429, file: !430, line: 11, baseType: !435, size: 64, offset: 64)
!435 = !DIDerivedType(tag: DW_TAG_typedef, name: "__suseconds_t", file: !17, line: 162, baseType: !403)
!436 = !DISubprogram(name: "Timestamp", scope: !394, file: !395, line: 208, type: !437, scopeLine: 208, flags: DIFlagPublic | DIFlagPrototyped, spFlags: DISPFlagOptimized)
!437 = !DISubroutineType(types: !438)
!438 = !{null, !407, !439}
!439 = !DIDerivedType(tag: DW_TAG_reference_type, baseType: !440, size: 64)
!440 = !DIDerivedType(tag: DW_TAG_const_type, baseType: !441)
!441 = distinct !DICompositeType(tag: DW_TAG_structure_type, name: "timespec", file: !442, line: 10, size: 128, flags: DIFlagTypePassByValue, elements: !443, identifier: "_ZTS8timespec")
!442 = !DIFile(filename: "/usr/include/bits/types/struct_timespec.h", directory: "")
!443 = !{!444, !445}
!444 = !DIDerivedType(tag: DW_TAG_member, name: "tv_sec", scope: !441, file: !442, line: 12, baseType: !433, size: 64)
!445 = !DIDerivedType(tag: DW_TAG_member, name: "tv_nsec", scope: !441, file: !442, line: 16, baseType: !446, size: 64, offset: 64)
!446 = !DIDerivedType(tag: DW_TAG_typedef, name: "__syscall_slong_t", file: !17, line: 196, baseType: !403)
!447 = !DISubprogram(name: "Timestamp", scope: !394, file: !395, line: 212, type: !448, scopeLine: 212, flags: DIFlagPublic | DIFlagPrototyped, spFlags: DISPFlagOptimized)
!448 = !DISubroutineType(types: !449)
!449 = !{null, !407, !450}
!450 = !DIDerivedType(tag: DW_TAG_reference_type, baseType: !451, size: 64)
!451 = !DIDerivedType(tag: DW_TAG_const_type, baseType: !398)
!452 = !DISubprogram(name: "Timestamp", scope: !394, file: !395, line: 217, type: !453, scopeLine: 217, flags: DIFlagPublic | DIFlagPrototyped, spFlags: DISPFlagOptimized)
!453 = !DISubroutineType(types: !454)
!454 = !{null, !407, !455}
!455 = !DIDerivedType(tag: DW_TAG_reference_type, baseType: !456, size: 64)
!456 = !DIDerivedType(tag: DW_TAG_const_type, baseType: !457)
!457 = !DIDerivedType(tag: DW_TAG_typedef, name: "uninitialized_t", scope: !394, file: !395, line: 168, baseType: !458)
!458 = distinct !DICompositeType(tag: DW_TAG_structure_type, name: "uninitialized_type", file: !459, line: 317, size: 8, flags: DIFlagTypePassByValue, elements: !460, identifier: "_ZTS18uninitialized_type")
!459 = !DIFile(filename: "../dummy_inc/click/config.h", directory: "/home/john/projects/click/ir-dir")
!460 = !{}
!461 = !DISubprogram(name: "operator int (Timestamp::*)() const", linkageName: "_ZNK9TimestampcvMS_KFivEEv", scope: !394, file: !395, line: 222, type: !462, scopeLine: 222, flags: DIFlagPublic | DIFlagPrototyped, spFlags: DISPFlagOptimized)
!462 = !DISubroutineType(types: !463)
!463 = !{!464, !469}
!464 = !DIDerivedType(tag: DW_TAG_typedef, name: "unspecified_bool_type", scope: !394, file: !395, line: 221, baseType: !465)
!465 = !DIDerivedType(tag: DW_TAG_ptr_to_member_type, baseType: !466, size: 128, extraData: !394)
!466 = !DISubroutineType(types: !467)
!467 = !{!468, !469}
!468 = !DIDerivedType(tag: DW_TAG_typedef, name: "seconds_type", scope: !394, file: !395, line: 125, baseType: !33)
!469 = !DIDerivedType(tag: DW_TAG_pointer_type, baseType: !393, size: 64, flags: DIFlagArtificial | DIFlagObjectPointer)
!470 = !DISubprogram(name: "is_negative", linkageName: "_ZNK9Timestamp11is_negativeEv", scope: !394, file: !395, line: 225, type: !471, scopeLine: 225, flags: DIFlagPublic | DIFlagPrototyped, spFlags: DISPFlagOptimized)
!471 = !DISubroutineType(types: !472)
!472 = !{!55, !469}
!473 = !DISubprogram(name: "sec", linkageName: "_ZNK9Timestamp3secEv", scope: !394, file: !395, line: 233, type: !466, scopeLine: 233, flags: DIFlagPublic | DIFlagPrototyped, spFlags: DISPFlagOptimized)
!474 = !DISubprogram(name: "subsec", linkageName: "_ZNK9Timestamp6subsecEv", scope: !394, file: !395, line: 234, type: !475, scopeLine: 234, flags: DIFlagPublic | DIFlagPrototyped, spFlags: DISPFlagOptimized)
!475 = !DISubroutineType(types: !476)
!476 = !{!14, !469}
!477 = !DISubprogram(name: "msec", linkageName: "_ZNK9Timestamp4msecEv", scope: !394, file: !395, line: 235, type: !475, scopeLine: 235, flags: DIFlagPublic | DIFlagPrototyped, spFlags: DISPFlagOptimized)
!478 = !DISubprogram(name: "usec", linkageName: "_ZNK9Timestamp4usecEv", scope: !394, file: !395, line: 236, type: !475, scopeLine: 236, flags: DIFlagPublic | DIFlagPrototyped, spFlags: DISPFlagOptimized)
!479 = !DISubprogram(name: "nsec", linkageName: "_ZNK9Timestamp4nsecEv", scope: !394, file: !395, line: 237, type: !475, scopeLine: 237, flags: DIFlagPublic | DIFlagPrototyped, spFlags: DISPFlagOptimized)
!480 = !DISubprogram(name: "set_sec", linkageName: "_ZN9Timestamp7set_secEi", scope: !394, file: !395, line: 239, type: !481, scopeLine: 239, flags: DIFlagPublic | DIFlagPrototyped, spFlags: DISPFlagOptimized)
!481 = !DISubroutineType(types: !482)
!482 = !{null, !407, !468}
!483 = !DISubprogram(name: "set_subsec", linkageName: "_ZN9Timestamp10set_subsecEj", scope: !394, file: !395, line: 240, type: !484, scopeLine: 240, flags: DIFlagPublic | DIFlagPrototyped, spFlags: DISPFlagOptimized)
!484 = !DISubroutineType(types: !485)
!485 = !{null, !407, !14}
!486 = !DISubprogram(name: "msec1", linkageName: "_ZNK9Timestamp5msec1Ev", scope: !394, file: !395, line: 242, type: !466, scopeLine: 242, flags: DIFlagPublic | DIFlagPrototyped, spFlags: DISPFlagOptimized)
!487 = !DISubprogram(name: "usec1", linkageName: "_ZNK9Timestamp5usec1Ev", scope: !394, file: !395, line: 243, type: !466, scopeLine: 243, flags: DIFlagPublic | DIFlagPrototyped, spFlags: DISPFlagOptimized)
!488 = !DISubprogram(name: "nsec1", linkageName: "_ZNK9Timestamp5nsec1Ev", scope: !394, file: !395, line: 244, type: !466, scopeLine: 244, flags: DIFlagPublic | DIFlagPrototyped, spFlags: DISPFlagOptimized)
!489 = !DISubprogram(name: "timeval", linkageName: "_ZNK9Timestamp7timevalEv", scope: !394, file: !395, line: 250, type: !490, scopeLine: 250, flags: DIFlagPublic | DIFlagPrototyped, spFlags: DISPFlagOptimized)
!490 = !DISubroutineType(types: !491)
!491 = !{!429, !469}
!492 = !DISubprogram(name: "timeval_ceil", linkageName: "_ZNK9Timestamp12timeval_ceilEv", scope: !394, file: !395, line: 251, type: !490, scopeLine: 251, flags: DIFlagPublic | DIFlagPrototyped, spFlags: DISPFlagOptimized)
!493 = !DISubprogram(name: "timespec", linkageName: "_ZNK9Timestamp8timespecEv", scope: !394, file: !395, line: 257, type: !494, scopeLine: 257, flags: DIFlagPublic | DIFlagPrototyped, spFlags: DISPFlagOptimized)
!494 = !DISubroutineType(types: !495)
!495 = !{!441, !469}
!496 = !DISubprogram(name: "doubleval", linkageName: "_ZNK9Timestamp9doublevalEv", scope: !394, file: !395, line: 262, type: !497, scopeLine: 262, flags: DIFlagPublic | DIFlagPrototyped, spFlags: DISPFlagOptimized)
!497 = !DISubroutineType(types: !498)
!498 = !{!423, !469}
!499 = !DISubprogram(name: "msecval", linkageName: "_ZNK9Timestamp7msecvalEv", scope: !394, file: !395, line: 265, type: !500, scopeLine: 265, flags: DIFlagPublic | DIFlagPrototyped, spFlags: DISPFlagOptimized)
!500 = !DISubroutineType(types: !501)
!501 = !{!502, !469}
!502 = !DIDerivedType(tag: DW_TAG_typedef, name: "value_type", scope: !394, file: !395, line: 128, baseType: !401)
!503 = !DISubprogram(name: "usecval", linkageName: "_ZNK9Timestamp7usecvalEv", scope: !394, file: !395, line: 273, type: !500, scopeLine: 273, flags: DIFlagPublic | DIFlagPrototyped, spFlags: DISPFlagOptimized)
!504 = !DISubprogram(name: "nsecval", linkageName: "_ZNK9Timestamp7nsecvalEv", scope: !394, file: !395, line: 281, type: !500, scopeLine: 281, flags: DIFlagPublic | DIFlagPrototyped, spFlags: DISPFlagOptimized)
!505 = !DISubprogram(name: "msec_ceil", linkageName: "_ZNK9Timestamp9msec_ceilEv", scope: !394, file: !395, line: 290, type: !506, scopeLine: 290, flags: DIFlagPublic | DIFlagPrototyped, spFlags: DISPFlagOptimized)
!506 = !DISubroutineType(types: !507)
!507 = !{!394, !469}
!508 = !DISubprogram(name: "usec_ceil", linkageName: "_ZNK9Timestamp9usec_ceilEv", scope: !394, file: !395, line: 295, type: !506, scopeLine: 295, flags: DIFlagPublic | DIFlagPrototyped, spFlags: DISPFlagOptimized)
!509 = !DISubprogram(name: "nsec_ceil", linkageName: "_ZNK9Timestamp9nsec_ceilEv", scope: !394, file: !395, line: 304, type: !506, scopeLine: 304, flags: DIFlagPublic | DIFlagPrototyped, spFlags: DISPFlagOptimized)
!510 = !DISubprogram(name: "make_jiffies", linkageName: "_ZN9Timestamp12make_jiffiesEj", scope: !394, file: !395, line: 310, type: !511, scopeLine: 310, flags: DIFlagPublic | DIFlagPrototyped | DIFlagStaticMember, spFlags: DISPFlagOptimized)
!511 = !DISubroutineType(types: !512)
!512 = !{!394, !513}
!513 = !DIDerivedType(tag: DW_TAG_typedef, name: "click_jiffies_t", file: !514, line: 477, baseType: !18)
!514 = !DIFile(filename: "../dummy_inc/click/glue.hh", directory: "/home/john/projects/click/ir-dir")
!515 = !DISubprogram(name: "make_jiffies", linkageName: "_ZN9Timestamp12make_jiffiesEi", scope: !394, file: !395, line: 312, type: !516, scopeLine: 312, flags: DIFlagPublic | DIFlagPrototyped | DIFlagStaticMember, spFlags: DISPFlagOptimized)
!516 = !DISubroutineType(types: !517)
!517 = !{!394, !518}
!518 = !DIDerivedType(tag: DW_TAG_typedef, name: "click_jiffies_difference_t", file: !514, line: 478, baseType: !36)
!519 = !DISubprogram(name: "jiffies", linkageName: "_ZNK9Timestamp7jiffiesEv", scope: !394, file: !395, line: 314, type: !520, scopeLine: 314, flags: DIFlagPublic | DIFlagPrototyped, spFlags: DISPFlagOptimized)
!520 = !DISubroutineType(types: !521)
!521 = !{!513, !469}
!522 = !DISubprogram(name: "make_sec", linkageName: "_ZN9Timestamp8make_secEi", scope: !394, file: !395, line: 318, type: !523, scopeLine: 318, flags: DIFlagPublic | DIFlagPrototyped | DIFlagStaticMember, spFlags: DISPFlagOptimized)
!523 = !DISubroutineType(types: !524)
!524 = !{!394, !468}
!525 = !DISubprogram(name: "make_msec", linkageName: "_ZN9Timestamp9make_msecEij", scope: !394, file: !395, line: 324, type: !526, scopeLine: 324, flags: DIFlagPublic | DIFlagPrototyped | DIFlagStaticMember, spFlags: DISPFlagOptimized)
!526 = !DISubroutineType(types: !527)
!527 = !{!394, !468, !14}
!528 = !DISubprogram(name: "make_msec", linkageName: "_ZN9Timestamp9make_msecEl", scope: !394, file: !395, line: 328, type: !529, scopeLine: 328, flags: DIFlagPublic | DIFlagPrototyped | DIFlagStaticMember, spFlags: DISPFlagOptimized)
!529 = !DISubroutineType(types: !530)
!530 = !{!394, !502}
!531 = !DISubprogram(name: "make_usec", linkageName: "_ZN9Timestamp9make_usecEij", scope: !394, file: !395, line: 341, type: !526, scopeLine: 341, flags: DIFlagPublic | DIFlagPrototyped | DIFlagStaticMember, spFlags: DISPFlagOptimized)
!532 = !DISubprogram(name: "make_usec", linkageName: "_ZN9Timestamp9make_usecEl", scope: !394, file: !395, line: 345, type: !529, scopeLine: 345, flags: DIFlagPublic | DIFlagPrototyped | DIFlagStaticMember, spFlags: DISPFlagOptimized)
!533 = !DISubprogram(name: "make_nsec", linkageName: "_ZN9Timestamp9make_nsecEij", scope: !394, file: !395, line: 358, type: !526, scopeLine: 358, flags: DIFlagPublic | DIFlagPrototyped | DIFlagStaticMember, spFlags: DISPFlagOptimized)
!534 = !DISubprogram(name: "make_nsec", linkageName: "_ZN9Timestamp9make_nsecEl", scope: !394, file: !395, line: 362, type: !529, scopeLine: 362, flags: DIFlagPublic | DIFlagPrototyped | DIFlagStaticMember, spFlags: DISPFlagOptimized)
!535 = !DISubprogram(name: "epsilon", linkageName: "_ZN9Timestamp7epsilonEv", scope: !394, file: !395, line: 375, type: !536, scopeLine: 375, flags: DIFlagPublic | DIFlagPrototyped | DIFlagStaticMember, spFlags: DISPFlagOptimized)
!536 = !DISubroutineType(types: !537)
!537 = !{!394}
!538 = !DISubprogram(name: "clear", linkageName: "_ZN9Timestamp5clearEv", scope: !394, file: !395, line: 380, type: !405, scopeLine: 380, flags: DIFlagPublic | DIFlagPrototyped, spFlags: DISPFlagOptimized)
!539 = !DISubprogram(name: "assign", linkageName: "_ZN9Timestamp6assignEij", scope: !394, file: !395, line: 388, type: !540, scopeLine: 388, flags: DIFlagPublic | DIFlagPrototyped, spFlags: DISPFlagOptimized)
!540 = !DISubroutineType(types: !541)
!541 = !{null, !407, !468, !14}
!542 = !DISubprogram(name: "assign_usec", linkageName: "_ZN9Timestamp11assign_usecEij", scope: !394, file: !395, line: 397, type: !540, scopeLine: 397, flags: DIFlagPublic | DIFlagPrototyped, spFlags: DISPFlagOptimized)
!543 = !DISubprogram(name: "assign_nsec", linkageName: "_ZN9Timestamp11assign_nsecEij", scope: !394, file: !395, line: 401, type: !540, scopeLine: 401, flags: DIFlagPublic | DIFlagPrototyped, spFlags: DISPFlagOptimized)
!544 = !DISubprogram(name: "set", linkageName: "_ZN9Timestamp3setEij", scope: !394, file: !395, line: 408, type: !540, scopeLine: 408, flags: DIFlagPublic | DIFlagPrototyped, spFlags: DISPFlagOptimized)
!545 = !DISubprogram(name: "set_usec", linkageName: "_ZN9Timestamp8set_usecEij", scope: !394, file: !395, line: 411, type: !540, scopeLine: 411, flags: DIFlagPublic | DIFlagPrototyped, spFlags: DISPFlagOptimized)
!546 = !DISubprogram(name: "set_nsec", linkageName: "_ZN9Timestamp8set_nsecEij", scope: !394, file: !395, line: 414, type: !540, scopeLine: 414, flags: DIFlagPublic | DIFlagPrototyped, spFlags: DISPFlagOptimized)
!547 = !DISubprogram(name: "set_now", linkageName: "_ZN9Timestamp7set_nowEv", scope: !394, file: !395, line: 417, type: !405, scopeLine: 417, flags: DIFlagPublic | DIFlagPrototyped, spFlags: DISPFlagOptimized)
!548 = !DISubprogram(name: "set_timeval_ioctl", linkageName: "_ZN9Timestamp17set_timeval_ioctlEii", scope: !394, file: !395, line: 420, type: !549, scopeLine: 420, flags: DIFlagPublic | DIFlagPrototyped, spFlags: DISPFlagOptimized)
!549 = !DISubroutineType(types: !550)
!550 = !{!36, !407, !36, !36}
!551 = !DISubprogram(name: "now", linkageName: "_ZN9Timestamp3nowEv", scope: !394, file: !395, line: 432, type: !536, scopeLine: 432, flags: DIFlagPublic | DIFlagPrototyped | DIFlagStaticMember, spFlags: DISPFlagOptimized)
!552 = !DISubprogram(name: "assign_now", linkageName: "_ZN9Timestamp10assign_nowEv", scope: !394, file: !395, line: 438, type: !405, scopeLine: 438, flags: DIFlagPublic | DIFlagPrototyped, spFlags: DISPFlagOptimized)
!553 = !DISubprogram(name: "recent", linkageName: "_ZN9Timestamp6recentEv", scope: !394, file: !395, line: 446, type: !536, scopeLine: 446, flags: DIFlagPublic | DIFlagPrototyped | DIFlagStaticMember, spFlags: DISPFlagOptimized)
!554 = !DISubprogram(name: "assign_recent", linkageName: "_ZN9Timestamp13assign_recentEv", scope: !394, file: !395, line: 452, type: !405, scopeLine: 452, flags: DIFlagPublic | DIFlagPrototyped, spFlags: DISPFlagOptimized)
!555 = !DISubprogram(name: "now_steady", linkageName: "_ZN9Timestamp10now_steadyEv", scope: !394, file: !395, line: 466, type: !536, scopeLine: 466, flags: DIFlagPublic | DIFlagPrototyped | DIFlagStaticMember, spFlags: DISPFlagOptimized)
!556 = !DISubprogram(name: "assign_now_steady", linkageName: "_ZN9Timestamp17assign_now_steadyEv", scope: !394, file: !395, line: 472, type: !405, scopeLine: 472, flags: DIFlagPublic | DIFlagPrototyped, spFlags: DISPFlagOptimized)
!557 = !DISubprogram(name: "recent_steady", linkageName: "_ZN9Timestamp13recent_steadyEv", scope: !394, file: !395, line: 481, type: !536, scopeLine: 481, flags: DIFlagPublic | DIFlagPrototyped | DIFlagStaticMember, spFlags: DISPFlagOptimized)
!558 = !DISubprogram(name: "assign_recent_steady", linkageName: "_ZN9Timestamp20assign_recent_steadyEv", scope: !394, file: !395, line: 487, type: !405, scopeLine: 487, flags: DIFlagPublic | DIFlagPrototyped, spFlags: DISPFlagOptimized)
!559 = !DISubprogram(name: "unparse", linkageName: "_ZNK9Timestamp7unparseEv", scope: !394, file: !395, line: 496, type: !560, scopeLine: 496, flags: DIFlagPublic | DIFlagPrototyped, spFlags: DISPFlagOptimized)
!560 = !DISubroutineType(types: !561)
!561 = !{!562, !469}
!562 = distinct !DICompositeType(tag: DW_TAG_class_type, name: "String", file: !563, line: 19, size: 192, flags: DIFlagTypePassByReference | DIFlagNonTrivial, elements: !564, identifier: "_ZTS6String")
!563 = !DIFile(filename: "../dummy_inc/click/string.hh", directory: "/home/john/projects/click/ir-dir")
