; ModuleID = '../elements/ethernet/ip6ndadvertiser.cc'
source_filename = "../elements/ethernet/ip6ndadvertiser.cc"
target datalayout = "e-m:e-p270:32:32-p271:32:32-p272:64:64-i64:64-f80:128-n8:16:32:64-S128"
target triple = "x86_64-pc-linux-gnu"

%class.IP6NDAdvertiser = type { %class.Element.base, %class.Vector }
%class.Element.base = type <{ i32 (...)**, [2 x %"class.Element::Port"*], [4 x %"class.Element::Port"], [2 x i32], %class.Router*, i32 }>
%"class.Element::Port" = type <{ %class.Element*, i32, [4 x i8] }>
%class.Element = type <{ i32 (...)**, [2 x %"class.Element::Port"*], [4 x %"class.Element::Port"], [2 x i32], %class.Router*, i32, [4 x i8] }>
%class.Router = type opaque
%class.Vector = type { %class.vector_memory }
%class.vector_memory = type { %struct.char_array*, i32, i32 }
%struct.char_array = type { [40 x i8] }
%class.IP6Address = type { %struct.in6_addr }
%struct.in6_addr = type { %union.anon }
%union.anon = type { [4 x i32] }
%class.EtherAddress = type { [3 x i16] }
%"struct.IP6NDAdvertiser::Entry" = type <{ %class.IP6Address, %class.IP6Address, %class.EtherAddress, [2 x i8] }>
%class.Vector.0 = type { %class.vector_memory.1 }
%class.vector_memory.1 = type { %class.String*, i32, i32 }
%class.String = type { %"struct.String::rep_t" }
%"struct.String::rep_t" = type { i8*, i32, %"struct.String::memo_t"* }
%"struct.String::memo_t" = type { i32, i32, i32, [8 x i8] }
%class.ErrorHandler = type <{ i32 (...)**, i32, [4 x i8] }>
%class.ArgContext = type <{ %class.Element*, %class.ErrorHandler*, i8*, i8, [7 x i8] }>
%class.EtherAddressArg = type { i32 }
%class.Packet = type { %class.atomic_uint32_t, %class.Packet*, i8*, i8*, i8*, i8*, %"struct.Packet::AllAnno", void (i8*, i64, i8*)*, i8* }
%class.atomic_uint32_t = type { i32 }
%"struct.Packet::AllAnno" = type { %"union.Packet::Anno", i8*, i8*, i8*, i32, [8 x i8], %class.Packet*, %class.Packet* }
%"union.Packet::Anno" = type { [6 x i64] }
%class.WritablePacket = type { %class.Packet }
%class.Task = type opaque
%class.Timer = type opaque

$_ZNK15IP6NDAdvertiser10class_nameEv = comdat any

$_ZNK15IP6NDAdvertiser10port_countEv = comdat any

$__clang_call_terminate = comdat any

$_ZN13vector_memoryI18sized_array_memoryILm40EEE21reserve_and_push_backEiPK10char_arrayILm40EE = comdat any

@_ZTV15IP6NDAdvertiser = dso_local unnamed_addr constant { [29 x i8*] } { [29 x i8*] [i8* null, i8* bitcast ({ i8*, i8*, i8* }* @_ZTI15IP6NDAdvertiser to i8*), i8* bitcast (void (%class.IP6NDAdvertiser*)* @_ZN15IP6NDAdvertiserD2Ev to i8*), i8* bitcast (void (%class.IP6NDAdvertiser*)* @_ZN15IP6NDAdvertiserD0Ev to i8*), i8* bitcast (void (%class.Element*, i32, %class.Packet*)* @_ZN7Element4pushEiP6Packet to i8*), i8* bitcast (%class.Packet* (%class.Element*, i32)* @_ZN7Element4pullEi to i8*), i8* bitcast (%class.Packet* (%class.IP6NDAdvertiser*, %class.Packet*)* @_ZN15IP6NDAdvertiser13simple_actionEP6Packet to i8*), i8* bitcast (i1 (%class.Element*, %class.Task*)* @_ZN7Element8run_taskEP4Task to i8*), i8* bitcast (void (%class.Element*, %class.Timer*)* @_ZN7Element9run_timerEP5Timer to i8*), i8* bitcast (void (%class.Element*, i32, i32)* @_ZN7Element8selectedEii to i8*), i8* bitcast (void (%class.Element*, i32)* @_ZN7Element8selectedEi to i8*), i8* bitcast (i8* (%class.IP6NDAdvertiser*)* @_ZNK15IP6NDAdvertiser10class_nameEv to i8*), i8* bitcast (i8* (%class.IP6NDAdvertiser*)* @_ZNK15IP6NDAdvertiser10port_countEv to i8*), i8* bitcast (i8* (%class.Element*)* @_ZNK7Element10processingEv to i8*), i8* bitcast (i8* (%class.Element*)* @_ZNK7Element9flow_codeEv to i8*), i8* bitcast (i8* (%class.Element*)* @_ZNK7Element5flagsEv to i8*), i8* bitcast (i8* (%class.Element*, i8*)* @_ZN7Element4castEPKc to i8*), i8* bitcast (i8* (%class.Element*, i1, i32, i8*)* @_ZN7Element9port_castEbiPKc to i8*), i8* bitcast (i32 (%class.Element*)* @_ZNK7Element15configure_phaseEv to i8*), i8* bitcast (i32 (%class.IP6NDAdvertiser*, %class.Vector.0*, %class.ErrorHandler*)* @_ZN15IP6NDAdvertiser9configureER6VectorI6StringEP12ErrorHandler to i8*), i8* bitcast (void (%class.Element*)* @_ZN7Element12add_handlersEv to i8*), i8* bitcast (i32 (%class.Element*, %class.ErrorHandler*)* @_ZN7Element10initializeEP12ErrorHandler to i8*), i8* bitcast (void (%class.Element*, %class.Element*, %class.ErrorHandler*)* @_ZN7Element10take_stateEPS_P12ErrorHandler to i8*), i8* bitcast (%class.Element* (%class.Element*)* @_ZNK7Element15hotswap_elementEv to i8*), i8* bitcast (void (%class.Element*, i32)* @_ZN7Element7cleanupENS_12CleanupStageE to i8*), i8* bitcast (void (%class.String*, %class.Element*)* @_ZNK7Element11declarationEv to i8*), i8* bitcast (i1 (%class.Element*)* @_ZNK7Element20can_live_reconfigureEv to i8*), i8* bitcast (i32 (%class.Element*, %class.Vector.0*, %class.ErrorHandler*)* @_ZN7Element16live_reconfigureER6VectorI6StringEP12ErrorHandler to i8*), i8* bitcast (i32 (%class.Element*, i32, i8*)* @_ZN7Element5llrpcEjPv to i8*)] }, align 8
@.str = private unnamed_addr constant [40 x i8] c"ffff:ffff:ffff:ffff:ffff:ffff:ffff:ffff\00", align 1
@.str.1 = private unnamed_addr constant [47 x i8] c"argument %d has more than one Ethernet address\00", align 1
@.str.2 = private unnamed_addr constant [41 x i8] c"argument %d should be `IP6/MASK ETHADDR'\00", align 1
@.str.3 = private unnamed_addr constant [41 x i8] c"argument %d had no IP6 address and masks\00", align 1
@.str.4 = private unnamed_addr constant [30 x i8] c"in NDadv: cannot make packet!\00", align 1
@.str.5 = private unnamed_addr constant [2 x i8] c"0\00", align 1
@.str.6 = private unnamed_addr constant [40 x i8] c"../elements/ethernet/ip6ndadvertiser.cc\00", align 1
@__PRETTY_FUNCTION__._ZN15IP6NDAdvertiser13make_responseEPhS0_S0_S0_S0_S0_ = private unnamed_addr constant [99 x i8] c"Packet *IP6NDAdvertiser::make_response(u_char *, u_char *, u_char *, u_char *, u_char *, u_char *)\00", align 1
@.str.7 = private unnamed_addr constant [40 x i8] c"in IP6NDAdvertiser: cannot make packet!\00", align 1
@__PRETTY_FUNCTION__._ZN15IP6NDAdvertiser14make_response2EPhS0_S0_S0_S0_ = private unnamed_addr constant [90 x i8] c"Packet *IP6NDAdvertiser::make_response2(u_char *, u_char *, u_char *, u_char *, u_char *)\00", align 1
@_ZTVN10__cxxabiv120__si_class_type_infoE = external global i8*
@_ZTS15IP6NDAdvertiser = dso_local constant [18 x i8] c"15IP6NDAdvertiser\00", align 1
@_ZTI7Element = external constant i8*
@_ZTI15IP6NDAdvertiser = dso_local constant { i8*, i8*, i8* } { i8* bitcast (i8** getelementptr inbounds (i8*, i8** @_ZTVN10__cxxabiv120__si_class_type_infoE, i64 2) to i8*), i8* getelementptr inbounds ([18 x i8], [18 x i8]* @_ZTS15IP6NDAdvertiser, i32 0, i32 0), i8* bitcast (i8** @_ZTI7Element to i8*) }, align 8
@.str.8 = private unnamed_addr constant [18 x i8] c"_r.memo->refcount\00", align 1
@.str.9 = private unnamed_addr constant [29 x i8] c"../dummy_inc/click/string.hh\00", align 1
@__PRETTY_FUNCTION__._ZNK6String5derefEv = private unnamed_addr constant [27 x i8] c"void String::deref() const\00", align 1
@.str.10 = private unnamed_addr constant [16 x i8] c"IP6NDAdvertiser\00", align 1
@_ZN7Element9PORTS_1_1E = external constant [0 x i8], align 1

@_ZN15IP6NDAdvertiserC1Ev = dso_local unnamed_addr alias void (%class.IP6NDAdvertiser*), void (%class.IP6NDAdvertiser*)* @_ZN15IP6NDAdvertiserC2Ev
@_ZN15IP6NDAdvertiserD1Ev = dso_local unnamed_addr alias void (%class.IP6NDAdvertiser*), void (%class.IP6NDAdvertiser*)* @_ZN15IP6NDAdvertiserD2Ev

; Function Attrs: sspstrong uwtable
define dso_local void @_ZN15IP6NDAdvertiserC2Ev(%class.IP6NDAdvertiser* %0) unnamed_addr #0 align 2 personality i8* bitcast (i32 (...)* @__gxx_personality_v0 to i8*) !dbg !2355 {
  call void @llvm.dbg.value(metadata %class.IP6NDAdvertiser* %0, metadata !2511, metadata !DIExpression()), !dbg !2513
  %2 = bitcast %class.IP6NDAdvertiser* %0 to %class.Element*, !dbg !2514
  tail call void @_ZN7ElementC2Ev(%class.Element* %2), !dbg !2515
  %3 = getelementptr %class.IP6NDAdvertiser, %class.IP6NDAdvertiser* %0, i64 0, i32 0, i32 0, !dbg !2514
  store i32 (...)** bitcast (i8** getelementptr inbounds ({ [29 x i8*] }, { [29 x i8*] }* @_ZTV15IP6NDAdvertiser, i64 0, inrange i32 0, i64 2) to i32 (...)**), i32 (...)*** %3, align 8, !dbg !2514, !tbaa !2516
  %4 = getelementptr inbounds %class.IP6NDAdvertiser, %class.IP6NDAdvertiser* %0, i64 0, i32 1, !dbg !2515
  call void @llvm.dbg.value(metadata %class.Vector* %4, metadata !2519, metadata !DIExpression()), !dbg !2523
  call void @llvm.dbg.value(metadata %class.Vector* %4, metadata !2525, metadata !DIExpression()) #10, !dbg !2529
  %5 = bitcast %class.Vector* %4 to i8*, !dbg !2531
  tail call void @llvm.memset.p0i8.i64(i8* nonnull align 8 dereferenceable(16) %5, i8 0, i64 16, i1 false) #10, !dbg !2532
  ret void, !dbg !2533
}

; Function Attrs: nounwind readnone speculatable willreturn
declare void @llvm.dbg.declare(metadata, metadata, metadata) #1

declare void @_ZN7ElementC2Ev(%class.Element*) unnamed_addr #2

declare i32 @__gxx_personality_v0(...)

; Function Attrs: nounwind
declare void @_ZN7ElementD2Ev(%class.Element*) unnamed_addr #3

; Function Attrs: nounwind sspstrong uwtable
define dso_local void @_ZN15IP6NDAdvertiserD2Ev(%class.IP6NDAdvertiser* %0) unnamed_addr #4 align 2 personality i32 (...)* @__gxx_personality_v0 !dbg !2534 {
  call void @llvm.dbg.value(metadata %class.IP6NDAdvertiser* %0, metadata !2536, metadata !DIExpression()), !dbg !2537
  %2 = getelementptr %class.IP6NDAdvertiser, %class.IP6NDAdvertiser* %0, i64 0, i32 0, i32 0, !dbg !2538
  store i32 (...)** bitcast (i8** getelementptr inbounds ({ [29 x i8*] }, { [29 x i8*] }* @_ZTV15IP6NDAdvertiser, i64 0, inrange i32 0, i64 2) to i32 (...)**), i32 (...)*** %2, align 8, !dbg !2538, !tbaa !2516
  %3 = getelementptr inbounds %class.IP6NDAdvertiser, %class.IP6NDAdvertiser* %0, i64 0, i32 1, !dbg !2539
  call void @llvm.dbg.value(metadata %class.Vector* %3, metadata !2541, metadata !DIExpression()) #10, !dbg !2545
  call void @llvm.dbg.value(metadata %class.Vector* %3, metadata !2547, metadata !DIExpression()) #10, !dbg !2551
  %4 = bitcast %class.Vector* %3 to i8**, !dbg !2554
  %5 = load i8*, i8** %4, align 8, !dbg !2556, !tbaa !2557
  %6 = icmp eq i8* %5, null, !dbg !2556
  br i1 %6, label %8, label %7, !dbg !2556

7:                                                ; preds = %1
  tail call void @_ZdaPv(i8* nonnull %5) #11, !dbg !2556
  br label %8, !dbg !2556

8:                                                ; preds = %1, %7
  %9 = bitcast %class.IP6NDAdvertiser* %0 to %class.Element*, !dbg !2539
  tail call void @_ZN7ElementD2Ev(%class.Element* %9) #10, !dbg !2539
  ret void, !dbg !2562
}

; Function Attrs: nounwind sspstrong uwtable
define dso_local void @_ZN15IP6NDAdvertiserD0Ev(%class.IP6NDAdvertiser* %0) unnamed_addr #4 align 2 personality i32 (...)* @__gxx_personality_v0 !dbg !2563 {
  call void @llvm.dbg.value(metadata %class.IP6NDAdvertiser* %0, metadata !2565, metadata !DIExpression()), !dbg !2566
  call void @llvm.dbg.value(metadata %class.IP6NDAdvertiser* %0, metadata !2536, metadata !DIExpression()) #10, !dbg !2567
  %2 = getelementptr %class.IP6NDAdvertiser, %class.IP6NDAdvertiser* %0, i64 0, i32 0, i32 0, !dbg !2569
  store i32 (...)** bitcast (i8** getelementptr inbounds ({ [29 x i8*] }, { [29 x i8*] }* @_ZTV15IP6NDAdvertiser, i64 0, inrange i32 0, i64 2) to i32 (...)**), i32 (...)*** %2, align 8, !dbg !2569, !tbaa !2516
  %3 = getelementptr inbounds %class.IP6NDAdvertiser, %class.IP6NDAdvertiser* %0, i64 0, i32 1, !dbg !2570
  call void @llvm.dbg.value(metadata %class.Vector* %3, metadata !2541, metadata !DIExpression()) #10, !dbg !2571
  call void @llvm.dbg.value(metadata %class.Vector* %3, metadata !2547, metadata !DIExpression()) #10, !dbg !2573
  %4 = bitcast %class.Vector* %3 to i8**, !dbg !2575
  %5 = load i8*, i8** %4, align 8, !dbg !2576, !tbaa !2557
  %6 = icmp eq i8* %5, null, !dbg !2576
  br i1 %6, label %8, label %7, !dbg !2576

7:                                                ; preds = %1
  tail call void @_ZdaPv(i8* nonnull %5) #11, !dbg !2576
  br label %8, !dbg !2576

8:                                                ; preds = %1, %7
  %9 = bitcast %class.IP6NDAdvertiser* %0 to %class.Element*, !dbg !2570
  tail call void @_ZN7ElementD2Ev(%class.Element* %9) #10, !dbg !2570
  %10 = bitcast %class.IP6NDAdvertiser* %0 to i8*, !dbg !2577
  tail call void @_ZdlPv(i8* %10) #11, !dbg !2577
  ret void, !dbg !2578
}

; Function Attrs: nobuiltin nounwind
declare void @_ZdlPv(i8*) local_unnamed_addr #5

; Function Attrs: sspstrong uwtable
define dso_local void @_ZN15IP6NDAdvertiser7add_mapERK10IP6AddressS2_RK12EtherAddress(%class.IP6NDAdvertiser* %0, %class.IP6Address* nocapture readonly dereferenceable(16) %1, %class.IP6Address* nocapture readonly dereferenceable(16) %2, %class.EtherAddress* nocapture readonly dereferenceable(6) %3) local_unnamed_addr #0 align 2 !dbg !2579 {
  %5 = alloca %"struct.IP6NDAdvertiser::Entry", align 4
  call void @llvm.dbg.value(metadata %class.IP6NDAdvertiser* %0, metadata !2581, metadata !DIExpression()), !dbg !2586
  call void @llvm.dbg.value(metadata %class.IP6Address* %1, metadata !2582, metadata !DIExpression()), !dbg !2586
  call void @llvm.dbg.value(metadata %class.IP6Address* %2, metadata !2583, metadata !DIExpression()), !dbg !2586
  call void @llvm.dbg.value(metadata %class.EtherAddress* %3, metadata !2584, metadata !DIExpression()), !dbg !2586
  %6 = bitcast %"struct.IP6NDAdvertiser::Entry"* %5 to i8*, !dbg !2587
  call void @llvm.lifetime.start.p0i8(i64 40, i8* nonnull %6) #10, !dbg !2587
  call void @llvm.dbg.declare(metadata %"struct.IP6NDAdvertiser::Entry"* %5, metadata !2585, metadata !DIExpression()), !dbg !2588
  %7 = bitcast %class.IP6Address* %1 to i8*, !dbg !2589
  call void @llvm.memcpy.p0i8.p0i8.i64(i8* nonnull align 4 dereferenceable(16) %6, i8* nonnull align 4 dereferenceable(16) %7, i64 16, i1 false), !dbg !2589, !tbaa.struct !2590
  %8 = getelementptr inbounds %"struct.IP6NDAdvertiser::Entry", %"struct.IP6NDAdvertiser::Entry"* %5, i64 0, i32 1, !dbg !2592
  %9 = bitcast %class.IP6Address* %8 to i8*, !dbg !2593
  %10 = bitcast %class.IP6Address* %2 to i8*, !dbg !2593
  call void @llvm.memcpy.p0i8.p0i8.i64(i8* nonnull align 4 dereferenceable(16) %9, i8* nonnull align 4 dereferenceable(16) %10, i64 16, i1 false), !dbg !2593, !tbaa.struct !2590
  %11 = getelementptr inbounds %"struct.IP6NDAdvertiser::Entry", %"struct.IP6NDAdvertiser::Entry"* %5, i64 0, i32 2, !dbg !2594
  %12 = bitcast %class.EtherAddress* %11 to i8*, !dbg !2595
  %13 = bitcast %class.EtherAddress* %3 to i8*, !dbg !2595
  call void @llvm.memcpy.p0i8.p0i8.i64(i8* nonnull align 4 dereferenceable(6) %12, i8* nonnull align 1 dereferenceable(6) %13, i64 6, i1 false), !dbg !2595, !tbaa.struct !2596
  %14 = getelementptr inbounds %class.IP6NDAdvertiser, %class.IP6NDAdvertiser* %0, i64 0, i32 1, !dbg !2597
  call void @llvm.dbg.value(metadata %class.Vector* %14, metadata !2598, metadata !DIExpression()), !dbg !2602
  call void @llvm.dbg.value(metadata %"struct.IP6NDAdvertiser::Entry"* %5, metadata !2601, metadata !DIExpression()), !dbg !2602
  call void @llvm.dbg.value(metadata %"struct.IP6NDAdvertiser::Entry"* %5, metadata !2604, metadata !DIExpression()), !dbg !2610
  call void @llvm.dbg.value(metadata %class.Vector* %14, metadata !2612, metadata !DIExpression()), !dbg !2616
  call void @llvm.dbg.value(metadata %"struct.IP6NDAdvertiser::Entry"* %5, metadata !2615, metadata !DIExpression()), !dbg !2616
  %15 = getelementptr inbounds %class.IP6NDAdvertiser, %class.IP6NDAdvertiser* %0, i64 0, i32 1, i32 0, i32 1, !dbg !2618
  %16 = load i32, i32* %15, align 8, !dbg !2618, !tbaa !2620
  %17 = getelementptr inbounds %class.IP6NDAdvertiser, %class.IP6NDAdvertiser* %0, i64 0, i32 1, i32 0, i32 2, !dbg !2621
  %18 = load i32, i32* %17, align 4, !dbg !2621, !tbaa !2622
  %19 = icmp slt i32 %16, %18, !dbg !2623
  br i1 %19, label %20, label %27, !dbg !2624

20:                                               ; preds = %4
  %21 = getelementptr inbounds %class.Vector, %class.Vector* %14, i64 0, i32 0, i32 0, !dbg !2625
  %22 = load %struct.char_array*, %struct.char_array** %21, align 8, !dbg !2625, !tbaa !2557
  %23 = sext i32 %16 to i64, !dbg !2627
  %24 = getelementptr inbounds %struct.char_array, %struct.char_array* %22, i64 %23, i32 0, i64 0, !dbg !2628
  call void @llvm.dbg.value(metadata i8* %6, metadata !2629, metadata !DIExpression()) #10, !dbg !2634
  call void @llvm.dbg.value(metadata i8* %24, metadata !2632, metadata !DIExpression()) #10, !dbg !2634
  call void @llvm.dbg.value(metadata i64 undef, metadata !2633, metadata !DIExpression()) #10, !dbg !2634
  call void @llvm.memcpy.p0i8.p0i8.i64(i8* nonnull align 1 dereferenceable(40) %24, i8* nonnull align 4 dereferenceable(40) %6, i64 40, i1 false) #10, !dbg !2636
  call void @llvm.dbg.value(metadata i64 undef, metadata !2633, metadata !DIExpression(DW_OP_constu, 1, DW_OP_minus, DW_OP_stack_value)) #10, !dbg !2634
  %25 = load i32, i32* %15, align 8, !dbg !2639, !tbaa !2620
  %26 = add nsw i32 %25, 1, !dbg !2639
  store i32 %26, i32* %15, align 8, !dbg !2639, !tbaa !2620
  br label %31, !dbg !2640

27:                                               ; preds = %4
  %28 = bitcast %"struct.IP6NDAdvertiser::Entry"* %5 to %struct.char_array*, !dbg !2641
  call void @llvm.dbg.value(metadata %struct.char_array* %28, metadata !2615, metadata !DIExpression()), !dbg !2616
  %29 = getelementptr inbounds %class.Vector, %class.Vector* %14, i64 0, i32 0, !dbg !2642
  call void @llvm.dbg.value(metadata %class.vector_memory* %29, metadata !2612, metadata !DIExpression()), !dbg !2616
  %30 = call zeroext i1 @_ZN13vector_memoryI18sized_array_memoryILm40EEE21reserve_and_push_backEiPK10char_arrayILm40EE(%class.vector_memory* nonnull %29, i32 -1, %struct.char_array* nonnull %28), !dbg !2643
  br label %31

31:                                               ; preds = %20, %27
  call void @llvm.lifetime.end.p0i8(i64 40, i8* nonnull %6) #10, !dbg !2644
  ret void, !dbg !2644
}

; Function Attrs: argmemonly nounwind willreturn
declare void @llvm.lifetime.start.p0i8(i64 immarg, i8* nocapture) #6

; Function Attrs: argmemonly nounwind willreturn
declare void @llvm.memcpy.p0i8.p0i8.i64(i8* noalias nocapture writeonly, i8* noalias nocapture readonly, i64, i1 immarg) #6

; Function Attrs: argmemonly nounwind willreturn
declare void @llvm.lifetime.end.p0i8(i64 immarg, i8* nocapture) #6

; Function Attrs: sspstrong uwtable
define dso_local i32 @_ZN15IP6NDAdvertiser9configureER6VectorI6StringEP12ErrorHandler(%class.IP6NDAdvertiser* %0, %class.Vector.0* dereferenceable(16) %1, %class.ErrorHandler* %2) unnamed_addr #0 align 2 personality i8* bitcast (i32 (...)* @__gxx_personality_v0 to i8*) !dbg !2645 {
  %4 = alloca %"struct.IP6NDAdvertiser::Entry", align 4
  call void @llvm.dbg.declare(metadata %"struct.IP6NDAdvertiser::Entry"* %4, metadata !2585, metadata !DIExpression()), !dbg !2664
  %5 = alloca %"struct.IP6NDAdvertiser::Entry", align 4
  call void @llvm.dbg.declare(metadata %"struct.IP6NDAdvertiser::Entry"* %5, metadata !2585, metadata !DIExpression()), !dbg !2669
  %6 = alloca %class.IP6Address, align 4
  %7 = alloca %class.IP6Address, align 4
  %8 = alloca %class.EtherAddress, align 2
  %9 = alloca %class.Vector.0, align 8
  %10 = alloca %class.IP6Address, align 4
  %11 = alloca %class.String, align 8
  %12 = alloca %class.ArgContext, align 8
  call void @llvm.dbg.value(metadata %class.IP6NDAdvertiser* %0, metadata !2647, metadata !DIExpression()), !dbg !2671
  call void @llvm.dbg.value(metadata %class.Vector.0* %1, metadata !2648, metadata !DIExpression()), !dbg !2671
  call void @llvm.dbg.value(metadata %class.ErrorHandler* %2, metadata !2649, metadata !DIExpression()), !dbg !2671
  %13 = getelementptr inbounds %class.IP6NDAdvertiser, %class.IP6NDAdvertiser* %0, i64 0, i32 1, !dbg !2672
  call void @llvm.dbg.value(metadata %class.Vector* %13, metadata !2673, metadata !DIExpression()), !dbg !2676
  call void @llvm.dbg.value(metadata %class.Vector* %13, metadata !2678, metadata !DIExpression()), !dbg !2681
  %14 = getelementptr inbounds %class.IP6NDAdvertiser, %class.IP6NDAdvertiser* %0, i64 0, i32 1, i32 0, i32 1, !dbg !2683
  store i32 0, i32* %14, align 8, !dbg !2684, !tbaa !2620
  call void @llvm.dbg.value(metadata i32 0, metadata !2650, metadata !DIExpression()), !dbg !2685
  call void @llvm.dbg.value(metadata %class.Vector.0* %1, metadata !2686, metadata !DIExpression()), !dbg !2690
  %15 = getelementptr inbounds %class.Vector.0, %class.Vector.0* %1, i64 0, i32 0, i32 1, !dbg !2692
  %16 = load i32, i32* %15, align 8, !dbg !2692, !tbaa !2693
  %17 = icmp sgt i32 %16, 0, !dbg !2696
  br i1 %17, label %18, label %56, !dbg !2697

18:                                               ; preds = %3
  %19 = bitcast %class.IP6Address* %6 to i8*, !dbg !2698
  %20 = bitcast %class.IP6Address* %7 to i8*, !dbg !2698
  %21 = bitcast %class.EtherAddress* %8 to i8*, !dbg !2698
  %22 = getelementptr inbounds %class.EtherAddress, %class.EtherAddress* %8, i64 0, i32 0, i64 2, !dbg !2699
  %23 = getelementptr inbounds %class.EtherAddress, %class.EtherAddress* %8, i64 0, i32 0, i64 1, !dbg !2699
  %24 = getelementptr inbounds %class.EtherAddress, %class.EtherAddress* %8, i64 0, i32 0, i64 0, !dbg !2699
  %25 = bitcast %class.Vector.0* %9 to i8*, !dbg !2698
  %26 = getelementptr inbounds %class.Vector.0, %class.Vector.0* %9, i64 0, i32 0, i32 1, !dbg !2706
  %27 = bitcast %class.IP6NDAdvertiser* %0 to %class.Element*, !dbg !2708
  %28 = bitcast %class.ArgContext* %12 to i8*, !dbg !2709
  %29 = bitcast %class.ArgContext* %12 to %class.IP6NDAdvertiser**, !dbg !2711
  %30 = getelementptr inbounds %class.ArgContext, %class.ArgContext* %12, i64 0, i32 1, !dbg !2711
  %31 = bitcast %class.IP6Address* %10 to i8*, !dbg !2757
  %32 = bitcast %class.String* %11 to i8*, !dbg !2757
  %33 = getelementptr inbounds %class.String, %class.String* %11, i64 0, i32 0, i32 0, !dbg !2758
  %34 = getelementptr inbounds %class.String, %class.String* %11, i64 0, i32 0, i32 1, !dbg !2758
  %35 = getelementptr inbounds %class.String, %class.String* %11, i64 0, i32 0, i32 2, !dbg !2773
  %36 = bitcast %"struct.IP6NDAdvertiser::Entry"* %4 to i8*, !dbg !2775
  %37 = getelementptr inbounds %"struct.IP6NDAdvertiser::Entry", %"struct.IP6NDAdvertiser::Entry"* %4, i64 0, i32 1, !dbg !2775
  %38 = bitcast %class.IP6Address* %37 to i8*, !dbg !2775
  %39 = getelementptr inbounds %"struct.IP6NDAdvertiser::Entry", %"struct.IP6NDAdvertiser::Entry"* %4, i64 0, i32 2, i32 0, i64 0, !dbg !2775
  %40 = getelementptr inbounds %"struct.IP6NDAdvertiser::Entry", %"struct.IP6NDAdvertiser::Entry"* %4, i64 0, i32 2, i32 0, i64 1, !dbg !2775
  %41 = getelementptr inbounds %"struct.IP6NDAdvertiser::Entry", %"struct.IP6NDAdvertiser::Entry"* %4, i64 0, i32 2, i32 0, i64 2, !dbg !2775
  %42 = getelementptr inbounds %class.IP6NDAdvertiser, %class.IP6NDAdvertiser* %0, i64 0, i32 1, i32 0, i32 2, !dbg !2776
  %43 = bitcast %"struct.IP6NDAdvertiser::Entry"* %4 to %struct.char_array*, !dbg !2779
  %44 = getelementptr inbounds %class.Vector, %class.Vector* %13, i64 0, i32 0, !dbg !2781
  %45 = getelementptr inbounds %class.Vector, %class.Vector* %13, i64 0, i32 0, i32 0, !dbg !2782
  %46 = bitcast %"struct.IP6NDAdvertiser::Entry"* %5 to i8*, !dbg !2783
  %47 = getelementptr inbounds %"struct.IP6NDAdvertiser::Entry", %"struct.IP6NDAdvertiser::Entry"* %5, i64 0, i32 1, !dbg !2783
  %48 = bitcast %class.IP6Address* %47 to i8*, !dbg !2783
  %49 = getelementptr inbounds %"struct.IP6NDAdvertiser::Entry", %"struct.IP6NDAdvertiser::Entry"* %5, i64 0, i32 2, i32 0, i64 0, !dbg !2783
  %50 = getelementptr inbounds %"struct.IP6NDAdvertiser::Entry", %"struct.IP6NDAdvertiser::Entry"* %5, i64 0, i32 2, i32 0, i64 1, !dbg !2783
  %51 = getelementptr inbounds %"struct.IP6NDAdvertiser::Entry", %"struct.IP6NDAdvertiser::Entry"* %5, i64 0, i32 2, i32 0, i64 2, !dbg !2783
  %52 = bitcast %"struct.IP6NDAdvertiser::Entry"* %5 to %struct.char_array*, !dbg !2784
  %53 = getelementptr inbounds %class.Vector.0, %class.Vector.0* %9, i64 0, i32 0, i32 0, !dbg !2787
  %54 = bitcast %class.Vector.0* %9 to i8**, !dbg !2787
  %55 = bitcast %class.ErrorHandler** %30 to i8*, !dbg !2801
  br label %61, !dbg !2697

56:                                               ; preds = %235, %3
  call void @llvm.dbg.value(metadata %class.ErrorHandler* %2, metadata !3115, metadata !DIExpression()), !dbg !3124
  %57 = getelementptr inbounds %class.ErrorHandler, %class.ErrorHandler* %2, i64 0, i32 1, !dbg !3126
  %58 = load i32, i32* %57, align 8, !dbg !3126, !tbaa !3127
  %59 = icmp ne i32 %58, 0, !dbg !3129
  %60 = sext i1 %59 to i32, !dbg !3129
  ret i32 %60, !dbg !3130

61:                                               ; preds = %239, %18
  %62 = phi i32 [ 0, %18 ], [ %240, %239 ], !dbg !3131
  %63 = phi i32 [ 0, %18 ], [ %236, %239 ]
  call void @llvm.dbg.value(metadata i32 %63, metadata !2650, metadata !DIExpression()), !dbg !2685
  call void @llvm.lifetime.start.p0i8(i64 16, i8* nonnull %19) #10, !dbg !3137
  call void @llvm.dbg.declare(metadata %class.IP6Address* %6, metadata !2652, metadata !DIExpression()), !dbg !3138
  call void @llvm.dbg.value(metadata %class.IP6Address* %6, metadata !3139, metadata !DIExpression()) #10, !dbg !3142
  call void @llvm.memset.p0i8.i64(i8* nonnull align 4 dereferenceable(16) %19, i8 0, i64 16, i1 false) #10, !dbg !3144
  call void @llvm.lifetime.start.p0i8(i64 16, i8* nonnull %20) #10, !dbg !3137
  call void @llvm.dbg.declare(metadata %class.IP6Address* %7, metadata !2655, metadata !DIExpression()), !dbg !3146
  call void @llvm.dbg.value(metadata %class.IP6Address* %7, metadata !3139, metadata !DIExpression()) #10, !dbg !3147
  call void @llvm.memset.p0i8.i64(i8* nonnull align 4 dereferenceable(16) %20, i8 0, i64 16, i1 false) #10, !dbg !3149
  call void @llvm.lifetime.start.p0i8(i64 6, i8* nonnull %21) #10, !dbg !3150
  call void @llvm.dbg.declare(metadata %class.EtherAddress* %8, metadata !2656, metadata !DIExpression()), !dbg !3151
  call void @llvm.dbg.value(metadata %class.EtherAddress* %8, metadata !2703, metadata !DIExpression()), !dbg !3152
  store i16 0, i16* %22, align 2, !dbg !3153, !tbaa !3154
  store i16 0, i16* %23, align 2, !dbg !3156, !tbaa !3154
  store i16 0, i16* %24, align 2, !dbg !3157, !tbaa !3154
  call void @llvm.dbg.value(metadata i8 0, metadata !2657, metadata !DIExpression()), !dbg !2698
  call void @llvm.dbg.value(metadata %class.Vector* %13, metadata !3134, metadata !DIExpression()), !dbg !3158
  call void @llvm.dbg.value(metadata i32 %62, metadata !2658, metadata !DIExpression()), !dbg !2698
  call void @llvm.lifetime.start.p0i8(i64 16, i8* nonnull %25) #10, !dbg !3159
  call void @llvm.dbg.declare(metadata %class.Vector.0* %9, metadata !2659, metadata !DIExpression()), !dbg !3160
  call void @llvm.dbg.value(metadata %class.Vector.0* %9, metadata !3161, metadata !DIExpression()), !dbg !3164
  call void @llvm.dbg.value(metadata %class.Vector.0* %9, metadata !3166, metadata !DIExpression()) #10, !dbg !3169
  call void @llvm.memset.p0i8.i64(i8* nonnull align 8 dereferenceable(16) %25, i8 0, i64 16, i1 false) #10, !dbg !3171
  %64 = invoke dereferenceable(24) %class.String* @_ZN6VectorI6StringEixEi(%class.Vector.0* nonnull %1, i32 %63)
          to label %65 unwind label %72, !dbg !3172

65:                                               ; preds = %61
  invoke void @_Z11cp_spacevecRK6StringR6VectorIS_E(%class.String* nonnull dereferenceable(24) %64, %class.Vector.0* nonnull dereferenceable(16) %9)
          to label %66 unwind label %72, !dbg !3173

66:                                               ; preds = %65
  call void @llvm.dbg.value(metadata i32 0, metadata !2660, metadata !DIExpression()), !dbg !3174
  call void @llvm.dbg.value(metadata i8 0, metadata !2657, metadata !DIExpression()), !dbg !2698
  call void @llvm.dbg.value(metadata %class.Vector.0* %9, metadata !2686, metadata !DIExpression()), !dbg !2706
  %67 = load i32, i32* %26, align 8, !dbg !3175, !tbaa !2693
  %68 = icmp sgt i32 %67, 0, !dbg !3176
  br i1 %68, label %80, label %69, !dbg !3177

69:                                               ; preds = %187, %66
  call void @llvm.dbg.value(metadata %class.Vector* %13, metadata !3134, metadata !DIExpression()), !dbg !3178
  %70 = load i32, i32* %14, align 8, !dbg !3181, !tbaa !3182
  %71 = icmp eq i32 %62, %70, !dbg !3184
  br i1 %71, label %193, label %197, !dbg !3185

72:                                               ; preds = %193, %65, %61
  %73 = landingpad { i8*, i32 }
          cleanup, !dbg !3186
  %74 = extractvalue { i8*, i32 } %73, 0, !dbg !3186
  %75 = extractvalue { i8*, i32 } %73, 1, !dbg !3186
  br label %254, !dbg !3186

76:                                               ; preds = %183, %173, %106, %104, %84, %80
  %77 = landingpad { i8*, i32 }
          cleanup, !dbg !3187
  %78 = extractvalue { i8*, i32 } %77, 0, !dbg !3187
  %79 = extractvalue { i8*, i32 } %77, 1, !dbg !3187
  br label %254, !dbg !3187

80:                                               ; preds = %66, %187
  %81 = phi i32 [ %190, %187 ], [ 0, %66 ]
  %82 = phi i8 [ %188, %187 ], [ 0, %66 ]
  call void @llvm.dbg.value(metadata i32 %81, metadata !2660, metadata !DIExpression()), !dbg !3174
  call void @llvm.dbg.value(metadata i8 %82, metadata !2657, metadata !DIExpression()), !dbg !2698
  %83 = invoke dereferenceable(24) %class.String* @_ZN6VectorI6StringEixEi(%class.Vector.0* nonnull %9, i32 %81)
          to label %84 unwind label %76, !dbg !3188

84:                                               ; preds = %80
  %85 = invoke zeroext i1 @_Z13cp_ip6_prefixRK6StringPhS2_bPK7Element(%class.String* nonnull dereferenceable(24) %83, i8* nonnull %19, i8* nonnull %20, i1 zeroext true, %class.Element* %27)
          to label %86 unwind label %76, !dbg !3189

86:                                               ; preds = %84
  br i1 %85, label %87, label %104, !dbg !3190

87:                                               ; preds = %86
  call void @llvm.dbg.value(metadata %class.EtherAddress* undef, metadata !2703, metadata !DIExpression()), !dbg !3191
  call void @llvm.dbg.value(metadata %class.IP6NDAdvertiser* %0, metadata !2581, metadata !DIExpression()), !dbg !2783
  call void @llvm.dbg.value(metadata %class.IP6Address* %6, metadata !2582, metadata !DIExpression()), !dbg !2783
  call void @llvm.dbg.value(metadata %class.IP6Address* %7, metadata !2583, metadata !DIExpression()), !dbg !2783
  call void @llvm.dbg.value(metadata %class.EtherAddress* undef, metadata !2584, metadata !DIExpression()), !dbg !2783
  call void @llvm.lifetime.start.p0i8(i64 40, i8* nonnull %46) #10, !dbg !3193
  call void @llvm.memcpy.p0i8.p0i8.i64(i8* nonnull align 4 dereferenceable(16) %46, i8* nonnull align 4 dereferenceable(16) %19, i64 16, i1 false), !dbg !3194, !tbaa.struct !2590
  call void @llvm.memcpy.p0i8.p0i8.i64(i8* nonnull align 4 dereferenceable(16) %48, i8* nonnull align 4 dereferenceable(16) %20, i64 16, i1 false), !dbg !3195, !tbaa.struct !2590
  store i16 0, i16* %49, align 4, !dbg !3196, !tbaa.struct !2596
  store i16 0, i16* %50, align 2, !dbg !3196, !tbaa.struct !2596
  store i16 0, i16* %51, align 4, !dbg !3196, !tbaa.struct !2596
  call void @llvm.dbg.value(metadata %class.Vector* %13, metadata !2598, metadata !DIExpression()), !dbg !3197
  call void @llvm.dbg.value(metadata %"struct.IP6NDAdvertiser::Entry"* %5, metadata !2601, metadata !DIExpression()), !dbg !3197
  call void @llvm.dbg.value(metadata %"struct.IP6NDAdvertiser::Entry"* %5, metadata !2604, metadata !DIExpression()), !dbg !2784
  call void @llvm.dbg.value(metadata %class.Vector* %13, metadata !2612, metadata !DIExpression()), !dbg !3198
  call void @llvm.dbg.value(metadata %"struct.IP6NDAdvertiser::Entry"* %5, metadata !2615, metadata !DIExpression()), !dbg !3198
  %88 = load i32, i32* %14, align 8, !dbg !3200, !tbaa !2620
  %89 = load i32, i32* %42, align 4, !dbg !3201, !tbaa !2622
  %90 = icmp slt i32 %88, %89, !dbg !3202
  br i1 %90, label %91, label %97, !dbg !3203

91:                                               ; preds = %87
  %92 = load %struct.char_array*, %struct.char_array** %45, align 8, !dbg !3204, !tbaa !2557
  %93 = sext i32 %88 to i64, !dbg !3205
  %94 = getelementptr inbounds %struct.char_array, %struct.char_array* %92, i64 %93, i32 0, i64 0, !dbg !3206
  call void @llvm.dbg.value(metadata i8* %46, metadata !2629, metadata !DIExpression()) #10, !dbg !3207
  call void @llvm.dbg.value(metadata i8* %94, metadata !2632, metadata !DIExpression()) #10, !dbg !3207
  call void @llvm.dbg.value(metadata i64 undef, metadata !2633, metadata !DIExpression()) #10, !dbg !3207
  call void @llvm.memcpy.p0i8.p0i8.i64(i8* nonnull align 1 dereferenceable(40) %94, i8* nonnull align 4 dereferenceable(40) %46, i64 40, i1 false) #10, !dbg !3209
  call void @llvm.dbg.value(metadata i64 undef, metadata !2633, metadata !DIExpression(DW_OP_constu, 1, DW_OP_minus, DW_OP_stack_value)) #10, !dbg !3207
  %95 = load i32, i32* %14, align 8, !dbg !3210, !tbaa !2620
  %96 = add nsw i32 %95, 1, !dbg !3210
  store i32 %96, i32* %14, align 8, !dbg !3210, !tbaa !2620
  br label %99, !dbg !3211

97:                                               ; preds = %87
  call void @llvm.dbg.value(metadata %struct.char_array* %52, metadata !2615, metadata !DIExpression()), !dbg !3198
  call void @llvm.dbg.value(metadata %class.vector_memory* %44, metadata !2612, metadata !DIExpression()), !dbg !3198
  %98 = invoke zeroext i1 @_ZN13vector_memoryI18sized_array_memoryILm40EEE21reserve_and_push_backEiPK10char_arrayILm40EE(%class.vector_memory* nonnull %44, i32 -1, %struct.char_array* nonnull %52)
          to label %99 unwind label %100, !dbg !3212

99:                                               ; preds = %91, %97
  call void @llvm.lifetime.end.p0i8(i64 40, i8* nonnull %46) #10, !dbg !3213
  br label %187, !dbg !3214

100:                                              ; preds = %97
  %101 = landingpad { i8*, i32 }
          cleanup, !dbg !3215
  %102 = extractvalue { i8*, i32 } %101, 0, !dbg !3215
  %103 = extractvalue { i8*, i32 } %101, 1, !dbg !3215
  br label %254, !dbg !3214

104:                                              ; preds = %86
  %105 = invoke dereferenceable(24) %class.String* @_ZN6VectorI6StringEixEi(%class.Vector.0* nonnull %9, i32 %81)
          to label %106 unwind label %76, !dbg !3216

106:                                              ; preds = %104
  %107 = invoke zeroext i1 @_Z14cp_ip6_addressRK6StringP10IP6AddressPK7Element(%class.String* nonnull dereferenceable(24) %105, %class.IP6Address* nonnull %6, %class.Element* %27)
          to label %108 unwind label %76, !dbg !3217

108:                                              ; preds = %106
  br i1 %107, label %109, label %165, !dbg !3218

109:                                              ; preds = %108
  call void @llvm.lifetime.start.p0i8(i64 16, i8* nonnull %31) #10, !dbg !3219
  call void @llvm.lifetime.start.p0i8(i64 24, i8* nonnull %32) #10, !dbg !3220
  call void @llvm.dbg.value(metadata %class.String* %11, metadata !2770, metadata !DIExpression()), !dbg !3221
  call void @llvm.dbg.value(metadata i8* getelementptr inbounds ([40 x i8], [40 x i8]* @.str, i64 0, i64 0), metadata !2771, metadata !DIExpression()), !dbg !3221
  call void @llvm.dbg.value(metadata %class.String* %11, metadata !2761, metadata !DIExpression()), !dbg !2758
  call void @llvm.dbg.value(metadata i8* getelementptr inbounds ([40 x i8], [40 x i8]* @.str, i64 0, i64 0), metadata !2762, metadata !DIExpression()), !dbg !2758
  call void @llvm.dbg.value(metadata i32 39, metadata !2763, metadata !DIExpression()), !dbg !2758
  call void @llvm.dbg.value(metadata %"struct.String::memo_t"* null, metadata !2764, metadata !DIExpression()), !dbg !2758
  store i8* getelementptr inbounds ([40 x i8], [40 x i8]* @.str, i64 0, i64 0), i8** %33, align 8, !dbg !3222, !tbaa !3223
  store i32 39, i32* %34, align 8, !dbg !3226, !tbaa !3227
  store %"struct.String::memo_t"* null, %"struct.String::memo_t"** %35, align 8, !dbg !3228, !tbaa !3229
  invoke void @_ZN10IP6AddressC1ERK6String(%class.IP6Address* nonnull %10, %class.String* nonnull dereferenceable(24) %11)
          to label %110 unwind label %140, !dbg !3219

110:                                              ; preds = %109
  call void @llvm.dbg.value(metadata %class.EtherAddress* undef, metadata !2703, metadata !DIExpression()), !dbg !3230
  call void @llvm.dbg.value(metadata %class.IP6NDAdvertiser* %0, metadata !2581, metadata !DIExpression()), !dbg !2775
  call void @llvm.dbg.value(metadata %class.IP6Address* %6, metadata !2582, metadata !DIExpression()), !dbg !2775
  call void @llvm.dbg.value(metadata %class.IP6Address* %10, metadata !2583, metadata !DIExpression()), !dbg !2775
  call void @llvm.dbg.value(metadata %class.EtherAddress* undef, metadata !2584, metadata !DIExpression()), !dbg !2775
  call void @llvm.lifetime.start.p0i8(i64 40, i8* nonnull %36) #10, !dbg !3232
  call void @llvm.memcpy.p0i8.p0i8.i64(i8* nonnull align 4 dereferenceable(16) %36, i8* nonnull align 4 dereferenceable(16) %19, i64 16, i1 false), !dbg !3233, !tbaa.struct !2590
  call void @llvm.memcpy.p0i8.p0i8.i64(i8* nonnull align 4 dereferenceable(16) %38, i8* nonnull align 4 dereferenceable(16) %31, i64 16, i1 false), !dbg !3234, !tbaa.struct !2590
  store i16 0, i16* %39, align 4, !dbg !3235, !tbaa.struct !2596
  store i16 0, i16* %40, align 2, !dbg !3235, !tbaa.struct !2596
  store i16 0, i16* %41, align 4, !dbg !3235, !tbaa.struct !2596
  call void @llvm.dbg.value(metadata %class.Vector* %13, metadata !2598, metadata !DIExpression()), !dbg !2781
  call void @llvm.dbg.value(metadata %"struct.IP6NDAdvertiser::Entry"* %4, metadata !2601, metadata !DIExpression()), !dbg !2781
  call void @llvm.dbg.value(metadata %"struct.IP6NDAdvertiser::Entry"* %4, metadata !2604, metadata !DIExpression()), !dbg !2779
  call void @llvm.dbg.value(metadata %class.Vector* %13, metadata !2612, metadata !DIExpression()), !dbg !3236
  call void @llvm.dbg.value(metadata %"struct.IP6NDAdvertiser::Entry"* %4, metadata !2615, metadata !DIExpression()), !dbg !3236
  %111 = load i32, i32* %14, align 8, !dbg !3237, !tbaa !2620
  %112 = load i32, i32* %42, align 4, !dbg !3238, !tbaa !2622
  %113 = icmp slt i32 %111, %112, !dbg !3239
  br i1 %113, label %114, label %120, !dbg !3240

114:                                              ; preds = %110
  %115 = load %struct.char_array*, %struct.char_array** %45, align 8, !dbg !3241, !tbaa !2557
  %116 = sext i32 %111 to i64, !dbg !3242
  %117 = getelementptr inbounds %struct.char_array, %struct.char_array* %115, i64 %116, i32 0, i64 0, !dbg !3243
  call void @llvm.dbg.value(metadata i8* %36, metadata !2629, metadata !DIExpression()) #10, !dbg !3244
  call void @llvm.dbg.value(metadata i8* %117, metadata !2632, metadata !DIExpression()) #10, !dbg !3244
  call void @llvm.dbg.value(metadata i64 undef, metadata !2633, metadata !DIExpression()) #10, !dbg !3244
  call void @llvm.memcpy.p0i8.p0i8.i64(i8* nonnull align 1 dereferenceable(40) %117, i8* nonnull align 4 dereferenceable(40) %36, i64 40, i1 false) #10, !dbg !3246
  call void @llvm.dbg.value(metadata i64 undef, metadata !2633, metadata !DIExpression(DW_OP_constu, 1, DW_OP_minus, DW_OP_stack_value)) #10, !dbg !3244
  %118 = load i32, i32* %14, align 8, !dbg !3247, !tbaa !2620
  %119 = add nsw i32 %118, 1, !dbg !3247
  store i32 %119, i32* %14, align 8, !dbg !3247, !tbaa !2620
  br label %122, !dbg !3248

120:                                              ; preds = %110
  call void @llvm.dbg.value(metadata %struct.char_array* %43, metadata !2615, metadata !DIExpression()), !dbg !3236
  call void @llvm.dbg.value(metadata %class.vector_memory* %44, metadata !2612, metadata !DIExpression()), !dbg !3236
  %121 = invoke zeroext i1 @_ZN13vector_memoryI18sized_array_memoryILm40EEE21reserve_and_push_backEiPK10char_arrayILm40EE(%class.vector_memory* nonnull %44, i32 -1, %struct.char_array* nonnull %43)
          to label %122 unwind label %142, !dbg !3249

122:                                              ; preds = %114, %120
  call void @llvm.lifetime.end.p0i8(i64 40, i8* nonnull %36) #10, !dbg !3250
  call void @llvm.dbg.value(metadata %class.String* %11, metadata !3251, metadata !DIExpression()) #10, !dbg !3254
  call void @llvm.dbg.value(metadata %class.String* %11, metadata !3256, metadata !DIExpression()) #10, !dbg !3259
  %123 = load %"struct.String::memo_t"*, %"struct.String::memo_t"** %35, align 8, !dbg !3262, !tbaa !3229
  %124 = icmp eq %"struct.String::memo_t"* %123, null, !dbg !3264
  br i1 %124, label %139, label %125, !dbg !3265

125:                                              ; preds = %122
  %126 = getelementptr inbounds %"struct.String::memo_t", %"struct.String::memo_t"* %123, i64 0, i32 0, !dbg !3266
  %127 = load volatile i32, i32* %126, align 4, !dbg !3266, !tbaa !3268
  %128 = icmp eq i32 %127, 0, !dbg !3266
  br i1 %128, label %129, label %130, !dbg !3266

129:                                              ; preds = %125
  call void @__assert_fail(i8* getelementptr inbounds ([18 x i8], [18 x i8]* @.str.8, i64 0, i64 0), i8* getelementptr inbounds ([29 x i8], [29 x i8]* @.str.9, i64 0, i64 0), i32 273, i8* getelementptr inbounds ([27 x i8], [27 x i8]* @__PRETTY_FUNCTION__._ZNK6String5derefEv, i64 0, i64 0)) #12, !dbg !3266
  unreachable, !dbg !3266

130:                                              ; preds = %125
  call void @llvm.dbg.value(metadata i32* %126, metadata !3270, metadata !DIExpression()) #10, !dbg !3273
  %131 = load volatile i32, i32* %126, align 4, !dbg !3276, !tbaa !3277
  %132 = add i32 %131, -1, !dbg !3276
  store volatile i32 %132, i32* %126, align 4, !dbg !3276, !tbaa !3277
  %133 = icmp eq i32 %132, 0, !dbg !3278
  br i1 %133, label %134, label %135, !dbg !3279

134:                                              ; preds = %130
  invoke void @_ZN6String11delete_memoEPNS_6memo_tE(%"struct.String::memo_t"* nonnull %123)
          to label %135 unwind label %136, !dbg !3280

135:                                              ; preds = %134, %130
  store %"struct.String::memo_t"* null, %"struct.String::memo_t"** %35, align 8, !dbg !3281, !tbaa !3229
  br label %139, !dbg !3282

136:                                              ; preds = %134
  %137 = landingpad { i8*, i32 }
          catch i8* null, !dbg !3283
  %138 = extractvalue { i8*, i32 } %137, 0, !dbg !3283
  call void @__clang_call_terminate(i8* %138) #12, !dbg !3283
  unreachable, !dbg !3283

139:                                              ; preds = %122, %135
  call void @llvm.lifetime.end.p0i8(i64 24, i8* nonnull %32) #10, !dbg !3284
  call void @llvm.lifetime.end.p0i8(i64 16, i8* nonnull %31) #10, !dbg !3284
  br label %187, !dbg !3284

140:                                              ; preds = %109
  %141 = landingpad { i8*, i32 }
          cleanup, !dbg !3285
  br label %144, !dbg !3285

142:                                              ; preds = %120
  %143 = landingpad { i8*, i32 }
          cleanup, !dbg !3285
  br label %144, !dbg !3284

144:                                              ; preds = %142, %140
  %145 = phi { i8*, i32 } [ %143, %142 ], [ %141, %140 ]
  %146 = extractvalue { i8*, i32 } %145, 0, !dbg !3285
  %147 = extractvalue { i8*, i32 } %145, 1, !dbg !3285
  call void @llvm.dbg.value(metadata %class.String* %11, metadata !3251, metadata !DIExpression()) #10, !dbg !3286
  call void @llvm.dbg.value(metadata %class.String* %11, metadata !3256, metadata !DIExpression()) #10, !dbg !3288
  %148 = load %"struct.String::memo_t"*, %"struct.String::memo_t"** %35, align 8, !dbg !3290, !tbaa !3229
  %149 = icmp eq %"struct.String::memo_t"* %148, null, !dbg !3291
  br i1 %149, label %164, label %150, !dbg !3292

150:                                              ; preds = %144
  %151 = getelementptr inbounds %"struct.String::memo_t", %"struct.String::memo_t"* %148, i64 0, i32 0, !dbg !3293
  %152 = load volatile i32, i32* %151, align 4, !dbg !3293, !tbaa !3268
  %153 = icmp eq i32 %152, 0, !dbg !3293
  br i1 %153, label %154, label %155, !dbg !3293

154:                                              ; preds = %150
  call void @__assert_fail(i8* getelementptr inbounds ([18 x i8], [18 x i8]* @.str.8, i64 0, i64 0), i8* getelementptr inbounds ([29 x i8], [29 x i8]* @.str.9, i64 0, i64 0), i32 273, i8* getelementptr inbounds ([27 x i8], [27 x i8]* @__PRETTY_FUNCTION__._ZNK6String5derefEv, i64 0, i64 0)) #12, !dbg !3293
  unreachable, !dbg !3293

155:                                              ; preds = %150
  call void @llvm.dbg.value(metadata i32* %151, metadata !3270, metadata !DIExpression()) #10, !dbg !3294
  %156 = load volatile i32, i32* %151, align 4, !dbg !3296, !tbaa !3277
  %157 = add i32 %156, -1, !dbg !3296
  store volatile i32 %157, i32* %151, align 4, !dbg !3296, !tbaa !3277
  %158 = icmp eq i32 %157, 0, !dbg !3297
  br i1 %158, label %159, label %160, !dbg !3298

159:                                              ; preds = %155
  invoke void @_ZN6String11delete_memoEPNS_6memo_tE(%"struct.String::memo_t"* nonnull %148)
          to label %160 unwind label %161, !dbg !3299

160:                                              ; preds = %159, %155
  store %"struct.String::memo_t"* null, %"struct.String::memo_t"** %35, align 8, !dbg !3300, !tbaa !3229
  br label %164, !dbg !3301

161:                                              ; preds = %159
  %162 = landingpad { i8*, i32 }
          catch i8* null, !dbg !3302
  %163 = extractvalue { i8*, i32 } %162, 0, !dbg !3302
  call void @__clang_call_terminate(i8* %163) #12, !dbg !3302
  unreachable, !dbg !3302

164:                                              ; preds = %160, %144
  call void @llvm.lifetime.end.p0i8(i64 24, i8* nonnull %32) #10, !dbg !3284
  call void @llvm.lifetime.end.p0i8(i64 16, i8* nonnull %31) #10, !dbg !3284
  br label %254, !dbg !3284

165:                                              ; preds = %108
  %166 = invoke dereferenceable(24) %class.String* @_ZN6VectorI6StringEixEi(%class.Vector.0* nonnull %9, i32 %81)
          to label %167 unwind label %175, !dbg !3303

167:                                              ; preds = %165
  call void @llvm.lifetime.start.p0i8(i64 32, i8* nonnull %28) #10, !dbg !3304
  call void @llvm.dbg.value(metadata %class.ArgContext* %12, metadata !2752, metadata !DIExpression()), !dbg !2711
  call void @llvm.dbg.value(metadata %class.Element* %27, metadata !2754, metadata !DIExpression()), !dbg !2711
  call void @llvm.dbg.value(metadata %class.ErrorHandler* null, metadata !2755, metadata !DIExpression()), !dbg !2711
  store %class.IP6NDAdvertiser* %0, %class.IP6NDAdvertiser** %29, align 8, !dbg !3305, !tbaa !3306
  call void @llvm.dbg.value(metadata %class.EtherAddressArg* undef, metadata !3109, metadata !DIExpression()), !dbg !2801
  call void @llvm.dbg.value(metadata %class.String* %166, metadata !3111, metadata !DIExpression()), !dbg !2801
  call void @llvm.dbg.value(metadata %class.EtherAddress* %8, metadata !3112, metadata !DIExpression()), !dbg !2801
  call void @llvm.dbg.value(metadata %class.ArgContext* %12, metadata !3113, metadata !DIExpression()), !dbg !2801
  call void @llvm.memset.p0i8.i64(i8* nonnull align 8 dereferenceable(17) %55, i8 0, i64 17, i1 false), !dbg !3309
  %168 = invoke zeroext i1 @_ZN15EtherAddressArg5parseERK6StringR12EtherAddressRK10ArgContexti(%class.String* nonnull dereferenceable(24) %166, %class.EtherAddress* nonnull dereferenceable(6) %8, %class.ArgContext* nonnull dereferenceable(32) %12, i32 0)
          to label %169 unwind label %179, !dbg !3310

169:                                              ; preds = %167
  call void @llvm.lifetime.end.p0i8(i64 32, i8* nonnull %28) #10, !dbg !3311
  br i1 %168, label %170, label %183, !dbg !3312

170:                                              ; preds = %169
  %171 = and i8 %82, 1, !dbg !3313
  %172 = icmp eq i8 %171, 0, !dbg !3313
  br i1 %172, label %187, label %173, !dbg !3316

173:                                              ; preds = %170
  %174 = invoke i32 (%class.ErrorHandler*, i8*, ...) @_ZN12ErrorHandler5errorEPKcz(%class.ErrorHandler* %2, i8* getelementptr inbounds ([47 x i8], [47 x i8]* @.str.1, i64 0, i64 0), i32 %63)
          to label %187 unwind label %76, !dbg !3317

175:                                              ; preds = %165
  %176 = landingpad { i8*, i32 }
          cleanup, !dbg !3318
  %177 = extractvalue { i8*, i32 } %176, 0, !dbg !3318
  %178 = extractvalue { i8*, i32 } %176, 1, !dbg !3318
  br label %254, !dbg !3318

179:                                              ; preds = %167
  %180 = landingpad { i8*, i32 }
          cleanup, !dbg !3318
  %181 = extractvalue { i8*, i32 } %180, 0, !dbg !3318
  %182 = extractvalue { i8*, i32 } %180, 1, !dbg !3318
  call void @llvm.lifetime.end.p0i8(i64 32, i8* nonnull %28) #10, !dbg !3311
  br label %254, !dbg !3311

183:                                              ; preds = %169
  %184 = invoke i32 (%class.ErrorHandler*, i8*, ...) @_ZN12ErrorHandler5errorEPKcz(%class.ErrorHandler* %2, i8* getelementptr inbounds ([41 x i8], [41 x i8]* @.str.2, i64 0, i64 0), i32 %63)
          to label %185 unwind label %76, !dbg !3319

185:                                              ; preds = %183
  call void @llvm.dbg.value(metadata %class.Vector.0* %9, metadata !2686, metadata !DIExpression()), !dbg !3321
  %186 = load i32, i32* %26, align 8, !dbg !3323, !tbaa !2693
  call void @llvm.dbg.value(metadata i32 %186, metadata !2660, metadata !DIExpression()), !dbg !3174
  br label %187

187:                                              ; preds = %173, %170, %99, %185, %139
  %188 = phi i8 [ %82, %99 ], [ %82, %139 ], [ %82, %185 ], [ 1, %170 ], [ 1, %173 ], !dbg !2698
  %189 = phi i32 [ %81, %99 ], [ %81, %139 ], [ %186, %185 ], [ %81, %170 ], [ %81, %173 ], !dbg !3174
  call void @llvm.dbg.value(metadata i32 %189, metadata !2660, metadata !DIExpression()), !dbg !3174
  call void @llvm.dbg.value(metadata i8 %188, metadata !2657, metadata !DIExpression()), !dbg !2698
  %190 = add nsw i32 %189, 1, !dbg !3324
  call void @llvm.dbg.value(metadata i32 %190, metadata !2660, metadata !DIExpression()), !dbg !3174
  call void @llvm.dbg.value(metadata %class.Vector.0* %9, metadata !2686, metadata !DIExpression()), !dbg !2706
  %191 = load i32, i32* %26, align 8, !dbg !3175, !tbaa !2693
  %192 = icmp slt i32 %190, %191, !dbg !3176
  br i1 %192, label %80, label %69, !dbg !3177, !llvm.loop !3325

193:                                              ; preds = %69
  %194 = invoke i32 (%class.ErrorHandler*, i8*, ...) @_ZN12ErrorHandler5errorEPKcz(%class.ErrorHandler* %2, i8* getelementptr inbounds ([41 x i8], [41 x i8]* @.str.3, i64 0, i64 0), i32 %63)
          to label %195 unwind label %72, !dbg !3327

195:                                              ; preds = %193
  %196 = load i32, i32* %14, align 8, !dbg !3328, !tbaa !3182
  br label %197, !dbg !3327

197:                                              ; preds = %195, %69
  %198 = phi i32 [ %196, %195 ], [ %70, %69 ], !dbg !3328
  call void @llvm.dbg.value(metadata i32 %62, metadata !2662, metadata !DIExpression()), !dbg !3331
  call void @llvm.dbg.value(metadata %class.Vector* %13, metadata !3134, metadata !DIExpression()), !dbg !3332
  %199 = icmp slt i32 %62, %198, !dbg !3333
  br i1 %199, label %245, label %200, !dbg !3334

200:                                              ; preds = %248, %197
  call void @llvm.dbg.value(metadata %class.Vector.0* %9, metadata !2798, metadata !DIExpression()) #10, !dbg !3335
  call void @llvm.dbg.value(metadata %class.Vector.0* %9, metadata !2791, metadata !DIExpression()) #10, !dbg !3336
  %201 = load %class.String*, %class.String** %53, align 8, !dbg !3337, !tbaa !3338
  %202 = load i32, i32* %26, align 8, !dbg !3339, !tbaa !3340
  %203 = sext i32 %202 to i64, !dbg !3339
  call void @llvm.dbg.value(metadata %class.String* %201, metadata !3341, metadata !DIExpression()) #10, !dbg !3347
  call void @llvm.dbg.value(metadata i64 %203, metadata !3344, metadata !DIExpression()) #10, !dbg !3347
  call void @llvm.dbg.value(metadata i64 0, metadata !3345, metadata !DIExpression()) #10, !dbg !3349
  %204 = icmp eq i32 %202, 0, !dbg !3350
  br i1 %204, label %205, label %207, !dbg !3352

205:                                              ; preds = %200
  %206 = bitcast %class.String* %201 to i8*, !dbg !3352
  br label %231, !dbg !3352

207:                                              ; preds = %200, %226
  %208 = phi i64 [ %227, %226 ], [ 0, %200 ]
  call void @llvm.dbg.value(metadata i64 %208, metadata !3345, metadata !DIExpression()) #10, !dbg !3349
  call void @llvm.dbg.value(metadata %class.String* undef, metadata !3251, metadata !DIExpression()) #10, !dbg !3353
  call void @llvm.dbg.value(metadata %class.String* undef, metadata !3256, metadata !DIExpression()) #10, !dbg !3355
  %209 = getelementptr inbounds %class.String, %class.String* %201, i64 %208, i32 0, i32 2, !dbg !3357
  %210 = load %"struct.String::memo_t"*, %"struct.String::memo_t"** %209, align 8, !dbg !3357, !tbaa !3229
  %211 = icmp eq %"struct.String::memo_t"* %210, null, !dbg !3358
  br i1 %211, label %226, label %212, !dbg !3359

212:                                              ; preds = %207
  %213 = getelementptr inbounds %"struct.String::memo_t", %"struct.String::memo_t"* %210, i64 0, i32 0, !dbg !3360
  %214 = load volatile i32, i32* %213, align 4, !dbg !3360, !tbaa !3268
  %215 = icmp eq i32 %214, 0, !dbg !3360
  br i1 %215, label %216, label %217, !dbg !3360

216:                                              ; preds = %212
  call void @__assert_fail(i8* getelementptr inbounds ([18 x i8], [18 x i8]* @.str.8, i64 0, i64 0), i8* getelementptr inbounds ([29 x i8], [29 x i8]* @.str.9, i64 0, i64 0), i32 273, i8* getelementptr inbounds ([27 x i8], [27 x i8]* @__PRETTY_FUNCTION__._ZNK6String5derefEv, i64 0, i64 0)) #12, !dbg !3360
  unreachable, !dbg !3360

217:                                              ; preds = %212
  call void @llvm.dbg.value(metadata i32* %213, metadata !3270, metadata !DIExpression()) #10, !dbg !3361
  %218 = load volatile i32, i32* %213, align 4, !dbg !3363, !tbaa !3277
  %219 = add i32 %218, -1, !dbg !3363
  store volatile i32 %219, i32* %213, align 4, !dbg !3363, !tbaa !3277
  %220 = icmp eq i32 %219, 0, !dbg !3364
  br i1 %220, label %221, label %222, !dbg !3365

221:                                              ; preds = %217
  invoke void @_ZN6String11delete_memoEPNS_6memo_tE(%"struct.String::memo_t"* nonnull %210)
          to label %222 unwind label %223, !dbg !3366

222:                                              ; preds = %221, %217
  store %"struct.String::memo_t"* null, %"struct.String::memo_t"** %209, align 8, !dbg !3367, !tbaa !3229
  br label %226, !dbg !3368

223:                                              ; preds = %221
  %224 = landingpad { i8*, i32 }
          catch i8* null, !dbg !3369
  %225 = extractvalue { i8*, i32 } %224, 0, !dbg !3369
  call void @__clang_call_terminate(i8* %225) #12, !dbg !3369
  unreachable, !dbg !3369

226:                                              ; preds = %222, %207
  %227 = add nuw i64 %208, 1, !dbg !3370
  call void @llvm.dbg.value(metadata i64 %227, metadata !3345, metadata !DIExpression()) #10, !dbg !3349
  %228 = icmp eq i64 %227, %203, !dbg !3350
  br i1 %228, label %229, label %207, !dbg !3352, !llvm.loop !3371

229:                                              ; preds = %226
  %230 = load i8*, i8** %54, align 8, !dbg !3373, !tbaa !3338
  br label %231, !dbg !3373

231:                                              ; preds = %229, %205
  %232 = phi i8* [ %230, %229 ], [ %206, %205 ], !dbg !3373
  %233 = icmp eq i8* %232, null, !dbg !3373
  br i1 %233, label %235, label %234, !dbg !3373

234:                                              ; preds = %231
  call void @_ZdaPv(i8* nonnull %232) #11, !dbg !3373
  br label %235, !dbg !3373

235:                                              ; preds = %231, %234
  call void @llvm.lifetime.end.p0i8(i64 16, i8* nonnull %25) #10, !dbg !3374
  call void @llvm.lifetime.end.p0i8(i64 6, i8* nonnull %21) #10, !dbg !3374
  call void @llvm.lifetime.end.p0i8(i64 16, i8* nonnull %20) #10, !dbg !3374
  call void @llvm.lifetime.end.p0i8(i64 16, i8* nonnull %19) #10, !dbg !3374
  %236 = add nuw nsw i32 %63, 1, !dbg !3375
  call void @llvm.dbg.value(metadata i32 %236, metadata !2650, metadata !DIExpression()), !dbg !2685
  call void @llvm.dbg.value(metadata %class.Vector.0* %1, metadata !2686, metadata !DIExpression()), !dbg !2690
  %237 = load i32, i32* %15, align 8, !dbg !2692, !tbaa !2693
  %238 = icmp slt i32 %236, %237, !dbg !2696
  br i1 %238, label %239, label %56, !dbg !2697, !llvm.loop !3376

239:                                              ; preds = %235
  %240 = load i32, i32* %14, align 8, !dbg !3131, !tbaa !3182
  br label %61, !dbg !2697

241:                                              ; preds = %245
  %242 = landingpad { i8*, i32 }
          cleanup, !dbg !3378
  %243 = extractvalue { i8*, i32 } %242, 0, !dbg !3378
  %244 = extractvalue { i8*, i32 } %242, 1, !dbg !3378
  br label %254, !dbg !3379

245:                                              ; preds = %197, %248
  %246 = phi i32 [ %251, %248 ], [ %62, %197 ]
  call void @llvm.dbg.value(metadata i32 %246, metadata !2662, metadata !DIExpression()), !dbg !3331
  %247 = invoke dereferenceable(40) %"struct.IP6NDAdvertiser::Entry"* @_ZN6VectorIN15IP6NDAdvertiser5EntryEEixEi(%class.Vector* nonnull %13, i32 %246)
          to label %248 unwind label %241, !dbg !3380

248:                                              ; preds = %245
  %249 = getelementptr inbounds %"struct.IP6NDAdvertiser::Entry", %"struct.IP6NDAdvertiser::Entry"* %247, i64 0, i32 2, !dbg !3381
  %250 = bitcast %class.EtherAddress* %249 to i8*, !dbg !3382
  call void @llvm.memcpy.p0i8.p0i8.i64(i8* nonnull align 4 dereferenceable(6) %250, i8* nonnull align 2 dereferenceable(6) %21, i64 6, i1 false), !dbg !3382, !tbaa.struct !2596
  %251 = add nsw i32 %246, 1, !dbg !3383
  call void @llvm.dbg.value(metadata i32 %251, metadata !2662, metadata !DIExpression()), !dbg !3331
  call void @llvm.dbg.value(metadata %class.Vector* %13, metadata !3134, metadata !DIExpression()), !dbg !3332
  %252 = load i32, i32* %14, align 8, !dbg !3328, !tbaa !3182
  %253 = icmp slt i32 %251, %252, !dbg !3333
  br i1 %253, label %245, label %200, !dbg !3334, !llvm.loop !3384

254:                                              ; preds = %175, %179, %76, %100, %164, %241, %72
  %255 = phi i8* [ %243, %241 ], [ %74, %72 ], [ %102, %100 ], [ %146, %164 ], [ %78, %76 ], [ %181, %179 ], [ %177, %175 ], !dbg !2698
  %256 = phi i32 [ %244, %241 ], [ %75, %72 ], [ %103, %100 ], [ %147, %164 ], [ %79, %76 ], [ %182, %179 ], [ %178, %175 ], !dbg !2698
  call void @llvm.dbg.value(metadata %class.Vector.0* %9, metadata !2798, metadata !DIExpression()) #10, !dbg !3386
  call void @llvm.dbg.value(metadata %class.Vector.0* %9, metadata !2791, metadata !DIExpression()) #10, !dbg !3388
  %257 = load %class.String*, %class.String** %53, align 8, !dbg !3390, !tbaa !3338
  %258 = load i32, i32* %26, align 8, !dbg !3391, !tbaa !3340
  %259 = sext i32 %258 to i64, !dbg !3391
  call void @llvm.dbg.value(metadata %class.String* %257, metadata !3341, metadata !DIExpression()) #10, !dbg !3392
  call void @llvm.dbg.value(metadata i64 %259, metadata !3344, metadata !DIExpression()) #10, !dbg !3392
  call void @llvm.dbg.value(metadata i64 0, metadata !3345, metadata !DIExpression()) #10, !dbg !3394
  %260 = icmp eq i32 %258, 0, !dbg !3395
  br i1 %260, label %261, label %263, !dbg !3396

261:                                              ; preds = %254
  %262 = bitcast %class.String* %257 to i8*, !dbg !3396
  br label %287, !dbg !3396

263:                                              ; preds = %254, %282
  %264 = phi i64 [ %283, %282 ], [ 0, %254 ]
  call void @llvm.dbg.value(metadata i64 %264, metadata !3345, metadata !DIExpression()) #10, !dbg !3394
  call void @llvm.dbg.value(metadata %class.String* undef, metadata !3251, metadata !DIExpression()) #10, !dbg !3397
  call void @llvm.dbg.value(metadata %class.String* undef, metadata !3256, metadata !DIExpression()) #10, !dbg !3399
  %265 = getelementptr inbounds %class.String, %class.String* %257, i64 %264, i32 0, i32 2, !dbg !3401
  %266 = load %"struct.String::memo_t"*, %"struct.String::memo_t"** %265, align 8, !dbg !3401, !tbaa !3229
  %267 = icmp eq %"struct.String::memo_t"* %266, null, !dbg !3402
  br i1 %267, label %282, label %268, !dbg !3403

268:                                              ; preds = %263
  %269 = getelementptr inbounds %"struct.String::memo_t", %"struct.String::memo_t"* %266, i64 0, i32 0, !dbg !3404
  %270 = load volatile i32, i32* %269, align 4, !dbg !3404, !tbaa !3268
  %271 = icmp eq i32 %270, 0, !dbg !3404
  br i1 %271, label %272, label %273, !dbg !3404

272:                                              ; preds = %268
  call void @__assert_fail(i8* getelementptr inbounds ([18 x i8], [18 x i8]* @.str.8, i64 0, i64 0), i8* getelementptr inbounds ([29 x i8], [29 x i8]* @.str.9, i64 0, i64 0), i32 273, i8* getelementptr inbounds ([27 x i8], [27 x i8]* @__PRETTY_FUNCTION__._ZNK6String5derefEv, i64 0, i64 0)) #12, !dbg !3404
  unreachable, !dbg !3404

273:                                              ; preds = %268
  call void @llvm.dbg.value(metadata i32* %269, metadata !3270, metadata !DIExpression()) #10, !dbg !3405
  %274 = load volatile i32, i32* %269, align 4, !dbg !3407, !tbaa !3277
  %275 = add i32 %274, -1, !dbg !3407
  store volatile i32 %275, i32* %269, align 4, !dbg !3407, !tbaa !3277
  %276 = icmp eq i32 %275, 0, !dbg !3408
  br i1 %276, label %277, label %278, !dbg !3409

277:                                              ; preds = %273
  invoke void @_ZN6String11delete_memoEPNS_6memo_tE(%"struct.String::memo_t"* nonnull %266)
          to label %278 unwind label %279, !dbg !3410

278:                                              ; preds = %277, %273
  store %"struct.String::memo_t"* null, %"struct.String::memo_t"** %265, align 8, !dbg !3411, !tbaa !3229
  br label %282, !dbg !3412

279:                                              ; preds = %277
  %280 = landingpad { i8*, i32 }
          catch i8* null, !dbg !3413
  %281 = extractvalue { i8*, i32 } %280, 0, !dbg !3413
  call void @__clang_call_terminate(i8* %281) #12, !dbg !3413
  unreachable, !dbg !3413

282:                                              ; preds = %278, %263
  %283 = add nuw i64 %264, 1, !dbg !3414
  call void @llvm.dbg.value(metadata i64 %283, metadata !3345, metadata !DIExpression()) #10, !dbg !3394
  %284 = icmp eq i64 %283, %259, !dbg !3395
  br i1 %284, label %285, label %263, !dbg !3396, !llvm.loop !3415

285:                                              ; preds = %282
  %286 = load i8*, i8** %54, align 8, !dbg !3417, !tbaa !3338
  br label %287, !dbg !3417

287:                                              ; preds = %285, %261
  %288 = phi i8* [ %286, %285 ], [ %262, %261 ], !dbg !3417
  %289 = icmp eq i8* %288, null, !dbg !3417
  br i1 %289, label %291, label %290, !dbg !3417

290:                                              ; preds = %287
  call void @_ZdaPv(i8* nonnull %288) #11, !dbg !3417
  br label %291, !dbg !3417

291:                                              ; preds = %287, %290
  call void @llvm.lifetime.end.p0i8(i64 16, i8* nonnull %25) #10, !dbg !3374
  call void @llvm.lifetime.end.p0i8(i64 6, i8* nonnull %21) #10, !dbg !3374
  call void @llvm.lifetime.end.p0i8(i64 16, i8* nonnull %20) #10, !dbg !3374
  call void @llvm.lifetime.end.p0i8(i64 16, i8* nonnull %19) #10, !dbg !3374
  %292 = insertvalue { i8*, i32 } undef, i8* %255, 0, !dbg !3418
  %293 = insertvalue { i8*, i32 } %292, i32 %256, 1, !dbg !3418
  resume { i8*, i32 } %293, !dbg !3418
}

declare !dbg !1208 void @_Z11cp_spacevecRK6StringR6VectorIS_E(%class.String* dereferenceable(24), %class.Vector.0* dereferenceable(16)) local_unnamed_addr #2

declare dereferenceable(24) %class.String* @_ZN6VectorI6StringEixEi(%class.Vector.0*, i32) local_unnamed_addr #2

declare !dbg !1407 zeroext i1 @_Z13cp_ip6_prefixRK6StringPhS2_bPK7Element(%class.String* dereferenceable(24), i8*, i8*, i1 zeroext, %class.Element*) local_unnamed_addr #2

declare !dbg !1414 zeroext i1 @_Z14cp_ip6_addressRK6StringP10IP6AddressPK7Element(%class.String* dereferenceable(24), %class.IP6Address*, %class.Element*) local_unnamed_addr #2

declare void @_ZN10IP6AddressC1ERK6String(%class.IP6Address*, %class.String* dereferenceable(24)) unnamed_addr #2

declare i32 @_ZN12ErrorHandler5errorEPKcz(%class.ErrorHandler*, i8*, ...) local_unnamed_addr #2

declare dereferenceable(40) %"struct.IP6NDAdvertiser::Entry"* @_ZN6VectorIN15IP6NDAdvertiser5EntryEEixEi(%class.Vector*, i32) local_unnamed_addr #2

; Function Attrs: sspstrong uwtable
define dso_local %class.Packet* @_ZN15IP6NDAdvertiser13make_responseEPhS0_S0_S0_S0_S0_(%class.IP6NDAdvertiser* nocapture readnone %0, i8* nocapture readonly %1, i8* nocapture readonly %2, i8* nocapture readonly %3, i8* nocapture readonly %4, i8* nocapture readonly %5, i8* nocapture readonly %6) local_unnamed_addr #0 align 2 !dbg !3419 {
  call void @llvm.dbg.value(metadata %class.IP6NDAdvertiser* undef, metadata !3427, metadata !DIExpression()), !dbg !3440
  call void @llvm.dbg.value(metadata i8* %1, metadata !3428, metadata !DIExpression()), !dbg !3440
  call void @llvm.dbg.value(metadata i8* %2, metadata !3429, metadata !DIExpression()), !dbg !3440
  call void @llvm.dbg.value(metadata i8* %3, metadata !3430, metadata !DIExpression()), !dbg !3440
  call void @llvm.dbg.value(metadata i8* %4, metadata !3431, metadata !DIExpression()), !dbg !3440
  call void @llvm.dbg.value(metadata i8* %5, metadata !3432, metadata !DIExpression()), !dbg !3440
  call void @llvm.dbg.value(metadata i8* %6, metadata !3433, metadata !DIExpression()), !dbg !3440
  call void @llvm.dbg.value(metadata i32 86, metadata !3441, metadata !DIExpression()), !dbg !3444
  %8 = tail call %class.WritablePacket* @_ZN6Packet4makeEjPKvjj(i32 28, i8* null, i32 86, i32 0), !dbg !3446
  call void @llvm.dbg.value(metadata %class.WritablePacket* %8, metadata !3437, metadata !DIExpression()), !dbg !3440
  %9 = icmp eq %class.WritablePacket* %8, null, !dbg !3447
  br i1 %9, label %10, label %11, !dbg !3449

10:                                               ; preds = %7
  tail call void (i8*, ...) @click_chatter(i8* getelementptr inbounds ([30 x i8], [30 x i8]* @.str.4, i64 0, i64 0)), !dbg !3450
  tail call void @__assert_fail(i8* getelementptr inbounds ([2 x i8], [2 x i8]* @.str.5, i64 0, i64 0), i8* getelementptr inbounds ([40 x i8], [40 x i8]* @.str.6, i64 0, i64 0), i32 101, i8* getelementptr inbounds ([99 x i8], [99 x i8]* @__PRETTY_FUNCTION__._ZN15IP6NDAdvertiser13make_responseEPhS0_S0_S0_S0_S0_, i64 0, i64 0)) #12, !dbg !3452
  unreachable, !dbg !3452

11:                                               ; preds = %7
  %12 = tail call i8* @_ZNK14WritablePacket4dataEv(%class.WritablePacket* nonnull %8), !dbg !3453
  %13 = getelementptr %class.WritablePacket, %class.WritablePacket* %8, i64 0, i32 0, !dbg !3454
  %14 = tail call i32 @_ZNK6Packet6lengthEv(%class.Packet* %13), !dbg !3454
  %15 = zext i32 %14 to i64, !dbg !3455
  tail call void @llvm.memset.p0i8.i64(i8* align 1 %12, i8 0, i64 %15, i1 false), !dbg !3456
  %16 = tail call i8* @_ZNK14WritablePacket4dataEv(%class.WritablePacket* nonnull %8), !dbg !3457
  call void @llvm.dbg.value(metadata i8* %16, metadata !3434, metadata !DIExpression()), !dbg !3440
  %17 = getelementptr inbounds i8, i8* %16, i64 14, !dbg !3458
  call void @llvm.dbg.value(metadata i8* %17, metadata !3435, metadata !DIExpression()), !dbg !3440
  %18 = getelementptr inbounds i8, i8* %16, i64 54, !dbg !3459
  call void @llvm.dbg.value(metadata i8* %18, metadata !3436, metadata !DIExpression()), !dbg !3440
  tail call void @llvm.memcpy.p0i8.p0i8.i64(i8* nonnull align 1 dereferenceable(6) %16, i8* nonnull align 1 dereferenceable(6) %1, i64 6, i1 false), !dbg !3460
  %19 = getelementptr inbounds i8, i8* %16, i64 6, !dbg !3461
  tail call void @llvm.memcpy.p0i8.p0i8.i64(i8* nonnull align 1 dereferenceable(6) %19, i8* nonnull align 1 dereferenceable(6) %2, i64 6, i1 false), !dbg !3462
  %20 = getelementptr inbounds i8, i8* %16, i64 12, !dbg !3463
  %21 = bitcast i8* %20 to i16*, !dbg !3463
  store i16 -8826, i16* %21, align 1, !dbg !3464, !tbaa !3465
  %22 = bitcast i8* %17 to i32*, !dbg !3467
  store i32 96, i32* %22, align 4, !dbg !3468, !tbaa !2591
  %23 = getelementptr inbounds i8, i8* %16, i64 18, !dbg !3469
  %24 = bitcast i8* %23 to i16*, !dbg !3469
  store i16 8192, i16* %24, align 4, !dbg !3470, !tbaa !2591
  %25 = getelementptr inbounds i8, i8* %16, i64 20, !dbg !3471
  store i8 58, i8* %25, align 2, !dbg !3472, !tbaa !2591
  %26 = getelementptr inbounds i8, i8* %16, i64 21, !dbg !3473
  store i8 -1, i8* %26, align 1, !dbg !3474, !tbaa !2591
  %27 = getelementptr inbounds i8, i8* %16, i64 22, !dbg !3475
  call void @llvm.memmove.p0i8.p0i8.i64(i8* nonnull align 4 dereferenceable(16) %27, i8* nonnull align 1 dereferenceable(16) %4, i64 16, i1 false), !dbg !3476
  %28 = getelementptr inbounds i8, i8* %16, i64 38, !dbg !3477
  call void @llvm.memmove.p0i8.p0i8.i64(i8* nonnull align 4 dereferenceable(16) %28, i8* nonnull align 1 dereferenceable(16) %3, i64 16, i1 false), !dbg !3478
  store i8 -120, i8* %18, align 2, !dbg !3479, !tbaa !3480
  %29 = getelementptr inbounds i8, i8* %16, i64 55, !dbg !3482
  store i8 0, i8* %29, align 1, !dbg !3483, !tbaa !3484
  %30 = getelementptr inbounds i8, i8* %16, i64 58, !dbg !3485
  store i8 -64, i8* %30, align 2, !dbg !3486, !tbaa !3487
  call void @llvm.dbg.value(metadata i32 0, metadata !3438, metadata !DIExpression()), !dbg !3488
  %31 = getelementptr inbounds i8, i8* %16, i64 59, !dbg !3489
  call void @llvm.memset.p0i8.i64(i8* nonnull align 1 dereferenceable(3) %31, i8 0, i64 3, i1 false), !dbg !3492
  call void @llvm.dbg.value(metadata i32 undef, metadata !3438, metadata !DIExpression()), !dbg !3488
  %32 = bitcast i8* %27 to %struct.in6_addr*, !dbg !3475
  %33 = bitcast i8* %28 to %struct.in6_addr*, !dbg !3477
  %34 = getelementptr inbounds i8, i8* %16, i64 62, !dbg !3493
  tail call void @llvm.memcpy.p0i8.p0i8.i64(i8* nonnull align 2 dereferenceable(16) %34, i8* nonnull align 1 dereferenceable(16) %5, i64 16, i1 false), !dbg !3494
  %35 = getelementptr inbounds i8, i8* %16, i64 78, !dbg !3495
  store i8 2, i8* %35, align 2, !dbg !3496, !tbaa !3497
  %36 = getelementptr inbounds i8, i8* %16, i64 79, !dbg !3498
  store i8 1, i8* %36, align 1, !dbg !3499, !tbaa !3500
  %37 = getelementptr inbounds i8, i8* %16, i64 80, !dbg !3501
  tail call void @llvm.memcpy.p0i8.p0i8.i64(i8* nonnull align 2 dereferenceable(6) %37, i8* nonnull align 1 dereferenceable(6) %6, i64 6, i1 false), !dbg !3502
  %38 = tail call zeroext i16 @in6_fast_cksum(%struct.in6_addr* nonnull %32, %struct.in6_addr* nonnull %33, i16 zeroext 8192, i8 zeroext 58, i16 zeroext 0, i8* nonnull %18, i16 zeroext 8192), !dbg !3503
  %39 = tail call i16 @llvm.bswap.i16(i16 %38) #10
  %40 = getelementptr inbounds i8, i8* %16, i64 56, !dbg !3504
  %41 = bitcast i8* %40 to i16*, !dbg !3504
  store i16 %39, i16* %41, align 2, !dbg !3505, !tbaa !3506
  ret %class.Packet* %13, !dbg !3507
}

declare !dbg !1598 void @click_chatter(i8*, ...) local_unnamed_addr #2

; Function Attrs: noreturn nounwind
declare void @__assert_fail(i8*, i8*, i32, i8*) local_unnamed_addr #7

declare i8* @_ZNK14WritablePacket4dataEv(%class.WritablePacket*) local_unnamed_addr #2

declare i32 @_ZNK6Packet6lengthEv(%class.Packet*) local_unnamed_addr #2

; Function Attrs: argmemonly nounwind willreturn
declare void @llvm.memset.p0i8.i64(i8* nocapture writeonly, i8, i64, i1 immarg) #6

declare !dbg !1614 zeroext i16 @in6_fast_cksum(%struct.in6_addr*, %struct.in6_addr*, i16 zeroext, i8 zeroext, i16 zeroext, i8*, i16 zeroext) local_unnamed_addr #2

; Function Attrs: sspstrong uwtable
define dso_local %class.Packet* @_ZN15IP6NDAdvertiser14make_response2EPhS0_S0_S0_S0_(%class.IP6NDAdvertiser* nocapture readnone %0, i8* nocapture readonly %1, i8* nocapture readonly %2, i8* nocapture readonly %3, i8* nocapture readonly %4, i8* nocapture readonly %5) local_unnamed_addr #0 align 2 !dbg !3508 {
  call void @llvm.dbg.value(metadata %class.IP6NDAdvertiser* %0, metadata !3512, metadata !DIExpression()), !dbg !3524
  call void @llvm.dbg.value(metadata i8* %1, metadata !3513, metadata !DIExpression()), !dbg !3524
  call void @llvm.dbg.value(metadata i8* %2, metadata !3514, metadata !DIExpression()), !dbg !3524
  call void @llvm.dbg.value(metadata i8* %3, metadata !3515, metadata !DIExpression()), !dbg !3524
  call void @llvm.dbg.value(metadata i8* %4, metadata !3516, metadata !DIExpression()), !dbg !3524
  call void @llvm.dbg.value(metadata i8* %5, metadata !3517, metadata !DIExpression()), !dbg !3524
  call void @llvm.dbg.value(metadata i32 78, metadata !3441, metadata !DIExpression()), !dbg !3525
  %7 = tail call %class.WritablePacket* @_ZN6Packet4makeEjPKvjj(i32 28, i8* null, i32 78, i32 0), !dbg !3527
  call void @llvm.dbg.value(metadata %class.WritablePacket* %7, metadata !3521, metadata !DIExpression()), !dbg !3524
  %8 = icmp eq %class.WritablePacket* %7, null, !dbg !3528
  br i1 %8, label %9, label %10, !dbg !3530

9:                                                ; preds = %6
  tail call void (i8*, ...) @click_chatter(i8* getelementptr inbounds ([40 x i8], [40 x i8]* @.str.7, i64 0, i64 0)), !dbg !3531
  tail call void @__assert_fail(i8* getelementptr inbounds ([2 x i8], [2 x i8]* @.str.5, i64 0, i64 0), i8* getelementptr inbounds ([40 x i8], [40 x i8]* @.str.6, i64 0, i64 0), i32 160, i8* getelementptr inbounds ([90 x i8], [90 x i8]* @__PRETTY_FUNCTION__._ZN15IP6NDAdvertiser14make_response2EPhS0_S0_S0_S0_, i64 0, i64 0)) #12, !dbg !3533
  unreachable, !dbg !3533

10:                                               ; preds = %6
  %11 = tail call i8* @_ZNK14WritablePacket4dataEv(%class.WritablePacket* nonnull %7), !dbg !3534
  %12 = getelementptr %class.WritablePacket, %class.WritablePacket* %7, i64 0, i32 0, !dbg !3535
  %13 = tail call i32 @_ZNK6Packet6lengthEv(%class.Packet* %12), !dbg !3535
  %14 = zext i32 %13 to i64, !dbg !3536
  tail call void @llvm.memset.p0i8.i64(i8* align 1 %11, i8 0, i64 %14, i1 false), !dbg !3537
  %15 = tail call i8* @_ZNK14WritablePacket4dataEv(%class.WritablePacket* nonnull %7), !dbg !3538
  call void @llvm.dbg.value(metadata i8* %15, metadata !3518, metadata !DIExpression()), !dbg !3524
  %16 = getelementptr inbounds i8, i8* %15, i64 14, !dbg !3539
  call void @llvm.dbg.value(metadata i8* %16, metadata !3519, metadata !DIExpression()), !dbg !3524
  %17 = getelementptr inbounds i8, i8* %15, i64 54, !dbg !3540
  call void @llvm.dbg.value(metadata i8* %17, metadata !3520, metadata !DIExpression()), !dbg !3524
  tail call void @llvm.memcpy.p0i8.p0i8.i64(i8* nonnull align 1 dereferenceable(6) %15, i8* nonnull align 1 dereferenceable(6) %1, i64 6, i1 false), !dbg !3541
  %18 = getelementptr inbounds i8, i8* %15, i64 6, !dbg !3542
  tail call void @llvm.memcpy.p0i8.p0i8.i64(i8* nonnull align 1 dereferenceable(6) %18, i8* nonnull align 1 dereferenceable(6) %2, i64 6, i1 false), !dbg !3543
  %19 = getelementptr inbounds i8, i8* %15, i64 12, !dbg !3544
  %20 = bitcast i8* %19 to i16*, !dbg !3544
  store i16 -8826, i16* %20, align 1, !dbg !3545, !tbaa !3465
  %21 = bitcast i8* %16 to i32*, !dbg !3546
  store i32 96, i32* %21, align 4, !dbg !3547, !tbaa !2591
  %22 = getelementptr inbounds i8, i8* %15, i64 18, !dbg !3548
  %23 = bitcast i8* %22 to i16*, !dbg !3548
  store i16 6144, i16* %23, align 4, !dbg !3549, !tbaa !2591
  %24 = getelementptr inbounds i8, i8* %15, i64 20, !dbg !3550
  store i8 58, i8* %24, align 2, !dbg !3551, !tbaa !2591
  %25 = getelementptr inbounds i8, i8* %15, i64 21, !dbg !3552
  store i8 -1, i8* %25, align 1, !dbg !3553, !tbaa !2591
  %26 = getelementptr inbounds i8, i8* %15, i64 22, !dbg !3554
  call void @llvm.memmove.p0i8.p0i8.i64(i8* nonnull align 4 dereferenceable(16) %26, i8* nonnull align 1 dereferenceable(16) %4, i64 16, i1 false), !dbg !3555
  %27 = getelementptr inbounds i8, i8* %15, i64 38, !dbg !3556
  call void @llvm.memmove.p0i8.p0i8.i64(i8* nonnull align 4 dereferenceable(16) %27, i8* nonnull align 1 dereferenceable(16) %3, i64 16, i1 false), !dbg !3557
  store i8 -120, i8* %17, align 2, !dbg !3558, !tbaa !3559
  %28 = getelementptr inbounds i8, i8* %15, i64 55, !dbg !3561
  store i8 0, i8* %28, align 1, !dbg !3562, !tbaa !3563
  %29 = getelementptr inbounds i8, i8* %15, i64 58, !dbg !3564
  store i8 -64, i8* %29, align 2, !dbg !3565, !tbaa !3566
  call void @llvm.dbg.value(metadata i32 0, metadata !3522, metadata !DIExpression()), !dbg !3567
  %30 = getelementptr inbounds i8, i8* %15, i64 59, !dbg !3568
  call void @llvm.memset.p0i8.i64(i8* nonnull align 1 dereferenceable(3) %30, i8 0, i64 3, i1 false), !dbg !3571
  call void @llvm.dbg.value(metadata i32 undef, metadata !3522, metadata !DIExpression()), !dbg !3567
  %31 = bitcast i8* %26 to %struct.in6_addr*, !dbg !3554
  %32 = bitcast i8* %27 to %struct.in6_addr*, !dbg !3556
  %33 = getelementptr inbounds i8, i8* %15, i64 62, !dbg !3572
  tail call void @llvm.memcpy.p0i8.p0i8.i64(i8* nonnull align 2 dereferenceable(16) %33, i8* nonnull align 1 dereferenceable(16) %5, i64 16, i1 false), !dbg !3573
  %34 = tail call zeroext i16 @in6_fast_cksum(%struct.in6_addr* nonnull %31, %struct.in6_addr* nonnull %32, i16 zeroext 6144, i8 zeroext 58, i16 zeroext 0, i8* nonnull %17, i16 zeroext 6144), !dbg !3574
  %35 = tail call i16 @llvm.bswap.i16(i16 %34) #10
  %36 = getelementptr inbounds i8, i8* %15, i64 56, !dbg !3575
  %37 = bitcast i8* %36 to i16*, !dbg !3575
  store i16 %35, i16* %37, align 2, !dbg !3576, !tbaa !3577
  ret %class.Packet* %12, !dbg !3578
}

; Function Attrs: sspstrong uwtable
define dso_local zeroext i1 @_ZNK15IP6NDAdvertiser6lookupERK10IP6AddressR12EtherAddress(%class.IP6NDAdvertiser* %0, %class.IP6Address* nocapture readonly dereferenceable(16) %1, %class.EtherAddress* nocapture dereferenceable(6) %2) local_unnamed_addr #0 align 2 !dbg !3579 {
  call void @llvm.dbg.value(metadata %class.IP6NDAdvertiser* %0, metadata !3581, metadata !DIExpression()), !dbg !3588
  call void @llvm.dbg.value(metadata %class.IP6Address* %1, metadata !3583, metadata !DIExpression()), !dbg !3588
  call void @llvm.dbg.value(metadata %class.EtherAddress* %2, metadata !3584, metadata !DIExpression()), !dbg !3588
  call void @llvm.dbg.value(metadata i32 -1, metadata !3585, metadata !DIExpression()), !dbg !3588
  call void @llvm.dbg.value(metadata i32 0, metadata !3586, metadata !DIExpression()), !dbg !3589
  %4 = getelementptr inbounds %class.IP6NDAdvertiser, %class.IP6NDAdvertiser* %0, i64 0, i32 1, !dbg !3590
  call void @llvm.dbg.value(metadata %class.Vector* %4, metadata !3134, metadata !DIExpression()), !dbg !3592
  %5 = getelementptr inbounds %class.IP6NDAdvertiser, %class.IP6NDAdvertiser* %0, i64 0, i32 1, i32 0, i32 1, !dbg !3594
  %6 = load i32, i32* %5, align 8, !dbg !3594, !tbaa !3182
  %7 = icmp sgt i32 %6, 0, !dbg !3595
  br i1 %7, label %8, label %98, !dbg !3596

8:                                                ; preds = %3
  %9 = getelementptr %class.IP6Address, %class.IP6Address* %1, i64 0, i32 0, i32 0, i32 0, i64 0, !dbg !3597
  %10 = getelementptr inbounds %class.IP6Address, %class.IP6Address* %1, i64 0, i32 0, i32 0, i32 0, i64 1, !dbg !3613
  %11 = getelementptr inbounds %class.IP6Address, %class.IP6Address* %1, i64 0, i32 0, i32 0, i32 0, i64 2, !dbg !3613
  %12 = getelementptr inbounds %class.IP6Address, %class.IP6Address* %1, i64 0, i32 0, i32 0, i32 0, i64 3, !dbg !3613
  br label %15, !dbg !3596

13:                                               ; preds = %88
  call void @llvm.dbg.value(metadata i32 %89, metadata !3585, metadata !DIExpression()), !dbg !3588
  call void @llvm.dbg.value(metadata i32 %89, metadata !3585, metadata !DIExpression()), !dbg !3588
  call void @llvm.dbg.value(metadata i32 %89, metadata !3585, metadata !DIExpression()), !dbg !3588
  call void @llvm.dbg.value(metadata i32 %89, metadata !3585, metadata !DIExpression()), !dbg !3588
  call void @llvm.dbg.value(metadata i32 %89, metadata !3585, metadata !DIExpression()), !dbg !3588
  %14 = icmp slt i32 %89, 0, !dbg !3614
  br i1 %14, label %98, label %93, !dbg !3616

15:                                               ; preds = %8, %88
  %16 = phi i32 [ 0, %8 ], [ %90, %88 ]
  %17 = phi i32 [ -1, %8 ], [ %89, %88 ]
  call void @llvm.dbg.value(metadata i32 %16, metadata !3586, metadata !DIExpression()), !dbg !3589
  call void @llvm.dbg.value(metadata i32 %17, metadata !3585, metadata !DIExpression()), !dbg !3588
  %18 = tail call dereferenceable(40) %"struct.IP6NDAdvertiser::Entry"* @_ZNK6VectorIN15IP6NDAdvertiser5EntryEEixEi(%class.Vector* nonnull %4, i32 %16), !dbg !3617
  %19 = tail call dereferenceable(40) %"struct.IP6NDAdvertiser::Entry"* @_ZNK6VectorIN15IP6NDAdvertiser5EntryEEixEi(%class.Vector* nonnull %4, i32 %16), !dbg !3618
  call void @llvm.dbg.value(metadata %class.IP6Address* %1, metadata !3605, metadata !DIExpression()), !dbg !3613
  call void @llvm.dbg.value(metadata %"struct.IP6NDAdvertiser::Entry"* %18, metadata !3606, metadata !DIExpression()), !dbg !3613
  call void @llvm.dbg.value(metadata %"struct.IP6NDAdvertiser::Entry"* %19, metadata !3607, metadata !DIExpression(DW_OP_plus_uconst, 16, DW_OP_stack_value)), !dbg !3613
  call void @llvm.dbg.value(metadata %class.IP6Address* %1, metadata !3600, metadata !DIExpression()), !dbg !3597
  call void @llvm.dbg.value(metadata i32* %9, metadata !3608, metadata !DIExpression()), !dbg !3613
  call void @llvm.dbg.value(metadata %"struct.IP6NDAdvertiser::Entry"* %18, metadata !3600, metadata !DIExpression()), !dbg !3619
  %20 = getelementptr inbounds %"struct.IP6NDAdvertiser::Entry", %"struct.IP6NDAdvertiser::Entry"* %18, i64 0, i32 0, i32 0, i32 0, i32 0, i64 0, !dbg !3621
  call void @llvm.dbg.value(metadata i32* %20, metadata !3609, metadata !DIExpression()), !dbg !3613
  call void @llvm.dbg.value(metadata %"struct.IP6NDAdvertiser::Entry"* %19, metadata !3600, metadata !DIExpression(DW_OP_plus_uconst, 16, DW_OP_stack_value)), !dbg !3622
  %21 = getelementptr inbounds %"struct.IP6NDAdvertiser::Entry", %"struct.IP6NDAdvertiser::Entry"* %19, i64 0, i32 1, i32 0, i32 0, i32 0, i64 0, !dbg !3624
  call void @llvm.dbg.value(metadata i32* %21, metadata !3610, metadata !DIExpression()), !dbg !3613
  %22 = load i32, i32* %9, align 4, !dbg !3625, !tbaa !3277
  %23 = load i32, i32* %20, align 4, !dbg !3626, !tbaa !3277
  %24 = xor i32 %23, %22, !dbg !3627
  %25 = load i32, i32* %21, align 4, !dbg !3628, !tbaa !3277
  %26 = and i32 %24, %25, !dbg !3629
  %27 = icmp eq i32 %26, 0, !dbg !3630
  br i1 %27, label %28, label %88, !dbg !3631

28:                                               ; preds = %15
  %29 = load i32, i32* %10, align 4, !dbg !3632, !tbaa !3277
  %30 = getelementptr inbounds %"struct.IP6NDAdvertiser::Entry", %"struct.IP6NDAdvertiser::Entry"* %18, i64 0, i32 0, i32 0, i32 0, i32 0, i64 1, !dbg !3633
  %31 = load i32, i32* %30, align 4, !dbg !3633, !tbaa !3277
  %32 = xor i32 %31, %29, !dbg !3634
  %33 = getelementptr inbounds %"struct.IP6NDAdvertiser::Entry", %"struct.IP6NDAdvertiser::Entry"* %19, i64 0, i32 1, i32 0, i32 0, i32 0, i64 1, !dbg !3635
  %34 = load i32, i32* %33, align 4, !dbg !3635, !tbaa !3277
  %35 = and i32 %32, %34, !dbg !3636
  %36 = icmp eq i32 %35, 0, !dbg !3637
  br i1 %36, label %37, label %88, !dbg !3638

37:                                               ; preds = %28
  %38 = load i32, i32* %11, align 4, !dbg !3639, !tbaa !3277
  %39 = getelementptr inbounds %"struct.IP6NDAdvertiser::Entry", %"struct.IP6NDAdvertiser::Entry"* %18, i64 0, i32 0, i32 0, i32 0, i32 0, i64 2, !dbg !3640
  %40 = load i32, i32* %39, align 4, !dbg !3640, !tbaa !3277
  %41 = xor i32 %40, %38, !dbg !3641
  %42 = getelementptr inbounds %"struct.IP6NDAdvertiser::Entry", %"struct.IP6NDAdvertiser::Entry"* %19, i64 0, i32 1, i32 0, i32 0, i32 0, i64 2, !dbg !3642
  %43 = load i32, i32* %42, align 4, !dbg !3642, !tbaa !3277
  %44 = and i32 %41, %43, !dbg !3643
  %45 = icmp eq i32 %44, 0, !dbg !3644
  br i1 %45, label %46, label %88, !dbg !3645

46:                                               ; preds = %37
  %47 = load i32, i32* %12, align 4, !dbg !3646, !tbaa !3277
  %48 = getelementptr inbounds %"struct.IP6NDAdvertiser::Entry", %"struct.IP6NDAdvertiser::Entry"* %18, i64 0, i32 0, i32 0, i32 0, i32 0, i64 3, !dbg !3647
  %49 = load i32, i32* %48, align 4, !dbg !3647, !tbaa !3277
  %50 = xor i32 %49, %47, !dbg !3648
  %51 = getelementptr inbounds %"struct.IP6NDAdvertiser::Entry", %"struct.IP6NDAdvertiser::Entry"* %19, i64 0, i32 1, i32 0, i32 0, i32 0, i64 3, !dbg !3649
  %52 = load i32, i32* %51, align 4, !dbg !3649, !tbaa !3277
  %53 = and i32 %50, %52, !dbg !3650
  %54 = icmp eq i32 %53, 0, !dbg !3651
  br i1 %54, label %55, label %88, !dbg !3652

55:                                               ; preds = %46
  %56 = icmp slt i32 %17, 0, !dbg !3653
  br i1 %56, label %87, label %57, !dbg !3656

57:                                               ; preds = %55
  %58 = tail call dereferenceable(40) %"struct.IP6NDAdvertiser::Entry"* @_ZNK6VectorIN15IP6NDAdvertiser5EntryEEixEi(%class.Vector* nonnull %4, i32 %16), !dbg !3657
  %59 = tail call dereferenceable(40) %"struct.IP6NDAdvertiser::Entry"* @_ZNK6VectorIN15IP6NDAdvertiser5EntryEEixEi(%class.Vector* nonnull %4, i32 %17), !dbg !3658
  call void @llvm.dbg.value(metadata %"struct.IP6NDAdvertiser::Entry"* %58, metadata !3659, metadata !DIExpression(DW_OP_plus_uconst, 16, DW_OP_stack_value)), !dbg !3665
  call void @llvm.dbg.value(metadata %"struct.IP6NDAdvertiser::Entry"* %59, metadata !3662, metadata !DIExpression(DW_OP_plus_uconst, 16, DW_OP_stack_value)), !dbg !3665
  call void @llvm.dbg.value(metadata %"struct.IP6NDAdvertiser::Entry"* %58, metadata !3600, metadata !DIExpression(DW_OP_plus_uconst, 16, DW_OP_stack_value)), !dbg !3667
  %60 = getelementptr inbounds %"struct.IP6NDAdvertiser::Entry", %"struct.IP6NDAdvertiser::Entry"* %58, i64 0, i32 1, i32 0, i32 0, i32 0, i64 0, !dbg !3669
  call void @llvm.dbg.value(metadata i32* %60, metadata !3663, metadata !DIExpression()), !dbg !3665
  call void @llvm.dbg.value(metadata %"struct.IP6NDAdvertiser::Entry"* %59, metadata !3600, metadata !DIExpression(DW_OP_plus_uconst, 16, DW_OP_stack_value)), !dbg !3670
  %61 = getelementptr inbounds %"struct.IP6NDAdvertiser::Entry", %"struct.IP6NDAdvertiser::Entry"* %59, i64 0, i32 1, i32 0, i32 0, i32 0, i64 0, !dbg !3672
  call void @llvm.dbg.value(metadata i32* %61, metadata !3664, metadata !DIExpression()), !dbg !3665
  %62 = load i32, i32* %60, align 4, !dbg !3673, !tbaa !3277
  %63 = load i32, i32* %61, align 4, !dbg !3674, !tbaa !3277
  %64 = and i32 %63, %62, !dbg !3675
  %65 = icmp eq i32 %64, %63, !dbg !3676
  br i1 %65, label %66, label %88, !dbg !3677

66:                                               ; preds = %57
  %67 = getelementptr inbounds %"struct.IP6NDAdvertiser::Entry", %"struct.IP6NDAdvertiser::Entry"* %58, i64 0, i32 1, i32 0, i32 0, i32 0, i64 1, !dbg !3678
  %68 = load i32, i32* %67, align 4, !dbg !3678, !tbaa !3277
  %69 = getelementptr inbounds %"struct.IP6NDAdvertiser::Entry", %"struct.IP6NDAdvertiser::Entry"* %59, i64 0, i32 1, i32 0, i32 0, i32 0, i64 1, !dbg !3679
  %70 = load i32, i32* %69, align 4, !dbg !3679, !tbaa !3277
  %71 = and i32 %70, %68, !dbg !3680
  %72 = icmp eq i32 %71, %70, !dbg !3681
  br i1 %72, label %73, label %88, !dbg !3682

73:                                               ; preds = %66
  %74 = getelementptr inbounds %"struct.IP6NDAdvertiser::Entry", %"struct.IP6NDAdvertiser::Entry"* %58, i64 0, i32 1, i32 0, i32 0, i32 0, i64 2, !dbg !3683
  %75 = load i32, i32* %74, align 4, !dbg !3683, !tbaa !3277
  %76 = getelementptr inbounds %"struct.IP6NDAdvertiser::Entry", %"struct.IP6NDAdvertiser::Entry"* %59, i64 0, i32 1, i32 0, i32 0, i32 0, i64 2, !dbg !3684
  %77 = load i32, i32* %76, align 4, !dbg !3684, !tbaa !3277
  %78 = and i32 %77, %75, !dbg !3685
  %79 = icmp eq i32 %78, %77, !dbg !3686
  br i1 %79, label %80, label %88, !dbg !3687

80:                                               ; preds = %73
  %81 = getelementptr inbounds %"struct.IP6NDAdvertiser::Entry", %"struct.IP6NDAdvertiser::Entry"* %58, i64 0, i32 1, i32 0, i32 0, i32 0, i64 3, !dbg !3688
  %82 = load i32, i32* %81, align 4, !dbg !3688, !tbaa !3277
  %83 = getelementptr inbounds %"struct.IP6NDAdvertiser::Entry", %"struct.IP6NDAdvertiser::Entry"* %59, i64 0, i32 1, i32 0, i32 0, i32 0, i64 3, !dbg !3689
  %84 = load i32, i32* %83, align 4, !dbg !3689, !tbaa !3277
  %85 = and i32 %84, %82, !dbg !3690
  %86 = icmp eq i32 %85, %84, !dbg !3691
  br i1 %86, label %87, label %88, !dbg !3692

87:                                               ; preds = %80, %55
  call void @llvm.dbg.value(metadata i32 %16, metadata !3585, metadata !DIExpression()), !dbg !3588
  br label %88, !dbg !3693

88:                                               ; preds = %57, %66, %73, %15, %28, %37, %46, %87, %80
  %89 = phi i32 [ %16, %87 ], [ %17, %80 ], [ %17, %46 ], [ %17, %37 ], [ %17, %28 ], [ %17, %15 ], [ %17, %73 ], [ %17, %66 ], [ %17, %57 ], !dbg !3588
  call void @llvm.dbg.value(metadata i32 %89, metadata !3585, metadata !DIExpression()), !dbg !3588
  %90 = add nuw nsw i32 %16, 1, !dbg !3694
  call void @llvm.dbg.value(metadata i32 %90, metadata !3586, metadata !DIExpression()), !dbg !3589
  call void @llvm.dbg.value(metadata %class.Vector* %4, metadata !3134, metadata !DIExpression()), !dbg !3592
  %91 = load i32, i32* %5, align 8, !dbg !3594, !tbaa !3182
  %92 = icmp slt i32 %90, %91, !dbg !3595
  br i1 %92, label %15, label %13, !dbg !3596, !llvm.loop !3695

93:                                               ; preds = %13
  %94 = tail call dereferenceable(40) %"struct.IP6NDAdvertiser::Entry"* @_ZNK6VectorIN15IP6NDAdvertiser5EntryEEixEi(%class.Vector* nonnull %4, i32 %89), !dbg !3697
  %95 = getelementptr inbounds %"struct.IP6NDAdvertiser::Entry", %"struct.IP6NDAdvertiser::Entry"* %94, i64 0, i32 2, !dbg !3699
  %96 = bitcast %class.EtherAddress* %2 to i8*, !dbg !3700
  %97 = bitcast %class.EtherAddress* %95 to i8*, !dbg !3700
  tail call void @llvm.memcpy.p0i8.p0i8.i64(i8* nonnull align 1 dereferenceable(6) %96, i8* nonnull align 4 dereferenceable(6) %97, i64 6, i1 false), !dbg !3700, !tbaa.struct !2596
  br label %98, !dbg !3701

98:                                               ; preds = %3, %13, %93
  %99 = phi i1 [ true, %93 ], [ false, %13 ], [ false, %3 ], !dbg !3702
  ret i1 %99, !dbg !3703
}

declare dereferenceable(40) %"struct.IP6NDAdvertiser::Entry"* @_ZNK6VectorIN15IP6NDAdvertiser5EntryEEixEi(%class.Vector*, i32) local_unnamed_addr #2

; Function Attrs: sspstrong uwtable
define dso_local %class.Packet* @_ZN15IP6NDAdvertiser13simple_actionEP6Packet(%class.IP6NDAdvertiser* %0, %class.Packet* %1) unnamed_addr #0 align 2 !dbg !3704 {
  %3 = alloca [16 x i8], align 16
  %4 = alloca [16 x i8], align 16
  %5 = alloca [4 x i32], align 16
  %6 = alloca %class.IP6Address, align 4
  %7 = alloca %class.EtherAddress, align 2
  %8 = alloca [6 x i8], align 1
  call void @llvm.dbg.value(metadata %class.IP6NDAdvertiser* %0, metadata !3706, metadata !DIExpression()), !dbg !3725
  call void @llvm.dbg.value(metadata %class.Packet* %1, metadata !3707, metadata !DIExpression()), !dbg !3725
  %9 = tail call i8* @_ZNK6Packet4dataEv(%class.Packet* %1), !dbg !3726
  call void @llvm.dbg.value(metadata i8* %9, metadata !3708, metadata !DIExpression()), !dbg !3725
  call void @llvm.dbg.value(metadata i8* %9, metadata !3709, metadata !DIExpression(DW_OP_plus_uconst, 14, DW_OP_stack_value)), !dbg !3725
  %10 = getelementptr inbounds i8, i8* %9, i64 54, !dbg !3727
  call void @llvm.dbg.value(metadata i8* %10, metadata !3710, metadata !DIExpression()), !dbg !3725
  %11 = getelementptr inbounds [16 x i8], [16 x i8]* %3, i64 0, i64 0, !dbg !3728
  call void @llvm.lifetime.start.p0i8(i64 16, i8* nonnull %11) #10, !dbg !3728
  call void @llvm.dbg.declare(metadata [16 x i8]* %3, metadata !3711, metadata !DIExpression()), !dbg !3729
  %12 = getelementptr inbounds [16 x i8], [16 x i8]* %4, i64 0, i64 0, !dbg !3730
  call void @llvm.lifetime.start.p0i8(i64 16, i8* nonnull %12) #10, !dbg !3730
  call void @llvm.dbg.declare(metadata [16 x i8]* %4, metadata !3713, metadata !DIExpression()), !dbg !3731
  %13 = bitcast [4 x i32]* %5 to i8*, !dbg !3732
  call void @llvm.lifetime.start.p0i8(i64 16, i8* nonnull %13) #10, !dbg !3732
  call void @llvm.dbg.declare(metadata [4 x i32]* %5, metadata !3714, metadata !DIExpression()), !dbg !3733
  %14 = getelementptr inbounds i8, i8* %9, i64 62, !dbg !3734
  call void @llvm.memcpy.p0i8.p0i8.i64(i8* nonnull align 16 dereferenceable(16) %11, i8* nonnull align 4 dereferenceable(16) %14, i64 16, i1 false), !dbg !3735
  %15 = getelementptr inbounds i8, i8* %9, i64 22, !dbg !3736
  %16 = bitcast i8* %15 to %struct.in6_addr*, !dbg !3736
  call void @llvm.dbg.value(metadata %class.IP6Address* undef, metadata !3737, metadata !DIExpression()) #10, !dbg !3741
  call void @llvm.dbg.value(metadata %struct.in6_addr* %16, metadata !3740, metadata !DIExpression()) #10, !dbg !3741
  %17 = bitcast [4 x i32]* %5 to i8*
  call void @llvm.memcpy.p0i8.p0i8.i64(i8* nonnull align 16 dereferenceable(16) %17, i8* nonnull align 4 dereferenceable(16) %15, i64 16, i1 false), !dbg !3743
  %18 = bitcast %class.IP6Address* %6 to i8*, !dbg !3744
  call void @llvm.lifetime.start.p0i8(i64 16, i8* nonnull %18) #10, !dbg !3744
  call void @llvm.dbg.declare(metadata %class.IP6Address* %6, metadata !3715, metadata !DIExpression()), !dbg !3745
  call void @llvm.dbg.value(metadata %class.IP6Address* %6, metadata !3746, metadata !DIExpression()) #10, !dbg !3750
  call void @llvm.dbg.value(metadata i8* %11, metadata !3749, metadata !DIExpression()) #10, !dbg !3750
  call void @llvm.memcpy.p0i8.p0i8.i64(i8* nonnull align 4 dereferenceable(16) %18, i8* nonnull align 4 dereferenceable(16) %14, i64 16, i1 false), !dbg !3752
  %19 = getelementptr inbounds i8, i8* %9, i64 38, !dbg !3754
  %20 = bitcast i8* %19 to %struct.in6_addr*, !dbg !3754
  %21 = getelementptr inbounds i8, i8* %9, i64 18, !dbg !3755
  %22 = bitcast i8* %21 to i16*, !dbg !3755
  %23 = load i16, i16* %22, align 4, !dbg !3755, !tbaa !2591
  %24 = getelementptr inbounds i8, i8* %9, i64 20, !dbg !3756
  %25 = load i8, i8* %24, align 2, !dbg !3756, !tbaa !2591
  %26 = getelementptr inbounds i8, i8* %9, i64 56, !dbg !3757
  %27 = bitcast i8* %26 to i16*, !dbg !3757
  %28 = load i16, i16* %27, align 2, !dbg !3757, !tbaa !3758
  %29 = tail call zeroext i16 @in6_fast_cksum(%struct.in6_addr* nonnull %16, %struct.in6_addr* nonnull %20, i16 zeroext %23, i8 zeroext %25, i16 zeroext %28, i8* nonnull %10, i16 zeroext 8192), !dbg !3760
  call void @llvm.dbg.value(metadata i16 %29, metadata !3716, metadata !DIExpression()), !dbg !3725
  call void @llvm.dbg.value(metadata %class.Packet* null, metadata !3717, metadata !DIExpression()), !dbg !3725
  %30 = tail call i32 @_ZNK6Packet6lengthEv(%class.Packet* %1), !dbg !3761
  %31 = icmp ugt i32 %30, 85, !dbg !3762
  br i1 %31, label %32, label %64, !dbg !3763

32:                                               ; preds = %2
  %33 = getelementptr inbounds i8, i8* %9, i64 12, !dbg !3764
  %34 = bitcast i8* %33 to i16*, !dbg !3764
  %35 = load i16, i16* %34, align 1, !dbg !3764, !tbaa !3465
  %36 = icmp eq i16 %35, -8826, !dbg !3765
  br i1 %36, label %37, label %64, !dbg !3766

37:                                               ; preds = %32
  %38 = getelementptr inbounds i8, i8* %9, i64 21, !dbg !3767
  %39 = load i8, i8* %38, align 1, !dbg !3767, !tbaa !2591
  %40 = icmp eq i8 %39, -1, !dbg !3768
  br i1 %40, label %41, label %64, !dbg !3769

41:                                               ; preds = %37
  %42 = load i8, i8* %10, align 4, !dbg !3770, !tbaa !3771
  %43 = icmp eq i8 %42, -121, !dbg !3772
  br i1 %43, label %44, label %64, !dbg !3773

44:                                               ; preds = %41
  %45 = getelementptr inbounds i8, i8* %9, i64 55, !dbg !3774
  %46 = load i8, i8* %45, align 1, !dbg !3774, !tbaa !3775
  %47 = icmp eq i8 %46, 0, !dbg !3776
  br i1 %47, label %48, label %64, !dbg !3777

48:                                               ; preds = %44
  %49 = load i16, i16* %27, align 2, !dbg !3778, !tbaa !3758
  %50 = tail call i16 @llvm.bswap.i16(i16 %49) #10
  %51 = icmp eq i16 %29, %50, !dbg !3779
  br i1 %51, label %52, label %64, !dbg !3780

52:                                               ; preds = %48
  %53 = bitcast %class.EtherAddress* %7 to i8*, !dbg !3781
  call void @llvm.lifetime.start.p0i8(i64 6, i8* nonnull %53) #10, !dbg !3781
  call void @llvm.dbg.declare(metadata %class.EtherAddress* %7, metadata !3718, metadata !DIExpression()), !dbg !3782
  call void @llvm.dbg.value(metadata %class.EtherAddress* %7, metadata !2703, metadata !DIExpression()), !dbg !3783
  %54 = getelementptr inbounds %class.EtherAddress, %class.EtherAddress* %7, i64 0, i32 0, i64 2, !dbg !3785
  store i16 0, i16* %54, align 2, !dbg !3786, !tbaa !3154
  %55 = getelementptr inbounds %class.EtherAddress, %class.EtherAddress* %7, i64 0, i32 0, i64 1, !dbg !3787
  store i16 0, i16* %55, align 2, !dbg !3788, !tbaa !3154
  %56 = getelementptr inbounds %class.EtherAddress, %class.EtherAddress* %7, i64 0, i32 0, i64 0, !dbg !3789
  store i16 0, i16* %56, align 2, !dbg !3790, !tbaa !3154
  %57 = getelementptr inbounds [6 x i8], [6 x i8]* %8, i64 0, i64 0, !dbg !3791
  call void @llvm.lifetime.start.p0i8(i64 6, i8* nonnull %57) #10, !dbg !3791
  call void @llvm.dbg.declare(metadata [6 x i8]* %8, metadata !3721, metadata !DIExpression()), !dbg !3792
  %58 = call zeroext i1 @_ZNK15IP6NDAdvertiser6lookupERK10IP6AddressR12EtherAddress(%class.IP6NDAdvertiser* %0, %class.IP6Address* nonnull dereferenceable(16) %6, %class.EtherAddress* nonnull dereferenceable(6) %7), !dbg !3793
  br i1 %58, label %59, label %62, !dbg !3795

59:                                               ; preds = %52
  call void @llvm.memcpy.p0i8.p0i8.i64(i8* nonnull align 16 dereferenceable(16) %12, i8* nonnull align 4 dereferenceable(16) %18, i64 16, i1 false), !dbg !3796
  call void @llvm.memcpy.p0i8.p0i8.i64(i8* nonnull align 1 dereferenceable(6) %57, i8* nonnull align 2 dereferenceable(6) %53, i64 6, i1 false), !dbg !3798
  %60 = getelementptr inbounds i8, i8* %9, i64 6, !dbg !3799
  %61 = call %class.Packet* @_ZN15IP6NDAdvertiser13make_responseEPhS0_S0_S0_S0_S0_(%class.IP6NDAdvertiser* undef, i8* nonnull %60, i8* nonnull %57, i8* nonnull %13, i8* nonnull %12, i8* nonnull %11, i8* nonnull %57), !dbg !3800
  call void @llvm.dbg.value(metadata %class.Packet* %61, metadata !3717, metadata !DIExpression()), !dbg !3725
  br label %62, !dbg !3801

62:                                               ; preds = %59, %52
  %63 = phi %class.Packet* [ %61, %59 ], [ null, %52 ], !dbg !3725
  call void @llvm.dbg.value(metadata %class.Packet* %63, metadata !3717, metadata !DIExpression()), !dbg !3725
  call void @llvm.lifetime.end.p0i8(i64 6, i8* nonnull %57) #10, !dbg !3802
  call void @llvm.lifetime.end.p0i8(i64 6, i8* nonnull %53) #10, !dbg !3802
  br label %64, !dbg !3803

64:                                               ; preds = %2, %32, %37, %41, %44, %48, %62
  %65 = phi %class.Packet* [ %63, %62 ], [ null, %48 ], [ null, %44 ], [ null, %41 ], [ null, %37 ], [ null, %32 ], [ null, %2 ], !dbg !3725
  call void @llvm.dbg.value(metadata %class.Packet* %65, metadata !3717, metadata !DIExpression()), !dbg !3725
  tail call void @_ZN6Packet4killEv(%class.Packet* %1), !dbg !3804
  call void @llvm.lifetime.end.p0i8(i64 16, i8* nonnull %18) #10, !dbg !3805
  call void @llvm.lifetime.end.p0i8(i64 16, i8* nonnull %13) #10, !dbg !3805
  call void @llvm.lifetime.end.p0i8(i64 16, i8* nonnull %12) #10, !dbg !3805
  call void @llvm.lifetime.end.p0i8(i64 16, i8* nonnull %11) #10, !dbg !3805
  ret %class.Packet* %65, !dbg !3806
}

declare i8* @_ZNK6Packet4dataEv(%class.Packet*) local_unnamed_addr #2

declare void @_ZN6Packet4killEv(%class.Packet*) local_unnamed_addr #2

declare void @_ZN7Element4pushEiP6Packet(%class.Element*, i32, %class.Packet*) unnamed_addr #2

declare %class.Packet* @_ZN7Element4pullEi(%class.Element*, i32) unnamed_addr #2

declare zeroext i1 @_ZN7Element8run_taskEP4Task(%class.Element*, %class.Task*) unnamed_addr #2

declare void @_ZN7Element9run_timerEP5Timer(%class.Element*, %class.Timer*) unnamed_addr #2

declare void @_ZN7Element8selectedEii(%class.Element*, i32, i32) unnamed_addr #2

declare void @_ZN7Element8selectedEi(%class.Element*, i32) unnamed_addr #2

; Function Attrs: nounwind sspstrong uwtable
define linkonce_odr dso_local i8* @_ZNK15IP6NDAdvertiser10class_nameEv(%class.IP6NDAdvertiser* %0) unnamed_addr #4 comdat align 2 !dbg !3807 {
  call void @llvm.dbg.value(metadata %class.IP6NDAdvertiser* %0, metadata !3809, metadata !DIExpression()), !dbg !3810
  ret i8* getelementptr inbounds ([16 x i8], [16 x i8]* @.str.10, i64 0, i64 0), !dbg !3811
}

; Function Attrs: nounwind sspstrong uwtable
define linkonce_odr dso_local i8* @_ZNK15IP6NDAdvertiser10port_countEv(%class.IP6NDAdvertiser* %0) unnamed_addr #4 comdat align 2 !dbg !3812 {
  call void @llvm.dbg.value(metadata %class.IP6NDAdvertiser* %0, metadata !3814, metadata !DIExpression()), !dbg !3815
  ret i8* getelementptr inbounds ([0 x i8], [0 x i8]* @_ZN7Element9PORTS_1_1E, i64 0, i64 0), !dbg !3816
}

declare i8* @_ZNK7Element10processingEv(%class.Element*) unnamed_addr #2

declare i8* @_ZNK7Element9flow_codeEv(%class.Element*) unnamed_addr #2

declare i8* @_ZNK7Element5flagsEv(%class.Element*) unnamed_addr #2

declare i8* @_ZN7Element4castEPKc(%class.Element*, i8*) unnamed_addr #2

declare i8* @_ZN7Element9port_castEbiPKc(%class.Element*, i1 zeroext, i32, i8*) unnamed_addr #2

declare i32 @_ZNK7Element15configure_phaseEv(%class.Element*) unnamed_addr #2

declare void @_ZN7Element12add_handlersEv(%class.Element*) unnamed_addr #2

declare i32 @_ZN7Element10initializeEP12ErrorHandler(%class.Element*, %class.ErrorHandler*) unnamed_addr #2

declare void @_ZN7Element10take_stateEPS_P12ErrorHandler(%class.Element*, %class.Element*, %class.ErrorHandler*) unnamed_addr #2

declare %class.Element* @_ZNK7Element15hotswap_elementEv(%class.Element*) unnamed_addr #2

declare void @_ZN7Element7cleanupENS_12CleanupStageE(%class.Element*, i32) unnamed_addr #2

declare void @_ZNK7Element11declarationEv(%class.String* sret, %class.Element*) unnamed_addr #2

declare zeroext i1 @_ZNK7Element20can_live_reconfigureEv(%class.Element*) unnamed_addr #2

declare i32 @_ZN7Element16live_reconfigureER6VectorI6StringEP12ErrorHandler(%class.Element*, %class.Vector.0* dereferenceable(16), %class.ErrorHandler*) unnamed_addr #2

declare i32 @_ZN7Element5llrpcEjPv(%class.Element*, i32, i8*) unnamed_addr #2

; Function Attrs: noinline noreturn nounwind
define linkonce_odr hidden void @__clang_call_terminate(i8* %0) local_unnamed_addr #8 comdat {
  %2 = tail call i8* @__cxa_begin_catch(i8* %0) #10
  tail call void @_ZSt9terminatev() #12
  unreachable
}

declare i8* @__cxa_begin_catch(i8*) local_unnamed_addr

declare void @_ZSt9terminatev() local_unnamed_addr

; Function Attrs: nobuiltin nounwind
declare void @_ZdaPv(i8*) local_unnamed_addr #5

declare void @_ZN6String11delete_memoEPNS_6memo_tE(%"struct.String::memo_t"*) local_unnamed_addr #2

declare zeroext i1 @_ZN15EtherAddressArg5parseERK6StringR12EtherAddressRK10ArgContexti(%class.String* dereferenceable(24), %class.EtherAddress* dereferenceable(6), %class.ArgContext* dereferenceable(32), i32) local_unnamed_addr #2

declare %class.WritablePacket* @_ZN6Packet4makeEjPKvjj(i32, i8*, i32, i32) local_unnamed_addr #2

; Function Attrs: sspstrong uwtable
define linkonce_odr dso_local zeroext i1 @_ZN13vector_memoryI18sized_array_memoryILm40EEE21reserve_and_push_backEiPK10char_arrayILm40EE(%class.vector_memory* %0, i32 %1, %struct.char_array* %2) local_unnamed_addr #0 comdat align 2 !dbg !3817 {
  %4 = alloca %struct.char_array, align 1
  call void @llvm.dbg.value(metadata %class.vector_memory* %0, metadata !3819, metadata !DIExpression()), !dbg !3828
  call void @llvm.dbg.value(metadata i32 %1, metadata !3820, metadata !DIExpression()), !dbg !3828
  call void @llvm.dbg.value(metadata %struct.char_array* %2, metadata !3821, metadata !DIExpression()), !dbg !3828
  %5 = icmp ne %struct.char_array* %2, null, !dbg !3829
  br i1 %5, label %6, label %20, !dbg !3829

6:                                                ; preds = %3
  call void @llvm.dbg.value(metadata %class.vector_memory* %0, metadata !3830, metadata !DIExpression()), !dbg !3835
  call void @llvm.dbg.value(metadata %struct.char_array* %2, metadata !3833, metadata !DIExpression()), !dbg !3835
  %7 = ptrtoint %struct.char_array* %2 to i64, !dbg !3837
  %8 = bitcast %class.vector_memory* %0 to i64*, !dbg !3838
  %9 = load i64, i64* %8, align 8, !dbg !3838, !tbaa !2557
  %10 = sub i64 %7, %9, !dbg !3839
  %11 = getelementptr inbounds %class.vector_memory, %class.vector_memory* %0, i64 0, i32 1, !dbg !3840
  %12 = load i32, i32* %11, align 8, !dbg !3840, !tbaa !2620
  %13 = sext i32 %12 to i64, !dbg !3840
  %14 = mul nsw i64 %13, 40, !dbg !3841
  %15 = icmp ult i64 %10, %14, !dbg !3842
  br i1 %15, label %16, label %20, !dbg !3843, !prof !3844, !misexpect !3845

16:                                               ; preds = %6
  %17 = getelementptr inbounds %struct.char_array, %struct.char_array* %4, i64 0, i32 0, i64 0, !dbg !3846
  call void @llvm.lifetime.start.p0i8(i64 40, i8* nonnull %17) #10, !dbg !3846
  call void @llvm.dbg.declare(metadata %struct.char_array* %4, metadata !3822, metadata !DIExpression()), !dbg !3847
  %18 = getelementptr %struct.char_array, %struct.char_array* %2, i64 0, i32 0, i64 0, !dbg !3847
  call void @llvm.memcpy.p0i8.p0i8.i64(i8* nonnull align 1 dereferenceable(40) %17, i8* nonnull align 1 dereferenceable(40) %18, i64 40, i1 false), !dbg !3847, !tbaa.struct !3848
  %19 = call zeroext i1 @_ZN13vector_memoryI18sized_array_memoryILm40EEE21reserve_and_push_backEiPK10char_arrayILm40EE(%class.vector_memory* nonnull %0, i32 %1, %struct.char_array* nonnull %4), !dbg !3849
  call void @llvm.lifetime.end.p0i8(i64 40, i8* nonnull %17) #10, !dbg !3850
  br label %62

20:                                               ; preds = %3, %6
  %21 = icmp slt i32 %1, 0, !dbg !3851
  %22 = getelementptr inbounds %class.vector_memory, %class.vector_memory* %0, i64 0, i32 2, !dbg !3828
  %23 = load i32, i32* %22, align 4, !dbg !3828, !tbaa !2622
  %24 = icmp sgt i32 %23, 0, !dbg !3853
  %25 = shl nsw i32 %23, 1, !dbg !3853
  %26 = select i1 %24, i32 %25, i32 4, !dbg !3853
  %27 = select i1 %21, i32 %26, i32 %1, !dbg !3853
  call void @llvm.dbg.value(metadata i32 %27, metadata !3820, metadata !DIExpression()), !dbg !3828
  %28 = getelementptr inbounds %class.vector_memory, %class.vector_memory* %0, i64 0, i32 2, !dbg !3854
  %29 = icmp sgt i32 %27, %23, !dbg !3855
  br i1 %29, label %30, label %46, !dbg !3856

30:                                               ; preds = %20
  %31 = sext i32 %27 to i64, !dbg !3857
  %32 = mul nsw i64 %31, 40, !dbg !3857
  %33 = tail call i8* @_Znam(i64 %32) #13, !dbg !3857
  call void @llvm.dbg.value(metadata i8* %33, metadata !3825, metadata !DIExpression()), !dbg !3858
  call void @llvm.dbg.value(metadata i8* %33, metadata !3825, metadata !DIExpression()), !dbg !3858
  %34 = getelementptr inbounds %class.vector_memory, %class.vector_memory* %0, i64 0, i32 1, !dbg !3859
  %35 = load i32, i32* %34, align 8, !dbg !3859, !tbaa !2620
  %36 = bitcast %class.vector_memory* %0 to i8**, !dbg !3860
  %37 = load i8*, i8** %36, align 8, !dbg !3860, !tbaa !2557
  call void @llvm.dbg.value(metadata i8* %33, metadata !3861, metadata !DIExpression()) #10, !dbg !3866
  call void @llvm.dbg.value(metadata i8* %37, metadata !3864, metadata !DIExpression()) #10, !dbg !3866
  call void @llvm.dbg.value(metadata i32 %35, metadata !3865, metadata !DIExpression(DW_OP_LLVM_convert, 32, DW_ATE_signed, DW_OP_LLVM_convert, 64, DW_ATE_signed, DW_OP_stack_value)) #10, !dbg !3866
  %38 = icmp eq i32 %35, 0, !dbg !3868
  br i1 %38, label %42, label %39, !dbg !3870

39:                                               ; preds = %30
  %40 = sext i32 %35 to i64, !dbg !3871
  call void @llvm.dbg.value(metadata i64 %40, metadata !3865, metadata !DIExpression()) #10, !dbg !3866
  %41 = mul nsw i64 %40, 40, !dbg !3872
  tail call void @llvm.memmove.p0i8.p0i8.i64(i8* nonnull align 1 %33, i8* align 1 %37, i64 %41, i1 false) #10, !dbg !3873
  br label %42, !dbg !3873

42:                                               ; preds = %30, %39
  %43 = icmp eq i8* %37, null, !dbg !3874
  br i1 %43, label %45, label %44, !dbg !3874

44:                                               ; preds = %42
  tail call void @_ZdaPv(i8* nonnull %37) #11, !dbg !3874
  br label %45, !dbg !3874

45:                                               ; preds = %44, %42
  store i8* %33, i8** %36, align 8, !dbg !3875, !tbaa !2557
  store i32 %27, i32* %28, align 4, !dbg !3876, !tbaa !2622
  br label %46

46:                                               ; preds = %45, %20
  %47 = phi i32 [ %27, %45 ], [ %23, %20 ]
  br i1 %5, label %48, label %62, !dbg !3877, !prof !3844, !misexpect !3845

48:                                               ; preds = %46
  call void @llvm.dbg.value(metadata %class.vector_memory* %0, metadata !2612, metadata !DIExpression()), !dbg !3878
  call void @llvm.dbg.value(metadata %struct.char_array* %2, metadata !2615, metadata !DIExpression()), !dbg !3878
  %49 = getelementptr inbounds %class.vector_memory, %class.vector_memory* %0, i64 0, i32 1, !dbg !3881
  %50 = load i32, i32* %49, align 8, !dbg !3881, !tbaa !2620
  %51 = icmp slt i32 %50, %47, !dbg !3882
  br i1 %51, label %52, label %60, !dbg !3883

52:                                               ; preds = %48
  %53 = getelementptr inbounds %class.vector_memory, %class.vector_memory* %0, i64 0, i32 0, !dbg !3884
  %54 = load %struct.char_array*, %struct.char_array** %53, align 8, !dbg !3884, !tbaa !2557
  %55 = sext i32 %50 to i64, !dbg !3885
  %56 = getelementptr inbounds %struct.char_array, %struct.char_array* %54, i64 %55, i32 0, i64 0, !dbg !3886
  %57 = getelementptr %struct.char_array, %struct.char_array* %2, i64 0, i32 0, i64 0, !dbg !3887
  call void @llvm.dbg.value(metadata i8* %57, metadata !2629, metadata !DIExpression()) #10, !dbg !3888
  call void @llvm.dbg.value(metadata i8* %56, metadata !2632, metadata !DIExpression()) #10, !dbg !3888
  call void @llvm.dbg.value(metadata i64 undef, metadata !2633, metadata !DIExpression()) #10, !dbg !3888
  tail call void @llvm.memcpy.p0i8.p0i8.i64(i8* nonnull align 1 dereferenceable(40) %56, i8* nonnull align 1 dereferenceable(40) %57, i64 40, i1 false) #10, !dbg !3890
  call void @llvm.dbg.value(metadata i64 undef, metadata !2633, metadata !DIExpression(DW_OP_constu, 1, DW_OP_minus, DW_OP_stack_value)) #10, !dbg !3888
  %58 = load i32, i32* %49, align 8, !dbg !3891, !tbaa !2620
  %59 = add nsw i32 %58, 1, !dbg !3891
  store i32 %59, i32* %49, align 8, !dbg !3891, !tbaa !2620
  br label %62, !dbg !3892

60:                                               ; preds = %48
  %61 = tail call zeroext i1 @_ZN13vector_memoryI18sized_array_memoryILm40EEE21reserve_and_push_backEiPK10char_arrayILm40EE(%class.vector_memory* nonnull %0, i32 -1, %struct.char_array* nonnull %2), !dbg !3893
  br label %62

62:                                               ; preds = %60, %52, %46, %16
  %63 = phi i1 [ %19, %16 ], [ true, %46 ], [ true, %52 ], [ true, %60 ]
  ret i1 %63, !dbg !3894
}

; Function Attrs: nobuiltin nofree
declare noalias nonnull i8* @_Znam(i64) local_unnamed_addr #9

; Function Attrs: argmemonly nounwind willreturn
declare void @llvm.memmove.p0i8.p0i8.i64(i8* nocapture, i8* nocapture readonly, i64, i1 immarg) #6

; Function Attrs: nounwind readnone speculatable willreturn
declare void @llvm.dbg.value(metadata, metadata, metadata) #1

; Function Attrs: nounwind readnone speculatable willreturn
declare i16 @llvm.bswap.i16(i16) #1

attributes #0 = { sspstrong uwtable "correctly-rounded-divide-sqrt-fp-math"="false" "disable-tail-calls"="false" "frame-pointer"="none" "less-precise-fpmad"="false" "min-legal-vector-width"="0" "no-infs-fp-math"="false" "no-jump-tables"="false" "no-nans-fp-math"="false" "no-signed-zeros-fp-math"="false" "no-trapping-math"="false" "stack-protector-buffer-size"="8" "target-cpu"="x86-64" "target-features"="+cx8,+fxsr,+mmx,+sse,+sse2,+x87" "unsafe-fp-math"="false" "use-soft-float"="false" }
attributes #1 = { nounwind readnone speculatable willreturn }
attributes #2 = { "correctly-rounded-divide-sqrt-fp-math"="false" "disable-tail-calls"="false" "frame-pointer"="none" "less-precise-fpmad"="false" "no-infs-fp-math"="false" "no-nans-fp-math"="false" "no-signed-zeros-fp-math"="false" "no-trapping-math"="false" "stack-protector-buffer-size"="8" "target-cpu"="x86-64" "target-features"="+cx8,+fxsr,+mmx,+sse,+sse2,+x87" "unsafe-fp-math"="false" "use-soft-float"="false" }
attributes #3 = { nounwind "correctly-rounded-divide-sqrt-fp-math"="false" "disable-tail-calls"="false" "frame-pointer"="none" "less-precise-fpmad"="false" "no-infs-fp-math"="false" "no-nans-fp-math"="false" "no-signed-zeros-fp-math"="false" "no-trapping-math"="false" "stack-protector-buffer-size"="8" "target-cpu"="x86-64" "target-features"="+cx8,+fxsr,+mmx,+sse,+sse2,+x87" "unsafe-fp-math"="false" "use-soft-float"="false" }
attributes #4 = { nounwind sspstrong uwtable "correctly-rounded-divide-sqrt-fp-math"="false" "disable-tail-calls"="false" "frame-pointer"="none" "less-precise-fpmad"="false" "min-legal-vector-width"="0" "no-infs-fp-math"="false" "no-jump-tables"="false" "no-nans-fp-math"="false" "no-signed-zeros-fp-math"="false" "no-trapping-math"="false" "stack-protector-buffer-size"="8" "target-cpu"="x86-64" "target-features"="+cx8,+fxsr,+mmx,+sse,+sse2,+x87" "unsafe-fp-math"="false" "use-soft-float"="false" }
attributes #5 = { nobuiltin nounwind "correctly-rounded-divide-sqrt-fp-math"="false" "disable-tail-calls"="false" "frame-pointer"="none" "less-precise-fpmad"="false" "no-infs-fp-math"="false" "no-nans-fp-math"="false" "no-signed-zeros-fp-math"="false" "no-trapping-math"="false" "stack-protector-buffer-size"="8" "target-cpu"="x86-64" "target-features"="+cx8,+fxsr,+mmx,+sse,+sse2,+x87" "unsafe-fp-math"="false" "use-soft-float"="false" }
attributes #6 = { argmemonly nounwind willreturn }
attributes #7 = { noreturn nounwind "correctly-rounded-divide-sqrt-fp-math"="false" "disable-tail-calls"="false" "frame-pointer"="none" "less-precise-fpmad"="false" "no-infs-fp-math"="false" "no-nans-fp-math"="false" "no-signed-zeros-fp-math"="false" "no-trapping-math"="false" "stack-protector-buffer-size"="8" "target-cpu"="x86-64" "target-features"="+cx8,+fxsr,+mmx,+sse,+sse2,+x87" "unsafe-fp-math"="false" "use-soft-float"="false" }
attributes #8 = { noinline noreturn nounwind }
attributes #9 = { nobuiltin nofree "correctly-rounded-divide-sqrt-fp-math"="false" "disable-tail-calls"="false" "frame-pointer"="none" "less-precise-fpmad"="false" "no-infs-fp-math"="false" "no-nans-fp-math"="false" "no-signed-zeros-fp-math"="false" "no-trapping-math"="false" "stack-protector-buffer-size"="8" "target-cpu"="x86-64" "target-features"="+cx8,+fxsr,+mmx,+sse,+sse2,+x87" "unsafe-fp-math"="false" "use-soft-float"="false" }
attributes #10 = { nounwind }
attributes #11 = { builtin nounwind }
attributes #12 = { noreturn nounwind }
attributes #13 = { builtin }

!llvm.dbg.cu = !{!0}
!llvm.module.flags = !{!2349, !2350, !2351, !2352, !2353}
!llvm.ident = !{!2354}

!0 = distinct !DICompileUnit(language: DW_LANG_C_plus_plus_14, file: !1, producer: "clang version 10.0.0 ", isOptimized: true, runtimeVersion: 0, emissionKind: FullDebug, enums: !2, retainedTypes: !1207, imports: !1726, splitDebugInlining: false, nameTableKind: None)
!1 = !DIFile(filename: "../elements/ethernet/ip6ndadvertiser.cc", directory: "/home/john/projects/click/ir-dir")
!2 = !{!3, !898, !1203}
!3 = !DICompositeType(tag: DW_TAG_enumeration_type, name: "PacketType", scope: !5, file: !4, line: 368, baseType: !16, size: 32, elements: !1195, identifier: "_ZTSN6Packet10PacketTypeE")
!4 = !DIFile(filename: "../dummy_inc/click/packet.hh", directory: "/home/john/projects/click/ir-dir")
!5 = distinct !DICompositeType(tag: DW_TAG_class_type, name: "Packet", file: !4, line: 35, size: 1344, flags: DIFlagTypePassByReference | DIFlagNonTrivial, elements: !6, identifier: "_ZTS6Packet")
!6 = !{!7, !77, !79, !82, !83, !84, !85, !128, !136, !137, !267, !270, !273, !276, !279, !283, !287, !290, !293, !298, !299, !302, !303, !304, !305, !306, !307, !310, !313, !316, !317, !320, !321, !324, !327, !328, !329, !330, !333, !336, !339, !342, !343, !344, !347, !348, !349, !352, !353, !354, !355, !356, !357, !358, !359, !360, !361, !362, !363, !364, !365, !366, !367, !372, !375, !380, !381, !382, !385, !390, !391, !392, !395, !398, !403, !408, !413, !418, !422, !939, !943, !946, !952, !955, !958, !961, !964, !968, !971, !972, !973, !974, !1064, !1067, !1068, !1071, !1075, !1080, !1084, !1089, !1092, !1095, !1098, !1101, !1107, !1110, !1113, !1116, !1119, !1122, !1125, !1128, !1131, !1134, !1135, !1138, !1142, !1143, !1144, !1145, !1146, !1147, !1148, !1149, !1150, !1151, !1152, !1153, !1154, !1155, !1156, !1157, !1158, !1159, !1160, !1161, !1162, !1163, !1164, !1165, !1166, !1167, !1168, !1169, !1170, !1171, !1172, !1173, !1174, !1175, !1176, !1179, !1180, !1184, !1187, !1190, !1193, !1194}
!7 = !DIDerivedType(tag: DW_TAG_member, name: "_use_count", scope: !5, file: !4, line: 731, baseType: !8, size: 32)
!8 = distinct !DICompositeType(tag: DW_TAG_class_type, name: "atomic_uint32_t", file: !9, line: 52, size: 32, flags: DIFlagTypePassByValue, elements: !10, identifier: "_ZTS15atomic_uint32_t")
!9 = !DIFile(filename: "../dummy_inc/click/atomic.hh", directory: "/home/john/projects/click/ir-dir")
!10 = !{!11, !17, !22, !23, !28, !35, !36, !37, !38, !41, !44, !45, !46, !49, !50, !54, !57, !60, !65, !68, !71, !74}
!11 = !DIDerivedType(tag: DW_TAG_member, name: "_val", scope: !8, file: !9, line: 91, baseType: !12, size: 32)
!12 = !DIDerivedType(tag: DW_TAG_typedef, name: "uint32_t", file: !13, line: 26, baseType: !14)
!13 = !DIFile(filename: "/usr/include/bits/stdint-uintn.h", directory: "")
!14 = !DIDerivedType(tag: DW_TAG_typedef, name: "__uint32_t", file: !15, line: 42, baseType: !16)
!15 = !DIFile(filename: "/usr/include/bits/types.h", directory: "")
!16 = !DIBasicType(name: "unsigned int", size: 32, encoding: DW_ATE_unsigned)
!17 = !DISubprogram(name: "value", linkageName: "_ZNK15atomic_uint32_t5valueEv", scope: !8, file: !9, line: 57, type: !18, scopeLine: 57, flags: DIFlagPublic | DIFlagPrototyped, spFlags: DISPFlagOptimized)
!18 = !DISubroutineType(types: !19)
!19 = !{!12, !20}
!20 = !DIDerivedType(tag: DW_TAG_pointer_type, baseType: !21, size: 64, flags: DIFlagArtificial | DIFlagObjectPointer)
!21 = !DIDerivedType(tag: DW_TAG_const_type, baseType: !8)
!22 = !DISubprogram(name: "operator unsigned int", linkageName: "_ZNK15atomic_uint32_tcvjEv", scope: !8, file: !9, line: 58, type: !18, scopeLine: 58, flags: DIFlagPublic | DIFlagPrototyped, spFlags: DISPFlagOptimized)
!23 = !DISubprogram(name: "operator=", linkageName: "_ZN15atomic_uint32_taSEj", scope: !8, file: !9, line: 60, type: !24, scopeLine: 60, flags: DIFlagPublic | DIFlagPrototyped, spFlags: DISPFlagOptimized)
!24 = !DISubroutineType(types: !25)
!25 = !{!26, !27, !12}
!26 = !DIDerivedType(tag: DW_TAG_reference_type, baseType: !8, size: 64)
!27 = !DIDerivedType(tag: DW_TAG_pointer_type, baseType: !8, size: 64, flags: DIFlagArtificial | DIFlagObjectPointer)
!28 = !DISubprogram(name: "operator+=", linkageName: "_ZN15atomic_uint32_tpLEi", scope: !8, file: !9, line: 62, type: !29, scopeLine: 62, flags: DIFlagPublic | DIFlagPrototyped, spFlags: DISPFlagOptimized)
!29 = !DISubroutineType(types: !30)
!30 = !{!26, !27, !31}
!31 = !DIDerivedType(tag: DW_TAG_typedef, name: "int32_t", file: !32, line: 26, baseType: !33)
!32 = !DIFile(filename: "/usr/include/bits/stdint-intn.h", directory: "")
!33 = !DIDerivedType(tag: DW_TAG_typedef, name: "__int32_t", file: !15, line: 41, baseType: !34)
!34 = !DIBasicType(name: "int", size: 32, encoding: DW_ATE_signed)
!35 = !DISubprogram(name: "operator-=", linkageName: "_ZN15atomic_uint32_tmIEi", scope: !8, file: !9, line: 63, type: !29, scopeLine: 63, flags: DIFlagPublic | DIFlagPrototyped, spFlags: DISPFlagOptimized)
!36 = !DISubprogram(name: "operator|=", linkageName: "_ZN15atomic_uint32_toREj", scope: !8, file: !9, line: 64, type: !24, scopeLine: 64, flags: DIFlagPublic | DIFlagPrototyped, spFlags: DISPFlagOptimized)
!37 = !DISubprogram(name: "operator&=", linkageName: "_ZN15atomic_uint32_taNEj", scope: !8, file: !9, line: 65, type: !24, scopeLine: 65, flags: DIFlagPublic | DIFlagPrototyped, spFlags: DISPFlagOptimized)
!38 = !DISubprogram(name: "operator++", linkageName: "_ZN15atomic_uint32_tppEv", scope: !8, file: !9, line: 67, type: !39, scopeLine: 67, flags: DIFlagPublic | DIFlagPrototyped, spFlags: DISPFlagOptimized)
!39 = !DISubroutineType(types: !40)
!40 = !{null, !27}
!41 = !DISubprogram(name: "operator++", linkageName: "_ZN15atomic_uint32_tppEi", scope: !8, file: !9, line: 68, type: !42, scopeLine: 68, flags: DIFlagPublic | DIFlagPrototyped, spFlags: DISPFlagOptimized)
!42 = !DISubroutineType(types: !43)
!43 = !{null, !27, !34}
!44 = !DISubprogram(name: "operator--", linkageName: "_ZN15atomic_uint32_tmmEv", scope: !8, file: !9, line: 69, type: !39, scopeLine: 69, flags: DIFlagPublic | DIFlagPrototyped, spFlags: DISPFlagOptimized)
!45 = !DISubprogram(name: "operator--", linkageName: "_ZN15atomic_uint32_tmmEi", scope: !8, file: !9, line: 70, type: !42, scopeLine: 70, flags: DIFlagPublic | DIFlagPrototyped, spFlags: DISPFlagOptimized)
!46 = !DISubprogram(name: "swap", linkageName: "_ZN15atomic_uint32_t4swapEj", scope: !8, file: !9, line: 72, type: !47, scopeLine: 72, flags: DIFlagPublic | DIFlagPrototyped, spFlags: DISPFlagOptimized)
!47 = !DISubroutineType(types: !48)
!48 = !{!12, !27, !12}
!49 = !DISubprogram(name: "fetch_and_add", linkageName: "_ZN15atomic_uint32_t13fetch_and_addEj", scope: !8, file: !9, line: 73, type: !47, scopeLine: 73, flags: DIFlagPublic | DIFlagPrototyped, spFlags: DISPFlagOptimized)
!50 = !DISubprogram(name: "dec_and_test", linkageName: "_ZN15atomic_uint32_t12dec_and_testEv", scope: !8, file: !9, line: 74, type: !51, scopeLine: 74, flags: DIFlagPublic | DIFlagPrototyped, spFlags: DISPFlagOptimized)
!51 = !DISubroutineType(types: !52)
!52 = !{!53, !27}
!53 = !DIBasicType(name: "bool", size: 8, encoding: DW_ATE_boolean)
!54 = !DISubprogram(name: "compare_swap", linkageName: "_ZN15atomic_uint32_t12compare_swapEjj", scope: !8, file: !9, line: 75, type: !55, scopeLine: 75, flags: DIFlagPublic | DIFlagPrototyped, spFlags: DISPFlagOptimized)
!55 = !DISubroutineType(types: !56)
!56 = !{!12, !27, !12, !12}
!57 = !DISubprogram(name: "compare_and_swap", linkageName: "_ZN15atomic_uint32_t16compare_and_swapEjj", scope: !8, file: !9, line: 76, type: !58, scopeLine: 76, flags: DIFlagPublic | DIFlagPrototyped, spFlags: DISPFlagOptimized)
!58 = !DISubroutineType(types: !59)
!59 = !{!53, !27, !12, !12}
!60 = !DISubprogram(name: "swap", linkageName: "_ZN15atomic_uint32_t4swapERVjj", scope: !8, file: !9, line: 78, type: !61, scopeLine: 78, flags: DIFlagPublic | DIFlagPrototyped | DIFlagStaticMember, spFlags: DISPFlagOptimized)
!61 = !DISubroutineType(types: !62)
!62 = !{!12, !63, !12}
!63 = !DIDerivedType(tag: DW_TAG_reference_type, baseType: !64, size: 64)
!64 = !DIDerivedType(tag: DW_TAG_volatile_type, baseType: !12)
!65 = !DISubprogram(name: "inc", linkageName: "_ZN15atomic_uint32_t3incERVj", scope: !8, file: !9, line: 79, type: !66, scopeLine: 79, flags: DIFlagPublic | DIFlagPrototyped | DIFlagStaticMember, spFlags: DISPFlagOptimized)
!66 = !DISubroutineType(types: !67)
!67 = !{null, !63}
!68 = !DISubprogram(name: "dec_and_test", linkageName: "_ZN15atomic_uint32_t12dec_and_testERVj", scope: !8, file: !9, line: 80, type: !69, scopeLine: 80, flags: DIFlagPublic | DIFlagPrototyped | DIFlagStaticMember, spFlags: DISPFlagOptimized)
!69 = !DISubroutineType(types: !70)
!70 = !{!53, !63}
!71 = !DISubprogram(name: "compare_swap", linkageName: "_ZN15atomic_uint32_t12compare_swapERVjjj", scope: !8, file: !9, line: 81, type: !72, scopeLine: 81, flags: DIFlagPublic | DIFlagPrototyped | DIFlagStaticMember, spFlags: DISPFlagOptimized)
!72 = !DISubroutineType(types: !73)
!73 = !{!12, !63, !12, !12}
!74 = !DISubprogram(name: "compare_and_swap", linkageName: "_ZN15atomic_uint32_t16compare_and_swapERVjjj", scope: !8, file: !9, line: 82, type: !75, scopeLine: 82, flags: DIFlagPublic | DIFlagPrototyped | DIFlagStaticMember, spFlags: DISPFlagOptimized)
!75 = !DISubroutineType(types: !76)
!76 = !{!53, !63, !12, !12}
!77 = !DIDerivedType(tag: DW_TAG_member, name: "_data_packet", scope: !5, file: !4, line: 732, baseType: !78, size: 64, offset: 64)
!78 = !DIDerivedType(tag: DW_TAG_pointer_type, baseType: !5, size: 64)
!79 = !DIDerivedType(tag: DW_TAG_member, name: "_head", scope: !5, file: !4, line: 734, baseType: !80, size: 64, offset: 128)
!80 = !DIDerivedType(tag: DW_TAG_pointer_type, baseType: !81, size: 64)
!81 = !DIBasicType(name: "unsigned char", size: 8, encoding: DW_ATE_unsigned_char)
!82 = !DIDerivedType(tag: DW_TAG_member, name: "_data", scope: !5, file: !4, line: 735, baseType: !80, size: 64, offset: 192)
!83 = !DIDerivedType(tag: DW_TAG_member, name: "_tail", scope: !5, file: !4, line: 736, baseType: !80, size: 64, offset: 256)
!84 = !DIDerivedType(tag: DW_TAG_member, name: "_end", scope: !5, file: !4, line: 737, baseType: !80, size: 64, offset: 320)
!85 = !DIDerivedType(tag: DW_TAG_member, name: "_aa", scope: !5, file: !4, line: 741, baseType: !86, size: 832, offset: 384)
!86 = distinct !DICompositeType(tag: DW_TAG_structure_type, name: "AllAnno", scope: !5, file: !4, line: 716, size: 832, flags: DIFlagTypePassByValue, elements: !87, identifier: "_ZTSN6Packet7AllAnnoE")
!87 = !{!88, !118, !119, !120, !121, !122, !126, !127}
!88 = !DIDerivedType(tag: DW_TAG_member, name: "cb", scope: !86, file: !4, line: 717, baseType: !89, size: 384)
!89 = distinct !DICompositeType(tag: DW_TAG_union_type, name: "Anno", scope: !5, file: !4, line: 702, size: 384, flags: DIFlagTypePassByValue, elements: !90, identifier: "_ZTSN6Packet4AnnoE")
!90 = !{!91, !96, !100, !107, !111}
!91 = !DIDerivedType(tag: DW_TAG_member, name: "c", scope: !89, file: !4, line: 703, baseType: !92, size: 384)
!92 = !DICompositeType(tag: DW_TAG_array_type, baseType: !93, size: 384, elements: !94)
!93 = !DIBasicType(name: "char", size: 8, encoding: DW_ATE_signed_char)
!94 = !{!95}
!95 = !DISubrange(count: 48)
!96 = !DIDerivedType(tag: DW_TAG_member, name: "u8", scope: !89, file: !4, line: 704, baseType: !97, size: 384)
!97 = !DICompositeType(tag: DW_TAG_array_type, baseType: !98, size: 384, elements: !94)
!98 = !DIDerivedType(tag: DW_TAG_typedef, name: "uint8_t", file: !13, line: 24, baseType: !99)
!99 = !DIDerivedType(tag: DW_TAG_typedef, name: "__uint8_t", file: !15, line: 38, baseType: !81)
!100 = !DIDerivedType(tag: DW_TAG_member, name: "u16", scope: !89, file: !4, line: 705, baseType: !101, size: 384)
!101 = !DICompositeType(tag: DW_TAG_array_type, baseType: !102, size: 384, elements: !105)
!102 = !DIDerivedType(tag: DW_TAG_typedef, name: "uint16_t", file: !13, line: 25, baseType: !103)
!103 = !DIDerivedType(tag: DW_TAG_typedef, name: "__uint16_t", file: !15, line: 40, baseType: !104)
!104 = !DIBasicType(name: "unsigned short", size: 16, encoding: DW_ATE_unsigned)
!105 = !{!106}
!106 = !DISubrange(count: 24)
!107 = !DIDerivedType(tag: DW_TAG_member, name: "u32", scope: !89, file: !4, line: 706, baseType: !108, size: 384)
!108 = !DICompositeType(tag: DW_TAG_array_type, baseType: !12, size: 384, elements: !109)
!109 = !{!110}
!110 = !DISubrange(count: 12)
!111 = !DIDerivedType(tag: DW_TAG_member, name: "u64", scope: !89, file: !4, line: 708, baseType: !112, size: 384)
!112 = !DICompositeType(tag: DW_TAG_array_type, baseType: !113, size: 384, elements: !116)
!113 = !DIDerivedType(tag: DW_TAG_typedef, name: "uint64_t", file: !13, line: 27, baseType: !114)
!114 = !DIDerivedType(tag: DW_TAG_typedef, name: "__uint64_t", file: !15, line: 45, baseType: !115)
!115 = !DIBasicType(name: "long unsigned int", size: 64, encoding: DW_ATE_unsigned)
!116 = !{!117}
!117 = !DISubrange(count: 6)
!118 = !DIDerivedType(tag: DW_TAG_member, name: "mac", scope: !86, file: !4, line: 718, baseType: !80, size: 64, offset: 384)
!119 = !DIDerivedType(tag: DW_TAG_member, name: "nh", scope: !86, file: !4, line: 719, baseType: !80, size: 64, offset: 448)
!120 = !DIDerivedType(tag: DW_TAG_member, name: "h", scope: !86, file: !4, line: 720, baseType: !80, size: 64, offset: 512)
!121 = !DIDerivedType(tag: DW_TAG_member, name: "pkt_type", scope: !86, file: !4, line: 721, baseType: !3, size: 32, offset: 576)
!122 = !DIDerivedType(tag: DW_TAG_member, name: "timestamp", scope: !86, file: !4, line: 722, baseType: !123, size: 64, offset: 608)
!123 = !DICompositeType(tag: DW_TAG_array_type, baseType: !93, size: 64, elements: !124)
!124 = !{!125}
!125 = !DISubrange(count: 8)
!126 = !DIDerivedType(tag: DW_TAG_member, name: "next", scope: !86, file: !4, line: 723, baseType: !78, size: 64, offset: 704)
!127 = !DIDerivedType(tag: DW_TAG_member, name: "prev", scope: !86, file: !4, line: 724, baseType: !78, size: 64, offset: 768)
!128 = !DIDerivedType(tag: DW_TAG_member, name: "_destructor", scope: !5, file: !4, line: 746, baseType: !129, size: 64, offset: 1216)
!129 = !DIDerivedType(tag: DW_TAG_typedef, name: "buffer_destructor_type", scope: !5, file: !4, line: 65, baseType: !130)
!130 = !DIDerivedType(tag: DW_TAG_pointer_type, baseType: !131, size: 64)
!131 = !DISubroutineType(types: !132)
!132 = !{null, !80, !133, !135}
!133 = !DIDerivedType(tag: DW_TAG_typedef, name: "size_t", file: !134, line: 46, baseType: !115)
!134 = !DIFile(filename: "/usr/lib/clang/10.0.0/include/stddef.h", directory: "")
!135 = !DIDerivedType(tag: DW_TAG_pointer_type, baseType: null, size: 64)
!136 = !DIDerivedType(tag: DW_TAG_member, name: "_destructor_argument", scope: !5, file: !4, line: 747, baseType: !135, size: 64, offset: 1280)
!137 = !DISubprogram(name: "make", linkageName: "_ZN6Packet4makeEjPKvjj", scope: !5, file: !4, line: 52, type: !138, scopeLine: 52, flags: DIFlagPublic | DIFlagPrototyped | DIFlagStaticMember, spFlags: DISPFlagOptimized)
!138 = !DISubroutineType(types: !139)
!139 = !{!140, !12, !265, !12, !12}
!140 = !DIDerivedType(tag: DW_TAG_pointer_type, baseType: !141, size: 64)
!141 = distinct !DICompositeType(tag: DW_TAG_class_type, name: "WritablePacket", file: !4, line: 778, size: 1344, flags: DIFlagTypePassByReference | DIFlagNonTrivial, elements: !142, identifier: "_ZTS14WritablePacket")
!142 = !{!143, !144, !149, !150, !151, !152, !153, !164, !165, !188, !228, !229, !234, !239, !244, !245, !249, !250, !255, !256, !259, !262}
!143 = !DIDerivedType(tag: DW_TAG_inheritance, scope: !141, baseType: !5, flags: DIFlagPublic, extraData: i32 0)
!144 = !DISubprogram(name: "data", linkageName: "_ZNK14WritablePacket4dataEv", scope: !141, file: !4, line: 780, type: !145, scopeLine: 780, flags: DIFlagPublic | DIFlagPrototyped, spFlags: DISPFlagOptimized)
!145 = !DISubroutineType(types: !146)
!146 = !{!80, !147}
!147 = !DIDerivedType(tag: DW_TAG_pointer_type, baseType: !148, size: 64, flags: DIFlagArtificial | DIFlagObjectPointer)
!148 = !DIDerivedType(tag: DW_TAG_const_type, baseType: !141)
!149 = !DISubprogram(name: "end_data", linkageName: "_ZNK14WritablePacket8end_dataEv", scope: !141, file: !4, line: 781, type: !145, scopeLine: 781, flags: DIFlagPublic | DIFlagPrototyped, spFlags: DISPFlagOptimized)
!150 = !DISubprogram(name: "buffer", linkageName: "_ZNK14WritablePacket6bufferEv", scope: !141, file: !4, line: 782, type: !145, scopeLine: 782, flags: DIFlagPublic | DIFlagPrototyped, spFlags: DISPFlagOptimized)
!151 = !DISubprogram(name: "end_buffer", linkageName: "_ZNK14WritablePacket10end_bufferEv", scope: !141, file: !4, line: 783, type: !145, scopeLine: 783, flags: DIFlagPublic | DIFlagPrototyped, spFlags: DISPFlagOptimized)
!152 = !DISubprogram(name: "mac_header", linkageName: "_ZNK14WritablePacket10mac_headerEv", scope: !141, file: !4, line: 784, type: !145, scopeLine: 784, flags: DIFlagPublic | DIFlagPrototyped, spFlags: DISPFlagOptimized)
!153 = !DISubprogram(name: "ether_header", linkageName: "_ZNK14WritablePacket12ether_headerEv", scope: !141, file: !4, line: 785, type: !154, scopeLine: 785, flags: DIFlagPublic | DIFlagPrototyped, spFlags: DISPFlagOptimized)
!154 = !DISubroutineType(types: !155)
!155 = !{!156, !147}
!156 = !DIDerivedType(tag: DW_TAG_pointer_type, baseType: !157, size: 64)
!157 = distinct !DICompositeType(tag: DW_TAG_structure_type, name: "click_ether", file: !158, line: 17, size: 112, flags: DIFlagTypePassByValue, elements: !159, identifier: "_ZTS11click_ether")
!158 = !DIFile(filename: "../dummy_inc/clicknet/ether.h", directory: "/home/john/projects/click/ir-dir")
!159 = !{!160, !162, !163}
!160 = !DIDerivedType(tag: DW_TAG_member, name: "ether_dhost", scope: !157, file: !158, line: 18, baseType: !161, size: 48)
!161 = !DICompositeType(tag: DW_TAG_array_type, baseType: !98, size: 48, elements: !116)
!162 = !DIDerivedType(tag: DW_TAG_member, name: "ether_shost", scope: !157, file: !158, line: 19, baseType: !161, size: 48, offset: 48)
!163 = !DIDerivedType(tag: DW_TAG_member, name: "ether_type", scope: !157, file: !158, line: 20, baseType: !102, size: 16, offset: 96)
!164 = !DISubprogram(name: "network_header", linkageName: "_ZNK14WritablePacket14network_headerEv", scope: !141, file: !4, line: 786, type: !145, scopeLine: 786, flags: DIFlagPublic | DIFlagPrototyped, spFlags: DISPFlagOptimized)
!165 = !DISubprogram(name: "ip_header", linkageName: "_ZNK14WritablePacket9ip_headerEv", scope: !141, file: !4, line: 787, type: !166, scopeLine: 787, flags: DIFlagPublic | DIFlagPrototyped, spFlags: DISPFlagOptimized)
!166 = !DISubroutineType(types: !167)
!167 = !{!168, !147}
!168 = !DIDerivedType(tag: DW_TAG_pointer_type, baseType: !169, size: 64)
!169 = distinct !DICompositeType(tag: DW_TAG_structure_type, name: "click_ip", file: !170, line: 23, size: 160, flags: DIFlagTypePassByValue, elements: !171, identifier: "_ZTS8click_ip")
!170 = !DIFile(filename: "../dummy_inc/clicknet/ip.h", directory: "/home/john/projects/click/ir-dir")
!171 = !{!172, !173, !174, !175, !176, !177, !178, !179, !180, !181, !187}
!172 = !DIDerivedType(tag: DW_TAG_member, name: "ip_hl", scope: !169, file: !170, line: 28, baseType: !16, size: 4, flags: DIFlagBitField, extraData: i64 0)
!173 = !DIDerivedType(tag: DW_TAG_member, name: "ip_v", scope: !169, file: !170, line: 29, baseType: !16, size: 4, offset: 4, flags: DIFlagBitField, extraData: i64 0)
!174 = !DIDerivedType(tag: DW_TAG_member, name: "ip_tos", scope: !169, file: !170, line: 33, baseType: !98, size: 8, offset: 8)
!175 = !DIDerivedType(tag: DW_TAG_member, name: "ip_len", scope: !169, file: !170, line: 40, baseType: !102, size: 16, offset: 16)
!176 = !DIDerivedType(tag: DW_TAG_member, name: "ip_id", scope: !169, file: !170, line: 41, baseType: !102, size: 16, offset: 32)
!177 = !DIDerivedType(tag: DW_TAG_member, name: "ip_off", scope: !169, file: !170, line: 42, baseType: !102, size: 16, offset: 48)
!178 = !DIDerivedType(tag: DW_TAG_member, name: "ip_ttl", scope: !169, file: !170, line: 47, baseType: !98, size: 8, offset: 64)
!179 = !DIDerivedType(tag: DW_TAG_member, name: "ip_p", scope: !169, file: !170, line: 48, baseType: !98, size: 8, offset: 72)
!180 = !DIDerivedType(tag: DW_TAG_member, name: "ip_sum", scope: !169, file: !170, line: 49, baseType: !102, size: 16, offset: 80)
!181 = !DIDerivedType(tag: DW_TAG_member, name: "ip_src", scope: !169, file: !170, line: 50, baseType: !182, size: 32, offset: 96)
!182 = distinct !DICompositeType(tag: DW_TAG_structure_type, name: "in_addr", file: !183, line: 31, size: 32, flags: DIFlagTypePassByValue, elements: !184, identifier: "_ZTS7in_addr")
!183 = !DIFile(filename: "/usr/include/netinet/in.h", directory: "")
!184 = !{!185}
!185 = !DIDerivedType(tag: DW_TAG_member, name: "s_addr", scope: !182, file: !183, line: 33, baseType: !186, size: 32)
!186 = !DIDerivedType(tag: DW_TAG_typedef, name: "in_addr_t", file: !183, line: 30, baseType: !12)
!187 = !DIDerivedType(tag: DW_TAG_member, name: "ip_dst", scope: !169, file: !170, line: 51, baseType: !182, size: 32, offset: 128)
!188 = !DISubprogram(name: "ip6_header", linkageName: "_ZNK14WritablePacket10ip6_headerEv", scope: !141, file: !4, line: 788, type: !189, scopeLine: 788, flags: DIFlagPublic | DIFlagPrototyped, spFlags: DISPFlagOptimized)
!189 = !DISubroutineType(types: !190)
!190 = !{!191, !147}
!191 = !DIDerivedType(tag: DW_TAG_pointer_type, baseType: !192, size: 64)
!192 = distinct !DICompositeType(tag: DW_TAG_structure_type, name: "click_ip6", file: !193, line: 16, size: 320, flags: DIFlagTypePassByValue, elements: !194, identifier: "_ZTS9click_ip6")
!193 = !DIFile(filename: "../dummy_inc/clicknet/ip6.h", directory: "/home/john/projects/click/ir-dir")
!194 = !{!195, !211, !227}
!195 = !DIDerivedType(tag: DW_TAG_member, name: "ip6_ctlun", scope: !192, file: !193, line: 39, baseType: !196, size: 64)
!196 = distinct !DICompositeType(tag: DW_TAG_union_type, scope: !192, file: !193, line: 17, size: 64, flags: DIFlagTypePassByValue, elements: !197, identifier: "_ZTSN9click_ip6Ut_E")
!197 = !{!198, !205, !206}
!198 = !DIDerivedType(tag: DW_TAG_member, name: "ip6_un1", scope: !196, file: !193, line: 27, baseType: !199, size: 64)
!199 = distinct !DICompositeType(tag: DW_TAG_structure_type, scope: !196, file: !193, line: 18, size: 64, flags: DIFlagTypePassByValue, elements: !200, identifier: "_ZTSN9click_ip6Ut_Ut_E")
!200 = !{!201, !202, !203, !204}
!201 = !DIDerivedType(tag: DW_TAG_member, name: "ip6_un1_flow", scope: !199, file: !193, line: 19, baseType: !12, size: 32)
!202 = !DIDerivedType(tag: DW_TAG_member, name: "ip6_un1_plen", scope: !199, file: !193, line: 24, baseType: !102, size: 16, offset: 32)
!203 = !DIDerivedType(tag: DW_TAG_member, name: "ip6_un1_nxt", scope: !199, file: !193, line: 25, baseType: !98, size: 8, offset: 48)
!204 = !DIDerivedType(tag: DW_TAG_member, name: "ip6_un1_hlim", scope: !199, file: !193, line: 26, baseType: !98, size: 8, offset: 56)
!205 = !DIDerivedType(tag: DW_TAG_member, name: "ip6_un2_vfc", scope: !196, file: !193, line: 28, baseType: !98, size: 8)
!206 = !DIDerivedType(tag: DW_TAG_member, name: "ip6_un3", scope: !196, file: !193, line: 38, baseType: !207, size: 32)
!207 = distinct !DICompositeType(tag: DW_TAG_structure_type, scope: !196, file: !193, line: 30, size: 32, flags: DIFlagTypePassByValue, elements: !208, identifier: "_ZTSN9click_ip6Ut_Ut0_E")
!208 = !{!209, !210}
!209 = !DIDerivedType(tag: DW_TAG_member, name: "ip6_un3_fc", scope: !207, file: !193, line: 35, baseType: !16, size: 4, flags: DIFlagBitField, extraData: i64 0)
!210 = !DIDerivedType(tag: DW_TAG_member, name: "ip6_un3_v", scope: !207, file: !193, line: 36, baseType: !16, size: 4, offset: 4, flags: DIFlagBitField, extraData: i64 0)
!211 = !DIDerivedType(tag: DW_TAG_member, name: "ip6_src", scope: !192, file: !193, line: 40, baseType: !212, size: 128, offset: 64)
!212 = distinct !DICompositeType(tag: DW_TAG_structure_type, name: "in6_addr", file: !183, line: 212, size: 128, flags: DIFlagTypePassByValue, elements: !213, identifier: "_ZTS8in6_addr")
!213 = !{!214}
!214 = !DIDerivedType(tag: DW_TAG_member, name: "__in6_u", scope: !212, file: !183, line: 219, baseType: !215, size: 128)
!215 = distinct !DICompositeType(tag: DW_TAG_union_type, scope: !212, file: !183, line: 214, size: 128, flags: DIFlagTypePassByValue, elements: !216, identifier: "_ZTSN8in6_addrUt_E")
!216 = !{!217, !221, !223}
!217 = !DIDerivedType(tag: DW_TAG_member, name: "__u6_addr8", scope: !215, file: !183, line: 216, baseType: !218, size: 128)
!218 = !DICompositeType(tag: DW_TAG_array_type, baseType: !98, size: 128, elements: !219)
!219 = !{!220}
!220 = !DISubrange(count: 16)
!221 = !DIDerivedType(tag: DW_TAG_member, name: "__u6_addr16", scope: !215, file: !183, line: 217, baseType: !222, size: 128)
!222 = !DICompositeType(tag: DW_TAG_array_type, baseType: !102, size: 128, elements: !124)
!223 = !DIDerivedType(tag: DW_TAG_member, name: "__u6_addr32", scope: !215, file: !183, line: 218, baseType: !224, size: 128)
!224 = !DICompositeType(tag: DW_TAG_array_type, baseType: !12, size: 128, elements: !225)
!225 = !{!226}
!226 = !DISubrange(count: 4)
!227 = !DIDerivedType(tag: DW_TAG_member, name: "ip6_dst", scope: !192, file: !193, line: 41, baseType: !212, size: 128, offset: 192)
!228 = !DISubprogram(name: "transport_header", linkageName: "_ZNK14WritablePacket16transport_headerEv", scope: !141, file: !4, line: 789, type: !145, scopeLine: 789, flags: DIFlagPublic | DIFlagPrototyped, spFlags: DISPFlagOptimized)
!229 = !DISubprogram(name: "icmp_header", linkageName: "_ZNK14WritablePacket11icmp_headerEv", scope: !141, file: !4, line: 790, type: !230, scopeLine: 790, flags: DIFlagPublic | DIFlagPrototyped, spFlags: DISPFlagOptimized)
!230 = !DISubroutineType(types: !231)
!231 = !{!232, !147}
!232 = !DIDerivedType(tag: DW_TAG_pointer_type, baseType: !233, size: 64)
!233 = !DICompositeType(tag: DW_TAG_structure_type, name: "click_icmp", file: !4, line: 26, flags: DIFlagFwdDecl, identifier: "_ZTS10click_icmp")
!234 = !DISubprogram(name: "tcp_header", linkageName: "_ZNK14WritablePacket10tcp_headerEv", scope: !141, file: !4, line: 791, type: !235, scopeLine: 791, flags: DIFlagPublic | DIFlagPrototyped, spFlags: DISPFlagOptimized)
!235 = !DISubroutineType(types: !236)
!236 = !{!237, !147}
!237 = !DIDerivedType(tag: DW_TAG_pointer_type, baseType: !238, size: 64)
!238 = !DICompositeType(tag: DW_TAG_structure_type, name: "click_tcp", file: !4, line: 28, flags: DIFlagFwdDecl, identifier: "_ZTS9click_tcp")
!239 = !DISubprogram(name: "udp_header", linkageName: "_ZNK14WritablePacket10udp_headerEv", scope: !141, file: !4, line: 792, type: !240, scopeLine: 792, flags: DIFlagPublic | DIFlagPrototyped, spFlags: DISPFlagOptimized)
!240 = !DISubroutineType(types: !241)
!241 = !{!242, !147}
!242 = !DIDerivedType(tag: DW_TAG_pointer_type, baseType: !243, size: 64)
!243 = !DICompositeType(tag: DW_TAG_structure_type, name: "click_udp", file: !4, line: 29, flags: DIFlagFwdDecl, identifier: "_ZTS9click_udp")
!244 = !DISubprogram(name: "buffer_data", linkageName: "_ZNK14WritablePacket11buffer_dataEv", scope: !141, file: !4, line: 795, type: !145, scopeLine: 795, flags: DIFlagPublic | DIFlagPrototyped, spFlags: DISPFlagOptimized)
!245 = !DISubprogram(name: "WritablePacket", scope: !141, file: !4, line: 800, type: !246, scopeLine: 800, flags: DIFlagPrototyped, spFlags: DISPFlagOptimized)
!246 = !DISubroutineType(types: !247)
!247 = !{null, !248}
!248 = !DIDerivedType(tag: DW_TAG_pointer_type, baseType: !141, size: 64, flags: DIFlagArtificial | DIFlagObjectPointer)
!249 = !DISubprogram(name: "initialize", linkageName: "_ZN14WritablePacket10initializeEv", scope: !141, file: !4, line: 802, type: !246, scopeLine: 802, flags: DIFlagPrototyped, spFlags: DISPFlagOptimized)
!250 = !DISubprogram(name: "WritablePacket", scope: !141, file: !4, line: 804, type: !251, scopeLine: 804, flags: DIFlagPrototyped, spFlags: DISPFlagOptimized)
!251 = !DISubroutineType(types: !252)
!252 = !{null, !248, !253}
!253 = !DIDerivedType(tag: DW_TAG_reference_type, baseType: !254, size: 64)
!254 = !DIDerivedType(tag: DW_TAG_const_type, baseType: !5)
!255 = !DISubprogram(name: "~WritablePacket", scope: !141, file: !4, line: 805, type: !246, scopeLine: 805, flags: DIFlagPrototyped, spFlags: DISPFlagOptimized)
!256 = !DISubprogram(name: "pool_allocate", linkageName: "_ZN14WritablePacket13pool_allocateEb", scope: !141, file: !4, line: 808, type: !257, scopeLine: 808, flags: DIFlagPrototyped | DIFlagStaticMember, spFlags: DISPFlagOptimized)
!257 = !DISubroutineType(types: !258)
!258 = !{!140, !53}
!259 = !DISubprogram(name: "pool_allocate", linkageName: "_ZN14WritablePacket13pool_allocateEjjj", scope: !141, file: !4, line: 809, type: !260, scopeLine: 809, flags: DIFlagPrototyped | DIFlagStaticMember, spFlags: DISPFlagOptimized)
!260 = !DISubroutineType(types: !261)
!261 = !{!140, !12, !12, !12}
!262 = !DISubprogram(name: "recycle", linkageName: "_ZN14WritablePacket7recycleEPS_", scope: !141, file: !4, line: 811, type: !263, scopeLine: 811, flags: DIFlagPrototyped | DIFlagStaticMember, spFlags: DISPFlagOptimized)
!263 = !DISubroutineType(types: !264)
!264 = !{null, !140}
!265 = !DIDerivedType(tag: DW_TAG_pointer_type, baseType: !266, size: 64)
!266 = !DIDerivedType(tag: DW_TAG_const_type, baseType: null)
!267 = !DISubprogram(name: "make", linkageName: "_ZN6Packet4makeEPKvj", scope: !5, file: !4, line: 54, type: !268, scopeLine: 54, flags: DIFlagPublic | DIFlagPrototyped | DIFlagStaticMember, spFlags: DISPFlagOptimized)
!268 = !DISubroutineType(types: !269)
!269 = !{!140, !265, !12}
!270 = !DISubprogram(name: "make", linkageName: "_ZN6Packet4makeEj", scope: !5, file: !4, line: 55, type: !271, scopeLine: 55, flags: DIFlagPublic | DIFlagPrototyped | DIFlagStaticMember, spFlags: DISPFlagOptimized)
!271 = !DISubroutineType(types: !272)
!272 = !{!140, !12}
!273 = !DISubprogram(name: "make", linkageName: "_ZN6Packet4makeEPhjPFvS0_mPvES1_ii", scope: !5, file: !4, line: 66, type: !274, scopeLine: 66, flags: DIFlagPublic | DIFlagPrototyped | DIFlagStaticMember, spFlags: DISPFlagOptimized)
!274 = !DISubroutineType(types: !275)
!275 = !{!140, !80, !12, !129, !135, !34, !34}
!276 = !DISubprogram(name: "static_cleanup", linkageName: "_ZN6Packet14static_cleanupEv", scope: !5, file: !4, line: 71, type: !277, scopeLine: 71, flags: DIFlagPublic | DIFlagPrototyped | DIFlagStaticMember, spFlags: DISPFlagOptimized)
!277 = !DISubroutineType(types: !278)
!278 = !{null}
!279 = !DISubprogram(name: "kill", linkageName: "_ZN6Packet4killEv", scope: !5, file: !4, line: 73, type: !280, scopeLine: 73, flags: DIFlagPublic | DIFlagPrototyped, spFlags: DISPFlagOptimized)
!280 = !DISubroutineType(types: !281)
!281 = !{null, !282}
!282 = !DIDerivedType(tag: DW_TAG_pointer_type, baseType: !5, size: 64, flags: DIFlagArtificial | DIFlagObjectPointer)
!283 = !DISubprogram(name: "shared", linkageName: "_ZNK6Packet6sharedEv", scope: !5, file: !4, line: 75, type: !284, scopeLine: 75, flags: DIFlagPublic | DIFlagPrototyped, spFlags: DISPFlagOptimized)
!284 = !DISubroutineType(types: !285)
!285 = !{!53, !286}
!286 = !DIDerivedType(tag: DW_TAG_pointer_type, baseType: !254, size: 64, flags: DIFlagArtificial | DIFlagObjectPointer)
!287 = !DISubprogram(name: "clone", linkageName: "_ZN6Packet5cloneEv", scope: !5, file: !4, line: 76, type: !288, scopeLine: 76, flags: DIFlagPublic | DIFlagPrototyped, spFlags: DISPFlagOptimized)
!288 = !DISubroutineType(types: !289)
!289 = !{!78, !282}
!290 = !DISubprogram(name: "uniqueify", linkageName: "_ZN6Packet9uniqueifyEv", scope: !5, file: !4, line: 77, type: !291, scopeLine: 77, flags: DIFlagPublic | DIFlagPrototyped, spFlags: DISPFlagOptimized)
!291 = !DISubroutineType(types: !292)
!292 = !{!140, !282}
!293 = !DISubprogram(name: "data", linkageName: "_ZNK6Packet4dataEv", scope: !5, file: !4, line: 79, type: !294, scopeLine: 79, flags: DIFlagPublic | DIFlagPrototyped, spFlags: DISPFlagOptimized)
!294 = !DISubroutineType(types: !295)
!295 = !{!296, !286}
!296 = !DIDerivedType(tag: DW_TAG_pointer_type, baseType: !297, size: 64)
!297 = !DIDerivedType(tag: DW_TAG_const_type, baseType: !81)
!298 = !DISubprogram(name: "end_data", linkageName: "_ZNK6Packet8end_dataEv", scope: !5, file: !4, line: 80, type: !294, scopeLine: 80, flags: DIFlagPublic | DIFlagPrototyped, spFlags: DISPFlagOptimized)
!299 = !DISubprogram(name: "length", linkageName: "_ZNK6Packet6lengthEv", scope: !5, file: !4, line: 81, type: !300, scopeLine: 81, flags: DIFlagPublic | DIFlagPrototyped, spFlags: DISPFlagOptimized)
!300 = !DISubroutineType(types: !301)
!301 = !{!12, !286}
!302 = !DISubprogram(name: "headroom", linkageName: "_ZNK6Packet8headroomEv", scope: !5, file: !4, line: 82, type: !300, scopeLine: 82, flags: DIFlagPublic | DIFlagPrototyped, spFlags: DISPFlagOptimized)
!303 = !DISubprogram(name: "tailroom", linkageName: "_ZNK6Packet8tailroomEv", scope: !5, file: !4, line: 83, type: !300, scopeLine: 83, flags: DIFlagPublic | DIFlagPrototyped, spFlags: DISPFlagOptimized)
!304 = !DISubprogram(name: "buffer", linkageName: "_ZNK6Packet6bufferEv", scope: !5, file: !4, line: 84, type: !294, scopeLine: 84, flags: DIFlagPublic | DIFlagPrototyped, spFlags: DISPFlagOptimized)
!305 = !DISubprogram(name: "end_buffer", linkageName: "_ZNK6Packet10end_bufferEv", scope: !5, file: !4, line: 85, type: !294, scopeLine: 85, flags: DIFlagPublic | DIFlagPrototyped, spFlags: DISPFlagOptimized)
!306 = !DISubprogram(name: "buffer_length", linkageName: "_ZNK6Packet13buffer_lengthEv", scope: !5, file: !4, line: 86, type: !300, scopeLine: 86, flags: DIFlagPublic | DIFlagPrototyped, spFlags: DISPFlagOptimized)
!307 = !DISubprogram(name: "buffer_destructor", linkageName: "_ZNK6Packet17buffer_destructorEv", scope: !5, file: !4, line: 97, type: !308, scopeLine: 97, flags: DIFlagPublic | DIFlagPrototyped, spFlags: DISPFlagOptimized)
!308 = !DISubroutineType(types: !309)
!309 = !{!129, !286}
!310 = !DISubprogram(name: "set_buffer_destructor", linkageName: "_ZN6Packet21set_buffer_destructorEPFvPhmPvE", scope: !5, file: !4, line: 101, type: !311, scopeLine: 101, flags: DIFlagPublic | DIFlagPrototyped, spFlags: DISPFlagOptimized)
!311 = !DISubroutineType(types: !312)
!312 = !{null, !282, !129}
!313 = !DISubprogram(name: "destructor_argument", linkageName: "_ZN6Packet19destructor_argumentEv", scope: !5, file: !4, line: 105, type: !314, scopeLine: 105, flags: DIFlagPublic | DIFlagPrototyped, spFlags: DISPFlagOptimized)
!314 = !DISubroutineType(types: !315)
!315 = !{!135, !282}
!316 = !DISubprogram(name: "reset_buffer", linkageName: "_ZN6Packet12reset_bufferEv", scope: !5, file: !4, line: 109, type: !280, scopeLine: 109, flags: DIFlagPublic | DIFlagPrototyped, spFlags: DISPFlagOptimized)
!317 = !DISubprogram(name: "push", linkageName: "_ZN6Packet4pushEj", scope: !5, file: !4, line: 141, type: !318, scopeLine: 141, flags: DIFlagPublic | DIFlagPrototyped, spFlags: DISPFlagOptimized)
!318 = !DISubroutineType(types: !319)
!319 = !{!140, !282, !12}
!320 = !DISubprogram(name: "push_mac_header", linkageName: "_ZN6Packet15push_mac_headerEj", scope: !5, file: !4, line: 152, type: !318, scopeLine: 152, flags: DIFlagPublic | DIFlagPrototyped, spFlags: DISPFlagOptimized)
!321 = !DISubprogram(name: "nonunique_push", linkageName: "_ZN6Packet14nonunique_pushEj", scope: !5, file: !4, line: 171, type: !322, scopeLine: 171, flags: DIFlagPublic | DIFlagPrototyped, spFlags: DISPFlagOptimized)
!322 = !DISubroutineType(types: !323)
!323 = !{!78, !282, !12}
!324 = !DISubprogram(name: "pull", linkageName: "_ZN6Packet4pullEj", scope: !5, file: !4, line: 187, type: !325, scopeLine: 187, flags: DIFlagPublic | DIFlagPrototyped, spFlags: DISPFlagOptimized)
!325 = !DISubroutineType(types: !326)
!326 = !{null, !282, !12}
!327 = !DISubprogram(name: "put", linkageName: "_ZN6Packet3putEj", scope: !5, file: !4, line: 213, type: !318, scopeLine: 213, flags: DIFlagPublic | DIFlagPrototyped, spFlags: DISPFlagOptimized)
!328 = !DISubprogram(name: "nonunique_put", linkageName: "_ZN6Packet13nonunique_putEj", scope: !5, file: !4, line: 230, type: !322, scopeLine: 230, flags: DIFlagPublic | DIFlagPrototyped, spFlags: DISPFlagOptimized)
!329 = !DISubprogram(name: "take", linkageName: "_ZN6Packet4takeEj", scope: !5, file: !4, line: 245, type: !325, scopeLine: 245, flags: DIFlagPublic | DIFlagPrototyped, spFlags: DISPFlagOptimized)
!330 = !DISubprogram(name: "shift_data", linkageName: "_ZN6Packet10shift_dataEib", scope: !5, file: !4, line: 269, type: !331, scopeLine: 269, flags: DIFlagPublic | DIFlagPrototyped, spFlags: DISPFlagOptimized)
!331 = !DISubroutineType(types: !332)
!332 = !{!78, !282, !34, !53}
!333 = !DISubprogram(name: "shrink_data", linkageName: "_ZN6Packet11shrink_dataEPKhj", scope: !5, file: !4, line: 271, type: !334, scopeLine: 271, flags: DIFlagPublic | DIFlagPrototyped, spFlags: DISPFlagOptimized)
!334 = !DISubroutineType(types: !335)
!335 = !{null, !282, !296, !12}
!336 = !DISubprogram(name: "change_headroom_and_length", linkageName: "_ZN6Packet26change_headroom_and_lengthEjj", scope: !5, file: !4, line: 272, type: !337, scopeLine: 272, flags: DIFlagPublic | DIFlagPrototyped, spFlags: DISPFlagOptimized)
!337 = !DISubroutineType(types: !338)
!338 = !{null, !282, !12, !12}
!339 = !DISubprogram(name: "copy", linkageName: "_ZN6Packet4copyEPS_i", scope: !5, file: !4, line: 274, type: !340, scopeLine: 274, flags: DIFlagPublic | DIFlagPrototyped, spFlags: DISPFlagOptimized)
!340 = !DISubroutineType(types: !341)
!341 = !{!53, !282, !78, !34}
!342 = !DISubprogram(name: "has_mac_header", linkageName: "_ZNK6Packet14has_mac_headerEv", scope: !5, file: !4, line: 279, type: !284, scopeLine: 279, flags: DIFlagPublic | DIFlagPrototyped, spFlags: DISPFlagOptimized)
!343 = !DISubprogram(name: "mac_header", linkageName: "_ZNK6Packet10mac_headerEv", scope: !5, file: !4, line: 280, type: !294, scopeLine: 280, flags: DIFlagPublic | DIFlagPrototyped, spFlags: DISPFlagOptimized)
!344 = !DISubprogram(name: "mac_header_offset", linkageName: "_ZNK6Packet17mac_header_offsetEv", scope: !5, file: !4, line: 281, type: !345, scopeLine: 281, flags: DIFlagPublic | DIFlagPrototyped, spFlags: DISPFlagOptimized)
!345 = !DISubroutineType(types: !346)
!346 = !{!34, !286}
!347 = !DISubprogram(name: "mac_header_length", linkageName: "_ZNK6Packet17mac_header_lengthEv", scope: !5, file: !4, line: 282, type: !300, scopeLine: 282, flags: DIFlagPublic | DIFlagPrototyped, spFlags: DISPFlagOptimized)
!348 = !DISubprogram(name: "mac_length", linkageName: "_ZNK6Packet10mac_lengthEv", scope: !5, file: !4, line: 283, type: !345, scopeLine: 283, flags: DIFlagPublic | DIFlagPrototyped, spFlags: DISPFlagOptimized)
!349 = !DISubprogram(name: "set_mac_header", linkageName: "_ZN6Packet14set_mac_headerEPKh", scope: !5, file: !4, line: 284, type: !350, scopeLine: 284, flags: DIFlagPublic | DIFlagPrototyped, spFlags: DISPFlagOptimized)
!350 = !DISubroutineType(types: !351)
!351 = !{null, !282, !296}
!352 = !DISubprogram(name: "set_mac_header", linkageName: "_ZN6Packet14set_mac_headerEPKhj", scope: !5, file: !4, line: 285, type: !334, scopeLine: 285, flags: DIFlagPublic | DIFlagPrototyped, spFlags: DISPFlagOptimized)
!353 = !DISubprogram(name: "clear_mac_header", linkageName: "_ZN6Packet16clear_mac_headerEv", scope: !5, file: !4, line: 286, type: !280, scopeLine: 286, flags: DIFlagPublic | DIFlagPrototyped, spFlags: DISPFlagOptimized)
!354 = !DISubprogram(name: "has_network_header", linkageName: "_ZNK6Packet18has_network_headerEv", scope: !5, file: !4, line: 288, type: !284, scopeLine: 288, flags: DIFlagPublic | DIFlagPrototyped, spFlags: DISPFlagOptimized)
!355 = !DISubprogram(name: "network_header", linkageName: "_ZNK6Packet14network_headerEv", scope: !5, file: !4, line: 289, type: !294, scopeLine: 289, flags: DIFlagPublic | DIFlagPrototyped, spFlags: DISPFlagOptimized)
!356 = !DISubprogram(name: "network_header_offset", linkageName: "_ZNK6Packet21network_header_offsetEv", scope: !5, file: !4, line: 290, type: !345, scopeLine: 290, flags: DIFlagPublic | DIFlagPrototyped, spFlags: DISPFlagOptimized)
!357 = !DISubprogram(name: "network_header_length", linkageName: "_ZNK6Packet21network_header_lengthEv", scope: !5, file: !4, line: 291, type: !300, scopeLine: 291, flags: DIFlagPublic | DIFlagPrototyped, spFlags: DISPFlagOptimized)
!358 = !DISubprogram(name: "network_length", linkageName: "_ZNK6Packet14network_lengthEv", scope: !5, file: !4, line: 292, type: !345, scopeLine: 292, flags: DIFlagPublic | DIFlagPrototyped, spFlags: DISPFlagOptimized)
!359 = !DISubprogram(name: "set_network_header", linkageName: "_ZN6Packet18set_network_headerEPKhj", scope: !5, file: !4, line: 293, type: !334, scopeLine: 293, flags: DIFlagPublic | DIFlagPrototyped, spFlags: DISPFlagOptimized)
!360 = !DISubprogram(name: "set_network_header_length", linkageName: "_ZN6Packet25set_network_header_lengthEj", scope: !5, file: !4, line: 294, type: !325, scopeLine: 294, flags: DIFlagPublic | DIFlagPrototyped, spFlags: DISPFlagOptimized)
!361 = !DISubprogram(name: "clear_network_header", linkageName: "_ZN6Packet20clear_network_headerEv", scope: !5, file: !4, line: 295, type: !280, scopeLine: 295, flags: DIFlagPublic | DIFlagPrototyped, spFlags: DISPFlagOptimized)
!362 = !DISubprogram(name: "has_transport_header", linkageName: "_ZNK6Packet20has_transport_headerEv", scope: !5, file: !4, line: 297, type: !284, scopeLine: 297, flags: DIFlagPublic | DIFlagPrototyped, spFlags: DISPFlagOptimized)
!363 = !DISubprogram(name: "transport_header", linkageName: "_ZNK6Packet16transport_headerEv", scope: !5, file: !4, line: 298, type: !294, scopeLine: 298, flags: DIFlagPublic | DIFlagPrototyped, spFlags: DISPFlagOptimized)
!364 = !DISubprogram(name: "transport_header_offset", linkageName: "_ZNK6Packet23transport_header_offsetEv", scope: !5, file: !4, line: 299, type: !345, scopeLine: 299, flags: DIFlagPublic | DIFlagPrototyped, spFlags: DISPFlagOptimized)
!365 = !DISubprogram(name: "transport_length", linkageName: "_ZNK6Packet16transport_lengthEv", scope: !5, file: !4, line: 300, type: !345, scopeLine: 300, flags: DIFlagPublic | DIFlagPrototyped, spFlags: DISPFlagOptimized)
!366 = !DISubprogram(name: "clear_transport_header", linkageName: "_ZN6Packet22clear_transport_headerEv", scope: !5, file: !4, line: 301, type: !280, scopeLine: 301, flags: DIFlagPublic | DIFlagPrototyped, spFlags: DISPFlagOptimized)
!367 = !DISubprogram(name: "ether_header", linkageName: "_ZNK6Packet12ether_headerEv", scope: !5, file: !4, line: 304, type: !368, scopeLine: 304, flags: DIFlagPublic | DIFlagPrototyped, spFlags: DISPFlagOptimized)
!368 = !DISubroutineType(types: !369)
!369 = !{!370, !286}
!370 = !DIDerivedType(tag: DW_TAG_pointer_type, baseType: !371, size: 64)
!371 = !DIDerivedType(tag: DW_TAG_const_type, baseType: !157)
!372 = !DISubprogram(name: "set_ether_header", linkageName: "_ZN6Packet16set_ether_headerEPK11click_ether", scope: !5, file: !4, line: 305, type: !373, scopeLine: 305, flags: DIFlagPublic | DIFlagPrototyped, spFlags: DISPFlagOptimized)
!373 = !DISubroutineType(types: !374)
!374 = !{null, !282, !370}
!375 = !DISubprogram(name: "ip_header", linkageName: "_ZNK6Packet9ip_headerEv", scope: !5, file: !4, line: 307, type: !376, scopeLine: 307, flags: DIFlagPublic | DIFlagPrototyped, spFlags: DISPFlagOptimized)
!376 = !DISubroutineType(types: !377)
!377 = !{!378, !286}
!378 = !DIDerivedType(tag: DW_TAG_pointer_type, baseType: !379, size: 64)
!379 = !DIDerivedType(tag: DW_TAG_const_type, baseType: !169)
!380 = !DISubprogram(name: "ip_header_offset", linkageName: "_ZNK6Packet16ip_header_offsetEv", scope: !5, file: !4, line: 308, type: !345, scopeLine: 308, flags: DIFlagPublic | DIFlagPrototyped, spFlags: DISPFlagOptimized)
!381 = !DISubprogram(name: "ip_header_length", linkageName: "_ZNK6Packet16ip_header_lengthEv", scope: !5, file: !4, line: 309, type: !300, scopeLine: 309, flags: DIFlagPublic | DIFlagPrototyped, spFlags: DISPFlagOptimized)
!382 = !DISubprogram(name: "set_ip_header", linkageName: "_ZN6Packet13set_ip_headerEPK8click_ipj", scope: !5, file: !4, line: 310, type: !383, scopeLine: 310, flags: DIFlagPublic | DIFlagPrototyped, spFlags: DISPFlagOptimized)
!383 = !DISubroutineType(types: !384)
!384 = !{null, !282, !378, !12}
!385 = !DISubprogram(name: "ip6_header", linkageName: "_ZNK6Packet10ip6_headerEv", scope: !5, file: !4, line: 312, type: !386, scopeLine: 312, flags: DIFlagPublic | DIFlagPrototyped, spFlags: DISPFlagOptimized)
!386 = !DISubroutineType(types: !387)
!387 = !{!388, !286}
!388 = !DIDerivedType(tag: DW_TAG_pointer_type, baseType: !389, size: 64)
!389 = !DIDerivedType(tag: DW_TAG_const_type, baseType: !192)
!390 = !DISubprogram(name: "ip6_header_offset", linkageName: "_ZNK6Packet17ip6_header_offsetEv", scope: !5, file: !4, line: 313, type: !345, scopeLine: 313, flags: DIFlagPublic | DIFlagPrototyped, spFlags: DISPFlagOptimized)
!391 = !DISubprogram(name: "ip6_header_length", linkageName: "_ZNK6Packet17ip6_header_lengthEv", scope: !5, file: !4, line: 314, type: !300, scopeLine: 314, flags: DIFlagPublic | DIFlagPrototyped, spFlags: DISPFlagOptimized)
!392 = !DISubprogram(name: "set_ip6_header", linkageName: "_ZN6Packet14set_ip6_headerEPK9click_ip6", scope: !5, file: !4, line: 315, type: !393, scopeLine: 315, flags: DIFlagPublic | DIFlagPrototyped, spFlags: DISPFlagOptimized)
!393 = !DISubroutineType(types: !394)
!394 = !{null, !282, !388}
!395 = !DISubprogram(name: "set_ip6_header", linkageName: "_ZN6Packet14set_ip6_headerEPK9click_ip6j", scope: !5, file: !4, line: 316, type: !396, scopeLine: 316, flags: DIFlagPublic | DIFlagPrototyped, spFlags: DISPFlagOptimized)
!396 = !DISubroutineType(types: !397)
!397 = !{null, !282, !388, !12}
!398 = !DISubprogram(name: "icmp_header", linkageName: "_ZNK6Packet11icmp_headerEv", scope: !5, file: !4, line: 318, type: !399, scopeLine: 318, flags: DIFlagPublic | DIFlagPrototyped, spFlags: DISPFlagOptimized)
!399 = !DISubroutineType(types: !400)
!400 = !{!401, !286}
!401 = !DIDerivedType(tag: DW_TAG_pointer_type, baseType: !402, size: 64)
!402 = !DIDerivedType(tag: DW_TAG_const_type, baseType: !233)
!403 = !DISubprogram(name: "tcp_header", linkageName: "_ZNK6Packet10tcp_headerEv", scope: !5, file: !4, line: 319, type: !404, scopeLine: 319, flags: DIFlagPublic | DIFlagPrototyped, spFlags: DISPFlagOptimized)
!404 = !DISubroutineType(types: !405)
!405 = !{!406, !286}
!406 = !DIDerivedType(tag: DW_TAG_pointer_type, baseType: !407, size: 64)
!407 = !DIDerivedType(tag: DW_TAG_const_type, baseType: !238)
!408 = !DISubprogram(name: "udp_header", linkageName: "_ZNK6Packet10udp_headerEv", scope: !5, file: !4, line: 320, type: !409, scopeLine: 320, flags: DIFlagPublic | DIFlagPrototyped, spFlags: DISPFlagOptimized)
!409 = !DISubroutineType(types: !410)
!410 = !{!411, !286}
!411 = !DIDerivedType(tag: DW_TAG_pointer_type, baseType: !412, size: 64)
!412 = !DIDerivedType(tag: DW_TAG_const_type, baseType: !243)
!413 = !DISubprogram(name: "xanno", linkageName: "_ZNK6Packet5xannoEv", scope: !5, file: !4, line: 340, type: !414, scopeLine: 340, flags: DIFlagPrototyped, spFlags: DISPFlagOptimized)
!414 = !DISubroutineType(types: !415)
!415 = !{!416, !286}
!416 = !DIDerivedType(tag: DW_TAG_pointer_type, baseType: !417, size: 64)
!417 = !DIDerivedType(tag: DW_TAG_const_type, baseType: !89)
!418 = !DISubprogram(name: "xanno", linkageName: "_ZN6Packet5xannoEv", scope: !5, file: !4, line: 341, type: !419, scopeLine: 341, flags: DIFlagPrototyped, spFlags: DISPFlagOptimized)
!419 = !DISubroutineType(types: !420)
!420 = !{!421, !282}
!421 = !DIDerivedType(tag: DW_TAG_pointer_type, baseType: !89, size: 64)
!422 = !DISubprogram(name: "timestamp_anno", linkageName: "_ZNK6Packet14timestamp_annoEv", scope: !5, file: !4, line: 354, type: !423, scopeLine: 354, flags: DIFlagPublic | DIFlagPrototyped, spFlags: DISPFlagOptimized)
!423 = !DISubroutineType(types: !424)
!424 = !{!425, !286}
!425 = !DIDerivedType(tag: DW_TAG_reference_type, baseType: !426, size: 64)
!426 = !DIDerivedType(tag: DW_TAG_const_type, baseType: !427)
!427 = distinct !DICompositeType(tag: DW_TAG_class_type, name: "Timestamp", file: !428, line: 122, size: 64, flags: DIFlagTypePassByValue | DIFlagNonTrivial, elements: !429, identifier: "_ZTS9Timestamp")
!428 = !DIFile(filename: "../dummy_inc/click/timestamp.hh", directory: "/home/john/projects/click/ir-dir")
!429 = !{!430, !437, !441, !444, !447, !450, !453, !457, !469, !480, !485, !494, !503, !506, !507, !510, !511, !512, !513, !516, !519, !520, !521, !522, !525, !526, !529, !532, !536, !537, !538, !541, !542, !543, !548, !552, !555, !558, !561, !564, !565, !566, !567, !568, !571, !572, !575, !576, !577, !578, !579, !580, !581, !584, !585, !586, !587, !588, !589, !590, !591, !592, !882, !883, !886, !887, !888, !889, !890, !891, !892, !895, !904, !907, !908, !911, !914, !915, !916, !917, !918, !919, !920, !923, !927, !930, !933, !936}
!430 = !DIDerivedType(tag: DW_TAG_member, name: "_t", scope: !427, file: !428, line: 672, baseType: !431, size: 64)
!431 = distinct !DICompositeType(tag: DW_TAG_union_type, name: "rep_t", scope: !427, file: !428, line: 539, size: 64, flags: DIFlagTypePassByValue, elements: !432, identifier: "_ZTSN9Timestamp5rep_tE")
!432 = !{!433}
!433 = !DIDerivedType(tag: DW_TAG_member, name: "x", scope: !431, file: !428, line: 541, baseType: !434, size: 64)
!434 = !DIDerivedType(tag: DW_TAG_typedef, name: "int64_t", file: !32, line: 27, baseType: !435)
!435 = !DIDerivedType(tag: DW_TAG_typedef, name: "__int64_t", file: !15, line: 44, baseType: !436)
!436 = !DIBasicType(name: "long int", size: 64, encoding: DW_ATE_signed)
!437 = !DISubprogram(name: "Timestamp", scope: !427, file: !428, line: 174, type: !438, scopeLine: 174, flags: DIFlagPublic | DIFlagPrototyped, spFlags: DISPFlagOptimized)
!438 = !DISubroutineType(types: !439)
!439 = !{null, !440}
!440 = !DIDerivedType(tag: DW_TAG_pointer_type, baseType: !427, size: 64, flags: DIFlagArtificial | DIFlagObjectPointer)
!441 = !DISubprogram(name: "Timestamp", scope: !427, file: !428, line: 187, type: !442, scopeLine: 187, flags: DIFlagPublic | DIFlagExplicit | DIFlagPrototyped, spFlags: DISPFlagOptimized)
!442 = !DISubroutineType(types: !443)
!443 = !{null, !440, !436, !12}
!444 = !DISubprogram(name: "Timestamp", scope: !427, file: !428, line: 191, type: !445, scopeLine: 191, flags: DIFlagPublic | DIFlagExplicit | DIFlagPrototyped, spFlags: DISPFlagOptimized)
!445 = !DISubroutineType(types: !446)
!446 = !{null, !440, !34, !12}
!447 = !DISubprogram(name: "Timestamp", scope: !427, file: !428, line: 195, type: !448, scopeLine: 195, flags: DIFlagPublic | DIFlagExplicit | DIFlagPrototyped, spFlags: DISPFlagOptimized)
!448 = !DISubroutineType(types: !449)
!449 = !{null, !440, !115, !12}
!450 = !DISubprogram(name: "Timestamp", scope: !427, file: !428, line: 199, type: !451, scopeLine: 199, flags: DIFlagPublic | DIFlagExplicit | DIFlagPrototyped, spFlags: DISPFlagOptimized)
!451 = !DISubroutineType(types: !452)
!452 = !{null, !440, !16, !12}
!453 = !DISubprogram(name: "Timestamp", scope: !427, file: !428, line: 203, type: !454, scopeLine: 203, flags: DIFlagPublic | DIFlagExplicit | DIFlagPrototyped, spFlags: DISPFlagOptimized)
!454 = !DISubroutineType(types: !455)
!455 = !{null, !440, !456}
!456 = !DIBasicType(name: "double", size: 64, encoding: DW_ATE_float)
!457 = !DISubprogram(name: "Timestamp", scope: !427, file: !428, line: 206, type: !458, scopeLine: 206, flags: DIFlagPublic | DIFlagPrototyped, spFlags: DISPFlagOptimized)
!458 = !DISubroutineType(types: !459)
!459 = !{null, !440, !460}
!460 = !DIDerivedType(tag: DW_TAG_reference_type, baseType: !461, size: 64)
!461 = !DIDerivedType(tag: DW_TAG_const_type, baseType: !462)
!462 = distinct !DICompositeType(tag: DW_TAG_structure_type, name: "timeval", file: !463, line: 8, size: 128, flags: DIFlagTypePassByValue, elements: !464, identifier: "_ZTS7timeval")
!463 = !DIFile(filename: "/usr/include/bits/types/struct_timeval.h", directory: "")
!464 = !{!465, !467}
!465 = !DIDerivedType(tag: DW_TAG_member, name: "tv_sec", scope: !462, file: !463, line: 10, baseType: !466, size: 64)
!466 = !DIDerivedType(tag: DW_TAG_typedef, name: "__time_t", file: !15, line: 160, baseType: !436)
!467 = !DIDerivedType(tag: DW_TAG_member, name: "tv_usec", scope: !462, file: !463, line: 11, baseType: !468, size: 64, offset: 64)
!468 = !DIDerivedType(tag: DW_TAG_typedef, name: "__suseconds_t", file: !15, line: 162, baseType: !436)
!469 = !DISubprogram(name: "Timestamp", scope: !427, file: !428, line: 208, type: !470, scopeLine: 208, flags: DIFlagPublic | DIFlagPrototyped, spFlags: DISPFlagOptimized)
!470 = !DISubroutineType(types: !471)
!471 = !{null, !440, !472}
!472 = !DIDerivedType(tag: DW_TAG_reference_type, baseType: !473, size: 64)
!473 = !DIDerivedType(tag: DW_TAG_const_type, baseType: !474)
!474 = distinct !DICompositeType(tag: DW_TAG_structure_type, name: "timespec", file: !475, line: 10, size: 128, flags: DIFlagTypePassByValue, elements: !476, identifier: "_ZTS8timespec")
!475 = !DIFile(filename: "/usr/include/bits/types/struct_timespec.h", directory: "")
!476 = !{!477, !478}
!477 = !DIDerivedType(tag: DW_TAG_member, name: "tv_sec", scope: !474, file: !475, line: 12, baseType: !466, size: 64)
!478 = !DIDerivedType(tag: DW_TAG_member, name: "tv_nsec", scope: !474, file: !475, line: 16, baseType: !479, size: 64, offset: 64)
!479 = !DIDerivedType(tag: DW_TAG_typedef, name: "__syscall_slong_t", file: !15, line: 196, baseType: !436)
!480 = !DISubprogram(name: "Timestamp", scope: !427, file: !428, line: 212, type: !481, scopeLine: 212, flags: DIFlagPublic | DIFlagPrototyped, spFlags: DISPFlagOptimized)
!481 = !DISubroutineType(types: !482)
!482 = !{null, !440, !483}
!483 = !DIDerivedType(tag: DW_TAG_reference_type, baseType: !484, size: 64)
!484 = !DIDerivedType(tag: DW_TAG_const_type, baseType: !431)
!485 = !DISubprogram(name: "Timestamp", scope: !427, file: !428, line: 217, type: !486, scopeLine: 217, flags: DIFlagPublic | DIFlagPrototyped, spFlags: DISPFlagOptimized)
!486 = !DISubroutineType(types: !487)
!487 = !{null, !440, !488}
!488 = !DIDerivedType(tag: DW_TAG_reference_type, baseType: !489, size: 64)
!489 = !DIDerivedType(tag: DW_TAG_const_type, baseType: !490)
!490 = !DIDerivedType(tag: DW_TAG_typedef, name: "uninitialized_t", scope: !427, file: !428, line: 168, baseType: !491)
!491 = distinct !DICompositeType(tag: DW_TAG_structure_type, name: "uninitialized_type", file: !492, line: 317, size: 8, flags: DIFlagTypePassByValue, elements: !493, identifier: "_ZTS18uninitialized_type")
!492 = !DIFile(filename: "../dummy_inc/click/config.h", directory: "/home/john/projects/click/ir-dir")
!493 = !{}
!494 = !DISubprogram(name: "operator int (Timestamp::*)() const", linkageName: "_ZNK9TimestampcvMS_KFivEEv", scope: !427, file: !428, line: 222, type: !495, scopeLine: 222, flags: DIFlagPublic | DIFlagPrototyped, spFlags: DISPFlagOptimized)
!495 = !DISubroutineType(types: !496)
!496 = !{!497, !502}
!497 = !DIDerivedType(tag: DW_TAG_typedef, name: "unspecified_bool_type", scope: !427, file: !428, line: 221, baseType: !498)
!498 = !DIDerivedType(tag: DW_TAG_ptr_to_member_type, baseType: !499, size: 128, extraData: !427)
!499 = !DISubroutineType(types: !500)
!500 = !{!501, !502}
!501 = !DIDerivedType(tag: DW_TAG_typedef, name: "seconds_type", scope: !427, file: !428, line: 125, baseType: !31)
!502 = !DIDerivedType(tag: DW_TAG_pointer_type, baseType: !426, size: 64, flags: DIFlagArtificial | DIFlagObjectPointer)
!503 = !DISubprogram(name: "is_negative", linkageName: "_ZNK9Timestamp11is_negativeEv", scope: !427, file: !428, line: 225, type: !504, scopeLine: 225, flags: DIFlagPublic | DIFlagPrototyped, spFlags: DISPFlagOptimized)
!504 = !DISubroutineType(types: !505)
!505 = !{!53, !502}
!506 = !DISubprogram(name: "sec", linkageName: "_ZNK9Timestamp3secEv", scope: !427, file: !428, line: 233, type: !499, scopeLine: 233, flags: DIFlagPublic | DIFlagPrototyped, spFlags: DISPFlagOptimized)
!507 = !DISubprogram(name: "subsec", linkageName: "_ZNK9Timestamp6subsecEv", scope: !427, file: !428, line: 234, type: !508, scopeLine: 234, flags: DIFlagPublic | DIFlagPrototyped, spFlags: DISPFlagOptimized)
!508 = !DISubroutineType(types: !509)
!509 = !{!12, !502}
!510 = !DISubprogram(name: "msec", linkageName: "_ZNK9Timestamp4msecEv", scope: !427, file: !428, line: 235, type: !508, scopeLine: 235, flags: DIFlagPublic | DIFlagPrototyped, spFlags: DISPFlagOptimized)
!511 = !DISubprogram(name: "usec", linkageName: "_ZNK9Timestamp4usecEv", scope: !427, file: !428, line: 236, type: !508, scopeLine: 236, flags: DIFlagPublic | DIFlagPrototyped, spFlags: DISPFlagOptimized)
!512 = !DISubprogram(name: "nsec", linkageName: "_ZNK9Timestamp4nsecEv", scope: !427, file: !428, line: 237, type: !508, scopeLine: 237, flags: DIFlagPublic | DIFlagPrototyped, spFlags: DISPFlagOptimized)
!513 = !DISubprogram(name: "set_sec", linkageName: "_ZN9Timestamp7set_secEi", scope: !427, file: !428, line: 239, type: !514, scopeLine: 239, flags: DIFlagPublic | DIFlagPrototyped, spFlags: DISPFlagOptimized)
!514 = !DISubroutineType(types: !515)
!515 = !{null, !440, !501}
!516 = !DISubprogram(name: "set_subsec", linkageName: "_ZN9Timestamp10set_subsecEj", scope: !427, file: !428, line: 240, type: !517, scopeLine: 240, flags: DIFlagPublic | DIFlagPrototyped, spFlags: DISPFlagOptimized)
!517 = !DISubroutineType(types: !518)
!518 = !{null, !440, !12}
!519 = !DISubprogram(name: "msec1", linkageName: "_ZNK9Timestamp5msec1Ev", scope: !427, file: !428, line: 242, type: !499, scopeLine: 242, flags: DIFlagPublic | DIFlagPrototyped, spFlags: DISPFlagOptimized)
!520 = !DISubprogram(name: "usec1", linkageName: "_ZNK9Timestamp5usec1Ev", scope: !427, file: !428, line: 243, type: !499, scopeLine: 243, flags: DIFlagPublic | DIFlagPrototyped, spFlags: DISPFlagOptimized)
!521 = !DISubprogram(name: "nsec1", linkageName: "_ZNK9Timestamp5nsec1Ev", scope: !427, file: !428, line: 244, type: !499, scopeLine: 244, flags: DIFlagPublic | DIFlagPrototyped, spFlags: DISPFlagOptimized)
!522 = !DISubprogram(name: "timeval", linkageName: "_ZNK9Timestamp7timevalEv", scope: !427, file: !428, line: 250, type: !523, scopeLine: 250, flags: DIFlagPublic | DIFlagPrototyped, spFlags: DISPFlagOptimized)
!523 = !DISubroutineType(types: !524)
!524 = !{!462, !502}
!525 = !DISubprogram(name: "timeval_ceil", linkageName: "_ZNK9Timestamp12timeval_ceilEv", scope: !427, file: !428, line: 251, type: !523, scopeLine: 251, flags: DIFlagPublic | DIFlagPrototyped, spFlags: DISPFlagOptimized)
!526 = !DISubprogram(name: "timespec", linkageName: "_ZNK9Timestamp8timespecEv", scope: !427, file: !428, line: 257, type: !527, scopeLine: 257, flags: DIFlagPublic | DIFlagPrototyped, spFlags: DISPFlagOptimized)
!527 = !DISubroutineType(types: !528)
!528 = !{!474, !502}
!529 = !DISubprogram(name: "doubleval", linkageName: "_ZNK9Timestamp9doublevalEv", scope: !427, file: !428, line: 262, type: !530, scopeLine: 262, flags: DIFlagPublic | DIFlagPrototyped, spFlags: DISPFlagOptimized)
!530 = !DISubroutineType(types: !531)
!531 = !{!456, !502}
!532 = !DISubprogram(name: "msecval", linkageName: "_ZNK9Timestamp7msecvalEv", scope: !427, file: !428, line: 265, type: !533, scopeLine: 265, flags: DIFlagPublic | DIFlagPrototyped, spFlags: DISPFlagOptimized)
!533 = !DISubroutineType(types: !534)
!534 = !{!535, !502}
!535 = !DIDerivedType(tag: DW_TAG_typedef, name: "value_type", scope: !427, file: !428, line: 128, baseType: !434)
!536 = !DISubprogram(name: "usecval", linkageName: "_ZNK9Timestamp7usecvalEv", scope: !427, file: !428, line: 273, type: !533, scopeLine: 273, flags: DIFlagPublic | DIFlagPrototyped, spFlags: DISPFlagOptimized)
!537 = !DISubprogram(name: "nsecval", linkageName: "_ZNK9Timestamp7nsecvalEv", scope: !427, file: !428, line: 281, type: !533, scopeLine: 281, flags: DIFlagPublic | DIFlagPrototyped, spFlags: DISPFlagOptimized)
!538 = !DISubprogram(name: "msec_ceil", linkageName: "_ZNK9Timestamp9msec_ceilEv", scope: !427, file: !428, line: 290, type: !539, scopeLine: 290, flags: DIFlagPublic | DIFlagPrototyped, spFlags: DISPFlagOptimized)
!539 = !DISubroutineType(types: !540)
!540 = !{!427, !502}
!541 = !DISubprogram(name: "usec_ceil", linkageName: "_ZNK9Timestamp9usec_ceilEv", scope: !427, file: !428, line: 295, type: !539, scopeLine: 295, flags: DIFlagPublic | DIFlagPrototyped, spFlags: DISPFlagOptimized)
!542 = !DISubprogram(name: "nsec_ceil", linkageName: "_ZNK9Timestamp9nsec_ceilEv", scope: !427, file: !428, line: 304, type: !539, scopeLine: 304, flags: DIFlagPublic | DIFlagPrototyped, spFlags: DISPFlagOptimized)
!543 = !DISubprogram(name: "make_jiffies", linkageName: "_ZN9Timestamp12make_jiffiesEj", scope: !427, file: !428, line: 310, type: !544, scopeLine: 310, flags: DIFlagPublic | DIFlagPrototyped | DIFlagStaticMember, spFlags: DISPFlagOptimized)
!544 = !DISubroutineType(types: !545)
!545 = !{!427, !546}
!546 = !DIDerivedType(tag: DW_TAG_typedef, name: "click_jiffies_t", file: !547, line: 477, baseType: !16)
!547 = !DIFile(filename: "../dummy_inc/click/glue.hh", directory: "/home/john/projects/click/ir-dir")
!548 = !DISubprogram(name: "make_jiffies", linkageName: "_ZN9Timestamp12make_jiffiesEi", scope: !427, file: !428, line: 312, type: !549, scopeLine: 312, flags: DIFlagPublic | DIFlagPrototyped | DIFlagStaticMember, spFlags: DISPFlagOptimized)
!549 = !DISubroutineType(types: !550)
!550 = !{!427, !551}
!551 = !DIDerivedType(tag: DW_TAG_typedef, name: "click_jiffies_difference_t", file: !547, line: 478, baseType: !34)
!552 = !DISubprogram(name: "jiffies", linkageName: "_ZNK9Timestamp7jiffiesEv", scope: !427, file: !428, line: 314, type: !553, scopeLine: 314, flags: DIFlagPublic | DIFlagPrototyped, spFlags: DISPFlagOptimized)
!553 = !DISubroutineType(types: !554)
!554 = !{!546, !502}
!555 = !DISubprogram(name: "make_sec", linkageName: "_ZN9Timestamp8make_secEi", scope: !427, file: !428, line: 318, type: !556, scopeLine: 318, flags: DIFlagPublic | DIFlagPrototyped | DIFlagStaticMember, spFlags: DISPFlagOptimized)
!556 = !DISubroutineType(types: !557)
!557 = !{!427, !501}
!558 = !DISubprogram(name: "make_msec", linkageName: "_ZN9Timestamp9make_msecEij", scope: !427, file: !428, line: 324, type: !559, scopeLine: 324, flags: DIFlagPublic | DIFlagPrototyped | DIFlagStaticMember, spFlags: DISPFlagOptimized)
!559 = !DISubroutineType(types: !560)
!560 = !{!427, !501, !12}
!561 = !DISubprogram(name: "make_msec", linkageName: "_ZN9Timestamp9make_msecEl", scope: !427, file: !428, line: 328, type: !562, scopeLine: 328, flags: DIFlagPublic | DIFlagPrototyped | DIFlagStaticMember, spFlags: DISPFlagOptimized)
!562 = !DISubroutineType(types: !563)
!563 = !{!427, !535}
!564 = !DISubprogram(name: "make_usec", linkageName: "_ZN9Timestamp9make_usecEij", scope: !427, file: !428, line: 341, type: !559, scopeLine: 341, flags: DIFlagPublic | DIFlagPrototyped | DIFlagStaticMember, spFlags: DISPFlagOptimized)
!565 = !DISubprogram(name: "make_usec", linkageName: "_ZN9Timestamp9make_usecEl", scope: !427, file: !428, line: 345, type: !562, scopeLine: 345, flags: DIFlagPublic | DIFlagPrototyped | DIFlagStaticMember, spFlags: DISPFlagOptimized)
!566 = !DISubprogram(name: "make_nsec", linkageName: "_ZN9Timestamp9make_nsecEij", scope: !427, file: !428, line: 358, type: !559, scopeLine: 358, flags: DIFlagPublic | DIFlagPrototyped | DIFlagStaticMember, spFlags: DISPFlagOptimized)
!567 = !DISubprogram(name: "make_nsec", linkageName: "_ZN9Timestamp9make_nsecEl", scope: !427, file: !428, line: 362, type: !562, scopeLine: 362, flags: DIFlagPublic | DIFlagPrototyped | DIFlagStaticMember, spFlags: DISPFlagOptimized)
!568 = !DISubprogram(name: "epsilon", linkageName: "_ZN9Timestamp7epsilonEv", scope: !427, file: !428, line: 375, type: !569, scopeLine: 375, flags: DIFlagPublic | DIFlagPrototyped | DIFlagStaticMember, spFlags: DISPFlagOptimized)
!569 = !DISubroutineType(types: !570)
!570 = !{!427}
!571 = !DISubprogram(name: "clear", linkageName: "_ZN9Timestamp5clearEv", scope: !427, file: !428, line: 380, type: !438, scopeLine: 380, flags: DIFlagPublic | DIFlagPrototyped, spFlags: DISPFlagOptimized)
!572 = !DISubprogram(name: "assign", linkageName: "_ZN9Timestamp6assignEij", scope: !427, file: !428, line: 388, type: !573, scopeLine: 388, flags: DIFlagPublic | DIFlagPrototyped, spFlags: DISPFlagOptimized)
!573 = !DISubroutineType(types: !574)
!574 = !{null, !440, !501, !12}
!575 = !DISubprogram(name: "assign_usec", linkageName: "_ZN9Timestamp11assign_usecEij", scope: !427, file: !428, line: 397, type: !573, scopeLine: 397, flags: DIFlagPublic | DIFlagPrototyped, spFlags: DISPFlagOptimized)
!576 = !DISubprogram(name: "assign_nsec", linkageName: "_ZN9Timestamp11assign_nsecEij", scope: !427, file: !428, line: 401, type: !573, scopeLine: 401, flags: DIFlagPublic | DIFlagPrototyped, spFlags: DISPFlagOptimized)
!577 = !DISubprogram(name: "set", linkageName: "_ZN9Timestamp3setEij", scope: !427, file: !428, line: 408, type: !573, scopeLine: 408, flags: DIFlagPublic | DIFlagPrototyped, spFlags: DISPFlagOptimized)
!578 = !DISubprogram(name: "set_usec", linkageName: "_ZN9Timestamp8set_usecEij", scope: !427, file: !428, line: 411, type: !573, scopeLine: 411, flags: DIFlagPublic | DIFlagPrototyped, spFlags: DISPFlagOptimized)
!579 = !DISubprogram(name: "set_nsec", linkageName: "_ZN9Timestamp8set_nsecEij", scope: !427, file: !428, line: 414, type: !573, scopeLine: 414, flags: DIFlagPublic | DIFlagPrototyped, spFlags: DISPFlagOptimized)
!580 = !DISubprogram(name: "set_now", linkageName: "_ZN9Timestamp7set_nowEv", scope: !427, file: !428, line: 417, type: !438, scopeLine: 417, flags: DIFlagPublic | DIFlagPrototyped, spFlags: DISPFlagOptimized)
!581 = !DISubprogram(name: "set_timeval_ioctl", linkageName: "_ZN9Timestamp17set_timeval_ioctlEii", scope: !427, file: !428, line: 420, type: !582, scopeLine: 420, flags: DIFlagPublic | DIFlagPrototyped, spFlags: DISPFlagOptimized)
!582 = !DISubroutineType(types: !583)
!583 = !{!34, !440, !34, !34}
!584 = !DISubprogram(name: "now", linkageName: "_ZN9Timestamp3nowEv", scope: !427, file: !428, line: 432, type: !569, scopeLine: 432, flags: DIFlagPublic | DIFlagPrototyped | DIFlagStaticMember, spFlags: DISPFlagOptimized)
!585 = !DISubprogram(name: "assign_now", linkageName: "_ZN9Timestamp10assign_nowEv", scope: !427, file: !428, line: 438, type: !438, scopeLine: 438, flags: DIFlagPublic | DIFlagPrototyped, spFlags: DISPFlagOptimized)
!586 = !DISubprogram(name: "recent", linkageName: "_ZN9Timestamp6recentEv", scope: !427, file: !428, line: 446, type: !569, scopeLine: 446, flags: DIFlagPublic | DIFlagPrototyped | DIFlagStaticMember, spFlags: DISPFlagOptimized)
!587 = !DISubprogram(name: "assign_recent", linkageName: "_ZN9Timestamp13assign_recentEv", scope: !427, file: !428, line: 452, type: !438, scopeLine: 452, flags: DIFlagPublic | DIFlagPrototyped, spFlags: DISPFlagOptimized)
!588 = !DISubprogram(name: "now_steady", linkageName: "_ZN9Timestamp10now_steadyEv", scope: !427, file: !428, line: 466, type: !569, scopeLine: 466, flags: DIFlagPublic | DIFlagPrototyped | DIFlagStaticMember, spFlags: DISPFlagOptimized)
!589 = !DISubprogram(name: "assign_now_steady", linkageName: "_ZN9Timestamp17assign_now_steadyEv", scope: !427, file: !428, line: 472, type: !438, scopeLine: 472, flags: DIFlagPublic | DIFlagPrototyped, spFlags: DISPFlagOptimized)
!590 = !DISubprogram(name: "recent_steady", linkageName: "_ZN9Timestamp13recent_steadyEv", scope: !427, file: !428, line: 481, type: !569, scopeLine: 481, flags: DIFlagPublic | DIFlagPrototyped | DIFlagStaticMember, spFlags: DISPFlagOptimized)
!591 = !DISubprogram(name: "assign_recent_steady", linkageName: "_ZN9Timestamp20assign_recent_steadyEv", scope: !427, file: !428, line: 487, type: !438, scopeLine: 487, flags: DIFlagPublic | DIFlagPrototyped, spFlags: DISPFlagOptimized)
!592 = !DISubprogram(name: "unparse", linkageName: "_ZNK9Timestamp7unparseEv", scope: !427, file: !428, line: 496, type: !593, scopeLine: 496, flags: DIFlagPublic | DIFlagPrototyped, spFlags: DISPFlagOptimized)
!593 = !DISubroutineType(types: !594)
!594 = !{!595, !502}
!595 = distinct !DICompositeType(tag: DW_TAG_class_type, name: "String", file: !596, line: 19, size: 192, flags: DIFlagTypePassByReference | DIFlagNonTrivial, elements: !597, identifier: "_ZTS6String")
!596 = !DIFile(filename: "../dummy_inc/click/string.hh", directory: "/home/john/projects/click/ir-dir")
!597 = !{!598, !603, !617, !618, !622, !626, !628, !629, !633, !638, !642, !645, !648, !651, !654, !657, !660, !663, !666, !669, !672, !675, !678, !682, !686, !689, !690, !693, !696, !697, !700, !703, !706, !710, !714, !718, !721, !722, !727, !730, !731, !735, !736, !739, !740, !743, !744, !747, !750, !753, !756, !759, !762, !765, !768, !771, !774, !777, !780, !781, !782, !783, !786, !789, !790, !791, !792, !793, !794, !795, !799, !802, !805, !808, !809, !810, !811, !812, !813, !816, !820, !821, !822, !823, !826, !827, !828, !829, !830, !831, !834, !835, !836, !837, !840, !843, !844, !847, !850, !853, !856, !859, !862, !865, !866, !867, !868, !871, !874, !877, !878, !879}
!598 = !DIDerivedType(tag: DW_TAG_member, name: "bool_data", scope: !595, file: !596, line: 184, baseType: !599, flags: DIFlagPublic | DIFlagStaticMember)
!599 = !DICompositeType(tag: DW_TAG_array_type, baseType: !600, size: 88, elements: !601)
!600 = !DIDerivedType(tag: DW_TAG_const_type, baseType: !93)
!601 = !{!602}
!602 = !DISubrange(count: 11)
!603 = !DIDerivedType(tag: DW_TAG_member, name: "_r", scope: !595, file: !596, line: 211, baseType: !604, size: 192)
!604 = distinct !DICompositeType(tag: DW_TAG_structure_type, name: "rep_t", scope: !595, file: !596, line: 204, size: 192, flags: DIFlagTypePassByValue, elements: !605, identifier: "_ZTSN6String5rep_tE")
!605 = !{!606, !608, !609}
!606 = !DIDerivedType(tag: DW_TAG_member, name: "data", scope: !604, file: !596, line: 205, baseType: !607, size: 64)
!607 = !DIDerivedType(tag: DW_TAG_pointer_type, baseType: !600, size: 64)
!608 = !DIDerivedType(tag: DW_TAG_member, name: "length", scope: !604, file: !596, line: 206, baseType: !34, size: 32, offset: 64)
!609 = !DIDerivedType(tag: DW_TAG_member, name: "memo", scope: !604, file: !596, line: 207, baseType: !610, size: 64, offset: 128)
!610 = !DIDerivedType(tag: DW_TAG_pointer_type, baseType: !611, size: 64)
!611 = distinct !DICompositeType(tag: DW_TAG_structure_type, name: "memo_t", scope: !595, file: !596, line: 189, size: 160, flags: DIFlagTypePassByValue, elements: !612, identifier: "_ZTSN6String6memo_tE")
!612 = !{!613, !614, !615, !616}
!613 = !DIDerivedType(tag: DW_TAG_member, name: "refcount", scope: !611, file: !596, line: 190, baseType: !64, size: 32)
!614 = !DIDerivedType(tag: DW_TAG_member, name: "capacity", scope: !611, file: !596, line: 191, baseType: !12, size: 32, offset: 32)
!615 = !DIDerivedType(tag: DW_TAG_member, name: "dirty", scope: !611, file: !596, line: 192, baseType: !64, size: 32, offset: 64)
!616 = !DIDerivedType(tag: DW_TAG_member, name: "real_data", scope: !611, file: !596, line: 197, baseType: !123, size: 64, offset: 96)
!617 = !DIDerivedType(tag: DW_TAG_member, name: "null_data", scope: !595, file: !596, line: 292, baseType: !600, flags: DIFlagStaticMember)
!618 = !DIDerivedType(tag: DW_TAG_member, name: "oom_data", scope: !595, file: !596, line: 293, baseType: !619, flags: DIFlagStaticMember)
!619 = !DICompositeType(tag: DW_TAG_array_type, baseType: !600, size: 120, elements: !620)
!620 = !{!621}
!621 = !DISubrange(count: 15)
!622 = !DIDerivedType(tag: DW_TAG_member, name: "int_data", scope: !595, file: !596, line: 294, baseType: !623, flags: DIFlagStaticMember)
!623 = !DICompositeType(tag: DW_TAG_array_type, baseType: !600, size: 160, elements: !624)
!624 = !{!625}
!625 = !DISubrange(count: 20)
!626 = !DIDerivedType(tag: DW_TAG_member, name: "null_string_rep", scope: !595, file: !596, line: 295, baseType: !627, flags: DIFlagStaticMember)
!627 = !DIDerivedType(tag: DW_TAG_const_type, baseType: !604)
!628 = !DIDerivedType(tag: DW_TAG_member, name: "oom_string_rep", scope: !595, file: !596, line: 296, baseType: !627, flags: DIFlagStaticMember)
!629 = !DISubprogram(name: "String", scope: !595, file: !596, line: 39, type: !630, scopeLine: 39, flags: DIFlagPublic | DIFlagPrototyped, spFlags: DISPFlagOptimized)
!630 = !DISubroutineType(types: !631)
!631 = !{null, !632}
!632 = !DIDerivedType(tag: DW_TAG_pointer_type, baseType: !595, size: 64, flags: DIFlagArtificial | DIFlagObjectPointer)
!633 = !DISubprogram(name: "String", scope: !595, file: !596, line: 40, type: !634, scopeLine: 40, flags: DIFlagPublic | DIFlagPrototyped, spFlags: DISPFlagOptimized)
!634 = !DISubroutineType(types: !635)
!635 = !{null, !632, !636}
!636 = !DIDerivedType(tag: DW_TAG_reference_type, baseType: !637, size: 64)
!637 = !DIDerivedType(tag: DW_TAG_const_type, baseType: !595)
!638 = !DISubprogram(name: "String", scope: !595, file: !596, line: 42, type: !639, scopeLine: 42, flags: DIFlagPublic | DIFlagPrototyped, spFlags: DISPFlagOptimized)
!639 = !DISubroutineType(types: !640)
!640 = !{null, !632, !641}
!641 = !DIDerivedType(tag: DW_TAG_rvalue_reference_type, baseType: !595, size: 64)
!642 = !DISubprogram(name: "String", scope: !595, file: !596, line: 44, type: !643, scopeLine: 44, flags: DIFlagPublic | DIFlagPrototyped, spFlags: DISPFlagOptimized)
!643 = !DISubroutineType(types: !644)
!644 = !{null, !632, !607}
!645 = !DISubprogram(name: "String", scope: !595, file: !596, line: 45, type: !646, scopeLine: 45, flags: DIFlagPublic | DIFlagPrototyped, spFlags: DISPFlagOptimized)
!646 = !DISubroutineType(types: !647)
!647 = !{null, !632, !607, !34}
!648 = !DISubprogram(name: "String", scope: !595, file: !596, line: 46, type: !649, scopeLine: 46, flags: DIFlagPublic | DIFlagPrototyped, spFlags: DISPFlagOptimized)
!649 = !DISubroutineType(types: !650)
!650 = !{null, !632, !296, !34}
!651 = !DISubprogram(name: "String", scope: !595, file: !596, line: 47, type: !652, scopeLine: 47, flags: DIFlagPublic | DIFlagPrototyped, spFlags: DISPFlagOptimized)
!652 = !DISubroutineType(types: !653)
!653 = !{null, !632, !607, !607}
!654 = !DISubprogram(name: "String", scope: !595, file: !596, line: 48, type: !655, scopeLine: 48, flags: DIFlagPublic | DIFlagPrototyped, spFlags: DISPFlagOptimized)
!655 = !DISubroutineType(types: !656)
!656 = !{null, !632, !296, !296}
!657 = !DISubprogram(name: "String", scope: !595, file: !596, line: 49, type: !658, scopeLine: 49, flags: DIFlagPublic | DIFlagExplicit | DIFlagPrototyped, spFlags: DISPFlagOptimized)
!658 = !DISubroutineType(types: !659)
!659 = !{null, !632, !53}
!660 = !DISubprogram(name: "String", scope: !595, file: !596, line: 50, type: !661, scopeLine: 50, flags: DIFlagPublic | DIFlagExplicit | DIFlagPrototyped, spFlags: DISPFlagOptimized)
!661 = !DISubroutineType(types: !662)
!662 = !{null, !632, !93}
!663 = !DISubprogram(name: "String", scope: !595, file: !596, line: 51, type: !664, scopeLine: 51, flags: DIFlagPublic | DIFlagExplicit | DIFlagPrototyped, spFlags: DISPFlagOptimized)
!664 = !DISubroutineType(types: !665)
!665 = !{null, !632, !81}
!666 = !DISubprogram(name: "String", scope: !595, file: !596, line: 52, type: !667, scopeLine: 52, flags: DIFlagPublic | DIFlagExplicit | DIFlagPrototyped, spFlags: DISPFlagOptimized)
!667 = !DISubroutineType(types: !668)
!668 = !{null, !632, !34}
!669 = !DISubprogram(name: "String", scope: !595, file: !596, line: 53, type: !670, scopeLine: 53, flags: DIFlagPublic | DIFlagExplicit | DIFlagPrototyped, spFlags: DISPFlagOptimized)
!670 = !DISubroutineType(types: !671)
!671 = !{null, !632, !16}
!672 = !DISubprogram(name: "String", scope: !595, file: !596, line: 54, type: !673, scopeLine: 54, flags: DIFlagPublic | DIFlagExplicit | DIFlagPrototyped, spFlags: DISPFlagOptimized)
!673 = !DISubroutineType(types: !674)
!674 = !{null, !632, !436}
!675 = !DISubprogram(name: "String", scope: !595, file: !596, line: 55, type: !676, scopeLine: 55, flags: DIFlagPublic | DIFlagExplicit | DIFlagPrototyped, spFlags: DISPFlagOptimized)
!676 = !DISubroutineType(types: !677)
!677 = !{null, !632, !115}
!678 = !DISubprogram(name: "String", scope: !595, file: !596, line: 57, type: !679, scopeLine: 57, flags: DIFlagPublic | DIFlagExplicit | DIFlagPrototyped, spFlags: DISPFlagOptimized)
!679 = !DISubroutineType(types: !680)
!680 = !{null, !632, !681}
!681 = !DIBasicType(name: "long long int", size: 64, encoding: DW_ATE_signed)
!682 = !DISubprogram(name: "String", scope: !595, file: !596, line: 58, type: !683, scopeLine: 58, flags: DIFlagPublic | DIFlagExplicit | DIFlagPrototyped, spFlags: DISPFlagOptimized)
!683 = !DISubroutineType(types: !684)
!684 = !{null, !632, !685}
!685 = !DIBasicType(name: "long long unsigned int", size: 64, encoding: DW_ATE_unsigned)
!686 = !DISubprogram(name: "String", scope: !595, file: !596, line: 65, type: !687, scopeLine: 65, flags: DIFlagPublic | DIFlagExplicit | DIFlagPrototyped, spFlags: DISPFlagOptimized)
!687 = !DISubroutineType(types: !688)
!688 = !{null, !632, !456}
!689 = !DISubprogram(name: "~String", scope: !595, file: !596, line: 67, type: !630, scopeLine: 67, flags: DIFlagPublic | DIFlagPrototyped, spFlags: DISPFlagOptimized)
!690 = !DISubprogram(name: "make_empty", linkageName: "_ZN6String10make_emptyEv", scope: !595, file: !596, line: 69, type: !691, scopeLine: 69, flags: DIFlagPublic | DIFlagPrototyped | DIFlagStaticMember, spFlags: DISPFlagOptimized)
!691 = !DISubroutineType(types: !692)
!692 = !{!636}
!693 = !DISubprogram(name: "make_uninitialized", linkageName: "_ZN6String18make_uninitializedEi", scope: !595, file: !596, line: 70, type: !694, scopeLine: 70, flags: DIFlagPublic | DIFlagPrototyped | DIFlagStaticMember, spFlags: DISPFlagOptimized)
!694 = !DISubroutineType(types: !695)
!695 = !{!595, !34}
!696 = !DISubprogram(name: "make_garbage", linkageName: "_ZN6String12make_garbageEi", scope: !595, file: !596, line: 71, type: !694, scopeLine: 71, flags: DIFlagPublic | DIFlagPrototyped | DIFlagStaticMember, spFlags: DISPFlagOptimized)
!697 = !DISubprogram(name: "make_stable", linkageName: "_ZN6String11make_stableEPKc", scope: !595, file: !596, line: 72, type: !698, scopeLine: 72, flags: DIFlagPublic | DIFlagPrototyped | DIFlagStaticMember, spFlags: DISPFlagOptimized)
!698 = !DISubroutineType(types: !699)
!699 = !{!595, !607}
!700 = !DISubprogram(name: "make_stable", linkageName: "_ZN6String11make_stableEPKci", scope: !595, file: !596, line: 73, type: !701, scopeLine: 73, flags: DIFlagPublic | DIFlagPrototyped | DIFlagStaticMember, spFlags: DISPFlagOptimized)
!701 = !DISubroutineType(types: !702)
!702 = !{!595, !607, !34}
!703 = !DISubprogram(name: "make_stable", linkageName: "_ZN6String11make_stableEPKcS1_", scope: !595, file: !596, line: 74, type: !704, scopeLine: 74, flags: DIFlagPublic | DIFlagPrototyped | DIFlagStaticMember, spFlags: DISPFlagOptimized)
!704 = !DISubroutineType(types: !705)
!705 = !{!595, !607, !607}
!706 = !DISubprogram(name: "make_numeric", linkageName: "_ZN6String12make_numericElib", scope: !595, file: !596, line: 75, type: !707, scopeLine: 75, flags: DIFlagPublic | DIFlagPrototyped | DIFlagStaticMember, spFlags: DISPFlagOptimized)
!707 = !DISubroutineType(types: !708)
!708 = !{!595, !709, !34, !53}
!709 = !DIDerivedType(tag: DW_TAG_typedef, name: "intmax_t", scope: !595, file: !596, line: 27, baseType: !434)
!710 = !DISubprogram(name: "make_numeric", linkageName: "_ZN6String12make_numericEmib", scope: !595, file: !596, line: 76, type: !711, scopeLine: 76, flags: DIFlagPublic | DIFlagPrototyped | DIFlagStaticMember, spFlags: DISPFlagOptimized)
!711 = !DISubroutineType(types: !712)
!712 = !{!595, !713, !34, !53}
!713 = !DIDerivedType(tag: DW_TAG_typedef, name: "uintmax_t", scope: !595, file: !596, line: 28, baseType: !113)
!714 = !DISubprogram(name: "data", linkageName: "_ZNK6String4dataEv", scope: !595, file: !596, line: 78, type: !715, scopeLine: 78, flags: DIFlagPublic | DIFlagPrototyped, spFlags: DISPFlagOptimized)
!715 = !DISubroutineType(types: !716)
!716 = !{!607, !717}
!717 = !DIDerivedType(tag: DW_TAG_pointer_type, baseType: !637, size: 64, flags: DIFlagArtificial | DIFlagObjectPointer)
!718 = !DISubprogram(name: "length", linkageName: "_ZNK6String6lengthEv", scope: !595, file: !596, line: 79, type: !719, scopeLine: 79, flags: DIFlagPublic | DIFlagPrototyped, spFlags: DISPFlagOptimized)
!719 = !DISubroutineType(types: !720)
!720 = !{!34, !717}
!721 = !DISubprogram(name: "c_str", linkageName: "_ZNK6String5c_strEv", scope: !595, file: !596, line: 81, type: !715, scopeLine: 81, flags: DIFlagPublic | DIFlagPrototyped, spFlags: DISPFlagOptimized)
!722 = !DISubprogram(name: "operator int (String::*)() const", linkageName: "_ZNK6StringcvMS_KFivEEv", scope: !595, file: !596, line: 83, type: !723, scopeLine: 83, flags: DIFlagPublic | DIFlagPrototyped, spFlags: DISPFlagOptimized)
!723 = !DISubroutineType(types: !724)
!724 = !{!725, !717}
!725 = !DIDerivedType(tag: DW_TAG_typedef, name: "unspecified_bool_type", scope: !595, file: !596, line: 24, baseType: !726)
!726 = !DIDerivedType(tag: DW_TAG_ptr_to_member_type, baseType: !719, size: 128, extraData: !595)
!727 = !DISubprogram(name: "empty", linkageName: "_ZNK6String5emptyEv", scope: !595, file: !596, line: 84, type: !728, scopeLine: 84, flags: DIFlagPublic | DIFlagPrototyped, spFlags: DISPFlagOptimized)
!728 = !DISubroutineType(types: !729)
!729 = !{!53, !717}
!730 = !DISubprogram(name: "operator!", linkageName: "_ZNK6StringntEv", scope: !595, file: !596, line: 85, type: !728, scopeLine: 85, flags: DIFlagPublic | DIFlagPrototyped, spFlags: DISPFlagOptimized)
!731 = !DISubprogram(name: "begin", linkageName: "_ZNK6String5beginEv", scope: !595, file: !596, line: 87, type: !732, scopeLine: 87, flags: DIFlagPublic | DIFlagPrototyped, spFlags: DISPFlagOptimized)
!732 = !DISubroutineType(types: !733)
!733 = !{!734, !717}
!734 = !DIDerivedType(tag: DW_TAG_typedef, name: "const_iterator", scope: !595, file: !596, line: 21, baseType: !607)
!735 = !DISubprogram(name: "end", linkageName: "_ZNK6String3endEv", scope: !595, file: !596, line: 88, type: !732, scopeLine: 88, flags: DIFlagPublic | DIFlagPrototyped, spFlags: DISPFlagOptimized)
!736 = !DISubprogram(name: "operator[]", linkageName: "_ZNK6StringixEi", scope: !595, file: !596, line: 90, type: !737, scopeLine: 90, flags: DIFlagPublic | DIFlagPrototyped, spFlags: DISPFlagOptimized)
!737 = !DISubroutineType(types: !738)
!738 = !{!93, !717, !34}
!739 = !DISubprogram(name: "at", linkageName: "_ZNK6String2atEi", scope: !595, file: !596, line: 91, type: !737, scopeLine: 91, flags: DIFlagPublic | DIFlagPrototyped, spFlags: DISPFlagOptimized)
!740 = !DISubprogram(name: "front", linkageName: "_ZNK6String5frontEv", scope: !595, file: !596, line: 92, type: !741, scopeLine: 92, flags: DIFlagPublic | DIFlagPrototyped, spFlags: DISPFlagOptimized)
!741 = !DISubroutineType(types: !742)
!742 = !{!93, !717}
!743 = !DISubprogram(name: "back", linkageName: "_ZNK6String4backEv", scope: !595, file: !596, line: 93, type: !741, scopeLine: 93, flags: DIFlagPublic | DIFlagPrototyped, spFlags: DISPFlagOptimized)
!744 = !DISubprogram(name: "hashcode", linkageName: "_ZN6String8hashcodeEPKcS1_", scope: !595, file: !596, line: 95, type: !745, scopeLine: 95, flags: DIFlagPublic | DIFlagPrototyped | DIFlagStaticMember, spFlags: DISPFlagOptimized)
!745 = !DISubroutineType(types: !746)
!746 = !{!12, !607, !607}
!747 = !DISubprogram(name: "hashcode", linkageName: "_ZN6String8hashcodeEPKhS1_", scope: !595, file: !596, line: 96, type: !748, scopeLine: 96, flags: DIFlagPublic | DIFlagPrototyped | DIFlagStaticMember, spFlags: DISPFlagOptimized)
!748 = !DISubroutineType(types: !749)
!749 = !{!12, !296, !296}
!750 = !DISubprogram(name: "hashcode", linkageName: "_ZNK6String8hashcodeEv", scope: !595, file: !596, line: 98, type: !751, scopeLine: 98, flags: DIFlagPublic | DIFlagPrototyped, spFlags: DISPFlagOptimized)
!751 = !DISubroutineType(types: !752)
!752 = !{!12, !717}
!753 = !DISubprogram(name: "substring", linkageName: "_ZNK6String9substringEPKcS1_", scope: !595, file: !596, line: 100, type: !754, scopeLine: 100, flags: DIFlagPublic | DIFlagPrototyped, spFlags: DISPFlagOptimized)
!754 = !DISubroutineType(types: !755)
!755 = !{!595, !717, !607, !607}
!756 = !DISubprogram(name: "substring", linkageName: "_ZNK6String9substringEii", scope: !595, file: !596, line: 101, type: !757, scopeLine: 101, flags: DIFlagPublic | DIFlagPrototyped, spFlags: DISPFlagOptimized)
!757 = !DISubroutineType(types: !758)
!758 = !{!595, !717, !34, !34}
!759 = !DISubprogram(name: "substring", linkageName: "_ZNK6String9substringEi", scope: !595, file: !596, line: 102, type: !760, scopeLine: 102, flags: DIFlagPublic | DIFlagPrototyped, spFlags: DISPFlagOptimized)
!760 = !DISubroutineType(types: !761)
!761 = !{!595, !717, !34}
!762 = !DISubprogram(name: "trim_space", linkageName: "_ZNK6String10trim_spaceEv", scope: !595, file: !596, line: 103, type: !763, scopeLine: 103, flags: DIFlagPublic | DIFlagPrototyped, spFlags: DISPFlagOptimized)
!763 = !DISubroutineType(types: !764)
!764 = !{!595, !717}
!765 = !DISubprogram(name: "equals", linkageName: "_ZNK6String6equalsERKS_", scope: !595, file: !596, line: 105, type: !766, scopeLine: 105, flags: DIFlagPublic | DIFlagPrototyped, spFlags: DISPFlagOptimized)
!766 = !DISubroutineType(types: !767)
!767 = !{!53, !717, !636}
!768 = !DISubprogram(name: "equals", linkageName: "_ZNK6String6equalsEPKci", scope: !595, file: !596, line: 106, type: !769, scopeLine: 106, flags: DIFlagPublic | DIFlagPrototyped, spFlags: DISPFlagOptimized)
!769 = !DISubroutineType(types: !770)
!770 = !{!53, !717, !607, !34}
!771 = !DISubprogram(name: "compare", linkageName: "_ZN6String7compareERKS_S1_", scope: !595, file: !596, line: 107, type: !772, scopeLine: 107, flags: DIFlagPublic | DIFlagPrototyped | DIFlagStaticMember, spFlags: DISPFlagOptimized)
!772 = !DISubroutineType(types: !773)
!773 = !{!34, !636, !636}
!774 = !DISubprogram(name: "compare", linkageName: "_ZNK6String7compareERKS_", scope: !595, file: !596, line: 108, type: !775, scopeLine: 108, flags: DIFlagPublic | DIFlagPrototyped, spFlags: DISPFlagOptimized)
!775 = !DISubroutineType(types: !776)
!776 = !{!34, !717, !636}
!777 = !DISubprogram(name: "compare", linkageName: "_ZNK6String7compareEPKci", scope: !595, file: !596, line: 109, type: !778, scopeLine: 109, flags: DIFlagPublic | DIFlagPrototyped, spFlags: DISPFlagOptimized)
!778 = !DISubroutineType(types: !779)
!779 = !{!34, !717, !607, !34}
!780 = !DISubprogram(name: "starts_with", linkageName: "_ZNK6String11starts_withERKS_", scope: !595, file: !596, line: 110, type: !766, scopeLine: 110, flags: DIFlagPublic | DIFlagPrototyped, spFlags: DISPFlagOptimized)
!781 = !DISubprogram(name: "starts_with", linkageName: "_ZNK6String11starts_withEPKci", scope: !595, file: !596, line: 111, type: !769, scopeLine: 111, flags: DIFlagPublic | DIFlagPrototyped, spFlags: DISPFlagOptimized)
!782 = !DISubprogram(name: "glob_match", linkageName: "_ZNK6String10glob_matchERKS_", scope: !595, file: !596, line: 112, type: !766, scopeLine: 112, flags: DIFlagPublic | DIFlagPrototyped, spFlags: DISPFlagOptimized)
!783 = !DISubprogram(name: "find_left", linkageName: "_ZNK6String9find_leftEci", scope: !595, file: !596, line: 125, type: !784, scopeLine: 125, flags: DIFlagPublic | DIFlagPrototyped, spFlags: DISPFlagOptimized)
!784 = !DISubroutineType(types: !785)
!785 = !{!34, !717, !93, !34}
!786 = !DISubprogram(name: "find_left", linkageName: "_ZNK6String9find_leftERKS_i", scope: !595, file: !596, line: 126, type: !787, scopeLine: 126, flags: DIFlagPublic | DIFlagPrototyped, spFlags: DISPFlagOptimized)
!787 = !DISubroutineType(types: !788)
!788 = !{!34, !717, !636, !34}
!789 = !DISubprogram(name: "find_right", linkageName: "_ZNK6String10find_rightEci", scope: !595, file: !596, line: 127, type: !784, scopeLine: 127, flags: DIFlagPublic | DIFlagPrototyped, spFlags: DISPFlagOptimized)
!790 = !DISubprogram(name: "lower", linkageName: "_ZNK6String5lowerEv", scope: !595, file: !596, line: 129, type: !763, scopeLine: 129, flags: DIFlagPublic | DIFlagPrototyped, spFlags: DISPFlagOptimized)
!791 = !DISubprogram(name: "upper", linkageName: "_ZNK6String5upperEv", scope: !595, file: !596, line: 130, type: !763, scopeLine: 130, flags: DIFlagPublic | DIFlagPrototyped, spFlags: DISPFlagOptimized)
!792 = !DISubprogram(name: "printable", linkageName: "_ZNK6String9printableEv", scope: !595, file: !596, line: 131, type: !763, scopeLine: 131, flags: DIFlagPublic | DIFlagPrototyped, spFlags: DISPFlagOptimized)
!793 = !DISubprogram(name: "quoted_hex", linkageName: "_ZNK6String10quoted_hexEv", scope: !595, file: !596, line: 132, type: !763, scopeLine: 132, flags: DIFlagPublic | DIFlagPrototyped, spFlags: DISPFlagOptimized)
!794 = !DISubprogram(name: "encode_json", linkageName: "_ZNK6String11encode_jsonEv", scope: !595, file: !596, line: 133, type: !763, scopeLine: 133, flags: DIFlagPublic | DIFlagPrototyped, spFlags: DISPFlagOptimized)
!795 = !DISubprogram(name: "operator=", linkageName: "_ZN6StringaSERKS_", scope: !595, file: !596, line: 135, type: !796, scopeLine: 135, flags: DIFlagPublic | DIFlagPrototyped, spFlags: DISPFlagOptimized)
!796 = !DISubroutineType(types: !797)
!797 = !{!798, !632, !636}
!798 = !DIDerivedType(tag: DW_TAG_reference_type, baseType: !595, size: 64)
!799 = !DISubprogram(name: "operator=", linkageName: "_ZN6StringaSEOS_", scope: !595, file: !596, line: 137, type: !800, scopeLine: 137, flags: DIFlagPublic | DIFlagPrototyped, spFlags: DISPFlagOptimized)
!800 = !DISubroutineType(types: !801)
!801 = !{!798, !632, !641}
!802 = !DISubprogram(name: "operator=", linkageName: "_ZN6StringaSEPKc", scope: !595, file: !596, line: 139, type: !803, scopeLine: 139, flags: DIFlagPublic | DIFlagPrototyped, spFlags: DISPFlagOptimized)
!803 = !DISubroutineType(types: !804)
!804 = !{!798, !632, !607}
!805 = !DISubprogram(name: "swap", linkageName: "_ZN6String4swapERS_", scope: !595, file: !596, line: 141, type: !806, scopeLine: 141, flags: DIFlagPublic | DIFlagPrototyped, spFlags: DISPFlagOptimized)
!806 = !DISubroutineType(types: !807)
!807 = !{null, !632, !798}
!808 = !DISubprogram(name: "append", linkageName: "_ZN6String6appendERKS_", scope: !595, file: !596, line: 143, type: !634, scopeLine: 143, flags: DIFlagPublic | DIFlagPrototyped, spFlags: DISPFlagOptimized)
!809 = !DISubprogram(name: "append", linkageName: "_ZN6String6appendEPKc", scope: !595, file: !596, line: 144, type: !643, scopeLine: 144, flags: DIFlagPublic | DIFlagPrototyped, spFlags: DISPFlagOptimized)
!810 = !DISubprogram(name: "append", linkageName: "_ZN6String6appendEPKci", scope: !595, file: !596, line: 145, type: !646, scopeLine: 145, flags: DIFlagPublic | DIFlagPrototyped, spFlags: DISPFlagOptimized)
!811 = !DISubprogram(name: "append", linkageName: "_ZN6String6appendEPKcS1_", scope: !595, file: !596, line: 146, type: !652, scopeLine: 146, flags: DIFlagPublic | DIFlagPrototyped, spFlags: DISPFlagOptimized)
!812 = !DISubprogram(name: "append", linkageName: "_ZN6String6appendEc", scope: !595, file: !596, line: 147, type: !661, scopeLine: 147, flags: DIFlagPublic | DIFlagPrototyped, spFlags: DISPFlagOptimized)
!813 = !DISubprogram(name: "append_fill", linkageName: "_ZN6String11append_fillEii", scope: !595, file: !596, line: 148, type: !814, scopeLine: 148, flags: DIFlagPublic | DIFlagPrototyped, spFlags: DISPFlagOptimized)
!814 = !DISubroutineType(types: !815)
!815 = !{null, !632, !34, !34}
!816 = !DISubprogram(name: "append_uninitialized", linkageName: "_ZN6String20append_uninitializedEi", scope: !595, file: !596, line: 149, type: !817, scopeLine: 149, flags: DIFlagPublic | DIFlagPrototyped, spFlags: DISPFlagOptimized)
!817 = !DISubroutineType(types: !818)
!818 = !{!819, !632, !34}
!819 = !DIDerivedType(tag: DW_TAG_pointer_type, baseType: !93, size: 64)
!820 = !DISubprogram(name: "append_garbage", linkageName: "_ZN6String14append_garbageEi", scope: !595, file: !596, line: 150, type: !817, scopeLine: 150, flags: DIFlagPublic | DIFlagPrototyped, spFlags: DISPFlagOptimized)
!821 = !DISubprogram(name: "operator+=", linkageName: "_ZN6StringpLERKS_", scope: !595, file: !596, line: 152, type: !796, scopeLine: 152, flags: DIFlagPublic | DIFlagPrototyped, spFlags: DISPFlagOptimized)
!822 = !DISubprogram(name: "operator+=", linkageName: "_ZN6StringpLEPKc", scope: !595, file: !596, line: 153, type: !803, scopeLine: 153, flags: DIFlagPublic | DIFlagPrototyped, spFlags: DISPFlagOptimized)
!823 = !DISubprogram(name: "operator+=", linkageName: "_ZN6StringpLEc", scope: !595, file: !596, line: 154, type: !824, scopeLine: 154, flags: DIFlagPublic | DIFlagPrototyped, spFlags: DISPFlagOptimized)
!824 = !DISubroutineType(types: !825)
!825 = !{!798, !632, !93}
!826 = !DISubprogram(name: "is_shared", linkageName: "_ZNK6String9is_sharedEv", scope: !595, file: !596, line: 160, type: !728, scopeLine: 160, flags: DIFlagPublic | DIFlagPrototyped, spFlags: DISPFlagOptimized)
!827 = !DISubprogram(name: "is_stable", linkageName: "_ZNK6String9is_stableEv", scope: !595, file: !596, line: 161, type: !728, scopeLine: 161, flags: DIFlagPublic | DIFlagPrototyped, spFlags: DISPFlagOptimized)
!828 = !DISubprogram(name: "unique", linkageName: "_ZNK6String6uniqueEv", scope: !595, file: !596, line: 163, type: !763, scopeLine: 163, flags: DIFlagPublic | DIFlagPrototyped, spFlags: DISPFlagOptimized)
!829 = !DISubprogram(name: "unshared", linkageName: "_ZNK6String8unsharedEv", scope: !595, file: !596, line: 164, type: !763, scopeLine: 164, flags: DIFlagPublic | DIFlagPrototyped, spFlags: DISPFlagOptimized)
!830 = !DISubprogram(name: "compact", linkageName: "_ZNK6String7compactEv", scope: !595, file: !596, line: 165, type: !763, scopeLine: 165, flags: DIFlagPublic | DIFlagPrototyped, spFlags: DISPFlagOptimized)
!831 = !DISubprogram(name: "mutable_data", linkageName: "_ZN6String12mutable_dataEv", scope: !595, file: !596, line: 167, type: !832, scopeLine: 167, flags: DIFlagPublic | DIFlagPrototyped, spFlags: DISPFlagOptimized)
!832 = !DISubroutineType(types: !833)
!833 = !{!819, !632}
!834 = !DISubprogram(name: "mutable_c_str", linkageName: "_ZN6String13mutable_c_strEv", scope: !595, file: !596, line: 168, type: !832, scopeLine: 168, flags: DIFlagPublic | DIFlagPrototyped, spFlags: DISPFlagOptimized)
!835 = !DISubprogram(name: "make_out_of_memory", linkageName: "_ZN6String18make_out_of_memoryEv", scope: !595, file: !596, line: 170, type: !691, scopeLine: 170, flags: DIFlagPublic | DIFlagPrototyped | DIFlagStaticMember, spFlags: DISPFlagOptimized)
!836 = !DISubprogram(name: "out_of_memory", linkageName: "_ZNK6String13out_of_memoryEv", scope: !595, file: !596, line: 171, type: !728, scopeLine: 171, flags: DIFlagPublic | DIFlagPrototyped, spFlags: DISPFlagOptimized)
!837 = !DISubprogram(name: "out_of_memory_data", linkageName: "_ZN6String18out_of_memory_dataEv", scope: !595, file: !596, line: 172, type: !838, scopeLine: 172, flags: DIFlagPublic | DIFlagPrototyped | DIFlagStaticMember, spFlags: DISPFlagOptimized)
!838 = !DISubroutineType(types: !839)
!839 = !{!607}
!840 = !DISubprogram(name: "out_of_memory_length", linkageName: "_ZN6String20out_of_memory_lengthEv", scope: !595, file: !596, line: 173, type: !841, scopeLine: 173, flags: DIFlagPublic | DIFlagPrototyped | DIFlagStaticMember, spFlags: DISPFlagOptimized)
!841 = !DISubroutineType(types: !842)
!842 = !{!34}
!843 = !DISubprogram(name: "empty_data", linkageName: "_ZN6String10empty_dataEv", scope: !595, file: !596, line: 174, type: !838, scopeLine: 174, flags: DIFlagPublic | DIFlagPrototyped | DIFlagStaticMember, spFlags: DISPFlagOptimized)
!844 = !DISubprogram(name: "skip_utf8_char", linkageName: "_ZN6String14skip_utf8_charEPKcS1_", scope: !595, file: !596, line: 180, type: !845, scopeLine: 180, flags: DIFlagPublic | DIFlagPrototyped | DIFlagStaticMember, spFlags: DISPFlagOptimized)
!845 = !DISubroutineType(types: !846)
!846 = !{!607, !607, !607}
!847 = !DISubprogram(name: "skip_utf8_char", linkageName: "_ZN6String14skip_utf8_charEPKhS1_", scope: !595, file: !596, line: 181, type: !848, scopeLine: 181, flags: DIFlagPublic | DIFlagPrototyped | DIFlagStaticMember, spFlags: DISPFlagOptimized)
!848 = !DISubroutineType(types: !849)
!849 = !{!296, !296, !296}
!850 = !DISubprogram(name: "assign_memo", linkageName: "_ZNK6String11assign_memoEPKciPNS_6memo_tE", scope: !595, file: !596, line: 256, type: !851, scopeLine: 256, flags: DIFlagPrototyped, spFlags: DISPFlagOptimized)
!851 = !DISubroutineType(types: !852)
!852 = !{null, !717, !607, !34, !610}
!853 = !DISubprogram(name: "String", scope: !595, file: !596, line: 263, type: !854, scopeLine: 263, flags: DIFlagPrototyped, spFlags: DISPFlagOptimized)
!854 = !DISubroutineType(types: !855)
!855 = !{null, !632, !607, !34, !610}
!856 = !DISubprogram(name: "assign", linkageName: "_ZNK6String6assignERKS_", scope: !595, file: !596, line: 267, type: !857, scopeLine: 267, flags: DIFlagPrototyped, spFlags: DISPFlagOptimized)
!857 = !DISubroutineType(types: !858)
!858 = !{null, !717, !636}
!859 = !DISubprogram(name: "deref", linkageName: "_ZNK6String5derefEv", scope: !595, file: !596, line: 271, type: !860, scopeLine: 271, flags: DIFlagPrototyped, spFlags: DISPFlagOptimized)
!860 = !DISubroutineType(types: !861)
!861 = !{null, !717}
!862 = !DISubprogram(name: "assign", linkageName: "_ZN6String6assignEPKcib", scope: !595, file: !596, line: 280, type: !863, scopeLine: 280, flags: DIFlagPrototyped, spFlags: DISPFlagOptimized)
!863 = !DISubroutineType(types: !864)
!864 = !{null, !632, !607, !34, !53}
!865 = !DISubprogram(name: "assign_out_of_memory", linkageName: "_ZN6String20assign_out_of_memoryEv", scope: !595, file: !596, line: 281, type: !630, scopeLine: 281, flags: DIFlagPrototyped, spFlags: DISPFlagOptimized)
!866 = !DISubprogram(name: "append", linkageName: "_ZN6String6appendEPKciPNS_6memo_tE", scope: !595, file: !596, line: 282, type: !854, scopeLine: 282, flags: DIFlagPrototyped, spFlags: DISPFlagOptimized)
!867 = !DISubprogram(name: "hard_make_stable", linkageName: "_ZN6String16hard_make_stableEPKci", scope: !595, file: !596, line: 283, type: !701, scopeLine: 283, flags: DIFlagPrototyped | DIFlagStaticMember, spFlags: DISPFlagOptimized)
!868 = !DISubprogram(name: "absent_memo", linkageName: "_ZN6String11absent_memoEv", scope: !595, file: !596, line: 284, type: !869, scopeLine: 284, flags: DIFlagPrototyped | DIFlagStaticMember, spFlags: DISPFlagOptimized)
!869 = !DISubroutineType(types: !870)
!870 = !{!610}
!871 = !DISubprogram(name: "create_memo", linkageName: "_ZN6String11create_memoEPcii", scope: !595, file: !596, line: 287, type: !872, scopeLine: 287, flags: DIFlagPrototyped | DIFlagStaticMember, spFlags: DISPFlagOptimized)
!872 = !DISubroutineType(types: !873)
!873 = !{!610, !819, !34, !34}
!874 = !DISubprogram(name: "delete_memo", linkageName: "_ZN6String11delete_memoEPNS_6memo_tE", scope: !595, file: !596, line: 288, type: !875, scopeLine: 288, flags: DIFlagPrototyped | DIFlagStaticMember, spFlags: DISPFlagOptimized)
!875 = !DISubroutineType(types: !876)
!876 = !{null, !610}
!877 = !DISubprogram(name: "hard_c_str", linkageName: "_ZNK6String10hard_c_strEv", scope: !595, file: !596, line: 289, type: !715, scopeLine: 289, flags: DIFlagPrototyped, spFlags: DISPFlagOptimized)
!878 = !DISubprogram(name: "hard_equals", linkageName: "_ZNK6String11hard_equalsEPKci", scope: !595, file: !596, line: 290, type: !769, scopeLine: 290, flags: DIFlagPrototyped, spFlags: DISPFlagOptimized)
!879 = !DISubprogram(name: "make_claim", linkageName: "_ZN6String10make_claimEPcii", scope: !595, file: !596, line: 299, type: !880, scopeLine: 299, flags: DIFlagPrototyped | DIFlagStaticMember, spFlags: DISPFlagOptimized)
!880 = !DISubroutineType(types: !881)
!881 = !{!595, !819, !34, !34}
!882 = !DISubprogram(name: "unparse_interval", linkageName: "_ZNK9Timestamp16unparse_intervalEv", scope: !427, file: !428, line: 501, type: !593, scopeLine: 501, flags: DIFlagPublic | DIFlagPrototyped, spFlags: DISPFlagOptimized)
!883 = !DISubprogram(name: "msec_to_subsec", linkageName: "_ZN9Timestamp14msec_to_subsecEj", scope: !427, file: !428, line: 510, type: !884, scopeLine: 510, flags: DIFlagPublic | DIFlagPrototyped | DIFlagStaticMember, spFlags: DISPFlagOptimized)
!884 = !DISubroutineType(types: !885)
!885 = !{!12, !12}
!886 = !DISubprogram(name: "usec_to_subsec", linkageName: "_ZN9Timestamp14usec_to_subsecEj", scope: !427, file: !428, line: 514, type: !884, scopeLine: 514, flags: DIFlagPublic | DIFlagPrototyped | DIFlagStaticMember, spFlags: DISPFlagOptimized)
!887 = !DISubprogram(name: "nsec_to_subsec", linkageName: "_ZN9Timestamp14nsec_to_subsecEj", scope: !427, file: !428, line: 518, type: !884, scopeLine: 518, flags: DIFlagPublic | DIFlagPrototyped | DIFlagStaticMember, spFlags: DISPFlagOptimized)
!888 = !DISubprogram(name: "subsec_to_msec", linkageName: "_ZN9Timestamp14subsec_to_msecEj", scope: !427, file: !428, line: 522, type: !884, scopeLine: 522, flags: DIFlagPublic | DIFlagPrototyped | DIFlagStaticMember, spFlags: DISPFlagOptimized)
!889 = !DISubprogram(name: "subsec_to_usec", linkageName: "_ZN9Timestamp14subsec_to_usecEj", scope: !427, file: !428, line: 526, type: !884, scopeLine: 526, flags: DIFlagPublic | DIFlagPrototyped | DIFlagStaticMember, spFlags: DISPFlagOptimized)
!890 = !DISubprogram(name: "subsec_to_nsec", linkageName: "_ZN9Timestamp14subsec_to_nsecEj", scope: !427, file: !428, line: 530, type: !884, scopeLine: 530, flags: DIFlagPublic | DIFlagPrototyped | DIFlagStaticMember, spFlags: DISPFlagOptimized)
!891 = !DISubprogram(name: "warp_class", linkageName: "_ZN9Timestamp10warp_classEv", scope: !427, file: !428, line: 581, type: !841, scopeLine: 581, flags: DIFlagPublic | DIFlagPrototyped | DIFlagStaticMember, spFlags: DISPFlagOptimized)
!892 = !DISubprogram(name: "warp_speed", linkageName: "_ZN9Timestamp10warp_speedEv", scope: !427, file: !428, line: 588, type: !893, scopeLine: 588, flags: DIFlagPublic | DIFlagPrototyped | DIFlagStaticMember, spFlags: DISPFlagOptimized)
!893 = !DISubroutineType(types: !894)
!894 = !{!456}
!895 = !DISubprogram(name: "warp_set_class", linkageName: "_ZN9Timestamp14warp_set_classENS_15warp_class_typeEd", scope: !427, file: !428, line: 621, type: !896, scopeLine: 621, flags: DIFlagPublic | DIFlagPrototyped | DIFlagStaticMember, spFlags: DISPFlagOptimized)
!896 = !DISubroutineType(types: !897)
!897 = !{null, !898, !456}
!898 = !DICompositeType(tag: DW_TAG_enumeration_type, name: "warp_class_type", scope: !427, file: !428, line: 571, baseType: !16, size: 32, elements: !899, identifier: "_ZTSN9Timestamp15warp_class_typeE")
!899 = !{!900, !901, !902, !903}
!900 = !DIEnumerator(name: "warp_none", value: 0, isUnsigned: true)
!901 = !DIEnumerator(name: "warp_linear", value: 1, isUnsigned: true)
!902 = !DIEnumerator(name: "warp_nowait", value: 2, isUnsigned: true)
!903 = !DIEnumerator(name: "warp_simulation", value: 3, isUnsigned: true)
!904 = !DISubprogram(name: "warp_set_now", linkageName: "_ZN9Timestamp12warp_set_nowERKS_S1_", scope: !427, file: !428, line: 628, type: !905, scopeLine: 628, flags: DIFlagPublic | DIFlagPrototyped | DIFlagStaticMember, spFlags: DISPFlagOptimized)
!905 = !DISubroutineType(types: !906)
!906 = !{null, !425, !425}
!907 = !DISubprogram(name: "warp_real_delay", linkageName: "_ZNK9Timestamp15warp_real_delayEv", scope: !427, file: !428, line: 632, type: !539, scopeLine: 632, flags: DIFlagPublic | DIFlagPrototyped, spFlags: DISPFlagOptimized)
!908 = !DISubprogram(name: "warp_jumping", linkageName: "_ZN9Timestamp12warp_jumpingEv", scope: !427, file: !428, line: 635, type: !909, scopeLine: 635, flags: DIFlagPublic | DIFlagPrototyped | DIFlagStaticMember, spFlags: DISPFlagOptimized)
!909 = !DISubroutineType(types: !910)
!910 = !{!53}
!911 = !DISubprogram(name: "warp_jump_steady", linkageName: "_ZN9Timestamp16warp_jump_steadyERKS_", scope: !427, file: !428, line: 640, type: !912, scopeLine: 640, flags: DIFlagPublic | DIFlagPrototyped | DIFlagStaticMember, spFlags: DISPFlagOptimized)
!912 = !DISubroutineType(types: !913)
!913 = !{null, !425}
!914 = !DISubprogram(name: "now_unwarped", linkageName: "_ZN9Timestamp12now_unwarpedEv", scope: !427, file: !428, line: 647, type: !569, scopeLine: 647, flags: DIFlagPublic | DIFlagPrototyped | DIFlagStaticMember, spFlags: DISPFlagOptimized)
!915 = !DISubprogram(name: "assign_now_unwarped", linkageName: "_ZN9Timestamp19assign_now_unwarpedEv", scope: !427, file: !428, line: 653, type: !438, scopeLine: 653, flags: DIFlagPublic | DIFlagPrototyped, spFlags: DISPFlagOptimized)
!916 = !DISubprogram(name: "now_steady_unwarped", linkageName: "_ZN9Timestamp19now_steady_unwarpedEv", scope: !427, file: !428, line: 659, type: !569, scopeLine: 659, flags: DIFlagPublic | DIFlagPrototyped | DIFlagStaticMember, spFlags: DISPFlagOptimized)
!917 = !DISubprogram(name: "assign_now_steady_unwarped", linkageName: "_ZN9Timestamp26assign_now_steady_unwarpedEv", scope: !427, file: !428, line: 666, type: !438, scopeLine: 666, flags: DIFlagPublic | DIFlagPrototyped, spFlags: DISPFlagOptimized)
!918 = !DISubprogram(name: "add_fix", linkageName: "_ZN9Timestamp7add_fixEv", scope: !427, file: !428, line: 674, type: !438, scopeLine: 674, flags: DIFlagPrototyped, spFlags: DISPFlagOptimized)
!919 = !DISubprogram(name: "sub_fix", linkageName: "_ZN9Timestamp7sub_fixEv", scope: !427, file: !428, line: 686, type: !438, scopeLine: 686, flags: DIFlagPrototyped, spFlags: DISPFlagOptimized)
!920 = !DISubprogram(name: "value_div", linkageName: "_ZN9Timestamp9value_divElj", scope: !427, file: !428, line: 698, type: !921, scopeLine: 698, flags: DIFlagPrototyped | DIFlagStaticMember, spFlags: DISPFlagOptimized)
!921 = !DISubroutineType(types: !922)
!922 = !{!535, !535, !12}
!923 = !DISubprogram(name: "value_div_mod", linkageName: "_ZN9Timestamp13value_div_modERiS0_lj", scope: !427, file: !428, line: 702, type: !924, scopeLine: 702, flags: DIFlagPrototyped | DIFlagStaticMember, spFlags: DISPFlagOptimized)
!924 = !DISubroutineType(types: !925)
!925 = !{null, !926, !926, !535, !12}
!926 = !DIDerivedType(tag: DW_TAG_reference_type, baseType: !31, size: 64)
!927 = !DISubprogram(name: "assign_now", linkageName: "_ZN9Timestamp10assign_nowEbbb", scope: !427, file: !428, line: 709, type: !928, scopeLine: 709, flags: DIFlagPrototyped, spFlags: DISPFlagOptimized)
!928 = !DISubroutineType(types: !929)
!929 = !{null, !440, !53, !53, !53}
!930 = !DISubprogram(name: "warp_adjust", linkageName: "_ZN9Timestamp11warp_adjustEbRKS_S1_", scope: !427, file: !428, line: 712, type: !931, scopeLine: 712, flags: DIFlagPrototyped | DIFlagStaticMember, spFlags: DISPFlagOptimized)
!931 = !DISubroutineType(types: !932)
!932 = !{null, !53, !425, !425}
!933 = !DISubprogram(name: "warped", linkageName: "_ZNK9Timestamp6warpedEb", scope: !427, file: !428, line: 713, type: !934, scopeLine: 713, flags: DIFlagPrototyped, spFlags: DISPFlagOptimized)
!934 = !DISubroutineType(types: !935)
!935 = !{!427, !502, !53}
!936 = !DISubprogram(name: "warp", linkageName: "_ZN9Timestamp4warpEbb", scope: !427, file: !428, line: 714, type: !937, scopeLine: 714, flags: DIFlagPrototyped, spFlags: DISPFlagOptimized)
!937 = !DISubroutineType(types: !938)
!938 = !{null, !440, !53, !53}
!939 = !DISubprogram(name: "timestamp_anno", linkageName: "_ZN6Packet14timestamp_annoEv", scope: !5, file: !4, line: 356, type: !940, scopeLine: 356, flags: DIFlagPublic | DIFlagPrototyped, spFlags: DISPFlagOptimized)
!940 = !DISubroutineType(types: !941)
!941 = !{!942, !282}
!942 = !DIDerivedType(tag: DW_TAG_reference_type, baseType: !427, size: 64)
!943 = !DISubprogram(name: "set_timestamp_anno", linkageName: "_ZN6Packet18set_timestamp_annoERK9Timestamp", scope: !5, file: !4, line: 359, type: !944, scopeLine: 359, flags: DIFlagPublic | DIFlagPrototyped, spFlags: DISPFlagOptimized)
!944 = !DISubroutineType(types: !945)
!945 = !{null, !282, !425}
!946 = !DISubprogram(name: "device_anno", linkageName: "_ZNK6Packet11device_annoEv", scope: !5, file: !4, line: 362, type: !947, scopeLine: 362, flags: DIFlagPublic | DIFlagPrototyped, spFlags: DISPFlagOptimized)
!947 = !DISubroutineType(types: !948)
!948 = !{!949, !286}
!949 = !DIDerivedType(tag: DW_TAG_pointer_type, baseType: !950, size: 64)
!950 = !DIDerivedType(tag: DW_TAG_typedef, name: "net_device", file: !547, line: 326, baseType: !951)
!951 = !DICompositeType(tag: DW_TAG_structure_type, name: "device", file: !547, line: 326, flags: DIFlagFwdDecl, identifier: "_ZTS6device")
!952 = !DISubprogram(name: "set_device_anno", linkageName: "_ZN6Packet15set_device_annoEP6device", scope: !5, file: !4, line: 364, type: !953, scopeLine: 364, flags: DIFlagPublic | DIFlagPrototyped, spFlags: DISPFlagOptimized)
!953 = !DISubroutineType(types: !954)
!954 = !{null, !282, !949}
!955 = !DISubprogram(name: "packet_type_anno", linkageName: "_ZNK6Packet16packet_type_annoEv", scope: !5, file: !4, line: 383, type: !956, scopeLine: 383, flags: DIFlagPublic | DIFlagPrototyped, spFlags: DISPFlagOptimized)
!956 = !DISubroutineType(types: !957)
!957 = !{!3, !286}
!958 = !DISubprogram(name: "set_packet_type_anno", linkageName: "_ZN6Packet20set_packet_type_annoENS_10PacketTypeE", scope: !5, file: !4, line: 385, type: !959, scopeLine: 385, flags: DIFlagPublic | DIFlagPrototyped, spFlags: DISPFlagOptimized)
!959 = !DISubroutineType(types: !960)
!960 = !{null, !282, !3}
!961 = !DISubprogram(name: "next", linkageName: "_ZNK6Packet4nextEv", scope: !5, file: !4, line: 410, type: !962, scopeLine: 410, flags: DIFlagPublic | DIFlagPrototyped, spFlags: DISPFlagOptimized)
!962 = !DISubroutineType(types: !963)
!963 = !{!78, !286}
!964 = !DISubprogram(name: "next", linkageName: "_ZN6Packet4nextEv", scope: !5, file: !4, line: 412, type: !965, scopeLine: 412, flags: DIFlagPublic | DIFlagPrototyped, spFlags: DISPFlagOptimized)
!965 = !DISubroutineType(types: !966)
!966 = !{!967, !282}
!967 = !DIDerivedType(tag: DW_TAG_reference_type, baseType: !78, size: 64)
!968 = !DISubprogram(name: "set_next", linkageName: "_ZN6Packet8set_nextEPS_", scope: !5, file: !4, line: 414, type: !969, scopeLine: 414, flags: DIFlagPublic | DIFlagPrototyped, spFlags: DISPFlagOptimized)
!969 = !DISubroutineType(types: !970)
!970 = !{null, !282, !78}
!971 = !DISubprogram(name: "prev", linkageName: "_ZNK6Packet4prevEv", scope: !5, file: !4, line: 417, type: !962, scopeLine: 417, flags: DIFlagPublic | DIFlagPrototyped, spFlags: DISPFlagOptimized)
!972 = !DISubprogram(name: "prev", linkageName: "_ZN6Packet4prevEv", scope: !5, file: !4, line: 419, type: !965, scopeLine: 419, flags: DIFlagPublic | DIFlagPrototyped, spFlags: DISPFlagOptimized)
!973 = !DISubprogram(name: "set_prev", linkageName: "_ZN6Packet8set_prevEPS_", scope: !5, file: !4, line: 421, type: !969, scopeLine: 421, flags: DIFlagPublic | DIFlagPrototyped, spFlags: DISPFlagOptimized)
!974 = !DISubprogram(name: "dst_ip_anno", linkageName: "_ZNK6Packet11dst_ip_annoEv", scope: !5, file: !4, line: 431, type: !975, scopeLine: 431, flags: DIFlagPublic | DIFlagPrototyped, spFlags: DISPFlagOptimized)
!975 = !DISubroutineType(types: !976)
!976 = !{!977, !286}
!977 = distinct !DICompositeType(tag: DW_TAG_class_type, name: "IPAddress", file: !978, line: 15, size: 32, flags: DIFlagTypePassByValue | DIFlagNonTrivial, elements: !979, identifier: "_ZTS9IPAddress")
!978 = !DIFile(filename: "../dummy_inc/click/ipaddress.hh", directory: "/home/john/projects/click/ir-dir")
!979 = !{!980, !981, !985, !988, !991, !994, !997, !1000, !1003, !1006, !1011, !1014, !1017, !1022, !1025, !1026, !1027, !1028, !1031, !1032, !1035, !1038, !1039, !1042, !1045, !1048, !1049, !1053, !1054, !1055, !1058, !1059, !1062, !1063}
!980 = !DIDerivedType(tag: DW_TAG_member, name: "_addr", scope: !977, file: !978, line: 152, baseType: !12, size: 32)
!981 = !DISubprogram(name: "IPAddress", scope: !977, file: !978, line: 20, type: !982, scopeLine: 20, flags: DIFlagPublic | DIFlagPrototyped, spFlags: DISPFlagOptimized)
!982 = !DISubroutineType(types: !983)
!983 = !{null, !984}
!984 = !DIDerivedType(tag: DW_TAG_pointer_type, baseType: !977, size: 64, flags: DIFlagArtificial | DIFlagObjectPointer)
!985 = !DISubprogram(name: "IPAddress", scope: !977, file: !978, line: 25, type: !986, scopeLine: 25, flags: DIFlagPublic | DIFlagPrototyped, spFlags: DISPFlagOptimized)
!986 = !DISubroutineType(types: !987)
!987 = !{null, !984, !16}
!988 = !DISubprogram(name: "IPAddress", scope: !977, file: !978, line: 29, type: !989, scopeLine: 29, flags: DIFlagPublic | DIFlagExplicit | DIFlagPrototyped, spFlags: DISPFlagOptimized)
!989 = !DISubroutineType(types: !990)
!990 = !{null, !984, !34}
!991 = !DISubprogram(name: "IPAddress", scope: !977, file: !978, line: 33, type: !992, scopeLine: 33, flags: DIFlagPublic | DIFlagExplicit | DIFlagPrototyped, spFlags: DISPFlagOptimized)
!992 = !DISubroutineType(types: !993)
!993 = !{null, !984, !115}
!994 = !DISubprogram(name: "IPAddress", scope: !977, file: !978, line: 37, type: !995, scopeLine: 37, flags: DIFlagPublic | DIFlagExplicit | DIFlagPrototyped, spFlags: DISPFlagOptimized)
!995 = !DISubroutineType(types: !996)
!996 = !{null, !984, !436}
!997 = !DISubprogram(name: "IPAddress", scope: !977, file: !978, line: 42, type: !998, scopeLine: 42, flags: DIFlagPublic | DIFlagPrototyped, spFlags: DISPFlagOptimized)
!998 = !DISubroutineType(types: !999)
!999 = !{null, !984, !182}
!1000 = !DISubprogram(name: "IPAddress", scope: !977, file: !978, line: 50, type: !1001, scopeLine: 50, flags: DIFlagPublic | DIFlagExplicit | DIFlagPrototyped, spFlags: DISPFlagOptimized)
!1001 = !DISubroutineType(types: !1002)
!1002 = !{null, !984, !296}
!1003 = !DISubprogram(name: "IPAddress", scope: !977, file: !978, line: 63, type: !1004, scopeLine: 63, flags: DIFlagPublic | DIFlagExplicit | DIFlagPrototyped, spFlags: DISPFlagOptimized)
!1004 = !DISubroutineType(types: !1005)
!1005 = !{null, !984, !636}
!1006 = !DISubprogram(name: "IPAddress", scope: !977, file: !978, line: 66, type: !1007, scopeLine: 66, flags: DIFlagPublic | DIFlagPrototyped, spFlags: DISPFlagOptimized)
!1007 = !DISubroutineType(types: !1008)
!1008 = !{null, !984, !1009}
!1009 = !DIDerivedType(tag: DW_TAG_reference_type, baseType: !1010, size: 64)
!1010 = !DIDerivedType(tag: DW_TAG_const_type, baseType: !491)
!1011 = !DISubprogram(name: "make_prefix", linkageName: "_ZN9IPAddress11make_prefixEi", scope: !977, file: !978, line: 78, type: !1012, scopeLine: 78, flags: DIFlagPublic | DIFlagPrototyped | DIFlagStaticMember, spFlags: DISPFlagOptimized)
!1012 = !DISubroutineType(types: !1013)
!1013 = !{!977, !34}
!1014 = !DISubprogram(name: "make_broadcast", linkageName: "_ZN9IPAddress14make_broadcastEv", scope: !977, file: !978, line: 81, type: !1015, scopeLine: 81, flags: DIFlagPublic | DIFlagPrototyped | DIFlagStaticMember, spFlags: DISPFlagOptimized)
!1015 = !DISubroutineType(types: !1016)
!1016 = !{!977}
!1017 = !DISubprogram(name: "empty", linkageName: "_ZNK9IPAddress5emptyEv", scope: !977, file: !978, line: 86, type: !1018, scopeLine: 86, flags: DIFlagPublic | DIFlagPrototyped, spFlags: DISPFlagOptimized)
!1018 = !DISubroutineType(types: !1019)
!1019 = !{!53, !1020}
!1020 = !DIDerivedType(tag: DW_TAG_pointer_type, baseType: !1021, size: 64, flags: DIFlagArtificial | DIFlagObjectPointer)
!1021 = !DIDerivedType(tag: DW_TAG_const_type, baseType: !977)
!1022 = !DISubprogram(name: "addr", linkageName: "_ZNK9IPAddress4addrEv", scope: !977, file: !978, line: 91, type: !1023, scopeLine: 91, flags: DIFlagPublic | DIFlagPrototyped, spFlags: DISPFlagOptimized)
!1023 = !DISubroutineType(types: !1024)
!1024 = !{!12, !1020}
!1025 = !DISubprogram(name: "operator unsigned int", linkageName: "_ZNK9IPAddresscvjEv", scope: !977, file: !978, line: 99, type: !1023, scopeLine: 99, flags: DIFlagPublic | DIFlagPrototyped, spFlags: DISPFlagOptimized)
!1026 = !DISubprogram(name: "is_multicast", linkageName: "_ZNK9IPAddress12is_multicastEv", scope: !977, file: !978, line: 106, type: !1018, scopeLine: 106, flags: DIFlagPublic | DIFlagPrototyped, spFlags: DISPFlagOptimized)
!1027 = !DISubprogram(name: "is_link_local", linkageName: "_ZNK9IPAddress13is_link_localEv", scope: !977, file: !978, line: 110, type: !1018, scopeLine: 110, flags: DIFlagPublic | DIFlagPrototyped, spFlags: DISPFlagOptimized)
!1028 = !DISubprogram(name: "in_addr", linkageName: "_ZNK9IPAddress7in_addrEv", scope: !977, file: !978, line: 114, type: !1029, scopeLine: 114, flags: DIFlagPublic | DIFlagPrototyped, spFlags: DISPFlagOptimized)
!1029 = !DISubroutineType(types: !1030)
!1030 = !{!182, !1020}
!1031 = !DISubprogram(name: "operator in_addr", linkageName: "_ZNK9IPAddresscv7in_addrEv", scope: !977, file: !978, line: 115, type: !1029, scopeLine: 115, flags: DIFlagPublic | DIFlagPrototyped, spFlags: DISPFlagOptimized)
!1032 = !DISubprogram(name: "data", linkageName: "_ZN9IPAddress4dataEv", scope: !977, file: !978, line: 117, type: !1033, scopeLine: 117, flags: DIFlagPublic | DIFlagPrototyped, spFlags: DISPFlagOptimized)
!1033 = !DISubroutineType(types: !1034)
!1034 = !{!80, !984}
!1035 = !DISubprogram(name: "data", linkageName: "_ZNK9IPAddress4dataEv", scope: !977, file: !978, line: 118, type: !1036, scopeLine: 118, flags: DIFlagPublic | DIFlagPrototyped, spFlags: DISPFlagOptimized)
!1036 = !DISubroutineType(types: !1037)
!1037 = !{!296, !1020}
!1038 = !DISubprogram(name: "hashcode", linkageName: "_ZNK9IPAddress8hashcodeEv", scope: !977, file: !978, line: 120, type: !1023, scopeLine: 120, flags: DIFlagPublic | DIFlagPrototyped, spFlags: DISPFlagOptimized)
!1039 = !DISubprogram(name: "mask_to_prefix_len", linkageName: "_ZNK9IPAddress18mask_to_prefix_lenEv", scope: !977, file: !978, line: 122, type: !1040, scopeLine: 122, flags: DIFlagPublic | DIFlagPrototyped, spFlags: DISPFlagOptimized)
!1040 = !DISubroutineType(types: !1041)
!1041 = !{!34, !1020}
!1042 = !DISubprogram(name: "matches_prefix", linkageName: "_ZNK9IPAddress14matches_prefixES_S_", scope: !977, file: !978, line: 123, type: !1043, scopeLine: 123, flags: DIFlagPublic | DIFlagPrototyped, spFlags: DISPFlagOptimized)
!1043 = !DISubroutineType(types: !1044)
!1044 = !{!53, !1020, !977, !977}
!1045 = !DISubprogram(name: "mask_as_specific", linkageName: "_ZNK9IPAddress16mask_as_specificES_", scope: !977, file: !978, line: 124, type: !1046, scopeLine: 124, flags: DIFlagPublic | DIFlagPrototyped, spFlags: DISPFlagOptimized)
!1046 = !DISubroutineType(types: !1047)
!1047 = !{!53, !1020, !977}
!1048 = !DISubprogram(name: "mask_more_specific", linkageName: "_ZNK9IPAddress18mask_more_specificES_", scope: !977, file: !978, line: 125, type: !1046, scopeLine: 125, flags: DIFlagPublic | DIFlagPrototyped, spFlags: DISPFlagOptimized)
!1049 = !DISubprogram(name: "operator&=", linkageName: "_ZN9IPAddressaNES_", scope: !977, file: !978, line: 137, type: !1050, scopeLine: 137, flags: DIFlagPublic | DIFlagPrototyped, spFlags: DISPFlagOptimized)
!1050 = !DISubroutineType(types: !1051)
!1051 = !{!1052, !984, !977}
!1052 = !DIDerivedType(tag: DW_TAG_reference_type, baseType: !977, size: 64)
!1053 = !DISubprogram(name: "operator|=", linkageName: "_ZN9IPAddressoRES_", scope: !977, file: !978, line: 138, type: !1050, scopeLine: 138, flags: DIFlagPublic | DIFlagPrototyped, spFlags: DISPFlagOptimized)
!1054 = !DISubprogram(name: "operator^=", linkageName: "_ZN9IPAddresseOES_", scope: !977, file: !978, line: 139, type: !1050, scopeLine: 139, flags: DIFlagPublic | DIFlagPrototyped, spFlags: DISPFlagOptimized)
!1055 = !DISubprogram(name: "unparse", linkageName: "_ZNK9IPAddress7unparseEv", scope: !977, file: !978, line: 141, type: !1056, scopeLine: 141, flags: DIFlagPublic | DIFlagPrototyped, spFlags: DISPFlagOptimized)
!1056 = !DISubroutineType(types: !1057)
!1057 = !{!595, !1020}
!1058 = !DISubprogram(name: "unparse_mask", linkageName: "_ZNK9IPAddress12unparse_maskEv", scope: !977, file: !978, line: 142, type: !1056, scopeLine: 142, flags: DIFlagPublic | DIFlagPrototyped, spFlags: DISPFlagOptimized)
!1059 = !DISubprogram(name: "unparse_with_mask", linkageName: "_ZNK9IPAddress17unparse_with_maskES_", scope: !977, file: !978, line: 143, type: !1060, scopeLine: 143, flags: DIFlagPublic | DIFlagPrototyped, spFlags: DISPFlagOptimized)
!1060 = !DISubroutineType(types: !1061)
!1061 = !{!595, !1020, !977}
!1062 = !DISubprogram(name: "s", linkageName: "_ZNK9IPAddress1sEv", scope: !977, file: !978, line: 145, type: !1056, scopeLine: 145, flags: DIFlagPublic | DIFlagPrototyped, spFlags: DISPFlagOptimized)
!1063 = !DISubprogram(name: "operator String", linkageName: "_ZNK9IPAddresscv6StringEv", scope: !977, file: !978, line: 146, type: !1056, scopeLine: 146, flags: DIFlagPublic | DIFlagPrototyped, spFlags: DISPFlagOptimized)
!1064 = !DISubprogram(name: "set_dst_ip_anno", linkageName: "_ZN6Packet15set_dst_ip_annoE9IPAddress", scope: !5, file: !4, line: 436, type: !1065, scopeLine: 436, flags: DIFlagPublic | DIFlagPrototyped, spFlags: DISPFlagOptimized)
!1065 = !DISubroutineType(types: !1066)
!1066 = !{null, !282, !977}
!1067 = !DISubprogram(name: "anno", linkageName: "_ZN6Packet4annoEv", scope: !5, file: !4, line: 441, type: !314, scopeLine: 441, flags: DIFlagPublic | DIFlagPrototyped, spFlags: DISPFlagOptimized)
!1068 = !DISubprogram(name: "anno", linkageName: "_ZNK6Packet4annoEv", scope: !5, file: !4, line: 444, type: !1069, scopeLine: 444, flags: DIFlagPublic | DIFlagPrototyped, spFlags: DISPFlagOptimized)
!1069 = !DISubroutineType(types: !1070)
!1070 = !{!265, !286}
!1071 = !DISubprogram(name: "anno_u8", linkageName: "_ZN6Packet7anno_u8Ev", scope: !5, file: !4, line: 447, type: !1072, scopeLine: 447, flags: DIFlagPublic | DIFlagPrototyped, spFlags: DISPFlagOptimized)
!1072 = !DISubroutineType(types: !1073)
!1073 = !{!1074, !282}
!1074 = !DIDerivedType(tag: DW_TAG_pointer_type, baseType: !98, size: 64)
!1075 = !DISubprogram(name: "anno_u8", linkageName: "_ZNK6Packet7anno_u8Ev", scope: !5, file: !4, line: 450, type: !1076, scopeLine: 450, flags: DIFlagPublic | DIFlagPrototyped, spFlags: DISPFlagOptimized)
!1076 = !DISubroutineType(types: !1077)
!1077 = !{!1078, !286}
!1078 = !DIDerivedType(tag: DW_TAG_pointer_type, baseType: !1079, size: 64)
!1079 = !DIDerivedType(tag: DW_TAG_const_type, baseType: !98)
!1080 = !DISubprogram(name: "anno_u32", linkageName: "_ZN6Packet8anno_u32Ev", scope: !5, file: !4, line: 453, type: !1081, scopeLine: 453, flags: DIFlagPublic | DIFlagPrototyped, spFlags: DISPFlagOptimized)
!1081 = !DISubroutineType(types: !1082)
!1082 = !{!1083, !282}
!1083 = !DIDerivedType(tag: DW_TAG_pointer_type, baseType: !12, size: 64)
!1084 = !DISubprogram(name: "anno_u32", linkageName: "_ZNK6Packet8anno_u32Ev", scope: !5, file: !4, line: 456, type: !1085, scopeLine: 456, flags: DIFlagPublic | DIFlagPrototyped, spFlags: DISPFlagOptimized)
!1085 = !DISubroutineType(types: !1086)
!1086 = !{!1087, !286}
!1087 = !DIDerivedType(tag: DW_TAG_pointer_type, baseType: !1088, size: 64)
!1088 = !DIDerivedType(tag: DW_TAG_const_type, baseType: !12)
!1089 = !DISubprogram(name: "anno_u8", linkageName: "_ZNK6Packet7anno_u8Ei", scope: !5, file: !4, line: 460, type: !1090, scopeLine: 460, flags: DIFlagPublic | DIFlagPrototyped, spFlags: DISPFlagOptimized)
!1090 = !DISubroutineType(types: !1091)
!1091 = !{!98, !286, !34}
!1092 = !DISubprogram(name: "set_anno_u8", linkageName: "_ZN6Packet11set_anno_u8Eih", scope: !5, file: !4, line: 469, type: !1093, scopeLine: 469, flags: DIFlagPublic | DIFlagPrototyped, spFlags: DISPFlagOptimized)
!1093 = !DISubroutineType(types: !1094)
!1094 = !{null, !282, !34, !98}
!1095 = !DISubprogram(name: "anno_u16", linkageName: "_ZNK6Packet8anno_u16Ei", scope: !5, file: !4, line: 479, type: !1096, scopeLine: 479, flags: DIFlagPublic | DIFlagPrototyped, spFlags: DISPFlagOptimized)
!1096 = !DISubroutineType(types: !1097)
!1097 = !{!102, !286, !34}
!1098 = !DISubprogram(name: "set_anno_u16", linkageName: "_ZN6Packet12set_anno_u16Eit", scope: !5, file: !4, line: 494, type: !1099, scopeLine: 494, flags: DIFlagPublic | DIFlagPrototyped, spFlags: DISPFlagOptimized)
!1099 = !DISubroutineType(types: !1100)
!1100 = !{null, !282, !34, !102}
!1101 = !DISubprogram(name: "anno_s16", linkageName: "_ZNK6Packet8anno_s16Ei", scope: !5, file: !4, line: 507, type: !1102, scopeLine: 507, flags: DIFlagPublic | DIFlagPrototyped, spFlags: DISPFlagOptimized)
!1102 = !DISubroutineType(types: !1103)
!1103 = !{!1104, !286, !34}
!1104 = !DIDerivedType(tag: DW_TAG_typedef, name: "int16_t", file: !32, line: 25, baseType: !1105)
!1105 = !DIDerivedType(tag: DW_TAG_typedef, name: "__int16_t", file: !15, line: 39, baseType: !1106)
!1106 = !DIBasicType(name: "short", size: 16, encoding: DW_ATE_signed)
!1107 = !DISubprogram(name: "set_anno_s16", linkageName: "_ZN6Packet12set_anno_s16Eis", scope: !5, file: !4, line: 522, type: !1108, scopeLine: 522, flags: DIFlagPublic | DIFlagPrototyped, spFlags: DISPFlagOptimized)
!1108 = !DISubroutineType(types: !1109)
!1109 = !{null, !282, !34, !1104}
!1110 = !DISubprogram(name: "anno_u32", linkageName: "_ZNK6Packet8anno_u32Ei", scope: !5, file: !4, line: 535, type: !1111, scopeLine: 535, flags: DIFlagPublic | DIFlagPrototyped, spFlags: DISPFlagOptimized)
!1111 = !DISubroutineType(types: !1112)
!1112 = !{!12, !286, !34}
!1113 = !DISubprogram(name: "set_anno_u32", linkageName: "_ZN6Packet12set_anno_u32Eij", scope: !5, file: !4, line: 550, type: !1114, scopeLine: 550, flags: DIFlagPublic | DIFlagPrototyped, spFlags: DISPFlagOptimized)
!1114 = !DISubroutineType(types: !1115)
!1115 = !{null, !282, !34, !12}
!1116 = !DISubprogram(name: "anno_s32", linkageName: "_ZNK6Packet8anno_s32Ei", scope: !5, file: !4, line: 556, type: !1117, scopeLine: 556, flags: DIFlagPublic | DIFlagPrototyped, spFlags: DISPFlagOptimized)
!1117 = !DISubroutineType(types: !1118)
!1118 = !{!31, !286, !34}
!1119 = !DISubprogram(name: "set_anno_s32", linkageName: "_ZN6Packet12set_anno_s32Eii", scope: !5, file: !4, line: 571, type: !1120, scopeLine: 571, flags: DIFlagPublic | DIFlagPrototyped, spFlags: DISPFlagOptimized)
!1120 = !DISubroutineType(types: !1121)
!1121 = !{null, !282, !34, !31}
!1122 = !DISubprogram(name: "anno_u64", linkageName: "_ZNK6Packet8anno_u64Ei", scope: !5, file: !4, line: 585, type: !1123, scopeLine: 585, flags: DIFlagPublic | DIFlagPrototyped, spFlags: DISPFlagOptimized)
!1123 = !DISubroutineType(types: !1124)
!1124 = !{!113, !286, !34}
!1125 = !DISubprogram(name: "set_anno_u64", linkageName: "_ZN6Packet12set_anno_u64Eim", scope: !5, file: !4, line: 600, type: !1126, scopeLine: 600, flags: DIFlagPublic | DIFlagPrototyped, spFlags: DISPFlagOptimized)
!1126 = !DISubroutineType(types: !1127)
!1127 = !{null, !282, !34, !113}
!1128 = !DISubprogram(name: "anno_ptr", linkageName: "_ZNK6Packet8anno_ptrEi", scope: !5, file: !4, line: 614, type: !1129, scopeLine: 614, flags: DIFlagPublic | DIFlagPrototyped, spFlags: DISPFlagOptimized)
!1129 = !DISubroutineType(types: !1130)
!1130 = !{!135, !286, !34}
!1131 = !DISubprogram(name: "set_anno_ptr", linkageName: "_ZN6Packet12set_anno_ptrEiPKv", scope: !5, file: !4, line: 629, type: !1132, scopeLine: 629, flags: DIFlagPublic | DIFlagPrototyped, spFlags: DISPFlagOptimized)
!1132 = !DISubroutineType(types: !1133)
!1133 = !{null, !282, !34, !265}
!1134 = !DISubprogram(name: "data_packet", linkageName: "_ZN6Packet11data_packetEv", scope: !5, file: !4, line: 638, type: !288, scopeLine: 638, flags: DIFlagPublic | DIFlagPrototyped, spFlags: DISPFlagOptimized)
!1135 = !DISubprogram(name: "clear_annotations", linkageName: "_ZN6Packet17clear_annotationsEb", scope: !5, file: !4, line: 643, type: !1136, scopeLine: 643, flags: DIFlagPublic | DIFlagPrototyped, spFlags: DISPFlagOptimized)
!1136 = !DISubroutineType(types: !1137)
!1137 = !{null, !282, !53}
!1138 = !DISubprogram(name: "copy_annotations", linkageName: "_ZN6Packet16copy_annotationsEPKS_", scope: !5, file: !4, line: 644, type: !1139, scopeLine: 644, flags: DIFlagPublic | DIFlagPrototyped, spFlags: DISPFlagOptimized)
!1139 = !DISubroutineType(types: !1140)
!1140 = !{null, !282, !1141}
!1141 = !DIDerivedType(tag: DW_TAG_pointer_type, baseType: !254, size: 64)
!1142 = !DISubprogram(name: "buffer_data", linkageName: "_ZNK6Packet11buffer_dataEv", scope: !5, file: !4, line: 661, type: !294, scopeLine: 661, flags: DIFlagPublic | DIFlagPrototyped, spFlags: DISPFlagOptimized)
!1143 = !DISubprogram(name: "addr_anno", linkageName: "_ZN6Packet9addr_annoEv", scope: !5, file: !4, line: 662, type: !314, scopeLine: 662, flags: DIFlagPublic | DIFlagPrototyped, spFlags: DISPFlagOptimized)
!1144 = !DISubprogram(name: "addr_anno", linkageName: "_ZNK6Packet9addr_annoEv", scope: !5, file: !4, line: 663, type: !1069, scopeLine: 663, flags: DIFlagPublic | DIFlagPrototyped, spFlags: DISPFlagOptimized)
!1145 = !DISubprogram(name: "user_anno", linkageName: "_ZN6Packet9user_annoEv", scope: !5, file: !4, line: 664, type: !314, scopeLine: 664, flags: DIFlagPublic | DIFlagPrototyped, spFlags: DISPFlagOptimized)
!1146 = !DISubprogram(name: "user_anno", linkageName: "_ZNK6Packet9user_annoEv", scope: !5, file: !4, line: 665, type: !1069, scopeLine: 665, flags: DIFlagPublic | DIFlagPrototyped, spFlags: DISPFlagOptimized)
!1147 = !DISubprogram(name: "user_anno_u8", linkageName: "_ZN6Packet12user_anno_u8Ev", scope: !5, file: !4, line: 666, type: !1072, scopeLine: 666, flags: DIFlagPublic | DIFlagPrototyped, spFlags: DISPFlagOptimized)
!1148 = !DISubprogram(name: "user_anno_u8", linkageName: "_ZNK6Packet12user_anno_u8Ev", scope: !5, file: !4, line: 667, type: !1076, scopeLine: 667, flags: DIFlagPublic | DIFlagPrototyped, spFlags: DISPFlagOptimized)
!1149 = !DISubprogram(name: "user_anno_u32", linkageName: "_ZN6Packet13user_anno_u32Ev", scope: !5, file: !4, line: 668, type: !1081, scopeLine: 668, flags: DIFlagPublic | DIFlagPrototyped, spFlags: DISPFlagOptimized)
!1150 = !DISubprogram(name: "user_anno_u32", linkageName: "_ZNK6Packet13user_anno_u32Ev", scope: !5, file: !4, line: 669, type: !1085, scopeLine: 669, flags: DIFlagPublic | DIFlagPrototyped, spFlags: DISPFlagOptimized)
!1151 = !DISubprogram(name: "user_anno_u8", linkageName: "_ZNK6Packet12user_anno_u8Ei", scope: !5, file: !4, line: 670, type: !1090, scopeLine: 670, flags: DIFlagPublic | DIFlagPrototyped, spFlags: DISPFlagOptimized)
!1152 = !DISubprogram(name: "set_user_anno_u8", linkageName: "_ZN6Packet16set_user_anno_u8Eih", scope: !5, file: !4, line: 671, type: !1093, scopeLine: 671, flags: DIFlagPublic | DIFlagPrototyped, spFlags: DISPFlagOptimized)
!1153 = !DISubprogram(name: "user_anno_u16", linkageName: "_ZNK6Packet13user_anno_u16Ei", scope: !5, file: !4, line: 672, type: !1096, scopeLine: 672, flags: DIFlagPublic | DIFlagPrototyped, spFlags: DISPFlagOptimized)
!1154 = !DISubprogram(name: "set_user_anno_u16", linkageName: "_ZN6Packet17set_user_anno_u16Eit", scope: !5, file: !4, line: 673, type: !1099, scopeLine: 673, flags: DIFlagPublic | DIFlagPrototyped, spFlags: DISPFlagOptimized)
!1155 = !DISubprogram(name: "user_anno_u32", linkageName: "_ZNK6Packet13user_anno_u32Ei", scope: !5, file: !4, line: 674, type: !1111, scopeLine: 674, flags: DIFlagPublic | DIFlagPrototyped, spFlags: DISPFlagOptimized)
!1156 = !DISubprogram(name: "set_user_anno_u32", linkageName: "_ZN6Packet17set_user_anno_u32Eij", scope: !5, file: !4, line: 675, type: !1114, scopeLine: 675, flags: DIFlagPublic | DIFlagPrototyped, spFlags: DISPFlagOptimized)
!1157 = !DISubprogram(name: "user_anno_s32", linkageName: "_ZNK6Packet13user_anno_s32Ei", scope: !5, file: !4, line: 676, type: !1117, scopeLine: 676, flags: DIFlagPublic | DIFlagPrototyped, spFlags: DISPFlagOptimized)
!1158 = !DISubprogram(name: "set_user_anno_s32", linkageName: "_ZN6Packet17set_user_anno_s32Eii", scope: !5, file: !4, line: 677, type: !1120, scopeLine: 677, flags: DIFlagPublic | DIFlagPrototyped, spFlags: DISPFlagOptimized)
!1159 = !DISubprogram(name: "user_anno_u64", linkageName: "_ZNK6Packet13user_anno_u64Ei", scope: !5, file: !4, line: 679, type: !1123, scopeLine: 679, flags: DIFlagPublic | DIFlagPrototyped, spFlags: DISPFlagOptimized)
!1160 = !DISubprogram(name: "set_user_anno_u64", linkageName: "_ZN6Packet17set_user_anno_u64Eim", scope: !5, file: !4, line: 680, type: !1126, scopeLine: 680, flags: DIFlagPublic | DIFlagPrototyped, spFlags: DISPFlagOptimized)
!1161 = !DISubprogram(name: "all_user_anno", linkageName: "_ZNK6Packet13all_user_annoEv", scope: !5, file: !4, line: 682, type: !1076, scopeLine: 682, flags: DIFlagPublic | DIFlagPrototyped, spFlags: DISPFlagOptimized)
!1162 = !DISubprogram(name: "all_user_anno", linkageName: "_ZN6Packet13all_user_annoEv", scope: !5, file: !4, line: 683, type: !1072, scopeLine: 683, flags: DIFlagPublic | DIFlagPrototyped, spFlags: DISPFlagOptimized)
!1163 = !DISubprogram(name: "all_user_anno_u", linkageName: "_ZNK6Packet15all_user_anno_uEv", scope: !5, file: !4, line: 684, type: !1085, scopeLine: 684, flags: DIFlagPublic | DIFlagPrototyped, spFlags: DISPFlagOptimized)
!1164 = !DISubprogram(name: "all_user_anno_u", linkageName: "_ZN6Packet15all_user_anno_uEv", scope: !5, file: !4, line: 685, type: !1081, scopeLine: 685, flags: DIFlagPublic | DIFlagPrototyped, spFlags: DISPFlagOptimized)
!1165 = !DISubprogram(name: "user_anno_c", linkageName: "_ZNK6Packet11user_anno_cEi", scope: !5, file: !4, line: 686, type: !1090, scopeLine: 686, flags: DIFlagPublic | DIFlagPrototyped, spFlags: DISPFlagOptimized)
!1166 = !DISubprogram(name: "set_user_anno_c", linkageName: "_ZN6Packet15set_user_anno_cEih", scope: !5, file: !4, line: 687, type: !1093, scopeLine: 687, flags: DIFlagPublic | DIFlagPrototyped, spFlags: DISPFlagOptimized)
!1167 = !DISubprogram(name: "user_anno_s", linkageName: "_ZNK6Packet11user_anno_sEi", scope: !5, file: !4, line: 688, type: !1102, scopeLine: 688, flags: DIFlagPublic | DIFlagPrototyped, spFlags: DISPFlagOptimized)
!1168 = !DISubprogram(name: "set_user_anno_s", linkageName: "_ZN6Packet15set_user_anno_sEis", scope: !5, file: !4, line: 689, type: !1108, scopeLine: 689, flags: DIFlagPublic | DIFlagPrototyped, spFlags: DISPFlagOptimized)
!1169 = !DISubprogram(name: "user_anno_us", linkageName: "_ZNK6Packet12user_anno_usEi", scope: !5, file: !4, line: 690, type: !1096, scopeLine: 690, flags: DIFlagPublic | DIFlagPrototyped, spFlags: DISPFlagOptimized)
!1170 = !DISubprogram(name: "set_user_anno_us", linkageName: "_ZN6Packet16set_user_anno_usEit", scope: !5, file: !4, line: 691, type: !1099, scopeLine: 691, flags: DIFlagPublic | DIFlagPrototyped, spFlags: DISPFlagOptimized)
