; ModuleID = '../elements/ip/checkipheader.cc'
source_filename = "../elements/ip/checkipheader.cc"
target datalayout = "e-m:e-p270:32:32-p271:32:32-p272:64:64-i64:64-f80:128-n8:16:32:64-S128"
target triple = "x86_64-pc-linux-gnu"

%class.ArgContext = type <{ %class.Element*, %class.ErrorHandler*, i8*, i8, [7 x i8] }>
%class.Element = type <{ i32 (...)**, [2 x %"class.Element::Port"*], [4 x %"class.Element::Port"], [2 x i32], %class.Router*, i32, [4 x i8] }>
%"class.Element::Port" = type <{ %class.Element*, i32, [4 x i8] }>
%class.Router = type opaque
%class.ErrorHandler = type <{ i32 (...)**, i32, [4 x i8] }>
%class.CheckIPHeader = type { %class.Element.base, i32, %class.Vector, i8, i8, %class.Vector, %class.atomic_uint32_t, %class.atomic_uint32_t* }
%class.Element.base = type <{ i32 (...)**, [2 x %"class.Element::Port"*], [4 x %"class.Element::Port"], [2 x i32], %class.Router*, i32 }>
%class.Vector = type { %class.vector_memory }
%class.vector_memory = type { %struct.char_array*, i32, i32 }
%struct.char_array = type { [4 x i8] }
%class.atomic_uint32_t = type { i32 }
%class.String = type { %"struct.String::rep_t" }
%"struct.String::rep_t" = type { i8*, i32, %"struct.String::memo_t"* }
%"struct.String::memo_t" = type { i32, i32, i32, [8 x i8] }
%class.Args = type { %class.ArgContext.base, i8, i8, i8, %class.Vector.0*, %class.Vector.2, %"struct.Args::Slot"*, [48 x i8] }
%class.ArgContext.base = type <{ %class.Element*, %class.ErrorHandler*, i8*, i8 }>
%class.Vector.0 = type { %class.vector_memory.1 }
%class.vector_memory.1 = type { %class.String*, i32, i32 }
%class.Vector.2 = type { %class.vector_memory }
%"struct.Args::Slot" = type { i32 (...)**, %"struct.Args::Slot"* }
%class.IPAddress = type { i32 }
%class.IPPrefixArg = type { i8 }
%class.IntArg = type { i32, i32 }
%class.Packet = type { %class.atomic_uint32_t, %class.Packet*, i8*, i8*, i8*, i8*, %"struct.Packet::AllAnno", void (i8*, i64, i8*)*, i8* }
%"struct.Packet::AllAnno" = type { %"union.Packet::Anno", i8*, i8*, i8*, i32, [8 x i8], %class.Packet*, %class.Packet* }
%"union.Packet::Anno" = type { [6 x i64] }
%struct.click_ip = type { i8, i8, i16, i16, i16, i8, i8, i16, %struct.in_addr, %struct.in_addr }
%struct.in_addr = type { i32 }
%class.StringAccum = type { %"struct.StringAccum::rep_t" }
%"struct.StringAccum::rep_t" = type { i8*, i32, i32 }
%class.Task = type opaque
%class.Timer = type opaque
%"struct.CheckIPHeader::InterfacesArg" = type { i8 }
%"struct.Args::SlotT" = type { %"struct.Args::Slot", %class.Vector*, %class.Vector }
%"struct.CheckIPHeader::OldBadSrcArg" = type { i8 }

$_ZNK7Element6outputEi = comdat any

$_ZNK7Element4Port4pushEP6Packet = comdat any

$_Z4findI9IPAddressEPT_S2_S2_RKS1_ = comdat any

$_ZN6VectorI9IPAddressE5beginEv = comdat any

$_ZN6VectorI9IPAddressE3endEv = comdat any

$_ZNK13CheckIPHeader10class_nameEv = comdat any

$_ZNK13CheckIPHeader10port_countEv = comdat any

$_ZNK13CheckIPHeader10processingEv = comdat any

$_ZNK13CheckIPHeader5flagsEv = comdat any

$_ZNK6String6lengthEv = comdat any

$__clang_call_terminate = comdat any

$_ZNK7Element4portEbi = comdat any

$_Z14args_base_readIN13CheckIPHeader13InterfacesArgE6VectorI9IPAddressES4_EvP4ArgsPKciT_RT0_RT1_ = comdat any

$_ZN4Args9base_readIN13CheckIPHeader13InterfacesArgE6VectorI9IPAddressES5_EEvPKciT_RT0_RT1_ = comdat any

$_ZN4Args5SlotTI6VectorI9IPAddressEED2Ev = comdat any

$_ZN4Args5SlotTI6VectorI9IPAddressEED0Ev = comdat any

$_ZN4Args5SlotTI6VectorI9IPAddressEE5storeEv = comdat any

$_Z14args_base_readI6VectorI9IPAddressEEvP4ArgsPKciRT_ = comdat any

$_ZN4Args9base_readI6VectorI9IPAddressEEEvPKciRT_ = comdat any

$_Z14args_base_readIjEvP4ArgsPKciRT_ = comdat any

$_ZN4Args9base_readIjEEvPKciRT_ = comdat any

$_Z14args_base_readIbEvP4ArgsPKciRT_ = comdat any

$_ZN4Args9base_readIbEEvPKciRT_ = comdat any

$_Z14args_base_readIN13CheckIPHeader12OldBadSrcArgE6VectorI9IPAddressEEvP4ArgsPKciT_RT0_ = comdat any

$_ZN4Args9base_readIN13CheckIPHeader12OldBadSrcArgE6VectorI9IPAddressEEEvPKciT_RT0_ = comdat any

$_Zne9IPAddressS_ = comdat any

$_ZTVN4Args5SlotTI6VectorI9IPAddressEEE = comdat any

$_ZTSN4Args5SlotTI6VectorI9IPAddressEEE = comdat any

$_ZTSN4Args4SlotE = comdat any

$_ZTIN4Args4SlotE = comdat any

$_ZTIN4Args5SlotTI6VectorI9IPAddressEEE = comdat any

@.str = private unnamed_addr constant [12 x i8] c"tiny packet\00", align 1
@.str.1 = private unnamed_addr constant [15 x i8] c"bad IP version\00", align 1
@.str.2 = private unnamed_addr constant [21 x i8] c"bad IP header length\00", align 1
@.str.3 = private unnamed_addr constant [14 x i8] c"bad IP length\00", align 1
@.str.4 = private unnamed_addr constant [16 x i8] c"bad IP checksum\00", align 1
@.str.5 = private unnamed_addr constant [19 x i8] c"bad source address\00", align 1
@_ZN13CheckIPHeader12reason_textsE = dso_local local_unnamed_addr constant [6 x i8*] [i8* getelementptr inbounds ([12 x i8], [12 x i8]* @.str, i32 0, i32 0), i8* getelementptr inbounds ([15 x i8], [15 x i8]* @.str.1, i32 0, i32 0), i8* getelementptr inbounds ([21 x i8], [21 x i8]* @.str.2, i32 0, i32 0), i8* getelementptr inbounds ([14 x i8], [14 x i8]* @.str.3, i32 0, i32 0), i8* getelementptr inbounds ([16 x i8], [16 x i8]* @.str.4, i32 0, i32 0), i8* getelementptr inbounds ([19 x i8], [19 x i8]* @.str.5, i32 0, i32 0)], align 16, !dbg !0
@.str.6 = private unnamed_addr constant [14 x i8] c"out of memory\00", align 1
@_ZTV13CheckIPHeader = dso_local unnamed_addr constant { [29 x i8*] } { [29 x i8*] [i8* null, i8* bitcast ({ i8*, i8*, i8* }* @_ZTI13CheckIPHeader to i8*), i8* bitcast (void (%class.CheckIPHeader*)* @_ZN13CheckIPHeaderD2Ev to i8*), i8* bitcast (void (%class.CheckIPHeader*)* @_ZN13CheckIPHeaderD0Ev to i8*), i8* bitcast (void (%class.Element*, i32, %class.Packet*)* @_ZN7Element4pushEiP6Packet to i8*), i8* bitcast (%class.Packet* (%class.Element*, i32)* @_ZN7Element4pullEi to i8*), i8* bitcast (%class.Packet* (%class.CheckIPHeader*, %class.Packet*)* @_ZN13CheckIPHeader13simple_actionEP6Packet to i8*), i8* bitcast (i1 (%class.Element*, %class.Task*)* @_ZN7Element8run_taskEP4Task to i8*), i8* bitcast (void (%class.Element*, %class.Timer*)* @_ZN7Element9run_timerEP5Timer to i8*), i8* bitcast (void (%class.Element*, i32, i32)* @_ZN7Element8selectedEii to i8*), i8* bitcast (void (%class.Element*, i32)* @_ZN7Element8selectedEi to i8*), i8* bitcast (i8* (%class.CheckIPHeader*)* @_ZNK13CheckIPHeader10class_nameEv to i8*), i8* bitcast (i8* (%class.CheckIPHeader*)* @_ZNK13CheckIPHeader10port_countEv to i8*), i8* bitcast (i8* (%class.CheckIPHeader*)* @_ZNK13CheckIPHeader10processingEv to i8*), i8* bitcast (i8* (%class.Element*)* @_ZNK7Element9flow_codeEv to i8*), i8* bitcast (i8* (%class.CheckIPHeader*)* @_ZNK13CheckIPHeader5flagsEv to i8*), i8* bitcast (i8* (%class.Element*, i8*)* @_ZN7Element4castEPKc to i8*), i8* bitcast (i8* (%class.Element*, i1, i32, i8*)* @_ZN7Element9port_castEbiPKc to i8*), i8* bitcast (i32 (%class.Element*)* @_ZNK7Element15configure_phaseEv to i8*), i8* bitcast (i32 (%class.CheckIPHeader*, %class.Vector.0*, %class.ErrorHandler*)* @_ZN13CheckIPHeader9configureER6VectorI6StringEP12ErrorHandler to i8*), i8* bitcast (void (%class.CheckIPHeader*)* @_ZN13CheckIPHeader12add_handlersEv to i8*), i8* bitcast (i32 (%class.Element*, %class.ErrorHandler*)* @_ZN7Element10initializeEP12ErrorHandler to i8*), i8* bitcast (void (%class.Element*, %class.Element*, %class.ErrorHandler*)* @_ZN7Element10take_stateEPS_P12ErrorHandler to i8*), i8* bitcast (%class.Element* (%class.Element*)* @_ZNK7Element15hotswap_elementEv to i8*), i8* bitcast (void (%class.Element*, i32)* @_ZN7Element7cleanupENS_12CleanupStageE to i8*), i8* bitcast (void (%class.String*, %class.Element*)* @_ZNK7Element11declarationEv to i8*), i8* bitcast (i1 (%class.Element*)* @_ZNK7Element20can_live_reconfigureEv to i8*), i8* bitcast (i32 (%class.Element*, %class.Vector.0*, %class.ErrorHandler*)* @_ZN7Element16live_reconfigureER6VectorI6StringEP12ErrorHandler to i8*), i8* bitcast (i32 (%class.Element*, i32, i8*)* @_ZN7Element5llrpcEjPv to i8*)] }, align 8
@.str.7 = private unnamed_addr constant [11 x i8] c"INTERFACES\00", align 1
@.str.8 = private unnamed_addr constant [7 x i8] c"BADSRC\00", align 1
@.str.9 = private unnamed_addr constant [8 x i8] c"GOODDST\00", align 1
@.str.10 = private unnamed_addr constant [7 x i8] c"OFFSET\00", align 1
@.str.11 = private unnamed_addr constant [8 x i8] c"VERBOSE\00", align 1
@.str.12 = private unnamed_addr constant [8 x i8] c"DETAILS\00", align 1
@.str.13 = private unnamed_addr constant [9 x i8] c"CHECKSUM\00", align 1
@blank_args = external global %class.ArgContext, align 8
@.str.14 = private unnamed_addr constant [39 x i8] c"configure of checkipheader is called!!\00", align 1
@.str.15 = private unnamed_addr constant [31 x i8] c"%s: IP header check failed: %s\00", align 1
@.str.16 = private unnamed_addr constant [6 x i8] c"drops\00", align 1
@.str.17 = private unnamed_addr constant [13 x i8] c"drop_details\00", align 1
@_ZTVN10__cxxabiv120__si_class_type_infoE = external global i8*
@_ZTS13CheckIPHeader = dso_local constant [16 x i8] c"13CheckIPHeader\00", align 1
@_ZTI7Element = external constant i8*
@_ZTI13CheckIPHeader = dso_local constant { i8*, i8*, i8* } { i8* bitcast (i8** getelementptr inbounds (i8*, i8** @_ZTVN10__cxxabiv120__si_class_type_infoE, i64 2) to i8*), i8* getelementptr inbounds ([16 x i8], [16 x i8]* @_ZTS13CheckIPHeader, i32 0, i32 0), i8* bitcast (i8** @_ZTI7Element to i8*) }, align 8
@.str.18 = private unnamed_addr constant [18 x i8] c"_r.memo->refcount\00", align 1
@.str.19 = private unnamed_addr constant [29 x i8] c"../dummy_inc/click/string.hh\00", align 1
@__PRETTY_FUNCTION__._ZNK6String5derefEv = private unnamed_addr constant [27 x i8] c"void String::deref() const\00", align 1
@.str.20 = private unnamed_addr constant [47 x i8] c"(unsigned) port < (unsigned) _nports[isoutput]\00", align 1
@.str.21 = private unnamed_addr constant [30 x i8] c"../dummy_inc/click/element.hh\00", align 1
@__PRETTY_FUNCTION__._ZNK7Element4portEbi = private unnamed_addr constant [52 x i8] c"const Element::Port &Element::port(bool, int) const\00", align 1
@.str.22 = private unnamed_addr constant [8 x i8] c"_e && p\00", align 1
@__PRETTY_FUNCTION__._ZNK7Element4Port4pushEP6Packet = private unnamed_addr constant [41 x i8] c"void Element::Port::push(Packet *) const\00", align 1
@_ZN6String9null_dataE = external constant i8, align 1
@.str.25 = private unnamed_addr constant [14 x i8] c"CheckIPHeader\00", align 1
@_ZN7Element11PORTS_1_1X2E = external constant [0 x i8], align 1
@_ZN7Element15PROCESSING_A_AHE = external constant [0 x i8], align 1
@.str.26 = private unnamed_addr constant [2 x i8] c"A\00", align 1
@_ZTVN4Args5SlotTI6VectorI9IPAddressEEE = linkonce_odr dso_local unnamed_addr constant { [5 x i8*] } { [5 x i8*] [i8* null, i8* bitcast ({ i8*, i8*, i8* }* @_ZTIN4Args5SlotTI6VectorI9IPAddressEEE to i8*), i8* bitcast (void (%"struct.Args::SlotT"*)* @_ZN4Args5SlotTI6VectorI9IPAddressEED2Ev to i8*), i8* bitcast (void (%"struct.Args::SlotT"*)* @_ZN4Args5SlotTI6VectorI9IPAddressEED0Ev to i8*), i8* bitcast (void (%"struct.Args::SlotT"*)* @_ZN4Args5SlotTI6VectorI9IPAddressEE5storeEv to i8*)] }, comdat, align 8
@_ZTSN4Args5SlotTI6VectorI9IPAddressEEE = linkonce_odr dso_local constant [35 x i8] c"N4Args5SlotTI6VectorI9IPAddressEEE\00", comdat, align 1
@_ZTVN10__cxxabiv117__class_type_infoE = external global i8*
@_ZTSN4Args4SlotE = linkonce_odr dso_local constant [13 x i8] c"N4Args4SlotE\00", comdat, align 1
@_ZTIN4Args4SlotE = linkonce_odr dso_local constant { i8*, i8* } { i8* bitcast (i8** getelementptr inbounds (i8*, i8** @_ZTVN10__cxxabiv117__class_type_infoE, i64 2) to i8*), i8* getelementptr inbounds ([13 x i8], [13 x i8]* @_ZTSN4Args4SlotE, i32 0, i32 0) }, comdat, align 8
@_ZTIN4Args5SlotTI6VectorI9IPAddressEEE = linkonce_odr dso_local constant { i8*, i8*, i8* } { i8* bitcast (i8** getelementptr inbounds (i8*, i8** @_ZTVN10__cxxabiv120__si_class_type_infoE, i64 2) to i8*), i8* getelementptr inbounds ([35 x i8], [35 x i8]* @_ZTSN4Args5SlotTI6VectorI9IPAddressEEE, i32 0, i32 0), i8* bitcast ({ i8*, i8* }* @_ZTIN4Args4SlotE to i8*) }, comdat, align 8
@.str.27 = private unnamed_addr constant [15 x i8] c"invalid number\00", align 1

@_ZN13CheckIPHeaderC1Ev = dso_local unnamed_addr alias void (%class.CheckIPHeader*), void (%class.CheckIPHeader*)* @_ZN13CheckIPHeaderC2Ev
@_ZN13CheckIPHeaderD1Ev = dso_local unnamed_addr alias void (%class.CheckIPHeader*), void (%class.CheckIPHeader*)* @_ZN13CheckIPHeaderD2Ev

; Function Attrs: sspstrong uwtable
define dso_local zeroext i1 @_ZN13CheckIPHeader12OldBadSrcArg5parseERK6StringR6VectorI9IPAddressER4Args(%class.String* dereferenceable(24) %0, %class.Vector* dereferenceable(16) %1, %class.Args* dereferenceable(112) %2) local_unnamed_addr #0 align 2 !dbg !2861 {
  call void @llvm.dbg.value(metadata %class.String* %0, metadata !2863, metadata !DIExpression()), !dbg !2866
  call void @llvm.dbg.value(metadata %class.Vector* %1, metadata !2864, metadata !DIExpression()), !dbg !2866
  call void @llvm.dbg.value(metadata %class.Args* %2, metadata !2865, metadata !DIExpression()), !dbg !2866
  %4 = bitcast %class.Args* %2 to %class.ArgContext*, !dbg !2867
  %5 = tail call zeroext i1 @_ZN12IPAddressArg5parseERK6StringR6VectorI9IPAddressERK10ArgContext(%class.String* nonnull dereferenceable(24) %0, %class.Vector* nonnull dereferenceable(16) %1, %class.ArgContext* nonnull dereferenceable(32) %4), !dbg !2869
  br i1 %5, label %6, label %92, !dbg !2870

6:                                                ; preds = %3
  call void @llvm.dbg.value(metadata i32 0, metadata !2871, metadata !DIExpression()), !dbg !2876
  call void @llvm.dbg.value(metadata %class.Vector* %1, metadata !2874, metadata !DIExpression()), !dbg !2876
  call void @llvm.dbg.value(metadata %class.Vector* %1, metadata !2879, metadata !DIExpression()), !dbg !2884
  call void @llvm.dbg.value(metadata %struct.char_array* undef, metadata !2882, metadata !DIExpression()), !dbg !2884
  %7 = getelementptr inbounds %class.Vector, %class.Vector* %1, i64 0, i32 0, i32 1, !dbg !2886
  %8 = load i32, i32* %7, align 8, !dbg !2886, !tbaa !2888
  %9 = getelementptr inbounds %class.Vector, %class.Vector* %1, i64 0, i32 0, i32 2, !dbg !2894
  %10 = load i32, i32* %9, align 4, !dbg !2894, !tbaa !2895
  %11 = icmp slt i32 %8, %10, !dbg !2896
  br i1 %11, label %42, label %12, !dbg !2897

12:                                               ; preds = %6
  %13 = bitcast %class.Vector* %1 to i8**, !dbg !2898
  br label %14

14:                                               ; preds = %37, %12
  %15 = phi i32 [ %38, %37 ], [ %8, %12 ]
  %16 = phi i32 [ %39, %37 ], [ %8, %12 ]
  %17 = phi i32 [ %40, %37 ], [ %10, %12 ], !dbg !2912
  call void @llvm.dbg.value(metadata %class.Vector* %1, metadata !2904, metadata !DIExpression()), !dbg !2912
  call void @llvm.dbg.value(metadata i32 -1, metadata !2905, metadata !DIExpression()), !dbg !2912
  call void @llvm.dbg.value(metadata %struct.char_array* undef, metadata !2906, metadata !DIExpression()), !dbg !2912
  %18 = icmp sgt i32 %17, 0, !dbg !2913
  %19 = shl nsw i32 %17, 1, !dbg !2913
  %20 = select i1 %18, i32 %19, i32 4, !dbg !2913
  call void @llvm.dbg.value(metadata i32 %20, metadata !2905, metadata !DIExpression()), !dbg !2912
  %21 = icmp sgt i32 %20, %17, !dbg !2914
  br i1 %21, label %22, label %37, !dbg !2915

22:                                               ; preds = %14
  %23 = sext i32 %20 to i64, !dbg !2916
  %24 = shl nsw i64 %23, 2, !dbg !2916
  %25 = tail call i8* @_Znam(i64 %24) #13, !dbg !2916
  call void @llvm.dbg.value(metadata i8* %25, metadata !2910, metadata !DIExpression()), !dbg !2898
  call void @llvm.dbg.value(metadata i8* %25, metadata !2910, metadata !DIExpression()), !dbg !2898
  %26 = load i8*, i8** %13, align 8, !dbg !2917, !tbaa !2918
  call void @llvm.dbg.value(metadata i8* %25, metadata !2919, metadata !DIExpression()) #14, !dbg !2924
  call void @llvm.dbg.value(metadata i8* %26, metadata !2922, metadata !DIExpression()) #14, !dbg !2924
  call void @llvm.dbg.value(metadata i32 %16, metadata !2923, metadata !DIExpression(DW_OP_LLVM_convert, 32, DW_ATE_signed, DW_OP_LLVM_convert, 64, DW_ATE_signed, DW_OP_stack_value)) #14, !dbg !2924
  %27 = icmp eq i32 %16, 0, !dbg !2926
  br i1 %27, label %31, label %28, !dbg !2928

28:                                               ; preds = %22
  %29 = sext i32 %16 to i64, !dbg !2929
  call void @llvm.dbg.value(metadata i64 %29, metadata !2923, metadata !DIExpression()) #14, !dbg !2924
  %30 = shl nsw i64 %29, 2, !dbg !2930
  tail call void @llvm.memmove.p0i8.p0i8.i64(i8* nonnull align 1 %25, i8* align 1 %26, i64 %30, i1 false) #14, !dbg !2931
  br label %31, !dbg !2931

31:                                               ; preds = %28, %22
  %32 = icmp eq i8* %26, null, !dbg !2932
  br i1 %32, label %35, label %33, !dbg !2932

33:                                               ; preds = %31
  tail call void @_ZdaPv(i8* nonnull %26) #15, !dbg !2932
  %34 = load i32, i32* %7, align 8, !dbg !2933, !tbaa !2888
  br label %35, !dbg !2932

35:                                               ; preds = %33, %31
  %36 = phi i32 [ %34, %33 ], [ %15, %31 ], !dbg !2933
  store i8* %25, i8** %13, align 8, !dbg !2936, !tbaa !2918
  store i32 %20, i32* %9, align 4, !dbg !2937, !tbaa !2895
  br label %37

37:                                               ; preds = %35, %14
  %38 = phi i32 [ %15, %14 ], [ %36, %35 ]
  %39 = phi i32 [ %16, %14 ], [ %36, %35 ], !dbg !2933
  %40 = phi i32 [ %17, %14 ], [ %20, %35 ]
  call void @llvm.dbg.value(metadata %class.Vector* %1, metadata !2879, metadata !DIExpression()), !dbg !2938
  call void @llvm.dbg.value(metadata %struct.char_array* undef, metadata !2882, metadata !DIExpression()), !dbg !2938
  %41 = icmp slt i32 %39, %40, !dbg !2939
  br i1 %41, label %42, label %14, !dbg !2940

42:                                               ; preds = %37, %6
  %43 = phi i32 [ %8, %6 ], [ %39, %37 ]
  %44 = getelementptr inbounds %class.Vector, %class.Vector* %1, i64 0, i32 0, i32 0, !dbg !2941
  %45 = load %struct.char_array*, %struct.char_array** %44, align 8, !dbg !2941, !tbaa !2918
  %46 = sext i32 %43 to i64, !dbg !2941
  %47 = getelementptr inbounds %struct.char_array, %struct.char_array* %45, i64 %46, i32 0, i64 0, !dbg !2941
  %48 = bitcast i8* %47 to i32*, !dbg !2941
  store i32 0, i32* %48, align 1, !dbg !2941
  %49 = load i32, i32* %7, align 8, !dbg !2941, !tbaa !2888
  %50 = add nsw i32 %49, 1, !dbg !2941
  store i32 %50, i32* %7, align 8, !dbg !2941, !tbaa !2888
  call void @llvm.dbg.value(metadata i32 -1, metadata !2871, metadata !DIExpression()), !dbg !2942
  call void @llvm.dbg.value(metadata %class.Vector* %1, metadata !2874, metadata !DIExpression()), !dbg !2942
  call void @llvm.dbg.value(metadata %class.Vector* %1, metadata !2879, metadata !DIExpression()), !dbg !2944
  call void @llvm.dbg.value(metadata %struct.char_array* undef, metadata !2882, metadata !DIExpression()), !dbg !2944
  %51 = load i32, i32* %9, align 4, !dbg !2946, !tbaa !2895
  %52 = icmp slt i32 %50, %51, !dbg !2947
  br i1 %52, label %83, label %53, !dbg !2948

53:                                               ; preds = %42
  %54 = bitcast %class.Vector* %1 to i8**, !dbg !2949
  br label %55

55:                                               ; preds = %78, %53
  %56 = phi i32 [ %79, %78 ], [ %50, %53 ]
  %57 = phi i32 [ %80, %78 ], [ %50, %53 ]
  %58 = phi i32 [ %81, %78 ], [ %51, %53 ], !dbg !2951
  call void @llvm.dbg.value(metadata %class.Vector* %1, metadata !2904, metadata !DIExpression()), !dbg !2951
  call void @llvm.dbg.value(metadata i32 -1, metadata !2905, metadata !DIExpression()), !dbg !2951
  call void @llvm.dbg.value(metadata %struct.char_array* undef, metadata !2906, metadata !DIExpression()), !dbg !2951
  %59 = icmp sgt i32 %58, 0, !dbg !2952
  %60 = shl nsw i32 %58, 1, !dbg !2952
  %61 = select i1 %59, i32 %60, i32 4, !dbg !2952
  call void @llvm.dbg.value(metadata i32 %61, metadata !2905, metadata !DIExpression()), !dbg !2951
  %62 = icmp sgt i32 %61, %58, !dbg !2953
  br i1 %62, label %63, label %78, !dbg !2954

63:                                               ; preds = %55
  %64 = sext i32 %61 to i64, !dbg !2955
  %65 = shl nsw i64 %64, 2, !dbg !2955
  %66 = tail call i8* @_Znam(i64 %65) #13, !dbg !2955
  call void @llvm.dbg.value(metadata i8* %66, metadata !2910, metadata !DIExpression()), !dbg !2949
  call void @llvm.dbg.value(metadata i8* %66, metadata !2910, metadata !DIExpression()), !dbg !2949
  %67 = load i8*, i8** %54, align 8, !dbg !2956, !tbaa !2918
  call void @llvm.dbg.value(metadata i8* %66, metadata !2919, metadata !DIExpression()) #14, !dbg !2957
  call void @llvm.dbg.value(metadata i8* %67, metadata !2922, metadata !DIExpression()) #14, !dbg !2957
  call void @llvm.dbg.value(metadata i32 %57, metadata !2923, metadata !DIExpression(DW_OP_LLVM_convert, 32, DW_ATE_signed, DW_OP_LLVM_convert, 64, DW_ATE_signed, DW_OP_stack_value)) #14, !dbg !2957
  %68 = icmp eq i32 %57, 0, !dbg !2959
  br i1 %68, label %72, label %69, !dbg !2960

69:                                               ; preds = %63
  %70 = sext i32 %57 to i64, !dbg !2961
  call void @llvm.dbg.value(metadata i64 %70, metadata !2923, metadata !DIExpression()) #14, !dbg !2957
  %71 = shl nsw i64 %70, 2, !dbg !2962
  tail call void @llvm.memmove.p0i8.p0i8.i64(i8* nonnull align 1 %66, i8* align 1 %67, i64 %71, i1 false) #14, !dbg !2963
  br label %72, !dbg !2963

72:                                               ; preds = %69, %63
  %73 = icmp eq i8* %67, null, !dbg !2964
  br i1 %73, label %76, label %74, !dbg !2964

74:                                               ; preds = %72
  tail call void @_ZdaPv(i8* nonnull %67) #15, !dbg !2964
  %75 = load i32, i32* %7, align 8, !dbg !2965, !tbaa !2888
  br label %76, !dbg !2964

76:                                               ; preds = %74, %72
  %77 = phi i32 [ %75, %74 ], [ %56, %72 ], !dbg !2965
  store i8* %66, i8** %54, align 8, !dbg !2967, !tbaa !2918
  store i32 %61, i32* %9, align 4, !dbg !2968, !tbaa !2895
  br label %78

78:                                               ; preds = %76, %55
  %79 = phi i32 [ %56, %55 ], [ %77, %76 ]
  %80 = phi i32 [ %57, %55 ], [ %77, %76 ], !dbg !2965
  %81 = phi i32 [ %58, %55 ], [ %61, %76 ]
  call void @llvm.dbg.value(metadata %class.Vector* %1, metadata !2879, metadata !DIExpression()), !dbg !2969
  call void @llvm.dbg.value(metadata %struct.char_array* undef, metadata !2882, metadata !DIExpression()), !dbg !2969
  %82 = icmp slt i32 %80, %81, !dbg !2970
  br i1 %82, label %83, label %55, !dbg !2971

83:                                               ; preds = %78, %42
  %84 = phi i32 [ %50, %42 ], [ %80, %78 ]
  %85 = getelementptr inbounds %class.Vector, %class.Vector* %1, i64 0, i32 0, i32 0, !dbg !2972
  %86 = load %struct.char_array*, %struct.char_array** %85, align 8, !dbg !2972, !tbaa !2918
  %87 = sext i32 %84 to i64, !dbg !2972
  %88 = getelementptr inbounds %struct.char_array, %struct.char_array* %86, i64 %87, i32 0, i64 0, !dbg !2972
  %89 = bitcast i8* %88 to i32*, !dbg !2972
  store i32 -1, i32* %89, align 1, !dbg !2972
  %90 = load i32, i32* %7, align 8, !dbg !2972, !tbaa !2888
  %91 = add nsw i32 %90, 1, !dbg !2972
  store i32 %91, i32* %7, align 8, !dbg !2972, !tbaa !2888
  br label %92, !dbg !2973

92:                                               ; preds = %3, %83
  %93 = phi i1 [ true, %83 ], [ false, %3 ], !dbg !2974
  ret i1 %93, !dbg !2975
}

; Function Attrs: nounwind readnone speculatable willreturn
declare void @llvm.dbg.declare(metadata, metadata, metadata) #1

; Function Attrs: argmemonly nounwind willreturn
declare void @llvm.lifetime.start.p0i8(i64 immarg, i8* nocapture) #2

declare zeroext i1 @_ZN12IPAddressArg5parseERK6StringR6VectorI9IPAddressERK10ArgContext(%class.String* dereferenceable(24), %class.Vector* dereferenceable(16), %class.ArgContext* dereferenceable(32)) local_unnamed_addr #3

; Function Attrs: argmemonly nounwind willreturn
declare void @llvm.lifetime.end.p0i8(i64 immarg, i8* nocapture) #2

; Function Attrs: sspstrong uwtable
define dso_local zeroext i1 @_ZN13CheckIPHeader13InterfacesArg5parseERK6StringR6VectorI9IPAddressES7_R4Args(%class.String* nocapture readonly dereferenceable(24) %0, %class.Vector* nocapture dereferenceable(16) %1, %class.Vector* nocapture dereferenceable(16) %2, %class.Args* dereferenceable(112) %3) local_unnamed_addr #0 align 2 personality i8* bitcast (i32 (...)* @__gxx_personality_v0 to i8*) !dbg !2976 {
  %5 = alloca %class.String, align 8
  %6 = alloca %class.IPAddress, align 4
  %7 = alloca %class.IPAddress, align 4
  %8 = alloca %class.String, align 8
  %9 = alloca %class.IPPrefixArg, align 1
  call void @llvm.dbg.value(metadata %class.String* %0, metadata !2978, metadata !DIExpression()), !dbg !2987
  call void @llvm.dbg.value(metadata %class.Vector* %1, metadata !2979, metadata !DIExpression()), !dbg !2987
  call void @llvm.dbg.value(metadata %class.Vector* %2, metadata !2980, metadata !DIExpression()), !dbg !2987
  call void @llvm.dbg.value(metadata %class.Args* %3, metadata !2981, metadata !DIExpression()), !dbg !2987
  %10 = bitcast %class.String* %5 to i8*, !dbg !2988
  call void @llvm.lifetime.start.p0i8(i64 24, i8* nonnull %10) #14, !dbg !2988
  call void @llvm.dbg.declare(metadata %class.String* %5, metadata !2982, metadata !DIExpression()), !dbg !2989
  call void @llvm.dbg.value(metadata %class.String* %5, metadata !2990, metadata !DIExpression()), !dbg !2994
  call void @llvm.dbg.value(metadata %class.String* %0, metadata !2993, metadata !DIExpression()), !dbg !2994
  call void @llvm.dbg.value(metadata %class.String* %5, metadata !2996, metadata !DIExpression()), !dbg !3000
  call void @llvm.dbg.value(metadata %class.String* %0, metadata !2999, metadata !DIExpression()), !dbg !3000
  %11 = bitcast %class.String* %0 to i64*, !dbg !3003
  %12 = load i64, i64* %11, align 8, !dbg !3003, !tbaa !3004
  %13 = getelementptr inbounds %class.String, %class.String* %0, i64 0, i32 0, i32 1, !dbg !3007
  %14 = load i32, i32* %13, align 8, !dbg !3007, !tbaa !3008
  %15 = getelementptr inbounds %class.String, %class.String* %0, i64 0, i32 0, i32 2, !dbg !3009
  %16 = load %"struct.String::memo_t"*, %"struct.String::memo_t"** %15, align 8, !dbg !3009, !tbaa !3010
  call void @llvm.dbg.value(metadata %class.String* %5, metadata !3011, metadata !DIExpression()), !dbg !3017
  call void @llvm.dbg.value(metadata i8* undef, metadata !3014, metadata !DIExpression()), !dbg !3017
  call void @llvm.dbg.value(metadata i32 %14, metadata !3015, metadata !DIExpression()), !dbg !3017
  call void @llvm.dbg.value(metadata %"struct.String::memo_t"* %16, metadata !3016, metadata !DIExpression()), !dbg !3017
  %17 = bitcast %class.String* %5 to i64*, !dbg !3019
  store i64 %12, i64* %17, align 8, !dbg !3019, !tbaa !3004
  %18 = getelementptr inbounds %class.String, %class.String* %5, i64 0, i32 0, i32 1, !dbg !3020
  store i32 %14, i32* %18, align 8, !dbg !3021, !tbaa !3008
  %19 = getelementptr inbounds %class.String, %class.String* %5, i64 0, i32 0, i32 2, !dbg !3022
  store %"struct.String::memo_t"* %16, %"struct.String::memo_t"** %19, align 8, !dbg !3024, !tbaa !3010
  %20 = icmp eq %"struct.String::memo_t"* %16, null, !dbg !3025
  br i1 %20, label %25, label %21, !dbg !3026

21:                                               ; preds = %4
  %22 = getelementptr inbounds %"struct.String::memo_t", %"struct.String::memo_t"* %16, i64 0, i32 0, !dbg !3027
  call void @llvm.dbg.value(metadata i32* %22, metadata !3028, metadata !DIExpression()), !dbg !3031
  %23 = load volatile i32, i32* %22, align 4, !dbg !3033, !tbaa !3034
  %24 = add i32 %23, 1, !dbg !3033
  store volatile i32 %24, i32* %22, align 4, !dbg !3033, !tbaa !3034
  br label %25, !dbg !3035

25:                                               ; preds = %4, %21
  %26 = bitcast %class.IPAddress* %6 to i8*, !dbg !3036
  call void @llvm.lifetime.start.p0i8(i64 4, i8* nonnull %26) #14, !dbg !3036
  call void @llvm.dbg.declare(metadata %class.IPAddress* %6, metadata !2983, metadata !DIExpression()), !dbg !3037
  call void @llvm.dbg.value(metadata %class.IPAddress* %6, metadata !3038, metadata !DIExpression()), !dbg !3041
  %27 = getelementptr inbounds %class.IPAddress, %class.IPAddress* %6, i64 0, i32 0, !dbg !3043
  store i32 0, i32* %27, align 4, !dbg !3043, !tbaa !3044
  %28 = bitcast %class.IPAddress* %7 to i8*, !dbg !3036
  call void @llvm.lifetime.start.p0i8(i64 4, i8* nonnull %28) #14, !dbg !3036
  call void @llvm.dbg.declare(metadata %class.IPAddress* %7, metadata !2984, metadata !DIExpression()), !dbg !3046
  call void @llvm.dbg.value(metadata %class.IPAddress* %7, metadata !3038, metadata !DIExpression()), !dbg !3047
  %29 = getelementptr inbounds %class.IPAddress, %class.IPAddress* %7, i64 0, i32 0, !dbg !3049
  store i32 0, i32* %29, align 4, !dbg !3049, !tbaa !3044
  call void @llvm.dbg.value(metadata i32 0, metadata !2985, metadata !DIExpression()), !dbg !2987
  %30 = bitcast %class.String* %8 to i8*, !dbg !2987
  %31 = getelementptr inbounds %class.String, %class.String* %8, i64 0, i32 0, i32 1, !dbg !3050
  %32 = getelementptr inbounds %class.IPPrefixArg, %class.IPPrefixArg* %9, i64 0, i32 0, !dbg !3055
  %33 = bitcast %class.Args* %3 to %class.ArgContext*, !dbg !3055
  %34 = getelementptr inbounds %class.Vector, %class.Vector* %1, i64 0, i32 0, i32 1, !dbg !3058
  %35 = getelementptr inbounds %class.Vector, %class.Vector* %1, i64 0, i32 0, i32 2, !dbg !3058
  %36 = bitcast %class.Vector* %1 to i8**, !dbg !3062
  %37 = getelementptr inbounds %class.Vector, %class.Vector* %1, i64 0, i32 0, i32 0, !dbg !3064
  %38 = getelementptr inbounds %class.Vector, %class.Vector* %2, i64 0, i32 0, i32 1, !dbg !3067
  %39 = getelementptr inbounds %class.Vector, %class.Vector* %2, i64 0, i32 0, i32 2, !dbg !3067
  %40 = bitcast %class.Vector* %2 to i8**, !dbg !3070
  %41 = getelementptr inbounds %class.Vector, %class.Vector* %2, i64 0, i32 0, i32 0, !dbg !3072
  %42 = getelementptr inbounds %class.String, %class.String* %8, i64 0, i32 0, i32 2, !dbg !3074
  br label %43, !dbg !3085

43:                                               ; preds = %176, %25
  %44 = phi i32 [ 0, %25 ], [ %159, %176 ], !dbg !2987
  call void @llvm.dbg.value(metadata i32 %44, metadata !2985, metadata !DIExpression()), !dbg !2987
  call void @llvm.lifetime.start.p0i8(i64 24, i8* nonnull %30) #14, !dbg !3085
  call void @llvm.dbg.declare(metadata %class.String* %8, metadata !2986, metadata !DIExpression()), !dbg !3086
  invoke void @_Z17cp_shift_spacevecR6String(%class.String* nonnull sret %8, %class.String* nonnull dereferenceable(24) %5)
          to label %45 unwind label %51, !dbg !3087

45:                                               ; preds = %43
  call void @llvm.dbg.value(metadata %class.String* %8, metadata !3053, metadata !DIExpression()), !dbg !3050
  %46 = load i32, i32* %31, align 8, !dbg !3088, !tbaa !3008
  %47 = icmp eq i32 %46, 0, !dbg !3089
  %48 = select i1 %47, { i64, i64 } zeroinitializer, { i64, i64 } { i64 ptrtoint (i32 (%class.String*)* @_ZNK6String6lengthEv to i64), i64 0 }, !dbg !3090
  %49 = extractvalue { i64, i64 } %48, 0, !dbg !3086
  %50 = icmp eq i64 %49, 0, !dbg !3086
  br i1 %50, label %157, label %63, !dbg !3085

51:                                               ; preds = %43
  %52 = landingpad { i8*, i32 }
          cleanup, !dbg !3091
  %53 = extractvalue { i8*, i32 } %52, 0, !dbg !3091
  %54 = extractvalue { i8*, i32 } %52, 1, !dbg !3091
  br label %196, !dbg !3091

55:                                               ; preds = %124
  %56 = landingpad { i8*, i32 }
          cleanup, !dbg !3091
  br label %59, !dbg !3091

57:                                               ; preds = %83
  %58 = landingpad { i8*, i32 }
          cleanup, !dbg !3091
  br label %59, !dbg !3091

59:                                               ; preds = %57, %55
  %60 = phi { i8*, i32 } [ %56, %55 ], [ %58, %57 ]
  %61 = extractvalue { i8*, i32 } %60, 0, !dbg !3091
  %62 = extractvalue { i8*, i32 } %60, 1, !dbg !3091
  br label %177, !dbg !3091

63:                                               ; preds = %45
  %64 = add nsw i32 %44, 1, !dbg !3092
  call void @llvm.dbg.value(metadata i32 %64, metadata !2985, metadata !DIExpression()), !dbg !2987
  call void @llvm.lifetime.start.p0i8(i64 1, i8* nonnull %32) #14, !dbg !3093
  call void @llvm.dbg.value(metadata %class.IPPrefixArg* %9, metadata !3094, metadata !DIExpression()), !dbg !3099
  call void @llvm.dbg.value(metadata i8 1, metadata !3097, metadata !DIExpression()), !dbg !3099
  store i8 1, i8* %32, align 1, !dbg !3101, !tbaa !3102
  %65 = invoke zeroext i1 @_ZNK11IPPrefixArg5parseERK6StringR9IPAddressS4_RK10ArgContext(%class.IPPrefixArg* nonnull %9, %class.String* nonnull dereferenceable(24) %8, %class.IPAddress* nonnull dereferenceable(4) %6, %class.IPAddress* nonnull dereferenceable(4) %7, %class.ArgContext* nonnull dereferenceable(32) %33)
          to label %66 unwind label %153, !dbg !3105

66:                                               ; preds = %63
  call void @llvm.lifetime.end.p0i8(i64 1, i8* nonnull %32) #14, !dbg !3093
  br i1 %65, label %67, label %157, !dbg !3106

67:                                               ; preds = %66
  %68 = load i32, i32* %27, align 4, !dbg !3107, !tbaa.struct !3108
  %69 = load i32, i32* %29, align 4, !dbg !3109, !tbaa.struct !3108
  call void @llvm.dbg.value(metadata i32 %69, metadata !3110, metadata !DIExpression()), !dbg !3115
  %70 = xor i32 %69, -1, !dbg !3117
  call void @llvm.dbg.value(metadata i32 undef, metadata !3118, metadata !DIExpression()), !dbg !3124
  call void @llvm.dbg.value(metadata i32 %70, metadata !3123, metadata !DIExpression()), !dbg !3124
  %71 = or i32 %68, %70, !dbg !3126
  call void @llvm.dbg.value(metadata i32 %71, metadata !2871, metadata !DIExpression()), !dbg !3127
  call void @llvm.dbg.value(metadata %class.Vector* %1, metadata !2874, metadata !DIExpression()), !dbg !3127
  call void @llvm.dbg.value(metadata %class.Vector* %1, metadata !2879, metadata !DIExpression()), !dbg !3128
  call void @llvm.dbg.value(metadata %struct.char_array* undef, metadata !2882, metadata !DIExpression()), !dbg !3128
  %72 = load i32, i32* %34, align 8, !dbg !3129, !tbaa !2888
  %73 = load i32, i32* %35, align 4, !dbg !3130, !tbaa !2895
  %74 = icmp slt i32 %72, %73, !dbg !3131
  br i1 %74, label %104, label %75, !dbg !3132

75:                                               ; preds = %67, %99
  %76 = phi i32 [ %100, %99 ], [ %72, %67 ]
  %77 = phi i32 [ %101, %99 ], [ %72, %67 ]
  %78 = phi i32 [ %102, %99 ], [ %73, %67 ], !dbg !3133
  call void @llvm.dbg.value(metadata %class.Vector* %1, metadata !2904, metadata !DIExpression()), !dbg !3133
  call void @llvm.dbg.value(metadata i32 -1, metadata !2905, metadata !DIExpression()), !dbg !3133
  call void @llvm.dbg.value(metadata %struct.char_array* undef, metadata !2906, metadata !DIExpression()), !dbg !3133
  %79 = icmp sgt i32 %78, 0, !dbg !3134
  %80 = shl nsw i32 %78, 1, !dbg !3134
  %81 = select i1 %79, i32 %80, i32 4, !dbg !3134
  call void @llvm.dbg.value(metadata i32 %81, metadata !2905, metadata !DIExpression()), !dbg !3133
  %82 = icmp sgt i32 %81, %78, !dbg !3135
  br i1 %82, label %83, label %99, !dbg !3136

83:                                               ; preds = %75
  %84 = sext i32 %81 to i64, !dbg !3137
  %85 = shl nsw i64 %84, 2, !dbg !3137
  %86 = invoke i8* @_Znam(i64 %85) #13
          to label %87 unwind label %57, !dbg !3137

87:                                               ; preds = %83
  call void @llvm.dbg.value(metadata i8* %86, metadata !2910, metadata !DIExpression()), !dbg !3062
  call void @llvm.dbg.value(metadata i8* %86, metadata !2910, metadata !DIExpression()), !dbg !3062
  %88 = load i8*, i8** %36, align 8, !dbg !3138, !tbaa !2918
  call void @llvm.dbg.value(metadata i8* %86, metadata !2919, metadata !DIExpression()) #14, !dbg !3139
  call void @llvm.dbg.value(metadata i8* %88, metadata !2922, metadata !DIExpression()) #14, !dbg !3139
  call void @llvm.dbg.value(metadata i32 %77, metadata !2923, metadata !DIExpression(DW_OP_LLVM_convert, 32, DW_ATE_signed, DW_OP_LLVM_convert, 64, DW_ATE_signed, DW_OP_stack_value)) #14, !dbg !3139
  %89 = icmp eq i32 %77, 0, !dbg !3141
  br i1 %89, label %93, label %90, !dbg !3142

90:                                               ; preds = %87
  %91 = sext i32 %77 to i64, !dbg !3143
  call void @llvm.dbg.value(metadata i64 %91, metadata !2923, metadata !DIExpression()) #14, !dbg !3139
  %92 = shl nsw i64 %91, 2, !dbg !3144
  call void @llvm.memmove.p0i8.p0i8.i64(i8* nonnull align 1 %86, i8* align 1 %88, i64 %92, i1 false) #14, !dbg !3145
  br label %93, !dbg !3145

93:                                               ; preds = %90, %87
  %94 = icmp eq i8* %88, null, !dbg !3146
  br i1 %94, label %97, label %95, !dbg !3146

95:                                               ; preds = %93
  call void @_ZdaPv(i8* nonnull %88) #15, !dbg !3146
  %96 = load i32, i32* %34, align 8, !dbg !3147, !tbaa !2888
  br label %97, !dbg !3146

97:                                               ; preds = %95, %93
  %98 = phi i32 [ %96, %95 ], [ %76, %93 ], !dbg !3147
  store i8* %86, i8** %36, align 8, !dbg !3148, !tbaa !2918
  store i32 %81, i32* %35, align 4, !dbg !3149, !tbaa !2895
  br label %99

99:                                               ; preds = %97, %75
  %100 = phi i32 [ %76, %75 ], [ %98, %97 ]
  %101 = phi i32 [ %77, %75 ], [ %98, %97 ], !dbg !3147
  %102 = phi i32 [ %78, %75 ], [ %81, %97 ]
  call void @llvm.dbg.value(metadata %class.Vector* %1, metadata !2879, metadata !DIExpression()), !dbg !3150
  call void @llvm.dbg.value(metadata %struct.char_array* undef, metadata !2882, metadata !DIExpression()), !dbg !3150
  %103 = icmp slt i32 %101, %102, !dbg !3151
  br i1 %103, label %104, label %75, !dbg !3152

104:                                              ; preds = %99, %67
  %105 = phi i32 [ %72, %67 ], [ %101, %99 ]
  %106 = load %struct.char_array*, %struct.char_array** %37, align 8, !dbg !3058, !tbaa !2918
  %107 = sext i32 %105 to i64, !dbg !3058
  %108 = getelementptr inbounds %struct.char_array, %struct.char_array* %106, i64 %107, i32 0, i64 0, !dbg !3058
  %109 = bitcast i8* %108 to i32*, !dbg !3058
  store i32 %71, i32* %109, align 1, !dbg !3058
  %110 = load i32, i32* %34, align 8, !dbg !3058, !tbaa !2888
  %111 = add nsw i32 %110, 1, !dbg !3058
  store i32 %111, i32* %34, align 8, !dbg !3058, !tbaa !2888
  %112 = load i32, i32* %27, align 4, !dbg !3153, !tbaa.struct !3108
  call void @llvm.dbg.value(metadata i32 %112, metadata !2871, metadata !DIExpression()), !dbg !3154
  call void @llvm.dbg.value(metadata %class.Vector* %2, metadata !2874, metadata !DIExpression()), !dbg !3154
  call void @llvm.dbg.value(metadata %class.Vector* %2, metadata !2879, metadata !DIExpression()), !dbg !3155
  call void @llvm.dbg.value(metadata %struct.char_array* undef, metadata !2882, metadata !DIExpression()), !dbg !3155
  %113 = load i32, i32* %38, align 8, !dbg !3156, !tbaa !2888
  %114 = load i32, i32* %39, align 4, !dbg !3157, !tbaa !2895
  %115 = icmp slt i32 %113, %114, !dbg !3158
  br i1 %115, label %145, label %116, !dbg !3159

116:                                              ; preds = %104, %140
  %117 = phi i32 [ %141, %140 ], [ %113, %104 ]
  %118 = phi i32 [ %142, %140 ], [ %113, %104 ]
  %119 = phi i32 [ %143, %140 ], [ %114, %104 ], !dbg !3160
  call void @llvm.dbg.value(metadata %class.Vector* %2, metadata !2904, metadata !DIExpression()), !dbg !3160
  call void @llvm.dbg.value(metadata i32 -1, metadata !2905, metadata !DIExpression()), !dbg !3160
  call void @llvm.dbg.value(metadata %struct.char_array* undef, metadata !2906, metadata !DIExpression()), !dbg !3160
  %120 = icmp sgt i32 %119, 0, !dbg !3161
  %121 = shl nsw i32 %119, 1, !dbg !3161
  %122 = select i1 %120, i32 %121, i32 4, !dbg !3161
  call void @llvm.dbg.value(metadata i32 %122, metadata !2905, metadata !DIExpression()), !dbg !3160
  %123 = icmp sgt i32 %122, %119, !dbg !3162
  br i1 %123, label %124, label %140, !dbg !3163

124:                                              ; preds = %116
  %125 = sext i32 %122 to i64, !dbg !3164
  %126 = shl nsw i64 %125, 2, !dbg !3164
  %127 = invoke i8* @_Znam(i64 %126) #13
          to label %128 unwind label %55, !dbg !3164

128:                                              ; preds = %124
  call void @llvm.dbg.value(metadata i8* %127, metadata !2910, metadata !DIExpression()), !dbg !3070
  call void @llvm.dbg.value(metadata i8* %127, metadata !2910, metadata !DIExpression()), !dbg !3070
  %129 = load i8*, i8** %40, align 8, !dbg !3165, !tbaa !2918
  call void @llvm.dbg.value(metadata i8* %127, metadata !2919, metadata !DIExpression()) #14, !dbg !3166
  call void @llvm.dbg.value(metadata i8* %129, metadata !2922, metadata !DIExpression()) #14, !dbg !3166
  call void @llvm.dbg.value(metadata i32 %118, metadata !2923, metadata !DIExpression(DW_OP_LLVM_convert, 32, DW_ATE_signed, DW_OP_LLVM_convert, 64, DW_ATE_signed, DW_OP_stack_value)) #14, !dbg !3166
  %130 = icmp eq i32 %118, 0, !dbg !3168
  br i1 %130, label %134, label %131, !dbg !3169

131:                                              ; preds = %128
  %132 = sext i32 %118 to i64, !dbg !3170
  call void @llvm.dbg.value(metadata i64 %132, metadata !2923, metadata !DIExpression()) #14, !dbg !3166
  %133 = shl nsw i64 %132, 2, !dbg !3171
  call void @llvm.memmove.p0i8.p0i8.i64(i8* nonnull align 1 %127, i8* align 1 %129, i64 %133, i1 false) #14, !dbg !3172
  br label %134, !dbg !3172

134:                                              ; preds = %131, %128
  %135 = icmp eq i8* %129, null, !dbg !3173
  br i1 %135, label %138, label %136, !dbg !3173

136:                                              ; preds = %134
  call void @_ZdaPv(i8* nonnull %129) #15, !dbg !3173
  %137 = load i32, i32* %38, align 8, !dbg !3174, !tbaa !2888
  br label %138, !dbg !3173

138:                                              ; preds = %136, %134
  %139 = phi i32 [ %137, %136 ], [ %117, %134 ], !dbg !3174
  store i8* %127, i8** %40, align 8, !dbg !3175, !tbaa !2918
  store i32 %122, i32* %39, align 4, !dbg !3176, !tbaa !2895
  br label %140

140:                                              ; preds = %138, %116
  %141 = phi i32 [ %117, %116 ], [ %139, %138 ]
  %142 = phi i32 [ %118, %116 ], [ %139, %138 ], !dbg !3174
  %143 = phi i32 [ %119, %116 ], [ %122, %138 ]
  call void @llvm.dbg.value(metadata %class.Vector* %2, metadata !2879, metadata !DIExpression()), !dbg !3177
  call void @llvm.dbg.value(metadata %struct.char_array* undef, metadata !2882, metadata !DIExpression()), !dbg !3177
  %144 = icmp slt i32 %142, %143, !dbg !3178
  br i1 %144, label %145, label %116, !dbg !3179

145:                                              ; preds = %140, %104
  %146 = phi i32 [ %113, %104 ], [ %142, %140 ]
  %147 = load %struct.char_array*, %struct.char_array** %41, align 8, !dbg !3067, !tbaa !2918
  %148 = sext i32 %146 to i64, !dbg !3067
  %149 = getelementptr inbounds %struct.char_array, %struct.char_array* %147, i64 %148, i32 0, i64 0, !dbg !3067
  %150 = bitcast i8* %149 to i32*, !dbg !3067
  store i32 %112, i32* %150, align 1, !dbg !3067
  %151 = load i32, i32* %38, align 8, !dbg !3067, !tbaa !2888
  %152 = add nsw i32 %151, 1, !dbg !3067
  store i32 %152, i32* %38, align 8, !dbg !3067, !tbaa !2888
  br label %157, !dbg !3180

153:                                              ; preds = %63
  %154 = landingpad { i8*, i32 }
          cleanup, !dbg !3181
  %155 = extractvalue { i8*, i32 } %154, 0, !dbg !3181
  %156 = extractvalue { i8*, i32 } %154, 1, !dbg !3181
  call void @llvm.lifetime.end.p0i8(i64 1, i8* nonnull %32) #14, !dbg !3093
  br label %177, !dbg !3093

157:                                              ; preds = %145, %66, %45
  %158 = phi i32 [ 3, %45 ], [ 1, %66 ], [ 0, %145 ]
  %159 = phi i32 [ %44, %45 ], [ %64, %66 ], [ %64, %145 ], !dbg !2987
  call void @llvm.dbg.value(metadata i32 %159, metadata !2985, metadata !DIExpression()), !dbg !2987
  call void @llvm.dbg.value(metadata %class.String* %8, metadata !3083, metadata !DIExpression()) #14, !dbg !3182
  call void @llvm.dbg.value(metadata %class.String* %8, metadata !3078, metadata !DIExpression()) #14, !dbg !3183
  %160 = load %"struct.String::memo_t"*, %"struct.String::memo_t"** %42, align 8, !dbg !3184, !tbaa !3010
  %161 = icmp eq %"struct.String::memo_t"* %160, null, !dbg !3185
  br i1 %161, label %176, label %162, !dbg !3186

162:                                              ; preds = %157
  %163 = getelementptr inbounds %"struct.String::memo_t", %"struct.String::memo_t"* %160, i64 0, i32 0, !dbg !3187
  %164 = load volatile i32, i32* %163, align 4, !dbg !3187, !tbaa !3189
  %165 = icmp eq i32 %164, 0, !dbg !3187
  br i1 %165, label %166, label %167, !dbg !3187

166:                                              ; preds = %162
  call void @__assert_fail(i8* getelementptr inbounds ([18 x i8], [18 x i8]* @.str.18, i64 0, i64 0), i8* getelementptr inbounds ([29 x i8], [29 x i8]* @.str.19, i64 0, i64 0), i32 273, i8* getelementptr inbounds ([27 x i8], [27 x i8]* @__PRETTY_FUNCTION__._ZNK6String5derefEv, i64 0, i64 0)) #16, !dbg !3187
  unreachable, !dbg !3187

167:                                              ; preds = %162
  call void @llvm.dbg.value(metadata i32* %163, metadata !3191, metadata !DIExpression()) #14, !dbg !3194
  %168 = load volatile i32, i32* %163, align 4, !dbg !3197, !tbaa !3034
  %169 = add i32 %168, -1, !dbg !3197
  store volatile i32 %169, i32* %163, align 4, !dbg !3197, !tbaa !3034
  %170 = icmp eq i32 %169, 0, !dbg !3198
  br i1 %170, label %171, label %172, !dbg !3199

171:                                              ; preds = %167
  invoke void @_ZN6String11delete_memoEPNS_6memo_tE(%"struct.String::memo_t"* nonnull %160)
          to label %172 unwind label %173, !dbg !3200

172:                                              ; preds = %171, %167
  store %"struct.String::memo_t"* null, %"struct.String::memo_t"** %42, align 8, !dbg !3201, !tbaa !3010
  br label %176, !dbg !3202

173:                                              ; preds = %171
  %174 = landingpad { i8*, i32 }
          catch i8* null, !dbg !3203
  %175 = extractvalue { i8*, i32 } %174, 0, !dbg !3203
  call void @__clang_call_terminate(i8* %175) #16, !dbg !3203
  unreachable, !dbg !3203

176:                                              ; preds = %157, %172
  call void @llvm.lifetime.end.p0i8(i64 24, i8* nonnull %30) #14, !dbg !3204
  switch i32 %158, label %292 [
    i32 0, label %43
    i32 3, label %199
  ], !llvm.loop !3205

177:                                              ; preds = %153, %59
  %178 = phi i32 [ %62, %59 ], [ %156, %153 ], !dbg !2987
  %179 = phi i8* [ %61, %59 ], [ %155, %153 ], !dbg !2987
  call void @llvm.dbg.value(metadata %class.String* %8, metadata !3083, metadata !DIExpression()) #14, !dbg !3207
  call void @llvm.dbg.value(metadata %class.String* %8, metadata !3078, metadata !DIExpression()) #14, !dbg !3209
  %180 = load %"struct.String::memo_t"*, %"struct.String::memo_t"** %42, align 8, !dbg !3211, !tbaa !3010
  %181 = icmp eq %"struct.String::memo_t"* %180, null, !dbg !3212
  br i1 %181, label %196, label %182, !dbg !3213

182:                                              ; preds = %177
  %183 = getelementptr inbounds %"struct.String::memo_t", %"struct.String::memo_t"* %180, i64 0, i32 0, !dbg !3214
  %184 = load volatile i32, i32* %183, align 4, !dbg !3214, !tbaa !3189
  %185 = icmp eq i32 %184, 0, !dbg !3214
  br i1 %185, label %186, label %187, !dbg !3214

186:                                              ; preds = %182
  call void @__assert_fail(i8* getelementptr inbounds ([18 x i8], [18 x i8]* @.str.18, i64 0, i64 0), i8* getelementptr inbounds ([29 x i8], [29 x i8]* @.str.19, i64 0, i64 0), i32 273, i8* getelementptr inbounds ([27 x i8], [27 x i8]* @__PRETTY_FUNCTION__._ZNK6String5derefEv, i64 0, i64 0)) #16, !dbg !3214
  unreachable, !dbg !3214

187:                                              ; preds = %182
  call void @llvm.dbg.value(metadata i32* %183, metadata !3191, metadata !DIExpression()) #14, !dbg !3215
  %188 = load volatile i32, i32* %183, align 4, !dbg !3217, !tbaa !3034
  %189 = add i32 %188, -1, !dbg !3217
  store volatile i32 %189, i32* %183, align 4, !dbg !3217, !tbaa !3034
  %190 = icmp eq i32 %189, 0, !dbg !3218
  br i1 %190, label %191, label %192, !dbg !3219

191:                                              ; preds = %187
  invoke void @_ZN6String11delete_memoEPNS_6memo_tE(%"struct.String::memo_t"* nonnull %180)
          to label %192 unwind label %193, !dbg !3220

192:                                              ; preds = %191, %187
  store %"struct.String::memo_t"* null, %"struct.String::memo_t"** %42, align 8, !dbg !3221, !tbaa !3010
  br label %196, !dbg !3222

193:                                              ; preds = %191
  %194 = landingpad { i8*, i32 }
          catch i8* null, !dbg !3223
  %195 = extractvalue { i8*, i32 } %194, 0, !dbg !3223
  call void @__clang_call_terminate(i8* %195) #16, !dbg !3223
  unreachable, !dbg !3223

196:                                              ; preds = %192, %177, %51
  %197 = phi i32 [ %54, %51 ], [ %178, %177 ], [ %178, %192 ], !dbg !3091
  %198 = phi i8* [ %53, %51 ], [ %179, %177 ], [ %179, %192 ], !dbg !3091
  call void @llvm.lifetime.end.p0i8(i64 24, i8* nonnull %30) #14, !dbg !3204
  br label %311, !dbg !3204

199:                                              ; preds = %176
  call void @llvm.dbg.value(metadata i32 %159, metadata !2985, metadata !DIExpression()), !dbg !2987
  call void @llvm.dbg.value(metadata i32 %159, metadata !2985, metadata !DIExpression()), !dbg !2987
  call void @llvm.dbg.value(metadata i32 %159, metadata !2985, metadata !DIExpression()), !dbg !2987
  call void @llvm.dbg.value(metadata i32 %159, metadata !2985, metadata !DIExpression()), !dbg !2987
  call void @llvm.dbg.value(metadata i32 %159, metadata !2985, metadata !DIExpression()), !dbg !2987
  call void @llvm.dbg.value(metadata i32 %159, metadata !2985, metadata !DIExpression()), !dbg !2987
  call void @llvm.dbg.value(metadata %class.Vector* %1, metadata !3224, metadata !DIExpression()), !dbg !3228
  %200 = load i32, i32* %34, align 8, !dbg !3231, !tbaa !3232
  %201 = icmp eq i32 %159, %200, !dbg !3234
  br i1 %201, label %202, label %291, !dbg !3235

202:                                              ; preds = %199
  call void @llvm.dbg.value(metadata i32 0, metadata !2871, metadata !DIExpression()), !dbg !3236
  call void @llvm.dbg.value(metadata %class.Vector* %1, metadata !2874, metadata !DIExpression()), !dbg !3236
  call void @llvm.dbg.value(metadata %class.Vector* %1, metadata !2879, metadata !DIExpression()), !dbg !3239
  call void @llvm.dbg.value(metadata %struct.char_array* undef, metadata !2882, metadata !DIExpression()), !dbg !3239
  %203 = load i32, i32* %35, align 4, !dbg !3241, !tbaa !2895
  %204 = icmp slt i32 %159, %203, !dbg !3242
  br i1 %204, label %234, label %205, !dbg !3243

205:                                              ; preds = %202, %229
  %206 = phi i32 [ %230, %229 ], [ %159, %202 ]
  %207 = phi i32 [ %231, %229 ], [ %159, %202 ]
  %208 = phi i32 [ %232, %229 ], [ %203, %202 ], !dbg !3244
  call void @llvm.dbg.value(metadata %class.Vector* %1, metadata !2904, metadata !DIExpression()), !dbg !3244
  call void @llvm.dbg.value(metadata i32 -1, metadata !2905, metadata !DIExpression()), !dbg !3244
  call void @llvm.dbg.value(metadata %struct.char_array* undef, metadata !2906, metadata !DIExpression()), !dbg !3244
  %209 = icmp sgt i32 %208, 0, !dbg !3246
  %210 = shl nsw i32 %208, 1, !dbg !3246
  %211 = select i1 %209, i32 %210, i32 4, !dbg !3246
  call void @llvm.dbg.value(metadata i32 %211, metadata !2905, metadata !DIExpression()), !dbg !3244
  %212 = icmp sgt i32 %211, %208, !dbg !3247
  br i1 %212, label %213, label %229, !dbg !3248

213:                                              ; preds = %205
  %214 = sext i32 %211 to i64, !dbg !3249
  %215 = shl nsw i64 %214, 2, !dbg !3249
  %216 = invoke i8* @_Znam(i64 %215) #13
          to label %217 unwind label %283, !dbg !3249

217:                                              ; preds = %213
  call void @llvm.dbg.value(metadata i8* %216, metadata !2910, metadata !DIExpression()), !dbg !3250
  call void @llvm.dbg.value(metadata i8* %216, metadata !2910, metadata !DIExpression()), !dbg !3250
  %218 = load i8*, i8** %36, align 8, !dbg !3251, !tbaa !2918
  call void @llvm.dbg.value(metadata i8* %216, metadata !2919, metadata !DIExpression()) #14, !dbg !3252
  call void @llvm.dbg.value(metadata i8* %218, metadata !2922, metadata !DIExpression()) #14, !dbg !3252
  call void @llvm.dbg.value(metadata i32 %207, metadata !2923, metadata !DIExpression(DW_OP_LLVM_convert, 32, DW_ATE_signed, DW_OP_LLVM_convert, 64, DW_ATE_signed, DW_OP_stack_value)) #14, !dbg !3252
  %219 = icmp eq i32 %207, 0, !dbg !3254
  br i1 %219, label %223, label %220, !dbg !3255

220:                                              ; preds = %217
  %221 = sext i32 %207 to i64, !dbg !3256
  call void @llvm.dbg.value(metadata i64 %221, metadata !2923, metadata !DIExpression()) #14, !dbg !3252
  %222 = shl nsw i64 %221, 2, !dbg !3257
  call void @llvm.memmove.p0i8.p0i8.i64(i8* nonnull align 1 %216, i8* align 1 %218, i64 %222, i1 false) #14, !dbg !3258
  br label %223, !dbg !3258

223:                                              ; preds = %220, %217
  %224 = icmp eq i8* %218, null, !dbg !3259
  br i1 %224, label %227, label %225, !dbg !3259

225:                                              ; preds = %223
  call void @_ZdaPv(i8* nonnull %218) #15, !dbg !3259
  %226 = load i32, i32* %34, align 8, !dbg !3260, !tbaa !2888
  br label %227, !dbg !3259

227:                                              ; preds = %225, %223
  %228 = phi i32 [ %226, %225 ], [ %206, %223 ], !dbg !3260
  store i8* %216, i8** %36, align 8, !dbg !3262, !tbaa !2918
  store i32 %211, i32* %35, align 4, !dbg !3263, !tbaa !2895
  br label %229

229:                                              ; preds = %227, %205
  %230 = phi i32 [ %206, %205 ], [ %228, %227 ]
  %231 = phi i32 [ %207, %205 ], [ %228, %227 ], !dbg !3260
  %232 = phi i32 [ %208, %205 ], [ %211, %227 ]
  call void @llvm.dbg.value(metadata %class.Vector* %1, metadata !2879, metadata !DIExpression()), !dbg !3264
  call void @llvm.dbg.value(metadata %struct.char_array* undef, metadata !2882, metadata !DIExpression()), !dbg !3264
  %233 = icmp slt i32 %231, %232, !dbg !3265
  br i1 %233, label %234, label %205, !dbg !3266

234:                                              ; preds = %229, %202
  %235 = phi i32 [ %159, %202 ], [ %231, %229 ]
  %236 = load %struct.char_array*, %struct.char_array** %37, align 8, !dbg !3267, !tbaa !2918
  %237 = sext i32 %235 to i64, !dbg !3267
  %238 = getelementptr inbounds %struct.char_array, %struct.char_array* %236, i64 %237, i32 0, i64 0, !dbg !3267
  %239 = bitcast i8* %238 to i32*, !dbg !3267
  store i32 0, i32* %239, align 1, !dbg !3267
  %240 = load i32, i32* %34, align 8, !dbg !3267, !tbaa !2888
  %241 = add nsw i32 %240, 1, !dbg !3267
  store i32 %241, i32* %34, align 8, !dbg !3267, !tbaa !2888
  call void @llvm.dbg.value(metadata i32 -1, metadata !2871, metadata !DIExpression()), !dbg !3268
  call void @llvm.dbg.value(metadata %class.Vector* %1, metadata !2874, metadata !DIExpression()), !dbg !3268
  call void @llvm.dbg.value(metadata %class.Vector* %1, metadata !2879, metadata !DIExpression()), !dbg !3270
  call void @llvm.dbg.value(metadata %struct.char_array* undef, metadata !2882, metadata !DIExpression()), !dbg !3270
  %242 = load i32, i32* %35, align 4, !dbg !3272, !tbaa !2895
  %243 = icmp slt i32 %241, %242, !dbg !3273
  br i1 %243, label %273, label %244, !dbg !3274

244:                                              ; preds = %234, %268
  %245 = phi i32 [ %269, %268 ], [ %241, %234 ]
  %246 = phi i32 [ %270, %268 ], [ %241, %234 ]
  %247 = phi i32 [ %271, %268 ], [ %242, %234 ], !dbg !3275
  call void @llvm.dbg.value(metadata %class.Vector* %1, metadata !2904, metadata !DIExpression()), !dbg !3275
  call void @llvm.dbg.value(metadata i32 -1, metadata !2905, metadata !DIExpression()), !dbg !3275
  call void @llvm.dbg.value(metadata %struct.char_array* undef, metadata !2906, metadata !DIExpression()), !dbg !3275
  %248 = icmp sgt i32 %247, 0, !dbg !3277
  %249 = shl nsw i32 %247, 1, !dbg !3277
  %250 = select i1 %248, i32 %249, i32 4, !dbg !3277
  call void @llvm.dbg.value(metadata i32 %250, metadata !2905, metadata !DIExpression()), !dbg !3275
  %251 = icmp sgt i32 %250, %247, !dbg !3278
  br i1 %251, label %252, label %268, !dbg !3279

252:                                              ; preds = %244
  %253 = sext i32 %250 to i64, !dbg !3280
  %254 = shl nsw i64 %253, 2, !dbg !3280
  %255 = invoke i8* @_Znam(i64 %254) #13
          to label %256 unwind label %281, !dbg !3280

256:                                              ; preds = %252
  call void @llvm.dbg.value(metadata i8* %255, metadata !2910, metadata !DIExpression()), !dbg !3281
  call void @llvm.dbg.value(metadata i8* %255, metadata !2910, metadata !DIExpression()), !dbg !3281
  %257 = load i8*, i8** %36, align 8, !dbg !3282, !tbaa !2918
  call void @llvm.dbg.value(metadata i8* %255, metadata !2919, metadata !DIExpression()) #14, !dbg !3283
  call void @llvm.dbg.value(metadata i8* %257, metadata !2922, metadata !DIExpression()) #14, !dbg !3283
  call void @llvm.dbg.value(metadata i32 %246, metadata !2923, metadata !DIExpression(DW_OP_LLVM_convert, 32, DW_ATE_signed, DW_OP_LLVM_convert, 64, DW_ATE_signed, DW_OP_stack_value)) #14, !dbg !3283
  %258 = icmp eq i32 %246, 0, !dbg !3285
  br i1 %258, label %262, label %259, !dbg !3286

259:                                              ; preds = %256
  %260 = sext i32 %246 to i64, !dbg !3287
  call void @llvm.dbg.value(metadata i64 %260, metadata !2923, metadata !DIExpression()) #14, !dbg !3283
  %261 = shl nsw i64 %260, 2, !dbg !3288
  call void @llvm.memmove.p0i8.p0i8.i64(i8* nonnull align 1 %255, i8* align 1 %257, i64 %261, i1 false) #14, !dbg !3289
  br label %262, !dbg !3289

262:                                              ; preds = %259, %256
  %263 = icmp eq i8* %257, null, !dbg !3290
  br i1 %263, label %266, label %264, !dbg !3290

264:                                              ; preds = %262
  call void @_ZdaPv(i8* nonnull %257) #15, !dbg !3290
  %265 = load i32, i32* %34, align 8, !dbg !3291, !tbaa !2888
  br label %266, !dbg !3290

266:                                              ; preds = %264, %262
  %267 = phi i32 [ %265, %264 ], [ %245, %262 ], !dbg !3291
  store i8* %255, i8** %36, align 8, !dbg !3293, !tbaa !2918
  store i32 %250, i32* %35, align 4, !dbg !3294, !tbaa !2895
  br label %268

268:                                              ; preds = %266, %244
  %269 = phi i32 [ %245, %244 ], [ %267, %266 ]
  %270 = phi i32 [ %246, %244 ], [ %267, %266 ], !dbg !3291
  %271 = phi i32 [ %247, %244 ], [ %250, %266 ]
  call void @llvm.dbg.value(metadata %class.Vector* %1, metadata !2879, metadata !DIExpression()), !dbg !3295
  call void @llvm.dbg.value(metadata %struct.char_array* undef, metadata !2882, metadata !DIExpression()), !dbg !3295
  %272 = icmp slt i32 %270, %271, !dbg !3296
  br i1 %272, label %273, label %244, !dbg !3297

273:                                              ; preds = %268, %234
  %274 = phi i32 [ %241, %234 ], [ %270, %268 ]
  %275 = load %struct.char_array*, %struct.char_array** %37, align 8, !dbg !3298, !tbaa !2918
  %276 = sext i32 %274 to i64, !dbg !3298
  %277 = getelementptr inbounds %struct.char_array, %struct.char_array* %275, i64 %276, i32 0, i64 0, !dbg !3298
  %278 = bitcast i8* %277 to i32*, !dbg !3298
  store i32 -1, i32* %278, align 1, !dbg !3298
  %279 = load i32, i32* %34, align 8, !dbg !3298, !tbaa !2888
  %280 = add nsw i32 %279, 1, !dbg !3298
  store i32 %280, i32* %34, align 8, !dbg !3298, !tbaa !2888
  br label %292, !dbg !3299

281:                                              ; preds = %252
  %282 = landingpad { i8*, i32 }
          cleanup, !dbg !3300
  br label %287, !dbg !3300

283:                                              ; preds = %213
  %284 = landingpad { i8*, i32 }
          cleanup, !dbg !3300
  br label %287, !dbg !3300

285:                                              ; preds = %291
  %286 = landingpad { i8*, i32 }
          cleanup, !dbg !3300
  br label %287, !dbg !3300

287:                                              ; preds = %283, %285, %281
  %288 = phi { i8*, i32 } [ %282, %281 ], [ %284, %283 ], [ %286, %285 ]
  %289 = extractvalue { i8*, i32 } %288, 0, !dbg !3300
  %290 = extractvalue { i8*, i32 } %288, 1, !dbg !3300
  br label %311, !dbg !3300

291:                                              ; preds = %199
  invoke void (%class.ArgContext*, i8*, ...) @_ZNK10ArgContext5errorEPKcz(%class.ArgContext* nonnull %33, i8* getelementptr inbounds ([14 x i8], [14 x i8]* @.str.6, i64 0, i64 0))
          to label %292 unwind label %285, !dbg !3301

292:                                              ; preds = %176, %273, %291
  %293 = phi i1 [ true, %273 ], [ false, %291 ], [ false, %176 ]
  call void @llvm.lifetime.end.p0i8(i64 4, i8* nonnull %28) #14, !dbg !3091
  call void @llvm.lifetime.end.p0i8(i64 4, i8* nonnull %26) #14, !dbg !3091
  call void @llvm.dbg.value(metadata %class.String* %5, metadata !3083, metadata !DIExpression()) #14, !dbg !3302
  call void @llvm.dbg.value(metadata %class.String* %5, metadata !3078, metadata !DIExpression()) #14, !dbg !3304
  %294 = load %"struct.String::memo_t"*, %"struct.String::memo_t"** %19, align 8, !dbg !3306, !tbaa !3010
  %295 = icmp eq %"struct.String::memo_t"* %294, null, !dbg !3307
  br i1 %295, label %310, label %296, !dbg !3308

296:                                              ; preds = %292
  %297 = getelementptr inbounds %"struct.String::memo_t", %"struct.String::memo_t"* %294, i64 0, i32 0, !dbg !3309
  %298 = load volatile i32, i32* %297, align 4, !dbg !3309, !tbaa !3189
  %299 = icmp eq i32 %298, 0, !dbg !3309
  br i1 %299, label %300, label %301, !dbg !3309

300:                                              ; preds = %296
  call void @__assert_fail(i8* getelementptr inbounds ([18 x i8], [18 x i8]* @.str.18, i64 0, i64 0), i8* getelementptr inbounds ([29 x i8], [29 x i8]* @.str.19, i64 0, i64 0), i32 273, i8* getelementptr inbounds ([27 x i8], [27 x i8]* @__PRETTY_FUNCTION__._ZNK6String5derefEv, i64 0, i64 0)) #16, !dbg !3309
  unreachable, !dbg !3309

301:                                              ; preds = %296
  call void @llvm.dbg.value(metadata i32* %297, metadata !3191, metadata !DIExpression()) #14, !dbg !3310
  %302 = load volatile i32, i32* %297, align 4, !dbg !3312, !tbaa !3034
  %303 = add i32 %302, -1, !dbg !3312
  store volatile i32 %303, i32* %297, align 4, !dbg !3312, !tbaa !3034
  %304 = icmp eq i32 %303, 0, !dbg !3313
  br i1 %304, label %305, label %306, !dbg !3314

305:                                              ; preds = %301
  invoke void @_ZN6String11delete_memoEPNS_6memo_tE(%"struct.String::memo_t"* nonnull %294)
          to label %306 unwind label %307, !dbg !3315

306:                                              ; preds = %305, %301
  store %"struct.String::memo_t"* null, %"struct.String::memo_t"** %19, align 8, !dbg !3316, !tbaa !3010
  br label %310, !dbg !3317

307:                                              ; preds = %305
  %308 = landingpad { i8*, i32 }
          catch i8* null, !dbg !3318
  %309 = extractvalue { i8*, i32 } %308, 0, !dbg !3318
  call void @__clang_call_terminate(i8* %309) #16, !dbg !3318
  unreachable, !dbg !3318

310:                                              ; preds = %292, %306
  call void @llvm.lifetime.end.p0i8(i64 24, i8* nonnull %10) #14, !dbg !3091
  ret i1 %293, !dbg !3091

311:                                              ; preds = %287, %196
  %312 = phi i32 [ %290, %287 ], [ %197, %196 ], !dbg !2987
  %313 = phi i8* [ %289, %287 ], [ %198, %196 ], !dbg !2987
  call void @llvm.lifetime.end.p0i8(i64 4, i8* nonnull %28) #14, !dbg !3091
  call void @llvm.lifetime.end.p0i8(i64 4, i8* nonnull %26) #14, !dbg !3091
  call void @llvm.dbg.value(metadata %class.String* %5, metadata !3083, metadata !DIExpression()) #14, !dbg !3319
  call void @llvm.dbg.value(metadata %class.String* %5, metadata !3078, metadata !DIExpression()) #14, !dbg !3321
  %314 = load %"struct.String::memo_t"*, %"struct.String::memo_t"** %19, align 8, !dbg !3323, !tbaa !3010
  %315 = icmp eq %"struct.String::memo_t"* %314, null, !dbg !3324
  br i1 %315, label %330, label %316, !dbg !3325

316:                                              ; preds = %311
  %317 = getelementptr inbounds %"struct.String::memo_t", %"struct.String::memo_t"* %314, i64 0, i32 0, !dbg !3326
  %318 = load volatile i32, i32* %317, align 4, !dbg !3326, !tbaa !3189
  %319 = icmp eq i32 %318, 0, !dbg !3326
  br i1 %319, label %320, label %321, !dbg !3326

320:                                              ; preds = %316
  call void @__assert_fail(i8* getelementptr inbounds ([18 x i8], [18 x i8]* @.str.18, i64 0, i64 0), i8* getelementptr inbounds ([29 x i8], [29 x i8]* @.str.19, i64 0, i64 0), i32 273, i8* getelementptr inbounds ([27 x i8], [27 x i8]* @__PRETTY_FUNCTION__._ZNK6String5derefEv, i64 0, i64 0)) #16, !dbg !3326
  unreachable, !dbg !3326

321:                                              ; preds = %316
  call void @llvm.dbg.value(metadata i32* %317, metadata !3191, metadata !DIExpression()) #14, !dbg !3327
  %322 = load volatile i32, i32* %317, align 4, !dbg !3329, !tbaa !3034
  %323 = add i32 %322, -1, !dbg !3329
  store volatile i32 %323, i32* %317, align 4, !dbg !3329, !tbaa !3034
  %324 = icmp eq i32 %323, 0, !dbg !3330
  br i1 %324, label %325, label %326, !dbg !3331

325:                                              ; preds = %321
  invoke void @_ZN6String11delete_memoEPNS_6memo_tE(%"struct.String::memo_t"* nonnull %314)
          to label %326 unwind label %327, !dbg !3332

326:                                              ; preds = %325, %321
  store %"struct.String::memo_t"* null, %"struct.String::memo_t"** %19, align 8, !dbg !3333, !tbaa !3010
  br label %330, !dbg !3334

327:                                              ; preds = %325
  %328 = landingpad { i8*, i32 }
          catch i8* null, !dbg !3335
  %329 = extractvalue { i8*, i32 } %328, 0, !dbg !3335
  call void @__clang_call_terminate(i8* %329) #16, !dbg !3335
  unreachable, !dbg !3335

330:                                              ; preds = %311, %326
  call void @llvm.lifetime.end.p0i8(i64 24, i8* nonnull %10) #14, !dbg !3091
  %331 = insertvalue { i8*, i32 } undef, i8* %313, 0, !dbg !3091
  %332 = insertvalue { i8*, i32 } %331, i32 %312, 1, !dbg !3091
  resume { i8*, i32 } %332, !dbg !3091
}

declare i32 @__gxx_personality_v0(...)

declare !dbg !1879 void @_Z17cp_shift_spacevecR6String(%class.String* sret, %class.String* dereferenceable(24)) local_unnamed_addr #3

declare zeroext i1 @_ZNK11IPPrefixArg5parseERK6StringR9IPAddressS4_RK10ArgContext(%class.IPPrefixArg*, %class.String* dereferenceable(24), %class.IPAddress* dereferenceable(4), %class.IPAddress* dereferenceable(4), %class.ArgContext* dereferenceable(32)) local_unnamed_addr #3

; Function Attrs: argmemonly nounwind willreturn
declare void @llvm.memcpy.p0i8.p0i8.i64(i8* noalias nocapture writeonly, i8* noalias nocapture readonly, i64, i1 immarg) #2

declare void @_ZNK10ArgContext5errorEPKcz(%class.ArgContext*, i8*, ...) local_unnamed_addr #3

; Function Attrs: sspstrong uwtable
define dso_local void @_ZN13CheckIPHeaderC2Ev(%class.CheckIPHeader* %0) unnamed_addr #0 align 2 personality i8* bitcast (i32 (...)* @__gxx_personality_v0 to i8*) !dbg !3336 {
  call void @llvm.dbg.value(metadata %class.CheckIPHeader* %0, metadata !3338, metadata !DIExpression()), !dbg !3339
  %2 = bitcast %class.CheckIPHeader* %0 to %class.Element*, !dbg !3340
  tail call void @_ZN7ElementC2Ev(%class.Element* %2), !dbg !3341
  %3 = getelementptr %class.CheckIPHeader, %class.CheckIPHeader* %0, i64 0, i32 0, i32 0, !dbg !3340
  store i32 (...)** bitcast (i8** getelementptr inbounds ({ [29 x i8*] }, { [29 x i8*] }* @_ZTV13CheckIPHeader, i64 0, inrange i32 0, i64 2) to i32 (...)**), i32 (...)*** %3, align 8, !dbg !3340, !tbaa !3342
  %4 = getelementptr inbounds %class.CheckIPHeader, %class.CheckIPHeader* %0, i64 0, i32 2, !dbg !3341
  call void @llvm.dbg.value(metadata %class.Vector* %4, metadata !3344, metadata !DIExpression()), !dbg !3347
  call void @llvm.dbg.value(metadata %class.Vector* %4, metadata !3349, metadata !DIExpression()) #14, !dbg !3352
  %5 = bitcast %class.Vector* %4 to i8*, !dbg !3354
  tail call void @llvm.memset.p0i8.i64(i8* nonnull align 8 dereferenceable(16) %5, i8 0, i64 16, i1 false) #14, !dbg !3355
  %6 = getelementptr inbounds %class.CheckIPHeader, %class.CheckIPHeader* %0, i64 0, i32 3, !dbg !3356
  store i8 1, i8* %6, align 8, !dbg !3356, !tbaa !3357
  %7 = getelementptr inbounds %class.CheckIPHeader, %class.CheckIPHeader* %0, i64 0, i32 5, !dbg !3341
  call void @llvm.dbg.value(metadata %class.Vector* %7, metadata !3344, metadata !DIExpression()), !dbg !3360
  call void @llvm.dbg.value(metadata %class.Vector* %7, metadata !3349, metadata !DIExpression()) #14, !dbg !3362
  %8 = getelementptr inbounds %class.CheckIPHeader, %class.CheckIPHeader* %0, i64 0, i32 7, !dbg !3364
  store %class.atomic_uint32_t* null, %class.atomic_uint32_t** %8, align 8, !dbg !3364, !tbaa !3365
  call void @llvm.dbg.value(metadata %class.CheckIPHeader* %0, metadata !3366, metadata !DIExpression(DW_OP_plus_uconst, 152, DW_OP_stack_value)), !dbg !3370
  call void @llvm.dbg.value(metadata i32 0, metadata !3369, metadata !DIExpression()), !dbg !3370
  %9 = bitcast %class.Vector* %7 to i8*, !dbg !3373
  call void @llvm.memset.p0i8.i64(i8* nonnull align 8 dereferenceable(20) %9, i8 0, i64 20, i1 false), !dbg !3374
  ret void, !dbg !3373
}

declare void @_ZN7ElementC2Ev(%class.Element*) unnamed_addr #3

; Function Attrs: nounwind
declare void @_ZN7ElementD2Ev(%class.Element*) unnamed_addr #4

; Function Attrs: nounwind sspstrong uwtable
define dso_local void @_ZN13CheckIPHeaderD2Ev(%class.CheckIPHeader* %0) unnamed_addr #5 align 2 personality i32 (...)* @__gxx_personality_v0 !dbg !3375 {
  call void @llvm.dbg.value(metadata %class.CheckIPHeader* %0, metadata !3377, metadata !DIExpression()), !dbg !3378
  %2 = getelementptr %class.CheckIPHeader, %class.CheckIPHeader* %0, i64 0, i32 0, i32 0, !dbg !3379
  store i32 (...)** bitcast (i8** getelementptr inbounds ({ [29 x i8*] }, { [29 x i8*] }* @_ZTV13CheckIPHeader, i64 0, inrange i32 0, i64 2) to i32 (...)**), i32 (...)*** %2, align 8, !dbg !3379, !tbaa !3342
  %3 = getelementptr inbounds %class.CheckIPHeader, %class.CheckIPHeader* %0, i64 0, i32 7, !dbg !3380
  %4 = load %class.atomic_uint32_t*, %class.atomic_uint32_t** %3, align 8, !dbg !3380, !tbaa !3365
  %5 = icmp eq %class.atomic_uint32_t* %4, null, !dbg !3382
  br i1 %5, label %8, label %6, !dbg !3382

6:                                                ; preds = %1
  %7 = bitcast %class.atomic_uint32_t* %4 to i8*, !dbg !3382
  tail call void @_ZdaPv(i8* %7) #15, !dbg !3382
  br label %8, !dbg !3382

8:                                                ; preds = %6, %1
  %9 = getelementptr inbounds %class.CheckIPHeader, %class.CheckIPHeader* %0, i64 0, i32 5, !dbg !3383
  call void @llvm.dbg.value(metadata %class.Vector* %9, metadata !3384, metadata !DIExpression()) #14, !dbg !3388
  call void @llvm.dbg.value(metadata %class.Vector* %9, metadata !3390, metadata !DIExpression()) #14, !dbg !3393
  %10 = bitcast %class.Vector* %9 to i8**, !dbg !3396
  %11 = load i8*, i8** %10, align 8, !dbg !3398, !tbaa !2918
  %12 = icmp eq i8* %11, null, !dbg !3398
  br i1 %12, label %14, label %13, !dbg !3398

13:                                               ; preds = %8
  tail call void @_ZdaPv(i8* nonnull %11) #15, !dbg !3398
  br label %14, !dbg !3398

14:                                               ; preds = %8, %13
  %15 = getelementptr inbounds %class.CheckIPHeader, %class.CheckIPHeader* %0, i64 0, i32 2, !dbg !3383
  call void @llvm.dbg.value(metadata %class.Vector* %15, metadata !3384, metadata !DIExpression()) #14, !dbg !3399
  call void @llvm.dbg.value(metadata %class.Vector* %15, metadata !3390, metadata !DIExpression()) #14, !dbg !3401
  %16 = bitcast %class.Vector* %15 to i8**, !dbg !3403
  %17 = load i8*, i8** %16, align 8, !dbg !3404, !tbaa !2918
  %18 = icmp eq i8* %17, null, !dbg !3404
  br i1 %18, label %20, label %19, !dbg !3404

19:                                               ; preds = %14
  tail call void @_ZdaPv(i8* nonnull %17) #15, !dbg !3404
  br label %20, !dbg !3404

20:                                               ; preds = %14, %19
  %21 = bitcast %class.CheckIPHeader* %0 to %class.Element*, !dbg !3383
  tail call void @_ZN7ElementD2Ev(%class.Element* %21) #14, !dbg !3383
  ret void, !dbg !3405
}

; Function Attrs: nobuiltin nounwind
declare void @_ZdaPv(i8*) local_unnamed_addr #6

; Function Attrs: nounwind sspstrong uwtable
define dso_local void @_ZN13CheckIPHeaderD0Ev(%class.CheckIPHeader* %0) unnamed_addr #5 align 2 personality i32 (...)* @__gxx_personality_v0 !dbg !3406 {
  call void @llvm.dbg.value(metadata %class.CheckIPHeader* %0, metadata !3408, metadata !DIExpression()), !dbg !3409
  call void @llvm.dbg.value(metadata %class.CheckIPHeader* %0, metadata !3377, metadata !DIExpression()) #14, !dbg !3410
  %2 = getelementptr %class.CheckIPHeader, %class.CheckIPHeader* %0, i64 0, i32 0, i32 0, !dbg !3412
  store i32 (...)** bitcast (i8** getelementptr inbounds ({ [29 x i8*] }, { [29 x i8*] }* @_ZTV13CheckIPHeader, i64 0, inrange i32 0, i64 2) to i32 (...)**), i32 (...)*** %2, align 8, !dbg !3412, !tbaa !3342
  %3 = getelementptr inbounds %class.CheckIPHeader, %class.CheckIPHeader* %0, i64 0, i32 7, !dbg !3413
  %4 = load %class.atomic_uint32_t*, %class.atomic_uint32_t** %3, align 8, !dbg !3413, !tbaa !3365
  %5 = icmp eq %class.atomic_uint32_t* %4, null, !dbg !3414
  br i1 %5, label %8, label %6, !dbg !3414

6:                                                ; preds = %1
  %7 = bitcast %class.atomic_uint32_t* %4 to i8*, !dbg !3414
  tail call void @_ZdaPv(i8* %7) #15, !dbg !3414
  br label %8, !dbg !3414

8:                                                ; preds = %6, %1
  %9 = getelementptr inbounds %class.CheckIPHeader, %class.CheckIPHeader* %0, i64 0, i32 5, !dbg !3415
  call void @llvm.dbg.value(metadata %class.Vector* %9, metadata !3384, metadata !DIExpression()) #14, !dbg !3416
  call void @llvm.dbg.value(metadata %class.Vector* %9, metadata !3390, metadata !DIExpression()) #14, !dbg !3418
  %10 = bitcast %class.Vector* %9 to i8**, !dbg !3420
  %11 = load i8*, i8** %10, align 8, !dbg !3421, !tbaa !2918
  %12 = icmp eq i8* %11, null, !dbg !3421
  br i1 %12, label %14, label %13, !dbg !3421

13:                                               ; preds = %8
  tail call void @_ZdaPv(i8* nonnull %11) #15, !dbg !3421
  br label %14, !dbg !3421

14:                                               ; preds = %13, %8
  %15 = getelementptr inbounds %class.CheckIPHeader, %class.CheckIPHeader* %0, i64 0, i32 2, !dbg !3415
  call void @llvm.dbg.value(metadata %class.Vector* %15, metadata !3384, metadata !DIExpression()) #14, !dbg !3422
  call void @llvm.dbg.value(metadata %class.Vector* %15, metadata !3390, metadata !DIExpression()) #14, !dbg !3424
  %16 = bitcast %class.Vector* %15 to i8**, !dbg !3426
  %17 = load i8*, i8** %16, align 8, !dbg !3427, !tbaa !2918
  %18 = icmp eq i8* %17, null, !dbg !3427
  br i1 %18, label %20, label %19, !dbg !3427

19:                                               ; preds = %14
  tail call void @_ZdaPv(i8* nonnull %17) #15, !dbg !3427
  br label %20, !dbg !3427

20:                                               ; preds = %14, %19
  %21 = bitcast %class.CheckIPHeader* %0 to %class.Element*, !dbg !3415
  tail call void @_ZN7ElementD2Ev(%class.Element* %21) #14, !dbg !3415
  %22 = bitcast %class.CheckIPHeader* %0 to i8*, !dbg !3428
  tail call void @_ZdlPv(i8* %22) #15, !dbg !3428
  ret void, !dbg !3429
}

; Function Attrs: nobuiltin nounwind
declare void @_ZdlPv(i8*) local_unnamed_addr #6

; Function Attrs: sspstrong uwtable
define dso_local i32 @_ZN13CheckIPHeader9configureER6VectorI6StringEP12ErrorHandler(%class.CheckIPHeader* %0, %class.Vector.0* dereferenceable(16) %1, %class.ErrorHandler* %2) unnamed_addr #0 align 2 personality i8* bitcast (i32 (...)* @__gxx_personality_v0 to i8*) !dbg !3430 {
  %4 = alloca [1 x i32], align 4
  call void @llvm.dbg.declare(metadata [1 x i32]* %4, metadata !3441, metadata !DIExpression()), !dbg !3479
  %5 = alloca i8, align 1
  %6 = alloca i8, align 1
  %7 = alloca %class.Args, align 8
  %8 = alloca %class.IntArg, align 4
  %9 = alloca %class.Args, align 8
  call void @llvm.dbg.value(metadata %class.CheckIPHeader* %0, metadata !3432, metadata !DIExpression()), !dbg !3492
  call void @llvm.dbg.value(metadata %class.Vector.0* %1, metadata !3433, metadata !DIExpression()), !dbg !3492
  call void @llvm.dbg.value(metadata %class.ErrorHandler* %2, metadata !3434, metadata !DIExpression()), !dbg !3492
  %10 = getelementptr inbounds %class.CheckIPHeader, %class.CheckIPHeader* %0, i64 0, i32 1, !dbg !3493
  store i32 0, i32* %10, align 4, !dbg !3494, !tbaa !3495
  call void @llvm.lifetime.start.p0i8(i64 1, i8* nonnull %5) #14, !dbg !3496
  call void @llvm.dbg.value(metadata i8 0, metadata !3435, metadata !DIExpression()), !dbg !3492
  store i8 0, i8* %5, align 1, !dbg !3497, !tbaa !3498
  call void @llvm.lifetime.start.p0i8(i64 1, i8* nonnull %6) #14, !dbg !3499
  call void @llvm.dbg.value(metadata i8 0, metadata !3436, metadata !DIExpression()), !dbg !3492
  store i8 0, i8* %6, align 1, !dbg !3500, !tbaa !3498
  %11 = bitcast %class.Args* %7 to i8*, !dbg !3501
  call void @llvm.lifetime.start.p0i8(i64 112, i8* nonnull %11) #14, !dbg !3501
  %12 = bitcast %class.CheckIPHeader* %0 to %class.Element*, !dbg !3503
  call void @_ZN4ArgsC1EPK7ElementP12ErrorHandler(%class.Args* nonnull %7, %class.Element* %12, %class.ErrorHandler* %2), !dbg !3501
  %13 = invoke dereferenceable(112) %class.Args* @_ZN4Args4bindER6VectorI6StringE(%class.Args* nonnull %7, %class.Vector.0* nonnull dereferenceable(16) %1)
          to label %14 unwind label %28, !dbg !3504

14:                                               ; preds = %3
  %15 = getelementptr inbounds %class.CheckIPHeader, %class.CheckIPHeader* %0, i64 0, i32 2, !dbg !3505
  %16 = getelementptr inbounds %class.CheckIPHeader, %class.CheckIPHeader* %0, i64 0, i32 5, !dbg !3506
  call void @llvm.dbg.value(metadata %class.Args* %13, metadata !3507, metadata !DIExpression()), !dbg !3517
  call void @llvm.dbg.value(metadata i8* getelementptr inbounds ([11 x i8], [11 x i8]* @.str.7, i64 0, i64 0), metadata !3513, metadata !DIExpression()), !dbg !3517
  call void @llvm.dbg.value(metadata %class.Vector* %15, metadata !3515, metadata !DIExpression()), !dbg !3517
  call void @llvm.dbg.value(metadata %class.Vector* %16, metadata !3516, metadata !DIExpression()), !dbg !3517
  call void @llvm.dbg.value(metadata %class.Args* %13, metadata !3519, metadata !DIExpression()), !dbg !3530
  call void @llvm.dbg.value(metadata i8* getelementptr inbounds ([11 x i8], [11 x i8]* @.str.7, i64 0, i64 0), metadata !3525, metadata !DIExpression()), !dbg !3530
  call void @llvm.dbg.value(metadata i32 0, metadata !3526, metadata !DIExpression()), !dbg !3530
  call void @llvm.dbg.value(metadata %class.Vector* %15, metadata !3528, metadata !DIExpression()), !dbg !3530
  call void @llvm.dbg.value(metadata %class.Vector* %16, metadata !3529, metadata !DIExpression()), !dbg !3530
  invoke void @_Z14args_base_readIN13CheckIPHeader13InterfacesArgE6VectorI9IPAddressES4_EvP4ArgsPKciT_RT0_RT1_(%class.Args* nonnull %13, i8* getelementptr inbounds ([11 x i8], [11 x i8]* @.str.7, i64 0, i64 0), i32 0, %class.Vector* nonnull dereferenceable(16) %15, %class.Vector* nonnull dereferenceable(16) %16)
          to label %17 unwind label %28, !dbg !3532

17:                                               ; preds = %14
  call void @llvm.dbg.value(metadata %class.Args* %13, metadata !3533, metadata !DIExpression()), !dbg !3541
  call void @llvm.dbg.value(metadata i8* getelementptr inbounds ([7 x i8], [7 x i8]* @.str.8, i64 0, i64 0), metadata !3539, metadata !DIExpression()), !dbg !3541
  call void @llvm.dbg.value(metadata %class.Vector* %15, metadata !3540, metadata !DIExpression()), !dbg !3541
  call void @llvm.dbg.value(metadata %class.Args* %13, metadata !3543, metadata !DIExpression()), !dbg !3552
  call void @llvm.dbg.value(metadata i8* getelementptr inbounds ([7 x i8], [7 x i8]* @.str.8, i64 0, i64 0), metadata !3549, metadata !DIExpression()), !dbg !3552
  call void @llvm.dbg.value(metadata i32 0, metadata !3550, metadata !DIExpression()), !dbg !3552
  call void @llvm.dbg.value(metadata %class.Vector* %15, metadata !3551, metadata !DIExpression()), !dbg !3552
  invoke void @_Z14args_base_readI6VectorI9IPAddressEEvP4ArgsPKciRT_(%class.Args* nonnull %13, i8* getelementptr inbounds ([7 x i8], [7 x i8]* @.str.8, i64 0, i64 0), i32 0, %class.Vector* nonnull dereferenceable(16) %15)
          to label %18 unwind label %28, !dbg !3554

18:                                               ; preds = %17
  call void @llvm.dbg.value(metadata %class.Args* %13, metadata !3533, metadata !DIExpression()), !dbg !3555
  call void @llvm.dbg.value(metadata i8* getelementptr inbounds ([8 x i8], [8 x i8]* @.str.9, i64 0, i64 0), metadata !3539, metadata !DIExpression()), !dbg !3555
  call void @llvm.dbg.value(metadata %class.Vector* %16, metadata !3540, metadata !DIExpression()), !dbg !3555
  call void @llvm.dbg.value(metadata %class.Args* %13, metadata !3543, metadata !DIExpression()), !dbg !3557
  call void @llvm.dbg.value(metadata i8* getelementptr inbounds ([8 x i8], [8 x i8]* @.str.9, i64 0, i64 0), metadata !3549, metadata !DIExpression()), !dbg !3557
  call void @llvm.dbg.value(metadata i32 0, metadata !3550, metadata !DIExpression()), !dbg !3557
  call void @llvm.dbg.value(metadata %class.Vector* %16, metadata !3551, metadata !DIExpression()), !dbg !3557
  invoke void @_Z14args_base_readI6VectorI9IPAddressEEvP4ArgsPKciRT_(%class.Args* nonnull %13, i8* getelementptr inbounds ([8 x i8], [8 x i8]* @.str.9, i64 0, i64 0), i32 0, %class.Vector* nonnull dereferenceable(16) %16)
          to label %19 unwind label %28, !dbg !3559

19:                                               ; preds = %18
  call void @llvm.dbg.value(metadata %class.Args* %13, metadata !3560, metadata !DIExpression()), !dbg !3568
  call void @llvm.dbg.value(metadata i8* getelementptr inbounds ([7 x i8], [7 x i8]* @.str.10, i64 0, i64 0), metadata !3566, metadata !DIExpression()), !dbg !3568
  call void @llvm.dbg.value(metadata i32* %10, metadata !3567, metadata !DIExpression()), !dbg !3568
  call void @llvm.dbg.value(metadata %class.Args* %13, metadata !3570, metadata !DIExpression()), !dbg !3579
  call void @llvm.dbg.value(metadata i8* getelementptr inbounds ([7 x i8], [7 x i8]* @.str.10, i64 0, i64 0), metadata !3576, metadata !DIExpression()), !dbg !3579
  call void @llvm.dbg.value(metadata i32 0, metadata !3577, metadata !DIExpression()), !dbg !3579
  call void @llvm.dbg.value(metadata i32* %10, metadata !3578, metadata !DIExpression()), !dbg !3579
  invoke void @_Z14args_base_readIjEvP4ArgsPKciRT_(%class.Args* nonnull %13, i8* getelementptr inbounds ([7 x i8], [7 x i8]* @.str.10, i64 0, i64 0), i32 0, i32* nonnull dereferenceable(4) %10)
          to label %20 unwind label %28, !dbg !3581

20:                                               ; preds = %19
  call void @llvm.dbg.value(metadata %class.Args* %13, metadata !3582, metadata !DIExpression()), !dbg !3590
  call void @llvm.dbg.value(metadata i8* getelementptr inbounds ([8 x i8], [8 x i8]* @.str.11, i64 0, i64 0), metadata !3588, metadata !DIExpression()), !dbg !3590
  call void @llvm.dbg.value(metadata i8* %5, metadata !3589, metadata !DIExpression()), !dbg !3590
  call void @llvm.dbg.value(metadata %class.Args* %13, metadata !3592, metadata !DIExpression()), !dbg !3601
  call void @llvm.dbg.value(metadata i8* getelementptr inbounds ([8 x i8], [8 x i8]* @.str.11, i64 0, i64 0), metadata !3598, metadata !DIExpression()), !dbg !3601
  call void @llvm.dbg.value(metadata i32 0, metadata !3599, metadata !DIExpression()), !dbg !3601
  call void @llvm.dbg.value(metadata i8* %5, metadata !3600, metadata !DIExpression()), !dbg !3601
  invoke void @_Z14args_base_readIbEvP4ArgsPKciRT_(%class.Args* nonnull %13, i8* getelementptr inbounds ([8 x i8], [8 x i8]* @.str.11, i64 0, i64 0), i32 0, i8* nonnull dereferenceable(1) %5)
          to label %21 unwind label %28, !dbg !3603

21:                                               ; preds = %20
  call void @llvm.dbg.value(metadata %class.Args* %13, metadata !3582, metadata !DIExpression()), !dbg !3604
  call void @llvm.dbg.value(metadata i8* getelementptr inbounds ([8 x i8], [8 x i8]* @.str.12, i64 0, i64 0), metadata !3588, metadata !DIExpression()), !dbg !3604
  call void @llvm.dbg.value(metadata i8* %6, metadata !3589, metadata !DIExpression()), !dbg !3604
  call void @llvm.dbg.value(metadata %class.Args* %13, metadata !3592, metadata !DIExpression()), !dbg !3606
  call void @llvm.dbg.value(metadata i8* getelementptr inbounds ([8 x i8], [8 x i8]* @.str.12, i64 0, i64 0), metadata !3598, metadata !DIExpression()), !dbg !3606
  call void @llvm.dbg.value(metadata i32 0, metadata !3599, metadata !DIExpression()), !dbg !3606
  call void @llvm.dbg.value(metadata i8* %6, metadata !3600, metadata !DIExpression()), !dbg !3606
  invoke void @_Z14args_base_readIbEvP4ArgsPKciRT_(%class.Args* nonnull %13, i8* getelementptr inbounds ([8 x i8], [8 x i8]* @.str.12, i64 0, i64 0), i32 0, i8* nonnull dereferenceable(1) %6)
          to label %22 unwind label %28, !dbg !3608

22:                                               ; preds = %21
  %23 = getelementptr inbounds %class.CheckIPHeader, %class.CheckIPHeader* %0, i64 0, i32 3, !dbg !3609
  call void @llvm.dbg.value(metadata %class.Args* %13, metadata !3582, metadata !DIExpression()), !dbg !3610
  call void @llvm.dbg.value(metadata i8* getelementptr inbounds ([9 x i8], [9 x i8]* @.str.13, i64 0, i64 0), metadata !3588, metadata !DIExpression()), !dbg !3610
  call void @llvm.dbg.value(metadata i8* %23, metadata !3589, metadata !DIExpression()), !dbg !3610
  call void @llvm.dbg.value(metadata %class.Args* %13, metadata !3592, metadata !DIExpression()), !dbg !3612
  call void @llvm.dbg.value(metadata i8* getelementptr inbounds ([9 x i8], [9 x i8]* @.str.13, i64 0, i64 0), metadata !3598, metadata !DIExpression()), !dbg !3612
  call void @llvm.dbg.value(metadata i32 0, metadata !3599, metadata !DIExpression()), !dbg !3612
  call void @llvm.dbg.value(metadata i8* %23, metadata !3600, metadata !DIExpression()), !dbg !3612
  invoke void @_Z14args_base_readIbEvP4ArgsPKciRT_(%class.Args* nonnull %13, i8* getelementptr inbounds ([9 x i8], [9 x i8]* @.str.13, i64 0, i64 0), i32 0, i8* nonnull dereferenceable(1) %23)
          to label %24 unwind label %28, !dbg !3614

24:                                               ; preds = %22
  %25 = invoke i32 @_ZN4Args7consumeEv(%class.Args* nonnull %13)
          to label %26 unwind label %28, !dbg !3615

26:                                               ; preds = %24
  %27 = icmp slt i32 %25, 0, !dbg !3616
  call void @_ZN4ArgsD1Ev(%class.Args* nonnull %7) #14, !dbg !3501
  call void @llvm.lifetime.end.p0i8(i64 112, i8* nonnull %11) #14, !dbg !3501
  br i1 %27, label %87, label %32, !dbg !3617

28:                                               ; preds = %22, %21, %20, %19, %18, %17, %14, %24, %3
  %29 = landingpad { i8*, i32 }
          cleanup, !dbg !3618
  %30 = extractvalue { i8*, i32 } %29, 0, !dbg !3618
  %31 = extractvalue { i8*, i32 } %29, 1, !dbg !3618
  call void @_ZN4ArgsD1Ev(%class.Args* nonnull %7) #14, !dbg !3501
  call void @llvm.lifetime.end.p0i8(i64 112, i8* nonnull %11) #14, !dbg !3501
  br label %89, !dbg !3501

32:                                               ; preds = %26
  call void @llvm.dbg.value(metadata %class.Vector.0* %1, metadata !3619, metadata !DIExpression()), !dbg !3622
  %33 = getelementptr inbounds %class.Vector.0, %class.Vector.0* %1, i64 0, i32 0, i32 1, !dbg !3624
  %34 = load i32, i32* %33, align 8, !dbg !3624, !tbaa !3625
  %35 = bitcast %class.IntArg* %8 to i8*, !dbg !3628
  call void @llvm.lifetime.start.p0i8(i64 8, i8* nonnull %35) #14, !dbg !3628
  switch i32 %34, label %65 [
    i32 0, label %64
    i32 1, label %36
  ], !dbg !3628

36:                                               ; preds = %32
  call void @llvm.dbg.value(metadata %class.IntArg* %8, metadata !3629, metadata !DIExpression()), !dbg !3633
  call void @llvm.dbg.value(metadata i32 0, metadata !3632, metadata !DIExpression()), !dbg !3633
  %37 = getelementptr inbounds %class.IntArg, %class.IntArg* %8, i64 0, i32 0, !dbg !3635
  store i32 0, i32* %37, align 4, !dbg !3635, !tbaa !3636
  %38 = call dereferenceable(24) %class.String* @_ZN6VectorI6StringEixEi(%class.Vector.0* nonnull %1, i32 0), !dbg !3638
  call void @llvm.dbg.value(metadata %class.IntArg* %8, metadata !3485, metadata !DIExpression()), !dbg !3639
  call void @llvm.dbg.value(metadata %class.String* %38, metadata !3486, metadata !DIExpression()), !dbg !3639
  call void @llvm.dbg.value(metadata i32* %10, metadata !3487, metadata !DIExpression()), !dbg !3639
  call void @llvm.dbg.value(metadata %class.ArgContext* @blank_args, metadata !3488, metadata !DIExpression()), !dbg !3639
  call void @llvm.dbg.value(metadata %class.IntArg* %8, metadata !3469, metadata !DIExpression()), !dbg !3640
  call void @llvm.dbg.value(metadata %class.String* %38, metadata !3471, metadata !DIExpression()), !dbg !3640
  call void @llvm.dbg.value(metadata %class.ArgContext* @blank_args, metadata !3473, metadata !DIExpression()), !dbg !3640
  call void @llvm.dbg.value(metadata i8 0, metadata !3474, metadata !DIExpression()), !dbg !3640
  call void @llvm.dbg.value(metadata i32 1, metadata !3475, metadata !DIExpression()), !dbg !3640
  %39 = bitcast [1 x i32]* %4 to i8*, !dbg !3641
  call void @llvm.lifetime.start.p0i8(i64 4, i8* nonnull %39) #14, !dbg !3641
  call void @llvm.dbg.value(metadata %class.String* %38, metadata !3642, metadata !DIExpression()), !dbg !3645
  %40 = getelementptr inbounds %class.String, %class.String* %38, i64 0, i32 0, i32 0, !dbg !3648
  %41 = load i8*, i8** %40, align 8, !dbg !3648, !tbaa !3004
  call void @llvm.dbg.value(metadata %class.String* %38, metadata !3649, metadata !DIExpression()), !dbg !3652
  %42 = getelementptr inbounds %class.String, %class.String* %38, i64 0, i32 0, i32 1, !dbg !3654
  %43 = load i32, i32* %42, align 8, !dbg !3654, !tbaa !3008
  %44 = sext i32 %43 to i64, !dbg !3655
  %45 = getelementptr inbounds i8, i8* %41, i64 %44, !dbg !3655
  %46 = getelementptr inbounds [1 x i32], [1 x i32]* %4, i64 0, i64 0, !dbg !3656
  %47 = call i8* @_ZN6IntArg5parseEPKcS1_biPji(%class.IntArg* nonnull %8, i8* %41, i8* %45, i1 zeroext false, i32 4, i32* nonnull %46, i32 1), !dbg !3657
  call void @llvm.dbg.value(metadata %class.String* %38, metadata !3649, metadata !DIExpression()), !dbg !3658
  %48 = load i8*, i8** %40, align 8, !dbg !3660, !tbaa !3004
  %49 = load i32, i32* %42, align 8, !dbg !3661, !tbaa !3008
  %50 = sext i32 %49 to i64, !dbg !3662
  %51 = getelementptr inbounds i8, i8* %48, i64 %50, !dbg !3662
  %52 = icmp eq i8* %47, %51, !dbg !3663
  %53 = getelementptr inbounds %class.IntArg, %class.IntArg* %8, i64 0, i32 1, !dbg !3640
  br i1 %52, label %55, label %54, !dbg !3664

54:                                               ; preds = %36
  store i32 22, i32* %53, align 4, !dbg !3665, !tbaa !3666
  br label %57, !dbg !3667

55:                                               ; preds = %36
  %56 = load i32, i32* %53, align 4, !dbg !3669, !tbaa !3666
  switch i32 %56, label %57 [
    i32 0, label %58
    i32 34, label %58
  ], !dbg !3667

57:                                               ; preds = %55, %54
  call void (%class.ArgContext*, i8*, ...) @_ZNK10ArgContext5errorEPKcz(%class.ArgContext* nonnull @blank_args, i8* getelementptr inbounds ([15 x i8], [15 x i8]* @.str.27, i64 0, i64 0)), !dbg !3670
  call void @llvm.lifetime.end.p0i8(i64 4, i8* nonnull %39) #14, !dbg !3672
  br label %62, !dbg !3673

58:                                               ; preds = %55, %55
  call void @llvm.dbg.value(metadata i32* %46, metadata !3674, metadata !DIExpression()), !dbg !3683
  call void @llvm.dbg.value(metadata i32* %46, metadata !3685, metadata !DIExpression()), !dbg !3694
  %59 = load i32, i32* %46, align 4, !dbg !3696, !tbaa !3034
  call void @llvm.lifetime.end.p0i8(i64 4, i8* nonnull %39) #14, !dbg !3672
  switch i32 %56, label %62 [
    i32 34, label %60
    i32 0, label %63
  ], !dbg !3697

60:                                               ; preds = %58
  %61 = zext i32 %59 to i64, !dbg !3698
  call void @_ZN6IntArg11range_errorERK10ArgContextbx(%class.IntArg* nonnull %8, %class.ArgContext* nonnull dereferenceable(32) @blank_args, i1 zeroext false, i64 %61), !dbg !3701
  br label %62, !dbg !3702

62:                                               ; preds = %60, %58, %57
  call void @llvm.lifetime.end.p0i8(i64 8, i8* nonnull %35) #14, !dbg !3703
  br label %66, !dbg !3704

63:                                               ; preds = %58
  store i32 %59, i32* %10, align 4, !dbg !3705, !tbaa !3034
  call void @llvm.lifetime.end.p0i8(i64 8, i8* nonnull %35) #14, !dbg !3703
  br label %77, !dbg !3704

64:                                               ; preds = %32
  call void @llvm.lifetime.end.p0i8(i64 8, i8* nonnull %35) #14, !dbg !3703
  br label %77, !dbg !3704

65:                                               ; preds = %32
  call void @llvm.lifetime.end.p0i8(i64 8, i8* nonnull %35) #14, !dbg !3703
  br label %66, !dbg !3704

66:                                               ; preds = %62, %65
  %67 = bitcast %class.Args* %9 to i8*, !dbg !3707
  call void @llvm.lifetime.start.p0i8(i64 112, i8* nonnull %67) #14, !dbg !3707
  call void @_ZN4ArgsC1ERK6VectorI6StringEPK7ElementP12ErrorHandler(%class.Args* nonnull %9, %class.Vector.0* nonnull dereferenceable(16) %1, %class.Element* %12, %class.ErrorHandler* %2), !dbg !3707
  call void @llvm.dbg.value(metadata %class.Args* %9, metadata !3709, metadata !DIExpression()), !dbg !3718
  call void @llvm.dbg.value(metadata i8* getelementptr inbounds ([7 x i8], [7 x i8]* @.str.8, i64 0, i64 0), metadata !3715, metadata !DIExpression()), !dbg !3718
  call void @llvm.dbg.value(metadata %class.Vector* %15, metadata !3717, metadata !DIExpression()), !dbg !3718
  call void @llvm.dbg.value(metadata %class.Args* %9, metadata !3720, metadata !DIExpression()), !dbg !3730
  call void @llvm.dbg.value(metadata i8* getelementptr inbounds ([7 x i8], [7 x i8]* @.str.8, i64 0, i64 0), metadata !3726, metadata !DIExpression()), !dbg !3730
  call void @llvm.dbg.value(metadata i32 0, metadata !3727, metadata !DIExpression()), !dbg !3730
  call void @llvm.dbg.value(metadata %class.Vector* %15, metadata !3729, metadata !DIExpression()), !dbg !3730
  invoke void @_Z14args_base_readIN13CheckIPHeader12OldBadSrcArgE6VectorI9IPAddressEEvP4ArgsPKciT_RT0_(%class.Args* nonnull %9, i8* getelementptr inbounds ([7 x i8], [7 x i8]* @.str.8, i64 0, i64 0), i32 0, %class.Vector* nonnull dereferenceable(16) %15)
          to label %68 unwind label %73, !dbg !3732

68:                                               ; preds = %66
  call void @llvm.dbg.value(metadata %class.Args* %9, metadata !3560, metadata !DIExpression()), !dbg !3733
  call void @llvm.dbg.value(metadata i8* getelementptr inbounds ([7 x i8], [7 x i8]* @.str.10, i64 0, i64 0), metadata !3566, metadata !DIExpression()), !dbg !3733
  call void @llvm.dbg.value(metadata i32* %10, metadata !3567, metadata !DIExpression()), !dbg !3733
  call void @llvm.dbg.value(metadata %class.Args* %9, metadata !3570, metadata !DIExpression()), !dbg !3735
  call void @llvm.dbg.value(metadata i8* getelementptr inbounds ([7 x i8], [7 x i8]* @.str.10, i64 0, i64 0), metadata !3576, metadata !DIExpression()), !dbg !3735
  call void @llvm.dbg.value(metadata i32 0, metadata !3577, metadata !DIExpression()), !dbg !3735
  call void @llvm.dbg.value(metadata i32* %10, metadata !3578, metadata !DIExpression()), !dbg !3735
  invoke void @_Z14args_base_readIjEvP4ArgsPKciRT_(%class.Args* nonnull %9, i8* getelementptr inbounds ([7 x i8], [7 x i8]* @.str.10, i64 0, i64 0), i32 0, i32* nonnull dereferenceable(4) %10)
          to label %69 unwind label %73, !dbg !3737

69:                                               ; preds = %68
  %70 = invoke i32 @_ZN4Args8completeEv(%class.Args* nonnull %9)
          to label %71 unwind label %73, !dbg !3738

71:                                               ; preds = %69
  %72 = icmp slt i32 %70, 0, !dbg !3739
  call void @_ZN4ArgsD1Ev(%class.Args* nonnull %9) #14, !dbg !3707
  call void @llvm.lifetime.end.p0i8(i64 112, i8* nonnull %67) #14, !dbg !3707
  br i1 %72, label %87, label %77, !dbg !3740

73:                                               ; preds = %66, %68, %69
  %74 = landingpad { i8*, i32 }
          cleanup, !dbg !3741
  %75 = extractvalue { i8*, i32 } %74, 0, !dbg !3741
  %76 = extractvalue { i8*, i32 } %74, 1, !dbg !3741
  call void @_ZN4ArgsD1Ev(%class.Args* nonnull %9) #14, !dbg !3707
  call void @llvm.lifetime.end.p0i8(i64 112, i8* nonnull %67) #14, !dbg !3707
  br label %89, !dbg !3707

77:                                               ; preds = %63, %71, %64
  %78 = load i8, i8* %5, align 1, !dbg !3742, !tbaa !3498, !range !3743
  call void @llvm.dbg.value(metadata i8 %78, metadata !3435, metadata !DIExpression()), !dbg !3492
  %79 = getelementptr inbounds %class.CheckIPHeader, %class.CheckIPHeader* %0, i64 0, i32 4, !dbg !3744
  store i8 %78, i8* %79, align 1, !dbg !3745, !tbaa !3746
  %80 = load i8, i8* %6, align 1, !dbg !3747, !tbaa !3498, !range !3743
  call void @llvm.dbg.value(metadata i8 %80, metadata !3436, metadata !DIExpression()), !dbg !3492
  %81 = icmp eq i8 %80, 0, !dbg !3747
  br i1 %81, label %86, label %82, !dbg !3748

82:                                               ; preds = %77
  %83 = call dereferenceable(24) i8* @_Znam(i64 24) #13, !dbg !3749
  %84 = getelementptr inbounds %class.CheckIPHeader, %class.CheckIPHeader* %0, i64 0, i32 7, !dbg !3750
  %85 = bitcast %class.atomic_uint32_t** %84 to i8**, !dbg !3751
  store i8* %83, i8** %85, align 8, !dbg !3751, !tbaa !3365
  call void @llvm.dbg.value(metadata i32 0, metadata !3437, metadata !DIExpression()), !dbg !3752
  call void @llvm.memset.p0i8.i64(i8* nonnull align 4 dereferenceable(24) %83, i8 0, i64 24, i1 false), !dbg !3753
  call void @llvm.dbg.value(metadata i32 undef, metadata !3437, metadata !DIExpression()), !dbg !3752
  call void @llvm.dbg.value(metadata i32 undef, metadata !3366, metadata !DIExpression()), !dbg !3756
  call void @llvm.dbg.value(metadata i32 undef, metadata !3369, metadata !DIExpression()), !dbg !3756
  br label %86, !dbg !3757

86:                                               ; preds = %82, %77
  call void (%class.ErrorHandler*, i8*, ...) @_ZN12ErrorHandler7messageEPKcz(%class.ErrorHandler* %2, i8* getelementptr inbounds ([39 x i8], [39 x i8]* @.str.14, i64 0, i64 0)), !dbg !3757
  br label %87, !dbg !3758

87:                                               ; preds = %71, %26, %86
  %88 = phi i32 [ 0, %86 ], [ -1, %26 ], [ -1, %71 ], !dbg !3492
  call void @llvm.lifetime.end.p0i8(i64 1, i8* nonnull %6) #14, !dbg !3759
  call void @llvm.lifetime.end.p0i8(i64 1, i8* nonnull %5) #14, !dbg !3759
  ret i32 %88, !dbg !3759

89:                                               ; preds = %73, %28
  %90 = phi i8* [ %75, %73 ], [ %30, %28 ], !dbg !3492
  %91 = phi i32 [ %76, %73 ], [ %31, %28 ], !dbg !3492
  call void @llvm.lifetime.end.p0i8(i64 1, i8* nonnull %6) #14, !dbg !3759
  call void @llvm.lifetime.end.p0i8(i64 1, i8* nonnull %5) #14, !dbg !3759
  %92 = insertvalue { i8*, i32 } undef, i8* %90, 0, !dbg !3759
  %93 = insertvalue { i8*, i32 } %92, i32 %91, 1, !dbg !3759
  resume { i8*, i32 } %93, !dbg !3759
}

declare void @_ZN4ArgsC1EPK7ElementP12ErrorHandler(%class.Args*, %class.Element*, %class.ErrorHandler*) unnamed_addr #3

declare dereferenceable(112) %class.Args* @_ZN4Args4bindER6VectorI6StringE(%class.Args*, %class.Vector.0* dereferenceable(16)) local_unnamed_addr #3

declare i32 @_ZN4Args7consumeEv(%class.Args*) local_unnamed_addr #3

; Function Attrs: nounwind
declare void @_ZN4ArgsD1Ev(%class.Args*) unnamed_addr #4

declare dereferenceable(24) %class.String* @_ZN6VectorI6StringEixEi(%class.Vector.0*, i32) local_unnamed_addr #3

declare void @_ZN4ArgsC1ERK6VectorI6StringEPK7ElementP12ErrorHandler(%class.Args*, %class.Vector.0* dereferenceable(16), %class.Element*, %class.ErrorHandler*) unnamed_addr #3

declare i32 @_ZN4Args8completeEv(%class.Args*) local_unnamed_addr #3

; Function Attrs: nobuiltin nofree
declare noalias nonnull i8* @_Znam(i64) local_unnamed_addr #7

declare void @_ZN12ErrorHandler7messageEPKcz(%class.ErrorHandler*, i8*, ...) local_unnamed_addr #3

; Function Attrs: sspstrong uwtable
define dso_local noalias %class.Packet* @_ZN13CheckIPHeader4dropENS_6ReasonEP6Packet(%class.CheckIPHeader* %0, i32 %1, %class.Packet* %2) local_unnamed_addr #0 align 2 personality i8* bitcast (i32 (...)* @__gxx_personality_v0 to i8*) !dbg !3760 {
  %4 = alloca %class.String, align 8
  call void @llvm.dbg.value(metadata %class.CheckIPHeader* %0, metadata !3762, metadata !DIExpression()), !dbg !3765
  call void @llvm.dbg.value(metadata i32 %1, metadata !3763, metadata !DIExpression()), !dbg !3765
  call void @llvm.dbg.value(metadata %class.Packet* %2, metadata !3764, metadata !DIExpression()), !dbg !3765
  call void @llvm.dbg.value(metadata %class.CheckIPHeader* %0, metadata !3766, metadata !DIExpression(DW_OP_plus_uconst, 152, DW_OP_stack_value)), !dbg !3770
  call void @llvm.dbg.value(metadata %class.CheckIPHeader* %0, metadata !3773, metadata !DIExpression(DW_OP_plus_uconst, 152, DW_OP_stack_value)), !dbg !3776
  %5 = getelementptr inbounds %class.CheckIPHeader, %class.CheckIPHeader* %0, i64 0, i32 6, i32 0, !dbg !3778
  %6 = load i32, i32* %5, align 4, !dbg !3778, !tbaa !3779
  %7 = icmp eq i32 %6, 0, !dbg !3780
  br i1 %7, label %12, label %8, !dbg !3781

8:                                                ; preds = %3
  %9 = getelementptr inbounds %class.CheckIPHeader, %class.CheckIPHeader* %0, i64 0, i32 4, !dbg !3782
  %10 = load i8, i8* %9, align 1, !dbg !3782, !tbaa !3746, !range !3743
  %11 = icmp eq i8 %10, 0, !dbg !3782
  br i1 %11, label %60, label %12, !dbg !3783

12:                                               ; preds = %8, %3
  %13 = bitcast %class.String* %4 to i8*, !dbg !3784
  call void @llvm.lifetime.start.p0i8(i64 24, i8* nonnull %13) #14, !dbg !3784
  %14 = bitcast %class.CheckIPHeader* %0 to %class.Element*, !dbg !3784
  call void @_ZNK7Element4nameEv(%class.String* nonnull sret %4, %class.Element* %14), !dbg !3784
  %15 = invoke i8* @_ZNK6String5c_strEv(%class.String* nonnull %4)
          to label %16 unwind label %40, !dbg !3785

16:                                               ; preds = %12
  %17 = zext i32 %1 to i64, !dbg !3786
  %18 = getelementptr inbounds [6 x i8*], [6 x i8*]* @_ZN13CheckIPHeader12reason_textsE, i64 0, i64 %17, !dbg !3786
  %19 = load i8*, i8** %18, align 8, !dbg !3786, !tbaa !3787
  invoke void (i8*, ...) @click_chatter(i8* getelementptr inbounds ([31 x i8], [31 x i8]* @.str.15, i64 0, i64 0), i8* %15, i8* %19)
          to label %20 unwind label %40, !dbg !3788

20:                                               ; preds = %16
  call void @llvm.dbg.value(metadata %class.String* %4, metadata !3083, metadata !DIExpression()) #14, !dbg !3789
  call void @llvm.dbg.value(metadata %class.String* %4, metadata !3078, metadata !DIExpression()) #14, !dbg !3791
  %21 = getelementptr inbounds %class.String, %class.String* %4, i64 0, i32 0, i32 2, !dbg !3793
  %22 = load %"struct.String::memo_t"*, %"struct.String::memo_t"** %21, align 8, !dbg !3793, !tbaa !3010
  %23 = icmp eq %"struct.String::memo_t"* %22, null, !dbg !3794
  br i1 %23, label %38, label %24, !dbg !3795

24:                                               ; preds = %20
  %25 = getelementptr inbounds %"struct.String::memo_t", %"struct.String::memo_t"* %22, i64 0, i32 0, !dbg !3796
  %26 = load volatile i32, i32* %25, align 4, !dbg !3796, !tbaa !3189
  %27 = icmp eq i32 %26, 0, !dbg !3796
  br i1 %27, label %28, label %29, !dbg !3796

28:                                               ; preds = %24
  call void @__assert_fail(i8* getelementptr inbounds ([18 x i8], [18 x i8]* @.str.18, i64 0, i64 0), i8* getelementptr inbounds ([29 x i8], [29 x i8]* @.str.19, i64 0, i64 0), i32 273, i8* getelementptr inbounds ([27 x i8], [27 x i8]* @__PRETTY_FUNCTION__._ZNK6String5derefEv, i64 0, i64 0)) #16, !dbg !3796
  unreachable, !dbg !3796

29:                                               ; preds = %24
  call void @llvm.dbg.value(metadata i32* %25, metadata !3191, metadata !DIExpression()) #14, !dbg !3797
  %30 = load volatile i32, i32* %25, align 4, !dbg !3799, !tbaa !3034
  %31 = add i32 %30, -1, !dbg !3799
  store volatile i32 %31, i32* %25, align 4, !dbg !3799, !tbaa !3034
  %32 = icmp eq i32 %31, 0, !dbg !3800
  br i1 %32, label %33, label %34, !dbg !3801

33:                                               ; preds = %29
  invoke void @_ZN6String11delete_memoEPNS_6memo_tE(%"struct.String::memo_t"* nonnull %22)
          to label %34 unwind label %35, !dbg !3802

34:                                               ; preds = %33, %29
  store %"struct.String::memo_t"* null, %"struct.String::memo_t"** %21, align 8, !dbg !3803, !tbaa !3010
  br label %38, !dbg !3804

35:                                               ; preds = %33
  %36 = landingpad { i8*, i32 }
          catch i8* null, !dbg !3805
  %37 = extractvalue { i8*, i32 } %36, 0, !dbg !3805
  call void @__clang_call_terminate(i8* %37) #16, !dbg !3805
  unreachable, !dbg !3805

38:                                               ; preds = %20, %34
  call void @llvm.lifetime.end.p0i8(i64 24, i8* nonnull %13) #14, !dbg !3788
  %39 = load i32, i32* %5, align 4, !dbg !3806, !tbaa !3779
  br label %60, !dbg !3788

40:                                               ; preds = %16, %12
  %41 = landingpad { i8*, i32 }
          cleanup, !dbg !3812
  call void @llvm.dbg.value(metadata %class.String* %4, metadata !3083, metadata !DIExpression()) #14, !dbg !3813
  call void @llvm.dbg.value(metadata %class.String* %4, metadata !3078, metadata !DIExpression()) #14, !dbg !3815
  %42 = getelementptr inbounds %class.String, %class.String* %4, i64 0, i32 0, i32 2, !dbg !3817
  %43 = load %"struct.String::memo_t"*, %"struct.String::memo_t"** %42, align 8, !dbg !3817, !tbaa !3010
  %44 = icmp eq %"struct.String::memo_t"* %43, null, !dbg !3818
  br i1 %44, label %59, label %45, !dbg !3819

45:                                               ; preds = %40
  %46 = getelementptr inbounds %"struct.String::memo_t", %"struct.String::memo_t"* %43, i64 0, i32 0, !dbg !3820
  %47 = load volatile i32, i32* %46, align 4, !dbg !3820, !tbaa !3189
  %48 = icmp eq i32 %47, 0, !dbg !3820
  br i1 %48, label %49, label %50, !dbg !3820

49:                                               ; preds = %45
  call void @__assert_fail(i8* getelementptr inbounds ([18 x i8], [18 x i8]* @.str.18, i64 0, i64 0), i8* getelementptr inbounds ([29 x i8], [29 x i8]* @.str.19, i64 0, i64 0), i32 273, i8* getelementptr inbounds ([27 x i8], [27 x i8]* @__PRETTY_FUNCTION__._ZNK6String5derefEv, i64 0, i64 0)) #16, !dbg !3820
  unreachable, !dbg !3820

50:                                               ; preds = %45
  call void @llvm.dbg.value(metadata i32* %46, metadata !3191, metadata !DIExpression()) #14, !dbg !3821
  %51 = load volatile i32, i32* %46, align 4, !dbg !3823, !tbaa !3034
  %52 = add i32 %51, -1, !dbg !3823
  store volatile i32 %52, i32* %46, align 4, !dbg !3823, !tbaa !3034
  %53 = icmp eq i32 %52, 0, !dbg !3824
  br i1 %53, label %54, label %55, !dbg !3825

54:                                               ; preds = %50
  invoke void @_ZN6String11delete_memoEPNS_6memo_tE(%"struct.String::memo_t"* nonnull %43)
          to label %55 unwind label %56, !dbg !3826

55:                                               ; preds = %54, %50
  store %"struct.String::memo_t"* null, %"struct.String::memo_t"** %42, align 8, !dbg !3827, !tbaa !3010
  br label %59, !dbg !3828

56:                                               ; preds = %54
  %57 = landingpad { i8*, i32 }
          catch i8* null, !dbg !3829
  %58 = extractvalue { i8*, i32 } %57, 0, !dbg !3829
  call void @__clang_call_terminate(i8* %58) #16, !dbg !3829
  unreachable, !dbg !3829

59:                                               ; preds = %40, %55
  call void @llvm.lifetime.end.p0i8(i64 24, i8* nonnull %13) #14, !dbg !3788
  resume { i8*, i32 } %41, !dbg !3788

60:                                               ; preds = %8, %38
  %61 = phi i32 [ %6, %8 ], [ %39, %38 ], !dbg !3806
  call void @llvm.dbg.value(metadata %class.CheckIPHeader* %0, metadata !3809, metadata !DIExpression(DW_OP_plus_uconst, 152, DW_OP_stack_value)), !dbg !3830
  call void @llvm.dbg.value(metadata i32 0, metadata !3810, metadata !DIExpression()), !dbg !3830
  %62 = add i32 %61, 1, !dbg !3806
  store i32 %62, i32* %5, align 4, !dbg !3806, !tbaa !3779
  %63 = getelementptr inbounds %class.CheckIPHeader, %class.CheckIPHeader* %0, i64 0, i32 7, !dbg !3831
  %64 = load %class.atomic_uint32_t*, %class.atomic_uint32_t** %63, align 8, !dbg !3831, !tbaa !3365
  %65 = icmp eq %class.atomic_uint32_t* %64, null, !dbg !3831
  br i1 %65, label %71, label %66, !dbg !3833

66:                                               ; preds = %60
  %67 = zext i32 %1 to i64, !dbg !3834
  call void @llvm.dbg.value(metadata %class.atomic_uint32_t* undef, metadata !3809, metadata !DIExpression()), !dbg !3835
  call void @llvm.dbg.value(metadata i32 0, metadata !3810, metadata !DIExpression()), !dbg !3835
  %68 = getelementptr inbounds %class.atomic_uint32_t, %class.atomic_uint32_t* %64, i64 %67, i32 0, !dbg !3837
  %69 = load i32, i32* %68, align 4, !dbg !3838, !tbaa !3779
  %70 = add i32 %69, 1, !dbg !3838
  store i32 %70, i32* %68, align 4, !dbg !3838, !tbaa !3779
  br label %71, !dbg !3834

71:                                               ; preds = %60, %66
  call void @llvm.dbg.value(metadata %class.CheckIPHeader* %0, metadata !3839, metadata !DIExpression()), !dbg !3846
  %72 = getelementptr inbounds %class.CheckIPHeader, %class.CheckIPHeader* %0, i64 0, i32 0, i32 3, i64 1, !dbg !3849
  %73 = load i32, i32* %72, align 4, !dbg !3849, !tbaa !3034
  %74 = icmp eq i32 %73, 2, !dbg !3850
  br i1 %74, label %75, label %78, !dbg !3851

75:                                               ; preds = %71
  %76 = bitcast %class.CheckIPHeader* %0 to %class.Element*, !dbg !3852
  call void @llvm.dbg.value(metadata %class.Element* %76, metadata !3839, metadata !DIExpression()), !dbg !3846
  %77 = call dereferenceable(16) %"class.Element::Port"* @_ZNK7Element6outputEi(%class.Element* %76, i32 1), !dbg !3853
  call void @_ZNK7Element4Port4pushEP6Packet(%"class.Element::Port"* nonnull %77, %class.Packet* %2), !dbg !3854
  br label %79, !dbg !3853

78:                                               ; preds = %71
  call void @_ZN6Packet4killEv(%class.Packet* %2), !dbg !3855
  br label %79

79:                                               ; preds = %78, %75
  ret %class.Packet* null, !dbg !3856
}

declare !dbg !1939 void @click_chatter(i8*, ...) local_unnamed_addr #3

declare void @_ZNK7Element4nameEv(%class.String* sret, %class.Element*) local_unnamed_addr #3

declare i8* @_ZNK6String5c_strEv(%class.String*) local_unnamed_addr #3

; Function Attrs: noinline optnone sspstrong uwtable
define linkonce_odr dso_local dereferenceable(16) %"class.Element::Port"* @_ZNK7Element6outputEi(%class.Element* %0, i32 %1) local_unnamed_addr #8 comdat align 2 !dbg !3857 {
  %3 = alloca %class.Element*, align 8
  %4 = alloca i32, align 4
  store %class.Element* %0, %class.Element** %3, align 8, !tbaa !3787
  call void @llvm.dbg.declare(metadata %class.Element** %3, metadata !3894, metadata !DIExpression()), !dbg !3896
  store i32 %1, i32* %4, align 4, !tbaa !3034
  call void @llvm.dbg.declare(metadata i32* %4, metadata !3895, metadata !DIExpression()), !dbg !3897
  %5 = load %class.Element*, %class.Element** %3, align 8
  %6 = load i32, i32* %4, align 4, !dbg !3898, !tbaa !3034
  %7 = call dereferenceable(16) %"class.Element::Port"* @_ZNK7Element4portEbi(%class.Element* %5, i1 zeroext true, i32 %6), !dbg !3899
  ret %"class.Element::Port"* %7, !dbg !3900
}

; Function Attrs: noinline optnone sspstrong uwtable
define linkonce_odr dso_local void @_ZNK7Element4Port4pushEP6Packet(%"class.Element::Port"* %0, %class.Packet* %1) local_unnamed_addr #8 comdat align 2 !dbg !3901 {
  %3 = alloca %"class.Element::Port"*, align 8
  %4 = alloca %class.Packet*, align 8
  store %"class.Element::Port"* %0, %"class.Element::Port"** %3, align 8, !tbaa !3787
  call void @llvm.dbg.declare(metadata %"class.Element::Port"** %3, metadata !3903, metadata !DIExpression()), !dbg !3906
  store %class.Packet* %1, %class.Packet** %4, align 8, !tbaa !3787
  call void @llvm.dbg.declare(metadata %class.Packet** %4, metadata !3905, metadata !DIExpression()), !dbg !3907
  %5 = load %"class.Element::Port"*, %"class.Element::Port"** %3, align 8
  %6 = getelementptr inbounds %"class.Element::Port", %"class.Element::Port"* %5, i32 0, i32 0, !dbg !3908
  %7 = load %class.Element*, %class.Element** %6, align 8, !dbg !3908, !tbaa !3909
  %8 = icmp ne %class.Element* %7, null, !dbg !3908
  br i1 %8, label %9, label %12, !dbg !3908

9:                                                ; preds = %2
  %10 = load %class.Packet*, %class.Packet** %4, align 8, !dbg !3908, !tbaa !3787
  %11 = icmp ne %class.Packet* %10, null, !dbg !3908
  br label %12

12:                                               ; preds = %9, %2
  %13 = phi i1 [ false, %2 ], [ %11, %9 ], !dbg !3906
  br i1 %13, label %14, label %15, !dbg !3908

14:                                               ; preds = %12
  br label %16, !dbg !3908

15:                                               ; preds = %12
  call void @__assert_fail(i8* getelementptr inbounds ([8 x i8], [8 x i8]* @.str.22, i64 0, i64 0), i8* getelementptr inbounds ([30 x i8], [30 x i8]* @.str.21, i64 0, i64 0), i32 611, i8* getelementptr inbounds ([41 x i8], [41 x i8]* @__PRETTY_FUNCTION__._ZNK7Element4Port4pushEP6Packet, i64 0, i64 0)) #16, !dbg !3908
  unreachable, !dbg !3908

16:                                               ; preds = %14
  %17 = getelementptr inbounds %"class.Element::Port", %"class.Element::Port"* %5, i32 0, i32 0, !dbg !3911
  %18 = load %class.Element*, %class.Element** %17, align 8, !dbg !3911, !tbaa !3909
  %19 = getelementptr inbounds %"class.Element::Port", %"class.Element::Port"* %5, i32 0, i32 1, !dbg !3912
  %20 = load i32, i32* %19, align 8, !dbg !3912, !tbaa !3913
  %21 = load %class.Packet*, %class.Packet** %4, align 8, !dbg !3914, !tbaa !3787
  %22 = bitcast %class.Element* %18 to void (%class.Element*, i32, %class.Packet*)***, !dbg !3915
  %23 = load void (%class.Element*, i32, %class.Packet*)**, void (%class.Element*, i32, %class.Packet*)*** %22, align 8, !dbg !3915, !tbaa !3342
  %24 = getelementptr inbounds void (%class.Element*, i32, %class.Packet*)*, void (%class.Element*, i32, %class.Packet*)** %23, i64 2, !dbg !3915
  %25 = load void (%class.Element*, i32, %class.Packet*)*, void (%class.Element*, i32, %class.Packet*)** %24, align 8, !dbg !3915
  call void %25(%class.Element* %18, i32 %20, %class.Packet* %21), !dbg !3915
  ret void, !dbg !3916
}

declare void @_ZN6Packet4killEv(%class.Packet*) local_unnamed_addr #3

; Function Attrs: sspstrong uwtable
define dso_local %class.Packet* @_ZN13CheckIPHeader13simple_actionEP6Packet(%class.CheckIPHeader* %0, %class.Packet* %1) unnamed_addr #0 align 2 !dbg !3917 {
  %3 = alloca %class.IPAddress, align 4
  %4 = alloca %class.IPAddress, align 4
  call void @llvm.dbg.value(metadata %class.CheckIPHeader* %0, metadata !3919, metadata !DIExpression()), !dbg !3928
  call void @llvm.dbg.value(metadata %class.Packet* %1, metadata !3920, metadata !DIExpression()), !dbg !3928
  %5 = getelementptr inbounds %class.CheckIPHeader, %class.CheckIPHeader* %0, i64 0, i32 1, !dbg !3929
  store i32 0, i32* %5, align 4, !dbg !3930, !tbaa !3495
  %6 = tail call i8* @_ZNK6Packet4dataEv(%class.Packet* %1), !dbg !3931
  %7 = load i32, i32* %5, align 4, !dbg !3932, !tbaa !3495
  %8 = zext i32 %7 to i64, !dbg !3933
  %9 = getelementptr inbounds i8, i8* %6, i64 %8, !dbg !3933
  %10 = bitcast i8* %9 to %struct.click_ip*, !dbg !3934
  call void @llvm.dbg.value(metadata %struct.click_ip* %10, metadata !3921, metadata !DIExpression()), !dbg !3928
  %11 = tail call i32 @_ZNK6Packet6lengthEv(%class.Packet* %1), !dbg !3935
  %12 = load i32, i32* %5, align 4, !dbg !3936, !tbaa !3495
  %13 = sub i32 %11, %12, !dbg !3937
  call void @llvm.dbg.value(metadata i32 %13, metadata !3922, metadata !DIExpression()), !dbg !3928
  %14 = icmp slt i32 %13, 20, !dbg !3938
  br i1 %14, label %15, label %17, !dbg !3940

15:                                               ; preds = %2
  %16 = tail call %class.Packet* @_ZN13CheckIPHeader4dropENS_6ReasonEP6Packet(%class.CheckIPHeader* nonnull %0, i32 0, %class.Packet* %1), !dbg !3941
  br label %85, !dbg !3942

17:                                               ; preds = %2
  %18 = load i8, i8* %9, align 4, !dbg !3943
  %19 = and i8 %18, -16, !dbg !3945
  %20 = icmp eq i8 %19, 64, !dbg !3945
  br i1 %20, label %23, label %21, !dbg !3946

21:                                               ; preds = %17
  %22 = tail call %class.Packet* @_ZN13CheckIPHeader4dropENS_6ReasonEP6Packet(%class.CheckIPHeader* nonnull %0, i32 1, %class.Packet* %1), !dbg !3947
  br label %85, !dbg !3948

23:                                               ; preds = %17
  %24 = shl i8 %18, 2, !dbg !3949
  %25 = and i8 %24, 60, !dbg !3949
  %26 = zext i8 %25 to i32, !dbg !3949
  call void @llvm.dbg.value(metadata i32 %26, metadata !3923, metadata !DIExpression()), !dbg !3928
  %27 = icmp ult i8 %25, 20, !dbg !3950
  br i1 %27, label %28, label %30, !dbg !3952

28:                                               ; preds = %23
  %29 = tail call %class.Packet* @_ZN13CheckIPHeader4dropENS_6ReasonEP6Packet(%class.CheckIPHeader* nonnull %0, i32 2, %class.Packet* %1), !dbg !3953
  br label %85, !dbg !3954

30:                                               ; preds = %23
  %31 = getelementptr inbounds i8, i8* %9, i64 2, !dbg !3955
  %32 = bitcast i8* %31 to i16*, !dbg !3955
  %33 = load i16, i16* %32, align 2, !dbg !3955, !tbaa !3956
  %34 = tail call i16 @llvm.bswap.i16(i16 %33) #14
  %35 = zext i16 %34 to i32, !dbg !3955
  call void @llvm.dbg.value(metadata i32 %35, metadata !3924, metadata !DIExpression()), !dbg !3928
  %36 = icmp ult i32 %13, %35, !dbg !3960
  %37 = icmp ult i32 %35, %26, !dbg !3962
  %38 = or i1 %36, %37, !dbg !3963
  br i1 %38, label %39, label %41, !dbg !3963

39:                                               ; preds = %30
  %40 = tail call %class.Packet* @_ZN13CheckIPHeader4dropENS_6ReasonEP6Packet(%class.CheckIPHeader* nonnull %0, i32 3, %class.Packet* %1), !dbg !3964
  br label %85, !dbg !3965

41:                                               ; preds = %30
  %42 = getelementptr inbounds %class.CheckIPHeader, %class.CheckIPHeader* %0, i64 0, i32 3, !dbg !3966
  %43 = load i8, i8* %42, align 8, !dbg !3966, !tbaa !3357, !range !3743
  %44 = icmp eq i8 %43, 0, !dbg !3966
  br i1 %44, label %50, label %45, !dbg !3967

45:                                               ; preds = %41
  %46 = tail call zeroext i16 @click_in_cksum(i8* nonnull %9, i32 %26), !dbg !3968
  call void @llvm.dbg.value(metadata i16 %46, metadata !3925, metadata !DIExpression()), !dbg !3969
  %47 = icmp eq i16 %46, 0, !dbg !3970
  br i1 %47, label %50, label %48, !dbg !3972

48:                                               ; preds = %45
  %49 = tail call %class.Packet* @_ZN13CheckIPHeader4dropENS_6ReasonEP6Packet(%class.CheckIPHeader* nonnull %0, i32 4, %class.Packet* %1), !dbg !3973
  br label %85

50:                                               ; preds = %45, %41
  %51 = getelementptr inbounds %class.CheckIPHeader, %class.CheckIPHeader* %0, i64 0, i32 2, !dbg !3974
  %52 = tail call %class.IPAddress* @_ZN6VectorI9IPAddressE5beginEv(%class.Vector* nonnull %51), !dbg !3976
  %53 = tail call %class.IPAddress* @_ZN6VectorI9IPAddressE3endEv(%class.Vector* nonnull %51), !dbg !3977
  %54 = bitcast %class.IPAddress* %3 to i8*, !dbg !3978
  call void @llvm.lifetime.start.p0i8(i64 4, i8* nonnull %54) #14, !dbg !3978
  %55 = getelementptr inbounds i8, i8* %9, i64 12, !dbg !3979
  %56 = bitcast i8* %55 to i32*, !dbg !3979
  %57 = load i32, i32* %56, align 4, !dbg !3979, !tbaa.struct !3108
  call void @llvm.dbg.value(metadata i32 %57, metadata !3980, metadata !DIExpression()), !dbg !3984
  call void @llvm.dbg.value(metadata %class.IPAddress* %3, metadata !3983, metadata !DIExpression()), !dbg !3984
  %58 = getelementptr inbounds %class.IPAddress, %class.IPAddress* %3, i64 0, i32 0, !dbg !3986
  store i32 %57, i32* %58, align 4, !dbg !3986, !tbaa !3044
  %59 = call %class.IPAddress* @_Z4findI9IPAddressEPT_S2_S2_RKS1_(%class.IPAddress* %52, %class.IPAddress* %53, %class.IPAddress* nonnull dereferenceable(4) %3), !dbg !3987
  %60 = call %class.IPAddress* @_ZN6VectorI9IPAddressE3endEv(%class.Vector* nonnull %51), !dbg !3988
  %61 = icmp eq %class.IPAddress* %59, %60, !dbg !3989
  %62 = bitcast %class.IPAddress* %4 to i8*, !dbg !3990
  call void @llvm.lifetime.start.p0i8(i64 4, i8* nonnull %62) #14, !dbg !3990
  br i1 %61, label %76, label %63, !dbg !3990

63:                                               ; preds = %50
  %64 = getelementptr inbounds %class.CheckIPHeader, %class.CheckIPHeader* %0, i64 0, i32 5, !dbg !3991
  %65 = call %class.IPAddress* @_ZN6VectorI9IPAddressE5beginEv(%class.Vector* nonnull %64), !dbg !3992
  %66 = call %class.IPAddress* @_ZN6VectorI9IPAddressE3endEv(%class.Vector* nonnull %64), !dbg !3993
  %67 = getelementptr inbounds i8, i8* %9, i64 16, !dbg !3994
  %68 = bitcast i8* %67 to i32*, !dbg !3994
  %69 = load i32, i32* %68, align 4, !dbg !3994, !tbaa.struct !3108
  call void @llvm.dbg.value(metadata i32 %69, metadata !3980, metadata !DIExpression()), !dbg !3995
  call void @llvm.dbg.value(metadata %class.IPAddress* %4, metadata !3983, metadata !DIExpression()), !dbg !3995
  %70 = getelementptr inbounds %class.IPAddress, %class.IPAddress* %4, i64 0, i32 0, !dbg !3997
  store i32 %69, i32* %70, align 4, !dbg !3997, !tbaa !3044
  %71 = call %class.IPAddress* @_Z4findI9IPAddressEPT_S2_S2_RKS1_(%class.IPAddress* %65, %class.IPAddress* %66, %class.IPAddress* nonnull dereferenceable(4) %4), !dbg !3998
  %72 = call %class.IPAddress* @_ZN6VectorI9IPAddressE3endEv(%class.Vector* nonnull %64), !dbg !3999
  %73 = icmp eq %class.IPAddress* %71, %72, !dbg !4000
  call void @llvm.lifetime.end.p0i8(i64 4, i8* nonnull %62) #14, !dbg !3987
  call void @llvm.lifetime.end.p0i8(i64 4, i8* nonnull %54) #14, !dbg !3987
  br i1 %73, label %74, label %77, !dbg !4001

74:                                               ; preds = %63
  %75 = call %class.Packet* @_ZN13CheckIPHeader4dropENS_6ReasonEP6Packet(%class.CheckIPHeader* nonnull %0, i32 5, %class.Packet* %1), !dbg !4002
  br label %85, !dbg !4003

76:                                               ; preds = %50
  call void @llvm.lifetime.end.p0i8(i64 4, i8* nonnull %62) #14, !dbg !3987
  call void @llvm.lifetime.end.p0i8(i64 4, i8* nonnull %54) #14, !dbg !3987
  br label %77, !dbg !4001

77:                                               ; preds = %76, %63
  call void @_ZN6Packet13set_ip_headerEPK8click_ipj(%class.Packet* %1, %struct.click_ip* nonnull %10, i32 %26), !dbg !4004
  %78 = icmp ugt i32 %13, %35, !dbg !4005
  br i1 %78, label %79, label %81, !dbg !4007

79:                                               ; preds = %77
  %80 = sub nsw i32 %13, %35, !dbg !4008
  call void @_ZN6Packet4takeEj(%class.Packet* %1, i32 %80), !dbg !4009
  br label %81, !dbg !4010

81:                                               ; preds = %79, %77
  %82 = getelementptr inbounds i8, i8* %9, i64 16, !dbg !4011
  %83 = bitcast i8* %82 to i32*, !dbg !4011
  %84 = load i32, i32* %83, align 4, !dbg !4011, !tbaa.struct !3108
  call void @llvm.dbg.value(metadata i32 %84, metadata !3980, metadata !DIExpression()), !dbg !4012
  call void @llvm.dbg.value(metadata %class.IPAddress* undef, metadata !3983, metadata !DIExpression()), !dbg !4012
  call void @_ZN6Packet15set_dst_ip_annoE9IPAddress(%class.Packet* %1, i32 %84), !dbg !4014
  br label %85, !dbg !4015

85:                                               ; preds = %48, %81, %74, %39, %28, %21, %15
  %86 = phi %class.Packet* [ null, %15 ], [ null, %21 ], [ null, %28 ], [ null, %39 ], [ null, %74 ], [ %1, %81 ], [ null, %48 ], !dbg !3928
  ret %class.Packet* %86, !dbg !4016
}

declare i8* @_ZNK6Packet4dataEv(%class.Packet*) local_unnamed_addr #3

declare i32 @_ZNK6Packet6lengthEv(%class.Packet*) local_unnamed_addr #3

declare !dbg !1942 zeroext i16 @click_in_cksum(i8*, i32) local_unnamed_addr #3

; Function Attrs: noinline optnone sspstrong uwtable
define linkonce_odr dso_local %class.IPAddress* @_Z4findI9IPAddressEPT_S2_S2_RKS1_(%class.IPAddress* %0, %class.IPAddress* %1, %class.IPAddress* dereferenceable(4) %2) local_unnamed_addr #8 comdat !dbg !4017 {
  %4 = alloca %class.IPAddress*, align 8
  %5 = alloca %class.IPAddress*, align 8
  %6 = alloca %class.IPAddress*, align 8
  %7 = alloca %class.IPAddress, align 4
  %8 = alloca %class.IPAddress, align 4
  store %class.IPAddress* %0, %class.IPAddress** %4, align 8, !tbaa !3787
  call void @llvm.dbg.declare(metadata %class.IPAddress** %4, metadata !4019, metadata !DIExpression()), !dbg !4022
  store %class.IPAddress* %1, %class.IPAddress** %5, align 8, !tbaa !3787
  call void @llvm.dbg.declare(metadata %class.IPAddress** %5, metadata !4020, metadata !DIExpression()), !dbg !4023
  store %class.IPAddress* %2, %class.IPAddress** %6, align 8, !tbaa !3787
  call void @llvm.dbg.declare(metadata %class.IPAddress** %6, metadata !4021, metadata !DIExpression()), !dbg !4024
  br label %9, !dbg !4025

9:                                                ; preds = %27, %3
  %10 = load %class.IPAddress*, %class.IPAddress** %4, align 8, !dbg !4026, !tbaa !3787
  %11 = load %class.IPAddress*, %class.IPAddress** %5, align 8, !dbg !4027, !tbaa !3787
  %12 = icmp ult %class.IPAddress* %10, %11, !dbg !4028
  br i1 %12, label %13, label %25, !dbg !4029

13:                                               ; preds = %9
  %14 = load %class.IPAddress*, %class.IPAddress** %4, align 8, !dbg !4030, !tbaa !3787
  %15 = bitcast %class.IPAddress* %7 to i8*, !dbg !4031
  %16 = bitcast %class.IPAddress* %14 to i8*, !dbg !4031
  call void @llvm.memcpy.p0i8.p0i8.i64(i8* align 4 %15, i8* align 4 %16, i64 4, i1 false), !dbg !4031, !tbaa.struct !3108
  %17 = load %class.IPAddress*, %class.IPAddress** %6, align 8, !dbg !4032, !tbaa !3787
  %18 = bitcast %class.IPAddress* %8 to i8*, !dbg !4032
  %19 = bitcast %class.IPAddress* %17 to i8*, !dbg !4032
  call void @llvm.memcpy.p0i8.p0i8.i64(i8* align 4 %18, i8* align 4 %19, i64 4, i1 false), !dbg !4032, !tbaa.struct !3108
  %20 = getelementptr inbounds %class.IPAddress, %class.IPAddress* %7, i32 0, i32 0, !dbg !4033
  %21 = load i32, i32* %20, align 4, !dbg !4033
  %22 = getelementptr inbounds %class.IPAddress, %class.IPAddress* %8, i32 0, i32 0, !dbg !4033
  %23 = load i32, i32* %22, align 4, !dbg !4033
  %24 = call zeroext i1 @_Zne9IPAddressS_(i32 %21, i32 %23), !dbg !4033
  br label %25

25:                                               ; preds = %13, %9
  %26 = phi i1 [ false, %9 ], [ %24, %13 ], !dbg !4034
  br i1 %26, label %27, label %30, !dbg !4025

27:                                               ; preds = %25
  %28 = load %class.IPAddress*, %class.IPAddress** %4, align 8, !dbg !4035, !tbaa !3787
  %29 = getelementptr inbounds %class.IPAddress, %class.IPAddress* %28, i32 1, !dbg !4035
  store %class.IPAddress* %29, %class.IPAddress** %4, align 8, !dbg !4035, !tbaa !3787
  br label %9, !dbg !4025, !llvm.loop !4036

30:                                               ; preds = %25
  %31 = load %class.IPAddress*, %class.IPAddress** %4, align 8, !dbg !4038, !tbaa !3787
  ret %class.IPAddress* %31, !dbg !4039
}

; Function Attrs: noinline nounwind optnone sspstrong uwtable
define linkonce_odr dso_local %class.IPAddress* @_ZN6VectorI9IPAddressE5beginEv(%class.Vector* %0) local_unnamed_addr #9 comdat align 2 !dbg !4040 {
  %2 = alloca %class.Vector*, align 8
  store %class.Vector* %0, %class.Vector** %2, align 8, !tbaa !3787
  call void @llvm.dbg.declare(metadata %class.Vector** %2, metadata !4042, metadata !DIExpression()), !dbg !4043
  %3 = load %class.Vector*, %class.Vector** %2, align 8
  %4 = getelementptr inbounds %class.Vector, %class.Vector* %3, i32 0, i32 0, !dbg !4044
  %5 = getelementptr inbounds %class.vector_memory, %class.vector_memory* %4, i32 0, i32 0, !dbg !4045
  %6 = load %struct.char_array*, %struct.char_array** %5, align 8, !dbg !4045, !tbaa !4046
  %7 = bitcast %struct.char_array* %6 to %class.IPAddress*, !dbg !4047
  ret %class.IPAddress* %7, !dbg !4048
}

; Function Attrs: noinline nounwind optnone sspstrong uwtable
define linkonce_odr dso_local %class.IPAddress* @_ZN6VectorI9IPAddressE3endEv(%class.Vector* %0) local_unnamed_addr #9 comdat align 2 !dbg !4049 {
  %2 = alloca %class.Vector*, align 8
  store %class.Vector* %0, %class.Vector** %2, align 8, !tbaa !3787
  call void @llvm.dbg.declare(metadata %class.Vector** %2, metadata !4051, metadata !DIExpression()), !dbg !4052
  %3 = load %class.Vector*, %class.Vector** %2, align 8
  %4 = getelementptr inbounds %class.Vector, %class.Vector* %3, i32 0, i32 0, !dbg !4053
  %5 = getelementptr inbounds %class.vector_memory, %class.vector_memory* %4, i32 0, i32 0, !dbg !4054
  %6 = load %struct.char_array*, %struct.char_array** %5, align 8, !dbg !4054, !tbaa !4046
  %7 = bitcast %struct.char_array* %6 to %class.IPAddress*, !dbg !4055
  %8 = getelementptr inbounds %class.Vector, %class.Vector* %3, i32 0, i32 0, !dbg !4056
  %9 = getelementptr inbounds %class.vector_memory, %class.vector_memory* %8, i32 0, i32 1, !dbg !4057
  %10 = load i32, i32* %9, align 8, !dbg !4057, !tbaa !3232
  %11 = sext i32 %10 to i64, !dbg !4058
  %12 = getelementptr inbounds %class.IPAddress, %class.IPAddress* %7, i64 %11, !dbg !4058
  ret %class.IPAddress* %12, !dbg !4059
}

declare void @_ZN6Packet13set_ip_headerEPK8click_ipj(%class.Packet*, %struct.click_ip*, i32) local_unnamed_addr #3

declare void @_ZN6Packet4takeEj(%class.Packet*, i32) local_unnamed_addr #3

declare void @_ZN6Packet15set_dst_ip_annoE9IPAddress(%class.Packet*, i32) local_unnamed_addr #3

; Function Attrs: sspstrong uwtable
define dso_local void @_ZN13CheckIPHeader12read_handlerEP7ElementPv(%class.String* noalias sret %0, %class.Element* nocapture readonly %1, i8* nocapture readnone %2) #0 align 2 personality i8* bitcast (i32 (...)* @__gxx_personality_v0 to i8*) !dbg !4060 {
  %4 = alloca %class.StringAccum, align 8
  call void @llvm.dbg.value(metadata %class.Element* %1, metadata !4062, metadata !DIExpression()), !dbg !4068
  call void @llvm.dbg.value(metadata i8* undef, metadata !4063, metadata !DIExpression()), !dbg !4068
  call void @llvm.dbg.value(metadata %class.Element* %1, metadata !4064, metadata !DIExpression()), !dbg !4068
  %5 = bitcast %class.StringAccum* %4 to i8*, !dbg !4069
  call void @llvm.lifetime.start.p0i8(i64 16, i8* nonnull %5) #14, !dbg !4069
  call void @llvm.dbg.declare(metadata %class.StringAccum* %4, metadata !4065, metadata !DIExpression()), !dbg !4070
  call void @llvm.dbg.value(metadata %class.StringAccum* %4, metadata !4071, metadata !DIExpression()), !dbg !4075
  call void @llvm.dbg.value(metadata %class.StringAccum* %4, metadata !4077, metadata !DIExpression()), !dbg !4081
  %6 = getelementptr inbounds %class.StringAccum, %class.StringAccum* %4, i64 0, i32 0, i32 0, !dbg !4083
  store i8* @_ZN6String9null_dataE, i8** %6, align 8, !dbg !4083, !tbaa !4084
  %7 = getelementptr inbounds %class.StringAccum, %class.StringAccum* %4, i64 0, i32 0, i32 1, !dbg !4086
  store i32 0, i32* %7, align 8, !dbg !4086, !tbaa !4087
  %8 = getelementptr inbounds %class.StringAccum, %class.StringAccum* %4, i64 0, i32 0, i32 2, !dbg !4088
  store i32 0, i32* %8, align 4, !dbg !4088, !tbaa !4089
  call void @llvm.dbg.value(metadata i32 0, metadata !4066, metadata !DIExpression()), !dbg !4090
  %9 = getelementptr inbounds %class.Element, %class.Element* %1, i64 1, i32 2, i64 1, i32 1, !dbg !4091
  %10 = bitcast i32* %9 to %class.atomic_uint32_t**, !dbg !4091
  call void @llvm.dbg.value(metadata i64 0, metadata !4066, metadata !DIExpression()), !dbg !4090
  %11 = load %class.atomic_uint32_t*, %class.atomic_uint32_t** %10, align 8, !dbg !4093, !tbaa !3365
  call void @llvm.dbg.value(metadata %class.atomic_uint32_t* undef, metadata !3766, metadata !DIExpression()), !dbg !4094
  call void @llvm.dbg.value(metadata %class.atomic_uint32_t* undef, metadata !3773, metadata !DIExpression()), !dbg !4096
  %12 = getelementptr inbounds %class.atomic_uint32_t, %class.atomic_uint32_t* %11, i64 0, i32 0, !dbg !4098
  %13 = load i32, i32* %12, align 4, !dbg !4098, !tbaa !3779
  call void @llvm.dbg.value(metadata %class.StringAccum* %4, metadata !4099, metadata !DIExpression()), !dbg !4105
  call void @llvm.dbg.value(metadata i32 %13, metadata !4104, metadata !DIExpression()), !dbg !4105
  %14 = zext i32 %13 to i64, !dbg !4107
  %15 = invoke dereferenceable(16) %class.StringAccum* @_ZlsR11StringAccumm(%class.StringAccum* nonnull dereferenceable(16) %4, i64 %14)
          to label %16 unwind label %59, !dbg !4108

16:                                               ; preds = %3
  call void @llvm.dbg.value(metadata %class.StringAccum* %15, metadata !4109, metadata !DIExpression()), !dbg !4115
  call void @llvm.dbg.value(metadata i8 9, metadata !4114, metadata !DIExpression()), !dbg !4115
  call void @llvm.dbg.value(metadata %class.StringAccum* %15, metadata !4117, metadata !DIExpression()), !dbg !4121
  call void @llvm.dbg.value(metadata i8 9, metadata !4120, metadata !DIExpression()), !dbg !4121
  %17 = getelementptr inbounds %class.StringAccum, %class.StringAccum* %15, i64 0, i32 0, i32 1, !dbg !4123
  %18 = load i32, i32* %17, align 8, !dbg !4123, !tbaa !4125
  %19 = getelementptr inbounds %class.StringAccum, %class.StringAccum* %15, i64 0, i32 0, i32 2, !dbg !4127
  %20 = load i32, i32* %19, align 4, !dbg !4127, !tbaa !4128
  %21 = icmp slt i32 %18, %20, !dbg !4129
  br i1 %21, label %28, label %22, !dbg !4130

22:                                               ; preds = %16
  %23 = invoke i8* @_ZN11StringAccum4growEi(%class.StringAccum* nonnull %15, i32 %18)
          to label %24 unwind label %59, !dbg !4131

24:                                               ; preds = %22
  %25 = icmp eq i8* %23, null, !dbg !4131
  br i1 %25, label %35, label %26, !dbg !4132

26:                                               ; preds = %24
  %27 = load i32, i32* %17, align 8, !dbg !4133, !tbaa !4125
  br label %28, !dbg !4132

28:                                               ; preds = %26, %16
  %29 = phi i32 [ %27, %26 ], [ %18, %16 ], !dbg !4133
  %30 = getelementptr inbounds %class.StringAccum, %class.StringAccum* %15, i64 0, i32 0, i32 0, !dbg !4134
  %31 = load i8*, i8** %30, align 8, !dbg !4134, !tbaa !4135
  %32 = add nsw i32 %29, 1, !dbg !4133
  store i32 %32, i32* %17, align 8, !dbg !4133, !tbaa !4125
  %33 = sext i32 %29 to i64, !dbg !4136
  %34 = getelementptr inbounds i8, i8* %31, i64 %33, !dbg !4136
  store i8 9, i8* %34, align 1, !dbg !4137, !tbaa !4138
  br label %35, !dbg !4136

35:                                               ; preds = %24, %28
  call void @llvm.dbg.value(metadata %class.StringAccum* %15, metadata !4139, metadata !DIExpression()), !dbg !4145
  call void @llvm.dbg.value(metadata i8* undef, metadata !4144, metadata !DIExpression()), !dbg !4145
  call void @llvm.dbg.value(metadata %class.StringAccum* %15, metadata !4147, metadata !DIExpression()), !dbg !4151
  call void @llvm.dbg.value(metadata i8* undef, metadata !4150, metadata !DIExpression()), !dbg !4151
  call void @llvm.dbg.value(metadata i8* getelementptr inbounds ([12 x i8], [12 x i8]* @.str, i32 0, i32 0), metadata !4144, metadata !DIExpression()), !dbg !4145
  call void @llvm.dbg.value(metadata i8* getelementptr inbounds ([12 x i8], [12 x i8]* @.str, i32 0, i32 0), metadata !4150, metadata !DIExpression()), !dbg !4151
  invoke void @_ZN11StringAccum16hard_append_cstrEPKc(%class.StringAccum* nonnull %15, i8* getelementptr inbounds ([12 x i8], [12 x i8]* @.str, i64 0, i64 0))
          to label %36 unwind label %59, !dbg !4153

36:                                               ; preds = %35
  call void @llvm.dbg.value(metadata %class.StringAccum* %15, metadata !4109, metadata !DIExpression()), !dbg !4155
  call void @llvm.dbg.value(metadata i8 10, metadata !4114, metadata !DIExpression()), !dbg !4155
  call void @llvm.dbg.value(metadata %class.StringAccum* %15, metadata !4117, metadata !DIExpression()), !dbg !4157
  call void @llvm.dbg.value(metadata i8 10, metadata !4120, metadata !DIExpression()), !dbg !4157
  %37 = load i32, i32* %17, align 8, !dbg !4159, !tbaa !4125
  %38 = load i32, i32* %19, align 4, !dbg !4160, !tbaa !4128
  %39 = icmp slt i32 %37, %38, !dbg !4161
  br i1 %39, label %46, label %40, !dbg !4162

40:                                               ; preds = %36
  %41 = invoke i8* @_ZN11StringAccum4growEi(%class.StringAccum* nonnull %15, i32 %37)
          to label %42 unwind label %59, !dbg !4163

42:                                               ; preds = %40
  %43 = icmp eq i8* %41, null, !dbg !4163
  br i1 %43, label %53, label %44, !dbg !4164

44:                                               ; preds = %42
  %45 = load i32, i32* %17, align 8, !dbg !4165, !tbaa !4125
  br label %46, !dbg !4164

46:                                               ; preds = %44, %36
  %47 = phi i32 [ %45, %44 ], [ %37, %36 ], !dbg !4165
  %48 = getelementptr inbounds %class.StringAccum, %class.StringAccum* %15, i64 0, i32 0, i32 0, !dbg !4166
  %49 = load i8*, i8** %48, align 8, !dbg !4166, !tbaa !4135
  %50 = add nsw i32 %47, 1, !dbg !4165
  store i32 %50, i32* %17, align 8, !dbg !4165, !tbaa !4125
  %51 = sext i32 %47 to i64, !dbg !4167
  %52 = getelementptr inbounds i8, i8* %49, i64 %51, !dbg !4167
  store i8 10, i8* %52, align 1, !dbg !4168, !tbaa !4138
  br label %53, !dbg !4167

53:                                               ; preds = %46, %42
  call void @llvm.dbg.value(metadata i64 1, metadata !4066, metadata !DIExpression()), !dbg !4090
  %54 = load %class.atomic_uint32_t*, %class.atomic_uint32_t** %10, align 8, !dbg !4093, !tbaa !3365
  call void @llvm.dbg.value(metadata %class.atomic_uint32_t* undef, metadata !3766, metadata !DIExpression()), !dbg !4094
  call void @llvm.dbg.value(metadata %class.atomic_uint32_t* undef, metadata !3773, metadata !DIExpression()), !dbg !4096
  %55 = getelementptr inbounds %class.atomic_uint32_t, %class.atomic_uint32_t* %54, i64 1, i32 0, !dbg !4098
  %56 = load i32, i32* %55, align 4, !dbg !4098, !tbaa !3779
  call void @llvm.dbg.value(metadata %class.StringAccum* %4, metadata !4099, metadata !DIExpression()), !dbg !4105
  call void @llvm.dbg.value(metadata i32 %56, metadata !4104, metadata !DIExpression()), !dbg !4105
  %57 = zext i32 %56 to i64, !dbg !4107
  %58 = invoke dereferenceable(16) %class.StringAccum* @_ZlsR11StringAccumm(%class.StringAccum* nonnull dereferenceable(16) %4, i64 %57)
          to label %78 unwind label %59, !dbg !4108

59:                                               ; preds = %274, %269, %256, %244, %231, %226, %213, %201, %188, %183, %170, %158, %145, %140, %127, %115, %102, %97, %84, %53, %40, %35, %22, %3
  %60 = landingpad { i8*, i32 }
          cleanup, !dbg !4169
  br label %70, !dbg !4170

61:                                               ; preds = %287
  call void @llvm.dbg.value(metadata %class.StringAccum* %4, metadata !4171, metadata !DIExpression()) #14, !dbg !4174
  %62 = load i32, i32* %8, align 4, !dbg !4176, !tbaa !4128
  %63 = icmp sgt i32 %62, 0, !dbg !4179
  br i1 %63, label %64, label %67, !dbg !4180

64:                                               ; preds = %61
  %65 = load i8*, i8** %6, align 8, !dbg !4181, !tbaa !4135
  %66 = getelementptr inbounds i8, i8* %65, i64 -12, !dbg !4181
  call void @_ZdaPv(i8* nonnull %66) #15, !dbg !4181
  br label %67, !dbg !4181

67:                                               ; preds = %61, %64
  call void @llvm.lifetime.end.p0i8(i64 16, i8* nonnull %5) #14, !dbg !4182
  ret void, !dbg !4182

68:                                               ; preds = %287
  %69 = landingpad { i8*, i32 }
          cleanup, !dbg !4182
  br label %70, !dbg !4182

70:                                               ; preds = %68, %59
  %71 = phi { i8*, i32 } [ %69, %68 ], [ %60, %59 ]
  call void @llvm.dbg.value(metadata %class.StringAccum* %4, metadata !4171, metadata !DIExpression()) #14, !dbg !4183
  %72 = load i32, i32* %8, align 4, !dbg !4185, !tbaa !4128
  %73 = icmp sgt i32 %72, 0, !dbg !4186
  br i1 %73, label %74, label %77, !dbg !4187

74:                                               ; preds = %70
  %75 = load i8*, i8** %6, align 8, !dbg !4188, !tbaa !4135
  %76 = getelementptr inbounds i8, i8* %75, i64 -12, !dbg !4188
  call void @_ZdaPv(i8* nonnull %76) #15, !dbg !4188
  br label %77, !dbg !4188

77:                                               ; preds = %70, %74
  call void @llvm.lifetime.end.p0i8(i64 16, i8* nonnull %5) #14, !dbg !4182
  resume { i8*, i32 } %71, !dbg !4182

78:                                               ; preds = %53
  call void @llvm.dbg.value(metadata %class.StringAccum* %58, metadata !4109, metadata !DIExpression()), !dbg !4115
  call void @llvm.dbg.value(metadata i8 9, metadata !4114, metadata !DIExpression()), !dbg !4115
  call void @llvm.dbg.value(metadata %class.StringAccum* %58, metadata !4117, metadata !DIExpression()), !dbg !4121
  call void @llvm.dbg.value(metadata i8 9, metadata !4120, metadata !DIExpression()), !dbg !4121
  %79 = getelementptr inbounds %class.StringAccum, %class.StringAccum* %58, i64 0, i32 0, i32 1, !dbg !4123
  %80 = load i32, i32* %79, align 8, !dbg !4123, !tbaa !4125
  %81 = getelementptr inbounds %class.StringAccum, %class.StringAccum* %58, i64 0, i32 0, i32 2, !dbg !4127
  %82 = load i32, i32* %81, align 4, !dbg !4127, !tbaa !4128
  %83 = icmp slt i32 %80, %82, !dbg !4129
  br i1 %83, label %90, label %84, !dbg !4130

84:                                               ; preds = %78
  %85 = invoke i8* @_ZN11StringAccum4growEi(%class.StringAccum* nonnull %58, i32 %80)
          to label %86 unwind label %59, !dbg !4131

86:                                               ; preds = %84
  %87 = icmp eq i8* %85, null, !dbg !4131
  br i1 %87, label %97, label %88, !dbg !4132

88:                                               ; preds = %86
  %89 = load i32, i32* %79, align 8, !dbg !4133, !tbaa !4125
  br label %90, !dbg !4132

90:                                               ; preds = %88, %78
  %91 = phi i32 [ %89, %88 ], [ %80, %78 ], !dbg !4133
  %92 = getelementptr inbounds %class.StringAccum, %class.StringAccum* %58, i64 0, i32 0, i32 0, !dbg !4134
  %93 = load i8*, i8** %92, align 8, !dbg !4134, !tbaa !4135
  %94 = add nsw i32 %91, 1, !dbg !4133
  store i32 %94, i32* %79, align 8, !dbg !4133, !tbaa !4125
  %95 = sext i32 %91 to i64, !dbg !4136
  %96 = getelementptr inbounds i8, i8* %93, i64 %95, !dbg !4136
  store i8 9, i8* %96, align 1, !dbg !4137, !tbaa !4138
  br label %97, !dbg !4136

97:                                               ; preds = %90, %86
  call void @llvm.dbg.value(metadata %class.StringAccum* %58, metadata !4139, metadata !DIExpression()), !dbg !4145
  call void @llvm.dbg.value(metadata i8* undef, metadata !4144, metadata !DIExpression()), !dbg !4145
  call void @llvm.dbg.value(metadata %class.StringAccum* %58, metadata !4147, metadata !DIExpression()), !dbg !4151
  call void @llvm.dbg.value(metadata i8* undef, metadata !4150, metadata !DIExpression()), !dbg !4151
  call void @llvm.dbg.value(metadata i8* getelementptr inbounds ([15 x i8], [15 x i8]* @.str.1, i32 0, i32 0), metadata !4144, metadata !DIExpression()), !dbg !4145
  call void @llvm.dbg.value(metadata i8* getelementptr inbounds ([15 x i8], [15 x i8]* @.str.1, i32 0, i32 0), metadata !4150, metadata !DIExpression()), !dbg !4151
  invoke void @_ZN11StringAccum16hard_append_cstrEPKc(%class.StringAccum* nonnull %58, i8* getelementptr inbounds ([15 x i8], [15 x i8]* @.str.1, i64 0, i64 0))
          to label %98 unwind label %59, !dbg !4153

98:                                               ; preds = %97
  call void @llvm.dbg.value(metadata %class.StringAccum* %58, metadata !4109, metadata !DIExpression()), !dbg !4155
  call void @llvm.dbg.value(metadata i8 10, metadata !4114, metadata !DIExpression()), !dbg !4155
  call void @llvm.dbg.value(metadata %class.StringAccum* %58, metadata !4117, metadata !DIExpression()), !dbg !4157
  call void @llvm.dbg.value(metadata i8 10, metadata !4120, metadata !DIExpression()), !dbg !4157
  %99 = load i32, i32* %79, align 8, !dbg !4159, !tbaa !4125
  %100 = load i32, i32* %81, align 4, !dbg !4160, !tbaa !4128
  %101 = icmp slt i32 %99, %100, !dbg !4161
  br i1 %101, label %108, label %102, !dbg !4162

102:                                              ; preds = %98
  %103 = invoke i8* @_ZN11StringAccum4growEi(%class.StringAccum* nonnull %58, i32 %99)
          to label %104 unwind label %59, !dbg !4163

104:                                              ; preds = %102
  %105 = icmp eq i8* %103, null, !dbg !4163
  br i1 %105, label %115, label %106, !dbg !4164

106:                                              ; preds = %104
  %107 = load i32, i32* %79, align 8, !dbg !4165, !tbaa !4125
  br label %108, !dbg !4164

108:                                              ; preds = %106, %98
  %109 = phi i32 [ %107, %106 ], [ %99, %98 ], !dbg !4165
  %110 = getelementptr inbounds %class.StringAccum, %class.StringAccum* %58, i64 0, i32 0, i32 0, !dbg !4166
  %111 = load i8*, i8** %110, align 8, !dbg !4166, !tbaa !4135
  %112 = add nsw i32 %109, 1, !dbg !4165
  store i32 %112, i32* %79, align 8, !dbg !4165, !tbaa !4125
  %113 = sext i32 %109 to i64, !dbg !4167
  %114 = getelementptr inbounds i8, i8* %111, i64 %113, !dbg !4167
  store i8 10, i8* %114, align 1, !dbg !4168, !tbaa !4138
  br label %115, !dbg !4167

115:                                              ; preds = %108, %104
  call void @llvm.dbg.value(metadata i64 2, metadata !4066, metadata !DIExpression()), !dbg !4090
  %116 = load %class.atomic_uint32_t*, %class.atomic_uint32_t** %10, align 8, !dbg !4093, !tbaa !3365
  call void @llvm.dbg.value(metadata %class.atomic_uint32_t* undef, metadata !3766, metadata !DIExpression()), !dbg !4094
  call void @llvm.dbg.value(metadata %class.atomic_uint32_t* undef, metadata !3773, metadata !DIExpression()), !dbg !4096
  %117 = getelementptr inbounds %class.atomic_uint32_t, %class.atomic_uint32_t* %116, i64 2, i32 0, !dbg !4098
  %118 = load i32, i32* %117, align 4, !dbg !4098, !tbaa !3779
  call void @llvm.dbg.value(metadata %class.StringAccum* %4, metadata !4099, metadata !DIExpression()), !dbg !4105
  call void @llvm.dbg.value(metadata i32 %118, metadata !4104, metadata !DIExpression()), !dbg !4105
  %119 = zext i32 %118 to i64, !dbg !4107
  %120 = invoke dereferenceable(16) %class.StringAccum* @_ZlsR11StringAccumm(%class.StringAccum* nonnull dereferenceable(16) %4, i64 %119)
          to label %121 unwind label %59, !dbg !4108

121:                                              ; preds = %115
  call void @llvm.dbg.value(metadata %class.StringAccum* %120, metadata !4109, metadata !DIExpression()), !dbg !4115
  call void @llvm.dbg.value(metadata i8 9, metadata !4114, metadata !DIExpression()), !dbg !4115
  call void @llvm.dbg.value(metadata %class.StringAccum* %120, metadata !4117, metadata !DIExpression()), !dbg !4121
  call void @llvm.dbg.value(metadata i8 9, metadata !4120, metadata !DIExpression()), !dbg !4121
  %122 = getelementptr inbounds %class.StringAccum, %class.StringAccum* %120, i64 0, i32 0, i32 1, !dbg !4123
  %123 = load i32, i32* %122, align 8, !dbg !4123, !tbaa !4125
  %124 = getelementptr inbounds %class.StringAccum, %class.StringAccum* %120, i64 0, i32 0, i32 2, !dbg !4127
  %125 = load i32, i32* %124, align 4, !dbg !4127, !tbaa !4128
  %126 = icmp slt i32 %123, %125, !dbg !4129
  br i1 %126, label %133, label %127, !dbg !4130

127:                                              ; preds = %121
  %128 = invoke i8* @_ZN11StringAccum4growEi(%class.StringAccum* nonnull %120, i32 %123)
          to label %129 unwind label %59, !dbg !4131

129:                                              ; preds = %127
  %130 = icmp eq i8* %128, null, !dbg !4131
  br i1 %130, label %140, label %131, !dbg !4132

131:                                              ; preds = %129
  %132 = load i32, i32* %122, align 8, !dbg !4133, !tbaa !4125
  br label %133, !dbg !4132

133:                                              ; preds = %131, %121
  %134 = phi i32 [ %132, %131 ], [ %123, %121 ], !dbg !4133
  %135 = getelementptr inbounds %class.StringAccum, %class.StringAccum* %120, i64 0, i32 0, i32 0, !dbg !4134
  %136 = load i8*, i8** %135, align 8, !dbg !4134, !tbaa !4135
  %137 = add nsw i32 %134, 1, !dbg !4133
  store i32 %137, i32* %122, align 8, !dbg !4133, !tbaa !4125
  %138 = sext i32 %134 to i64, !dbg !4136
  %139 = getelementptr inbounds i8, i8* %136, i64 %138, !dbg !4136
  store i8 9, i8* %139, align 1, !dbg !4137, !tbaa !4138
  br label %140, !dbg !4136

140:                                              ; preds = %133, %129
  call void @llvm.dbg.value(metadata %class.StringAccum* %120, metadata !4139, metadata !DIExpression()), !dbg !4145
  call void @llvm.dbg.value(metadata i8* undef, metadata !4144, metadata !DIExpression()), !dbg !4145
  call void @llvm.dbg.value(metadata %class.StringAccum* %120, metadata !4147, metadata !DIExpression()), !dbg !4151
  call void @llvm.dbg.value(metadata i8* undef, metadata !4150, metadata !DIExpression()), !dbg !4151
  call void @llvm.dbg.value(metadata i8* getelementptr inbounds ([21 x i8], [21 x i8]* @.str.2, i32 0, i32 0), metadata !4144, metadata !DIExpression()), !dbg !4145
  call void @llvm.dbg.value(metadata i8* getelementptr inbounds ([21 x i8], [21 x i8]* @.str.2, i32 0, i32 0), metadata !4150, metadata !DIExpression()), !dbg !4151
  invoke void @_ZN11StringAccum16hard_append_cstrEPKc(%class.StringAccum* nonnull %120, i8* getelementptr inbounds ([21 x i8], [21 x i8]* @.str.2, i64 0, i64 0))
          to label %141 unwind label %59, !dbg !4153

141:                                              ; preds = %140
  call void @llvm.dbg.value(metadata %class.StringAccum* %120, metadata !4109, metadata !DIExpression()), !dbg !4155
  call void @llvm.dbg.value(metadata i8 10, metadata !4114, metadata !DIExpression()), !dbg !4155
  call void @llvm.dbg.value(metadata %class.StringAccum* %120, metadata !4117, metadata !DIExpression()), !dbg !4157
  call void @llvm.dbg.value(metadata i8 10, metadata !4120, metadata !DIExpression()), !dbg !4157
  %142 = load i32, i32* %122, align 8, !dbg !4159, !tbaa !4125
  %143 = load i32, i32* %124, align 4, !dbg !4160, !tbaa !4128
  %144 = icmp slt i32 %142, %143, !dbg !4161
  br i1 %144, label %151, label %145, !dbg !4162

145:                                              ; preds = %141
  %146 = invoke i8* @_ZN11StringAccum4growEi(%class.StringAccum* nonnull %120, i32 %142)
          to label %147 unwind label %59, !dbg !4163

147:                                              ; preds = %145
  %148 = icmp eq i8* %146, null, !dbg !4163
  br i1 %148, label %158, label %149, !dbg !4164

149:                                              ; preds = %147
  %150 = load i32, i32* %122, align 8, !dbg !4165, !tbaa !4125
  br label %151, !dbg !4164

151:                                              ; preds = %149, %141
  %152 = phi i32 [ %150, %149 ], [ %142, %141 ], !dbg !4165
  %153 = getelementptr inbounds %class.StringAccum, %class.StringAccum* %120, i64 0, i32 0, i32 0, !dbg !4166
  %154 = load i8*, i8** %153, align 8, !dbg !4166, !tbaa !4135
  %155 = add nsw i32 %152, 1, !dbg !4165
  store i32 %155, i32* %122, align 8, !dbg !4165, !tbaa !4125
  %156 = sext i32 %152 to i64, !dbg !4167
  %157 = getelementptr inbounds i8, i8* %154, i64 %156, !dbg !4167
  store i8 10, i8* %157, align 1, !dbg !4168, !tbaa !4138
  br label %158, !dbg !4167

158:                                              ; preds = %151, %147
  call void @llvm.dbg.value(metadata i64 3, metadata !4066, metadata !DIExpression()), !dbg !4090
  %159 = load %class.atomic_uint32_t*, %class.atomic_uint32_t** %10, align 8, !dbg !4093, !tbaa !3365
  call void @llvm.dbg.value(metadata %class.atomic_uint32_t* undef, metadata !3766, metadata !DIExpression()), !dbg !4094
  call void @llvm.dbg.value(metadata %class.atomic_uint32_t* undef, metadata !3773, metadata !DIExpression()), !dbg !4096
  %160 = getelementptr inbounds %class.atomic_uint32_t, %class.atomic_uint32_t* %159, i64 3, i32 0, !dbg !4098
  %161 = load i32, i32* %160, align 4, !dbg !4098, !tbaa !3779
  call void @llvm.dbg.value(metadata %class.StringAccum* %4, metadata !4099, metadata !DIExpression()), !dbg !4105
  call void @llvm.dbg.value(metadata i32 %161, metadata !4104, metadata !DIExpression()), !dbg !4105
  %162 = zext i32 %161 to i64, !dbg !4107
  %163 = invoke dereferenceable(16) %class.StringAccum* @_ZlsR11StringAccumm(%class.StringAccum* nonnull dereferenceable(16) %4, i64 %162)
          to label %164 unwind label %59, !dbg !4108

164:                                              ; preds = %158
  call void @llvm.dbg.value(metadata %class.StringAccum* %163, metadata !4109, metadata !DIExpression()), !dbg !4115
  call void @llvm.dbg.value(metadata i8 9, metadata !4114, metadata !DIExpression()), !dbg !4115
  call void @llvm.dbg.value(metadata %class.StringAccum* %163, metadata !4117, metadata !DIExpression()), !dbg !4121
  call void @llvm.dbg.value(metadata i8 9, metadata !4120, metadata !DIExpression()), !dbg !4121
  %165 = getelementptr inbounds %class.StringAccum, %class.StringAccum* %163, i64 0, i32 0, i32 1, !dbg !4123
  %166 = load i32, i32* %165, align 8, !dbg !4123, !tbaa !4125
  %167 = getelementptr inbounds %class.StringAccum, %class.StringAccum* %163, i64 0, i32 0, i32 2, !dbg !4127
  %168 = load i32, i32* %167, align 4, !dbg !4127, !tbaa !4128
  %169 = icmp slt i32 %166, %168, !dbg !4129
  br i1 %169, label %176, label %170, !dbg !4130

170:                                              ; preds = %164
  %171 = invoke i8* @_ZN11StringAccum4growEi(%class.StringAccum* nonnull %163, i32 %166)
          to label %172 unwind label %59, !dbg !4131

172:                                              ; preds = %170
  %173 = icmp eq i8* %171, null, !dbg !4131
  br i1 %173, label %183, label %174, !dbg !4132

174:                                              ; preds = %172
  %175 = load i32, i32* %165, align 8, !dbg !4133, !tbaa !4125
  br label %176, !dbg !4132

176:                                              ; preds = %174, %164
  %177 = phi i32 [ %175, %174 ], [ %166, %164 ], !dbg !4133
  %178 = getelementptr inbounds %class.StringAccum, %class.StringAccum* %163, i64 0, i32 0, i32 0, !dbg !4134
  %179 = load i8*, i8** %178, align 8, !dbg !4134, !tbaa !4135
  %180 = add nsw i32 %177, 1, !dbg !4133
  store i32 %180, i32* %165, align 8, !dbg !4133, !tbaa !4125
  %181 = sext i32 %177 to i64, !dbg !4136
  %182 = getelementptr inbounds i8, i8* %179, i64 %181, !dbg !4136
  store i8 9, i8* %182, align 1, !dbg !4137, !tbaa !4138
  br label %183, !dbg !4136

183:                                              ; preds = %176, %172
  call void @llvm.dbg.value(metadata %class.StringAccum* %163, metadata !4139, metadata !DIExpression()), !dbg !4145
  call void @llvm.dbg.value(metadata i8* undef, metadata !4144, metadata !DIExpression()), !dbg !4145
  call void @llvm.dbg.value(metadata %class.StringAccum* %163, metadata !4147, metadata !DIExpression()), !dbg !4151
  call void @llvm.dbg.value(metadata i8* undef, metadata !4150, metadata !DIExpression()), !dbg !4151
  call void @llvm.dbg.value(metadata i8* getelementptr inbounds ([14 x i8], [14 x i8]* @.str.3, i32 0, i32 0), metadata !4144, metadata !DIExpression()), !dbg !4145
  call void @llvm.dbg.value(metadata i8* getelementptr inbounds ([14 x i8], [14 x i8]* @.str.3, i32 0, i32 0), metadata !4150, metadata !DIExpression()), !dbg !4151
  invoke void @_ZN11StringAccum16hard_append_cstrEPKc(%class.StringAccum* nonnull %163, i8* getelementptr inbounds ([14 x i8], [14 x i8]* @.str.3, i64 0, i64 0))
          to label %184 unwind label %59, !dbg !4153

184:                                              ; preds = %183
  call void @llvm.dbg.value(metadata %class.StringAccum* %163, metadata !4109, metadata !DIExpression()), !dbg !4155
  call void @llvm.dbg.value(metadata i8 10, metadata !4114, metadata !DIExpression()), !dbg !4155
  call void @llvm.dbg.value(metadata %class.StringAccum* %163, metadata !4117, metadata !DIExpression()), !dbg !4157
  call void @llvm.dbg.value(metadata i8 10, metadata !4120, metadata !DIExpression()), !dbg !4157
  %185 = load i32, i32* %165, align 8, !dbg !4159, !tbaa !4125
  %186 = load i32, i32* %167, align 4, !dbg !4160, !tbaa !4128
  %187 = icmp slt i32 %185, %186, !dbg !4161
  br i1 %187, label %194, label %188, !dbg !4162

188:                                              ; preds = %184
  %189 = invoke i8* @_ZN11StringAccum4growEi(%class.StringAccum* nonnull %163, i32 %185)
          to label %190 unwind label %59, !dbg !4163

190:                                              ; preds = %188
  %191 = icmp eq i8* %189, null, !dbg !4163
  br i1 %191, label %201, label %192, !dbg !4164

192:                                              ; preds = %190
  %193 = load i32, i32* %165, align 8, !dbg !4165, !tbaa !4125
  br label %194, !dbg !4164

194:                                              ; preds = %192, %184
  %195 = phi i32 [ %193, %192 ], [ %185, %184 ], !dbg !4165
  %196 = getelementptr inbounds %class.StringAccum, %class.StringAccum* %163, i64 0, i32 0, i32 0, !dbg !4166
  %197 = load i8*, i8** %196, align 8, !dbg !4166, !tbaa !4135
  %198 = add nsw i32 %195, 1, !dbg !4165
  store i32 %198, i32* %165, align 8, !dbg !4165, !tbaa !4125
  %199 = sext i32 %195 to i64, !dbg !4167
  %200 = getelementptr inbounds i8, i8* %197, i64 %199, !dbg !4167
  store i8 10, i8* %200, align 1, !dbg !4168, !tbaa !4138
  br label %201, !dbg !4167

201:                                              ; preds = %194, %190
  call void @llvm.dbg.value(metadata i64 4, metadata !4066, metadata !DIExpression()), !dbg !4090
  %202 = load %class.atomic_uint32_t*, %class.atomic_uint32_t** %10, align 8, !dbg !4093, !tbaa !3365
  call void @llvm.dbg.value(metadata %class.atomic_uint32_t* undef, metadata !3766, metadata !DIExpression()), !dbg !4094
  call void @llvm.dbg.value(metadata %class.atomic_uint32_t* undef, metadata !3773, metadata !DIExpression()), !dbg !4096
  %203 = getelementptr inbounds %class.atomic_uint32_t, %class.atomic_uint32_t* %202, i64 4, i32 0, !dbg !4098
  %204 = load i32, i32* %203, align 4, !dbg !4098, !tbaa !3779
  call void @llvm.dbg.value(metadata %class.StringAccum* %4, metadata !4099, metadata !DIExpression()), !dbg !4105
  call void @llvm.dbg.value(metadata i32 %204, metadata !4104, metadata !DIExpression()), !dbg !4105
  %205 = zext i32 %204 to i64, !dbg !4107
  %206 = invoke dereferenceable(16) %class.StringAccum* @_ZlsR11StringAccumm(%class.StringAccum* nonnull dereferenceable(16) %4, i64 %205)
          to label %207 unwind label %59, !dbg !4108

207:                                              ; preds = %201
  call void @llvm.dbg.value(metadata %class.StringAccum* %206, metadata !4109, metadata !DIExpression()), !dbg !4115
  call void @llvm.dbg.value(metadata i8 9, metadata !4114, metadata !DIExpression()), !dbg !4115
  call void @llvm.dbg.value(metadata %class.StringAccum* %206, metadata !4117, metadata !DIExpression()), !dbg !4121
  call void @llvm.dbg.value(metadata i8 9, metadata !4120, metadata !DIExpression()), !dbg !4121
  %208 = getelementptr inbounds %class.StringAccum, %class.StringAccum* %206, i64 0, i32 0, i32 1, !dbg !4123
  %209 = load i32, i32* %208, align 8, !dbg !4123, !tbaa !4125
  %210 = getelementptr inbounds %class.StringAccum, %class.StringAccum* %206, i64 0, i32 0, i32 2, !dbg !4127
  %211 = load i32, i32* %210, align 4, !dbg !4127, !tbaa !4128
  %212 = icmp slt i32 %209, %211, !dbg !4129
  br i1 %212, label %219, label %213, !dbg !4130

213:                                              ; preds = %207
  %214 = invoke i8* @_ZN11StringAccum4growEi(%class.StringAccum* nonnull %206, i32 %209)
          to label %215 unwind label %59, !dbg !4131

215:                                              ; preds = %213
  %216 = icmp eq i8* %214, null, !dbg !4131
  br i1 %216, label %226, label %217, !dbg !4132

217:                                              ; preds = %215
  %218 = load i32, i32* %208, align 8, !dbg !4133, !tbaa !4125
  br label %219, !dbg !4132

219:                                              ; preds = %217, %207
  %220 = phi i32 [ %218, %217 ], [ %209, %207 ], !dbg !4133
  %221 = getelementptr inbounds %class.StringAccum, %class.StringAccum* %206, i64 0, i32 0, i32 0, !dbg !4134
  %222 = load i8*, i8** %221, align 8, !dbg !4134, !tbaa !4135
  %223 = add nsw i32 %220, 1, !dbg !4133
  store i32 %223, i32* %208, align 8, !dbg !4133, !tbaa !4125
  %224 = sext i32 %220 to i64, !dbg !4136
  %225 = getelementptr inbounds i8, i8* %222, i64 %224, !dbg !4136
  store i8 9, i8* %225, align 1, !dbg !4137, !tbaa !4138
  br label %226, !dbg !4136

226:                                              ; preds = %219, %215
  call void @llvm.dbg.value(metadata %class.StringAccum* %206, metadata !4139, metadata !DIExpression()), !dbg !4145
  call void @llvm.dbg.value(metadata i8* undef, metadata !4144, metadata !DIExpression()), !dbg !4145
  call void @llvm.dbg.value(metadata %class.StringAccum* %206, metadata !4147, metadata !DIExpression()), !dbg !4151
  call void @llvm.dbg.value(metadata i8* undef, metadata !4150, metadata !DIExpression()), !dbg !4151
  call void @llvm.dbg.value(metadata i8* getelementptr inbounds ([16 x i8], [16 x i8]* @.str.4, i32 0, i32 0), metadata !4144, metadata !DIExpression()), !dbg !4145
  call void @llvm.dbg.value(metadata i8* getelementptr inbounds ([16 x i8], [16 x i8]* @.str.4, i32 0, i32 0), metadata !4150, metadata !DIExpression()), !dbg !4151
  invoke void @_ZN11StringAccum16hard_append_cstrEPKc(%class.StringAccum* nonnull %206, i8* getelementptr inbounds ([16 x i8], [16 x i8]* @.str.4, i64 0, i64 0))
          to label %227 unwind label %59, !dbg !4153

227:                                              ; preds = %226
  call void @llvm.dbg.value(metadata %class.StringAccum* %206, metadata !4109, metadata !DIExpression()), !dbg !4155
  call void @llvm.dbg.value(metadata i8 10, metadata !4114, metadata !DIExpression()), !dbg !4155
  call void @llvm.dbg.value(metadata %class.StringAccum* %206, metadata !4117, metadata !DIExpression()), !dbg !4157
  call void @llvm.dbg.value(metadata i8 10, metadata !4120, metadata !DIExpression()), !dbg !4157
  %228 = load i32, i32* %208, align 8, !dbg !4159, !tbaa !4125
  %229 = load i32, i32* %210, align 4, !dbg !4160, !tbaa !4128
  %230 = icmp slt i32 %228, %229, !dbg !4161
  br i1 %230, label %237, label %231, !dbg !4162

231:                                              ; preds = %227
  %232 = invoke i8* @_ZN11StringAccum4growEi(%class.StringAccum* nonnull %206, i32 %228)
          to label %233 unwind label %59, !dbg !4163

233:                                              ; preds = %231
  %234 = icmp eq i8* %232, null, !dbg !4163
  br i1 %234, label %244, label %235, !dbg !4164

235:                                              ; preds = %233
  %236 = load i32, i32* %208, align 8, !dbg !4165, !tbaa !4125
  br label %237, !dbg !4164

237:                                              ; preds = %235, %227
  %238 = phi i32 [ %236, %235 ], [ %228, %227 ], !dbg !4165
  %239 = getelementptr inbounds %class.StringAccum, %class.StringAccum* %206, i64 0, i32 0, i32 0, !dbg !4166
  %240 = load i8*, i8** %239, align 8, !dbg !4166, !tbaa !4135
  %241 = add nsw i32 %238, 1, !dbg !4165
  store i32 %241, i32* %208, align 8, !dbg !4165, !tbaa !4125
  %242 = sext i32 %238 to i64, !dbg !4167
  %243 = getelementptr inbounds i8, i8* %240, i64 %242, !dbg !4167
  store i8 10, i8* %243, align 1, !dbg !4168, !tbaa !4138
  br label %244, !dbg !4167

244:                                              ; preds = %237, %233
  call void @llvm.dbg.value(metadata i64 5, metadata !4066, metadata !DIExpression()), !dbg !4090
  %245 = load %class.atomic_uint32_t*, %class.atomic_uint32_t** %10, align 8, !dbg !4093, !tbaa !3365
  call void @llvm.dbg.value(metadata %class.atomic_uint32_t* undef, metadata !3766, metadata !DIExpression()), !dbg !4094
  call void @llvm.dbg.value(metadata %class.atomic_uint32_t* undef, metadata !3773, metadata !DIExpression()), !dbg !4096
  %246 = getelementptr inbounds %class.atomic_uint32_t, %class.atomic_uint32_t* %245, i64 5, i32 0, !dbg !4098
  %247 = load i32, i32* %246, align 4, !dbg !4098, !tbaa !3779
  call void @llvm.dbg.value(metadata %class.StringAccum* %4, metadata !4099, metadata !DIExpression()), !dbg !4105
  call void @llvm.dbg.value(metadata i32 %247, metadata !4104, metadata !DIExpression()), !dbg !4105
  %248 = zext i32 %247 to i64, !dbg !4107
  %249 = invoke dereferenceable(16) %class.StringAccum* @_ZlsR11StringAccumm(%class.StringAccum* nonnull dereferenceable(16) %4, i64 %248)
          to label %250 unwind label %59, !dbg !4108

250:                                              ; preds = %244
  call void @llvm.dbg.value(metadata %class.StringAccum* %249, metadata !4109, metadata !DIExpression()), !dbg !4115
  call void @llvm.dbg.value(metadata i8 9, metadata !4114, metadata !DIExpression()), !dbg !4115
  call void @llvm.dbg.value(metadata %class.StringAccum* %249, metadata !4117, metadata !DIExpression()), !dbg !4121
  call void @llvm.dbg.value(metadata i8 9, metadata !4120, metadata !DIExpression()), !dbg !4121
  %251 = getelementptr inbounds %class.StringAccum, %class.StringAccum* %249, i64 0, i32 0, i32 1, !dbg !4123
  %252 = load i32, i32* %251, align 8, !dbg !4123, !tbaa !4125
  %253 = getelementptr inbounds %class.StringAccum, %class.StringAccum* %249, i64 0, i32 0, i32 2, !dbg !4127
  %254 = load i32, i32* %253, align 4, !dbg !4127, !tbaa !4128
  %255 = icmp slt i32 %252, %254, !dbg !4129
  br i1 %255, label %262, label %256, !dbg !4130

256:                                              ; preds = %250
  %257 = invoke i8* @_ZN11StringAccum4growEi(%class.StringAccum* nonnull %249, i32 %252)
          to label %258 unwind label %59, !dbg !4131

258:                                              ; preds = %256
  %259 = icmp eq i8* %257, null, !dbg !4131
  br i1 %259, label %269, label %260, !dbg !4132

260:                                              ; preds = %258
  %261 = load i32, i32* %251, align 8, !dbg !4133, !tbaa !4125
  br label %262, !dbg !4132

262:                                              ; preds = %260, %250
  %263 = phi i32 [ %261, %260 ], [ %252, %250 ], !dbg !4133
  %264 = getelementptr inbounds %class.StringAccum, %class.StringAccum* %249, i64 0, i32 0, i32 0, !dbg !4134
  %265 = load i8*, i8** %264, align 8, !dbg !4134, !tbaa !4135
  %266 = add nsw i32 %263, 1, !dbg !4133
  store i32 %266, i32* %251, align 8, !dbg !4133, !tbaa !4125
  %267 = sext i32 %263 to i64, !dbg !4136
  %268 = getelementptr inbounds i8, i8* %265, i64 %267, !dbg !4136
  store i8 9, i8* %268, align 1, !dbg !4137, !tbaa !4138
  br label %269, !dbg !4136

269:                                              ; preds = %262, %258
  call void @llvm.dbg.value(metadata %class.StringAccum* %249, metadata !4139, metadata !DIExpression()), !dbg !4145
  call void @llvm.dbg.value(metadata i8* undef, metadata !4144, metadata !DIExpression()), !dbg !4145
  call void @llvm.dbg.value(metadata %class.StringAccum* %249, metadata !4147, metadata !DIExpression()), !dbg !4151
  call void @llvm.dbg.value(metadata i8* undef, metadata !4150, metadata !DIExpression()), !dbg !4151
  call void @llvm.dbg.value(metadata i8* getelementptr inbounds ([19 x i8], [19 x i8]* @.str.5, i32 0, i32 0), metadata !4144, metadata !DIExpression()), !dbg !4145
  call void @llvm.dbg.value(metadata i8* getelementptr inbounds ([19 x i8], [19 x i8]* @.str.5, i32 0, i32 0), metadata !4150, metadata !DIExpression()), !dbg !4151
  invoke void @_ZN11StringAccum16hard_append_cstrEPKc(%class.StringAccum* nonnull %249, i8* getelementptr inbounds ([19 x i8], [19 x i8]* @.str.5, i64 0, i64 0))
          to label %270 unwind label %59, !dbg !4153

270:                                              ; preds = %269
  call void @llvm.dbg.value(metadata %class.StringAccum* %249, metadata !4109, metadata !DIExpression()), !dbg !4155
  call void @llvm.dbg.value(metadata i8 10, metadata !4114, metadata !DIExpression()), !dbg !4155
  call void @llvm.dbg.value(metadata %class.StringAccum* %249, metadata !4117, metadata !DIExpression()), !dbg !4157
  call void @llvm.dbg.value(metadata i8 10, metadata !4120, metadata !DIExpression()), !dbg !4157
  %271 = load i32, i32* %251, align 8, !dbg !4159, !tbaa !4125
  %272 = load i32, i32* %253, align 4, !dbg !4160, !tbaa !4128
  %273 = icmp slt i32 %271, %272, !dbg !4161
  br i1 %273, label %280, label %274, !dbg !4162

274:                                              ; preds = %270
  %275 = invoke i8* @_ZN11StringAccum4growEi(%class.StringAccum* nonnull %249, i32 %271)
          to label %276 unwind label %59, !dbg !4163

276:                                              ; preds = %274
  %277 = icmp eq i8* %275, null, !dbg !4163
  br i1 %277, label %287, label %278, !dbg !4164

278:                                              ; preds = %276
  %279 = load i32, i32* %251, align 8, !dbg !4165, !tbaa !4125
  br label %280, !dbg !4164

280:                                              ; preds = %278, %270
  %281 = phi i32 [ %279, %278 ], [ %271, %270 ], !dbg !4165
  %282 = getelementptr inbounds %class.StringAccum, %class.StringAccum* %249, i64 0, i32 0, i32 0, !dbg !4166
  %283 = load i8*, i8** %282, align 8, !dbg !4166, !tbaa !4135
  %284 = add nsw i32 %281, 1, !dbg !4165
  store i32 %284, i32* %251, align 8, !dbg !4165, !tbaa !4125
  %285 = sext i32 %281 to i64, !dbg !4167
  %286 = getelementptr inbounds i8, i8* %283, i64 %285, !dbg !4167
  store i8 10, i8* %286, align 1, !dbg !4168, !tbaa !4138
  br label %287, !dbg !4167

287:                                              ; preds = %280, %276
  call void @llvm.dbg.value(metadata i64 6, metadata !4066, metadata !DIExpression()), !dbg !4090
  invoke void @_ZN11StringAccum11take_stringEv(%class.String* sret %0, %class.StringAccum* nonnull %4)
          to label %61 unwind label %68, !dbg !4189
}

declare void @_ZN11StringAccum11take_stringEv(%class.String* sret, %class.StringAccum*) local_unnamed_addr #3

; Function Attrs: sspstrong uwtable
define dso_local void @_ZN13CheckIPHeader12add_handlersEv(%class.CheckIPHeader* %0) unnamed_addr #0 align 2 !dbg !4190 {
  call void @llvm.dbg.value(metadata %class.CheckIPHeader* %0, metadata !4192, metadata !DIExpression()), !dbg !4193
  %2 = bitcast %class.CheckIPHeader* %0 to %class.Element*, !dbg !4194
  %3 = getelementptr inbounds %class.CheckIPHeader, %class.CheckIPHeader* %0, i64 0, i32 6, !dbg !4195
  tail call void @_ZN7Element17add_data_handlersEPKciP15atomic_uint32_t(%class.Element* %2, i8* getelementptr inbounds ([6 x i8], [6 x i8]* @.str.16, i64 0, i64 0), i32 1, %class.atomic_uint32_t* nonnull %3), !dbg !4194
  %4 = getelementptr inbounds %class.CheckIPHeader, %class.CheckIPHeader* %0, i64 0, i32 7, !dbg !4196
  %5 = load %class.atomic_uint32_t*, %class.atomic_uint32_t** %4, align 8, !dbg !4196, !tbaa !3365
  %6 = icmp eq %class.atomic_uint32_t* %5, null, !dbg !4196
  br i1 %6, label %8, label %7, !dbg !4198

7:                                                ; preds = %1
  tail call void @_ZN7Element16add_read_handlerEPKcPF6StringPS_PvEij(%class.Element* %2, i8* getelementptr inbounds ([13 x i8], [13 x i8]* @.str.17, i64 0, i64 0), void (%class.String*, %class.Element*, i8*)* nonnull @_ZN13CheckIPHeader12read_handlerEP7ElementPv, i32 1, i32 0), !dbg !4199
  br label %8, !dbg !4199

8:                                                ; preds = %1, %7
  ret void, !dbg !4200
}

declare void @_ZN7Element17add_data_handlersEPKciP15atomic_uint32_t(%class.Element*, i8*, i32, %class.atomic_uint32_t*) local_unnamed_addr #3

declare void @_ZN7Element16add_read_handlerEPKcPF6StringPS_PvEij(%class.Element*, i8*, void (%class.String*, %class.Element*, i8*)*, i32, i32) local_unnamed_addr #3

declare void @_ZN7Element4pushEiP6Packet(%class.Element*, i32, %class.Packet*) unnamed_addr #3

declare %class.Packet* @_ZN7Element4pullEi(%class.Element*, i32) unnamed_addr #3

declare zeroext i1 @_ZN7Element8run_taskEP4Task(%class.Element*, %class.Task*) unnamed_addr #3

declare void @_ZN7Element9run_timerEP5Timer(%class.Element*, %class.Timer*) unnamed_addr #3

declare void @_ZN7Element8selectedEii(%class.Element*, i32, i32) unnamed_addr #3

declare void @_ZN7Element8selectedEi(%class.Element*, i32) unnamed_addr #3

; Function Attrs: nounwind sspstrong uwtable
define linkonce_odr dso_local i8* @_ZNK13CheckIPHeader10class_nameEv(%class.CheckIPHeader* %0) unnamed_addr #5 comdat align 2 !dbg !4201 {
  call void @llvm.dbg.value(metadata %class.CheckIPHeader* %0, metadata !4203, metadata !DIExpression()), !dbg !4205
  ret i8* getelementptr inbounds ([14 x i8], [14 x i8]* @.str.25, i64 0, i64 0), !dbg !4206
}

; Function Attrs: nounwind sspstrong uwtable
define linkonce_odr dso_local i8* @_ZNK13CheckIPHeader10port_countEv(%class.CheckIPHeader* %0) unnamed_addr #5 comdat align 2 !dbg !4207 {
  call void @llvm.dbg.value(metadata %class.CheckIPHeader* %0, metadata !4209, metadata !DIExpression()), !dbg !4210
  ret i8* getelementptr inbounds ([0 x i8], [0 x i8]* @_ZN7Element11PORTS_1_1X2E, i64 0, i64 0), !dbg !4211
}

; Function Attrs: nounwind sspstrong uwtable
define linkonce_odr dso_local i8* @_ZNK13CheckIPHeader10processingEv(%class.CheckIPHeader* %0) unnamed_addr #5 comdat align 2 !dbg !4212 {
  call void @llvm.dbg.value(metadata %class.CheckIPHeader* %0, metadata !4214, metadata !DIExpression()), !dbg !4215
  ret i8* getelementptr inbounds ([0 x i8], [0 x i8]* @_ZN7Element15PROCESSING_A_AHE, i64 0, i64 0), !dbg !4216
}

declare i8* @_ZNK7Element9flow_codeEv(%class.Element*) unnamed_addr #3

; Function Attrs: nounwind sspstrong uwtable
define linkonce_odr dso_local i8* @_ZNK13CheckIPHeader5flagsEv(%class.CheckIPHeader* %0) unnamed_addr #5 comdat align 2 !dbg !4217 {
  call void @llvm.dbg.value(metadata %class.CheckIPHeader* %0, metadata !4219, metadata !DIExpression()), !dbg !4220
  ret i8* getelementptr inbounds ([2 x i8], [2 x i8]* @.str.26, i64 0, i64 0), !dbg !4221
}

declare i8* @_ZN7Element4castEPKc(%class.Element*, i8*) unnamed_addr #3

declare i8* @_ZN7Element9port_castEbiPKc(%class.Element*, i1 zeroext, i32, i8*) unnamed_addr #3

declare i32 @_ZNK7Element15configure_phaseEv(%class.Element*) unnamed_addr #3

declare i32 @_ZN7Element10initializeEP12ErrorHandler(%class.Element*, %class.ErrorHandler*) unnamed_addr #3

declare void @_ZN7Element10take_stateEPS_P12ErrorHandler(%class.Element*, %class.Element*, %class.ErrorHandler*) unnamed_addr #3

declare %class.Element* @_ZNK7Element15hotswap_elementEv(%class.Element*) unnamed_addr #3

declare void @_ZN7Element7cleanupENS_12CleanupStageE(%class.Element*, i32) unnamed_addr #3

declare void @_ZNK7Element11declarationEv(%class.String* sret, %class.Element*) unnamed_addr #3

declare zeroext i1 @_ZNK7Element20can_live_reconfigureEv(%class.Element*) unnamed_addr #3

declare i32 @_ZN7Element16live_reconfigureER6VectorI6StringEP12ErrorHandler(%class.Element*, %class.Vector.0* dereferenceable(16), %class.ErrorHandler*) unnamed_addr #3

declare i32 @_ZN7Element5llrpcEjPv(%class.Element*, i32, i8*) unnamed_addr #3

; Function Attrs: inlinehint nounwind sspstrong uwtable
define linkonce_odr dso_local i32 @_ZNK6String6lengthEv(%class.String* %0) #10 comdat align 2 !dbg !4222 {
  call void @llvm.dbg.value(metadata %class.String* %0, metadata !4224, metadata !DIExpression()), !dbg !4225
  %2 = getelementptr inbounds %class.String, %class.String* %0, i64 0, i32 0, i32 1, !dbg !4226
  %3 = load i32, i32* %2, align 8, !dbg !4226, !tbaa !3008
  ret i32 %3, !dbg !4227
}

; Function Attrs: noinline noreturn nounwind
define linkonce_odr hidden void @__clang_call_terminate(i8* %0) local_unnamed_addr #11 comdat {
  %2 = tail call i8* @__cxa_begin_catch(i8* %0) #14
  tail call void @_ZSt9terminatev() #16
  unreachable
}

declare i8* @__cxa_begin_catch(i8*) local_unnamed_addr

declare void @_ZSt9terminatev() local_unnamed_addr

; Function Attrs: noreturn nounwind
declare void @__assert_fail(i8*, i8*, i32, i8*) local_unnamed_addr #12

declare void @_ZN6String11delete_memoEPNS_6memo_tE(%"struct.String::memo_t"*) local_unnamed_addr #3

; Function Attrs: noinline nounwind optnone sspstrong uwtable
define linkonce_odr dso_local dereferenceable(16) %"class.Element::Port"* @_ZNK7Element4portEbi(%class.Element* %0, i1 zeroext %1, i32 %2) local_unnamed_addr #9 comdat align 2 !dbg !4228 {
  %4 = alloca %class.Element*, align 8
  %5 = alloca i8, align 1
  %6 = alloca i32, align 4
  store %class.Element* %0, %class.Element** %4, align 8, !tbaa !3787
  call void @llvm.dbg.declare(metadata %class.Element** %4, metadata !4233, metadata !DIExpression()), !dbg !4236
  %7 = zext i1 %1 to i8
  store i8 %7, i8* %5, align 1, !tbaa !3498
  call void @llvm.dbg.declare(metadata i8* %5, metadata !4234, metadata !DIExpression()), !dbg !4237
  store i32 %2, i32* %6, align 4, !tbaa !3034
  call void @llvm.dbg.declare(metadata i32* %6, metadata !4235, metadata !DIExpression()), !dbg !4238
  %8 = load %class.Element*, %class.Element** %4, align 8
  %9 = load i32, i32* %6, align 4, !dbg !4239, !tbaa !3034
  %10 = getelementptr inbounds %class.Element, %class.Element* %8, i32 0, i32 3, !dbg !4239
  %11 = load i8, i8* %5, align 1, !dbg !4239, !tbaa !3498, !range !3743
  %12 = trunc i8 %11 to i1, !dbg !4239
  %13 = zext i1 %12 to i64, !dbg !4239
  %14 = getelementptr inbounds [2 x i32], [2 x i32]* %10, i64 0, i64 %13, !dbg !4239
  %15 = load i32, i32* %14, align 4, !dbg !4239, !tbaa !3034
  %16 = icmp ult i32 %9, %15, !dbg !4239
  br i1 %16, label %17, label %18, !dbg !4239

17:                                               ; preds = %3
  br label %19, !dbg !4239

18:                                               ; preds = %3
  call void @__assert_fail(i8* getelementptr inbounds ([47 x i8], [47 x i8]* @.str.20, i64 0, i64 0), i8* getelementptr inbounds ([30 x i8], [30 x i8]* @.str.21, i64 0, i64 0), i32 437, i8* getelementptr inbounds ([52 x i8], [52 x i8]* @__PRETTY_FUNCTION__._ZNK7Element4portEbi, i64 0, i64 0)) #16, !dbg !4239
  unreachable, !dbg !4239

19:                                               ; preds = %17
  %20 = getelementptr inbounds %class.Element, %class.Element* %8, i32 0, i32 1, !dbg !4240
  %21 = load i8, i8* %5, align 1, !dbg !4241, !tbaa !3498, !range !3743
  %22 = trunc i8 %21 to i1, !dbg !4241
  %23 = zext i1 %22 to i64, !dbg !4240
  %24 = getelementptr inbounds [2 x %"class.Element::Port"*], [2 x %"class.Element::Port"*]* %20, i64 0, i64 %23, !dbg !4240
  %25 = load %"class.Element::Port"*, %"class.Element::Port"** %24, align 8, !dbg !4240, !tbaa !3787
  %26 = load i32, i32* %6, align 4, !dbg !4242, !tbaa !3034
  %27 = sext i32 %26 to i64, !dbg !4240
  %28 = getelementptr inbounds %"class.Element::Port", %"class.Element::Port"* %25, i64 %27, !dbg !4240
  ret %"class.Element::Port"* %28, !dbg !4243
}

declare i8* @_ZN11StringAccum4growEi(%class.StringAccum*, i32) local_unnamed_addr #3

declare void @_ZN11StringAccum16hard_append_cstrEPKc(%class.StringAccum*, i8*) local_unnamed_addr #3

declare !dbg !1950 dereferenceable(16) %class.StringAccum* @_ZlsR11StringAccumm(%class.StringAccum* dereferenceable(16), i64) local_unnamed_addr #3

; Function Attrs: argmemonly nounwind willreturn
declare void @llvm.memmove.p0i8.p0i8.i64(i8* nocapture, i8* nocapture readonly, i64, i1 immarg) #2

; Function Attrs: noinline optnone sspstrong uwtable
define linkonce_odr dso_local void @_Z14args_base_readIN13CheckIPHeader13InterfacesArgE6VectorI9IPAddressES4_EvP4ArgsPKciT_RT0_RT1_(%class.Args* %0, i8* %1, i32 %2, %class.Vector* dereferenceable(16) %3, %class.Vector* dereferenceable(16) %4) local_unnamed_addr #8 comdat !dbg !4244 {
  %6 = alloca %"struct.CheckIPHeader::InterfacesArg", align 1
  %7 = alloca %class.Args*, align 8
  %8 = alloca i8*, align 8
  %9 = alloca i32, align 4
  %10 = alloca %class.Vector*, align 8
  %11 = alloca %class.Vector*, align 8
  %12 = alloca %"struct.CheckIPHeader::InterfacesArg", align 1
  store %class.Args* %0, %class.Args** %7, align 8, !tbaa !3787
  call void @llvm.dbg.declare(metadata %class.Args** %7, metadata !4246, metadata !DIExpression()), !dbg !4252
  store i8* %1, i8** %8, align 8, !tbaa !3787
  call void @llvm.dbg.declare(metadata i8** %8, metadata !4247, metadata !DIExpression()), !dbg !4253
  store i32 %2, i32* %9, align 4, !tbaa !3034
  call void @llvm.dbg.declare(metadata i32* %9, metadata !4248, metadata !DIExpression()), !dbg !4254
  call void @llvm.dbg.declare(metadata %"struct.CheckIPHeader::InterfacesArg"* %6, metadata !4249, metadata !DIExpression()), !dbg !4255
  store %class.Vector* %3, %class.Vector** %10, align 8, !tbaa !3787
  call void @llvm.dbg.declare(metadata %class.Vector** %10, metadata !4250, metadata !DIExpression()), !dbg !4256
  store %class.Vector* %4, %class.Vector** %11, align 8, !tbaa !3787
  call void @llvm.dbg.declare(metadata %class.Vector** %11, metadata !4251, metadata !DIExpression()), !dbg !4257
  %13 = load %class.Args*, %class.Args** %7, align 8, !dbg !4258, !tbaa !3787
  %14 = load i8*, i8** %8, align 8, !dbg !4259, !tbaa !3787
  %15 = load i32, i32* %9, align 4, !dbg !4260, !tbaa !3034
  %16 = load %class.Vector*, %class.Vector** %10, align 8, !dbg !4261, !tbaa !3787
  %17 = load %class.Vector*, %class.Vector** %11, align 8, !dbg !4262, !tbaa !3787
  call void @_ZN4Args9base_readIN13CheckIPHeader13InterfacesArgE6VectorI9IPAddressES5_EEvPKciT_RT0_RT1_(%class.Args* %13, i8* %14, i32 %15, %class.Vector* dereferenceable(16) %16, %class.Vector* dereferenceable(16) %17), !dbg !4263
  ret void, !dbg !4264
}

; Function Attrs: sspstrong uwtable
define linkonce_odr dso_local void @_ZN4Args9base_readIN13CheckIPHeader13InterfacesArgE6VectorI9IPAddressES5_EEvPKciT_RT0_RT1_(%class.Args* %0, i8* %1, i32 %2, %class.Vector* dereferenceable(16) %3, %class.Vector* dereferenceable(16) %4) local_unnamed_addr #0 comdat align 2 personality i8* bitcast (i32 (...)* @__gxx_personality_v0 to i8*) !dbg !4265 {
  %6 = alloca %"struct.Args::Slot"*, align 8
  %7 = alloca %class.String, align 8
  call void @llvm.dbg.value(metadata %class.Args* %0, metadata !4270, metadata !DIExpression()), !dbg !4282
  call void @llvm.dbg.value(metadata i8* %1, metadata !4271, metadata !DIExpression()), !dbg !4282
  call void @llvm.dbg.value(metadata i32 %2, metadata !4272, metadata !DIExpression()), !dbg !4282
  call void @llvm.dbg.value(metadata %class.Vector* %3, metadata !4274, metadata !DIExpression()), !dbg !4282
  call void @llvm.dbg.value(metadata %class.Vector* %4, metadata !4275, metadata !DIExpression()), !dbg !4282
  %8 = bitcast %"struct.Args::Slot"** %6 to i8*, !dbg !4283
  call void @llvm.lifetime.start.p0i8(i64 8, i8* nonnull %8) #14, !dbg !4283
  %9 = bitcast %class.String* %7 to i8*, !dbg !4284
  call void @llvm.lifetime.start.p0i8(i64 24, i8* nonnull %9) #14, !dbg !4284
  call void @llvm.dbg.declare(metadata %class.String* %7, metadata !4277, metadata !DIExpression()), !dbg !4285
  call void @llvm.dbg.value(metadata %"struct.Args::Slot"** %6, metadata !4276, metadata !DIExpression(DW_OP_deref)), !dbg !4282
  call void @_ZN4Args4findEPKciRPNS_4SlotE(%class.String* nonnull sret %7, %class.Args* %0, i8* %1, i32 %2, %"struct.Args::Slot"** nonnull dereferenceable(8) %6), !dbg !4286
  call void @llvm.dbg.value(metadata %class.String* %7, metadata !3053, metadata !DIExpression()), !dbg !4287
  %10 = getelementptr inbounds %class.String, %class.String* %7, i64 0, i32 0, i32 1, !dbg !4289
  %11 = load i32, i32* %10, align 8, !dbg !4289, !tbaa !3008
  %12 = icmp eq i32 %11, 0, !dbg !4290
  %13 = select i1 %12, { i64, i64 } zeroinitializer, { i64, i64 } { i64 ptrtoint (i32 (%class.String*)* @_ZNK6String6lengthEv to i64), i64 0 }, !dbg !4291
  %14 = extractvalue { i64, i64 } %13, 0, !dbg !4285
  %15 = icmp eq i64 %14, 0, !dbg !4285
  br i1 %15, label %67, label %16, !dbg !4284

16:                                               ; preds = %5
  call void @llvm.dbg.value(metadata %class.Vector* %3, metadata !4292, metadata !DIExpression()), !dbg !4304
  call void @llvm.dbg.value(metadata %class.Args* %0, metadata !4303, metadata !DIExpression()), !dbg !4304
  call void @llvm.dbg.value(metadata %class.Args* %0, metadata !4306, metadata !DIExpression()), !dbg !4313
  call void @llvm.dbg.value(metadata %class.Vector* %3, metadata !4312, metadata !DIExpression()), !dbg !4313
  call void @llvm.dbg.value(metadata %class.Args* %0, metadata !4315, metadata !DIExpression()), !dbg !4335
  call void @llvm.dbg.value(metadata %class.Vector* %3, metadata !4319, metadata !DIExpression()), !dbg !4335
  %17 = invoke dereferenceable(40) i8* @_Znwm(i64 40) #13
          to label %18 unwind label %43, !dbg !4338

18:                                               ; preds = %16
  call void @llvm.dbg.value(metadata i8* %17, metadata !4339, metadata !DIExpression()), !dbg !4343
  call void @llvm.dbg.value(metadata %class.Vector* %3, metadata !4342, metadata !DIExpression()), !dbg !4343
  %19 = bitcast i8* %17 to i32 (...)***, !dbg !4345
  store i32 (...)** bitcast (i8** getelementptr inbounds ({ [5 x i8*] }, { [5 x i8*] }* @_ZTVN4Args5SlotTI6VectorI9IPAddressEEE, i64 0, inrange i32 0, i64 2) to i32 (...)**), i32 (...)*** %19, align 8, !dbg !4345, !tbaa !3342
  %20 = getelementptr inbounds i8, i8* %17, i64 16, !dbg !4346
  %21 = bitcast i8* %20 to %class.Vector**, !dbg !4346
  store %class.Vector* %3, %class.Vector** %21, align 8, !dbg !4346, !tbaa !4347
  %22 = getelementptr inbounds i8, i8* %17, i64 24, !dbg !4349
  call void @llvm.dbg.value(metadata i8* %22, metadata !3344, metadata !DIExpression()), !dbg !4350
  call void @llvm.dbg.value(metadata i8* %22, metadata !3349, metadata !DIExpression()) #14, !dbg !4352
  call void @llvm.memset.p0i8.i64(i8* nonnull align 8 dereferenceable(16) %22, i8 0, i64 16, i1 false) #14, !dbg !4354
  call void @llvm.dbg.value(metadata i8* %17, metadata !4320, metadata !DIExpression()), !dbg !4355
  %23 = getelementptr inbounds %class.Args, %class.Args* %0, i64 0, i32 6, !dbg !4356
  %24 = bitcast %"struct.Args::Slot"** %23 to i64*, !dbg !4356
  %25 = load i64, i64* %24, align 8, !dbg !4356, !tbaa !4358
  %26 = getelementptr inbounds i8, i8* %17, i64 8, !dbg !4361
  %27 = bitcast i8* %26 to i64*, !dbg !4362
  store i64 %25, i64* %27, align 8, !dbg !4362, !tbaa !4363
  %28 = bitcast %"struct.Args::Slot"** %23 to i8**, !dbg !4365
  store i8* %17, i8** %28, align 8, !dbg !4365, !tbaa !4358
  call void @llvm.dbg.value(metadata i8* %22, metadata !4279, metadata !DIExpression()), !dbg !4366
  call void @llvm.dbg.value(metadata %class.Vector* %4, metadata !4292, metadata !DIExpression()), !dbg !4367
  call void @llvm.dbg.value(metadata %class.Args* %0, metadata !4303, metadata !DIExpression()), !dbg !4367
  call void @llvm.dbg.value(metadata %class.Args* %0, metadata !4306, metadata !DIExpression()), !dbg !4369
  call void @llvm.dbg.value(metadata %class.Vector* %4, metadata !4312, metadata !DIExpression()), !dbg !4369
  call void @llvm.dbg.value(metadata %class.Args* %0, metadata !4315, metadata !DIExpression()), !dbg !4371
  call void @llvm.dbg.value(metadata %class.Vector* %4, metadata !4319, metadata !DIExpression()), !dbg !4371
  %29 = invoke dereferenceable(40) i8* @_Znwm(i64 40) #13
          to label %30 unwind label %45, !dbg !4373

30:                                               ; preds = %18
  %31 = ptrtoint i8* %17 to i64, !dbg !4373
  %32 = bitcast i8* %22 to %class.Vector*, !dbg !4374
  call void @llvm.dbg.value(metadata %class.Vector* %32, metadata !4279, metadata !DIExpression()), !dbg !4366
  call void @llvm.dbg.value(metadata i8* %29, metadata !4339, metadata !DIExpression()), !dbg !4375
  call void @llvm.dbg.value(metadata %class.Vector* %4, metadata !4342, metadata !DIExpression()), !dbg !4375
  %33 = bitcast i8* %29 to i32 (...)***, !dbg !4377
  store i32 (...)** bitcast (i8** getelementptr inbounds ({ [5 x i8*] }, { [5 x i8*] }* @_ZTVN4Args5SlotTI6VectorI9IPAddressEEE, i64 0, inrange i32 0, i64 2) to i32 (...)**), i32 (...)*** %33, align 8, !dbg !4377, !tbaa !3342
  %34 = getelementptr inbounds i8, i8* %29, i64 16, !dbg !4378
  %35 = bitcast i8* %34 to %class.Vector**, !dbg !4378
  store %class.Vector* %4, %class.Vector** %35, align 8, !dbg !4378, !tbaa !4347
  %36 = getelementptr inbounds i8, i8* %29, i64 24, !dbg !4379
  call void @llvm.dbg.value(metadata i8* %36, metadata !3344, metadata !DIExpression()), !dbg !4380
  call void @llvm.dbg.value(metadata i8* %36, metadata !3349, metadata !DIExpression()) #14, !dbg !4382
  call void @llvm.memset.p0i8.i64(i8* nonnull align 8 dereferenceable(16) %36, i8 0, i64 16, i1 false) #14, !dbg !4384
  call void @llvm.dbg.value(metadata i8* %29, metadata !4320, metadata !DIExpression()), !dbg !4385
  %37 = getelementptr inbounds i8, i8* %29, i64 8, !dbg !4386
  %38 = bitcast i8* %37 to i64*, !dbg !4387
  store i64 %31, i64* %38, align 8, !dbg !4387, !tbaa !4363
  store i8* %29, i8** %28, align 8, !dbg !4388, !tbaa !4358
  %39 = bitcast i8* %36 to %class.Vector*, !dbg !4389
  call void @llvm.dbg.value(metadata %class.Vector* %39, metadata !4281, metadata !DIExpression()), !dbg !4366
  call void @llvm.dbg.value(metadata %class.String* %7, metadata !4390, metadata !DIExpression()), !dbg !4401
  call void @llvm.dbg.value(metadata %class.Vector* %32, metadata !4398, metadata !DIExpression()), !dbg !4401
  call void @llvm.dbg.value(metadata %class.Vector* %39, metadata !4399, metadata !DIExpression()), !dbg !4401
  call void @llvm.dbg.value(metadata %class.Args* %0, metadata !4400, metadata !DIExpression()), !dbg !4401
  %40 = invoke zeroext i1 @_ZN13CheckIPHeader13InterfacesArg5parseERK6StringR6VectorI9IPAddressES7_R4Args(%class.String* nonnull dereferenceable(24) %7, %class.Vector* nonnull dereferenceable(16) %32, %class.Vector* nonnull dereferenceable(16) %39, %class.Args* nonnull dereferenceable(112) %0)
          to label %41 unwind label %45, !dbg !4403

41:                                               ; preds = %30
  %42 = load %"struct.Args::Slot"*, %"struct.Args::Slot"** %6, align 8, !dbg !4404, !tbaa !3787
  call void @llvm.dbg.value(metadata %"struct.Args::Slot"* %42, metadata !4276, metadata !DIExpression()), !dbg !4282
  invoke void @_ZN4Args9postparseEbPNS_4SlotE(%class.Args* nonnull %0, i1 zeroext %40, %"struct.Args::Slot"* %42)
          to label %67 unwind label %45, !dbg !4405

43:                                               ; preds = %16
  %44 = landingpad { i8*, i32 }
          cleanup, !dbg !4406
  br label %47, !dbg !4406

45:                                               ; preds = %30, %18, %41
  %46 = landingpad { i8*, i32 }
          cleanup, !dbg !4406
  br label %47, !dbg !4407

47:                                               ; preds = %45, %43
  %48 = phi { i8*, i32 } [ %46, %45 ], [ %44, %43 ]
  call void @llvm.dbg.value(metadata %class.String* %7, metadata !3083, metadata !DIExpression()) #14, !dbg !4408
  call void @llvm.dbg.value(metadata %class.String* %7, metadata !3078, metadata !DIExpression()) #14, !dbg !4410
  %49 = getelementptr inbounds %class.String, %class.String* %7, i64 0, i32 0, i32 2, !dbg !4412
  %50 = load %"struct.String::memo_t"*, %"struct.String::memo_t"** %49, align 8, !dbg !4412, !tbaa !3010
  %51 = icmp eq %"struct.String::memo_t"* %50, null, !dbg !4413
  br i1 %51, label %66, label %52, !dbg !4414

52:                                               ; preds = %47
  %53 = getelementptr inbounds %"struct.String::memo_t", %"struct.String::memo_t"* %50, i64 0, i32 0, !dbg !4415
  %54 = load volatile i32, i32* %53, align 4, !dbg !4415, !tbaa !3189
  %55 = icmp eq i32 %54, 0, !dbg !4415
  br i1 %55, label %56, label %57, !dbg !4415

56:                                               ; preds = %52
  call void @__assert_fail(i8* getelementptr inbounds ([18 x i8], [18 x i8]* @.str.18, i64 0, i64 0), i8* getelementptr inbounds ([29 x i8], [29 x i8]* @.str.19, i64 0, i64 0), i32 273, i8* getelementptr inbounds ([27 x i8], [27 x i8]* @__PRETTY_FUNCTION__._ZNK6String5derefEv, i64 0, i64 0)) #16, !dbg !4415
  unreachable, !dbg !4415

57:                                               ; preds = %52
  call void @llvm.dbg.value(metadata i32* %53, metadata !3191, metadata !DIExpression()) #14, !dbg !4416
  %58 = load volatile i32, i32* %53, align 4, !dbg !4418, !tbaa !3034
  %59 = add i32 %58, -1, !dbg !4418
  store volatile i32 %59, i32* %53, align 4, !dbg !4418, !tbaa !3034
  %60 = icmp eq i32 %59, 0, !dbg !4419
  br i1 %60, label %61, label %62, !dbg !4420

61:                                               ; preds = %57
  invoke void @_ZN6String11delete_memoEPNS_6memo_tE(%"struct.String::memo_t"* nonnull %50)
          to label %62 unwind label %63, !dbg !4421

62:                                               ; preds = %61, %57
  store %"struct.String::memo_t"* null, %"struct.String::memo_t"** %49, align 8, !dbg !4422, !tbaa !3010
  br label %66, !dbg !4423

63:                                               ; preds = %61
  %64 = landingpad { i8*, i32 }
          catch i8* null, !dbg !4424
  %65 = extractvalue { i8*, i32 } %64, 0, !dbg !4424
  call void @__clang_call_terminate(i8* %65) #16, !dbg !4424
  unreachable, !dbg !4424

66:                                               ; preds = %47, %62
  call void @llvm.lifetime.end.p0i8(i64 24, i8* nonnull %9) #14, !dbg !4284
  call void @llvm.lifetime.end.p0i8(i64 8, i8* nonnull %8) #14, !dbg !4425
  resume { i8*, i32 } %48, !dbg !4425

67:                                               ; preds = %41, %5
  call void @llvm.dbg.value(metadata %class.String* %7, metadata !3083, metadata !DIExpression()) #14, !dbg !4426
  call void @llvm.dbg.value(metadata %class.String* %7, metadata !3078, metadata !DIExpression()) #14, !dbg !4428
  %68 = getelementptr inbounds %class.String, %class.String* %7, i64 0, i32 0, i32 2, !dbg !4430
  %69 = load %"struct.String::memo_t"*, %"struct.String::memo_t"** %68, align 8, !dbg !4430, !tbaa !3010
  %70 = icmp eq %"struct.String::memo_t"* %69, null, !dbg !4431
  br i1 %70, label %85, label %71, !dbg !4432

71:                                               ; preds = %67
  %72 = getelementptr inbounds %"struct.String::memo_t", %"struct.String::memo_t"* %69, i64 0, i32 0, !dbg !4433
  %73 = load volatile i32, i32* %72, align 4, !dbg !4433, !tbaa !3189
  %74 = icmp eq i32 %73, 0, !dbg !4433
  br i1 %74, label %75, label %76, !dbg !4433

75:                                               ; preds = %71
  call void @__assert_fail(i8* getelementptr inbounds ([18 x i8], [18 x i8]* @.str.18, i64 0, i64 0), i8* getelementptr inbounds ([29 x i8], [29 x i8]* @.str.19, i64 0, i64 0), i32 273, i8* getelementptr inbounds ([27 x i8], [27 x i8]* @__PRETTY_FUNCTION__._ZNK6String5derefEv, i64 0, i64 0)) #16, !dbg !4433
  unreachable, !dbg !4433

76:                                               ; preds = %71
  call void @llvm.dbg.value(metadata i32* %72, metadata !3191, metadata !DIExpression()) #14, !dbg !4434
  %77 = load volatile i32, i32* %72, align 4, !dbg !4436, !tbaa !3034
  %78 = add i32 %77, -1, !dbg !4436
  store volatile i32 %78, i32* %72, align 4, !dbg !4436, !tbaa !3034
  %79 = icmp eq i32 %78, 0, !dbg !4437
  br i1 %79, label %80, label %81, !dbg !4438

80:                                               ; preds = %76
  invoke void @_ZN6String11delete_memoEPNS_6memo_tE(%"struct.String::memo_t"* nonnull %69)
          to label %81 unwind label %82, !dbg !4439

81:                                               ; preds = %80, %76
  store %"struct.String::memo_t"* null, %"struct.String::memo_t"** %68, align 8, !dbg !4440, !tbaa !3010
  br label %85, !dbg !4441

82:                                               ; preds = %80
  %83 = landingpad { i8*, i32 }
          catch i8* null, !dbg !4442
  %84 = extractvalue { i8*, i32 } %83, 0, !dbg !4442
  call void @__clang_call_terminate(i8* %84) #16, !dbg !4442
  unreachable, !dbg !4442

85:                                               ; preds = %67, %81
  call void @llvm.lifetime.end.p0i8(i64 24, i8* nonnull %9) #14, !dbg !4284
  call void @llvm.lifetime.end.p0i8(i64 8, i8* nonnull %8) #14, !dbg !4425
  ret void, !dbg !4425
}

declare void @_ZN4Args4findEPKciRPNS_4SlotE(%class.String* sret, %class.Args*, i8*, i32, %"struct.Args::Slot"** dereferenceable(8)) local_unnamed_addr #3

declare void @_ZN4Args9postparseEbPNS_4SlotE(%class.Args*, i1 zeroext, %"struct.Args::Slot"*) local_unnamed_addr #3

; Function Attrs: nobuiltin nofree
declare noalias nonnull i8* @_Znwm(i64) local_unnamed_addr #7

; Function Attrs: inlinehint nounwind sspstrong uwtable
define linkonce_odr dso_local void @_ZN4Args5SlotTI6VectorI9IPAddressEED2Ev(%"struct.Args::SlotT"* %0) unnamed_addr #10 comdat align 2 personality i32 (...)* @__gxx_personality_v0 !dbg !4443 {
  call void @llvm.dbg.value(metadata %"struct.Args::SlotT"* %0, metadata !4446, metadata !DIExpression()), !dbg !4447
  %2 = getelementptr %"struct.Args::SlotT", %"struct.Args::SlotT"* %0, i64 0, i32 0, i32 0, !dbg !4448
  store i32 (...)** bitcast (i8** getelementptr inbounds ({ [5 x i8*] }, { [5 x i8*] }* @_ZTVN4Args5SlotTI6VectorI9IPAddressEEE, i64 0, inrange i32 0, i64 2) to i32 (...)**), i32 (...)*** %2, align 8, !dbg !4448, !tbaa !3342
  %3 = getelementptr inbounds %"struct.Args::SlotT", %"struct.Args::SlotT"* %0, i64 0, i32 2, !dbg !4449
  call void @llvm.dbg.value(metadata %class.Vector* %3, metadata !3384, metadata !DIExpression()) #14, !dbg !4451
  call void @llvm.dbg.value(metadata %class.Vector* %3, metadata !3390, metadata !DIExpression()) #14, !dbg !4453
  %4 = bitcast %class.Vector* %3 to i8**, !dbg !4455
  %5 = load i8*, i8** %4, align 8, !dbg !4456, !tbaa !2918
  %6 = icmp eq i8* %5, null, !dbg !4456
  br i1 %6, label %8, label %7, !dbg !4456

7:                                                ; preds = %1
  tail call void @_ZdaPv(i8* nonnull %5) #15, !dbg !4456
  br label %8, !dbg !4456

8:                                                ; preds = %1, %7
  ret void, !dbg !4448
}

; Function Attrs: inlinehint nounwind sspstrong uwtable
define linkonce_odr dso_local void @_ZN4Args5SlotTI6VectorI9IPAddressEED0Ev(%"struct.Args::SlotT"* %0) unnamed_addr #10 comdat align 2 personality i32 (...)* @__gxx_personality_v0 !dbg !4457 {
  call void @llvm.dbg.value(metadata %"struct.Args::SlotT"* %0, metadata !4459, metadata !DIExpression()), !dbg !4460
  call void @llvm.dbg.value(metadata %"struct.Args::SlotT"* %0, metadata !4446, metadata !DIExpression()) #14, !dbg !4461
  %2 = getelementptr %"struct.Args::SlotT", %"struct.Args::SlotT"* %0, i64 0, i32 0, i32 0, !dbg !4463
  store i32 (...)** bitcast (i8** getelementptr inbounds ({ [5 x i8*] }, { [5 x i8*] }* @_ZTVN4Args5SlotTI6VectorI9IPAddressEEE, i64 0, inrange i32 0, i64 2) to i32 (...)**), i32 (...)*** %2, align 8, !dbg !4463, !tbaa !3342
  %3 = getelementptr inbounds %"struct.Args::SlotT", %"struct.Args::SlotT"* %0, i64 0, i32 2, !dbg !4464
  call void @llvm.dbg.value(metadata %class.Vector* %3, metadata !3384, metadata !DIExpression()) #14, !dbg !4465
  call void @llvm.dbg.value(metadata %class.Vector* %3, metadata !3390, metadata !DIExpression()) #14, !dbg !4467
  %4 = bitcast %class.Vector* %3 to i8**, !dbg !4469
  %5 = load i8*, i8** %4, align 8, !dbg !4470, !tbaa !2918
  %6 = icmp eq i8* %5, null, !dbg !4470
  br i1 %6, label %8, label %7, !dbg !4470

7:                                                ; preds = %1
  tail call void @_ZdaPv(i8* nonnull %5) #15, !dbg !4470
  br label %8, !dbg !4470

8:                                                ; preds = %1, %7
  %9 = bitcast %"struct.Args::SlotT"* %0 to i8*, !dbg !4471
  tail call void @_ZdlPv(i8* %9) #15, !dbg !4471
  ret void, !dbg !4471
}

; Function Attrs: sspstrong uwtable
define linkonce_odr dso_local void @_ZN4Args5SlotTI6VectorI9IPAddressEE5storeEv(%"struct.Args::SlotT"* %0) unnamed_addr #0 comdat align 2 !dbg !4472 {
  call void @llvm.dbg.value(metadata %"struct.Args::SlotT"* %0, metadata !4474, metadata !DIExpression()), !dbg !4475
  %2 = getelementptr inbounds %"struct.Args::SlotT", %"struct.Args::SlotT"* %0, i64 0, i32 1, !dbg !4476
  %3 = load %class.Vector*, %class.Vector** %2, align 8, !dbg !4476, !tbaa !4347
  %4 = getelementptr inbounds %"struct.Args::SlotT", %"struct.Args::SlotT"* %0, i64 0, i32 2, !dbg !4477
  call void @llvm.dbg.value(metadata %class.Vector* %3, metadata !4478, metadata !DIExpression()), !dbg !4484
  call void @llvm.dbg.value(metadata %class.Vector* %4, metadata !4483, metadata !DIExpression()), !dbg !4484
  call void @llvm.dbg.value(metadata %class.Vector* %3, metadata !4486, metadata !DIExpression()), !dbg !4490
  call void @llvm.dbg.value(metadata %class.Vector* %4, metadata !4489, metadata !DIExpression()), !dbg !4490
  call void @llvm.dbg.value(metadata %class.Vector* %3, metadata !4492, metadata !DIExpression()), !dbg !4499
  call void @llvm.dbg.value(metadata %class.Vector* %4, metadata !4495, metadata !DIExpression()), !dbg !4499
  %5 = bitcast %class.Vector* %3 to i64*, !dbg !4501
  %6 = load i64, i64* %5, align 8, !dbg !4501, !tbaa !2918
  call void @llvm.dbg.value(metadata %struct.char_array* undef, metadata !4496, metadata !DIExpression()), !dbg !4499
  %7 = bitcast %class.Vector* %4 to i64*, !dbg !4502
  %8 = load i64, i64* %7, align 8, !dbg !4502, !tbaa !2918
  store i64 %8, i64* %5, align 8, !dbg !4503, !tbaa !2918
  store i64 %6, i64* %7, align 8, !dbg !4504, !tbaa !2918
  %9 = getelementptr inbounds %class.Vector, %class.Vector* %3, i64 0, i32 0, i32 1, !dbg !4505
  %10 = load i32, i32* %9, align 8, !dbg !4505, !tbaa !2888
  call void @llvm.dbg.value(metadata i32 %10, metadata !4497, metadata !DIExpression()), !dbg !4499
  %11 = getelementptr inbounds %"struct.Args::SlotT", %"struct.Args::SlotT"* %0, i64 0, i32 2, i32 0, i32 1, !dbg !4506
  %12 = load i32, i32* %11, align 8, !dbg !4506, !tbaa !2888
  store i32 %12, i32* %9, align 8, !dbg !4507, !tbaa !2888
  store i32 %10, i32* %11, align 8, !dbg !4508, !tbaa !2888
  %13 = getelementptr inbounds %class.Vector, %class.Vector* %3, i64 0, i32 0, i32 2, !dbg !4509
  %14 = load i32, i32* %13, align 4, !dbg !4509, !tbaa !2895
  call void @llvm.dbg.value(metadata i32 %14, metadata !4498, metadata !DIExpression()), !dbg !4499
  %15 = getelementptr inbounds %"struct.Args::SlotT", %"struct.Args::SlotT"* %0, i64 0, i32 2, i32 0, i32 2, !dbg !4510
  %16 = load i32, i32* %15, align 4, !dbg !4510, !tbaa !2895
  store i32 %16, i32* %13, align 4, !dbg !4511, !tbaa !2895
  store i32 %14, i32* %15, align 4, !dbg !4512, !tbaa !2895
  ret void, !dbg !4513
}

; Function Attrs: noinline optnone sspstrong uwtable
define linkonce_odr dso_local void @_Z14args_base_readI6VectorI9IPAddressEEvP4ArgsPKciRT_(%class.Args* %0, i8* %1, i32 %2, %class.Vector* dereferenceable(16) %3) local_unnamed_addr #8 comdat !dbg !4514 {
  %5 = alloca %class.Args*, align 8
  %6 = alloca i8*, align 8
  %7 = alloca i32, align 4
  %8 = alloca %class.Vector*, align 8
  store %class.Args* %0, %class.Args** %5, align 8, !tbaa !3787
  call void @llvm.dbg.declare(metadata %class.Args** %5, metadata !4516, metadata !DIExpression()), !dbg !4520
  store i8* %1, i8** %6, align 8, !tbaa !3787
  call void @llvm.dbg.declare(metadata i8** %6, metadata !4517, metadata !DIExpression()), !dbg !4521
  store i32 %2, i32* %7, align 4, !tbaa !3034
  call void @llvm.dbg.declare(metadata i32* %7, metadata !4518, metadata !DIExpression()), !dbg !4522
  store %class.Vector* %3, %class.Vector** %8, align 8, !tbaa !3787
  call void @llvm.dbg.declare(metadata %class.Vector** %8, metadata !4519, metadata !DIExpression()), !dbg !4523
  %9 = load %class.Args*, %class.Args** %5, align 8, !dbg !4524, !tbaa !3787
  %10 = load i8*, i8** %6, align 8, !dbg !4525, !tbaa !3787
  %11 = load i32, i32* %7, align 4, !dbg !4526, !tbaa !3034
  %12 = load %class.Vector*, %class.Vector** %8, align 8, !dbg !4527, !tbaa !3787
  call void @_ZN4Args9base_readI6VectorI9IPAddressEEEvPKciRT_(%class.Args* %9, i8* %10, i32 %11, %class.Vector* dereferenceable(16) %12), !dbg !4528
  ret void, !dbg !4529
}

; Function Attrs: sspstrong uwtable
define linkonce_odr dso_local void @_ZN4Args9base_readI6VectorI9IPAddressEEEvPKciRT_(%class.Args* %0, i8* %1, i32 %2, %class.Vector* dereferenceable(16) %3) local_unnamed_addr #0 comdat align 2 personality i8* bitcast (i32 (...)* @__gxx_personality_v0 to i8*) !dbg !4530 {
  %5 = alloca %"struct.Args::Slot"*, align 8
  %6 = alloca %class.String, align 8
  call void @llvm.dbg.value(metadata %class.Args* %0, metadata !4535, metadata !DIExpression()), !dbg !4544
  call void @llvm.dbg.value(metadata i8* %1, metadata !4536, metadata !DIExpression()), !dbg !4544
  call void @llvm.dbg.value(metadata i32 %2, metadata !4537, metadata !DIExpression()), !dbg !4544
  call void @llvm.dbg.value(metadata %class.Vector* %3, metadata !4538, metadata !DIExpression()), !dbg !4544
  %7 = bitcast %"struct.Args::Slot"** %5 to i8*, !dbg !4545
  call void @llvm.lifetime.start.p0i8(i64 8, i8* nonnull %7) #14, !dbg !4545
  %8 = bitcast %class.String* %6 to i8*, !dbg !4546
  call void @llvm.lifetime.start.p0i8(i64 24, i8* nonnull %8) #14, !dbg !4546
  call void @llvm.dbg.declare(metadata %class.String* %6, metadata !4540, metadata !DIExpression()), !dbg !4547
  call void @llvm.dbg.value(metadata %"struct.Args::Slot"** %5, metadata !4539, metadata !DIExpression(DW_OP_deref)), !dbg !4544
  call void @_ZN4Args4findEPKciRPNS_4SlotE(%class.String* nonnull sret %6, %class.Args* %0, i8* %1, i32 %2, %"struct.Args::Slot"** nonnull dereferenceable(8) %5), !dbg !4548
  call void @llvm.dbg.value(metadata %class.String* %6, metadata !3053, metadata !DIExpression()), !dbg !4549
  %9 = getelementptr inbounds %class.String, %class.String* %6, i64 0, i32 0, i32 1, !dbg !4551
  %10 = load i32, i32* %9, align 8, !dbg !4551, !tbaa !3008
  %11 = icmp eq i32 %10, 0, !dbg !4552
  %12 = select i1 %11, { i64, i64 } zeroinitializer, { i64, i64 } { i64 ptrtoint (i32 (%class.String*)* @_ZNK6String6lengthEv to i64), i64 0 }, !dbg !4553
  %13 = extractvalue { i64, i64 } %12, 0, !dbg !4547
  %14 = icmp eq i64 %13, 0, !dbg !4547
  br i1 %14, label %53, label %15, !dbg !4546

15:                                               ; preds = %4
  call void @llvm.dbg.value(metadata %class.Vector* %3, metadata !4554, metadata !DIExpression()), !dbg !4579
  call void @llvm.dbg.value(metadata %class.Args* %0, metadata !4578, metadata !DIExpression()), !dbg !4579
  call void @llvm.dbg.value(metadata %class.Args* %0, metadata !4306, metadata !DIExpression()), !dbg !4581
  call void @llvm.dbg.value(metadata %class.Vector* %3, metadata !4312, metadata !DIExpression()), !dbg !4581
  call void @llvm.dbg.value(metadata %class.Args* %0, metadata !4315, metadata !DIExpression()), !dbg !4583
  call void @llvm.dbg.value(metadata %class.Vector* %3, metadata !4319, metadata !DIExpression()), !dbg !4583
  %16 = invoke dereferenceable(40) i8* @_Znwm(i64 40) #13
          to label %17 unwind label %33, !dbg !4585

17:                                               ; preds = %15
  call void @llvm.dbg.value(metadata i8* %16, metadata !4339, metadata !DIExpression()), !dbg !4586
  call void @llvm.dbg.value(metadata %class.Vector* %3, metadata !4342, metadata !DIExpression()), !dbg !4586
  %18 = bitcast i8* %16 to i32 (...)***, !dbg !4588
  store i32 (...)** bitcast (i8** getelementptr inbounds ({ [5 x i8*] }, { [5 x i8*] }* @_ZTVN4Args5SlotTI6VectorI9IPAddressEEE, i64 0, inrange i32 0, i64 2) to i32 (...)**), i32 (...)*** %18, align 8, !dbg !4588, !tbaa !3342
  %19 = getelementptr inbounds i8, i8* %16, i64 16, !dbg !4589
  %20 = bitcast i8* %19 to %class.Vector**, !dbg !4589
  store %class.Vector* %3, %class.Vector** %20, align 8, !dbg !4589, !tbaa !4347
  %21 = getelementptr inbounds i8, i8* %16, i64 24, !dbg !4590
  call void @llvm.dbg.value(metadata i8* %21, metadata !3344, metadata !DIExpression()), !dbg !4591
  call void @llvm.dbg.value(metadata i8* %21, metadata !3349, metadata !DIExpression()) #14, !dbg !4593
  call void @llvm.memset.p0i8.i64(i8* nonnull align 8 dereferenceable(16) %21, i8 0, i64 16, i1 false) #14, !dbg !4595
  call void @llvm.dbg.value(metadata i8* %16, metadata !4320, metadata !DIExpression()), !dbg !4596
  %22 = getelementptr inbounds %class.Args, %class.Args* %0, i64 0, i32 6, !dbg !4597
  %23 = bitcast %"struct.Args::Slot"** %22 to i64*, !dbg !4597
  %24 = load i64, i64* %23, align 8, !dbg !4597, !tbaa !4358
  %25 = getelementptr inbounds i8, i8* %16, i64 8, !dbg !4598
  %26 = bitcast i8* %25 to i64*, !dbg !4599
  store i64 %24, i64* %26, align 8, !dbg !4599, !tbaa !4363
  %27 = bitcast %"struct.Args::Slot"** %22 to i8**, !dbg !4600
  store i8* %16, i8** %27, align 8, !dbg !4600, !tbaa !4358
  %28 = bitcast i8* %21 to %class.Vector*, !dbg !4601
  call void @llvm.dbg.value(metadata %class.Vector* %28, metadata !4542, metadata !DIExpression()), !dbg !4602
  call void @llvm.dbg.value(metadata %class.String* %6, metadata !4603, metadata !DIExpression()), !dbg !4612
  call void @llvm.dbg.value(metadata %class.Vector* %28, metadata !4610, metadata !DIExpression()), !dbg !4612
  call void @llvm.dbg.value(metadata %class.Args* %0, metadata !4611, metadata !DIExpression()), !dbg !4612
  %29 = bitcast %class.Args* %0 to %class.ArgContext*, !dbg !4614
  %30 = invoke zeroext i1 @_ZN12IPAddressArg5parseERK6StringR6VectorI9IPAddressERK10ArgContext(%class.String* nonnull dereferenceable(24) %6, %class.Vector* nonnull dereferenceable(16) %28, %class.ArgContext* nonnull dereferenceable(32) %29)
          to label %31 unwind label %33, !dbg !4615

31:                                               ; preds = %17
  %32 = load %"struct.Args::Slot"*, %"struct.Args::Slot"** %5, align 8, !dbg !4616, !tbaa !3787
  call void @llvm.dbg.value(metadata %"struct.Args::Slot"* %32, metadata !4539, metadata !DIExpression()), !dbg !4544
  invoke void @_ZN4Args9postparseEbPNS_4SlotE(%class.Args* nonnull %0, i1 zeroext %30, %"struct.Args::Slot"* %32)
          to label %53 unwind label %33, !dbg !4617

33:                                               ; preds = %17, %15, %31
  %34 = landingpad { i8*, i32 }
          cleanup, !dbg !4618
  call void @llvm.dbg.value(metadata %class.String* %6, metadata !3083, metadata !DIExpression()) #14, !dbg !4619
  call void @llvm.dbg.value(metadata %class.String* %6, metadata !3078, metadata !DIExpression()) #14, !dbg !4621
  %35 = getelementptr inbounds %class.String, %class.String* %6, i64 0, i32 0, i32 2, !dbg !4623
  %36 = load %"struct.String::memo_t"*, %"struct.String::memo_t"** %35, align 8, !dbg !4623, !tbaa !3010
  %37 = icmp eq %"struct.String::memo_t"* %36, null, !dbg !4624
  br i1 %37, label %52, label %38, !dbg !4625

38:                                               ; preds = %33
  %39 = getelementptr inbounds %"struct.String::memo_t", %"struct.String::memo_t"* %36, i64 0, i32 0, !dbg !4626
  %40 = load volatile i32, i32* %39, align 4, !dbg !4626, !tbaa !3189
  %41 = icmp eq i32 %40, 0, !dbg !4626
  br i1 %41, label %42, label %43, !dbg !4626

42:                                               ; preds = %38
  call void @__assert_fail(i8* getelementptr inbounds ([18 x i8], [18 x i8]* @.str.18, i64 0, i64 0), i8* getelementptr inbounds ([29 x i8], [29 x i8]* @.str.19, i64 0, i64 0), i32 273, i8* getelementptr inbounds ([27 x i8], [27 x i8]* @__PRETTY_FUNCTION__._ZNK6String5derefEv, i64 0, i64 0)) #16, !dbg !4626
  unreachable, !dbg !4626

43:                                               ; preds = %38
  call void @llvm.dbg.value(metadata i32* %39, metadata !3191, metadata !DIExpression()) #14, !dbg !4627
  %44 = load volatile i32, i32* %39, align 4, !dbg !4629, !tbaa !3034
  %45 = add i32 %44, -1, !dbg !4629
  store volatile i32 %45, i32* %39, align 4, !dbg !4629, !tbaa !3034
  %46 = icmp eq i32 %45, 0, !dbg !4630
  br i1 %46, label %47, label %48, !dbg !4631

47:                                               ; preds = %43
  invoke void @_ZN6String11delete_memoEPNS_6memo_tE(%"struct.String::memo_t"* nonnull %36)
          to label %48 unwind label %49, !dbg !4632

48:                                               ; preds = %47, %43
  store %"struct.String::memo_t"* null, %"struct.String::memo_t"** %35, align 8, !dbg !4633, !tbaa !3010
  br label %52, !dbg !4634

49:                                               ; preds = %47
  %50 = landingpad { i8*, i32 }
          catch i8* null, !dbg !4635
  %51 = extractvalue { i8*, i32 } %50, 0, !dbg !4635
  call void @__clang_call_terminate(i8* %51) #16, !dbg !4635
  unreachable, !dbg !4635

52:                                               ; preds = %33, %48
  call void @llvm.lifetime.end.p0i8(i64 24, i8* nonnull %8) #14, !dbg !4546
  call void @llvm.lifetime.end.p0i8(i64 8, i8* nonnull %7) #14, !dbg !4636
  resume { i8*, i32 } %34, !dbg !4636

53:                                               ; preds = %31, %4
  call void @llvm.dbg.value(metadata %class.String* %6, metadata !3083, metadata !DIExpression()) #14, !dbg !4637
  call void @llvm.dbg.value(metadata %class.String* %6, metadata !3078, metadata !DIExpression()) #14, !dbg !4639
  %54 = getelementptr inbounds %class.String, %class.String* %6, i64 0, i32 0, i32 2, !dbg !4641
  %55 = load %"struct.String::memo_t"*, %"struct.String::memo_t"** %54, align 8, !dbg !4641, !tbaa !3010
  %56 = icmp eq %"struct.String::memo_t"* %55, null, !dbg !4642
  br i1 %56, label %71, label %57, !dbg !4643

57:                                               ; preds = %53
  %58 = getelementptr inbounds %"struct.String::memo_t", %"struct.String::memo_t"* %55, i64 0, i32 0, !dbg !4644
  %59 = load volatile i32, i32* %58, align 4, !dbg !4644, !tbaa !3189
  %60 = icmp eq i32 %59, 0, !dbg !4644
  br i1 %60, label %61, label %62, !dbg !4644

61:                                               ; preds = %57
  call void @__assert_fail(i8* getelementptr inbounds ([18 x i8], [18 x i8]* @.str.18, i64 0, i64 0), i8* getelementptr inbounds ([29 x i8], [29 x i8]* @.str.19, i64 0, i64 0), i32 273, i8* getelementptr inbounds ([27 x i8], [27 x i8]* @__PRETTY_FUNCTION__._ZNK6String5derefEv, i64 0, i64 0)) #16, !dbg !4644
  unreachable, !dbg !4644

62:                                               ; preds = %57
  call void @llvm.dbg.value(metadata i32* %58, metadata !3191, metadata !DIExpression()) #14, !dbg !4645
  %63 = load volatile i32, i32* %58, align 4, !dbg !4647, !tbaa !3034
  %64 = add i32 %63, -1, !dbg !4647
  store volatile i32 %64, i32* %58, align 4, !dbg !4647, !tbaa !3034
  %65 = icmp eq i32 %64, 0, !dbg !4648
  br i1 %65, label %66, label %67, !dbg !4649

66:                                               ; preds = %62
  invoke void @_ZN6String11delete_memoEPNS_6memo_tE(%"struct.String::memo_t"* nonnull %55)
          to label %67 unwind label %68, !dbg !4650

67:                                               ; preds = %66, %62
  store %"struct.String::memo_t"* null, %"struct.String::memo_t"** %54, align 8, !dbg !4651, !tbaa !3010
  br label %71, !dbg !4652

68:                                               ; preds = %66
  %69 = landingpad { i8*, i32 }
          catch i8* null, !dbg !4653
  %70 = extractvalue { i8*, i32 } %69, 0, !dbg !4653
  call void @__clang_call_terminate(i8* %70) #16, !dbg !4653
  unreachable, !dbg !4653

71:                                               ; preds = %53, %67
  call void @llvm.lifetime.end.p0i8(i64 24, i8* nonnull %8) #14, !dbg !4546
  call void @llvm.lifetime.end.p0i8(i64 8, i8* nonnull %7) #14, !dbg !4636
  ret void, !dbg !4636
}

; Function Attrs: noinline optnone sspstrong uwtable
define linkonce_odr dso_local void @_Z14args_base_readIjEvP4ArgsPKciRT_(%class.Args* %0, i8* %1, i32 %2, i32* dereferenceable(4) %3) local_unnamed_addr #8 comdat !dbg !4654 {
  %5 = alloca %class.Args*, align 8
  %6 = alloca i8*, align 8
  %7 = alloca i32, align 4
  %8 = alloca i32*, align 8
  store %class.Args* %0, %class.Args** %5, align 8, !tbaa !3787
  call void @llvm.dbg.declare(metadata %class.Args** %5, metadata !4656, metadata !DIExpression()), !dbg !4660
  store i8* %1, i8** %6, align 8, !tbaa !3787
  call void @llvm.dbg.declare(metadata i8** %6, metadata !4657, metadata !DIExpression()), !dbg !4661
  store i32 %2, i32* %7, align 4, !tbaa !3034
  call void @llvm.dbg.declare(metadata i32* %7, metadata !4658, metadata !DIExpression()), !dbg !4662
  store i32* %3, i32** %8, align 8, !tbaa !3787
  call void @llvm.dbg.declare(metadata i32** %8, metadata !4659, metadata !DIExpression()), !dbg !4663
  %9 = load %class.Args*, %class.Args** %5, align 8, !dbg !4664, !tbaa !3787
  %10 = load i8*, i8** %6, align 8, !dbg !4665, !tbaa !3787
  %11 = load i32, i32* %7, align 4, !dbg !4666, !tbaa !3034
  %12 = load i32*, i32** %8, align 8, !dbg !4667, !tbaa !3787
  call void @_ZN4Args9base_readIjEEvPKciRT_(%class.Args* %9, i8* %10, i32 %11, i32* dereferenceable(4) %12), !dbg !4668
  ret void, !dbg !4669
}

; Function Attrs: sspstrong uwtable
define linkonce_odr dso_local void @_ZN4Args9base_readIjEEvPKciRT_(%class.Args* %0, i8* %1, i32 %2, i32* dereferenceable(4) %3) local_unnamed_addr #0 comdat align 2 personality i8* bitcast (i32 (...)* @__gxx_personality_v0 to i8*) !dbg !4670 {
  %5 = alloca [1 x i32], align 4
  call void @llvm.dbg.declare(metadata [1 x i32]* %5, metadata !3441, metadata !DIExpression()), !dbg !4684
  %6 = alloca i64, align 8
  %7 = alloca %"struct.Args::Slot"*, align 8
  %8 = alloca %class.String, align 8
  call void @llvm.dbg.value(metadata %class.Args* %0, metadata !4675, metadata !DIExpression()), !dbg !4704
  call void @llvm.dbg.value(metadata i8* %1, metadata !4676, metadata !DIExpression()), !dbg !4704
  call void @llvm.dbg.value(metadata i32 %2, metadata !4677, metadata !DIExpression()), !dbg !4704
  call void @llvm.dbg.value(metadata i32* %3, metadata !4678, metadata !DIExpression()), !dbg !4704
  %9 = bitcast %"struct.Args::Slot"** %7 to i8*, !dbg !4705
  call void @llvm.lifetime.start.p0i8(i64 8, i8* nonnull %9) #14, !dbg !4705
  %10 = bitcast %class.String* %8 to i8*, !dbg !4706
  call void @llvm.lifetime.start.p0i8(i64 24, i8* nonnull %10) #14, !dbg !4706
  call void @llvm.dbg.declare(metadata %class.String* %8, metadata !4680, metadata !DIExpression()), !dbg !4707
  call void @llvm.dbg.value(metadata %"struct.Args::Slot"** %7, metadata !4679, metadata !DIExpression(DW_OP_deref)), !dbg !4704
  call void @_ZN4Args4findEPKciRPNS_4SlotE(%class.String* nonnull sret %8, %class.Args* %0, i8* %1, i32 %2, %"struct.Args::Slot"** nonnull dereferenceable(8) %7), !dbg !4708
  call void @llvm.dbg.value(metadata %class.String* %8, metadata !3053, metadata !DIExpression()), !dbg !4709
  %11 = getelementptr inbounds %class.String, %class.String* %8, i64 0, i32 0, i32 1, !dbg !4711
  %12 = load i32, i32* %11, align 8, !dbg !4711, !tbaa !3008
  %13 = icmp eq i32 %12, 0, !dbg !4712
  %14 = select i1 %13, { i64, i64 } zeroinitializer, { i64, i64 } { i64 ptrtoint (i32 (%class.String*)* @_ZNK6String6lengthEv to i64), i64 0 }, !dbg !4713
  %15 = extractvalue { i64, i64 } %14, 0, !dbg !4707
  %16 = icmp eq i64 %15, 0, !dbg !4707
  br i1 %16, label %77, label %17, !dbg !4706

17:                                               ; preds = %4
  call void @llvm.dbg.value(metadata i32* %3, metadata !4714, metadata !DIExpression()), !dbg !4721
  call void @llvm.dbg.value(metadata %class.Args* %0, metadata !4720, metadata !DIExpression()), !dbg !4721
  call void @llvm.dbg.value(metadata %class.Args* %0, metadata !4723, metadata !DIExpression()), !dbg !4730
  call void @llvm.dbg.value(metadata i32* %3, metadata !4729, metadata !DIExpression()), !dbg !4730
  %18 = bitcast i32* %3 to i8*, !dbg !4732
  %19 = invoke i8* @_ZN4Args11simple_slotEPvm(%class.Args* nonnull %0, i8* nonnull %18, i64 4)
          to label %20 unwind label %57, !dbg !4734

20:                                               ; preds = %17
  %21 = bitcast i8* %19 to i32*, !dbg !4735
  call void @llvm.dbg.value(metadata i32* %21, metadata !4682, metadata !DIExpression()), !dbg !4736
  %22 = icmp eq i8* %19, null, !dbg !4737
  br i1 %22, label %54, label %23, !dbg !4738

23:                                               ; preds = %20
  %24 = bitcast i64* %6 to i8*, !dbg !4739
  call void @llvm.lifetime.start.p0i8(i64 8, i8* nonnull %24), !dbg !4739
  call void @llvm.dbg.value(metadata i64 0, metadata !4699, metadata !DIExpression()), !dbg !4739
  store i64 0, i64* %6, align 8
  call void @llvm.dbg.value(metadata %class.String* %8, metadata !4700, metadata !DIExpression()), !dbg !4739
  call void @llvm.dbg.value(metadata i32* %21, metadata !4701, metadata !DIExpression()), !dbg !4739
  call void @llvm.dbg.value(metadata %class.Args* %0, metadata !4702, metadata !DIExpression()), !dbg !4739
  %25 = bitcast i64* %6 to %class.IntArg*, !dbg !4740
  %26 = bitcast %class.Args* %0 to %class.ArgContext*, !dbg !4741
  call void @llvm.dbg.value(metadata %class.IntArg* %25, metadata !3485, metadata !DIExpression()), !dbg !4742
  call void @llvm.dbg.value(metadata %class.String* %8, metadata !3486, metadata !DIExpression()), !dbg !4742
  call void @llvm.dbg.value(metadata i32* %21, metadata !3487, metadata !DIExpression()), !dbg !4742
  call void @llvm.dbg.value(metadata %class.ArgContext* %26, metadata !3488, metadata !DIExpression()), !dbg !4742
  call void @llvm.dbg.value(metadata %class.IntArg* %25, metadata !3469, metadata !DIExpression()), !dbg !4743
  call void @llvm.dbg.value(metadata %class.String* %8, metadata !3471, metadata !DIExpression()), !dbg !4743
  call void @llvm.dbg.value(metadata %class.ArgContext* %26, metadata !3473, metadata !DIExpression()), !dbg !4743
  call void @llvm.dbg.value(metadata i8 0, metadata !3474, metadata !DIExpression()), !dbg !4743
  call void @llvm.dbg.value(metadata i32 1, metadata !3475, metadata !DIExpression()), !dbg !4743
  %27 = bitcast [1 x i32]* %5 to i8*, !dbg !4744
  call void @llvm.lifetime.start.p0i8(i64 4, i8* nonnull %27) #14, !dbg !4744
  call void @llvm.dbg.value(metadata %class.String* %8, metadata !3642, metadata !DIExpression()), !dbg !4745
  %28 = getelementptr inbounds %class.String, %class.String* %8, i64 0, i32 0, i32 0, !dbg !4747
  %29 = load i8*, i8** %28, align 8, !dbg !4747, !tbaa !3004
  call void @llvm.dbg.value(metadata %class.String* %8, metadata !3649, metadata !DIExpression()), !dbg !4748
  %30 = load i32, i32* %11, align 8, !dbg !4750, !tbaa !3008
  %31 = sext i32 %30 to i64, !dbg !4751
  %32 = getelementptr inbounds i8, i8* %29, i64 %31, !dbg !4751
  %33 = getelementptr inbounds [1 x i32], [1 x i32]* %5, i64 0, i64 0, !dbg !4752
  call void @llvm.dbg.value(metadata i64* %6, metadata !4699, metadata !DIExpression(DW_OP_deref)), !dbg !4739
  %34 = invoke i8* @_ZN6IntArg5parseEPKcS1_biPji(%class.IntArg* nonnull %25, i8* %29, i8* %32, i1 zeroext false, i32 4, i32* nonnull %33, i32 1)
          to label %35 unwind label %57, !dbg !4753

35:                                               ; preds = %23
  call void @llvm.dbg.value(metadata %class.String* %8, metadata !3649, metadata !DIExpression()), !dbg !4754
  %36 = load i8*, i8** %28, align 8, !dbg !4756, !tbaa !3004
  %37 = load i32, i32* %11, align 8, !dbg !4757, !tbaa !3008
  %38 = sext i32 %37 to i64, !dbg !4758
  %39 = getelementptr inbounds i8, i8* %36, i64 %38, !dbg !4758
  %40 = icmp eq i8* %34, %39, !dbg !4759
  %41 = getelementptr inbounds %class.IntArg, %class.IntArg* %25, i64 0, i32 1, !dbg !4743
  br i1 %40, label %43, label %42, !dbg !4760

42:                                               ; preds = %35
  store i32 22, i32* %41, align 4, !dbg !4761, !tbaa !3666
  br label %45, !dbg !4762

43:                                               ; preds = %35
  %44 = load i32, i32* %41, align 4, !dbg !4763, !tbaa !3666
  switch i32 %44, label %45 [
    i32 0, label %47
    i32 34, label %47
  ], !dbg !4762

45:                                               ; preds = %43, %42
  invoke void (%class.ArgContext*, i8*, ...) @_ZNK10ArgContext5errorEPKcz(%class.ArgContext* nonnull %26, i8* getelementptr inbounds ([15 x i8], [15 x i8]* @.str.27, i64 0, i64 0))
          to label %46 unwind label %57, !dbg !4764

46:                                               ; preds = %45
  call void @llvm.lifetime.end.p0i8(i64 4, i8* nonnull %27) #14, !dbg !4765
  br label %52, !dbg !4766

47:                                               ; preds = %43, %43
  call void @llvm.dbg.value(metadata i32* %33, metadata !3674, metadata !DIExpression()), !dbg !4767
  call void @llvm.dbg.value(metadata i32* %33, metadata !3685, metadata !DIExpression()), !dbg !4769
  %48 = load i32, i32* %33, align 4, !dbg !4771, !tbaa !3034
  call void @llvm.lifetime.end.p0i8(i64 4, i8* nonnull %27) #14, !dbg !4765
  switch i32 %44, label %52 [
    i32 34, label %49
    i32 0, label %51
  ], !dbg !4772

49:                                               ; preds = %47
  %50 = zext i32 %48 to i64, !dbg !4773
  call void @llvm.dbg.value(metadata i64* %6, metadata !4699, metadata !DIExpression(DW_OP_deref)), !dbg !4739
  invoke void @_ZN6IntArg11range_errorERK10ArgContextbx(%class.IntArg* nonnull %25, %class.ArgContext* nonnull dereferenceable(32) %26, i1 zeroext false, i64 %50)
          to label %52 unwind label %57, !dbg !4774

51:                                               ; preds = %47
  store i32 %48, i32* %21, align 4, !dbg !4775, !tbaa !3034
  br label %52, !dbg !4776

52:                                               ; preds = %49, %46, %47, %51
  %53 = phi i1 [ true, %51 ], [ false, %47 ], [ false, %46 ], [ false, %49 ], !dbg !4777
  call void @llvm.lifetime.end.p0i8(i64 8, i8* nonnull %24), !dbg !4778
  br label %54, !dbg !4778

54:                                               ; preds = %52, %20
  %55 = phi i1 [ false, %20 ], [ %53, %52 ], !dbg !4736
  %56 = load %"struct.Args::Slot"*, %"struct.Args::Slot"** %7, align 8, !dbg !4779, !tbaa !3787
  call void @llvm.dbg.value(metadata %"struct.Args::Slot"* %56, metadata !4679, metadata !DIExpression()), !dbg !4704
  invoke void @_ZN4Args9postparseEbPNS_4SlotE(%class.Args* nonnull %0, i1 zeroext %55, %"struct.Args::Slot"* %56)
          to label %77 unwind label %57, !dbg !4780

57:                                               ; preds = %49, %45, %23, %17, %54
  %58 = landingpad { i8*, i32 }
          cleanup, !dbg !4781
  call void @llvm.dbg.value(metadata %class.String* %8, metadata !3083, metadata !DIExpression()) #14, !dbg !4782
  call void @llvm.dbg.value(metadata %class.String* %8, metadata !3078, metadata !DIExpression()) #14, !dbg !4784
  %59 = getelementptr inbounds %class.String, %class.String* %8, i64 0, i32 0, i32 2, !dbg !4786
  %60 = load %"struct.String::memo_t"*, %"struct.String::memo_t"** %59, align 8, !dbg !4786, !tbaa !3010
  %61 = icmp eq %"struct.String::memo_t"* %60, null, !dbg !4787
  br i1 %61, label %76, label %62, !dbg !4788

62:                                               ; preds = %57
  %63 = getelementptr inbounds %"struct.String::memo_t", %"struct.String::memo_t"* %60, i64 0, i32 0, !dbg !4789
  %64 = load volatile i32, i32* %63, align 4, !dbg !4789, !tbaa !3189
  %65 = icmp eq i32 %64, 0, !dbg !4789
  br i1 %65, label %66, label %67, !dbg !4789

66:                                               ; preds = %62
  call void @__assert_fail(i8* getelementptr inbounds ([18 x i8], [18 x i8]* @.str.18, i64 0, i64 0), i8* getelementptr inbounds ([29 x i8], [29 x i8]* @.str.19, i64 0, i64 0), i32 273, i8* getelementptr inbounds ([27 x i8], [27 x i8]* @__PRETTY_FUNCTION__._ZNK6String5derefEv, i64 0, i64 0)) #16, !dbg !4789
  unreachable, !dbg !4789

67:                                               ; preds = %62
  call void @llvm.dbg.value(metadata i32* %63, metadata !3191, metadata !DIExpression()) #14, !dbg !4790
  %68 = load volatile i32, i32* %63, align 4, !dbg !4792, !tbaa !3034
  %69 = add i32 %68, -1, !dbg !4792
  store volatile i32 %69, i32* %63, align 4, !dbg !4792, !tbaa !3034
  %70 = icmp eq i32 %69, 0, !dbg !4793
  br i1 %70, label %71, label %72, !dbg !4794

71:                                               ; preds = %67
  invoke void @_ZN6String11delete_memoEPNS_6memo_tE(%"struct.String::memo_t"* nonnull %60)
          to label %72 unwind label %73, !dbg !4795

72:                                               ; preds = %71, %67
  store %"struct.String::memo_t"* null, %"struct.String::memo_t"** %59, align 8, !dbg !4796, !tbaa !3010
  br label %76, !dbg !4797

73:                                               ; preds = %71
  %74 = landingpad { i8*, i32 }
          catch i8* null, !dbg !4798
  %75 = extractvalue { i8*, i32 } %74, 0, !dbg !4798
  call void @__clang_call_terminate(i8* %75) #16, !dbg !4798
  unreachable, !dbg !4798

76:                                               ; preds = %57, %72
  call void @llvm.lifetime.end.p0i8(i64 24, i8* nonnull %10) #14, !dbg !4706
  call void @llvm.lifetime.end.p0i8(i64 8, i8* nonnull %9) #14, !dbg !4799
  resume { i8*, i32 } %58, !dbg !4799

77:                                               ; preds = %54, %4
  call void @llvm.dbg.value(metadata %class.String* %8, metadata !3083, metadata !DIExpression()) #14, !dbg !4800
  call void @llvm.dbg.value(metadata %class.String* %8, metadata !3078, metadata !DIExpression()) #14, !dbg !4802
  %78 = getelementptr inbounds %class.String, %class.String* %8, i64 0, i32 0, i32 2, !dbg !4804
  %79 = load %"struct.String::memo_t"*, %"struct.String::memo_t"** %78, align 8, !dbg !4804, !tbaa !3010
  %80 = icmp eq %"struct.String::memo_t"* %79, null, !dbg !4805
  br i1 %80, label %95, label %81, !dbg !4806

81:                                               ; preds = %77
  %82 = getelementptr inbounds %"struct.String::memo_t", %"struct.String::memo_t"* %79, i64 0, i32 0, !dbg !4807
  %83 = load volatile i32, i32* %82, align 4, !dbg !4807, !tbaa !3189
  %84 = icmp eq i32 %83, 0, !dbg !4807
  br i1 %84, label %85, label %86, !dbg !4807

85:                                               ; preds = %81
  call void @__assert_fail(i8* getelementptr inbounds ([18 x i8], [18 x i8]* @.str.18, i64 0, i64 0), i8* getelementptr inbounds ([29 x i8], [29 x i8]* @.str.19, i64 0, i64 0), i32 273, i8* getelementptr inbounds ([27 x i8], [27 x i8]* @__PRETTY_FUNCTION__._ZNK6String5derefEv, i64 0, i64 0)) #16, !dbg !4807
  unreachable, !dbg !4807

86:                                               ; preds = %81
  call void @llvm.dbg.value(metadata i32* %82, metadata !3191, metadata !DIExpression()) #14, !dbg !4808
  %87 = load volatile i32, i32* %82, align 4, !dbg !4810, !tbaa !3034
  %88 = add i32 %87, -1, !dbg !4810
  store volatile i32 %88, i32* %82, align 4, !dbg !4810, !tbaa !3034
  %89 = icmp eq i32 %88, 0, !dbg !4811
  br i1 %89, label %90, label %91, !dbg !4812

90:                                               ; preds = %86
  invoke void @_ZN6String11delete_memoEPNS_6memo_tE(%"struct.String::memo_t"* nonnull %79)
          to label %91 unwind label %92, !dbg !4813

91:                                               ; preds = %90, %86
  store %"struct.String::memo_t"* null, %"struct.String::memo_t"** %78, align 8, !dbg !4814, !tbaa !3010
  br label %95, !dbg !4815

92:                                               ; preds = %90
  %93 = landingpad { i8*, i32 }
          catch i8* null, !dbg !4816
  %94 = extractvalue { i8*, i32 } %93, 0, !dbg !4816
  call void @__clang_call_terminate(i8* %94) #16, !dbg !4816
  unreachable, !dbg !4816

95:                                               ; preds = %77, %91
  call void @llvm.lifetime.end.p0i8(i64 24, i8* nonnull %10) #14, !dbg !4706
  call void @llvm.lifetime.end.p0i8(i64 8, i8* nonnull %9) #14, !dbg !4799
  ret void, !dbg !4799
}

; Function Attrs: argmemonly nounwind willreturn
declare void @llvm.memset.p0i8.i64(i8* nocapture writeonly, i8, i64, i1 immarg) #2

declare i8* @_ZN4Args11simple_slotEPvm(%class.Args*, i8*, i64) local_unnamed_addr #3

; Function Attrs: noinline optnone sspstrong uwtable
define linkonce_odr dso_local void @_Z14args_base_readIbEvP4ArgsPKciRT_(%class.Args* %0, i8* %1, i32 %2, i8* dereferenceable(1) %3) local_unnamed_addr #8 comdat !dbg !4817 {
  %5 = alloca %class.Args*, align 8
  %6 = alloca i8*, align 8
  %7 = alloca i32, align 4
  %8 = alloca i8*, align 8
  store %class.Args* %0, %class.Args** %5, align 8, !tbaa !3787
  call void @llvm.dbg.declare(metadata %class.Args** %5, metadata !4819, metadata !DIExpression()), !dbg !4823
  store i8* %1, i8** %6, align 8, !tbaa !3787
  call void @llvm.dbg.declare(metadata i8** %6, metadata !4820, metadata !DIExpression()), !dbg !4824
  store i32 %2, i32* %7, align 4, !tbaa !3034
  call void @llvm.dbg.declare(metadata i32* %7, metadata !4821, metadata !DIExpression()), !dbg !4825
  store i8* %3, i8** %8, align 8, !tbaa !3787
  call void @llvm.dbg.declare(metadata i8** %8, metadata !4822, metadata !DIExpression()), !dbg !4826
  %9 = load %class.Args*, %class.Args** %5, align 8, !dbg !4827, !tbaa !3787
  %10 = load i8*, i8** %6, align 8, !dbg !4828, !tbaa !3787
  %11 = load i32, i32* %7, align 4, !dbg !4829, !tbaa !3034
  %12 = load i8*, i8** %8, align 8, !dbg !4830, !tbaa !3787
  call void @_ZN4Args9base_readIbEEvPKciRT_(%class.Args* %9, i8* %10, i32 %11, i8* dereferenceable(1) %12), !dbg !4831
  ret void, !dbg !4832
}

; Function Attrs: sspstrong uwtable
define linkonce_odr dso_local void @_ZN4Args9base_readIbEEvPKciRT_(%class.Args* %0, i8* %1, i32 %2, i8* dereferenceable(1) %3) local_unnamed_addr #0 comdat align 2 personality i8* bitcast (i32 (...)* @__gxx_personality_v0 to i8*) !dbg !4833 {
  %5 = alloca %"struct.Args::Slot"*, align 8
  %6 = alloca %class.String, align 8
  call void @llvm.dbg.value(metadata %class.Args* %0, metadata !4838, metadata !DIExpression()), !dbg !4847
  call void @llvm.dbg.value(metadata i8* %1, metadata !4839, metadata !DIExpression()), !dbg !4847
  call void @llvm.dbg.value(metadata i32 %2, metadata !4840, metadata !DIExpression()), !dbg !4847
  call void @llvm.dbg.value(metadata i8* %3, metadata !4841, metadata !DIExpression()), !dbg !4847
  %7 = bitcast %"struct.Args::Slot"** %5 to i8*, !dbg !4848
  call void @llvm.lifetime.start.p0i8(i64 8, i8* nonnull %7) #14, !dbg !4848
  %8 = bitcast %class.String* %6 to i8*, !dbg !4849
  call void @llvm.lifetime.start.p0i8(i64 24, i8* nonnull %8) #14, !dbg !4849
  call void @llvm.dbg.declare(metadata %class.String* %6, metadata !4843, metadata !DIExpression()), !dbg !4850
  call void @llvm.dbg.value(metadata %"struct.Args::Slot"** %5, metadata !4842, metadata !DIExpression(DW_OP_deref)), !dbg !4847
  call void @_ZN4Args4findEPKciRPNS_4SlotE(%class.String* nonnull sret %6, %class.Args* %0, i8* %1, i32 %2, %"struct.Args::Slot"** nonnull dereferenceable(8) %5), !dbg !4851
  call void @llvm.dbg.value(metadata %class.String* %6, metadata !3053, metadata !DIExpression()), !dbg !4852
  %9 = getelementptr inbounds %class.String, %class.String* %6, i64 0, i32 0, i32 1, !dbg !4854
  %10 = load i32, i32* %9, align 8, !dbg !4854, !tbaa !3008
  %11 = icmp eq i32 %10, 0, !dbg !4855
  %12 = select i1 %11, { i64, i64 } zeroinitializer, { i64, i64 } { i64 ptrtoint (i32 (%class.String*)* @_ZNK6String6lengthEv to i64), i64 0 }, !dbg !4856
  %13 = extractvalue { i64, i64 } %12, 0, !dbg !4850
  %14 = icmp eq i64 %13, 0, !dbg !4850
  br i1 %14, label %45, label %15, !dbg !4849

15:                                               ; preds = %4
  call void @llvm.dbg.value(metadata i8* %3, metadata !4857, metadata !DIExpression()), !dbg !4879
  call void @llvm.dbg.value(metadata %class.Args* %0, metadata !4878, metadata !DIExpression()), !dbg !4879
  call void @llvm.dbg.value(metadata %class.Args* %0, metadata !4881, metadata !DIExpression()), !dbg !4888
  call void @llvm.dbg.value(metadata i8* %3, metadata !4887, metadata !DIExpression()), !dbg !4888
  %16 = invoke i8* @_ZN4Args11simple_slotEPvm(%class.Args* nonnull %0, i8* nonnull %3, i64 1)
          to label %17 unwind label %25, !dbg !4890

17:                                               ; preds = %15
  call void @llvm.dbg.value(metadata i8* %16, metadata !4845, metadata !DIExpression()), !dbg !4892
  %18 = icmp eq i8* %16, null, !dbg !4893
  br i1 %18, label %22, label %19, !dbg !4894

19:                                               ; preds = %17
  call void @llvm.dbg.value(metadata %class.String* %6, metadata !4895, metadata !DIExpression()), !dbg !4904
  call void @llvm.dbg.value(metadata i8* %16, metadata !4902, metadata !DIExpression()), !dbg !4904
  call void @llvm.dbg.value(metadata %class.Args* %0, metadata !4903, metadata !DIExpression()), !dbg !4904
  %20 = bitcast %class.Args* %0 to %class.ArgContext*, !dbg !4906
  %21 = invoke zeroext i1 @_ZN7BoolArg5parseERK6StringRbRK10ArgContext(%class.String* nonnull dereferenceable(24) %6, i8* nonnull dereferenceable(1) %16, %class.ArgContext* nonnull dereferenceable(32) %20)
          to label %22 unwind label %25, !dbg !4907

22:                                               ; preds = %19, %17
  %23 = phi i1 [ false, %17 ], [ %21, %19 ], !dbg !4892
  %24 = load %"struct.Args::Slot"*, %"struct.Args::Slot"** %5, align 8, !dbg !4908, !tbaa !3787
  call void @llvm.dbg.value(metadata %"struct.Args::Slot"* %24, metadata !4842, metadata !DIExpression()), !dbg !4847
  invoke void @_ZN4Args9postparseEbPNS_4SlotE(%class.Args* nonnull %0, i1 zeroext %23, %"struct.Args::Slot"* %24)
          to label %45 unwind label %25, !dbg !4909

25:                                               ; preds = %19, %15, %22
  %26 = landingpad { i8*, i32 }
          cleanup, !dbg !4910
  call void @llvm.dbg.value(metadata %class.String* %6, metadata !3083, metadata !DIExpression()) #14, !dbg !4911
  call void @llvm.dbg.value(metadata %class.String* %6, metadata !3078, metadata !DIExpression()) #14, !dbg !4913
  %27 = getelementptr inbounds %class.String, %class.String* %6, i64 0, i32 0, i32 2, !dbg !4915
  %28 = load %"struct.String::memo_t"*, %"struct.String::memo_t"** %27, align 8, !dbg !4915, !tbaa !3010
  %29 = icmp eq %"struct.String::memo_t"* %28, null, !dbg !4916
  br i1 %29, label %44, label %30, !dbg !4917

30:                                               ; preds = %25
  %31 = getelementptr inbounds %"struct.String::memo_t", %"struct.String::memo_t"* %28, i64 0, i32 0, !dbg !4918
  %32 = load volatile i32, i32* %31, align 4, !dbg !4918, !tbaa !3189
  %33 = icmp eq i32 %32, 0, !dbg !4918
  br i1 %33, label %34, label %35, !dbg !4918

34:                                               ; preds = %30
  call void @__assert_fail(i8* getelementptr inbounds ([18 x i8], [18 x i8]* @.str.18, i64 0, i64 0), i8* getelementptr inbounds ([29 x i8], [29 x i8]* @.str.19, i64 0, i64 0), i32 273, i8* getelementptr inbounds ([27 x i8], [27 x i8]* @__PRETTY_FUNCTION__._ZNK6String5derefEv, i64 0, i64 0)) #16, !dbg !4918
  unreachable, !dbg !4918

35:                                               ; preds = %30
  call void @llvm.dbg.value(metadata i32* %31, metadata !3191, metadata !DIExpression()) #14, !dbg !4919
  %36 = load volatile i32, i32* %31, align 4, !dbg !4921, !tbaa !3034
  %37 = add i32 %36, -1, !dbg !4921
  store volatile i32 %37, i32* %31, align 4, !dbg !4921, !tbaa !3034
  %38 = icmp eq i32 %37, 0, !dbg !4922
  br i1 %38, label %39, label %40, !dbg !4923

39:                                               ; preds = %35
  invoke void @_ZN6String11delete_memoEPNS_6memo_tE(%"struct.String::memo_t"* nonnull %28)
          to label %40 unwind label %41, !dbg !4924

40:                                               ; preds = %39, %35
  store %"struct.String::memo_t"* null, %"struct.String::memo_t"** %27, align 8, !dbg !4925, !tbaa !3010
  br label %44, !dbg !4926

41:                                               ; preds = %39
  %42 = landingpad { i8*, i32 }
          catch i8* null, !dbg !4927
  %43 = extractvalue { i8*, i32 } %42, 0, !dbg !4927
  call void @__clang_call_terminate(i8* %43) #16, !dbg !4927
  unreachable, !dbg !4927

44:                                               ; preds = %25, %40
  call void @llvm.lifetime.end.p0i8(i64 24, i8* nonnull %8) #14, !dbg !4849
  call void @llvm.lifetime.end.p0i8(i64 8, i8* nonnull %7) #14, !dbg !4928
  resume { i8*, i32 } %26, !dbg !4928

45:                                               ; preds = %22, %4
  call void @llvm.dbg.value(metadata %class.String* %6, metadata !3083, metadata !DIExpression()) #14, !dbg !4929
  call void @llvm.dbg.value(metadata %class.String* %6, metadata !3078, metadata !DIExpression()) #14, !dbg !4931
  %46 = getelementptr inbounds %class.String, %class.String* %6, i64 0, i32 0, i32 2, !dbg !4933
  %47 = load %"struct.String::memo_t"*, %"struct.String::memo_t"** %46, align 8, !dbg !4933, !tbaa !3010
  %48 = icmp eq %"struct.String::memo_t"* %47, null, !dbg !4934
  br i1 %48, label %63, label %49, !dbg !4935

49:                                               ; preds = %45
  %50 = getelementptr inbounds %"struct.String::memo_t", %"struct.String::memo_t"* %47, i64 0, i32 0, !dbg !4936
  %51 = load volatile i32, i32* %50, align 4, !dbg !4936, !tbaa !3189
  %52 = icmp eq i32 %51, 0, !dbg !4936
  br i1 %52, label %53, label %54, !dbg !4936

53:                                               ; preds = %49
  call void @__assert_fail(i8* getelementptr inbounds ([18 x i8], [18 x i8]* @.str.18, i64 0, i64 0), i8* getelementptr inbounds ([29 x i8], [29 x i8]* @.str.19, i64 0, i64 0), i32 273, i8* getelementptr inbounds ([27 x i8], [27 x i8]* @__PRETTY_FUNCTION__._ZNK6String5derefEv, i64 0, i64 0)) #16, !dbg !4936
  unreachable, !dbg !4936

54:                                               ; preds = %49
  call void @llvm.dbg.value(metadata i32* %50, metadata !3191, metadata !DIExpression()) #14, !dbg !4937
  %55 = load volatile i32, i32* %50, align 4, !dbg !4939, !tbaa !3034
  %56 = add i32 %55, -1, !dbg !4939
  store volatile i32 %56, i32* %50, align 4, !dbg !4939, !tbaa !3034
  %57 = icmp eq i32 %56, 0, !dbg !4940
  br i1 %57, label %58, label %59, !dbg !4941

58:                                               ; preds = %54
  invoke void @_ZN6String11delete_memoEPNS_6memo_tE(%"struct.String::memo_t"* nonnull %47)
          to label %59 unwind label %60, !dbg !4942

59:                                               ; preds = %58, %54
  store %"struct.String::memo_t"* null, %"struct.String::memo_t"** %46, align 8, !dbg !4943, !tbaa !3010
  br label %63, !dbg !4944

60:                                               ; preds = %58
  %61 = landingpad { i8*, i32 }
          catch i8* null, !dbg !4945
  %62 = extractvalue { i8*, i32 } %61, 0, !dbg !4945
  call void @__clang_call_terminate(i8* %62) #16, !dbg !4945
  unreachable, !dbg !4945

63:                                               ; preds = %45, %59
  call void @llvm.lifetime.end.p0i8(i64 24, i8* nonnull %8) #14, !dbg !4849
  call void @llvm.lifetime.end.p0i8(i64 8, i8* nonnull %7) #14, !dbg !4928
  ret void, !dbg !4928
}

declare zeroext i1 @_ZN7BoolArg5parseERK6StringRbRK10ArgContext(%class.String* dereferenceable(24), i8* dereferenceable(1), %class.ArgContext* dereferenceable(32)) local_unnamed_addr #3

declare void @_ZN6IntArg11range_errorERK10ArgContextbx(%class.IntArg*, %class.ArgContext* dereferenceable(32), i1 zeroext, i64) local_unnamed_addr #3

declare i8* @_ZN6IntArg5parseEPKcS1_biPji(%class.IntArg*, i8*, i8*, i1 zeroext, i32, i32*, i32) local_unnamed_addr #3

; Function Attrs: noinline optnone sspstrong uwtable
define linkonce_odr dso_local void @_Z14args_base_readIN13CheckIPHeader12OldBadSrcArgE6VectorI9IPAddressEEvP4ArgsPKciT_RT0_(%class.Args* %0, i8* %1, i32 %2, %class.Vector* dereferenceable(16) %3) local_unnamed_addr #8 comdat !dbg !4946 {
  %5 = alloca %"struct.CheckIPHeader::OldBadSrcArg", align 1
  %6 = alloca %class.Args*, align 8
  %7 = alloca i8*, align 8
  %8 = alloca i32, align 4
  %9 = alloca %class.Vector*, align 8
  %10 = alloca %"struct.CheckIPHeader::OldBadSrcArg", align 1
  store %class.Args* %0, %class.Args** %6, align 8, !tbaa !3787
  call void @llvm.dbg.declare(metadata %class.Args** %6, metadata !4948, metadata !DIExpression()), !dbg !4953
  store i8* %1, i8** %7, align 8, !tbaa !3787
  call void @llvm.dbg.declare(metadata i8** %7, metadata !4949, metadata !DIExpression()), !dbg !4954
  store i32 %2, i32* %8, align 4, !tbaa !3034
  call void @llvm.dbg.declare(metadata i32* %8, metadata !4950, metadata !DIExpression()), !dbg !4955
  call void @llvm.dbg.declare(metadata %"struct.CheckIPHeader::OldBadSrcArg"* %5, metadata !4951, metadata !DIExpression()), !dbg !4956
  store %class.Vector* %3, %class.Vector** %9, align 8, !tbaa !3787
  call void @llvm.dbg.declare(metadata %class.Vector** %9, metadata !4952, metadata !DIExpression()), !dbg !4957
  %11 = load %class.Args*, %class.Args** %6, align 8, !dbg !4958, !tbaa !3787
  %12 = load i8*, i8** %7, align 8, !dbg !4959, !tbaa !3787
  %13 = load i32, i32* %8, align 4, !dbg !4960, !tbaa !3034
  %14 = load %class.Vector*, %class.Vector** %9, align 8, !dbg !4961, !tbaa !3787
  call void @_ZN4Args9base_readIN13CheckIPHeader12OldBadSrcArgE6VectorI9IPAddressEEEvPKciT_RT0_(%class.Args* %11, i8* %12, i32 %13, %class.Vector* dereferenceable(16) %14), !dbg !4962
  ret void, !dbg !4963
}

; Function Attrs: sspstrong uwtable
define linkonce_odr dso_local void @_ZN4Args9base_readIN13CheckIPHeader12OldBadSrcArgE6VectorI9IPAddressEEEvPKciT_RT0_(%class.Args* %0, i8* %1, i32 %2, %class.Vector* dereferenceable(16) %3) local_unnamed_addr #0 comdat align 2 personality i8* bitcast (i32 (...)* @__gxx_personality_v0 to i8*) !dbg !4964 {
  %5 = alloca %"struct.Args::Slot"*, align 8
  %6 = alloca %class.String, align 8
  call void @llvm.dbg.value(metadata %class.Args* %0, metadata !4969, metadata !DIExpression()), !dbg !4979
  call void @llvm.dbg.value(metadata i8* %1, metadata !4970, metadata !DIExpression()), !dbg !4979
  call void @llvm.dbg.value(metadata i32 %2, metadata !4971, metadata !DIExpression()), !dbg !4979
  call void @llvm.dbg.value(metadata %class.Vector* %3, metadata !4973, metadata !DIExpression()), !dbg !4979
  %7 = bitcast %"struct.Args::Slot"** %5 to i8*, !dbg !4980
  call void @llvm.lifetime.start.p0i8(i64 8, i8* nonnull %7) #14, !dbg !4980
  %8 = bitcast %class.String* %6 to i8*, !dbg !4981
  call void @llvm.lifetime.start.p0i8(i64 24, i8* nonnull %8) #14, !dbg !4981
  call void @llvm.dbg.declare(metadata %class.String* %6, metadata !4975, metadata !DIExpression()), !dbg !4982
  call void @llvm.dbg.value(metadata %"struct.Args::Slot"** %5, metadata !4974, metadata !DIExpression(DW_OP_deref)), !dbg !4979
  call void @_ZN4Args4findEPKciRPNS_4SlotE(%class.String* nonnull sret %6, %class.Args* %0, i8* %1, i32 %2, %"struct.Args::Slot"** nonnull dereferenceable(8) %5), !dbg !4983
  call void @llvm.dbg.value(metadata %class.String* %6, metadata !3053, metadata !DIExpression()), !dbg !4984
  %9 = getelementptr inbounds %class.String, %class.String* %6, i64 0, i32 0, i32 1, !dbg !4986
  %10 = load i32, i32* %9, align 8, !dbg !4986, !tbaa !3008
  %11 = icmp eq i32 %10, 0, !dbg !4987
  %12 = select i1 %11, { i64, i64 } zeroinitializer, { i64, i64 } { i64 ptrtoint (i32 (%class.String*)* @_ZNK6String6lengthEv to i64), i64 0 }, !dbg !4988
  %13 = extractvalue { i64, i64 } %12, 0, !dbg !4982
  %14 = icmp eq i64 %13, 0, !dbg !4982
  br i1 %14, label %52, label %15, !dbg !4981

15:                                               ; preds = %4
  call void @llvm.dbg.value(metadata %class.Vector* %3, metadata !4989, metadata !DIExpression()), !dbg !4996
  call void @llvm.dbg.value(metadata %class.Args* %0, metadata !4995, metadata !DIExpression()), !dbg !4996
  call void @llvm.dbg.value(metadata %class.Args* %0, metadata !4306, metadata !DIExpression()), !dbg !4998
  call void @llvm.dbg.value(metadata %class.Vector* %3, metadata !4312, metadata !DIExpression()), !dbg !4998
  call void @llvm.dbg.value(metadata %class.Args* %0, metadata !4315, metadata !DIExpression()), !dbg !5000
