; ModuleID = '../elements/ip/directiplookup.cc'
source_filename = "../elements/ip/directiplookup.cc"
target datalayout = "e-m:e-p270:32:32-p271:32:32-p272:64:64-i64:64-f80:128-n8:16:32:64-S128"
target triple = "x86_64-pc-linux-gnu"

%class.DirectIPLookup = type { %class.IPRouteTable.base, %"struct.DirectIPLookup::Table" }
%class.IPRouteTable.base = type { %class.Element.base }
%class.Element.base = type <{ i32 (...)**, [2 x %"class.Element::Port"*], [4 x %"class.Element::Port"], [2 x i32], %class.Router*, i32 }>
%"class.Element::Port" = type <{ %class.Element*, i32, [4 x i8] }>
%class.Element = type <{ i32 (...)**, [2 x %"class.Element::Port"*], [4 x %"class.Element::Port"], [2 x i32], %class.Router*, i32, [4 x i8] }>
%class.Router = type { %class.Master*, %class.atomic_uint32_t, i32, i8, i32, %class.atomic_uint32_t, %class.Vector, %class.Vector.0, %class.Vector.0, %class.Vector.2, %class.Vector.5, %class.Vector.6, i32, %class.Vector.5, [2 x %class.Vector.5], %class.Vector.5, %class.Vector.8, %class.Vector.5, %class.Vector.0, %class.Vector.5, %class.Vector.5, %class.Vector.5, %class.Vector.5, %class.Handler**, i32, i32, %class.Vector.0, %class.Vector.12, %class.Element*, %class.String, %"struct.Router::notifier_signals_t"*, %class.HashMap_ArenaFactory*, %class.Router*, %class.ThreadSched*, %class.NameInfo*, %class.Vector.5, %class.Vector.0, %class.Router* }
%class.Master = type opaque
%class.atomic_uint32_t = type { i32 }
%class.Vector = type { %class.vector_memory }
%class.vector_memory = type { %struct.char_array*, i32, i32 }
%struct.char_array = type opaque
%class.Vector.2 = type { %class.vector_memory.3 }
%class.vector_memory.3 = type { %struct.char_array.4*, i32, i32 }
%struct.char_array.4 = type opaque
%class.Vector.6 = type { %class.vector_memory.7 }
%class.vector_memory.7 = type { %"struct.Router::element_landmark_t"*, i32, i32 }
%"struct.Router::element_landmark_t" = type { i32, %class.String }
%class.Vector.8 = type { %class.vector_memory.9 }
%class.vector_memory.9 = type { %struct.char_array.10*, i32, i32 }
%struct.char_array.10 = type { [16 x i8] }
%class.Handler = type <{ %class.String, %union.anon, %union.anon.11, i8*, i8*, i32, i32, i32, [4 x i8] }>
%union.anon = type { i32 (i32, %class.String*, %class.Element*, %class.Handler*, %class.ErrorHandler*)* }
%class.ErrorHandler = type <{ i32 (...)**, i32, [4 x i8] }>
%union.anon.11 = type { i32 (i32, %class.String*, %class.Element*, %class.Handler*, %class.ErrorHandler*)* }
%class.Vector.12 = type { %class.vector_memory }
%class.String = type { %"struct.String::rep_t" }
%"struct.String::rep_t" = type { i8*, i32, %"struct.String::memo_t"* }
%"struct.String::memo_t" = type { i32, i32, i32, [8 x i8] }
%"struct.Router::notifier_signals_t" = type { %class.String, i32, [128 x %class.atomic_uint32_t], %"struct.Router::notifier_signals_t"* }
%class.HashMap_ArenaFactory = type opaque
%class.ThreadSched = type { i32 (...)** }
%class.NameInfo = type opaque
%class.Vector.5 = type { %class.vector_memory.3 }
%class.Vector.0 = type { %class.vector_memory.1 }
%class.vector_memory.1 = type { %class.String*, i32, i32 }
%"struct.DirectIPLookup::Table" = type { i16*, i16*, %"struct.DirectIPLookup::VirtualPort"*, %"struct.DirectIPLookup::CleartextEntry"*, i32*, i8*, i8*, i32, i32, i32, i32, i16, i32, i32, i32, i32, i32 }
%"struct.DirectIPLookup::VirtualPort" = type { i16, i16, i32, %class.IPAddress, i16, i16 }
%class.IPAddress = type { i32 }
%"struct.DirectIPLookup::CleartextEntry" = type { i32, i32, i32, i16, i16 }
%class.StringAccum = type { %"struct.StringAccum::rep_t" }
%"struct.StringAccum::rep_t" = type { i8*, i32, i32 }
%struct.IPRoute = type { %class.IPAddress, %class.IPAddress, %class.IPAddress, i32, i32 }
%class.IPRouteTable = type { %class.Element.base, [4 x i8] }
%class.Packet = type { %class.atomic_uint32_t, %class.Packet*, i8*, i8*, i8*, i8*, %"struct.Packet::AllAnno", void (i8*, i64, i8*)*, i8* }
%"struct.Packet::AllAnno" = type { %"union.Packet::Anno", i8*, i8*, i8*, i32, [8 x i8], %class.Packet*, %class.Packet* }
%"union.Packet::Anno" = type { [6 x i64] }
%class.Task = type { %struct.TaskLink.base, i32, i32, %"union.Task::Status", i1 (%class.Task*, i8*)*, i8*, %class.RouterThread*, %class.Element*, %"union.Task::Pending" }
%struct.TaskLink.base = type <{ %struct.TaskLink*, %struct.TaskLink*, i32 }>
%struct.TaskLink = type <{ %struct.TaskLink*, %struct.TaskLink*, i32, [4 x i8] }>
%"union.Task::Status" = type { i32 }
%class.RouterThread = type { %struct.TaskLink, i8, [7 x i8], %class.TimerSet, %class.SelectSet, [32 x i8], %class.Spinlock, %class.atomic_uint32_t, %class.atomic_uint32_t, %"union.Task::Pending", %"union.Task::Pending"*, %class.SpinlockIRQ, [31 x i8], %class.Master*, i32, i8, i32, i32, [40 x i8] }
%class.TimerSet = type <{ %class.Timestamp, i32, i32, i32, [4 x i8], %class.Vector.13, %class.Vector.14, %class.SimpleSpinlock, [7 x i8], %class.Timestamp, i32, [4 x i8] }>
%class.Vector.13 = type { %class.vector_memory.9 }
%class.Vector.14 = type { %class.vector_memory }
%class.SimpleSpinlock = type { i8 }
%class.Timestamp = type { %"union.Timestamp::rep_t" }
%"union.Timestamp::rep_t" = type { i64 }
%class.SelectSet = type { [2 x i32], i8, %class.Vector.15, %class.Vector.16 }
%class.Vector.15 = type { %class.vector_memory }
%class.Vector.16 = type { %class.vector_memory.17 }
%class.vector_memory.17 = type { %struct.char_array.18*, i32, i32 }
%struct.char_array.18 = type opaque
%class.Spinlock = type { i8 }
%class.SpinlockIRQ = type { i8 }
%"union.Task::Pending" = type { %class.Task* }
%class.Timer = type { i32, %class.Timestamp, %union.anon.19, i8*, %class.Element*, %class.RouterThread* }
%union.anon.19 = type { void (%class.Timer*, i8*)* }

$_ZNK7Element6outputEi = comdat any

$_ZNK7Element4Port4pushEP6Packet = comdat any

$_ZNK14DirectIPLookup10class_nameEv = comdat any

$_ZNK14DirectIPLookup10port_countEv = comdat any

$_ZNK14DirectIPLookup10processingEv = comdat any

$_ZNK7Element4portEbi = comdat any

@.str = private unnamed_addr constant [104 x i8] c"!_tbl_0_23 && !_tbl_24_31 && !_vport && !_rtable && !_rt_hashtbl && !_tbl_0_23_plen && !_tbl_24_31_plen\00", align 1
@.str.1 = private unnamed_addr constant [33 x i8] c"../elements/ip/directiplookup.cc\00", align 1
@__PRETTY_FUNCTION__._ZN14DirectIPLookup5Table10initializeEv = private unnamed_addr constant [40 x i8] c"int DirectIPLookup::Table::initialize()\00", align 1
@.str.2 = private unnamed_addr constant [32 x i8] c"BUG: _tbl_24_31[%08X] collision\00", align 1
@.str.3 = private unnamed_addr constant [34 x i8] c"!(_tbl_24_31_empty_head & 0x8000)\00", align 1
@__PRETTY_FUNCTION__._ZN14DirectIPLookup5Table9add_routeERK7IPRoutebPS1_P12ErrorHandler = private unnamed_addr constant [87 x i8] c"int DirectIPLookup::Table::add_route(const IPRoute &, bool, IPRoute *, ErrorHandler *)\00", align 1
@.str.4 = private unnamed_addr constant [31 x i8] c"BUG: _tbl_0_23[%08X] collision\00", align 1
@.str.5 = private unnamed_addr constant [40 x i8] c"BUG: default route rt_i=%d, should be 0\00", align 1
@.str.6 = private unnamed_addr constant [36 x i8] c"BUG: _tbl_24_31[%08X] inconsistency\00", align 1
@_ZTV14DirectIPLookup = dso_local unnamed_addr constant { [33 x i8*] } { [33 x i8*] [i8* null, i8* bitcast ({ i8*, i8*, i8* }* @_ZTI14DirectIPLookup to i8*), i8* bitcast (void (%class.DirectIPLookup*)* @_ZN14DirectIPLookupD2Ev to i8*), i8* bitcast (void (%class.DirectIPLookup*)* @_ZN14DirectIPLookupD0Ev to i8*), i8* bitcast (void (%class.DirectIPLookup*, i32, %class.Packet*)* @_ZN14DirectIPLookup4pushEiP6Packet to i8*), i8* bitcast (%class.Packet* (%class.Element*, i32)* @_ZN7Element4pullEi to i8*), i8* bitcast (%class.Packet* (%class.Element*, %class.Packet*)* @_ZN7Element13simple_actionEP6Packet to i8*), i8* bitcast (i1 (%class.Element*, %class.Task*)* @_ZN7Element8run_taskEP4Task to i8*), i8* bitcast (void (%class.Element*, %class.Timer*)* @_ZN7Element9run_timerEP5Timer to i8*), i8* bitcast (void (%class.Element*, i32, i32)* @_ZN7Element8selectedEii to i8*), i8* bitcast (void (%class.Element*, i32)* @_ZN7Element8selectedEi to i8*), i8* bitcast (i8* (%class.DirectIPLookup*)* @_ZNK14DirectIPLookup10class_nameEv to i8*), i8* bitcast (i8* (%class.DirectIPLookup*)* @_ZNK14DirectIPLookup10port_countEv to i8*), i8* bitcast (i8* (%class.DirectIPLookup*)* @_ZNK14DirectIPLookup10processingEv to i8*), i8* bitcast (i8* (%class.Element*)* @_ZNK7Element9flow_codeEv to i8*), i8* bitcast (i8* (%class.Element*)* @_ZNK7Element5flagsEv to i8*), i8* bitcast (i8* (%class.IPRouteTable*, i8*)* @_ZN12IPRouteTable4castEPKc to i8*), i8* bitcast (i8* (%class.Element*, i1, i32, i8*)* @_ZN7Element9port_castEbiPKc to i8*), i8* bitcast (i32 (%class.Element*)* @_ZNK7Element15configure_phaseEv to i8*), i8* bitcast (i32 (%class.DirectIPLookup*, %class.Vector.0*, %class.ErrorHandler*)* @_ZN14DirectIPLookup9configureER6VectorI6StringEP12ErrorHandler to i8*), i8* bitcast (void (%class.DirectIPLookup*)* @_ZN14DirectIPLookup12add_handlersEv to i8*), i8* bitcast (i32 (%class.Element*, %class.ErrorHandler*)* @_ZN7Element10initializeEP12ErrorHandler to i8*), i8* bitcast (void (%class.Element*, %class.Element*, %class.ErrorHandler*)* @_ZN7Element10take_stateEPS_P12ErrorHandler to i8*), i8* bitcast (%class.Element* (%class.Element*)* @_ZNK7Element15hotswap_elementEv to i8*), i8* bitcast (void (%class.DirectIPLookup*, i32)* @_ZN14DirectIPLookup7cleanupEN7Element12CleanupStageE to i8*), i8* bitcast (void (%class.String*, %class.Element*)* @_ZNK7Element11declarationEv to i8*), i8* bitcast (i1 (%class.Element*)* @_ZNK7Element20can_live_reconfigureEv to i8*), i8* bitcast (i32 (%class.Element*, %class.Vector.0*, %class.ErrorHandler*)* @_ZN7Element16live_reconfigureER6VectorI6StringEP12ErrorHandler to i8*), i8* bitcast (i32 (%class.Element*, i32, i8*)* @_ZN7Element5llrpcEjPv to i8*), i8* bitcast (i32 (%class.DirectIPLookup*, %struct.IPRoute*, i1, %struct.IPRoute*, %class.ErrorHandler*)* @_ZN14DirectIPLookup9add_routeERK7IPRoutebPS0_P12ErrorHandler to i8*), i8* bitcast (i32 (%class.DirectIPLookup*, %struct.IPRoute*, %struct.IPRoute*, %class.ErrorHandler*)* @_ZN14DirectIPLookup12remove_routeERK7IPRoutePS0_P12ErrorHandler to i8*), i8* bitcast (i32 (%class.DirectIPLookup*, i32, %class.IPAddress*)* @_ZNK14DirectIPLookup12lookup_routeE9IPAddressRS0_ to i8*), i8* bitcast (void (%class.String*, %class.DirectIPLookup*)* @_ZN14DirectIPLookup11dump_routesEv to i8*)] }, align 8
@.str.7 = private unnamed_addr constant [6 x i8] c"flush\00", align 1
@_ZTVN10__cxxabiv120__si_class_type_infoE = external global i8*
@_ZTS14DirectIPLookup = dso_local constant [17 x i8] c"14DirectIPLookup\00", align 1
@_ZTI12IPRouteTable = external constant i8*
@_ZTI14DirectIPLookup = dso_local constant { i8*, i8*, i8* } { i8* bitcast (i8** getelementptr inbounds (i8*, i8** @_ZTVN10__cxxabiv120__si_class_type_infoE, i64 2) to i8*), i8* getelementptr inbounds ([17 x i8], [17 x i8]* @_ZTS14DirectIPLookup, i32 0, i32 0), i8* bitcast (i8** @_ZTI12IPRouteTable to i8*) }, align 8
@_ZN6String9null_dataE = external constant i8, align 1
@.str.8 = private unnamed_addr constant [47 x i8] c"(unsigned) port < (unsigned) _nports[isoutput]\00", align 1
@.str.9 = private unnamed_addr constant [30 x i8] c"../dummy_inc/click/element.hh\00", align 1
@__PRETTY_FUNCTION__._ZNK7Element4portEbi = private unnamed_addr constant [52 x i8] c"const Element::Port &Element::port(bool, int) const\00", align 1
@.str.10 = private unnamed_addr constant [8 x i8] c"_e && p\00", align 1
@__PRETTY_FUNCTION__._ZNK7Element4Port4pushEP6Packet = private unnamed_addr constant [41 x i8] c"void Element::Port::push(Packet *) const\00", align 1
@.str.11 = private unnamed_addr constant [15 x i8] c"DirectIPLookup\00", align 1
@.str.12 = private unnamed_addr constant [4 x i8] c"1/-\00", align 1
@_ZN7Element4PUSHE = external constant [0 x i8], align 1

@_ZN14DirectIPLookupC1Ev = dso_local unnamed_addr alias void (%class.DirectIPLookup*), void (%class.DirectIPLookup*)* @_ZN14DirectIPLookupC2Ev
@_ZN14DirectIPLookupD1Ev = dso_local unnamed_addr alias void (%class.DirectIPLookup*), void (%class.DirectIPLookup*)* @_ZN14DirectIPLookupD2Ev

; Function Attrs: sspstrong uwtable
define dso_local i32 @_ZN14DirectIPLookup5Table10initializeEv(%"struct.DirectIPLookup::Table"* nocapture %0) local_unnamed_addr #0 align 2 !dbg !2432 {
  call void @llvm.dbg.value(metadata %"struct.DirectIPLookup::Table"* %0, metadata !2434, metadata !DIExpression()), !dbg !2436
  %2 = getelementptr inbounds %"struct.DirectIPLookup::Table", %"struct.DirectIPLookup::Table"* %0, i64 0, i32 0, !dbg !2437
  %3 = load i16*, i16** %2, align 8, !dbg !2437, !tbaa !2438
  %4 = icmp eq i16* %3, null, !dbg !2437
  br i1 %4, label %5, label %29, !dbg !2437

5:                                                ; preds = %1
  %6 = getelementptr inbounds %"struct.DirectIPLookup::Table", %"struct.DirectIPLookup::Table"* %0, i64 0, i32 1, !dbg !2437
  %7 = load i16*, i16** %6, align 8, !dbg !2437, !tbaa !2445
  %8 = icmp eq i16* %7, null, !dbg !2437
  br i1 %8, label %9, label %29, !dbg !2437

9:                                                ; preds = %5
  %10 = getelementptr inbounds %"struct.DirectIPLookup::Table", %"struct.DirectIPLookup::Table"* %0, i64 0, i32 2, !dbg !2437
  %11 = load %"struct.DirectIPLookup::VirtualPort"*, %"struct.DirectIPLookup::VirtualPort"** %10, align 8, !dbg !2437, !tbaa !2446
  %12 = icmp eq %"struct.DirectIPLookup::VirtualPort"* %11, null, !dbg !2437
  br i1 %12, label %13, label %29, !dbg !2437

13:                                               ; preds = %9
  %14 = getelementptr inbounds %"struct.DirectIPLookup::Table", %"struct.DirectIPLookup::Table"* %0, i64 0, i32 3, !dbg !2437
  %15 = load %"struct.DirectIPLookup::CleartextEntry"*, %"struct.DirectIPLookup::CleartextEntry"** %14, align 8, !dbg !2437, !tbaa !2447
  %16 = icmp eq %"struct.DirectIPLookup::CleartextEntry"* %15, null, !dbg !2437
  br i1 %16, label %17, label %29, !dbg !2437

17:                                               ; preds = %13
  %18 = getelementptr inbounds %"struct.DirectIPLookup::Table", %"struct.DirectIPLookup::Table"* %0, i64 0, i32 4, !dbg !2437
  %19 = load i32*, i32** %18, align 8, !dbg !2437, !tbaa !2448
  %20 = icmp eq i32* %19, null, !dbg !2437
  br i1 %20, label %21, label %29, !dbg !2437

21:                                               ; preds = %17
  %22 = getelementptr inbounds %"struct.DirectIPLookup::Table", %"struct.DirectIPLookup::Table"* %0, i64 0, i32 5, !dbg !2437
  %23 = load i8*, i8** %22, align 8, !dbg !2437, !tbaa !2449
  %24 = icmp eq i8* %23, null, !dbg !2437
  br i1 %24, label %25, label %29, !dbg !2437

25:                                               ; preds = %21
  %26 = getelementptr inbounds %"struct.DirectIPLookup::Table", %"struct.DirectIPLookup::Table"* %0, i64 0, i32 6, !dbg !2437
  %27 = load i8*, i8** %26, align 8, !dbg !2437, !tbaa !2450
  %28 = icmp eq i8* %27, null, !dbg !2437
  br i1 %28, label %30, label %29, !dbg !2437

29:                                               ; preds = %21, %17, %13, %9, %5, %1, %25
  tail call void @__assert_fail(i8* getelementptr inbounds ([104 x i8], [104 x i8]* @.str, i64 0, i64 0), i8* getelementptr inbounds ([33 x i8], [33 x i8]* @.str.1, i64 0, i64 0), i32 39, i8* getelementptr inbounds ([40 x i8], [40 x i8]* @__PRETTY_FUNCTION__._ZN14DirectIPLookup5Table10initializeEv, i64 0, i64 0)) #14, !dbg !2437
  unreachable, !dbg !2437

30:                                               ; preds = %25
  %31 = getelementptr inbounds %"struct.DirectIPLookup::Table", %"struct.DirectIPLookup::Table"* %0, i64 0, i32 15, !dbg !2451
  store i32 4096, i32* %31, align 8, !dbg !2452, !tbaa !2453
  %32 = getelementptr inbounds %"struct.DirectIPLookup::Table", %"struct.DirectIPLookup::Table"* %0, i64 0, i32 16, !dbg !2454
  store i32 1024, i32* %32, align 4, !dbg !2455, !tbaa !2456
  %33 = getelementptr inbounds %"struct.DirectIPLookup::Table", %"struct.DirectIPLookup::Table"* %0, i64 0, i32 14, !dbg !2457
  store i32 2048, i32* %33, align 4, !dbg !2458, !tbaa !2459
  %34 = tail call dereferenceable(50331648) i8* @_Znam(i64 50331648) #15, !dbg !2460
  %35 = bitcast %"struct.DirectIPLookup::Table"* %0 to i8**, !dbg !2462
  store i8* %34, i8** %35, align 8, !dbg !2462, !tbaa !2438
  %36 = tail call dereferenceable(12288) i8* @_Znam(i64 12288) #15, !dbg !2463
  %37 = bitcast i16** %6 to i8**, !dbg !2464
  store i8* %36, i8** %37, align 8, !dbg !2464, !tbaa !2445
  %38 = tail call dereferenceable(16384) i8* @_Znam(i64 16384) #15, !dbg !2465
  %39 = bitcast %"struct.DirectIPLookup::VirtualPort"** %10 to i8**, !dbg !2466
  store i8* %38, i8** %39, align 8, !dbg !2466, !tbaa !2446
  %40 = tail call dereferenceable(32768) i8* @_Znam(i64 32768) #15, !dbg !2467
  %41 = bitcast %"struct.DirectIPLookup::CleartextEntry"** %14 to i8**, !dbg !2468
  store i8* %40, i8** %41, align 8, !dbg !2468, !tbaa !2447
  %42 = tail call dereferenceable(262144) i8* @_Znam(i64 262144) #15, !dbg !2469
  %43 = bitcast i32** %18 to i8**, !dbg !2470
  store i8* %42, i8** %43, align 8, !dbg !2470, !tbaa !2448
  %44 = getelementptr inbounds i8, i8* %34, i64 33554432, !dbg !2471
  store i8* %44, i8** %22, align 8, !dbg !2473, !tbaa !2449
  %45 = getelementptr inbounds i8, i8* %36, i64 8192, !dbg !2474
  store i8* %45, i8** %26, align 8, !dbg !2475, !tbaa !2450
  ret i32 0, !dbg !2476
}

; Function Attrs: nounwind readnone speculatable willreturn
declare void @llvm.dbg.declare(metadata, metadata, metadata) #1

; Function Attrs: noreturn nounwind
declare void @__assert_fail(i8*, i8*, i32, i8*) local_unnamed_addr #2

; Function Attrs: nobuiltin nofree
declare noalias nonnull i8* @_Znam(i64) local_unnamed_addr #3

; Function Attrs: nounwind sspstrong uwtable
define dso_local void @_ZN14DirectIPLookup5Table7cleanupEv(%"struct.DirectIPLookup::Table"* nocapture %0) local_unnamed_addr #4 align 2 !dbg !2477 {
  call void @llvm.dbg.value(metadata %"struct.DirectIPLookup::Table"* %0, metadata !2479, metadata !DIExpression()), !dbg !2480
  %2 = bitcast %"struct.DirectIPLookup::Table"* %0 to i8**, !dbg !2481
  %3 = load i8*, i8** %2, align 8, !dbg !2481, !tbaa !2438
  %4 = icmp eq i8* %3, null, !dbg !2481
  br i1 %4, label %6, label %5, !dbg !2481

5:                                                ; preds = %1
  tail call void @_ZdaPv(i8* nonnull %3) #16, !dbg !2481
  br label %6, !dbg !2481

6:                                                ; preds = %5, %1
  %7 = getelementptr inbounds %"struct.DirectIPLookup::Table", %"struct.DirectIPLookup::Table"* %0, i64 0, i32 1, !dbg !2482
  %8 = bitcast i16** %7 to i8**, !dbg !2482
  %9 = load i8*, i8** %8, align 8, !dbg !2482, !tbaa !2445
  %10 = icmp eq i8* %9, null, !dbg !2482
  br i1 %10, label %12, label %11, !dbg !2482

11:                                               ; preds = %6
  tail call void @_ZdaPv(i8* nonnull %9) #16, !dbg !2482
  br label %12, !dbg !2482

12:                                               ; preds = %11, %6
  %13 = getelementptr inbounds %"struct.DirectIPLookup::Table", %"struct.DirectIPLookup::Table"* %0, i64 0, i32 2, !dbg !2483
  %14 = bitcast %"struct.DirectIPLookup::VirtualPort"** %13 to i8**, !dbg !2483
  %15 = load i8*, i8** %14, align 8, !dbg !2483, !tbaa !2446
  %16 = icmp eq i8* %15, null, !dbg !2483
  br i1 %16, label %18, label %17, !dbg !2483

17:                                               ; preds = %12
  tail call void @_ZdaPv(i8* nonnull %15) #16, !dbg !2483
  br label %18, !dbg !2483

18:                                               ; preds = %17, %12
  %19 = getelementptr inbounds %"struct.DirectIPLookup::Table", %"struct.DirectIPLookup::Table"* %0, i64 0, i32 3, !dbg !2484
  %20 = bitcast %"struct.DirectIPLookup::CleartextEntry"** %19 to i8**, !dbg !2484
  %21 = load i8*, i8** %20, align 8, !dbg !2484, !tbaa !2447
  %22 = icmp eq i8* %21, null, !dbg !2484
  br i1 %22, label %24, label %23, !dbg !2484

23:                                               ; preds = %18
  tail call void @_ZdaPv(i8* nonnull %21) #16, !dbg !2484
  br label %24, !dbg !2484

24:                                               ; preds = %23, %18
  %25 = getelementptr inbounds %"struct.DirectIPLookup::Table", %"struct.DirectIPLookup::Table"* %0, i64 0, i32 4, !dbg !2485
  %26 = bitcast i32** %25 to i8**, !dbg !2485
  %27 = load i8*, i8** %26, align 8, !dbg !2485, !tbaa !2448
  %28 = icmp eq i8* %27, null, !dbg !2485
  br i1 %28, label %30, label %29, !dbg !2485

29:                                               ; preds = %24
  tail call void @_ZdaPv(i8* nonnull %27) #16, !dbg !2485
  br label %30, !dbg !2485

30:                                               ; preds = %29, %24
  %31 = bitcast %"struct.DirectIPLookup::Table"* %0 to i8*, !dbg !2486
  call void @llvm.memset.p0i8.i64(i8* nonnull align 8 dereferenceable(56) %31, i8 0, i64 56, i1 false), !dbg !2487
  ret void, !dbg !2486
}

; Function Attrs: nobuiltin nounwind
declare void @_ZdaPv(i8*) local_unnamed_addr #5

; Function Attrs: nounwind sspstrong uwtable
define dso_local void @_ZN14DirectIPLookup5Table5flushEv(%"struct.DirectIPLookup::Table"* nocapture %0) local_unnamed_addr #4 align 2 !dbg !2488 {
  call void @llvm.dbg.value(metadata %"struct.DirectIPLookup::Table"* %0, metadata !2490, metadata !DIExpression()), !dbg !2491
  %2 = getelementptr inbounds %"struct.DirectIPLookup::Table", %"struct.DirectIPLookup::Table"* %0, i64 0, i32 4, !dbg !2492
  %3 = bitcast i32** %2 to i8**, !dbg !2492
  %4 = load i8*, i8** %3, align 8, !dbg !2492, !tbaa !2448
  tail call void @llvm.memset.p0i8.i64(i8* nonnull align 4 dereferenceable(262144) %4, i8 -1, i64 262144, i1 false), !dbg !2493
  %5 = getelementptr inbounds %"struct.DirectIPLookup::Table", %"struct.DirectIPLookup::Table"* %0, i64 0, i32 12, !dbg !2494
  store i32 0, i32* %5, align 4, !dbg !2495, !tbaa !2496
  %6 = getelementptr inbounds %"struct.DirectIPLookup::Table", %"struct.DirectIPLookup::Table"* %0, i64 0, i32 2, !dbg !2497
  %7 = load %"struct.DirectIPLookup::VirtualPort"*, %"struct.DirectIPLookup::VirtualPort"** %6, align 8, !dbg !2497, !tbaa !2446
  %8 = getelementptr inbounds %"struct.DirectIPLookup::VirtualPort", %"struct.DirectIPLookup::VirtualPort"* %7, i64 0, i32 1, !dbg !2498
  store i16 -1, i16* %8, align 2, !dbg !2499, !tbaa !2500
  %9 = getelementptr inbounds %"struct.DirectIPLookup::VirtualPort", %"struct.DirectIPLookup::VirtualPort"* %7, i64 0, i32 0, !dbg !2503
  store i16 -1, i16* %9, align 4, !dbg !2504, !tbaa !2505
  %10 = getelementptr inbounds %"struct.DirectIPLookup::VirtualPort", %"struct.DirectIPLookup::VirtualPort"* %7, i64 0, i32 2, !dbg !2506
  store i32 1, i32* %10, align 4, !dbg !2507, !tbaa !2508
  %11 = getelementptr inbounds %"struct.DirectIPLookup::VirtualPort", %"struct.DirectIPLookup::VirtualPort"* %7, i64 0, i32 3, i32 0, !dbg !2509
  store i32 0, i32* %11, align 4, !dbg !2509, !tbaa !2510
  %12 = getelementptr inbounds %"struct.DirectIPLookup::VirtualPort", %"struct.DirectIPLookup::VirtualPort"* %7, i64 0, i32 4, !dbg !2511
  store i16 -1, i16* %12, align 4, !dbg !2512, !tbaa !2513
  %13 = getelementptr inbounds %"struct.DirectIPLookup::Table", %"struct.DirectIPLookup::Table"* %0, i64 0, i32 9, !dbg !2514
  store i32 1, i32* %13, align 8, !dbg !2515, !tbaa !2516
  %14 = getelementptr inbounds %"struct.DirectIPLookup::Table", %"struct.DirectIPLookup::Table"* %0, i64 0, i32 13, !dbg !2517
  store i32 -1, i32* %14, align 8, !dbg !2518, !tbaa !2519
  %15 = load i32*, i32** %2, align 8, !dbg !2520, !tbaa !2448
  store i32 0, i32* %15, align 4, !dbg !2521, !tbaa !2510
  %16 = getelementptr inbounds %"struct.DirectIPLookup::Table", %"struct.DirectIPLookup::Table"* %0, i64 0, i32 3, !dbg !2522
  %17 = load %"struct.DirectIPLookup::CleartextEntry"*, %"struct.DirectIPLookup::CleartextEntry"** %16, align 8, !dbg !2522, !tbaa !2447
  %18 = getelementptr inbounds %"struct.DirectIPLookup::CleartextEntry", %"struct.DirectIPLookup::CleartextEntry"* %17, i64 0, i32 1, !dbg !2523
  store i32 -1, i32* %18, align 4, !dbg !2524, !tbaa !2525
  %19 = getelementptr inbounds %"struct.DirectIPLookup::CleartextEntry", %"struct.DirectIPLookup::CleartextEntry"* %17, i64 0, i32 0, !dbg !2527
  store i32 -1, i32* %19, align 4, !dbg !2528, !tbaa !2529
  %20 = getelementptr inbounds %"struct.DirectIPLookup::CleartextEntry", %"struct.DirectIPLookup::CleartextEntry"* %17, i64 0, i32 2, !dbg !2530
  %21 = getelementptr inbounds %"struct.DirectIPLookup::Table", %"struct.DirectIPLookup::Table"* %0, i64 0, i32 7, !dbg !2531
  %22 = bitcast i32* %20 to i64*, !dbg !2532
  store i64 0, i64* %22, align 4, !dbg !2532
  store i32 1, i32* %21, align 8, !dbg !2533, !tbaa !2534
  %23 = getelementptr inbounds %"struct.DirectIPLookup::Table", %"struct.DirectIPLookup::Table"* %0, i64 0, i32 10, !dbg !2535
  store i32 -1, i32* %23, align 4, !dbg !2536, !tbaa !2537
  %24 = bitcast %"struct.DirectIPLookup::Table"* %0 to i8**, !dbg !2538
  %25 = load i8*, i8** %24, align 8, !dbg !2538, !tbaa !2438
  tail call void @llvm.memset.p0i8.i64(i8* nonnull align 2 dereferenceable(50331648) %25, i8 0, i64 50331648, i1 false), !dbg !2539
  %26 = getelementptr inbounds %"struct.DirectIPLookup::Table", %"struct.DirectIPLookup::Table"* %0, i64 0, i32 8, !dbg !2540
  store i32 0, i32* %26, align 4, !dbg !2541, !tbaa !2542
  %27 = getelementptr inbounds %"struct.DirectIPLookup::Table", %"struct.DirectIPLookup::Table"* %0, i64 0, i32 11, !dbg !2543
  store i16 -32768, i16* %27, align 8, !dbg !2544, !tbaa !2545
  ret void, !dbg !2546
}

; Function Attrs: argmemonly nounwind willreturn
declare void @llvm.memset.p0i8.i64(i8* nocapture writeonly, i8, i64, i1 immarg) #6

; Function Attrs: argmemonly nounwind willreturn
declare void @llvm.lifetime.start.p0i8(i64 immarg, i8* nocapture) #6

; Function Attrs: argmemonly nounwind willreturn
declare void @llvm.memcpy.p0i8.p0i8.i64(i8* noalias nocapture writeonly, i8* noalias nocapture readonly, i64, i1 immarg) #6

; Function Attrs: argmemonly nounwind willreturn
declare void @llvm.lifetime.end.p0i8(i64 immarg, i8* nocapture) #6

; Function Attrs: sspstrong uwtable
define dso_local void @_ZNK14DirectIPLookup5Table4dumpEv(%class.String* noalias sret %0, %"struct.DirectIPLookup::Table"* nocapture readonly %1) local_unnamed_addr #0 align 2 personality i8* bitcast (i32 (...)* @__gxx_personality_v0 to i8*) !dbg !2547 {
  %3 = alloca %class.StringAccum, align 8
  %4 = alloca %struct.IPRoute, align 4
  call void @llvm.dbg.value(metadata %"struct.DirectIPLookup::Table"* %1, metadata !2549, metadata !DIExpression()), !dbg !2565
  %5 = bitcast %class.StringAccum* %3 to i8*, !dbg !2566
  call void @llvm.lifetime.start.p0i8(i64 16, i8* nonnull %5) #17, !dbg !2566
  call void @llvm.dbg.declare(metadata %class.StringAccum* %3, metadata !2551, metadata !DIExpression()), !dbg !2567
  call void @llvm.dbg.value(metadata %class.StringAccum* %3, metadata !2568, metadata !DIExpression()), !dbg !2572
  call void @llvm.dbg.value(metadata %class.StringAccum* %3, metadata !2574, metadata !DIExpression()), !dbg !2578
  %6 = getelementptr inbounds %class.StringAccum, %class.StringAccum* %3, i64 0, i32 0, i32 0, !dbg !2580
  store i8* @_ZN6String9null_dataE, i8** %6, align 8, !dbg !2580, !tbaa !2581
  %7 = getelementptr inbounds %class.StringAccum, %class.StringAccum* %3, i64 0, i32 0, i32 1, !dbg !2583
  store i32 0, i32* %7, align 8, !dbg !2583, !tbaa !2584
  %8 = getelementptr inbounds %class.StringAccum, %class.StringAccum* %3, i64 0, i32 0, i32 2, !dbg !2585
  store i32 0, i32* %8, align 4, !dbg !2585, !tbaa !2586
  call void @llvm.dbg.value(metadata i32 0, metadata !2552, metadata !DIExpression()), !dbg !2587
  %9 = getelementptr inbounds %"struct.DirectIPLookup::Table", %"struct.DirectIPLookup::Table"* %1, i64 0, i32 4, !dbg !2588
  %10 = getelementptr inbounds %"struct.DirectIPLookup::Table", %"struct.DirectIPLookup::Table"* %1, i64 0, i32 3, !dbg !2589
  %11 = getelementptr inbounds %"struct.DirectIPLookup::Table", %"struct.DirectIPLookup::Table"* %1, i64 0, i32 2, !dbg !2590
  %12 = bitcast %struct.IPRoute* %4 to i8*, !dbg !2591
  %13 = getelementptr inbounds %struct.IPRoute, %struct.IPRoute* %4, i64 0, i32 0, i32 0, !dbg !2592
  %14 = getelementptr inbounds %struct.IPRoute, %struct.IPRoute* %4, i64 0, i32 1, i32 0, !dbg !2592
  %15 = getelementptr inbounds %struct.IPRoute, %struct.IPRoute* %4, i64 0, i32 2, i32 0, !dbg !2592
  %16 = getelementptr inbounds %struct.IPRoute, %struct.IPRoute* %4, i64 0, i32 3, !dbg !2592
  br label %18, !dbg !2601

17:                                               ; preds = %26
  invoke void @_ZN11StringAccum11take_stringEv(%class.String* sret %0, %class.StringAccum* nonnull %3)
          to label %88 unwind label %95, !dbg !2602

18:                                               ; preds = %26, %2
  %19 = phi i64 [ 0, %2 ], [ %27, %26 ]
  call void @llvm.dbg.value(metadata i64 %19, metadata !2552, metadata !DIExpression()), !dbg !2587
  %20 = load i32*, i32** %9, align 8, !dbg !2603, !tbaa !2448
  %21 = getelementptr inbounds i32, i32* %20, i64 %19, !dbg !2603
  call void @llvm.dbg.value(metadata i32 undef, metadata !2554, metadata !DIExpression()), !dbg !2588
  %22 = load i32, i32* %21, align 4, !dbg !2588, !tbaa !2510
  call void @llvm.dbg.value(metadata i32 %22, metadata !2554, metadata !DIExpression()), !dbg !2588
  %23 = icmp sgt i32 %22, -1, !dbg !2604
  br i1 %23, label %24, label %26, !dbg !2605

24:                                               ; preds = %18
  %25 = load %"struct.DirectIPLookup::CleartextEntry"*, %"struct.DirectIPLookup::CleartextEntry"** %10, align 8, !dbg !2606, !tbaa !2447
  br label %29, !dbg !2605

26:                                               ; preds = %83, %18
  %27 = add nuw nsw i64 %19, 1, !dbg !2607
  call void @llvm.dbg.value(metadata i64 %27, metadata !2552, metadata !DIExpression()), !dbg !2587
  %28 = icmp eq i64 %27, 65536, !dbg !2608
  br i1 %28, label %17, label %18, !dbg !2601, !llvm.loop !2609

29:                                               ; preds = %24, %83
  %30 = phi %"struct.DirectIPLookup::CleartextEntry"* [ %84, %83 ], [ %25, %24 ]
  %31 = phi i32 [ %86, %83 ], [ %22, %24 ]
  %32 = zext i32 %31 to i64, !dbg !2606
  call void @llvm.dbg.value(metadata %"struct.DirectIPLookup::CleartextEntry"* undef, metadata !2557, metadata !DIExpression()), !dbg !2589
  %33 = load %"struct.DirectIPLookup::VirtualPort"*, %"struct.DirectIPLookup::VirtualPort"** %11, align 8, !dbg !2611, !tbaa !2446
  %34 = getelementptr inbounds %"struct.DirectIPLookup::CleartextEntry", %"struct.DirectIPLookup::CleartextEntry"* %30, i64 %32, i32 4, !dbg !2612
  %35 = load i16, i16* %34, align 2, !dbg !2612, !tbaa !2613
  %36 = sext i16 %35 to i64, !dbg !2611
  %37 = getelementptr inbounds %"struct.DirectIPLookup::VirtualPort", %"struct.DirectIPLookup::VirtualPort"* %33, i64 %36, i32 4, !dbg !2614
  %38 = load i16, i16* %37, align 4, !dbg !2614, !tbaa !2513
  %39 = icmp eq i16 %38, -1, !dbg !2615
  br i1 %39, label %83, label %40, !dbg !2616

40:                                               ; preds = %29
  call void @llvm.lifetime.start.p0i8(i64 20, i8* nonnull %12) #17, !dbg !2617
  call void @llvm.dbg.declare(metadata %struct.IPRoute* %4, metadata !2562, metadata !DIExpression()), !dbg !2618
  %41 = getelementptr inbounds %"struct.DirectIPLookup::CleartextEntry", %"struct.DirectIPLookup::CleartextEntry"* %30, i64 %32, i32 2, !dbg !2619
  %42 = load i32, i32* %41, align 4, !dbg !2619, !tbaa !2620
  call void @llvm.dbg.value(metadata i32 %42, metadata !2621, metadata !DIExpression()) #17, !dbg !2627
  %43 = getelementptr inbounds %"struct.DirectIPLookup::CleartextEntry", %"struct.DirectIPLookup::CleartextEntry"* %30, i64 %32, i32 3, !dbg !2629
  %44 = load i16, i16* %43, align 4, !dbg !2629, !tbaa !2630
  %45 = zext i16 %44 to i32, !dbg !2631
  %46 = invoke i32 @_ZN9IPAddress11make_prefixEi(i32 %45)
          to label %47 unwind label %79, !dbg !2632

47:                                               ; preds = %40
  %48 = call i32 @llvm.bswap.i32(i32 %42) #17, !dbg !2633
  %49 = load %"struct.DirectIPLookup::VirtualPort"*, %"struct.DirectIPLookup::VirtualPort"** %11, align 8, !dbg !2634, !tbaa !2446
  %50 = load i16, i16* %34, align 2, !dbg !2635, !tbaa !2613
  %51 = sext i16 %50 to i64, !dbg !2634
  %52 = getelementptr inbounds %"struct.DirectIPLookup::VirtualPort", %"struct.DirectIPLookup::VirtualPort"* %49, i64 %51, i32 3, i32 0, !dbg !2634
  %53 = load i32, i32* %52, align 4, !dbg !2634, !tbaa.struct !2636
  %54 = getelementptr inbounds %"struct.DirectIPLookup::VirtualPort", %"struct.DirectIPLookup::VirtualPort"* %49, i64 %51, i32 4, !dbg !2637
  %55 = load i16, i16* %54, align 4, !dbg !2637, !tbaa !2513
  %56 = sext i16 %55 to i32, !dbg !2638
  call void @llvm.dbg.value(metadata i32 %48, metadata !2596, metadata !DIExpression()), !dbg !2592
  call void @llvm.dbg.value(metadata i32 %46, metadata !2597, metadata !DIExpression()), !dbg !2592
  call void @llvm.dbg.value(metadata i32 %53, metadata !2598, metadata !DIExpression()), !dbg !2592
  call void @llvm.dbg.value(metadata %struct.IPRoute* %4, metadata !2595, metadata !DIExpression()), !dbg !2592
  call void @llvm.dbg.value(metadata i32 %56, metadata !2599, metadata !DIExpression()), !dbg !2592
  store i32 %48, i32* %13, align 4, !dbg !2639, !tbaa.struct !2636
  store i32 %46, i32* %14, align 4, !dbg !2640, !tbaa.struct !2636
  store i32 %53, i32* %15, align 4, !dbg !2641, !tbaa.struct !2636
  store i32 %56, i32* %16, align 4, !dbg !2642, !tbaa !2643
  %57 = invoke dereferenceable(16) %class.StringAccum* @_ZNK7IPRoute7unparseER11StringAccumb(%struct.IPRoute* nonnull %4, %class.StringAccum* nonnull dereferenceable(16) %3, i1 zeroext true)
          to label %58 unwind label %79, !dbg !2645

58:                                               ; preds = %47
  call void @llvm.dbg.value(metadata %class.StringAccum* %57, metadata !2646, metadata !DIExpression()), !dbg !2652
  call void @llvm.dbg.value(metadata i8 10, metadata !2651, metadata !DIExpression()), !dbg !2652
  call void @llvm.dbg.value(metadata %class.StringAccum* %57, metadata !2654, metadata !DIExpression()), !dbg !2658
  call void @llvm.dbg.value(metadata i8 10, metadata !2657, metadata !DIExpression()), !dbg !2658
  %59 = getelementptr inbounds %class.StringAccum, %class.StringAccum* %57, i64 0, i32 0, i32 1, !dbg !2660
  %60 = load i32, i32* %59, align 8, !dbg !2660, !tbaa !2662
  %61 = getelementptr inbounds %class.StringAccum, %class.StringAccum* %57, i64 0, i32 0, i32 2, !dbg !2664
  %62 = load i32, i32* %61, align 4, !dbg !2664, !tbaa !2665
  %63 = icmp slt i32 %60, %62, !dbg !2666
  br i1 %63, label %70, label %64, !dbg !2667

64:                                               ; preds = %58
  %65 = invoke i8* @_ZN11StringAccum4growEi(%class.StringAccum* nonnull %57, i32 %60)
          to label %66 unwind label %79, !dbg !2668

66:                                               ; preds = %64
  %67 = icmp eq i8* %65, null, !dbg !2668
  br i1 %67, label %77, label %68, !dbg !2669

68:                                               ; preds = %66
  %69 = load i32, i32* %59, align 8, !dbg !2670, !tbaa !2662
  br label %70, !dbg !2669

70:                                               ; preds = %68, %58
  %71 = phi i32 [ %69, %68 ], [ %60, %58 ], !dbg !2670
  %72 = getelementptr inbounds %class.StringAccum, %class.StringAccum* %57, i64 0, i32 0, i32 0, !dbg !2671
  %73 = load i8*, i8** %72, align 8, !dbg !2671, !tbaa !2672
  %74 = add nsw i32 %71, 1, !dbg !2670
  store i32 %74, i32* %59, align 8, !dbg !2670, !tbaa !2662
  %75 = sext i32 %71 to i64, !dbg !2673
  %76 = getelementptr inbounds i8, i8* %73, i64 %75, !dbg !2673
  store i8 10, i8* %76, align 1, !dbg !2674, !tbaa !2675
  br label %77, !dbg !2673

77:                                               ; preds = %70, %66
  call void @llvm.lifetime.end.p0i8(i64 20, i8* nonnull %12) #17, !dbg !2676
  %78 = load %"struct.DirectIPLookup::CleartextEntry"*, %"struct.DirectIPLookup::CleartextEntry"** %10, align 8, !dbg !2677, !tbaa !2447
  br label %83, !dbg !2678

79:                                               ; preds = %64, %47, %40
  %80 = landingpad { i8*, i32 }
          cleanup, !dbg !2679
  %81 = extractvalue { i8*, i32 } %80, 0, !dbg !2679
  %82 = extractvalue { i8*, i32 } %80, 1, !dbg !2679
  call void @llvm.lifetime.end.p0i8(i64 20, i8* nonnull %12) #17, !dbg !2676
  br label %99, !dbg !2680

83:                                               ; preds = %29, %77
  %84 = phi %"struct.DirectIPLookup::CleartextEntry"* [ %30, %29 ], [ %78, %77 ], !dbg !2677
  %85 = getelementptr inbounds %"struct.DirectIPLookup::CleartextEntry", %"struct.DirectIPLookup::CleartextEntry"* %84, i64 %32, i32 0, !dbg !2681
  call void @llvm.dbg.value(metadata i32 undef, metadata !2554, metadata !DIExpression()), !dbg !2588
  %86 = load i32, i32* %85, align 4, !dbg !2588, !tbaa !2510
  call void @llvm.dbg.value(metadata i32 %86, metadata !2554, metadata !DIExpression()), !dbg !2588
  %87 = icmp sgt i32 %86, -1, !dbg !2604
  br i1 %87, label %29, label %26, !dbg !2605, !llvm.loop !2682

88:                                               ; preds = %17
  call void @llvm.dbg.value(metadata %class.StringAccum* %3, metadata !2684, metadata !DIExpression()) #17, !dbg !2687
  %89 = load i32, i32* %8, align 4, !dbg !2689, !tbaa !2665
  %90 = icmp sgt i32 %89, 0, !dbg !2692
  br i1 %90, label %91, label %94, !dbg !2693

91:                                               ; preds = %88
  %92 = load i8*, i8** %6, align 8, !dbg !2694, !tbaa !2672
  %93 = getelementptr inbounds i8, i8* %92, i64 -12, !dbg !2694
  call void @_ZdaPv(i8* nonnull %93) #16, !dbg !2694
  br label %94, !dbg !2694

94:                                               ; preds = %88, %91
  call void @llvm.lifetime.end.p0i8(i64 16, i8* nonnull %5) #17, !dbg !2695
  ret void, !dbg !2695

95:                                               ; preds = %17
  %96 = landingpad { i8*, i32 }
          cleanup, !dbg !2695
  %97 = extractvalue { i8*, i32 } %96, 0, !dbg !2695
  %98 = extractvalue { i8*, i32 } %96, 1, !dbg !2695
  br label %99, !dbg !2695

99:                                               ; preds = %95, %79
  %100 = phi i8* [ %81, %79 ], [ %97, %95 ], !dbg !2565
  %101 = phi i32 [ %82, %79 ], [ %98, %95 ], !dbg !2565
  call void @llvm.dbg.value(metadata %class.StringAccum* %3, metadata !2684, metadata !DIExpression()) #17, !dbg !2696
  %102 = load i32, i32* %8, align 4, !dbg !2698, !tbaa !2665
  %103 = icmp sgt i32 %102, 0, !dbg !2699
  br i1 %103, label %104, label %107, !dbg !2700

104:                                              ; preds = %99
  %105 = load i8*, i8** %6, align 8, !dbg !2701, !tbaa !2672
  %106 = getelementptr inbounds i8, i8* %105, i64 -12, !dbg !2701
  call void @_ZdaPv(i8* nonnull %106) #16, !dbg !2701
  br label %107, !dbg !2701

107:                                              ; preds = %99, %104
  call void @llvm.lifetime.end.p0i8(i64 16, i8* nonnull %5) #17, !dbg !2695
  %108 = insertvalue { i8*, i32 } undef, i8* %100, 0, !dbg !2695
  %109 = insertvalue { i8*, i32 } %108, i32 %101, 1, !dbg !2695
  resume { i8*, i32 } %109, !dbg !2695
}

declare i32 @__gxx_personality_v0(...)

declare i32 @_ZN9IPAddress11make_prefixEi(i32) local_unnamed_addr #7

declare dereferenceable(16) %class.StringAccum* @_ZNK7IPRoute7unparseER11StringAccumb(%struct.IPRoute*, %class.StringAccum* dereferenceable(16), i1 zeroext) local_unnamed_addr #7

declare void @_ZN11StringAccum11take_stringEv(%class.String* sret, %class.StringAccum*) local_unnamed_addr #7

; Function Attrs: sspstrong uwtable
define dso_local i32 @_ZN14DirectIPLookup5Table10vport_findE9IPAddresss(%"struct.DirectIPLookup::Table"* nocapture %0, i32 %1, i16 signext %2) local_unnamed_addr #0 align 2 !dbg !2702 {
  call void @llvm.dbg.value(metadata i32 %1, metadata !2705, metadata !DIExpression()), !dbg !2712
  call void @llvm.dbg.value(metadata %"struct.DirectIPLookup::Table"* %0, metadata !2704, metadata !DIExpression()), !dbg !2712
  call void @llvm.dbg.value(metadata i16 %2, metadata !2706, metadata !DIExpression()), !dbg !2712
  %4 = getelementptr inbounds %"struct.DirectIPLookup::Table", %"struct.DirectIPLookup::Table"* %0, i64 0, i32 12, !dbg !2713
  %5 = load i32, i32* %4, align 4, !dbg !2713, !tbaa !2496
  call void @llvm.dbg.value(metadata i32 %5, metadata !2707, metadata !DIExpression()), !dbg !2714
  %6 = icmp sgt i32 %5, -1, !dbg !2715
  br i1 %6, label %7, label %25, !dbg !2717

7:                                                ; preds = %3
  %8 = getelementptr inbounds %"struct.DirectIPLookup::Table", %"struct.DirectIPLookup::Table"* %0, i64 0, i32 2, !dbg !2718
  %9 = load %"struct.DirectIPLookup::VirtualPort"*, %"struct.DirectIPLookup::VirtualPort"** %8, align 8, !dbg !2718, !tbaa !2446
  br label %10, !dbg !2717

10:                                               ; preds = %7, %20
  %11 = phi i32 [ %5, %7 ], [ %23, %20 ]
  call void @llvm.dbg.value(metadata i32 %11, metadata !2707, metadata !DIExpression()), !dbg !2714
  %12 = zext i32 %11 to i64, !dbg !2720
  %13 = getelementptr inbounds %"struct.DirectIPLookup::VirtualPort", %"struct.DirectIPLookup::VirtualPort"* %9, i64 %12, i32 3, i32 0, !dbg !2720
  %14 = load i32, i32* %13, align 4, !dbg !2720, !tbaa.struct !2636
  call void @llvm.dbg.value(metadata i32 %14, metadata !2721, metadata !DIExpression()), !dbg !2727
  call void @llvm.dbg.value(metadata i32 %1, metadata !2726, metadata !DIExpression()), !dbg !2727
  %15 = icmp eq i32 %14, %1, !dbg !2729
  br i1 %15, label %16, label %20, !dbg !2730

16:                                               ; preds = %10
  %17 = getelementptr inbounds %"struct.DirectIPLookup::VirtualPort", %"struct.DirectIPLookup::VirtualPort"* %9, i64 %12, i32 4, !dbg !2731
  %18 = load i16, i16* %17, align 4, !dbg !2731, !tbaa !2513
  %19 = icmp eq i16 %18, %2, !dbg !2732
  br i1 %19, label %68, label %20, !dbg !2733

20:                                               ; preds = %10, %16
  %21 = getelementptr inbounds %"struct.DirectIPLookup::VirtualPort", %"struct.DirectIPLookup::VirtualPort"* %9, i64 %12, i32 0, !dbg !2734
  %22 = load i16, i16* %21, align 4, !dbg !2734, !tbaa !2505
  %23 = sext i16 %22 to i32, !dbg !2735
  call void @llvm.dbg.value(metadata i32 %23, metadata !2707, metadata !DIExpression()), !dbg !2714
  %24 = icmp sgt i16 %22, -1, !dbg !2715
  br i1 %24, label %10, label %25, !dbg !2717, !llvm.loop !2736

25:                                               ; preds = %20, %3
  %26 = getelementptr inbounds %"struct.DirectIPLookup::Table", %"struct.DirectIPLookup::Table"* %0, i64 0, i32 13, !dbg !2738
  %27 = load i32, i32* %26, align 8, !dbg !2738, !tbaa !2519
  %28 = icmp slt i32 %27, 0, !dbg !2739
  br i1 %28, label %29, label %62, !dbg !2740

29:                                               ; preds = %25
  %30 = getelementptr inbounds %"struct.DirectIPLookup::Table", %"struct.DirectIPLookup::Table"* %0, i64 0, i32 9, !dbg !2741
  %31 = load i32, i32* %30, align 8, !dbg !2741, !tbaa !2516
  %32 = getelementptr inbounds %"struct.DirectIPLookup::Table", %"struct.DirectIPLookup::Table"* %0, i64 0, i32 16, !dbg !2742
  %33 = load i32, i32* %32, align 4, !dbg !2742, !tbaa !2456
  %34 = icmp eq i32 %31, %33, !dbg !2743
  br i1 %34, label %35, label %53, !dbg !2744

35:                                               ; preds = %29
  %36 = icmp eq i32 %31, 32768, !dbg !2745
  br i1 %36, label %68, label %37, !dbg !2747

37:                                               ; preds = %35
  %38 = zext i32 %31 to i64, !dbg !2748
  %39 = shl nuw nsw i64 %38, 5, !dbg !2748
  %40 = tail call i8* @_Znam(i64 %39) #15, !dbg !2748
  call void @llvm.dbg.value(metadata i8* %40, metadata !2709, metadata !DIExpression()), !dbg !2749
  %41 = getelementptr inbounds %"struct.DirectIPLookup::Table", %"struct.DirectIPLookup::Table"* %0, i64 0, i32 2, !dbg !2750
  %42 = bitcast %"struct.DirectIPLookup::VirtualPort"** %41 to i8**, !dbg !2750
  %43 = load i8*, i8** %42, align 8, !dbg !2750, !tbaa !2446
  %44 = shl nuw nsw i64 %38, 4, !dbg !2751
  tail call void @llvm.memcpy.p0i8.p0i8.i64(i8* nonnull align 4 %40, i8* align 4 %43, i64 %44, i1 false), !dbg !2752
  %45 = icmp eq i8* %43, null, !dbg !2753
  br i1 %45, label %46, label %48, !dbg !2753

46:                                               ; preds = %37
  store i8* %40, i8** %42, align 8, !dbg !2754, !tbaa !2446
  %47 = shl i32 %31, 1, !dbg !2755
  store i32 %47, i32* %32, align 4, !dbg !2755, !tbaa !2456
  br label %53, !dbg !2756

48:                                               ; preds = %37
  tail call void @_ZdaPv(i8* nonnull %43) #16, !dbg !2753
  %49 = load i32, i32* %32, align 4, !dbg !2755, !tbaa !2456
  %50 = load i32, i32* %26, align 8, !dbg !2757, !tbaa !2519
  store i8* %40, i8** %42, align 8, !dbg !2754, !tbaa !2446
  %51 = shl i32 %49, 1, !dbg !2755
  store i32 %51, i32* %32, align 4, !dbg !2755, !tbaa !2456
  %52 = icmp slt i32 %50, 0, !dbg !2759
  br i1 %52, label %53, label %62, !dbg !2756

53:                                               ; preds = %29, %46, %48
  %54 = phi i32 [ %50, %48 ], [ %27, %46 ], [ %27, %29 ]
  %55 = trunc i32 %54 to i16, !dbg !2760
  %56 = getelementptr inbounds %"struct.DirectIPLookup::Table", %"struct.DirectIPLookup::Table"* %0, i64 0, i32 2, !dbg !2762
  %57 = load %"struct.DirectIPLookup::VirtualPort"*, %"struct.DirectIPLookup::VirtualPort"** %56, align 8, !dbg !2762, !tbaa !2446
  %58 = load i32, i32* %30, align 8, !dbg !2763, !tbaa !2516
  %59 = zext i32 %58 to i64, !dbg !2762
  %60 = getelementptr inbounds %"struct.DirectIPLookup::VirtualPort", %"struct.DirectIPLookup::VirtualPort"* %57, i64 %59, i32 0, !dbg !2764
  store i16 %55, i16* %60, align 4, !dbg !2765, !tbaa !2505
  store i32 %58, i32* %26, align 8, !dbg !2766, !tbaa !2519
  %61 = add i32 %58, 1, !dbg !2767
  store i32 %61, i32* %30, align 8, !dbg !2767, !tbaa !2516
  br label %62, !dbg !2768

62:                                               ; preds = %25, %53, %48
  %63 = phi i32 [ %27, %25 ], [ %58, %53 ], [ %50, %48 ], !dbg !2769
  %64 = getelementptr inbounds %"struct.DirectIPLookup::Table", %"struct.DirectIPLookup::Table"* %0, i64 0, i32 2, !dbg !2770
  %65 = load %"struct.DirectIPLookup::VirtualPort"*, %"struct.DirectIPLookup::VirtualPort"** %64, align 8, !dbg !2770, !tbaa !2446
  %66 = sext i32 %63 to i64, !dbg !2770
  %67 = getelementptr inbounds %"struct.DirectIPLookup::VirtualPort", %"struct.DirectIPLookup::VirtualPort"* %65, i64 %66, i32 2, !dbg !2771
  store i32 0, i32* %67, align 4, !dbg !2772, !tbaa !2508
  br label %68, !dbg !2773

68:                                               ; preds = %16, %35, %62
  %69 = phi i32 [ %63, %62 ], [ -12, %35 ], [ %11, %16 ], !dbg !2712
  ret i32 %69, !dbg !2774
}

; Function Attrs: nofree norecurse nounwind sspstrong uwtable
define dso_local void @_ZN14DirectIPLookup5Table11vport_unrefEt(%"struct.DirectIPLookup::Table"* nocapture %0, i16 zeroext %1) local_unnamed_addr #8 align 2 !dbg !2775 {
  call void @llvm.dbg.value(metadata %"struct.DirectIPLookup::Table"* %0, metadata !2777, metadata !DIExpression()), !dbg !2783
  call void @llvm.dbg.value(metadata i16 %1, metadata !2778, metadata !DIExpression()), !dbg !2783
  %3 = getelementptr inbounds %"struct.DirectIPLookup::Table", %"struct.DirectIPLookup::Table"* %0, i64 0, i32 2, !dbg !2784
  %4 = load %"struct.DirectIPLookup::VirtualPort"*, %"struct.DirectIPLookup::VirtualPort"** %3, align 8, !dbg !2784, !tbaa !2446
  %5 = zext i16 %1 to i64, !dbg !2784
  %6 = getelementptr inbounds %"struct.DirectIPLookup::VirtualPort", %"struct.DirectIPLookup::VirtualPort"* %4, i64 %5, i32 2, !dbg !2785
  %7 = load i32, i32* %6, align 4, !dbg !2786, !tbaa !2508
  %8 = add nsw i32 %7, -1, !dbg !2786
  store i32 %8, i32* %6, align 4, !dbg !2786, !tbaa !2508
  %9 = icmp eq i32 %8, 0, !dbg !2787
  br i1 %9, label %10, label %32, !dbg !2788

10:                                               ; preds = %2
  %11 = getelementptr inbounds %"struct.DirectIPLookup::VirtualPort", %"struct.DirectIPLookup::VirtualPort"* %4, i64 %5, i32 1, !dbg !2789
  %12 = load i16, i16* %11, align 2, !dbg !2789, !tbaa !2500
  call void @llvm.dbg.value(metadata i16 %12, metadata !2779, metadata !DIExpression()), !dbg !2790
  %13 = getelementptr inbounds %"struct.DirectIPLookup::VirtualPort", %"struct.DirectIPLookup::VirtualPort"* %4, i64 %5, i32 0, !dbg !2791
  %14 = load i16, i16* %13, align 4, !dbg !2791, !tbaa !2505
  call void @llvm.dbg.value(metadata i16 %14, metadata !2782, metadata !DIExpression()), !dbg !2790
  %15 = icmp sgt i16 %12, -1, !dbg !2792
  br i1 %15, label %16, label %19, !dbg !2794

16:                                               ; preds = %10
  %17 = zext i16 %12 to i64, !dbg !2795
  %18 = getelementptr inbounds %"struct.DirectIPLookup::VirtualPort", %"struct.DirectIPLookup::VirtualPort"* %4, i64 %17, i32 0, !dbg !2796
  store i16 %14, i16* %18, align 4, !dbg !2797, !tbaa !2505
  br label %22, !dbg !2795

19:                                               ; preds = %10
  %20 = sext i16 %14 to i32, !dbg !2798
  %21 = getelementptr inbounds %"struct.DirectIPLookup::Table", %"struct.DirectIPLookup::Table"* %0, i64 0, i32 12, !dbg !2799
  store i32 %20, i32* %21, align 4, !dbg !2800, !tbaa !2496
  br label %22

22:                                               ; preds = %19, %16
  %23 = icmp sgt i16 %14, -1, !dbg !2801
  br i1 %23, label %24, label %27, !dbg !2803

24:                                               ; preds = %22
  %25 = zext i16 %14 to i64, !dbg !2804
  %26 = getelementptr inbounds %"struct.DirectIPLookup::VirtualPort", %"struct.DirectIPLookup::VirtualPort"* %4, i64 %25, i32 1, !dbg !2805
  store i16 %12, i16* %26, align 2, !dbg !2806, !tbaa !2500
  br label %27, !dbg !2804

27:                                               ; preds = %24, %22
  %28 = getelementptr inbounds %"struct.DirectIPLookup::Table", %"struct.DirectIPLookup::Table"* %0, i64 0, i32 13, !dbg !2807
  %29 = load i32, i32* %28, align 8, !dbg !2807, !tbaa !2519
  %30 = trunc i32 %29 to i16, !dbg !2807
  store i16 %30, i16* %13, align 4, !dbg !2808, !tbaa !2505
  %31 = zext i16 %1 to i32, !dbg !2809
  store i32 %31, i32* %28, align 8, !dbg !2810, !tbaa !2519
  br label %32, !dbg !2811

32:                                               ; preds = %27, %2
  ret void, !dbg !2812
}

; Function Attrs: norecurse nounwind readonly sspstrong uwtable
define dso_local i32 @_ZNK14DirectIPLookup5Table10find_entryEjj(%"struct.DirectIPLookup::Table"* nocapture readonly %0, i32 %1, i32 %2) local_unnamed_addr #9 align 2 !dbg !2813 {
  call void @llvm.dbg.value(metadata %"struct.DirectIPLookup::Table"* %0, metadata !2815, metadata !DIExpression()), !dbg !2821
  call void @llvm.dbg.value(metadata i32 %1, metadata !2816, metadata !DIExpression()), !dbg !2821
  call void @llvm.dbg.value(metadata i32 %2, metadata !2817, metadata !DIExpression()), !dbg !2821
  call void @llvm.dbg.value(metadata i32 %1, metadata !2822, metadata !DIExpression()), !dbg !2827
  call void @llvm.dbg.value(metadata i32 %2, metadata !2825, metadata !DIExpression()), !dbg !2827
  %4 = shl i32 %2, 5, !dbg !2829
  %5 = xor i32 %4, %1, !dbg !2830
  %6 = lshr i32 %2, 2, !dbg !2831
  %7 = lshr i32 %1, %6, !dbg !2832
  %8 = sub i32 %7, %2, !dbg !2833
  %9 = xor i32 %5, %8, !dbg !2834
  call void @llvm.dbg.value(metadata i32 %9, metadata !2826, metadata !DIExpression()), !dbg !2827
  %10 = lshr i32 %9, 23, !dbg !2835
  %11 = lshr i32 %9, 15, !dbg !2836
  %12 = mul i32 %11, %2, !dbg !2837
  %13 = lshr i32 %1, 17, !dbg !2838
  %14 = mul nuw nsw i32 %13, 53, !dbg !2839
  %15 = xor i32 %9, %14, !dbg !2840
  %16 = xor i32 %15, %10, !dbg !2841
  %17 = xor i32 %16, %12, !dbg !2842
  call void @llvm.dbg.value(metadata i32 %17, metadata !2826, metadata !DIExpression()), !dbg !2827
  %18 = lshr i32 %1, 3, !dbg !2843
  %19 = lshr i32 %17, %2, !dbg !2844
  %20 = mul i32 %19, 7, !dbg !2845
  %21 = xor i32 %20, %18, !dbg !2846
  %22 = lshr i32 %17, 11, !dbg !2847
  %23 = mul nuw nsw i32 %22, 103, !dbg !2848
  %24 = xor i32 %21, %23, !dbg !2849
  %25 = sub i32 %17, %24, !dbg !2850
  call void @llvm.dbg.value(metadata i32 %25, metadata !2826, metadata !DIExpression()), !dbg !2827
  %26 = lshr i32 %25, 17, !dbg !2851
  %27 = and i32 %25, 65535, !dbg !2852
  %28 = xor i32 %27, %26, !dbg !2852
  call void @llvm.dbg.value(metadata i32 %28, metadata !2826, metadata !DIExpression()), !dbg !2827
  call void @llvm.dbg.value(metadata i32 %28, metadata !2818, metadata !DIExpression()), !dbg !2821
  %29 = getelementptr inbounds %"struct.DirectIPLookup::Table", %"struct.DirectIPLookup::Table"* %0, i64 0, i32 4, !dbg !2853
  %30 = load i32*, i32** %29, align 8, !dbg !2853, !tbaa !2448
  %31 = zext i32 %28 to i64, !dbg !2853
  %32 = getelementptr inbounds i32, i32* %30, i64 %31, !dbg !2853
  call void @llvm.dbg.value(metadata i32 undef, metadata !2819, metadata !DIExpression()), !dbg !2854
  %33 = load i32, i32* %32, align 4, !dbg !2854, !tbaa !2510
  call void @llvm.dbg.value(metadata i32 %33, metadata !2819, metadata !DIExpression()), !dbg !2854
  %34 = icmp sgt i32 %33, -1, !dbg !2855
  br i1 %34, label %35, label %53, !dbg !2857

35:                                               ; preds = %3
  %36 = getelementptr inbounds %"struct.DirectIPLookup::Table", %"struct.DirectIPLookup::Table"* %0, i64 0, i32 3, !dbg !2858
  %37 = load %"struct.DirectIPLookup::CleartextEntry"*, %"struct.DirectIPLookup::CleartextEntry"** %36, align 8, !dbg !2858, !tbaa !2447
  br label %38, !dbg !2857

38:                                               ; preds = %35, %49
  %39 = phi i32 [ %33, %35 ], [ %51, %49 ]
  %40 = zext i32 %39 to i64, !dbg !2860
  %41 = getelementptr inbounds %"struct.DirectIPLookup::CleartextEntry", %"struct.DirectIPLookup::CleartextEntry"* %37, i64 %40, i32 2, !dbg !2861
  %42 = load i32, i32* %41, align 4, !dbg !2861, !tbaa !2620
  %43 = icmp eq i32 %42, %1, !dbg !2862
  br i1 %43, label %44, label %49, !dbg !2863

44:                                               ; preds = %38
  %45 = getelementptr inbounds %"struct.DirectIPLookup::CleartextEntry", %"struct.DirectIPLookup::CleartextEntry"* %37, i64 %40, i32 3, !dbg !2864
  %46 = load i16, i16* %45, align 4, !dbg !2864, !tbaa !2630
  %47 = zext i16 %46 to i32, !dbg !2865
  %48 = icmp eq i32 %47, %2, !dbg !2866
  br i1 %48, label %53, label %49, !dbg !2867

49:                                               ; preds = %38, %44
  %50 = getelementptr inbounds %"struct.DirectIPLookup::CleartextEntry", %"struct.DirectIPLookup::CleartextEntry"* %37, i64 %40, i32 0, !dbg !2868
  call void @llvm.dbg.value(metadata i32 undef, metadata !2819, metadata !DIExpression()), !dbg !2854
  %51 = load i32, i32* %50, align 4, !dbg !2854, !tbaa !2510
  call void @llvm.dbg.value(metadata i32 %51, metadata !2819, metadata !DIExpression()), !dbg !2854
  %52 = icmp sgt i32 %51, -1, !dbg !2855
  br i1 %52, label %38, label %53, !dbg !2857, !llvm.loop !2869

53:                                               ; preds = %44, %49, %3
  %54 = phi i32 [ -1, %3 ], [ -1, %49 ], [ %39, %44 ]
  ret i32 %54, !dbg !2871
}

; Function Attrs: sspstrong uwtable
define dso_local i32 @_ZN14DirectIPLookup5Table9add_routeERK7IPRoutebPS1_P12ErrorHandler(%"struct.DirectIPLookup::Table"* %0, %struct.IPRoute* dereferenceable(20) %1, i1 zeroext %2, %struct.IPRoute* %3, %class.ErrorHandler* %4) local_unnamed_addr #0 align 2 !dbg !2872 {
  call void @llvm.dbg.value(metadata %"struct.DirectIPLookup::Table"* %0, metadata !2874, metadata !DIExpression()), !dbg !2919
  call void @llvm.dbg.value(metadata %struct.IPRoute* %1, metadata !2875, metadata !DIExpression()), !dbg !2919
  call void @llvm.dbg.value(metadata i1 %2, metadata !2876, metadata !DIExpression()), !dbg !2919
  call void @llvm.dbg.value(metadata %struct.IPRoute* %3, metadata !2877, metadata !DIExpression()), !dbg !2919
  call void @llvm.dbg.value(metadata %class.ErrorHandler* %4, metadata !2878, metadata !DIExpression()), !dbg !2919
  call void @llvm.dbg.value(metadata %struct.IPRoute* %1, metadata !2920, metadata !DIExpression()), !dbg !2924
  %6 = getelementptr inbounds %struct.IPRoute, %struct.IPRoute* %1, i64 0, i32 0, i32 0, !dbg !2926
  %7 = load i32, i32* %6, align 4, !dbg !2926, !tbaa !2927
  call void @llvm.dbg.value(metadata i32 %7, metadata !2621, metadata !DIExpression()) #17, !dbg !2928
  %8 = tail call i32 @llvm.bswap.i32(i32 %7) #17, !dbg !2930
  call void @llvm.dbg.value(metadata i32 %8, metadata !2879, metadata !DIExpression()), !dbg !2919
  call void @llvm.dbg.value(metadata %struct.IPRoute* %1, metadata !2931, metadata !DIExpression()), !dbg !2935
  %9 = getelementptr inbounds %struct.IPRoute, %struct.IPRoute* %1, i64 0, i32 1, !dbg !2937
  %10 = tail call i32 @_ZNK9IPAddress18mask_to_prefix_lenEv(%class.IPAddress* nonnull %9), !dbg !2938
  call void @llvm.dbg.value(metadata i32 %10, metadata !2880, metadata !DIExpression()), !dbg !2919
  call void @llvm.dbg.value(metadata %"struct.DirectIPLookup::Table"* %0, metadata !2815, metadata !DIExpression()), !dbg !2939
  call void @llvm.dbg.value(metadata i32 %8, metadata !2816, metadata !DIExpression()), !dbg !2939
  call void @llvm.dbg.value(metadata i32 %10, metadata !2817, metadata !DIExpression()), !dbg !2939
  call void @llvm.dbg.value(metadata i32 %8, metadata !2822, metadata !DIExpression()), !dbg !2941
  call void @llvm.dbg.value(metadata i32 %10, metadata !2825, metadata !DIExpression()), !dbg !2941
  %11 = shl i32 %10, 5, !dbg !2943
  %12 = xor i32 %11, %8, !dbg !2944
  %13 = lshr i32 %10, 2, !dbg !2945
  %14 = lshr i32 %8, %13, !dbg !2946
  %15 = sub i32 %14, %10, !dbg !2947
  %16 = xor i32 %12, %15, !dbg !2948
  call void @llvm.dbg.value(metadata i32 %16, metadata !2826, metadata !DIExpression()), !dbg !2941
  %17 = lshr i32 %16, 23, !dbg !2949
  %18 = lshr i32 %16, 15, !dbg !2950
  %19 = mul i32 %18, %10, !dbg !2951
  %20 = lshr i32 %8, 17, !dbg !2952
  %21 = mul nuw nsw i32 %20, 53, !dbg !2953
  %22 = xor i32 %16, %21, !dbg !2954
  %23 = xor i32 %22, %17, !dbg !2955
  %24 = xor i32 %23, %19, !dbg !2956
  call void @llvm.dbg.value(metadata i32 %24, metadata !2826, metadata !DIExpression()), !dbg !2941
  %25 = lshr i32 %8, 3, !dbg !2957
  %26 = lshr i32 %24, %10, !dbg !2958
  %27 = mul i32 %26, 7, !dbg !2959
  %28 = xor i32 %27, %25, !dbg !2960
  %29 = lshr i32 %24, 11, !dbg !2961
  %30 = mul nuw nsw i32 %29, 103, !dbg !2962
  %31 = xor i32 %28, %30, !dbg !2963
  %32 = sub i32 %24, %31, !dbg !2964
  call void @llvm.dbg.value(metadata i32 %32, metadata !2826, metadata !DIExpression()), !dbg !2941
  %33 = lshr i32 %32, 17, !dbg !2965
  %34 = and i32 %32, 65535, !dbg !2966
  %35 = xor i32 %34, %33, !dbg !2966
  call void @llvm.dbg.value(metadata i32 %35, metadata !2826, metadata !DIExpression()), !dbg !2941
  call void @llvm.dbg.value(metadata i32 %35, metadata !2818, metadata !DIExpression()), !dbg !2939
  %36 = getelementptr inbounds %"struct.DirectIPLookup::Table", %"struct.DirectIPLookup::Table"* %0, i64 0, i32 4, !dbg !2967
  %37 = load i32*, i32** %36, align 8, !dbg !2967, !tbaa !2448
  %38 = zext i32 %35 to i64, !dbg !2967
  %39 = getelementptr inbounds i32, i32* %37, i64 %38, !dbg !2967
  call void @llvm.dbg.value(metadata i32 undef, metadata !2819, metadata !DIExpression()), !dbg !2968
  %40 = load i32, i32* %39, align 4, !dbg !2968, !tbaa !2510
  call void @llvm.dbg.value(metadata i32 %40, metadata !2819, metadata !DIExpression()), !dbg !2968
  %41 = icmp sgt i32 %40, -1, !dbg !2969
  br i1 %41, label %42, label %141, !dbg !2970

42:                                               ; preds = %5
  %43 = getelementptr inbounds %"struct.DirectIPLookup::Table", %"struct.DirectIPLookup::Table"* %0, i64 0, i32 3, !dbg !2971
  %44 = load %"struct.DirectIPLookup::CleartextEntry"*, %"struct.DirectIPLookup::CleartextEntry"** %43, align 8, !dbg !2971, !tbaa !2447
  br label %45, !dbg !2970

45:                                               ; preds = %56, %42
  %46 = phi i32 [ %40, %42 ], [ %58, %56 ]
  %47 = zext i32 %46 to i64, !dbg !2972
  %48 = getelementptr inbounds %"struct.DirectIPLookup::CleartextEntry", %"struct.DirectIPLookup::CleartextEntry"* %44, i64 %47, i32 2, !dbg !2973
  %49 = load i32, i32* %48, align 4, !dbg !2973, !tbaa !2620
  %50 = icmp eq i32 %49, %8, !dbg !2974
  br i1 %50, label %51, label %56, !dbg !2975

51:                                               ; preds = %45
  %52 = getelementptr inbounds %"struct.DirectIPLookup::CleartextEntry", %"struct.DirectIPLookup::CleartextEntry"* %44, i64 %47, i32 3, !dbg !2976
  %53 = load i16, i16* %52, align 4, !dbg !2976, !tbaa !2630
  %54 = zext i16 %53 to i32, !dbg !2977
  %55 = icmp eq i32 %10, %54, !dbg !2978
  br i1 %55, label %60, label %56, !dbg !2979

56:                                               ; preds = %51, %45
  %57 = getelementptr inbounds %"struct.DirectIPLookup::CleartextEntry", %"struct.DirectIPLookup::CleartextEntry"* %44, i64 %47, i32 0, !dbg !2980
  call void @llvm.dbg.value(metadata i32 undef, metadata !2819, metadata !DIExpression()), !dbg !2968
  %58 = load i32, i32* %57, align 4, !dbg !2968, !tbaa !2510
  call void @llvm.dbg.value(metadata i32 %58, metadata !2819, metadata !DIExpression()), !dbg !2968
  %59 = icmp sgt i32 %58, -1, !dbg !2969
  br i1 %59, label %45, label %141, !dbg !2970, !llvm.loop !2981

60:                                               ; preds = %51
  %61 = zext i32 %46 to i64, !dbg !2972
  call void @llvm.dbg.value(metadata i32 %46, metadata !2881, metadata !DIExpression()), !dbg !2919
  %62 = icmp eq i32 %46, 0, !dbg !2983
  br i1 %62, label %63, label %71, !dbg !2986

63:                                               ; preds = %60
  %64 = getelementptr inbounds %"struct.DirectIPLookup::Table", %"struct.DirectIPLookup::Table"* %0, i64 0, i32 2, !dbg !2987
  %65 = load %"struct.DirectIPLookup::VirtualPort"*, %"struct.DirectIPLookup::VirtualPort"** %64, align 8, !dbg !2987, !tbaa !2446
  %66 = getelementptr inbounds %"struct.DirectIPLookup::VirtualPort", %"struct.DirectIPLookup::VirtualPort"* %65, i64 0, i32 4, !dbg !2988
  %67 = load i16, i16* %66, align 4, !dbg !2988, !tbaa !2513
  %68 = icmp eq i16 %67, -1, !dbg !2989
  %69 = icmp eq %struct.IPRoute* %3, null, !dbg !2990
  %70 = or i1 %69, %68, !dbg !2991
  br i1 %70, label %94, label %73, !dbg !2991

71:                                               ; preds = %60
  %72 = icmp eq %struct.IPRoute* %3, null, !dbg !2990
  br i1 %72, label %107, label %73, !dbg !2992

73:                                               ; preds = %71, %63
  call void @llvm.dbg.value(metadata i32 %49, metadata !2621, metadata !DIExpression()) #17, !dbg !2993
  %74 = tail call i32 @_ZN9IPAddress11make_prefixEi(i32 %10), !dbg !2995
  %75 = getelementptr inbounds %"struct.DirectIPLookup::Table", %"struct.DirectIPLookup::Table"* %0, i64 0, i32 2, !dbg !2996
  %76 = load %"struct.DirectIPLookup::VirtualPort"*, %"struct.DirectIPLookup::VirtualPort"** %75, align 8, !dbg !2996, !tbaa !2446
  %77 = load %"struct.DirectIPLookup::CleartextEntry"*, %"struct.DirectIPLookup::CleartextEntry"** %43, align 8, !dbg !2997, !tbaa !2447
  %78 = getelementptr inbounds %"struct.DirectIPLookup::CleartextEntry", %"struct.DirectIPLookup::CleartextEntry"* %77, i64 %61, i32 4, !dbg !2998
  %79 = load i16, i16* %78, align 2, !dbg !2998, !tbaa !2613
  %80 = sext i16 %79 to i64, !dbg !2996
  %81 = getelementptr inbounds %"struct.DirectIPLookup::VirtualPort", %"struct.DirectIPLookup::VirtualPort"* %76, i64 %80, i32 3, i32 0, !dbg !2996
  %82 = load i32, i32* %81, align 4, !dbg !2996, !tbaa.struct !2636
  %83 = getelementptr inbounds %"struct.DirectIPLookup::VirtualPort", %"struct.DirectIPLookup::VirtualPort"* %76, i64 %80, i32 4, !dbg !2999
  %84 = load i16, i16* %83, align 4, !dbg !2999, !tbaa !2513
  %85 = sext i16 %84 to i32, !dbg !3000
  %86 = getelementptr inbounds %struct.IPRoute, %struct.IPRoute* %3, i64 0, i32 0, i32 0, !dbg !3001
  store i32 %7, i32* %86, align 4, !dbg !3001, !tbaa.struct !3002
  %87 = getelementptr inbounds %struct.IPRoute, %struct.IPRoute* %3, i64 0, i32 1, i32 0, !dbg !3001
  store i32 %74, i32* %87, align 4, !dbg !3001, !tbaa.struct !3002
  %88 = getelementptr inbounds %struct.IPRoute, %struct.IPRoute* %3, i64 0, i32 2, i32 0, !dbg !3001
  store i32 %82, i32* %88, align 4, !dbg !3001, !tbaa.struct !3002
  %89 = getelementptr inbounds %struct.IPRoute, %struct.IPRoute* %3, i64 0, i32 3, !dbg !3001
  store i32 %85, i32* %89, align 4, !dbg !3001, !tbaa.struct !3002
  br i1 %62, label %90, label %107, !dbg !3003

90:                                               ; preds = %73
  %91 = load %"struct.DirectIPLookup::VirtualPort"*, %"struct.DirectIPLookup::VirtualPort"** %75, align 8, !dbg !3004, !tbaa !2446
  %92 = getelementptr inbounds %"struct.DirectIPLookup::VirtualPort", %"struct.DirectIPLookup::VirtualPort"* %91, i64 0, i32 4, !dbg !3008
  %93 = load i16, i16* %92, align 4, !dbg !3009, !tbaa !2513
  br label %94, !dbg !3003

94:                                               ; preds = %90, %63
  %95 = phi i16 [ %93, %90 ], [ %67, %63 ], !dbg !3009
  %96 = phi %"struct.DirectIPLookup::VirtualPort"* [ %91, %90 ], [ %65, %63 ], !dbg !3004
  %97 = icmp eq i16 %95, -1, !dbg !3010
  %98 = or i1 %97, %2, !dbg !3011
  br i1 %98, label %99, label %458, !dbg !3011

99:                                               ; preds = %94
  %100 = getelementptr inbounds %"struct.DirectIPLookup::VirtualPort", %"struct.DirectIPLookup::VirtualPort"* %96, i64 0, i32 4, !dbg !3009
  %101 = getelementptr inbounds %struct.IPRoute, %struct.IPRoute* %1, i64 0, i32 2, i32 0, !dbg !3012
  %102 = getelementptr inbounds %"struct.DirectIPLookup::VirtualPort", %"struct.DirectIPLookup::VirtualPort"* %96, i64 0, i32 3, i32 0, !dbg !3012
  %103 = load i32, i32* %101, align 4, !dbg !3012, !tbaa !2510
  store i32 %103, i32* %102, align 4, !dbg !3012, !tbaa !2510
  %104 = getelementptr inbounds %struct.IPRoute, %struct.IPRoute* %1, i64 0, i32 3, !dbg !3013
  %105 = load i32, i32* %104, align 4, !dbg !3013, !tbaa !2643
  %106 = trunc i32 %105 to i16, !dbg !3014
  store i16 %106, i16* %100, align 4, !dbg !3015, !tbaa !2513
  br label %458, !dbg !3016

107:                                              ; preds = %71, %73
  br i1 %2, label %108, label %458, !dbg !3017

108:                                              ; preds = %107
  %109 = load %"struct.DirectIPLookup::CleartextEntry"*, %"struct.DirectIPLookup::CleartextEntry"** %43, align 8, !dbg !3018, !tbaa !2447
  %110 = getelementptr inbounds %"struct.DirectIPLookup::CleartextEntry", %"struct.DirectIPLookup::CleartextEntry"* %109, i64 %61, i32 4, !dbg !3019
  %111 = load i16, i16* %110, align 2, !dbg !3019, !tbaa !2613
  call void @llvm.dbg.value(metadata %"struct.DirectIPLookup::Table"* %0, metadata !2777, metadata !DIExpression()), !dbg !3020
  call void @llvm.dbg.value(metadata i16 %111, metadata !2778, metadata !DIExpression()), !dbg !3020
  %112 = getelementptr inbounds %"struct.DirectIPLookup::Table", %"struct.DirectIPLookup::Table"* %0, i64 0, i32 2, !dbg !3022
  %113 = load %"struct.DirectIPLookup::VirtualPort"*, %"struct.DirectIPLookup::VirtualPort"** %112, align 8, !dbg !3022, !tbaa !2446
  %114 = zext i16 %111 to i64, !dbg !3022
  %115 = getelementptr inbounds %"struct.DirectIPLookup::VirtualPort", %"struct.DirectIPLookup::VirtualPort"* %113, i64 %114, i32 2, !dbg !3023
  %116 = load i32, i32* %115, align 4, !dbg !3024, !tbaa !2508
  %117 = add nsw i32 %116, -1, !dbg !3024
  store i32 %117, i32* %115, align 4, !dbg !3024, !tbaa !2508
  %118 = icmp eq i32 %117, 0, !dbg !3025
  br i1 %118, label %119, label %175, !dbg !3026

119:                                              ; preds = %108
  %120 = getelementptr inbounds %"struct.DirectIPLookup::VirtualPort", %"struct.DirectIPLookup::VirtualPort"* %113, i64 %114, i32 1, !dbg !3027
  %121 = load i16, i16* %120, align 2, !dbg !3027, !tbaa !2500
  call void @llvm.dbg.value(metadata i16 %121, metadata !2779, metadata !DIExpression()), !dbg !3028
  %122 = getelementptr inbounds %"struct.DirectIPLookup::VirtualPort", %"struct.DirectIPLookup::VirtualPort"* %113, i64 %114, i32 0, !dbg !3029
  %123 = load i16, i16* %122, align 4, !dbg !3029, !tbaa !2505
  call void @llvm.dbg.value(metadata i16 %123, metadata !2782, metadata !DIExpression()), !dbg !3028
  %124 = icmp sgt i16 %121, -1, !dbg !3030
  br i1 %124, label %125, label %128, !dbg !3031

125:                                              ; preds = %119
  %126 = zext i16 %121 to i64, !dbg !3032
  %127 = getelementptr inbounds %"struct.DirectIPLookup::VirtualPort", %"struct.DirectIPLookup::VirtualPort"* %113, i64 %126, i32 0, !dbg !3033
  store i16 %123, i16* %127, align 4, !dbg !3034, !tbaa !2505
  br label %131, !dbg !3032

128:                                              ; preds = %119
  %129 = sext i16 %123 to i32, !dbg !3035
  %130 = getelementptr inbounds %"struct.DirectIPLookup::Table", %"struct.DirectIPLookup::Table"* %0, i64 0, i32 12, !dbg !3036
  store i32 %129, i32* %130, align 4, !dbg !3037, !tbaa !2496
  br label %131

131:                                              ; preds = %128, %125
  %132 = icmp sgt i16 %123, -1, !dbg !3038
  br i1 %132, label %133, label %136, !dbg !3039

133:                                              ; preds = %131
  %134 = zext i16 %123 to i64, !dbg !3040
  %135 = getelementptr inbounds %"struct.DirectIPLookup::VirtualPort", %"struct.DirectIPLookup::VirtualPort"* %113, i64 %134, i32 1, !dbg !3041
  store i16 %121, i16* %135, align 2, !dbg !3042, !tbaa !2500
  br label %136, !dbg !3040

136:                                              ; preds = %133, %131
  %137 = getelementptr inbounds %"struct.DirectIPLookup::Table", %"struct.DirectIPLookup::Table"* %0, i64 0, i32 13, !dbg !3043
  %138 = load i32, i32* %137, align 8, !dbg !3043, !tbaa !2519
  %139 = trunc i32 %138 to i16, !dbg !3043
  store i16 %139, i16* %122, align 4, !dbg !3044, !tbaa !2505
  %140 = zext i16 %111 to i32, !dbg !3045
  store i32 %140, i32* %137, align 8, !dbg !3046, !tbaa !2519
  br label %175, !dbg !3047

141:                                              ; preds = %56, %5
  call void @llvm.dbg.value(metadata i32 %46, metadata !2881, metadata !DIExpression()), !dbg !2919
  %142 = getelementptr inbounds %"struct.DirectIPLookup::Table", %"struct.DirectIPLookup::Table"* %0, i64 0, i32 10, !dbg !3048
  %143 = load i32, i32* %142, align 4, !dbg !3048, !tbaa !2537
  %144 = icmp slt i32 %143, 0, !dbg !3049
  br i1 %144, label %145, label %175, !dbg !3050

145:                                              ; preds = %141
  %146 = getelementptr inbounds %"struct.DirectIPLookup::Table", %"struct.DirectIPLookup::Table"* %0, i64 0, i32 7, !dbg !3051
  %147 = load i32, i32* %146, align 8, !dbg !3051, !tbaa !2534
  %148 = getelementptr inbounds %"struct.DirectIPLookup::Table", %"struct.DirectIPLookup::Table"* %0, i64 0, i32 14, !dbg !3052
  %149 = load i32, i32* %148, align 4, !dbg !3052, !tbaa !2459
  %150 = icmp eq i32 %147, %149, !dbg !3053
  br i1 %150, label %151, label %167, !dbg !3054

151:                                              ; preds = %145
  %152 = zext i32 %147 to i64, !dbg !3055
  %153 = shl nuw nsw i64 %152, 5, !dbg !3055
  %154 = tail call i8* @_Znam(i64 %153) #15, !dbg !3055
  call void @llvm.dbg.value(metadata i8* %154, metadata !2882, metadata !DIExpression()), !dbg !3056
  %155 = getelementptr inbounds %"struct.DirectIPLookup::Table", %"struct.DirectIPLookup::Table"* %0, i64 0, i32 3, !dbg !3057
  %156 = bitcast %"struct.DirectIPLookup::CleartextEntry"** %155 to i8**, !dbg !3057
  %157 = load i8*, i8** %156, align 8, !dbg !3057, !tbaa !2447
  %158 = shl nuw nsw i64 %152, 4, !dbg !3058
  tail call void @llvm.memcpy.p0i8.p0i8.i64(i8* nonnull align 4 %154, i8* align 4 %157, i64 %158, i1 false), !dbg !3059
  %159 = icmp eq i8* %157, null, !dbg !3060
  br i1 %159, label %160, label %162, !dbg !3060

160:                                              ; preds = %151
  store i8* %154, i8** %156, align 8, !dbg !3061, !tbaa !2447
  %161 = shl i32 %147, 1, !dbg !3062
  store i32 %161, i32* %148, align 4, !dbg !3062, !tbaa !2459
  br label %167, !dbg !3063

162:                                              ; preds = %151
  tail call void @_ZdaPv(i8* nonnull %157) #16, !dbg !3060
  %163 = load i32, i32* %148, align 4, !dbg !3062, !tbaa !2459
  %164 = load i32, i32* %142, align 4, !dbg !3064, !tbaa !2537
  store i8* %154, i8** %156, align 8, !dbg !3061, !tbaa !2447
  %165 = shl i32 %163, 1, !dbg !3062
  store i32 %165, i32* %148, align 4, !dbg !3062, !tbaa !2459
  %166 = icmp slt i32 %164, 0, !dbg !3066
  br i1 %166, label %167, label %175, !dbg !3063

167:                                              ; preds = %145, %160, %162
  %168 = phi i32 [ %164, %162 ], [ %143, %160 ], [ %143, %145 ]
  %169 = getelementptr inbounds %"struct.DirectIPLookup::Table", %"struct.DirectIPLookup::Table"* %0, i64 0, i32 3, !dbg !3067
  %170 = load %"struct.DirectIPLookup::CleartextEntry"*, %"struct.DirectIPLookup::CleartextEntry"** %169, align 8, !dbg !3067, !tbaa !2447
  %171 = load i32, i32* %146, align 8, !dbg !3069, !tbaa !2534
  %172 = zext i32 %171 to i64, !dbg !3067
  %173 = getelementptr inbounds %"struct.DirectIPLookup::CleartextEntry", %"struct.DirectIPLookup::CleartextEntry"* %170, i64 %172, i32 0, !dbg !3070
  store i32 %168, i32* %173, align 4, !dbg !3071, !tbaa !2529
  store i32 %171, i32* %142, align 4, !dbg !3072, !tbaa !2537
  %174 = add i32 %171, 1, !dbg !3073
  store i32 %174, i32* %146, align 8, !dbg !3073, !tbaa !2534
  br label %175, !dbg !3074

175:                                              ; preds = %162, %167, %141, %136, %108
  %176 = phi i32 [ %46, %108 ], [ %46, %136 ], [ %143, %141 ], [ %171, %167 ], [ %164, %162 ], !dbg !2919
  call void @llvm.dbg.value(metadata i32 %176, metadata !2881, metadata !DIExpression()), !dbg !2919
  %177 = getelementptr inbounds %struct.IPRoute, %struct.IPRoute* %1, i64 0, i32 2, i32 0, !dbg !3075
  %178 = load i32, i32* %177, align 4, !dbg !3075, !tbaa.struct !2636
  %179 = getelementptr inbounds %struct.IPRoute, %struct.IPRoute* %1, i64 0, i32 3, !dbg !3076
  %180 = load i32, i32* %179, align 4, !dbg !3076, !tbaa !2643
  %181 = trunc i32 %180 to i16, !dbg !3077
  %182 = tail call i32 @_ZN14DirectIPLookup5Table10vport_findE9IPAddresss(%"struct.DirectIPLookup::Table"* nonnull %0, i32 %178, i16 signext %181), !dbg !3078
  call void @llvm.dbg.value(metadata i32 %182, metadata !2887, metadata !DIExpression()), !dbg !2919
  %183 = icmp slt i32 %182, 0, !dbg !3079
  br i1 %183, label %458, label %184, !dbg !3081

184:                                              ; preds = %175
  %185 = lshr i32 %8, 8, !dbg !3082
  call void @llvm.dbg.value(metadata i32 %185, metadata !2888, metadata !DIExpression()), !dbg !2919
  %186 = icmp ult i32 %10, 24, !dbg !3083
  %187 = sub i32 24, %10, !dbg !3084
  %188 = shl nuw i32 1, %187, !dbg !3084
  %189 = select i1 %186, i32 %188, i32 1, !dbg !3084
  %190 = add nsw i32 %189, %185, !dbg !3085
  call void @llvm.dbg.value(metadata i32 %190, metadata !2889, metadata !DIExpression()), !dbg !2919
  %191 = icmp ugt i32 %10, 24, !dbg !3086
  br i1 %191, label %192, label %248, !dbg !3087

192:                                              ; preds = %184
  %193 = getelementptr inbounds %"struct.DirectIPLookup::Table", %"struct.DirectIPLookup::Table"* %0, i64 0, i32 0, !dbg !3088
  %194 = load i16*, i16** %193, align 8, !dbg !3088, !tbaa !2438
  %195 = zext i32 %185 to i64, !dbg !3088
  %196 = getelementptr inbounds i16, i16* %194, i64 %195, !dbg !3088
  %197 = load i16, i16* %196, align 2, !dbg !3088, !tbaa !3089
  %198 = icmp slt i16 %197, 0, !dbg !3090
  br i1 %198, label %248, label %199, !dbg !3091

199:                                              ; preds = %192
  %200 = getelementptr inbounds %"struct.DirectIPLookup::Table", %"struct.DirectIPLookup::Table"* %0, i64 0, i32 11, !dbg !3092
  %201 = load i16, i16* %200, align 8, !dbg !3092, !tbaa !2545
  %202 = icmp slt i16 %201, 0, !dbg !3093
  br i1 %202, label %203, label %248, !dbg !3094

203:                                              ; preds = %199
  %204 = getelementptr inbounds %"struct.DirectIPLookup::Table", %"struct.DirectIPLookup::Table"* %0, i64 0, i32 8, !dbg !3095
  %205 = load i32, i32* %204, align 4, !dbg !3095, !tbaa !2542
  %206 = getelementptr inbounds %"struct.DirectIPLookup::Table", %"struct.DirectIPLookup::Table"* %0, i64 0, i32 15, !dbg !3097
  %207 = load i32, i32* %206, align 8, !dbg !3097, !tbaa !2453
  %208 = icmp eq i32 %205, %207, !dbg !3098
  %209 = icmp ugt i32 %207, 8388607, !dbg !3099
  %210 = and i1 %208, %209, !dbg !3100
  br i1 %210, label %458, label %211, !dbg !3100

211:                                              ; preds = %203
  br i1 %208, label %215, label %212, !dbg !3101

212:                                              ; preds = %211
  %213 = getelementptr inbounds %"struct.DirectIPLookup::Table", %"struct.DirectIPLookup::Table"* %0, i64 0, i32 1, !dbg !3102
  %214 = load i16*, i16** %213, align 8, !dbg !3103, !tbaa !2445
  br label %239, !dbg !3101

215:                                              ; preds = %211
  %216 = zext i32 %205 to i64, !dbg !3104
  %217 = mul nuw nsw i64 %216, 6, !dbg !3104
  %218 = tail call i8* @_Znam(i64 %217) #15, !dbg !3104
  %219 = bitcast i8* %218 to i16*, !dbg !3105
  call void @llvm.dbg.value(metadata i16* %219, metadata !2890, metadata !DIExpression()), !dbg !3106
  %220 = getelementptr inbounds %"struct.DirectIPLookup::Table", %"struct.DirectIPLookup::Table"* %0, i64 0, i32 1, !dbg !3107
  %221 = bitcast i16** %220 to i8**, !dbg !3107
  %222 = load i8*, i8** %221, align 8, !dbg !3107, !tbaa !2445
  %223 = shl nuw nsw i64 %216, 1, !dbg !3108
  tail call void @llvm.memcpy.p0i8.p0i8.i64(i8* nonnull align 2 %218, i8* align 2 %222, i64 %223, i1 false), !dbg !3109
  %224 = getelementptr inbounds i16, i16* %219, i64 %216, !dbg !3110
  %225 = bitcast i16* %224 to i8*, !dbg !3111
  %226 = getelementptr inbounds %"struct.DirectIPLookup::Table", %"struct.DirectIPLookup::Table"* %0, i64 0, i32 6, !dbg !3112
  %227 = load i8*, i8** %226, align 8, !dbg !3112, !tbaa !2450
  tail call void @llvm.memcpy.p0i8.p0i8.i64(i8* nonnull align 2 %225, i8* align 1 %227, i64 %216, i1 false), !dbg !3111
  %228 = icmp eq i8* %222, null, !dbg !3113
  br i1 %228, label %232, label %229, !dbg !3113

229:                                              ; preds = %215
  tail call void @_ZdaPv(i8* nonnull %222) #16, !dbg !3113
  %230 = load i32, i32* %206, align 8, !dbg !3114, !tbaa !2453
  %231 = load i32, i32* %204, align 4, !dbg !3115, !tbaa !2542
  br label %232, !dbg !3113

232:                                              ; preds = %229, %215
  %233 = phi i32 [ %231, %229 ], [ %205, %215 ], !dbg !3115
  %234 = phi i32 [ %230, %229 ], [ %205, %215 ], !dbg !3114
  store i8* %218, i8** %221, align 8, !dbg !3116, !tbaa !2445
  %235 = shl i32 %234, 1, !dbg !3117
  %236 = zext i32 %235 to i64, !dbg !3118
  %237 = getelementptr inbounds i16, i16* %219, i64 %236, !dbg !3118
  %238 = bitcast i8** %226 to i16**, !dbg !3119
  store i16* %237, i16** %238, align 8, !dbg !3119, !tbaa !2450
  store i32 %235, i32* %206, align 8, !dbg !3120, !tbaa !2453
  br label %239

239:                                              ; preds = %212, %232
  %240 = phi i16* [ %219, %232 ], [ %214, %212 ], !dbg !3103
  %241 = phi i32 [ %233, %232 ], [ %205, %212 ], !dbg !3115
  %242 = lshr i32 %241, 8, !dbg !3121
  %243 = trunc i32 %242 to i16, !dbg !3115
  store i16 %243, i16* %200, align 8, !dbg !3122, !tbaa !2545
  %244 = and i32 %241, 16776960, !dbg !3123
  %245 = zext i32 %244 to i64, !dbg !3103
  %246 = getelementptr inbounds i16, i16* %240, i64 %245, !dbg !3103
  store i16 -32768, i16* %246, align 2, !dbg !3124, !tbaa !3089
  %247 = add i32 %241, 256, !dbg !3125
  store i32 %247, i32* %204, align 4, !dbg !3125, !tbaa !2542
  br label %248, !dbg !3126

248:                                              ; preds = %239, %199, %192, %184
  %249 = getelementptr inbounds %"struct.DirectIPLookup::Table", %"struct.DirectIPLookup::Table"* %0, i64 0, i32 10, !dbg !3127
  %250 = load i32, i32* %249, align 4, !dbg !3127, !tbaa !2537
  %251 = icmp eq i32 %176, %250, !dbg !3128
  br i1 %251, label %252, label %271, !dbg !3129

252:                                              ; preds = %248
  %253 = getelementptr inbounds %"struct.DirectIPLookup::Table", %"struct.DirectIPLookup::Table"* %0, i64 0, i32 3, !dbg !3130
  %254 = load %"struct.DirectIPLookup::CleartextEntry"*, %"struct.DirectIPLookup::CleartextEntry"** %253, align 8, !dbg !3130, !tbaa !2447
  %255 = sext i32 %176 to i64, !dbg !3130
  %256 = getelementptr inbounds %"struct.DirectIPLookup::CleartextEntry", %"struct.DirectIPLookup::CleartextEntry"* %254, i64 %255, i32 0, !dbg !3131
  %257 = load i32, i32* %256, align 4, !dbg !3131, !tbaa !2529
  store i32 %257, i32* %249, align 4, !dbg !3132, !tbaa !2537
  %258 = getelementptr inbounds %"struct.DirectIPLookup::CleartextEntry", %"struct.DirectIPLookup::CleartextEntry"* %254, i64 %255, i32 2, !dbg !3133
  store i32 %8, i32* %258, align 4, !dbg !3134, !tbaa !2620
  %259 = trunc i32 %10 to i16, !dbg !3135
  %260 = getelementptr inbounds %"struct.DirectIPLookup::CleartextEntry", %"struct.DirectIPLookup::CleartextEntry"* %254, i64 %255, i32 3, !dbg !3136
  store i16 %259, i16* %260, align 4, !dbg !3137, !tbaa !2630
  call void @llvm.dbg.value(metadata i32 %8, metadata !2822, metadata !DIExpression()), !dbg !3138
  call void @llvm.dbg.value(metadata i32 %10, metadata !2825, metadata !DIExpression()), !dbg !3138
  call void @llvm.dbg.value(metadata i32 %16, metadata !2826, metadata !DIExpression()), !dbg !3138
  call void @llvm.dbg.value(metadata i32 %24, metadata !2826, metadata !DIExpression()), !dbg !3138
  call void @llvm.dbg.value(metadata i32 %32, metadata !2826, metadata !DIExpression()), !dbg !3138
  call void @llvm.dbg.value(metadata i32 %35, metadata !2826, metadata !DIExpression()), !dbg !3138
  call void @llvm.dbg.value(metadata i32 %35, metadata !2895, metadata !DIExpression()), !dbg !3140
  %261 = getelementptr inbounds %"struct.DirectIPLookup::CleartextEntry", %"struct.DirectIPLookup::CleartextEntry"* %254, i64 %255, i32 1, !dbg !3141
  store i32 -1, i32* %261, align 4, !dbg !3142, !tbaa !2525
  %262 = load i32*, i32** %36, align 8, !dbg !3143, !tbaa !2448
  %263 = getelementptr inbounds i32, i32* %262, i64 %38, !dbg !3143
  %264 = load i32, i32* %263, align 4, !dbg !3143, !tbaa !2510
  store i32 %264, i32* %256, align 4, !dbg !3144, !tbaa !2529
  %265 = load i32, i32* %263, align 4, !dbg !3145, !tbaa !2510
  %266 = icmp sgt i32 %265, -1, !dbg !3147
  br i1 %266, label %267, label %270, !dbg !3148

267:                                              ; preds = %252
  %268 = zext i32 %265 to i64, !dbg !3149
  %269 = getelementptr inbounds %"struct.DirectIPLookup::CleartextEntry", %"struct.DirectIPLookup::CleartextEntry"* %254, i64 %268, i32 1, !dbg !3150
  store i32 %176, i32* %269, align 4, !dbg !3151, !tbaa !2525
  br label %270, !dbg !3149

270:                                              ; preds = %267, %252
  store i32 %176, i32* %263, align 4, !dbg !3152, !tbaa !2510
  br label %271, !dbg !3153

271:                                              ; preds = %270, %248
  %272 = getelementptr inbounds %"struct.DirectIPLookup::Table", %"struct.DirectIPLookup::Table"* %0, i64 0, i32 13, !dbg !3154
  %273 = load i32, i32* %272, align 8, !dbg !3154, !tbaa !2519
  %274 = icmp eq i32 %182, %273, !dbg !3156
  %275 = getelementptr inbounds %"struct.DirectIPLookup::Table", %"struct.DirectIPLookup::Table"* %0, i64 0, i32 2, !dbg !2919
  %276 = load %"struct.DirectIPLookup::VirtualPort"*, %"struct.DirectIPLookup::VirtualPort"** %275, align 8, !dbg !2919, !tbaa !2446
  %277 = zext i32 %182 to i64, !dbg !2919
  br i1 %274, label %282, label %278, !dbg !3157

278:                                              ; preds = %271
  %279 = getelementptr inbounds %"struct.DirectIPLookup::VirtualPort", %"struct.DirectIPLookup::VirtualPort"* %276, i64 %277, i32 2, !dbg !2919
  %280 = load i32, i32* %279, align 4, !dbg !3158, !tbaa !2508
  %281 = add i32 %280, 1, !dbg !3157
  br label %302, !dbg !3157

282:                                              ; preds = %271
  %283 = getelementptr inbounds %"struct.DirectIPLookup::VirtualPort", %"struct.DirectIPLookup::VirtualPort"* %276, i64 %277, i32 0, !dbg !3159
  %284 = load i16, i16* %283, align 4, !dbg !3159, !tbaa !2505
  %285 = sext i16 %284 to i32, !dbg !3161
  store i32 %285, i32* %272, align 8, !dbg !3162, !tbaa !2519
  %286 = getelementptr inbounds %"struct.DirectIPLookup::VirtualPort", %"struct.DirectIPLookup::VirtualPort"* %276, i64 %277, i32 2, !dbg !3163
  store i32 0, i32* %286, align 4, !dbg !3164, !tbaa !2508
  %287 = getelementptr inbounds %"struct.DirectIPLookup::VirtualPort", %"struct.DirectIPLookup::VirtualPort"* %276, i64 %277, i32 3, i32 0, !dbg !3165
  %288 = load i32, i32* %177, align 4, !dbg !3165, !tbaa !2510
  store i32 %288, i32* %287, align 4, !dbg !3165, !tbaa !2510
  %289 = load i32, i32* %179, align 4, !dbg !3166, !tbaa !2643
  %290 = trunc i32 %289 to i16, !dbg !3167
  %291 = getelementptr inbounds %"struct.DirectIPLookup::VirtualPort", %"struct.DirectIPLookup::VirtualPort"* %276, i64 %277, i32 4, !dbg !3168
  store i16 %290, i16* %291, align 4, !dbg !3169, !tbaa !2513
  %292 = getelementptr inbounds %"struct.DirectIPLookup::VirtualPort", %"struct.DirectIPLookup::VirtualPort"* %276, i64 %277, i32 1, !dbg !3170
  store i16 -1, i16* %292, align 2, !dbg !3171, !tbaa !2500
  %293 = getelementptr inbounds %"struct.DirectIPLookup::Table", %"struct.DirectIPLookup::Table"* %0, i64 0, i32 12, !dbg !3172
  %294 = load i32, i32* %293, align 4, !dbg !3172, !tbaa !2496
  %295 = trunc i32 %294 to i16, !dbg !3172
  store i16 %295, i16* %283, align 4, !dbg !3173, !tbaa !2505
  %296 = icmp sgt i32 %294, -1, !dbg !3174
  br i1 %296, label %297, label %301, !dbg !3176

297:                                              ; preds = %282
  %298 = trunc i32 %182 to i16, !dbg !3177
  %299 = zext i32 %294 to i64, !dbg !3178
  %300 = getelementptr inbounds %"struct.DirectIPLookup::VirtualPort", %"struct.DirectIPLookup::VirtualPort"* %276, i64 %299, i32 1, !dbg !3179
  store i16 %298, i16* %300, align 2, !dbg !3180, !tbaa !2500
  br label %301, !dbg !3178

301:                                              ; preds = %297, %282
  store i32 %182, i32* %293, align 4, !dbg !3181, !tbaa !2496
  br label %302, !dbg !3182

302:                                              ; preds = %278, %301
  %303 = phi i32 [ %281, %278 ], [ 1, %301 ]
  %304 = getelementptr inbounds %"struct.DirectIPLookup::VirtualPort", %"struct.DirectIPLookup::VirtualPort"* %276, i64 %277, i32 2, !dbg !3183
  store i32 %303, i32* %304, align 4, !dbg !3158, !tbaa !2508
  %305 = trunc i32 %182 to i16, !dbg !3184
  %306 = getelementptr inbounds %"struct.DirectIPLookup::Table", %"struct.DirectIPLookup::Table"* %0, i64 0, i32 3, !dbg !3185
  %307 = load %"struct.DirectIPLookup::CleartextEntry"*, %"struct.DirectIPLookup::CleartextEntry"** %306, align 8, !dbg !3185, !tbaa !2447
  %308 = sext i32 %176 to i64, !dbg !3185
  %309 = getelementptr inbounds %"struct.DirectIPLookup::CleartextEntry", %"struct.DirectIPLookup::CleartextEntry"* %307, i64 %308, i32 4, !dbg !3186
  store i16 %305, i16* %309, align 2, !dbg !3187, !tbaa !2613
  call void @llvm.dbg.value(metadata i32 %185, metadata !2898, metadata !DIExpression()), !dbg !3188
  %310 = icmp sgt i32 %189, 0, !dbg !3189
  br i1 %310, label %311, label %458, !dbg !3190

311:                                              ; preds = %302
  %312 = getelementptr inbounds %"struct.DirectIPLookup::Table", %"struct.DirectIPLookup::Table"* %0, i64 0, i32 0, !dbg !3191
  %313 = getelementptr inbounds %"struct.DirectIPLookup::Table", %"struct.DirectIPLookup::Table"* %0, i64 0, i32 5, !dbg !3192
  %314 = trunc i32 %10 to i8, !dbg !3193
  %315 = getelementptr inbounds %"struct.DirectIPLookup::Table", %"struct.DirectIPLookup::Table"* %0, i64 0, i32 11, !dbg !3195
  %316 = getelementptr inbounds %"struct.DirectIPLookup::Table", %"struct.DirectIPLookup::Table"* %0, i64 0, i32 1, !dbg !3195
  %317 = and i32 %8, 255, !dbg !3195
  %318 = sub i32 32, %10, !dbg !3195
  %319 = shl nuw i32 1, %318, !dbg !3195
  %320 = add nuw nsw i32 %319, %317, !dbg !3195
  %321 = getelementptr inbounds %"struct.DirectIPLookup::Table", %"struct.DirectIPLookup::Table"* %0, i64 0, i32 6, !dbg !3196
  %322 = select i1 %191, i32 %317, i32 0, !dbg !3201
  %323 = select i1 %191, i32 %320, i32 256, !dbg !3201
  %324 = sext i32 %320 to i64, !dbg !3190
  %325 = zext i32 %317 to i64, !dbg !3190
  br label %326, !dbg !3190

326:                                              ; preds = %311, %454
  %327 = phi i32 [ %185, %311 ], [ %456, %454 ]
  call void @llvm.dbg.value(metadata i32 %327, metadata !2898, metadata !DIExpression()), !dbg !3188
  %328 = load i16*, i16** %312, align 8, !dbg !3202, !tbaa !2438
  %329 = sext i32 %327 to i64, !dbg !3202
  %330 = getelementptr inbounds i16, i16* %328, i64 %329, !dbg !3202
  %331 = load i16, i16* %330, align 2, !dbg !3202, !tbaa !3089
  %332 = icmp slt i16 %331, 0, !dbg !3202
  br i1 %332, label %333, label %397, !dbg !3203

333:                                              ; preds = %326
  %334 = and i16 %331, 32767, !dbg !3204
  %335 = zext i16 %334 to i32, !dbg !3204
  %336 = shl nuw nsw i32 %335, 8, !dbg !3205
  call void @llvm.dbg.value(metadata i32 %336, metadata !2900, metadata !DIExpression()), !dbg !3201
  call void @llvm.dbg.value(metadata i32 %323, metadata !2906, metadata !DIExpression()), !dbg !3201
  call void @llvm.dbg.value(metadata i32 %322, metadata !2905, metadata !DIExpression()), !dbg !3201
  %337 = or i32 %336, %322, !dbg !3206
  call void @llvm.dbg.value(metadata i32 %337, metadata !2907, metadata !DIExpression()), !dbg !3207
  %338 = add nsw i32 %336, %323, !dbg !3208
  %339 = icmp slt i32 %337, %338, !dbg !3210
  br i1 %339, label %340, label %454, !dbg !3211

340:                                              ; preds = %333
  br i1 %2, label %341, label %367, !dbg !3211

341:                                              ; preds = %340, %363
  %342 = phi i32 [ %365, %363 ], [ %337, %340 ]
  call void @llvm.dbg.value(metadata i32 %342, metadata !2907, metadata !DIExpression()), !dbg !3207
  %343 = load i8*, i8** %321, align 8, !dbg !3212, !tbaa !2450
  %344 = sext i32 %342 to i64, !dbg !3212
  %345 = getelementptr inbounds i8, i8* %343, i64 %344, !dbg !3212
  %346 = load i8, i8* %345, align 1, !dbg !3212, !tbaa !2675
  %347 = zext i8 %346 to i32, !dbg !3212
  %348 = icmp ugt i32 %10, %347, !dbg !3215
  br i1 %348, label %360, label %349, !dbg !3216

349:                                              ; preds = %341
  %350 = icmp ult i32 %10, %347, !dbg !3217
  br i1 %350, label %354, label %351, !dbg !3219

351:                                              ; preds = %349
  %352 = load i16*, i16** %316, align 8, !dbg !3220, !tbaa !2445
  %353 = getelementptr inbounds i16, i16* %352, i64 %344, !dbg !3220
  store i16 %305, i16* %353, align 2, !dbg !3223, !tbaa !3089
  br label %363

354:                                              ; preds = %349
  %355 = icmp ugt i8 %346, 24, !dbg !3224
  br i1 %355, label %356, label %386, !dbg !3227

356:                                              ; preds = %354
  %357 = add nsw i32 %347, -24, !dbg !3228
  %358 = lshr i32 255, %357, !dbg !3230
  %359 = or i32 %358, %342, !dbg !3231
  call void @llvm.dbg.value(metadata i32 %359, metadata !2907, metadata !DIExpression()), !dbg !3207
  br label %363, !dbg !3232

360:                                              ; preds = %341
  %361 = load i16*, i16** %316, align 8, !dbg !3233, !tbaa !2445
  %362 = getelementptr inbounds i16, i16* %361, i64 %344, !dbg !3233
  store i16 %305, i16* %362, align 2, !dbg !3235, !tbaa !3089
  store i8 %314, i8* %345, align 1, !dbg !3236, !tbaa !2675
  br label %363, !dbg !3237

363:                                              ; preds = %360, %356, %351
  %364 = phi i32 [ %342, %360 ], [ %359, %356 ], [ %342, %351 ], !dbg !3207
  call void @llvm.dbg.value(metadata i32 %364, metadata !2907, metadata !DIExpression()), !dbg !3207
  %365 = add nsw i32 %364, 1, !dbg !3238
  call void @llvm.dbg.value(metadata i32 %365, metadata !2907, metadata !DIExpression()), !dbg !3207
  %366 = icmp slt i32 %365, %338, !dbg !3210
  br i1 %366, label %341, label %454, !dbg !3211, !llvm.loop !3239

367:                                              ; preds = %340, %391
  %368 = phi i32 [ %393, %391 ], [ %337, %340 ]
  call void @llvm.dbg.value(metadata i32 %368, metadata !2907, metadata !DIExpression()), !dbg !3207
  %369 = load i8*, i8** %321, align 8, !dbg !3212, !tbaa !2450
  %370 = sext i32 %368 to i64, !dbg !3212
  %371 = getelementptr inbounds i8, i8* %369, i64 %370, !dbg !3212
  %372 = load i8, i8* %371, align 1, !dbg !3212, !tbaa !2675
  %373 = zext i8 %372 to i32, !dbg !3212
  %374 = icmp ugt i32 %10, %373, !dbg !3215
  br i1 %374, label %375, label %378, !dbg !3216

375:                                              ; preds = %367
  %376 = load i16*, i16** %316, align 8, !dbg !3233, !tbaa !2445
  %377 = getelementptr inbounds i16, i16* %376, i64 %370, !dbg !3233
  store i16 %305, i16* %377, align 2, !dbg !3235, !tbaa !3089
  store i8 %314, i8* %371, align 1, !dbg !3236, !tbaa !2675
  br label %391, !dbg !3237

378:                                              ; preds = %367
  %379 = icmp ult i32 %10, %373, !dbg !3217
  br i1 %379, label %380, label %395, !dbg !3219

380:                                              ; preds = %378
  %381 = icmp ugt i8 %372, 24, !dbg !3224
  br i1 %381, label %382, label %386, !dbg !3227

382:                                              ; preds = %380
  %383 = add nsw i32 %373, -24, !dbg !3228
  %384 = lshr i32 255, %383, !dbg !3230
  %385 = or i32 %384, %368, !dbg !3231
  call void @llvm.dbg.value(metadata i32 %385, metadata !2907, metadata !DIExpression()), !dbg !3207
  br label %391, !dbg !3232

386:                                              ; preds = %380, %354
  %387 = phi i8 [ %346, %354 ], [ %372, %380 ]
  %388 = zext i8 %387 to i32, !dbg !3212
  %389 = lshr i32 16777215, %388, !dbg !3241
  %390 = or i32 %389, %327, !dbg !3243
  call void @llvm.dbg.value(metadata i32 %390, metadata !2898, metadata !DIExpression()), !dbg !3188
  br label %454, !dbg !3244

391:                                              ; preds = %375, %382
  %392 = phi i32 [ %368, %375 ], [ %385, %382 ], !dbg !3207
  call void @llvm.dbg.value(metadata i32 %392, metadata !2907, metadata !DIExpression()), !dbg !3207
  %393 = add nsw i32 %392, 1, !dbg !3238
  call void @llvm.dbg.value(metadata i32 %393, metadata !2907, metadata !DIExpression()), !dbg !3207
  %394 = icmp slt i32 %393, %338, !dbg !3210
  br i1 %394, label %367, label %454, !dbg !3211, !llvm.loop !3239

395:                                              ; preds = %378
  call void @llvm.dbg.value(metadata i32 %368, metadata !2907, metadata !DIExpression()), !dbg !3207
  call void @llvm.dbg.value(metadata i32 %368, metadata !2907, metadata !DIExpression()), !dbg !3207
  call void @llvm.dbg.value(metadata i32 %368, metadata !2907, metadata !DIExpression()), !dbg !3207
  call void @llvm.dbg.value(metadata i32 %368, metadata !2907, metadata !DIExpression()), !dbg !3207
  call void @llvm.dbg.value(metadata i32 %368, metadata !2907, metadata !DIExpression()), !dbg !3207
  call void @llvm.dbg.value(metadata i32 %368, metadata !2907, metadata !DIExpression()), !dbg !3207
  %396 = tail call i32 (%class.ErrorHandler*, i8*, ...) @_ZN12ErrorHandler5errorEPKcz(%class.ErrorHandler* %4, i8* getelementptr inbounds ([32 x i8], [32 x i8]* @.str.2, i64 0, i64 0), i32 %368), !dbg !3245
  br label %458

397:                                              ; preds = %326
  %398 = load i8*, i8** %313, align 8, !dbg !3247, !tbaa !2449
  %399 = getelementptr inbounds i8, i8* %398, i64 %329, !dbg !3247
  %400 = load i8, i8* %399, align 1, !dbg !3247, !tbaa !2675
  %401 = zext i8 %400 to i32, !dbg !3247
  %402 = icmp ugt i32 %10, %401, !dbg !3248
  br i1 %402, label %403, label %445, !dbg !3249

403:                                              ; preds = %397
  br i1 %191, label %404, label %444, !dbg !3250

404:                                              ; preds = %403
  %405 = load i16, i16* %315, align 8, !dbg !3251, !tbaa !2545
  %406 = icmp sgt i16 %405, -1, !dbg !3251
  br i1 %406, label %408, label %407, !dbg !3251

407:                                              ; preds = %404
  tail call void @__assert_fail(i8* getelementptr inbounds ([34 x i8], [34 x i8]* @.str.3, i64 0, i64 0), i8* getelementptr inbounds ([33 x i8], [33 x i8]* @.str.1, i64 0, i64 0), i32 333, i8* getelementptr inbounds ([87 x i8], [87 x i8]* @__PRETTY_FUNCTION__._ZN14DirectIPLookup5Table9add_routeERK7IPRoutebPS1_P12ErrorHandler, i64 0, i64 0)) #14, !dbg !3251
  unreachable, !dbg !3251

408:                                              ; preds = %404
  %409 = zext i16 %405 to i64, !dbg !3251
  %410 = shl nuw nsw i64 %409, 8, !dbg !3252
  call void @llvm.dbg.value(metadata i16 %405, metadata !2909, metadata !DIExpression(DW_OP_constu, 8, DW_OP_shl, DW_OP_stack_value)), !dbg !3195
  %411 = load i16*, i16** %316, align 8, !dbg !3253, !tbaa !2445
  %412 = getelementptr inbounds i16, i16* %411, i64 %410, !dbg !3253
  %413 = load i16, i16* %412, align 2, !dbg !3253, !tbaa !3089
  store i16 %413, i16* %315, align 8, !dbg !3254, !tbaa !2545
  call void @llvm.dbg.value(metadata i32 %317, metadata !2915, metadata !DIExpression()), !dbg !3195
  call void @llvm.dbg.value(metadata i32 %320, metadata !2916, metadata !DIExpression()), !dbg !3195
  call void @llvm.dbg.value(metadata i32 0, metadata !2917, metadata !DIExpression()), !dbg !3255
  br label %418, !dbg !3256

414:                                              ; preds = %437
  %415 = or i16 %405, -32768, !dbg !3257
  %416 = load i16*, i16** %312, align 8, !dbg !3258, !tbaa !2438
  %417 = getelementptr inbounds i16, i16* %416, i64 %329, !dbg !3258
  store i16 %415, i16* %417, align 2, !dbg !3259, !tbaa !3089
  br label %454, !dbg !3260

418:                                              ; preds = %437, %408
  %419 = phi i64 [ 0, %408 ], [ %442, %437 ]
  call void @llvm.dbg.value(metadata i64 %419, metadata !2917, metadata !DIExpression()), !dbg !3255
  %420 = icmp uge i64 %419, %325, !dbg !3261
  %421 = icmp slt i64 %419, %324, !dbg !3262
  %422 = and i1 %420, %421, !dbg !3263
  br i1 %422, label %423, label %427, !dbg !3263

423:                                              ; preds = %418
  %424 = load i16*, i16** %316, align 8, !dbg !3264, !tbaa !2445
  %425 = add nuw nsw i64 %419, %410, !dbg !3266
  %426 = getelementptr inbounds i16, i16* %424, i64 %425, !dbg !3264
  store i16 %305, i16* %426, align 2, !dbg !3267, !tbaa !3089
  br label %437, !dbg !3268

427:                                              ; preds = %418
  %428 = load i16*, i16** %312, align 8, !dbg !3269, !tbaa !2438
  %429 = getelementptr inbounds i16, i16* %428, i64 %329, !dbg !3269
  %430 = load i16, i16* %429, align 2, !dbg !3269, !tbaa !3089
  %431 = load i16*, i16** %316, align 8, !dbg !3270, !tbaa !2445
  %432 = add nuw nsw i64 %419, %410, !dbg !3271
  %433 = getelementptr inbounds i16, i16* %431, i64 %432, !dbg !3270
  store i16 %430, i16* %433, align 2, !dbg !3272, !tbaa !3089
  %434 = load i8*, i8** %313, align 8, !dbg !3273, !tbaa !2449
  %435 = getelementptr inbounds i8, i8* %434, i64 %329, !dbg !3273
  %436 = load i8, i8* %435, align 1, !dbg !3273, !tbaa !2675
  br label %437

437:                                              ; preds = %423, %427
  %438 = phi i64 [ %425, %423 ], [ %432, %427 ]
  %439 = phi i8 [ %314, %423 ], [ %436, %427 ]
  %440 = load i8*, i8** %321, align 8, !dbg !3274, !tbaa !2450
  %441 = getelementptr inbounds i8, i8* %440, i64 %438, !dbg !3274
  store i8 %439, i8* %441, align 1, !dbg !3274, !tbaa !2675
  %442 = add nuw nsw i64 %419, 1, !dbg !3275
  call void @llvm.dbg.value(metadata i64 %442, metadata !2917, metadata !DIExpression()), !dbg !3255
  %443 = icmp eq i64 %442, 256, !dbg !3276
  br i1 %443, label %414, label %418, !dbg !3256, !llvm.loop !3277

444:                                              ; preds = %403
  store i16 %305, i16* %330, align 2, !dbg !3279, !tbaa !3089
  store i8 %314, i8* %399, align 1, !dbg !3280, !tbaa !2675
  br label %454

445:                                              ; preds = %397
  %446 = icmp ult i32 %10, %401, !dbg !3281
  br i1 %446, label %447, label %450, !dbg !3283

447:                                              ; preds = %445
  %448 = lshr i32 16777215, %401, !dbg !3284
  %449 = or i32 %448, %327, !dbg !3286
  call void @llvm.dbg.value(metadata i32 %449, metadata !2898, metadata !DIExpression()), !dbg !3188
  br label %454, !dbg !3287

450:                                              ; preds = %445
  br i1 %2, label %451, label %452, !dbg !3288

451:                                              ; preds = %450
  store i16 %305, i16* %330, align 2, !dbg !3289, !tbaa !3089
  br label %454

452:                                              ; preds = %450
  call void @llvm.dbg.value(metadata i32 %327, metadata !2898, metadata !DIExpression()), !dbg !3188
  call void @llvm.dbg.value(metadata i32 %327, metadata !2898, metadata !DIExpression()), !dbg !3188
  call void @llvm.dbg.value(metadata i32 %327, metadata !2898, metadata !DIExpression()), !dbg !3188
  call void @llvm.dbg.value(metadata i32 %327, metadata !2898, metadata !DIExpression()), !dbg !3188
  call void @llvm.dbg.value(metadata i32 %327, metadata !2898, metadata !DIExpression()), !dbg !3188
  call void @llvm.dbg.value(metadata i32 %327, metadata !2898, metadata !DIExpression()), !dbg !3188
  %453 = tail call i32 (%class.ErrorHandler*, i8*, ...) @_ZN12ErrorHandler5errorEPKcz(%class.ErrorHandler* %4, i8* getelementptr inbounds ([31 x i8], [31 x i8]* @.str.4, i64 0, i64 0), i32 %327), !dbg !3292
  br label %458, !dbg !3294

454:                                              ; preds = %391, %363, %333, %386, %447, %451, %414, %444
  %455 = phi i32 [ %327, %414 ], [ %327, %444 ], [ %449, %447 ], [ %327, %451 ], [ %390, %386 ], [ %327, %333 ], [ %327, %363 ], [ %327, %391 ], !dbg !3188
  call void @llvm.dbg.value(metadata i32 %455, metadata !2898, metadata !DIExpression()), !dbg !3188
  %456 = add nsw i32 %455, 1, !dbg !3295
  call void @llvm.dbg.value(metadata i32 %456, metadata !2898, metadata !DIExpression()), !dbg !3188
  %457 = icmp slt i32 %456, %190, !dbg !3189
  br i1 %457, label %326, label %458, !dbg !3190, !llvm.loop !3296

458:                                              ; preds = %454, %302, %99, %94, %107, %203, %175, %452, %395
  %459 = phi i32 [ %453, %452 ], [ %396, %395 ], [ 0, %99 ], [ -17, %94 ], [ -17, %107 ], [ %182, %175 ], [ -12, %203 ], [ 0, %302 ], [ 0, %454 ]
  ret i32 %459
}

declare i32 @_ZN12ErrorHandler5errorEPKcz(%class.ErrorHandler*, i8*, ...) local_unnamed_addr #7

; Function Attrs: sspstrong uwtable
define dso_local i32 @_ZN14DirectIPLookup5Table12remove_routeERK7IPRoutePS1_P12ErrorHandler(%"struct.DirectIPLookup::Table"* %0, %struct.IPRoute* dereferenceable(20) %1, %struct.IPRoute* %2, %class.ErrorHandler* %3) local_unnamed_addr #0 align 2 !dbg !3298 {
  call void @llvm.dbg.value(metadata %"struct.DirectIPLookup::Table"* %0, metadata !3300, metadata !DIExpression()), !dbg !3321
  call void @llvm.dbg.value(metadata %struct.IPRoute* %1, metadata !3301, metadata !DIExpression()), !dbg !3321
  call void @llvm.dbg.value(metadata %struct.IPRoute* %2, metadata !3302, metadata !DIExpression()), !dbg !3321
  call void @llvm.dbg.value(metadata %class.ErrorHandler* %3, metadata !3303, metadata !DIExpression()), !dbg !3321
  call void @llvm.dbg.value(metadata %struct.IPRoute* %1, metadata !2920, metadata !DIExpression()), !dbg !3322
  %5 = getelementptr inbounds %struct.IPRoute, %struct.IPRoute* %1, i64 0, i32 0, i32 0, !dbg !3324
  %6 = load i32, i32* %5, align 4, !dbg !3324, !tbaa !2927
  call void @llvm.dbg.value(metadata i32 %6, metadata !2621, metadata !DIExpression()) #17, !dbg !3325
  %7 = tail call i32 @llvm.bswap.i32(i32 %6) #17, !dbg !3327
  call void @llvm.dbg.value(metadata i32 %7, metadata !3304, metadata !DIExpression()), !dbg !3321
  call void @llvm.dbg.value(metadata %struct.IPRoute* %1, metadata !2931, metadata !DIExpression()), !dbg !3328
  %8 = getelementptr inbounds %struct.IPRoute, %struct.IPRoute* %1, i64 0, i32 1, !dbg !3330
  %9 = tail call i32 @_ZNK9IPAddress18mask_to_prefix_lenEv(%class.IPAddress* nonnull %8), !dbg !3331
  call void @llvm.dbg.value(metadata i32 %9, metadata !3305, metadata !DIExpression()), !dbg !3321
  call void @llvm.dbg.value(metadata %"struct.DirectIPLookup::Table"* %0, metadata !2815, metadata !DIExpression()), !dbg !3332
  call void @llvm.dbg.value(metadata i32 %7, metadata !2816, metadata !DIExpression()), !dbg !3332
  call void @llvm.dbg.value(metadata i32 %9, metadata !2817, metadata !DIExpression()), !dbg !3332
  call void @llvm.dbg.value(metadata i32 %7, metadata !2822, metadata !DIExpression()), !dbg !3334
  call void @llvm.dbg.value(metadata i32 %9, metadata !2825, metadata !DIExpression()), !dbg !3334
  %10 = shl i32 %9, 5, !dbg !3336
  %11 = xor i32 %10, %7, !dbg !3337
  %12 = lshr i32 %9, 2, !dbg !3338
  %13 = lshr i32 %7, %12, !dbg !3339
  %14 = sub i32 %13, %9, !dbg !3340
  %15 = xor i32 %11, %14, !dbg !3341
  call void @llvm.dbg.value(metadata i32 %15, metadata !2826, metadata !DIExpression()), !dbg !3334
  %16 = lshr i32 %15, 23, !dbg !3342
  %17 = lshr i32 %15, 15, !dbg !3343
  %18 = mul i32 %17, %9, !dbg !3344
  %19 = lshr i32 %7, 17, !dbg !3345
  %20 = mul nuw nsw i32 %19, 53, !dbg !3346
  %21 = xor i32 %15, %20, !dbg !3347
  %22 = xor i32 %21, %16, !dbg !3348
  %23 = xor i32 %22, %18, !dbg !3349
  call void @llvm.dbg.value(metadata i32 %23, metadata !2826, metadata !DIExpression()), !dbg !3334
  %24 = lshr i32 %7, 3, !dbg !3350
  %25 = lshr i32 %23, %9, !dbg !3351
  %26 = mul i32 %25, 7, !dbg !3352
  %27 = xor i32 %26, %24, !dbg !3353
  %28 = lshr i32 %23, 11, !dbg !3354
  %29 = mul nuw nsw i32 %28, 103, !dbg !3355
  %30 = xor i32 %27, %29, !dbg !3356
  %31 = sub i32 %23, %30, !dbg !3357
  call void @llvm.dbg.value(metadata i32 %31, metadata !2826, metadata !DIExpression()), !dbg !3334
  %32 = lshr i32 %31, 17, !dbg !3358
  %33 = and i32 %31, 65535, !dbg !3359
  %34 = xor i32 %33, %32, !dbg !3359
  call void @llvm.dbg.value(metadata i32 %34, metadata !2826, metadata !DIExpression()), !dbg !3334
  call void @llvm.dbg.value(metadata i32 %34, metadata !2818, metadata !DIExpression()), !dbg !3332
  %35 = getelementptr inbounds %"struct.DirectIPLookup::Table", %"struct.DirectIPLookup::Table"* %0, i64 0, i32 4, !dbg !3360
  %36 = load i32*, i32** %35, align 8, !dbg !3360, !tbaa !2448
  %37 = zext i32 %34 to i64, !dbg !3360
  %38 = getelementptr inbounds i32, i32* %36, i64 %37, !dbg !3360
  call void @llvm.dbg.value(metadata i32 undef, metadata !2819, metadata !DIExpression()), !dbg !3361
  %39 = load i32, i32* %38, align 4, !dbg !3361, !tbaa !2510
  call void @llvm.dbg.value(metadata i32 %39, metadata !2819, metadata !DIExpression()), !dbg !3361
  %40 = icmp sgt i32 %39, -1, !dbg !3362
  br i1 %40, label %41, label %352, !dbg !3363

41:                                               ; preds = %4
  %42 = getelementptr inbounds %"struct.DirectIPLookup::Table", %"struct.DirectIPLookup::Table"* %0, i64 0, i32 3, !dbg !3364
  %43 = load %"struct.DirectIPLookup::CleartextEntry"*, %"struct.DirectIPLookup::CleartextEntry"** %42, align 8, !dbg !3364, !tbaa !2447
  br label %44, !dbg !3363

44:                                               ; preds = %55, %41
  %45 = phi i32 [ %39, %41 ], [ %57, %55 ]
  %46 = zext i32 %45 to i64, !dbg !3365
  %47 = getelementptr inbounds %"struct.DirectIPLookup::CleartextEntry", %"struct.DirectIPLookup::CleartextEntry"* %43, i64 %46, i32 2, !dbg !3366
  %48 = load i32, i32* %47, align 4, !dbg !3366, !tbaa !2620
  %49 = icmp eq i32 %48, %7, !dbg !3367
  br i1 %49, label %50, label %55, !dbg !3368

50:                                               ; preds = %44
  %51 = getelementptr inbounds %"struct.DirectIPLookup::CleartextEntry", %"struct.DirectIPLookup::CleartextEntry"* %43, i64 %46, i32 3, !dbg !3369
  %52 = load i16, i16* %51, align 4, !dbg !3369, !tbaa !2630
  %53 = zext i16 %52 to i32, !dbg !3370
  %54 = icmp eq i32 %9, %53, !dbg !3371
  br i1 %54, label %59, label %55, !dbg !3372

55:                                               ; preds = %50, %44
  %56 = getelementptr inbounds %"struct.DirectIPLookup::CleartextEntry", %"struct.DirectIPLookup::CleartextEntry"* %43, i64 %46, i32 0, !dbg !3373
  call void @llvm.dbg.value(metadata i32 undef, metadata !2819, metadata !DIExpression()), !dbg !3361
  %57 = load i32, i32* %56, align 4, !dbg !3361, !tbaa !2510
  call void @llvm.dbg.value(metadata i32 %57, metadata !2819, metadata !DIExpression()), !dbg !3361
  %58 = icmp sgt i32 %57, -1, !dbg !3362
  br i1 %58, label %44, label %352, !dbg !3363, !llvm.loop !3374

59:                                               ; preds = %50
  %60 = zext i32 %45 to i64, !dbg !3365
  call void @llvm.dbg.value(metadata i32 %45, metadata !3306, metadata !DIExpression()), !dbg !3321
  call void @llvm.dbg.value(metadata i32 0, metadata !3307, metadata !DIExpression(DW_OP_LLVM_fragment, 0, 32)), !dbg !3321
  call void @llvm.dbg.value(metadata i32 0, metadata !3307, metadata !DIExpression(DW_OP_LLVM_fragment, 32, 32)), !dbg !3321
  call void @llvm.dbg.value(metadata i32 0, metadata !3307, metadata !DIExpression(DW_OP_LLVM_fragment, 64, 32)), !dbg !3321
  call void @llvm.dbg.value(metadata i32 -1, metadata !3307, metadata !DIExpression(DW_OP_LLVM_fragment, 96, 32)), !dbg !3321
  %61 = icmp eq i32 %45, 0, !dbg !3376
  br i1 %61, label %62, label %68, !dbg !3378

62:                                               ; preds = %59
  %63 = getelementptr inbounds %"struct.DirectIPLookup::Table", %"struct.DirectIPLookup::Table"* %0, i64 0, i32 2, !dbg !3379
  %64 = load %"struct.DirectIPLookup::VirtualPort"*, %"struct.DirectIPLookup::VirtualPort"** %63, align 8, !dbg !3379, !tbaa !2446
  %65 = getelementptr inbounds %"struct.DirectIPLookup::VirtualPort", %"struct.DirectIPLookup::VirtualPort"* %64, i64 0, i32 4, !dbg !3380
  %66 = load i16, i16* %65, align 4, !dbg !3380, !tbaa !2513
  %67 = icmp eq i16 %66, -1, !dbg !3381
  br i1 %67, label %352, label %68, !dbg !3382

68:                                               ; preds = %62, %59
  call void @llvm.dbg.value(metadata i32 %48, metadata !2621, metadata !DIExpression()) #17, !dbg !3383
  %69 = tail call i32 @_ZN9IPAddress11make_prefixEi(i32 %9), !dbg !3385
  %70 = getelementptr inbounds %"struct.DirectIPLookup::Table", %"struct.DirectIPLookup::Table"* %0, i64 0, i32 2, !dbg !3386
  %71 = load %"struct.DirectIPLookup::VirtualPort"*, %"struct.DirectIPLookup::VirtualPort"** %70, align 8, !dbg !3386, !tbaa !2446
  %72 = load %"struct.DirectIPLookup::CleartextEntry"*, %"struct.DirectIPLookup::CleartextEntry"** %42, align 8, !dbg !3387, !tbaa !2447
  %73 = getelementptr inbounds %"struct.DirectIPLookup::CleartextEntry", %"struct.DirectIPLookup::CleartextEntry"* %72, i64 %60, i32 4, !dbg !3388
  %74 = load i16, i16* %73, align 2, !dbg !3388, !tbaa !2613
  %75 = sext i16 %74 to i64, !dbg !3386
  %76 = getelementptr inbounds %"struct.DirectIPLookup::VirtualPort", %"struct.DirectIPLookup::VirtualPort"* %71, i64 %75, i32 3, i32 0, !dbg !3386
  %77 = load i32, i32* %76, align 4, !dbg !3386, !tbaa.struct !2636
  %78 = getelementptr inbounds %"struct.DirectIPLookup::VirtualPort", %"struct.DirectIPLookup::VirtualPort"* %71, i64 %75, i32 4, !dbg !3389
  %79 = load i16, i16* %78, align 4, !dbg !3389, !tbaa !2513
  %80 = sext i16 %79 to i32, !dbg !3390
  call void @llvm.dbg.value(metadata i32 %6, metadata !3307, metadata !DIExpression(DW_OP_LLVM_fragment, 0, 32)), !dbg !3321
  call void @llvm.dbg.value(metadata i32 %69, metadata !3307, metadata !DIExpression(DW_OP_LLVM_fragment, 32, 32)), !dbg !3321
  call void @llvm.dbg.value(metadata i32 %77, metadata !3307, metadata !DIExpression(DW_OP_LLVM_fragment, 64, 32)), !dbg !3321
  call void @llvm.dbg.value(metadata i32 %80, metadata !3307, metadata !DIExpression(DW_OP_LLVM_fragment, 96, 32)), !dbg !3321
  call void @llvm.dbg.value(metadata i32 undef, metadata !3307, metadata !DIExpression(DW_OP_LLVM_fragment, 128, 32)), !dbg !3321
  call void @llvm.dbg.value(metadata %struct.IPRoute* %1, metadata !3391, metadata !DIExpression()), !dbg !3395
  call void @llvm.dbg.value(metadata %struct.IPRoute* undef, metadata !3394, metadata !DIExpression()), !dbg !3395
  %81 = load i32, i32* %5, align 4, !dbg !3398, !tbaa.struct !2636
  call void @llvm.dbg.value(metadata i32 %81, metadata !2721, metadata !DIExpression()), !dbg !3399
  call void @llvm.dbg.value(metadata i32 %6, metadata !2726, metadata !DIExpression()), !dbg !3399
  %82 = icmp eq i32 %81, %6, !dbg !3401
  br i1 %82, label %83, label %352, !dbg !3402

83:                                               ; preds = %68
  %84 = getelementptr inbounds %struct.IPRoute, %struct.IPRoute* %1, i64 0, i32 1, i32 0, !dbg !3403
  %85 = load i32, i32* %84, align 4, !dbg !3403, !tbaa.struct !2636
  call void @llvm.dbg.value(metadata i32 %85, metadata !2721, metadata !DIExpression()), !dbg !3404
  call void @llvm.dbg.value(metadata i32 %69, metadata !2726, metadata !DIExpression()), !dbg !3404
  %86 = icmp eq i32 %85, %69, !dbg !3406
  br i1 %86, label %87, label %352, !dbg !3407

87:                                               ; preds = %83
  %88 = getelementptr inbounds %struct.IPRoute, %struct.IPRoute* %1, i64 0, i32 3, !dbg !3408
  %89 = load i32, i32* %88, align 4, !dbg !3408, !tbaa !2643
  %90 = icmp slt i32 %89, 0, !dbg !3409
  br i1 %90, label %97, label %91, !dbg !3410

91:                                               ; preds = %87
  %92 = getelementptr inbounds %struct.IPRoute, %struct.IPRoute* %1, i64 0, i32 2, i32 0, !dbg !3411
  %93 = load i32, i32* %92, align 4, !dbg !3411, !tbaa.struct !2636
  call void @llvm.dbg.value(metadata i32 %93, metadata !2721, metadata !DIExpression()), !dbg !3412
  call void @llvm.dbg.value(metadata i32 %77, metadata !2726, metadata !DIExpression()), !dbg !3412
  %94 = icmp eq i32 %93, %77, !dbg !3414
  %95 = icmp eq i32 %89, %80, !dbg !3415
  %96 = and i1 %95, %94, !dbg !3416
  br i1 %96, label %97, label %352, !dbg !3416

97:                                               ; preds = %91, %87
  %98 = icmp eq %struct.IPRoute* %2, null, !dbg !3417
  br i1 %98, label %104, label %99, !dbg !3419

99:                                               ; preds = %97
  %100 = getelementptr inbounds %struct.IPRoute, %struct.IPRoute* %2, i64 0, i32 0, i32 0, !dbg !3420
  store i32 %6, i32* %100, align 4, !dbg !3420, !tbaa.struct !3002
  %101 = getelementptr inbounds %struct.IPRoute, %struct.IPRoute* %2, i64 0, i32 1, i32 0, !dbg !3420
  store i32 %69, i32* %101, align 4, !dbg !3420, !tbaa.struct !3002
  %102 = getelementptr inbounds %struct.IPRoute, %struct.IPRoute* %2, i64 0, i32 2, i32 0, !dbg !3420
  store i32 %77, i32* %102, align 4, !dbg !3420, !tbaa.struct !3002
  %103 = getelementptr inbounds %struct.IPRoute, %struct.IPRoute* %2, i64 0, i32 3, !dbg !3420
  store i32 %80, i32* %103, align 4, !dbg !3420, !tbaa.struct !3002
  br label %104, !dbg !3421

104:                                              ; preds = %97, %99
  %105 = icmp eq i32 %9, 0, !dbg !3422
  br i1 %105, label %106, label %113, !dbg !3423

106:                                              ; preds = %104
  %107 = icmp sgt i32 %45, 0, !dbg !3424
  br i1 %107, label %108, label %110, !dbg !3427

108:                                              ; preds = %106
  %109 = tail call i32 (%class.ErrorHandler*, i8*, ...) @_ZN12ErrorHandler5errorEPKcz(%class.ErrorHandler* %3, i8* getelementptr inbounds ([40 x i8], [40 x i8]* @.str.5, i64 0, i64 0), i32 %45), !dbg !3428
  br label %352, !dbg !3429

110:                                              ; preds = %106
  %111 = load %"struct.DirectIPLookup::VirtualPort"*, %"struct.DirectIPLookup::VirtualPort"** %70, align 8, !dbg !3430, !tbaa !2446
  %112 = getelementptr inbounds %"struct.DirectIPLookup::VirtualPort", %"struct.DirectIPLookup::VirtualPort"* %111, i64 0, i32 4, !dbg !3431
  store i16 -1, i16* %112, align 4, !dbg !3432, !tbaa !2513
  br label %352, !dbg !3433

113:                                              ; preds = %104
  call void @llvm.dbg.value(metadata i32 -1, metadata !3317, metadata !DIExpression()), !dbg !3434
  %114 = load %"struct.DirectIPLookup::CleartextEntry"*, %"struct.DirectIPLookup::CleartextEntry"** %42, align 8, !dbg !3435, !tbaa !2447
  %115 = getelementptr inbounds %"struct.DirectIPLookup::CleartextEntry", %"struct.DirectIPLookup::CleartextEntry"* %114, i64 %60, i32 4, !dbg !3436
  %116 = load i16, i16* %115, align 2, !dbg !3436, !tbaa !2613
  call void @llvm.dbg.value(metadata %"struct.DirectIPLookup::Table"* %0, metadata !2777, metadata !DIExpression()), !dbg !3437
  call void @llvm.dbg.value(metadata i16 %116, metadata !2778, metadata !DIExpression()), !dbg !3437
  %117 = load %"struct.DirectIPLookup::VirtualPort"*, %"struct.DirectIPLookup::VirtualPort"** %70, align 8, !dbg !3439, !tbaa !2446
  %118 = zext i16 %116 to i64, !dbg !3439
  %119 = getelementptr inbounds %"struct.DirectIPLookup::VirtualPort", %"struct.DirectIPLookup::VirtualPort"* %117, i64 %118, i32 2, !dbg !3440
  %120 = load i32, i32* %119, align 4, !dbg !3441, !tbaa !2508
  %121 = add nsw i32 %120, -1, !dbg !3441
  store i32 %121, i32* %119, align 4, !dbg !3441, !tbaa !2508
  %122 = icmp eq i32 %121, 0, !dbg !3442
  br i1 %122, label %123, label %145, !dbg !3443

123:                                              ; preds = %113
  %124 = getelementptr inbounds %"struct.DirectIPLookup::VirtualPort", %"struct.DirectIPLookup::VirtualPort"* %117, i64 %118, i32 1, !dbg !3444
  %125 = load i16, i16* %124, align 2, !dbg !3444, !tbaa !2500
  call void @llvm.dbg.value(metadata i16 %125, metadata !2779, metadata !DIExpression()), !dbg !3445
  %126 = getelementptr inbounds %"struct.DirectIPLookup::VirtualPort", %"struct.DirectIPLookup::VirtualPort"* %117, i64 %118, i32 0, !dbg !3446
  %127 = load i16, i16* %126, align 4, !dbg !3446, !tbaa !2505
  call void @llvm.dbg.value(metadata i16 %127, metadata !2782, metadata !DIExpression()), !dbg !3445
  %128 = icmp sgt i16 %125, -1, !dbg !3447
  br i1 %128, label %129, label %132, !dbg !3448

129:                                              ; preds = %123
  %130 = zext i16 %125 to i64, !dbg !3449
  %131 = getelementptr inbounds %"struct.DirectIPLookup::VirtualPort", %"struct.DirectIPLookup::VirtualPort"* %117, i64 %130, i32 0, !dbg !3450
  store i16 %127, i16* %131, align 4, !dbg !3451, !tbaa !2505
  br label %135, !dbg !3449

132:                                              ; preds = %123
  %133 = sext i16 %127 to i32, !dbg !3452
  %134 = getelementptr inbounds %"struct.DirectIPLookup::Table", %"struct.DirectIPLookup::Table"* %0, i64 0, i32 12, !dbg !3453
  store i32 %133, i32* %134, align 4, !dbg !3454, !tbaa !2496
  br label %135

135:                                              ; preds = %132, %129
  %136 = icmp sgt i16 %127, -1, !dbg !3455
  br i1 %136, label %137, label %140, !dbg !3456

137:                                              ; preds = %135
  %138 = zext i16 %127 to i64, !dbg !3457
  %139 = getelementptr inbounds %"struct.DirectIPLookup::VirtualPort", %"struct.DirectIPLookup::VirtualPort"* %117, i64 %138, i32 1, !dbg !3458
  store i16 %125, i16* %139, align 2, !dbg !3459, !tbaa !2500
  br label %140, !dbg !3457

140:                                              ; preds = %137, %135
  %141 = getelementptr inbounds %"struct.DirectIPLookup::Table", %"struct.DirectIPLookup::Table"* %0, i64 0, i32 13, !dbg !3460
  %142 = load i32, i32* %141, align 8, !dbg !3460, !tbaa !2519
  %143 = trunc i32 %142 to i16, !dbg !3460
  store i16 %143, i16* %126, align 4, !dbg !3461, !tbaa !2505
  %144 = zext i16 %116 to i32, !dbg !3462
  store i32 %144, i32* %141, align 8, !dbg !3463, !tbaa !2519
  br label %145, !dbg !3464

145:                                              ; preds = %113, %140
  %146 = getelementptr inbounds %"struct.DirectIPLookup::CleartextEntry", %"struct.DirectIPLookup::CleartextEntry"* %114, i64 %60, i32 1, !dbg !3465
  %147 = load i32, i32* %146, align 4, !dbg !3465, !tbaa !2525
  call void @llvm.dbg.value(metadata i32 %147, metadata !3319, metadata !DIExpression()), !dbg !3434
  %148 = getelementptr inbounds %"struct.DirectIPLookup::CleartextEntry", %"struct.DirectIPLookup::CleartextEntry"* %114, i64 %60, i32 0, !dbg !3466
  %149 = load i32, i32* %148, align 4, !dbg !3466, !tbaa !2529
  call void @llvm.dbg.value(metadata i32 %149, metadata !3320, metadata !DIExpression()), !dbg !3434
  %150 = icmp sgt i32 %147, -1, !dbg !3467
  br i1 %150, label %151, label %154, !dbg !3469

151:                                              ; preds = %145
  %152 = zext i32 %147 to i64, !dbg !3470
  %153 = getelementptr inbounds %"struct.DirectIPLookup::CleartextEntry", %"struct.DirectIPLookup::CleartextEntry"* %114, i64 %152, i32 0, !dbg !3471
  br label %157, !dbg !3470

154:                                              ; preds = %145
  %155 = load i32*, i32** %35, align 8, !dbg !3472, !tbaa !2448
  call void @llvm.dbg.value(metadata i32 %7, metadata !2822, metadata !DIExpression()), !dbg !3473
  call void @llvm.dbg.value(metadata i32 %9, metadata !2825, metadata !DIExpression()), !dbg !3473
  call void @llvm.dbg.value(metadata i32 %15, metadata !2826, metadata !DIExpression()), !dbg !3473
  call void @llvm.dbg.value(metadata i32 %23, metadata !2826, metadata !DIExpression()), !dbg !3473
  call void @llvm.dbg.value(metadata i32 %31, metadata !2826, metadata !DIExpression()), !dbg !3473
  call void @llvm.dbg.value(metadata i32 %34, metadata !2826, metadata !DIExpression()), !dbg !3473
  %156 = getelementptr inbounds i32, i32* %155, i64 %37, !dbg !3472
  br label %157

157:                                              ; preds = %154, %151
  %158 = phi i32* [ %156, %154 ], [ %153, %151 ]
  store i32 %149, i32* %158, align 4, !dbg !3475, !tbaa !2510
  %159 = icmp sgt i32 %149, -1, !dbg !3476
  br i1 %159, label %160, label %163, !dbg !3478

160:                                              ; preds = %157
  %161 = zext i32 %149 to i64, !dbg !3479
  %162 = getelementptr inbounds %"struct.DirectIPLookup::CleartextEntry", %"struct.DirectIPLookup::CleartextEntry"* %114, i64 %161, i32 1, !dbg !3480
  store i32 %147, i32* %162, align 4, !dbg !3481, !tbaa !2525
  br label %163, !dbg !3479

163:                                              ; preds = %160, %157
  %164 = getelementptr inbounds %"struct.DirectIPLookup::Table", %"struct.DirectIPLookup::Table"* %0, i64 0, i32 10, !dbg !3482
  %165 = load i32, i32* %164, align 4, !dbg !3482, !tbaa !2537
  store i32 %165, i32* %148, align 4, !dbg !3483, !tbaa !2529
  store i32 %45, i32* %164, align 4, !dbg !3484, !tbaa !2537
  call void @llvm.dbg.value(metadata i32 %9, metadata !3318, metadata !DIExpression(DW_OP_constu, 1, DW_OP_minus, DW_OP_stack_value)), !dbg !3434
  %166 = add i32 %9, -1, !dbg !3485
  call void @llvm.dbg.value(metadata i32 %166, metadata !3318, metadata !DIExpression()), !dbg !3434
  call void @llvm.dbg.value(metadata i32 -1, metadata !3317, metadata !DIExpression()), !dbg !3434
  %167 = icmp sgt i32 %166, -1, !dbg !3487
  br i1 %167, label %168, label %227, !dbg !3489

168:                                              ; preds = %163
  %169 = icmp eq i32 %166, 0, !dbg !3490
  br i1 %169, label %227, label %170, !dbg !3492

170:                                              ; preds = %168
  %171 = load i32*, i32** %35, align 8, !dbg !3493, !tbaa !2448
  br label %175, !dbg !3496

172:                                              ; preds = %221, %175, %225
  %173 = add i32 %177, -1, !dbg !3485
  call void @llvm.dbg.value(metadata i32 %173, metadata !3318, metadata !DIExpression()), !dbg !3434
  call void @llvm.dbg.value(metadata i32 %211, metadata !3317, metadata !DIExpression()), !dbg !3434
  %174 = icmp eq i32 %173, 0, !dbg !3490
  br i1 %174, label %227, label %175, !dbg !3492

175:                                              ; preds = %170, %172
  %176 = phi i32 [ %177, %172 ], [ %9, %170 ]
  %177 = phi i32 [ %173, %172 ], [ %166, %170 ]
  %178 = sub i32 33, %176, !dbg !3497
  %179 = shl nsw i32 -1, %178, !dbg !3498
  %180 = and i32 %179, %7, !dbg !3499
  call void @llvm.dbg.value(metadata %"struct.DirectIPLookup::Table"* %0, metadata !2815, metadata !DIExpression()), !dbg !3500
  call void @llvm.dbg.value(metadata i32 %180, metadata !2816, metadata !DIExpression()), !dbg !3500
  call void @llvm.dbg.value(metadata i32 %177, metadata !2817, metadata !DIExpression()), !dbg !3500
  call void @llvm.dbg.value(metadata i32 %180, metadata !2822, metadata !DIExpression()), !dbg !3501
  call void @llvm.dbg.value(metadata i32 %177, metadata !2825, metadata !DIExpression()), !dbg !3501
  %181 = shl i32 %177, 5, !dbg !3503
  %182 = xor i32 %180, %181, !dbg !3504
  %183 = lshr i32 %177, 2, !dbg !3505
  %184 = lshr i32 %180, %183, !dbg !3506
  %185 = sub i32 %184, %177, !dbg !3507
  %186 = xor i32 %182, %185, !dbg !3508
  call void @llvm.dbg.value(metadata i32 %186, metadata !2826, metadata !DIExpression()), !dbg !3501
  %187 = lshr i32 %186, 23, !dbg !3509
  %188 = lshr i32 %186, 15, !dbg !3510
  %189 = mul i32 %188, %177, !dbg !3511
  %190 = lshr i32 %180, 17, !dbg !3512
  %191 = mul nuw nsw i32 %190, 53, !dbg !3513
  %192 = xor i32 %186, %191, !dbg !3514
  %193 = xor i32 %192, %187, !dbg !3515
  %194 = xor i32 %193, %189, !dbg !3516
  call void @llvm.dbg.value(metadata i32 %194, metadata !2826, metadata !DIExpression()), !dbg !3501
  %195 = lshr i32 %180, 3, !dbg !3517
  %196 = lshr i32 %194, %177, !dbg !3518
  %197 = mul i32 %196, 7, !dbg !3519
  %198 = xor i32 %197, %195, !dbg !3520
  %199 = lshr i32 %194, 11, !dbg !3521
  %200 = mul nuw nsw i32 %199, 103, !dbg !3522
  %201 = xor i32 %198, %200, !dbg !3523
  %202 = sub i32 %194, %201, !dbg !3524
  call void @llvm.dbg.value(metadata i32 %202, metadata !2826, metadata !DIExpression()), !dbg !3501
  %203 = lshr i32 %202, 17, !dbg !3525
  %204 = and i32 %202, 65535, !dbg !3526
  %205 = xor i32 %204, %203, !dbg !3526
  call void @llvm.dbg.value(metadata i32 %205, metadata !2826, metadata !DIExpression()), !dbg !3501
  call void @llvm.dbg.value(metadata i32 %205, metadata !2818, metadata !DIExpression()), !dbg !3500
  %206 = zext i32 %205 to i64, !dbg !3527
  %207 = getelementptr inbounds i32, i32* %171, i64 %206, !dbg !3527
  call void @llvm.dbg.value(metadata i32 undef, metadata !2819, metadata !DIExpression()), !dbg !3493
  %208 = load i32, i32* %207, align 4, !dbg !3493, !tbaa !2510
  call void @llvm.dbg.value(metadata i32 %208, metadata !2819, metadata !DIExpression()), !dbg !3493
  %209 = icmp sgt i32 %208, -1, !dbg !3528
  br i1 %209, label %210, label %172, !dbg !3496

210:                                              ; preds = %175, %221
  %211 = phi i32 [ %223, %221 ], [ %208, %175 ]
  %212 = zext i32 %211 to i64, !dbg !3529
  %213 = getelementptr inbounds %"struct.DirectIPLookup::CleartextEntry", %"struct.DirectIPLookup::CleartextEntry"* %114, i64 %212, i32 2, !dbg !3530
  %214 = load i32, i32* %213, align 4, !dbg !3530, !tbaa !2620
  %215 = icmp eq i32 %214, %180, !dbg !3531
  br i1 %215, label %216, label %221, !dbg !3532

216:                                              ; preds = %210
  %217 = getelementptr inbounds %"struct.DirectIPLookup::CleartextEntry", %"struct.DirectIPLookup::CleartextEntry"* %114, i64 %212, i32 3, !dbg !3533
  %218 = load i16, i16* %217, align 4, !dbg !3533, !tbaa !2630
  %219 = zext i16 %218 to i32, !dbg !3534
  %220 = icmp eq i32 %177, %219, !dbg !3535
  br i1 %220, label %225, label %221, !dbg !3536

221:                                              ; preds = %216, %210
  %222 = getelementptr inbounds %"struct.DirectIPLookup::CleartextEntry", %"struct.DirectIPLookup::CleartextEntry"* %114, i64 %212, i32 0, !dbg !3537
  call void @llvm.dbg.value(metadata i32 undef, metadata !2819, metadata !DIExpression()), !dbg !3493
  %223 = load i32, i32* %222, align 4, !dbg !3493, !tbaa !2510
  call void @llvm.dbg.value(metadata i32 %223, metadata !2819, metadata !DIExpression()), !dbg !3493
  %224 = icmp sgt i32 %223, -1, !dbg !3528
  br i1 %224, label %210, label %172, !dbg !3496, !llvm.loop !3538

225:                                              ; preds = %216
  call void @llvm.dbg.value(metadata i32 %211, metadata !3317, metadata !DIExpression()), !dbg !3434
  %226 = icmp sgt i32 %211, 0, !dbg !3540
  br i1 %226, label %227, label %172, !dbg !3542, !llvm.loop !3543

227:                                              ; preds = %172, %225, %168, %163
  %228 = phi i32 [ %166, %163 ], [ 0, %168 ], [ %177, %225 ], [ 0, %172 ], !dbg !3485
  %229 = phi i32 [ -1, %163 ], [ 0, %168 ], [ %211, %225 ], [ 0, %172 ], !dbg !3434
  call void @llvm.dbg.value(metadata i32 %229, metadata !3317, metadata !DIExpression()), !dbg !3434
  %230 = lshr i32 %7, 8, !dbg !3545
  call void @llvm.dbg.value(metadata i32 %230, metadata !3308, metadata !DIExpression()), !dbg !3434
  %231 = icmp ugt i32 %9, 23, !dbg !3546
  %232 = sub i32 24, %9, !dbg !3548
  %233 = shl nuw i32 1, %232, !dbg !3548
  %234 = select i1 %231, i32 1, i32 %233, !dbg !3548
  %235 = add nuw i32 %234, %230, !dbg !3548
  call void @llvm.dbg.value(metadata i32 %235, metadata !3311, metadata !DIExpression()), !dbg !3434
  call void @llvm.dbg.value(metadata i32 %230, metadata !3312, metadata !DIExpression()), !dbg !3434
  %236 = getelementptr inbounds %"struct.DirectIPLookup::Table", %"struct.DirectIPLookup::Table"* %0, i64 0, i32 0, !dbg !3549
  %237 = getelementptr inbounds %"struct.DirectIPLookup::Table", %"struct.DirectIPLookup::Table"* %0, i64 0, i32 5, !dbg !3554
  %238 = sext i32 %229 to i64, !dbg !3557
  %239 = trunc i32 %228 to i8, !dbg !3557
  %240 = icmp ugt i32 %9, 24, !dbg !3559
  %241 = and i32 %7, 255, !dbg !3562
  %242 = sub i32 32, %9, !dbg !3562
  %243 = shl nuw i32 1, %242, !dbg !3562
  %244 = add nuw i32 %243, %241, !dbg !3562
  %245 = select i1 %240, i32 %241, i32 0, !dbg !3562
  %246 = select i1 %240, i32 %244, i32 256, !dbg !3562
  %247 = getelementptr inbounds %"struct.DirectIPLookup::Table", %"struct.DirectIPLookup::Table"* %0, i64 0, i32 6, !dbg !3563
  %248 = getelementptr inbounds %"struct.DirectIPLookup::Table", %"struct.DirectIPLookup::Table"* %0, i64 0, i32 1, !dbg !3568
  %249 = getelementptr inbounds %"struct.DirectIPLookup::Table", %"struct.DirectIPLookup::Table"* %0, i64 0, i32 11, !dbg !3570
  br label %250, !dbg !3573

250:                                              ; preds = %227, %346
  %251 = phi i32 [ %230, %227 ], [ %348, %346 ]
  call void @llvm.dbg.value(metadata i32 %251, metadata !3312, metadata !DIExpression()), !dbg !3434
  %252 = load i16*, i16** %236, align 8, !dbg !3574, !tbaa !2438
  %253 = zext i32 %251 to i64, !dbg !3574
  %254 = getelementptr inbounds i16, i16* %252, i64 %253, !dbg !3574
  %255 = load i16, i16* %254, align 2, !dbg !3574, !tbaa !3089
  %256 = icmp slt i16 %255, 0, !dbg !3574
  br i1 %256, label %257, label %331, !dbg !3575

257:                                              ; preds = %250
  %258 = and i16 %255, 32767, !dbg !3576
  %259 = zext i16 %258 to i32, !dbg !3576
  %260 = shl nuw nsw i32 %259, 8, !dbg !3577
  call void @llvm.dbg.value(metadata i32 %260, metadata !3314, metadata !DIExpression()), !dbg !3434
  call void @llvm.dbg.value(metadata i32 %246, metadata !3316, metadata !DIExpression()), !dbg !3434
  call void @llvm.dbg.value(metadata i32 %245, metadata !3315, metadata !DIExpression()), !dbg !3434
  %261 = or i32 %260, %245, !dbg !3578
  call void @llvm.dbg.value(metadata i32 %261, metadata !3313, metadata !DIExpression()), !dbg !3434
  %262 = add i32 %260, %246, !dbg !3579
  %263 = icmp ult i32 %261, %262, !dbg !3580
  br i1 %263, label %264, label %294, !dbg !3581

264:                                              ; preds = %257, %290
  %265 = phi i32 [ %292, %290 ], [ %261, %257 ]
  call void @llvm.dbg.value(metadata i32 %265, metadata !3313, metadata !DIExpression()), !dbg !3434
  %266 = load i8*, i8** %247, align 8, !dbg !3582, !tbaa !2450
  %267 = zext i32 %265 to i64, !dbg !3582
  %268 = getelementptr inbounds i8, i8* %266, i64 %267, !dbg !3582
  %269 = load i8, i8* %268, align 1, !dbg !3582, !tbaa !2675
  %270 = zext i8 %269 to i32, !dbg !3582
  %271 = icmp eq i32 %9, %270, !dbg !3583
  br i1 %271, label %272, label %278, !dbg !3584

272:                                              ; preds = %264
  %273 = load %"struct.DirectIPLookup::CleartextEntry"*, %"struct.DirectIPLookup::CleartextEntry"** %42, align 8, !dbg !3585, !tbaa !2447
  %274 = getelementptr inbounds %"struct.DirectIPLookup::CleartextEntry", %"struct.DirectIPLookup::CleartextEntry"* %273, i64 %238, i32 4, !dbg !3586
  %275 = load i16, i16* %274, align 2, !dbg !3586, !tbaa !2613
  %276 = load i16*, i16** %248, align 8, !dbg !3587, !tbaa !2445
  %277 = getelementptr inbounds i16, i16* %276, i64 %267, !dbg !3587
  store i16 %275, i16* %277, align 2, !dbg !3588, !tbaa !3089
  store i8 %239, i8* %268, align 1, !dbg !3589, !tbaa !2675
  br label %290, !dbg !3590

278:                                              ; preds = %264
  %279 = icmp ult i32 %9, %270, !dbg !3591
  br i1 %279, label %280, label %350, !dbg !3593

280:                                              ; preds = %278
  %281 = icmp ugt i8 %269, 24, !dbg !3594
  br i1 %281, label %282, label %286, !dbg !3597

282:                                              ; preds = %280
  %283 = add nsw i32 %270, -24, !dbg !3598
  %284 = lshr i32 255, %283, !dbg !3600
  %285 = or i32 %284, %265, !dbg !3601
  call void @llvm.dbg.value(metadata i32 %285, metadata !3313, metadata !DIExpression()), !dbg !3434
  br label %290

286:                                              ; preds = %280
  %287 = zext i8 %269 to i32, !dbg !3582
  %288 = lshr i32 16777215, %287, !dbg !3602
  %289 = or i32 %288, %251, !dbg !3604
  call void @llvm.dbg.value(metadata i32 %289, metadata !3312, metadata !DIExpression()), !dbg !3434
  br label %294, !dbg !3605

290:                                              ; preds = %272, %282
  %291 = phi i32 [ %265, %272 ], [ %285, %282 ], !dbg !3606
  call void @llvm.dbg.value(metadata i32 %291, metadata !3313, metadata !DIExpression()), !dbg !3434
  %292 = add i32 %291, 1, !dbg !3607
  call void @llvm.dbg.value(metadata i32 %292, metadata !3313, metadata !DIExpression()), !dbg !3434
  %293 = icmp ult i32 %292, %262, !dbg !3580
  br i1 %293, label %264, label %294, !dbg !3581, !llvm.loop !3608

294:                                              ; preds = %290, %257, %286
  %295 = phi i32 [ %289, %286 ], [ %251, %257 ], [ %251, %290 ], !dbg !3610
  call void @llvm.dbg.value(metadata i32 %295, metadata !3312, metadata !DIExpression()), !dbg !3434
  call void @llvm.dbg.value(metadata i32 %260, metadata !3313, metadata !DIExpression()), !dbg !3434
  %296 = or i32 %260, 255, !dbg !3611
  %297 = and i16 %255, 32767, !dbg !3614
  %298 = zext i16 %297 to i64, !dbg !3614
  %299 = shl nuw nsw i64 %298, 8, !dbg !3614
  %300 = zext i32 %296 to i64, !dbg !3614
  br label %301, !dbg !3614

301:                                              ; preds = %304, %294
  %302 = phi i64 [ %308, %304 ], [ %299, %294 ], !dbg !3615
  call void @llvm.dbg.value(metadata i64 %302, metadata !3313, metadata !DIExpression()), !dbg !3434
  %303 = icmp ult i64 %302, %300, !dbg !3616
  br i1 %303, label %304, label %312, !dbg !3617

304:                                              ; preds = %301
  %305 = load i8*, i8** %247, align 8, !dbg !3618, !tbaa !2450
  %306 = getelementptr inbounds i8, i8* %305, i64 %302, !dbg !3618
  %307 = load i8, i8* %306, align 1, !dbg !3618, !tbaa !2675
  %308 = add nuw nsw i64 %302, 1, !dbg !3620
  %309 = getelementptr inbounds i8, i8* %305, i64 %308, !dbg !3621
  %310 = load i8, i8* %309, align 1, !dbg !3621, !tbaa !2675
  %311 = icmp eq i8 %307, %310, !dbg !3622
  br i1 %311, label %301, label %312, !dbg !3623, !llvm.loop !3624

312:                                              ; preds = %304, %301
  call void @llvm.dbg.value(metadata i64 %302, metadata !3313, metadata !DIExpression()), !dbg !3434
  call void @llvm.dbg.value(metadata i64 %302, metadata !3313, metadata !DIExpression()), !dbg !3434
  call void @llvm.dbg.value(metadata i64 %302, metadata !3313, metadata !DIExpression()), !dbg !3434
  call void @llvm.dbg.value(metadata i64 %302, metadata !3313, metadata !DIExpression()), !dbg !3434
  call void @llvm.dbg.value(metadata i64 %302, metadata !3313, metadata !DIExpression()), !dbg !3434
  call void @llvm.dbg.value(metadata i64 %302, metadata !3313, metadata !DIExpression()), !dbg !3434
  %313 = trunc i64 %302 to i32, !dbg !3617
  call void @llvm.dbg.value(metadata i32 %313, metadata !3313, metadata !DIExpression()), !dbg !3434
  call void @llvm.dbg.value(metadata i32 %313, metadata !3313, metadata !DIExpression()), !dbg !3434
  call void @llvm.dbg.value(metadata i32 %313, metadata !3313, metadata !DIExpression()), !dbg !3434
  call void @llvm.dbg.value(metadata i32 %313, metadata !3313, metadata !DIExpression()), !dbg !3434
  %314 = icmp eq i32 %296, %313, !dbg !3626
  br i1 %314, label %315, label %346, !dbg !3627

315:                                              ; preds = %312
  %316 = load i16*, i16** %248, align 8, !dbg !3628, !tbaa !2445
  %317 = zext i32 %260 to i64, !dbg !3628
  %318 = getelementptr inbounds i16, i16* %316, i64 %317, !dbg !3628
  %319 = load i16, i16* %318, align 2, !dbg !3628, !tbaa !3089
  %320 = load i16*, i16** %236, align 8, !dbg !3629, !tbaa !2438
  %321 = zext i32 %295 to i64, !dbg !3629
  %322 = getelementptr inbounds i16, i16* %320, i64 %321, !dbg !3629
  store i16 %319, i16* %322, align 2, !dbg !3630, !tbaa !3089
  %323 = load i8*, i8** %247, align 8, !dbg !3631, !tbaa !2450
  %324 = getelementptr inbounds i8, i8* %323, i64 %317, !dbg !3631
  %325 = load i8, i8* %324, align 1, !dbg !3631, !tbaa !2675
  %326 = load i8*, i8** %237, align 8, !dbg !3632, !tbaa !2449
  %327 = getelementptr inbounds i8, i8* %326, i64 %321, !dbg !3632
  store i8 %325, i8* %327, align 1, !dbg !3633, !tbaa !2675
  %328 = load i16, i16* %249, align 8, !dbg !3634, !tbaa !2545
  %329 = load i16*, i16** %248, align 8, !dbg !3635, !tbaa !2445
  %330 = getelementptr inbounds i16, i16* %329, i64 %317, !dbg !3635
  store i16 %328, i16* %330, align 2, !dbg !3636, !tbaa !3089
  store i16 %258, i16* %249, align 8, !dbg !3637, !tbaa !2545
  br label %346, !dbg !3638

331:                                              ; preds = %250
  %332 = load i8*, i8** %237, align 8, !dbg !3639, !tbaa !2449
  %333 = getelementptr inbounds i8, i8* %332, i64 %253, !dbg !3639
  %334 = load i8, i8* %333, align 1, !dbg !3639, !tbaa !2675
  %335 = zext i8 %334 to i32, !dbg !3639
  %336 = icmp eq i32 %9, %335, !dbg !3640
  br i1 %336, label %337, label %341, !dbg !3641

337:                                              ; preds = %331
  %338 = load %"struct.DirectIPLookup::CleartextEntry"*, %"struct.DirectIPLookup::CleartextEntry"** %42, align 8, !dbg !3642, !tbaa !2447
  %339 = getelementptr inbounds %"struct.DirectIPLookup::CleartextEntry", %"struct.DirectIPLookup::CleartextEntry"* %338, i64 %238, i32 4, !dbg !3643
  %340 = load i16, i16* %339, align 2, !dbg !3643, !tbaa !2613
  store i16 %340, i16* %254, align 2, !dbg !3644, !tbaa !3089
  store i8 %239, i8* %333, align 1, !dbg !3645, !tbaa !2675
  br label %346, !dbg !3646

341:                                              ; preds = %331
  %342 = icmp ult i32 %9, %335, !dbg !3647
  br i1 %342, label %343, label %346, !dbg !3649

343:                                              ; preds = %341
  %344 = lshr i32 16777215, %335, !dbg !3650
  %345 = or i32 %344, %251, !dbg !3652
  call void @llvm.dbg.value(metadata i32 %345, metadata !3312, metadata !DIExpression()), !dbg !3434
  br label %346, !dbg !3653

346:                                              ; preds = %315, %312, %341, %343, %337
  %347 = phi i32 [ %295, %315 ], [ %295, %312 ], [ %251, %337 ], [ %345, %343 ], [ %251, %341 ], !dbg !3610
  call void @llvm.dbg.value(metadata i32 %347, metadata !3312, metadata !DIExpression()), !dbg !3434
  %348 = add i32 %347, 1, !dbg !3654
  call void @llvm.dbg.value(metadata i32 %348, metadata !3312, metadata !DIExpression()), !dbg !3434
  %349 = icmp ult i32 %348, %235, !dbg !3655
  br i1 %349, label %250, label %352, !dbg !3573, !llvm.loop !3656

350:                                              ; preds = %278
  call void @llvm.dbg.value(metadata i32 %265, metadata !3313, metadata !DIExpression()), !dbg !3434
  call void @llvm.dbg.value(metadata i32 %265, metadata !3313, metadata !DIExpression()), !dbg !3434
  call void @llvm.dbg.value(metadata i32 %265, metadata !3313, metadata !DIExpression()), !dbg !3434
  call void @llvm.dbg.value(metadata i32 %265, metadata !3313, metadata !DIExpression()), !dbg !3434
  call void @llvm.dbg.value(metadata i32 %265, metadata !3313, metadata !DIExpression()), !dbg !3434
  call void @llvm.dbg.value(metadata i32 %265, metadata !3313, metadata !DIExpression()), !dbg !3434
  %351 = tail call i32 (%class.ErrorHandler*, i8*, ...) @_ZN12ErrorHandler5errorEPKcz(%class.ErrorHandler* %3, i8* getelementptr inbounds ([36 x i8], [36 x i8]* @.str.6, i64 0, i64 0), i32 %265), !dbg !3658
  br label %352

352:                                              ; preds = %55, %346, %91, %68, %83, %4, %110, %350, %62, %108
  %353 = phi i32 [ %109, %108 ], [ %351, %350 ], [ -2, %62 ], [ 0, %110 ], [ -2, %4 ], [ -2, %83 ], [ -2, %68 ], [ -2, %91 ], [ 0, %346 ], [ -2, %55 ], !dbg !3321
  ret i32 %353, !dbg !3660
}

; Function Attrs: sspstrong uwtable
define dso_local void @_ZN14DirectIPLookupC2Ev(%class.DirectIPLookup* %0) unnamed_addr #0 align 2 personality i8* bitcast (i32 (...)* @__gxx_personality_v0 to i8*) !dbg !3661 {
  call void @llvm.dbg.value(metadata %class.DirectIPLookup* %0, metadata !3663, metadata !DIExpression()), !dbg !3664
  call void @llvm.dbg.value(metadata %class.DirectIPLookup* %0, metadata !3665, metadata !DIExpression()), !dbg !3673
  %2 = bitcast %class.DirectIPLookup* %0 to %class.Element*, !dbg !3675
  tail call void @_ZN7ElementC2Ev(%class.Element* %2), !dbg !3675
  %3 = getelementptr %class.DirectIPLookup, %class.DirectIPLookup* %0, i64 0, i32 0, i32 0, i32 0, !dbg !3676
  store i32 (...)** bitcast (i8** getelementptr inbounds ({ [33 x i8*] }, { [33 x i8*] }* @_ZTV14DirectIPLookup, i64 0, inrange i32 0, i64 2) to i32 (...)**), i32 (...)*** %3, align 8, !dbg !3676, !tbaa !3677
  %4 = getelementptr inbounds %class.DirectIPLookup, %class.DirectIPLookup* %0, i64 0, i32 1, !dbg !3679
  call void @llvm.dbg.value(metadata %"struct.DirectIPLookup::Table"* %4, metadata !3680, metadata !DIExpression()) #17, !dbg !3683
  %5 = bitcast %"struct.DirectIPLookup::Table"* %4 to i8*, !dbg !3685
  tail call void @llvm.memset.p0i8.i64(i8* nonnull align 8 dereferenceable(56) %5, i8 0, i64 56, i1 false) #17, !dbg !3686
  ret void, !dbg !3687
}

; Function Attrs: nounwind
declare void @_ZN7ElementD2Ev(%class.Element*) unnamed_addr #10

; Function Attrs: nounwind sspstrong uwtable
define dso_local void @_ZN14DirectIPLookupD2Ev(%class.DirectIPLookup* %0) unnamed_addr #4 align 2 personality i32 (...)* @__gxx_personality_v0 !dbg !3688 {
  call void @llvm.dbg.value(metadata %class.DirectIPLookup* %0, metadata !3690, metadata !DIExpression()), !dbg !3691
  %2 = getelementptr %class.DirectIPLookup, %class.DirectIPLookup* %0, i64 0, i32 0, i32 0, i32 0, !dbg !3692
  store i32 (...)** bitcast (i8** getelementptr inbounds ({ [33 x i8*] }, { [33 x i8*] }* @_ZTV14DirectIPLookup, i64 0, inrange i32 0, i64 2) to i32 (...)**), i32 (...)*** %2, align 8, !dbg !3692, !tbaa !3677
  %3 = getelementptr inbounds %class.DirectIPLookup, %class.DirectIPLookup* %0, i64 0, i32 1, !dbg !3693
  call void @llvm.dbg.value(metadata %"struct.DirectIPLookup::Table"* %3, metadata !3695, metadata !DIExpression()) #17, !dbg !3698
  call void @llvm.dbg.value(metadata %"struct.DirectIPLookup::Table"* %3, metadata !2479, metadata !DIExpression()) #17, !dbg !3700
  %4 = bitcast %"struct.DirectIPLookup::Table"* %3 to i8**, !dbg !3703
  %5 = load i8*, i8** %4, align 8, !dbg !3703, !tbaa !2438
  %6 = icmp eq i8* %5, null, !dbg !3703
  br i1 %6, label %8, label %7, !dbg !3703

7:                                                ; preds = %1
  tail call void @_ZdaPv(i8* nonnull %5) #16, !dbg !3703
  br label %8, !dbg !3703

8:                                                ; preds = %7, %1
  %9 = getelementptr inbounds %class.DirectIPLookup, %class.DirectIPLookup* %0, i64 0, i32 1, i32 1, !dbg !3704
  %10 = bitcast i16** %9 to i8**, !dbg !3704
  %11 = load i8*, i8** %10, align 8, !dbg !3704, !tbaa !2445
  %12 = icmp eq i8* %11, null, !dbg !3704
  br i1 %12, label %14, label %13, !dbg !3704

13:                                               ; preds = %8
  tail call void @_ZdaPv(i8* nonnull %11) #16, !dbg !3704
  br label %14, !dbg !3704

14:                                               ; preds = %13, %8
  %15 = getelementptr inbounds %class.DirectIPLookup, %class.DirectIPLookup* %0, i64 0, i32 1, i32 2, !dbg !3705
  %16 = bitcast %"struct.DirectIPLookup::VirtualPort"** %15 to i8**, !dbg !3705
  %17 = load i8*, i8** %16, align 8, !dbg !3705, !tbaa !2446
  %18 = icmp eq i8* %17, null, !dbg !3705
  br i1 %18, label %20, label %19, !dbg !3705

19:                                               ; preds = %14
  tail call void @_ZdaPv(i8* nonnull %17) #16, !dbg !3705
  br label %20, !dbg !3705

20:                                               ; preds = %19, %14
  %21 = getelementptr inbounds %class.DirectIPLookup, %class.DirectIPLookup* %0, i64 0, i32 1, i32 3, !dbg !3706
  %22 = bitcast %"struct.DirectIPLookup::CleartextEntry"** %21 to i8**, !dbg !3706
  %23 = load i8*, i8** %22, align 8, !dbg !3706, !tbaa !2447
  %24 = icmp eq i8* %23, null, !dbg !3706
  br i1 %24, label %26, label %25, !dbg !3706

25:                                               ; preds = %20
  tail call void @_ZdaPv(i8* nonnull %23) #16, !dbg !3706
  br label %26, !dbg !3706

26:                                               ; preds = %25, %20
  %27 = getelementptr inbounds %class.DirectIPLookup, %class.DirectIPLookup* %0, i64 0, i32 1, i32 4, !dbg !3707
  %28 = bitcast i32** %27 to i8**, !dbg !3707
  %29 = load i8*, i8** %28, align 8, !dbg !3707, !tbaa !2448
  %30 = icmp eq i8* %29, null, !dbg !3707
  br i1 %30, label %32, label %31, !dbg !3707

31:                                               ; preds = %26
  tail call void @_ZdaPv(i8* nonnull %29) #16, !dbg !3707
  br label %32, !dbg !3707

32:                                               ; preds = %26, %31
  %33 = bitcast %"struct.DirectIPLookup::Table"* %3 to i8*, !dbg !3708
  tail call void @llvm.memset.p0i8.i64(i8* nonnull align 8 dereferenceable(56) %33, i8 0, i64 56, i1 false) #17, !dbg !3709
  %34 = bitcast %class.DirectIPLookup* %0 to %class.Element*, !dbg !3693
  tail call void @_ZN7ElementD2Ev(%class.Element* %34) #17, !dbg !3693
  ret void, !dbg !3710
}

; Function Attrs: nounwind sspstrong uwtable
define dso_local void @_ZN14DirectIPLookupD0Ev(%class.DirectIPLookup* %0) unnamed_addr #4 align 2 !dbg !3711 {
  call void @llvm.dbg.value(metadata %class.DirectIPLookup* %0, metadata !3713, metadata !DIExpression()), !dbg !3714
  tail call void @_ZN14DirectIPLookupD2Ev(%class.DirectIPLookup* %0) #17, !dbg !3715
  %2 = bitcast %class.DirectIPLookup* %0 to i8*, !dbg !3715
  tail call void @_ZdlPv(i8* %2) #16, !dbg !3715
  ret void, !dbg !3716
}

; Function Attrs: nobuiltin nounwind
declare void @_ZdlPv(i8*) local_unnamed_addr #5

; Function Attrs: sspstrong uwtable
define dso_local i32 @_ZN14DirectIPLookup9configureER6VectorI6StringEP12ErrorHandler(%class.DirectIPLookup* %0, %class.Vector.0* dereferenceable(16) %1, %class.ErrorHandler* %2) unnamed_addr #0 align 2 !dbg !3717 {
  call void @llvm.dbg.value(metadata %class.DirectIPLookup* %0, metadata !3719, metadata !DIExpression()), !dbg !3723
  call void @llvm.dbg.value(metadata %class.Vector.0* %1, metadata !3720, metadata !DIExpression()), !dbg !3723
  call void @llvm.dbg.value(metadata %class.ErrorHandler* %2, metadata !3721, metadata !DIExpression()), !dbg !3723
  %4 = getelementptr inbounds %class.DirectIPLookup, %class.DirectIPLookup* %0, i64 0, i32 1, !dbg !3724
  %5 = tail call i32 @_ZN14DirectIPLookup5Table10initializeEv(%"struct.DirectIPLookup::Table"* nonnull %4), !dbg !3726
  call void @llvm.dbg.value(metadata i32 %5, metadata !3722, metadata !DIExpression()), !dbg !3723
  %6 = icmp slt i32 %5, 0, !dbg !3727
  br i1 %6, label %36, label %7, !dbg !3728

7:                                                ; preds = %3
  call void @llvm.dbg.value(metadata %"struct.DirectIPLookup::Table"* %4, metadata !2490, metadata !DIExpression()) #17, !dbg !3729
  %8 = getelementptr inbounds %class.DirectIPLookup, %class.DirectIPLookup* %0, i64 0, i32 1, i32 4, !dbg !3731
  %9 = bitcast i32** %8 to i8**, !dbg !3731
  %10 = load i8*, i8** %9, align 8, !dbg !3731, !tbaa !2448
  tail call void @llvm.memset.p0i8.i64(i8* nonnull align 4 dereferenceable(262144) %10, i8 -1, i64 262144, i1 false) #17, !dbg !3732
  %11 = getelementptr inbounds %class.DirectIPLookup, %class.DirectIPLookup* %0, i64 0, i32 1, i32 12, !dbg !3733
  store i32 0, i32* %11, align 4, !dbg !3734, !tbaa !2496
  %12 = getelementptr inbounds %class.DirectIPLookup, %class.DirectIPLookup* %0, i64 0, i32 1, i32 2, !dbg !3735
  %13 = load %"struct.DirectIPLookup::VirtualPort"*, %"struct.DirectIPLookup::VirtualPort"** %12, align 8, !dbg !3735, !tbaa !2446
  %14 = getelementptr inbounds %"struct.DirectIPLookup::VirtualPort", %"struct.DirectIPLookup::VirtualPort"* %13, i64 0, i32 1, !dbg !3736
  store i16 -1, i16* %14, align 2, !dbg !3737, !tbaa !2500
  %15 = getelementptr inbounds %"struct.DirectIPLookup::VirtualPort", %"struct.DirectIPLookup::VirtualPort"* %13, i64 0, i32 0, !dbg !3738
  store i16 -1, i16* %15, align 4, !dbg !3739, !tbaa !2505
  %16 = getelementptr inbounds %"struct.DirectIPLookup::VirtualPort", %"struct.DirectIPLookup::VirtualPort"* %13, i64 0, i32 2, !dbg !3740
  store i32 1, i32* %16, align 4, !dbg !3741, !tbaa !2508
  %17 = getelementptr inbounds %"struct.DirectIPLookup::VirtualPort", %"struct.DirectIPLookup::VirtualPort"* %13, i64 0, i32 3, i32 0, !dbg !3742
  store i32 0, i32* %17, align 4, !dbg !3742, !tbaa !2510
  %18 = getelementptr inbounds %"struct.DirectIPLookup::VirtualPort", %"struct.DirectIPLookup::VirtualPort"* %13, i64 0, i32 4, !dbg !3743
  store i16 -1, i16* %18, align 4, !dbg !3744, !tbaa !2513
  %19 = getelementptr inbounds %class.DirectIPLookup, %class.DirectIPLookup* %0, i64 0, i32 1, i32 9, !dbg !3745
  store i32 1, i32* %19, align 8, !dbg !3746, !tbaa !2516
  %20 = getelementptr inbounds %class.DirectIPLookup, %class.DirectIPLookup* %0, i64 0, i32 1, i32 13, !dbg !3747
  store i32 -1, i32* %20, align 8, !dbg !3748, !tbaa !2519
  %21 = load i32*, i32** %8, align 8, !dbg !3749, !tbaa !2448
  store i32 0, i32* %21, align 4, !dbg !3750, !tbaa !2510
  %22 = getelementptr inbounds %class.DirectIPLookup, %class.DirectIPLookup* %0, i64 0, i32 1, i32 3, !dbg !3751
  %23 = load %"struct.DirectIPLookup::CleartextEntry"*, %"struct.DirectIPLookup::CleartextEntry"** %22, align 8, !dbg !3751, !tbaa !2447
  %24 = getelementptr inbounds %"struct.DirectIPLookup::CleartextEntry", %"struct.DirectIPLookup::CleartextEntry"* %23, i64 0, i32 1, !dbg !3752
  store i32 -1, i32* %24, align 4, !dbg !3753, !tbaa !2525
  %25 = getelementptr inbounds %"struct.DirectIPLookup::CleartextEntry", %"struct.DirectIPLookup::CleartextEntry"* %23, i64 0, i32 0, !dbg !3754
  store i32 -1, i32* %25, align 4, !dbg !3755, !tbaa !2529
  %26 = getelementptr inbounds %"struct.DirectIPLookup::CleartextEntry", %"struct.DirectIPLookup::CleartextEntry"* %23, i64 0, i32 2, !dbg !3756
  %27 = getelementptr inbounds %class.DirectIPLookup, %class.DirectIPLookup* %0, i64 0, i32 1, i32 7, !dbg !3757
  %28 = bitcast i32* %26 to i64*, !dbg !3758
  store i64 0, i64* %28, align 4, !dbg !3758
  store i32 1, i32* %27, align 8, !dbg !3759, !tbaa !2534
  %29 = getelementptr inbounds %class.DirectIPLookup, %class.DirectIPLookup* %0, i64 0, i32 1, i32 10, !dbg !3760
  store i32 -1, i32* %29, align 4, !dbg !3761, !tbaa !2537
  %30 = bitcast %"struct.DirectIPLookup::Table"* %4 to i8**, !dbg !3762
  %31 = load i8*, i8** %30, align 8, !dbg !3762, !tbaa !2438
  tail call void @llvm.memset.p0i8.i64(i8* nonnull align 2 dereferenceable(50331648) %31, i8 0, i64 50331648, i1 false) #17, !dbg !3763
  %32 = getelementptr inbounds %class.DirectIPLookup, %class.DirectIPLookup* %0, i64 0, i32 1, i32 8, !dbg !3764
  store i32 0, i32* %32, align 4, !dbg !3765, !tbaa !2542
  %33 = getelementptr inbounds %class.DirectIPLookup, %class.DirectIPLookup* %0, i64 0, i32 1, i32 11, !dbg !3766
  store i16 -32768, i16* %33, align 8, !dbg !3767, !tbaa !2545
  %34 = bitcast %class.DirectIPLookup* %0 to %class.IPRouteTable*, !dbg !3768
  %35 = tail call i32 @_ZN12IPRouteTable9configureER6VectorI6StringEP12ErrorHandler(%class.IPRouteTable* %34, %class.Vector.0* nonnull dereferenceable(16) %1, %class.ErrorHandler* %2), !dbg !3768
  br label %36, !dbg !3769

36:                                               ; preds = %3, %7
  %37 = phi i32 [ %35, %7 ], [ %5, %3 ], !dbg !3723
  ret i32 %37, !dbg !3770
}

declare i32 @_ZN12IPRouteTable9configureER6VectorI6StringEP12ErrorHandler(%class.IPRouteTable*, %class.Vector.0* dereferenceable(16), %class.ErrorHandler*) unnamed_addr #7

; Function Attrs: nounwind sspstrong uwtable
define dso_local void @_ZN14DirectIPLookup7cleanupEN7Element12CleanupStageE(%class.DirectIPLookup* nocapture %0, i32 %1) unnamed_addr #4 align 2 !dbg !3771 {
  call void @llvm.dbg.value(metadata %class.DirectIPLookup* %0, metadata !3773, metadata !DIExpression()), !dbg !3775
  call void @llvm.dbg.value(metadata i32 undef, metadata !3774, metadata !DIExpression()), !dbg !3775
  %3 = getelementptr inbounds %class.DirectIPLookup, %class.DirectIPLookup* %0, i64 0, i32 1, !dbg !3776
  call void @llvm.dbg.value(metadata %"struct.DirectIPLookup::Table"* %3, metadata !2479, metadata !DIExpression()) #17, !dbg !3777
  %4 = bitcast %"struct.DirectIPLookup::Table"* %3 to i8**, !dbg !3779
  %5 = load i8*, i8** %4, align 8, !dbg !3779, !tbaa !2438
  %6 = icmp eq i8* %5, null, !dbg !3779
  br i1 %6, label %8, label %7, !dbg !3779

7:                                                ; preds = %2
  tail call void @_ZdaPv(i8* nonnull %5) #16, !dbg !3779
  br label %8, !dbg !3779

8:                                                ; preds = %7, %2
  %9 = getelementptr inbounds %class.DirectIPLookup, %class.DirectIPLookup* %0, i64 0, i32 1, i32 1, !dbg !3780
  %10 = bitcast i16** %9 to i8**, !dbg !3780
  %11 = load i8*, i8** %10, align 8, !dbg !3780, !tbaa !2445
  %12 = icmp eq i8* %11, null, !dbg !3780
  br i1 %12, label %14, label %13, !dbg !3780

13:                                               ; preds = %8
  tail call void @_ZdaPv(i8* nonnull %11) #16, !dbg !3780
  br label %14, !dbg !3780

14:                                               ; preds = %13, %8
  %15 = getelementptr inbounds %class.DirectIPLookup, %class.DirectIPLookup* %0, i64 0, i32 1, i32 2, !dbg !3781
  %16 = bitcast %"struct.DirectIPLookup::VirtualPort"** %15 to i8**, !dbg !3781
  %17 = load i8*, i8** %16, align 8, !dbg !3781, !tbaa !2446
  %18 = icmp eq i8* %17, null, !dbg !3781
  br i1 %18, label %20, label %19, !dbg !3781

19:                                               ; preds = %14
  tail call void @_ZdaPv(i8* nonnull %17) #16, !dbg !3781
  br label %20, !dbg !3781

20:                                               ; preds = %19, %14
  %21 = getelementptr inbounds %class.DirectIPLookup, %class.DirectIPLookup* %0, i64 0, i32 1, i32 3, !dbg !3782
  %22 = bitcast %"struct.DirectIPLookup::CleartextEntry"** %21 to i8**, !dbg !3782
  %23 = load i8*, i8** %22, align 8, !dbg !3782, !tbaa !2447
  %24 = icmp eq i8* %23, null, !dbg !3782
  br i1 %24, label %26, label %25, !dbg !3782

25:                                               ; preds = %20
  tail call void @_ZdaPv(i8* nonnull %23) #16, !dbg !3782
  br label %26, !dbg !3782

26:                                               ; preds = %25, %20
  %27 = getelementptr inbounds %class.DirectIPLookup, %class.DirectIPLookup* %0, i64 0, i32 1, i32 4, !dbg !3783
  %28 = bitcast i32** %27 to i8**, !dbg !3783
  %29 = load i8*, i8** %28, align 8, !dbg !3783, !tbaa !2448
  %30 = icmp eq i8* %29, null, !dbg !3783
  br i1 %30, label %32, label %31, !dbg !3783

31:                                               ; preds = %26
  tail call void @_ZdaPv(i8* nonnull %29) #16, !dbg !3783
  br label %32, !dbg !3783

32:                                               ; preds = %26, %31
  %33 = bitcast %"struct.DirectIPLookup::Table"* %3 to i8*, !dbg !3784
  tail call void @llvm.memset.p0i8.i64(i8* nonnull align 8 dereferenceable(56) %33, i8 0, i64 56, i1 false) #17, !dbg !3785
  ret void, !dbg !3786
}

; Function Attrs: sspstrong uwtable
define dso_local void @_ZN14DirectIPLookup4pushEiP6Packet(%class.DirectIPLookup* %0, i32 %1, %class.Packet* %2) unnamed_addr #0 align 2 !dbg !3787 {
  %4 = alloca %class.IPAddress, align 4
  call void @llvm.dbg.value(metadata %class.DirectIPLookup* %0, metadata !3789, metadata !DIExpression()), !dbg !3794
  call void @llvm.dbg.value(metadata i32 undef, metadata !3790, metadata !DIExpression()), !dbg !3794
  call void @llvm.dbg.value(metadata %class.Packet* %2, metadata !3791, metadata !DIExpression()), !dbg !3794
  %5 = bitcast %class.IPAddress* %4 to i8*, !dbg !3795
  call void @llvm.lifetime.start.p0i8(i64 4, i8* nonnull %5) #17, !dbg !3795
  call void @llvm.dbg.declare(metadata %class.IPAddress* %4, metadata !3792, metadata !DIExpression()), !dbg !3796
  call void @llvm.dbg.value(metadata %class.IPAddress* %4, metadata !3797, metadata !DIExpression()), !dbg !3801
  %6 = getelementptr inbounds %class.IPAddress, %class.IPAddress* %4, i64 0, i32 0, !dbg !3803
  store i32 0, i32* %6, align 4, !dbg !3803, !tbaa !2927
  call void @llvm.dbg.value(metadata %class.Packet* %2, metadata !3804, metadata !DIExpression()), !dbg !3807
  %7 = tail call %"union.Packet::Anno"* @_ZNK6Packet5xannoEv(%class.Packet* %2), !dbg !3809
  %8 = bitcast %"union.Packet::Anno"* %7 to i32*, !dbg !3809
  %9 = load i32, i32* %8, align 8, !dbg !3809, !tbaa !2675
  %10 = bitcast %class.DirectIPLookup* %0 to i32 (%class.DirectIPLookup*, i32, %class.IPAddress*)***, !dbg !3810
  %11 = load i32 (%class.DirectIPLookup*, i32, %class.IPAddress*)**, i32 (%class.DirectIPLookup*, i32, %class.IPAddress*)*** %10, align 8, !dbg !3810, !tbaa !3677
  %12 = getelementptr inbounds i32 (%class.DirectIPLookup*, i32, %class.IPAddress*)*, i32 (%class.DirectIPLookup*, i32, %class.IPAddress*)** %11, i64 29, !dbg !3810
  %13 = load i32 (%class.DirectIPLookup*, i32, %class.IPAddress*)*, i32 (%class.DirectIPLookup*, i32, %class.IPAddress*)** %12, align 8, !dbg !3810
  %14 = call i32 %13(%class.DirectIPLookup* %0, i32 %9, %class.IPAddress* nonnull dereferenceable(4) %4), !dbg !3810
  call void @llvm.dbg.value(metadata i32 %14, metadata !3793, metadata !DIExpression()), !dbg !3794
  %15 = icmp sgt i32 %14, -1, !dbg !3811
  br i1 %15, label %16, label %23, !dbg !3813

16:                                               ; preds = %3
  call void @llvm.dbg.value(metadata %class.IPAddress* %4, metadata !3814, metadata !DIExpression()), !dbg !3817
  %17 = load i32, i32* %6, align 4, !dbg !3821, !tbaa !2927
  %18 = icmp eq i32 %17, 0, !dbg !3822
  br i1 %18, label %20, label %19, !dbg !3823

19:                                               ; preds = %16
  call void @_ZN6Packet15set_dst_ip_annoE9IPAddress(%class.Packet* %2, i32 %17), !dbg !3824
  br label %20, !dbg !3825

20:                                               ; preds = %16, %19
  %21 = bitcast %class.DirectIPLookup* %0 to %class.Element*, !dbg !3826
  %22 = call dereferenceable(16) %"class.Element::Port"* @_ZNK7Element6outputEi(%class.Element* %21, i32 %14), !dbg !3826
  call void @_ZNK7Element4Port4pushEP6Packet(%"class.Element::Port"* nonnull %22, %class.Packet* %2), !dbg !3827
  br label %24, !dbg !3828

23:                                               ; preds = %3
  call void @_ZN6Packet4killEv(%class.Packet* %2), !dbg !3829
  br label %24

24:                                               ; preds = %23, %20
  call void @llvm.lifetime.end.p0i8(i64 4, i8* nonnull %5) #17, !dbg !3830
  ret void, !dbg !3830
}

declare void @_ZN6Packet15set_dst_ip_annoE9IPAddress(%class.Packet*, i32) local_unnamed_addr #7

; Function Attrs: noinline optnone sspstrong uwtable
define linkonce_odr dso_local dereferenceable(16) %"class.Element::Port"* @_ZNK7Element6outputEi(%class.Element* %0, i32 %1) local_unnamed_addr #11 comdat align 2 !dbg !3831 {
  %3 = alloca %class.Element*, align 8
  %4 = alloca i32, align 4
  store %class.Element* %0, %class.Element** %3, align 8, !tbaa !3873
  call void @llvm.dbg.declare(metadata %class.Element** %3, metadata !3870, metadata !DIExpression()), !dbg !3874
  store i32 %1, i32* %4, align 4, !tbaa !2510
  call void @llvm.dbg.declare(metadata i32* %4, metadata !3872, metadata !DIExpression()), !dbg !3875
  %5 = load %class.Element*, %class.Element** %3, align 8
  %6 = load i32, i32* %4, align 4, !dbg !3876, !tbaa !2510
  %7 = call dereferenceable(16) %"class.Element::Port"* @_ZNK7Element4portEbi(%class.Element* %5, i1 zeroext true, i32 %6), !dbg !3877
  ret %"class.Element::Port"* %7, !dbg !3878
}

; Function Attrs: noinline optnone sspstrong uwtable
define linkonce_odr dso_local void @_ZNK7Element4Port4pushEP6Packet(%"class.Element::Port"* %0, %class.Packet* %1) local_unnamed_addr #11 comdat align 2 !dbg !3879 {
  %3 = alloca %"class.Element::Port"*, align 8
  %4 = alloca %class.Packet*, align 8
  store %"class.Element::Port"* %0, %"class.Element::Port"** %3, align 8, !tbaa !3873
  call void @llvm.dbg.declare(metadata %"class.Element::Port"** %3, metadata !3881, metadata !DIExpression()), !dbg !3884
  store %class.Packet* %1, %class.Packet** %4, align 8, !tbaa !3873
  call void @llvm.dbg.declare(metadata %class.Packet** %4, metadata !3883, metadata !DIExpression()), !dbg !3885
  %5 = load %"class.Element::Port"*, %"class.Element::Port"** %3, align 8
  %6 = getelementptr inbounds %"class.Element::Port", %"class.Element::Port"* %5, i32 0, i32 0, !dbg !3886
  %7 = load %class.Element*, %class.Element** %6, align 8, !dbg !3886, !tbaa !3887
  %8 = icmp ne %class.Element* %7, null, !dbg !3886
  br i1 %8, label %9, label %12, !dbg !3886

9:                                                ; preds = %2
  %10 = load %class.Packet*, %class.Packet** %4, align 8, !dbg !3886, !tbaa !3873
  %11 = icmp ne %class.Packet* %10, null, !dbg !3886
  br label %12

12:                                               ; preds = %9, %2
  %13 = phi i1 [ false, %2 ], [ %11, %9 ], !dbg !3884
  br i1 %13, label %14, label %15, !dbg !3886

14:                                               ; preds = %12
  br label %16, !dbg !3886

15:                                               ; preds = %12
  call void @__assert_fail(i8* getelementptr inbounds ([8 x i8], [8 x i8]* @.str.10, i64 0, i64 0), i8* getelementptr inbounds ([30 x i8], [30 x i8]* @.str.9, i64 0, i64 0), i32 611, i8* getelementptr inbounds ([41 x i8], [41 x i8]* @__PRETTY_FUNCTION__._ZNK7Element4Port4pushEP6Packet, i64 0, i64 0)) #14, !dbg !3886
  unreachable, !dbg !3886

16:                                               ; preds = %14
  %17 = getelementptr inbounds %"class.Element::Port", %"class.Element::Port"* %5, i32 0, i32 0, !dbg !3889
  %18 = load %class.Element*, %class.Element** %17, align 8, !dbg !3889, !tbaa !3887
  %19 = getelementptr inbounds %"class.Element::Port", %"class.Element::Port"* %5, i32 0, i32 1, !dbg !3890
  %20 = load i32, i32* %19, align 8, !dbg !3890, !tbaa !3891
  %21 = load %class.Packet*, %class.Packet** %4, align 8, !dbg !3892, !tbaa !3873
  %22 = bitcast %class.Element* %18 to void (%class.Element*, i32, %class.Packet*)***, !dbg !3893
  %23 = load void (%class.Element*, i32, %class.Packet*)**, void (%class.Element*, i32, %class.Packet*)*** %22, align 8, !dbg !3893, !tbaa !3677
  %24 = getelementptr inbounds void (%class.Element*, i32, %class.Packet*)*, void (%class.Element*, i32, %class.Packet*)** %23, i64 2, !dbg !3893
  %25 = load void (%class.Element*, i32, %class.Packet*)*, void (%class.Element*, i32, %class.Packet*)** %24, align 8, !dbg !3893
  call void %25(%class.Element* %18, i32 %20, %class.Packet* %21), !dbg !3893
  ret void, !dbg !3894
}

declare void @_ZN6Packet4killEv(%class.Packet*) local_unnamed_addr #7

; Function Attrs: nofree nounwind sspstrong uwtable
define dso_local i32 @_ZNK14DirectIPLookup12lookup_routeE9IPAddressRS0_(%class.DirectIPLookup* nocapture readonly %0, i32 %1, %class.IPAddress* nocapture dereferenceable(4) %2) unnamed_addr #12 align 2 !dbg !3895 {
  call void @llvm.dbg.value(metadata i32 %1, metadata !3899, metadata !DIExpression()), !dbg !3903
  call void @llvm.dbg.value(metadata %class.DirectIPLookup* %0, metadata !3897, metadata !DIExpression()), !dbg !3903
  call void @llvm.dbg.value(metadata %class.IPAddress* %2, metadata !3900, metadata !DIExpression()), !dbg !3903
  call void @llvm.dbg.value(metadata i32 %1, metadata !2621, metadata !DIExpression()) #17, !dbg !3904
  %4 = tail call i32 @llvm.bswap.i32(i32 %1) #17, !dbg !3906
  call void @llvm.dbg.value(metadata i32 %4, metadata !3901, metadata !DIExpression()), !dbg !3903
  %5 = getelementptr inbounds %class.DirectIPLookup, %class.DirectIPLookup* %0, i64 0, i32 1, i32 0, !dbg !3907
  %6 = load i16*, i16** %5, align 8, !dbg !3907, !tbaa !3908
  %7 = lshr i32 %4, 8, !dbg !3910
  %8 = zext i32 %7 to i64, !dbg !3911
  %9 = getelementptr inbounds i16, i16* %6, i64 %8, !dbg !3911
  %10 = load i16, i16* %9, align 2, !dbg !3911, !tbaa !3089
  call void @llvm.dbg.value(metadata i16 %10, metadata !3902, metadata !DIExpression()), !dbg !3903
  %11 = icmp slt i16 %10, 0, !dbg !3912
  br i1 %11, label %12, label %23, !dbg !3914

12:                                               ; preds = %3
  %13 = getelementptr inbounds %class.DirectIPLookup, %class.DirectIPLookup* %0, i64 0, i32 1, i32 1, !dbg !3915
  %14 = load i16*, i16** %13, align 8, !dbg !3915, !tbaa !3916
  %15 = and i16 %10, 32767, !dbg !3917
  %16 = zext i16 %15 to i32, !dbg !3917
  %17 = shl nuw nsw i32 %16, 8, !dbg !3918
  %18 = and i32 %4, 255, !dbg !3919
  %19 = or i32 %17, %18, !dbg !3920
  %20 = zext i32 %19 to i64, !dbg !3921
  %21 = getelementptr inbounds i16, i16* %14, i64 %20, !dbg !3921
  %22 = load i16, i16* %21, align 2, !dbg !3921, !tbaa !3089
  call void @llvm.dbg.value(metadata i16 %22, metadata !3902, metadata !DIExpression()), !dbg !3903
  br label %23, !dbg !3922

23:                                               ; preds = %12, %3
  %24 = phi i16 [ %22, %12 ], [ %10, %3 ], !dbg !3903
  call void @llvm.dbg.value(metadata i16 %24, metadata !3902, metadata !DIExpression()), !dbg !3903
  %25 = getelementptr inbounds %class.DirectIPLookup, %class.DirectIPLookup* %0, i64 0, i32 1, i32 2, !dbg !3923
  %26 = load %"struct.DirectIPLookup::VirtualPort"*, %"struct.DirectIPLookup::VirtualPort"** %25, align 8, !dbg !3923, !tbaa !3924
  %27 = zext i16 %24 to i64, !dbg !3925
  %28 = getelementptr inbounds %"struct.DirectIPLookup::VirtualPort", %"struct.DirectIPLookup::VirtualPort"* %26, i64 %27, i32 3, i32 0, !dbg !3926
  %29 = getelementptr inbounds %class.IPAddress, %class.IPAddress* %2, i64 0, i32 0, !dbg !3926
  %30 = load i32, i32* %28, align 4, !dbg !3926, !tbaa !2510
  store i32 %30, i32* %29, align 4, !dbg !3926, !tbaa !2510
  %31 = getelementptr inbounds %"struct.DirectIPLookup::VirtualPort", %"struct.DirectIPLookup::VirtualPort"* %26, i64 %27, i32 4, !dbg !3927
  %32 = load i16, i16* %31, align 4, !dbg !3927, !tbaa !2513
  %33 = sext i16 %32 to i32, !dbg !3928
  ret i32 %33, !dbg !3929
}

; Function Attrs: sspstrong uwtable
define dso_local i32 @_ZN14DirectIPLookup9add_routeERK7IPRoutebPS0_P12ErrorHandler(%class.DirectIPLookup* %0, %struct.IPRoute* dereferenceable(20) %1, i1 zeroext %2, %struct.IPRoute* %3, %class.ErrorHandler* %4) unnamed_addr #0 align 2 !dbg !3930 {
  call void @llvm.dbg.value(metadata %class.DirectIPLookup* %0, metadata !3932, metadata !DIExpression()), !dbg !3937
  call void @llvm.dbg.value(metadata %struct.IPRoute* %1, metadata !3933, metadata !DIExpression()), !dbg !3937
  call void @llvm.dbg.value(metadata i1 %2, metadata !3934, metadata !DIExpression()), !dbg !3937
  call void @llvm.dbg.value(metadata %struct.IPRoute* %3, metadata !3935, metadata !DIExpression()), !dbg !3937
  call void @llvm.dbg.value(metadata %class.ErrorHandler* %4, metadata !3936, metadata !DIExpression()), !dbg !3937
  %6 = getelementptr inbounds %class.DirectIPLookup, %class.DirectIPLookup* %0, i64 0, i32 1, !dbg !3938
  %7 = tail call i32 @_ZN14DirectIPLookup5Table9add_routeERK7IPRoutebPS1_P12ErrorHandler(%"struct.DirectIPLookup::Table"* nonnull %6, %struct.IPRoute* nonnull dereferenceable(20) %1, i1 zeroext %2, %struct.IPRoute* %3, %class.ErrorHandler* %4), !dbg !3939
  ret i32 %7, !dbg !3940
}

; Function Attrs: sspstrong uwtable
define dso_local i32 @_ZN14DirectIPLookup12remove_routeERK7IPRoutePS0_P12ErrorHandler(%class.DirectIPLookup* %0, %struct.IPRoute* dereferenceable(20) %1, %struct.IPRoute* %2, %class.ErrorHandler* %3) unnamed_addr #0 align 2 !dbg !3941 {
  call void @llvm.dbg.value(metadata %class.DirectIPLookup* %0, metadata !3943, metadata !DIExpression()), !dbg !3947
  call void @llvm.dbg.value(metadata %struct.IPRoute* %1, metadata !3944, metadata !DIExpression()), !dbg !3947
  call void @llvm.dbg.value(metadata %struct.IPRoute* %2, metadata !3945, metadata !DIExpression()), !dbg !3947
  call void @llvm.dbg.value(metadata %class.ErrorHandler* %3, metadata !3946, metadata !DIExpression()), !dbg !3947
  %5 = getelementptr inbounds %class.DirectIPLookup, %class.DirectIPLookup* %0, i64 0, i32 1, !dbg !3948
  %6 = tail call i32 @_ZN14DirectIPLookup5Table12remove_routeERK7IPRoutePS1_P12ErrorHandler(%"struct.DirectIPLookup::Table"* nonnull %5, %struct.IPRoute* nonnull dereferenceable(20) %1, %struct.IPRoute* %2, %class.ErrorHandler* %3), !dbg !3949
  ret i32 %6, !dbg !3950
}

; Function Attrs: nounwind sspstrong uwtable
define dso_local i32 @_ZN14DirectIPLookup13flush_handlerERK6StringP7ElementPvP12ErrorHandler(%class.String* nocapture readnone dereferenceable(24) %0, %class.Element* nocapture %1, i8* nocapture readnone %2, %class.ErrorHandler* nocapture readnone %3) #4 align 2 !dbg !3951 {
  call void @llvm.dbg.value(metadata %class.String* undef, metadata !3953, metadata !DIExpression()), !dbg !3958
  call void @llvm.dbg.value(metadata %class.Element* %1, metadata !3954, metadata !DIExpression()), !dbg !3958
  call void @llvm.dbg.value(metadata i8* undef, metadata !3955, metadata !DIExpression()), !dbg !3958
  call void @llvm.dbg.value(metadata %class.ErrorHandler* undef, metadata !3956, metadata !DIExpression()), !dbg !3958
  call void @llvm.dbg.value(metadata %class.Element* %1, metadata !3957, metadata !DIExpression()), !dbg !3958
  %5 = getelementptr inbounds %class.Element, %class.Element* %1, i64 1, !dbg !3959
  %6 = bitcast %class.Element* %5 to %"struct.DirectIPLookup::Table"*, !dbg !3959
  call void @llvm.dbg.value(metadata %"struct.DirectIPLookup::Table"* %6, metadata !2490, metadata !DIExpression()) #17, !dbg !3960
  %7 = getelementptr inbounds %class.Element, %class.Element* %1, i64 1, i32 2, i64 0, i32 1, !dbg !3962
  %8 = bitcast i32* %7 to i32**, !dbg !3962
  %9 = bitcast i32* %7 to i8**, !dbg !3962
  %10 = load i8*, i8** %9, align 8, !dbg !3962, !tbaa !2448
  tail call void @llvm.memset.p0i8.i64(i8* nonnull align 4 dereferenceable(262144) %10, i8 -1, i64 262144, i1 false) #17, !dbg !3963
  %11 = getelementptr inbounds %"struct.DirectIPLookup::Table", %"struct.DirectIPLookup::Table"* %6, i64 0, i32 12, !dbg !3964
  store i32 0, i32* %11, align 4, !dbg !3965, !tbaa !2496
  %12 = getelementptr inbounds %class.Element, %class.Element* %1, i64 1, i32 1, i64 1, !dbg !3966
  %13 = bitcast %"class.Element::Port"** %12 to %"struct.DirectIPLookup::VirtualPort"**, !dbg !3966
  %14 = load %"struct.DirectIPLookup::VirtualPort"*, %"struct.DirectIPLookup::VirtualPort"** %13, align 8, !dbg !3966, !tbaa !2446
  %15 = getelementptr inbounds %"struct.DirectIPLookup::VirtualPort", %"struct.DirectIPLookup::VirtualPort"* %14, i64 0, i32 1, !dbg !3967
  store i16 -1, i16* %15, align 2, !dbg !3968, !tbaa !2500
  %16 = getelementptr inbounds %"struct.DirectIPLookup::VirtualPort", %"struct.DirectIPLookup::VirtualPort"* %14, i64 0, i32 0, !dbg !3969
  store i16 -1, i16* %16, align 4, !dbg !3970, !tbaa !2505
  %17 = getelementptr inbounds %"struct.DirectIPLookup::VirtualPort", %"struct.DirectIPLookup::VirtualPort"* %14, i64 0, i32 2, !dbg !3971
  store i32 1, i32* %17, align 4, !dbg !3972, !tbaa !2508
  %18 = getelementptr inbounds %"struct.DirectIPLookup::VirtualPort", %"struct.DirectIPLookup::VirtualPort"* %14, i64 0, i32 3, i32 0, !dbg !3973
  store i32 0, i32* %18, align 4, !dbg !3973, !tbaa !2510
  %19 = getelementptr inbounds %"struct.DirectIPLookup::VirtualPort", %"struct.DirectIPLookup::VirtualPort"* %14, i64 0, i32 4, !dbg !3974
  store i16 -1, i16* %19, align 4, !dbg !3975, !tbaa !2513
  %20 = getelementptr inbounds %class.Element, %class.Element* %1, i64 1, i32 2, i64 2, i32 1, !dbg !3976
  store i32 1, i32* %20, align 8, !dbg !3977, !tbaa !2516
  %21 = getelementptr inbounds %class.Element, %class.Element* %1, i64 1, i32 2, i64 3, i32 1, !dbg !3978
  store i32 -1, i32* %21, align 8, !dbg !3979, !tbaa !2519
  %22 = load i32*, i32** %8, align 8, !dbg !3980, !tbaa !2448
  store i32 0, i32* %22, align 4, !dbg !3981, !tbaa !2510
  %23 = getelementptr inbounds %class.Element, %class.Element* %1, i64 1, i32 2, !dbg !3982
  %24 = bitcast [4 x %"class.Element::Port"]* %23 to %"struct.DirectIPLookup::CleartextEntry"**, !dbg !3982
  %25 = load %"struct.DirectIPLookup::CleartextEntry"*, %"struct.DirectIPLookup::CleartextEntry"** %24, align 8, !dbg !3982, !tbaa !2447
  %26 = getelementptr inbounds %"struct.DirectIPLookup::CleartextEntry", %"struct.DirectIPLookup::CleartextEntry"* %25, i64 0, i32 1, !dbg !3983
  store i32 -1, i32* %26, align 4, !dbg !3984, !tbaa !2525
  %27 = getelementptr inbounds %"struct.DirectIPLookup::CleartextEntry", %"struct.DirectIPLookup::CleartextEntry"* %25, i64 0, i32 0, !dbg !3985
  store i32 -1, i32* %27, align 4, !dbg !3986, !tbaa !2529
  %28 = getelementptr inbounds %"struct.DirectIPLookup::CleartextEntry", %"struct.DirectIPLookup::CleartextEntry"* %25, i64 0, i32 2, !dbg !3987
  %29 = getelementptr inbounds %class.Element, %class.Element* %1, i64 1, i32 2, i64 2, !dbg !3988
  %30 = bitcast %"class.Element::Port"* %29 to i32*, !dbg !3988
  %31 = bitcast i32* %28 to i64*, !dbg !3989
  store i64 0, i64* %31, align 4, !dbg !3989
  store i32 1, i32* %30, align 8, !dbg !3990, !tbaa !2534
  %32 = getelementptr inbounds %class.Element, %class.Element* %1, i64 1, i32 2, i64 2, i32 2, !dbg !3991
  %33 = bitcast [4 x i8]* %32 to i32*, !dbg !3991
  store i32 -1, i32* %33, align 4, !dbg !3992, !tbaa !2537
  %34 = bitcast %class.Element* %5 to i8**, !dbg !3993
  %35 = load i8*, i8** %34, align 8, !dbg !3993, !tbaa !2438
  tail call void @llvm.memset.p0i8.i64(i8* nonnull align 2 dereferenceable(50331648) %35, i8 0, i64 50331648, i1 false) #17, !dbg !3994
  %36 = getelementptr inbounds %"struct.DirectIPLookup::Table", %"struct.DirectIPLookup::Table"* %6, i64 0, i32 8, !dbg !3995
  store i32 0, i32* %36, align 4, !dbg !3996, !tbaa !2542
  %37 = getelementptr inbounds %class.Element, %class.Element* %1, i64 1, i32 2, i64 3, !dbg !3997
  %38 = bitcast %"class.Element::Port"* %37 to i16*, !dbg !3997
  store i16 -32768, i16* %38, align 8, !dbg !3998, !tbaa !2545
  ret i32 0, !dbg !3999
}

; Function Attrs: sspstrong uwtable
define dso_local void @_ZN14DirectIPLookup11dump_routesEv(%class.String* noalias sret %0, %class.DirectIPLookup* nocapture readonly %1) unnamed_addr #0 align 2 !dbg !4000 {
  call void @llvm.dbg.value(metadata %class.DirectIPLookup* %1, metadata !4002, metadata !DIExpression()), !dbg !4003
  %3 = getelementptr inbounds %class.DirectIPLookup, %class.DirectIPLookup* %1, i64 0, i32 1, !dbg !4004
  tail call void @_ZNK14DirectIPLookup5Table4dumpEv(%class.String* sret %0, %"struct.DirectIPLookup::Table"* nonnull %3), !dbg !4005
  ret void, !dbg !4006
}

; Function Attrs: sspstrong uwtable
define dso_local void @_ZN14DirectIPLookup12add_handlersEv(%class.DirectIPLookup* %0) unnamed_addr #0 align 2 !dbg !4007 {
  call void @llvm.dbg.value(metadata %class.DirectIPLookup* %0, metadata !4009, metadata !DIExpression()), !dbg !4010
  %2 = bitcast %class.DirectIPLookup* %0 to %class.IPRouteTable*, !dbg !4011
  tail call void @_ZN12IPRouteTable12add_handlersEv(%class.IPRouteTable* %2), !dbg !4011
  %3 = bitcast %class.DirectIPLookup* %0 to %class.Element*, !dbg !4012
  tail call void @_ZN7Element17add_write_handlerEPKcPFiRK6StringPS_PvP12ErrorHandlerEij(%class.Element* %3, i8* getelementptr inbounds ([6 x i8], [6 x i8]* @.str.7, i64 0, i64 0), i32 (%class.String*, %class.Element*, i8*, %class.ErrorHandler*)* nonnull @_ZN14DirectIPLookup13flush_handlerERK6StringP7ElementPvP12ErrorHandler, i32 0, i32 8192), !dbg !4012
  ret void, !dbg !4013
}

declare void @_ZN12IPRouteTable12add_handlersEv(%class.IPRouteTable*) unnamed_addr #7

declare void @_ZN7Element17add_write_handlerEPKcPFiRK6StringPS_PvP12ErrorHandlerEij(%class.Element*, i8*, i32 (%class.String*, %class.Element*, i8*, %class.ErrorHandler*)*, i32, i32) local_unnamed_addr #7

declare %class.Packet* @_ZN7Element4pullEi(%class.Element*, i32) unnamed_addr #7

declare %class.Packet* @_ZN7Element13simple_actionEP6Packet(%class.Element*, %class.Packet*) unnamed_addr #7

declare zeroext i1 @_ZN7Element8run_taskEP4Task(%class.Element*, %class.Task*) unnamed_addr #7

declare void @_ZN7Element9run_timerEP5Timer(%class.Element*, %class.Timer*) unnamed_addr #7

declare void @_ZN7Element8selectedEii(%class.Element*, i32, i32) unnamed_addr #7

declare void @_ZN7Element8selectedEi(%class.Element*, i32) unnamed_addr #7

; Function Attrs: nounwind sspstrong uwtable
define linkonce_odr dso_local i8* @_ZNK14DirectIPLookup10class_nameEv(%class.DirectIPLookup* %0) unnamed_addr #4 comdat align 2 !dbg !4014 {
  call void @llvm.dbg.value(metadata %class.DirectIPLookup* %0, metadata !4016, metadata !DIExpression()), !dbg !4017
  ret i8* getelementptr inbounds ([15 x i8], [15 x i8]* @.str.11, i64 0, i64 0), !dbg !4018
}

; Function Attrs: nounwind sspstrong uwtable
define linkonce_odr dso_local i8* @_ZNK14DirectIPLookup10port_countEv(%class.DirectIPLookup* %0) unnamed_addr #4 comdat align 2 !dbg !4019 {
  call void @llvm.dbg.value(metadata %class.DirectIPLookup* %0, metadata !4021, metadata !DIExpression()), !dbg !4022
  ret i8* getelementptr inbounds ([4 x i8], [4 x i8]* @.str.12, i64 0, i64 0), !dbg !4023
}

; Function Attrs: nounwind sspstrong uwtable
define linkonce_odr dso_local i8* @_ZNK14DirectIPLookup10processingEv(%class.DirectIPLookup* %0) unnamed_addr #4 comdat align 2 !dbg !4024 {
  call void @llvm.dbg.value(metadata %class.DirectIPLookup* %0, metadata !4026, metadata !DIExpression()), !dbg !4027
  ret i8* getelementptr inbounds ([0 x i8], [0 x i8]* @_ZN7Element4PUSHE, i64 0, i64 0), !dbg !4028
}

declare i8* @_ZNK7Element9flow_codeEv(%class.Element*) unnamed_addr #7

declare i8* @_ZNK7Element5flagsEv(%class.Element*) unnamed_addr #7

declare i8* @_ZN12IPRouteTable4castEPKc(%class.IPRouteTable*, i8*) unnamed_addr #7

declare i8* @_ZN7Element9port_castEbiPKc(%class.Element*, i1 zeroext, i32, i8*) unnamed_addr #7

declare i32 @_ZNK7Element15configure_phaseEv(%class.Element*) unnamed_addr #7

declare i32 @_ZN7Element10initializeEP12ErrorHandler(%class.Element*, %class.ErrorHandler*) unnamed_addr #7

declare void @_ZN7Element10take_stateEPS_P12ErrorHandler(%class.Element*, %class.Element*, %class.ErrorHandler*) unnamed_addr #7

declare %class.Element* @_ZNK7Element15hotswap_elementEv(%class.Element*) unnamed_addr #7

declare void @_ZNK7Element11declarationEv(%class.String* sret, %class.Element*) unnamed_addr #7

declare zeroext i1 @_ZNK7Element20can_live_reconfigureEv(%class.Element*) unnamed_addr #7

declare i32 @_ZN7Element16live_reconfigureER6VectorI6StringEP12ErrorHandler(%class.Element*, %class.Vector.0* dereferenceable(16), %class.ErrorHandler*) unnamed_addr #7

declare i32 @_ZN7Element5llrpcEjPv(%class.Element*, i32, i8*) unnamed_addr #7

declare i8* @_ZN11StringAccum4growEi(%class.StringAccum*, i32) local_unnamed_addr #7

declare i32 @_ZNK9IPAddress18mask_to_prefix_lenEv(%class.IPAddress*) local_unnamed_addr #7

declare void @_ZN7ElementC2Ev(%class.Element*) unnamed_addr #7

declare %"union.Packet::Anno"* @_ZNK6Packet5xannoEv(%class.Packet*) local_unnamed_addr #7

; Function Attrs: noinline nounwind optnone sspstrong uwtable
define linkonce_odr dso_local dereferenceable(16) %"class.Element::Port"* @_ZNK7Element4portEbi(%class.Element* %0, i1 zeroext %1, i32 %2) local_unnamed_addr #13 comdat align 2 !dbg !4029 {
  %4 = alloca %class.Element*, align 8
  %5 = alloca i8, align 1
  %6 = alloca i32, align 4
  store %class.Element* %0, %class.Element** %4, align 8, !tbaa !3873
  call void @llvm.dbg.declare(metadata %class.Element** %4, metadata !4034, metadata !DIExpression()), !dbg !4037
  %7 = zext i1 %1 to i8
  store i8 %7, i8* %5, align 1, !tbaa !4038
  call void @llvm.dbg.declare(metadata i8* %5, metadata !4035, metadata !DIExpression()), !dbg !4040
  store i32 %2, i32* %6, align 4, !tbaa !2510
  call void @llvm.dbg.declare(metadata i32* %6, metadata !4036, metadata !DIExpression()), !dbg !4041
  %8 = load %class.Element*, %class.Element** %4, align 8
  %9 = load i32, i32* %6, align 4, !dbg !4042, !tbaa !2510
  %10 = getelementptr inbounds %class.Element, %class.Element* %8, i32 0, i32 3, !dbg !4042
  %11 = load i8, i8* %5, align 1, !dbg !4042, !tbaa !4038, !range !4043
  %12 = trunc i8 %11 to i1, !dbg !4042
  %13 = zext i1 %12 to i64, !dbg !4042
  %14 = getelementptr inbounds [2 x i32], [2 x i32]* %10, i64 0, i64 %13, !dbg !4042
  %15 = load i32, i32* %14, align 4, !dbg !4042, !tbaa !2510
  %16 = icmp ult i32 %9, %15, !dbg !4042
  br i1 %16, label %17, label %18, !dbg !4042

17:                                               ; preds = %3
  br label %19, !dbg !4042

18:                                               ; preds = %3
  call void @__assert_fail(i8* getelementptr inbounds ([47 x i8], [47 x i8]* @.str.8, i64 0, i64 0), i8* getelementptr inbounds ([30 x i8], [30 x i8]* @.str.9, i64 0, i64 0), i32 437, i8* getelementptr inbounds ([52 x i8], [52 x i8]* @__PRETTY_FUNCTION__._ZNK7Element4portEbi, i64 0, i64 0)) #14, !dbg !4042
  unreachable, !dbg !4042

19:                                               ; preds = %17
  %20 = getelementptr inbounds %class.Element, %class.Element* %8, i32 0, i32 1, !dbg !4044
  %21 = load i8, i8* %5, align 1, !dbg !4045, !tbaa !4038, !range !4043
  %22 = trunc i8 %21 to i1, !dbg !4045
  %23 = zext i1 %22 to i64, !dbg !4044
  %24 = getelementptr inbounds [2 x %"class.Element::Port"*], [2 x %"class.Element::Port"*]* %20, i64 0, i64 %23, !dbg !4044
  %25 = load %"class.Element::Port"*, %"class.Element::Port"** %24, align 8, !dbg !4044, !tbaa !3873
  %26 = load i32, i32* %6, align 4, !dbg !4046, !tbaa !2510
  %27 = sext i32 %26 to i64, !dbg !4044
  %28 = getelementptr inbounds %"class.Element::Port", %"class.Element::Port"* %25, i64 %27, !dbg !4044
  ret %"class.Element::Port"* %28, !dbg !4047
}

; Function Attrs: nounwind readnone speculatable willreturn
declare void @llvm.dbg.value(metadata, metadata, metadata) #1

; Function Attrs: nounwind readnone speculatable willreturn
declare i32 @llvm.bswap.i32(i32) #1

attributes #0 = { sspstrong uwtable "correctly-rounded-divide-sqrt-fp-math"="false" "disable-tail-calls"="false" "frame-pointer"="none" "less-precise-fpmad"="false" "min-legal-vector-width"="0" "no-infs-fp-math"="false" "no-jump-tables"="false" "no-nans-fp-math"="false" "no-signed-zeros-fp-math"="false" "no-trapping-math"="false" "stack-protector-buffer-size"="8" "target-cpu"="x86-64" "target-features"="+cx8,+fxsr,+mmx,+sse,+sse2,+x87" "unsafe-fp-math"="false" "use-soft-float"="false" }
attributes #1 = { nounwind readnone speculatable willreturn }
attributes #2 = { noreturn nounwind "correctly-rounded-divide-sqrt-fp-math"="false" "disable-tail-calls"="false" "frame-pointer"="none" "less-precise-fpmad"="false" "no-infs-fp-math"="false" "no-nans-fp-math"="false" "no-signed-zeros-fp-math"="false" "no-trapping-math"="false" "stack-protector-buffer-size"="8" "target-cpu"="x86-64" "target-features"="+cx8,+fxsr,+mmx,+sse,+sse2,+x87" "unsafe-fp-math"="false" "use-soft-float"="false" }
attributes #3 = { nobuiltin nofree "correctly-rounded-divide-sqrt-fp-math"="false" "disable-tail-calls"="false" "frame-pointer"="none" "less-precise-fpmad"="false" "no-infs-fp-math"="false" "no-nans-fp-math"="false" "no-signed-zeros-fp-math"="false" "no-trapping-math"="false" "stack-protector-buffer-size"="8" "target-cpu"="x86-64" "target-features"="+cx8,+fxsr,+mmx,+sse,+sse2,+x87" "unsafe-fp-math"="false" "use-soft-float"="false" }
attributes #4 = { nounwind sspstrong uwtable "correctly-rounded-divide-sqrt-fp-math"="false" "disable-tail-calls"="false" "frame-pointer"="none" "less-precise-fpmad"="false" "min-legal-vector-width"="0" "no-infs-fp-math"="false" "no-jump-tables"="false" "no-nans-fp-math"="false" "no-signed-zeros-fp-math"="false" "no-trapping-math"="false" "stack-protector-buffer-size"="8" "target-cpu"="x86-64" "target-features"="+cx8,+fxsr,+mmx,+sse,+sse2,+x87" "unsafe-fp-math"="false" "use-soft-float"="false" }
attributes #5 = { nobuiltin nounwind "correctly-rounded-divide-sqrt-fp-math"="false" "disable-tail-calls"="false" "frame-pointer"="none" "less-precise-fpmad"="false" "no-infs-fp-math"="false" "no-nans-fp-math"="false" "no-signed-zeros-fp-math"="false" "no-trapping-math"="false" "stack-protector-buffer-size"="8" "target-cpu"="x86-64" "target-features"="+cx8,+fxsr,+mmx,+sse,+sse2,+x87" "unsafe-fp-math"="false" "use-soft-float"="false" }
attributes #6 = { argmemonly nounwind willreturn }
attributes #7 = { "correctly-rounded-divide-sqrt-fp-math"="false" "disable-tail-calls"="false" "frame-pointer"="none" "less-precise-fpmad"="false" "no-infs-fp-math"="false" "no-nans-fp-math"="false" "no-signed-zeros-fp-math"="false" "no-trapping-math"="false" "stack-protector-buffer-size"="8" "target-cpu"="x86-64" "target-features"="+cx8,+fxsr,+mmx,+sse,+sse2,+x87" "unsafe-fp-math"="false" "use-soft-float"="false" }
attributes #8 = { nofree norecurse nounwind sspstrong uwtable "correctly-rounded-divide-sqrt-fp-math"="false" "disable-tail-calls"="false" "frame-pointer"="none" "less-precise-fpmad"="false" "min-legal-vector-width"="0" "no-infs-fp-math"="false" "no-jump-tables"="false" "no-nans-fp-math"="false" "no-signed-zeros-fp-math"="false" "no-trapping-math"="false" "stack-protector-buffer-size"="8" "target-cpu"="x86-64" "target-features"="+cx8,+fxsr,+mmx,+sse,+sse2,+x87" "unsafe-fp-math"="false" "use-soft-float"="false" }
attributes #9 = { norecurse nounwind readonly sspstrong uwtable "correctly-rounded-divide-sqrt-fp-math"="false" "disable-tail-calls"="false" "frame-pointer"="none" "less-precise-fpmad"="false" "min-legal-vector-width"="0" "no-infs-fp-math"="false" "no-jump-tables"="false" "no-nans-fp-math"="false" "no-signed-zeros-fp-math"="false" "no-trapping-math"="false" "stack-protector-buffer-size"="8" "target-cpu"="x86-64" "target-features"="+cx8,+fxsr,+mmx,+sse,+sse2,+x87" "unsafe-fp-math"="false" "use-soft-float"="false" }
attributes #10 = { nounwind "correctly-rounded-divide-sqrt-fp-math"="false" "disable-tail-calls"="false" "frame-pointer"="none" "less-precise-fpmad"="false" "no-infs-fp-math"="false" "no-nans-fp-math"="false" "no-signed-zeros-fp-math"="false" "no-trapping-math"="false" "stack-protector-buffer-size"="8" "target-cpu"="x86-64" "target-features"="+cx8,+fxsr,+mmx,+sse,+sse2,+x87" "unsafe-fp-math"="false" "use-soft-float"="false" }
attributes #11 = { noinline optnone sspstrong uwtable "correctly-rounded-divide-sqrt-fp-math"="false" "disable-tail-calls"="false" "frame-pointer"="none" "less-precise-fpmad"="false" "min-legal-vector-width"="0" "no-infs-fp-math"="false" "no-jump-tables"="false" "no-nans-fp-math"="false" "no-signed-zeros-fp-math"="false" "no-trapping-math"="false" "stack-protector-buffer-size"="8" "target-cpu"="x86-64" "target-features"="+cx8,+fxsr,+mmx,+sse,+sse2,+x87" "unsafe-fp-math"="false" "use-soft-float"="false" }
attributes #12 = { nofree nounwind sspstrong uwtable "correctly-rounded-divide-sqrt-fp-math"="false" "disable-tail-calls"="false" "frame-pointer"="none" "less-precise-fpmad"="false" "min-legal-vector-width"="0" "no-infs-fp-math"="false" "no-jump-tables"="false" "no-nans-fp-math"="false" "no-signed-zeros-fp-math"="false" "no-trapping-math"="false" "stack-protector-buffer-size"="8" "target-cpu"="x86-64" "target-features"="+cx8,+fxsr,+mmx,+sse,+sse2,+x87" "unsafe-fp-math"="false" "use-soft-float"="false" }
attributes #13 = { noinline nounwind optnone sspstrong uwtable "correctly-rounded-divide-sqrt-fp-math"="false" "disable-tail-calls"="false" "frame-pointer"="none" "less-precise-fpmad"="false" "min-legal-vector-width"="0" "no-infs-fp-math"="false" "no-jump-tables"="false" "no-nans-fp-math"="false" "no-signed-zeros-fp-math"="false" "no-trapping-math"="false" "stack-protector-buffer-size"="8" "target-cpu"="x86-64" "target-features"="+cx8,+fxsr,+mmx,+sse,+sse2,+x87" "unsafe-fp-math"="false" "use-soft-float"="false" }
attributes #14 = { noreturn nounwind }
attributes #15 = { builtin }
attributes #16 = { builtin nounwind }
attributes #17 = { nounwind }

!llvm.dbg.cu = !{!0}
!llvm.module.flags = !{!2426, !2427, !2428, !2429, !2430}
!llvm.ident = !{!2431}

!0 = distinct !DICompileUnit(language: DW_LANG_C_plus_plus_14, file: !1, producer: "clang version 10.0.0 ", isOptimized: true, runtimeVersion: 0, emissionKind: FullDebug, enums: !2, retainedTypes: !1802, imports: !1804, splitDebugInlining: false, nameTableKind: None)
!1 = !DIFile(filename: "../elements/ip/directiplookup.cc", directory: "/home/john/projects/click/ir-dir")
!2 = !{!3, !912, !1024, !1462, !1690, !1793, !1796}
!3 = !DICompositeType(tag: DW_TAG_enumeration_type, scope: !5, file: !4, line: 109, baseType: !34, size: 32, elements: !1684, identifier: "_ZTSN14DirectIPLookupUt_E")
!4 = !DIFile(filename: "../elements/ip/directiplookup.hh", directory: "/home/john/projects/click/ir-dir")
!5 = distinct !DICompositeType(tag: DW_TAG_class_type, name: "DirectIPLookup", file: !4, line: 87, size: 1664, flags: DIFlagTypePassByReference | DIFlagNonTrivial, elements: !6, vtableHolder: !914)
!6 = !{!7, !10, !697, !701, !702, !707, !708, !709, !909, !924, !925, !1668, !1671, !1674, !1677, !1680}
!7 = !DIDerivedType(tag: DW_TAG_inheritance, scope: !5, baseType: !8, flags: DIFlagPublic, extraData: i32 0)
!8 = !DICompositeType(tag: DW_TAG_class_type, name: "IPRouteTable", file: !9, line: 188, flags: DIFlagFwdDecl, identifier: "_ZTS12IPRouteTable")
!9 = !DIFile(filename: "../elements/ip/iproutetable.hh", directory: "/home/john/projects/click/ir-dir")
!10 = !DIDerivedType(tag: DW_TAG_member, name: "_t", scope: !5, file: !4, line: 186, baseType: !11, size: 768, offset: 896, flags: DIFlagProtected)
!11 = distinct !DICompositeType(tag: DW_TAG_structure_type, name: "Table", scope: !5, file: !4, line: 134, size: 768, flags: DIFlagTypePassByReference | DIFlagNonTrivial, elements: !12, identifier: "_ZTSN14DirectIPLookup5TableE")
!12 = !{!13, !20, !21, !440, !449, !451, !455, !456, !457, !458, !459, !460, !461, !462, !463, !464, !465, !466, !470, !471, !474, !475, !478, !483, !486, !489, !492, !693, !696}
!13 = !DIDerivedType(tag: DW_TAG_member, name: "_tbl_0_23", scope: !11, file: !4, line: 136, baseType: !14, size: 64)
!14 = !DIDerivedType(tag: DW_TAG_pointer_type, baseType: !15, size: 64)
!15 = !DIDerivedType(tag: DW_TAG_typedef, name: "uint16_t", file: !16, line: 25, baseType: !17)
!16 = !DIFile(filename: "/usr/include/bits/stdint-uintn.h", directory: "")
!17 = !DIDerivedType(tag: DW_TAG_typedef, name: "__uint16_t", file: !18, line: 40, baseType: !19)
!18 = !DIFile(filename: "/usr/include/bits/types.h", directory: "")
!19 = !DIBasicType(name: "unsigned short", size: 16, encoding: DW_ATE_unsigned)
!20 = !DIDerivedType(tag: DW_TAG_member, name: "_tbl_24_31", scope: !11, file: !4, line: 137, baseType: !14, size: 64, offset: 64)
!21 = !DIDerivedType(tag: DW_TAG_member, name: "_vport", scope: !11, file: !4, line: 138, baseType: !22, size: 64, offset: 128)
!22 = !DIDerivedType(tag: DW_TAG_pointer_type, baseType: !23, size: 64)
!23 = distinct !DICompositeType(tag: DW_TAG_structure_type, name: "VirtualPort", scope: !5, file: !4, line: 125, size: 128, flags: DIFlagTypePassByValue | DIFlagNonTrivial, elements: !24, identifier: "_ZTSN14DirectIPLookup11VirtualPortE")
!24 = !{!25, !30, !31, !35, !438, !439}
!25 = !DIDerivedType(tag: DW_TAG_member, name: "ll_next", scope: !23, file: !4, line: 126, baseType: !26, size: 16)
!26 = !DIDerivedType(tag: DW_TAG_typedef, name: "int16_t", file: !27, line: 25, baseType: !28)
!27 = !DIFile(filename: "/usr/include/bits/stdint-intn.h", directory: "")
!28 = !DIDerivedType(tag: DW_TAG_typedef, name: "__int16_t", file: !18, line: 39, baseType: !29)
!29 = !DIBasicType(name: "short", size: 16, encoding: DW_ATE_signed)
!30 = !DIDerivedType(tag: DW_TAG_member, name: "ll_prev", scope: !23, file: !4, line: 127, baseType: !26, size: 16, offset: 16)
!31 = !DIDerivedType(tag: DW_TAG_member, name: "refcount", scope: !23, file: !4, line: 128, baseType: !32, size: 32, offset: 32)
!32 = !DIDerivedType(tag: DW_TAG_typedef, name: "int32_t", file: !27, line: 26, baseType: !33)
!33 = !DIDerivedType(tag: DW_TAG_typedef, name: "__int32_t", file: !18, line: 41, baseType: !34)
!34 = !DIBasicType(name: "int", size: 32, encoding: DW_ATE_signed)
!35 = !DIDerivedType(tag: DW_TAG_member, name: "gw", scope: !23, file: !4, line: 129, baseType: !36, size: 32, offset: 64)
!36 = distinct !DICompositeType(tag: DW_TAG_class_type, name: "IPAddress", file: !37, line: 15, size: 32, flags: DIFlagTypePassByValue | DIFlagNonTrivial, elements: !38, identifier: "_ZTS9IPAddress")
!37 = !DIFile(filename: "../dummy_inc/click/ipaddress.hh", directory: "/home/john/projects/click/ir-dir")
!38 = !{!39, !43, !47, !50, !53, !57, !61, !69, !75, !376, !384, !387, !390, !395, !398, !399, !400, !401, !404, !405, !409, !412, !413, !416, !419, !422, !423, !427, !428, !429, !432, !433, !436, !437}
!39 = !DIDerivedType(tag: DW_TAG_member, name: "_addr", scope: !36, file: !37, line: 152, baseType: !40, size: 32)
!40 = !DIDerivedType(tag: DW_TAG_typedef, name: "uint32_t", file: !16, line: 26, baseType: !41)
!41 = !DIDerivedType(tag: DW_TAG_typedef, name: "__uint32_t", file: !18, line: 42, baseType: !42)
!42 = !DIBasicType(name: "unsigned int", size: 32, encoding: DW_ATE_unsigned)
!43 = !DISubprogram(name: "IPAddress", scope: !36, file: !37, line: 20, type: !44, scopeLine: 20, flags: DIFlagPublic | DIFlagPrototyped, spFlags: DISPFlagOptimized)
!44 = !DISubroutineType(types: !45)
!45 = !{null, !46}
!46 = !DIDerivedType(tag: DW_TAG_pointer_type, baseType: !36, size: 64, flags: DIFlagArtificial | DIFlagObjectPointer)
!47 = !DISubprogram(name: "IPAddress", scope: !36, file: !37, line: 25, type: !48, scopeLine: 25, flags: DIFlagPublic | DIFlagPrototyped, spFlags: DISPFlagOptimized)
!48 = !DISubroutineType(types: !49)
!49 = !{null, !46, !42}
!50 = !DISubprogram(name: "IPAddress", scope: !36, file: !37, line: 29, type: !51, scopeLine: 29, flags: DIFlagPublic | DIFlagExplicit | DIFlagPrototyped, spFlags: DISPFlagOptimized)
!51 = !DISubroutineType(types: !52)
!52 = !{null, !46, !34}
!53 = !DISubprogram(name: "IPAddress", scope: !36, file: !37, line: 33, type: !54, scopeLine: 33, flags: DIFlagPublic | DIFlagExplicit | DIFlagPrototyped, spFlags: DISPFlagOptimized)
!54 = !DISubroutineType(types: !55)
!55 = !{null, !46, !56}
!56 = !DIBasicType(name: "long unsigned int", size: 64, encoding: DW_ATE_unsigned)
!57 = !DISubprogram(name: "IPAddress", scope: !36, file: !37, line: 37, type: !58, scopeLine: 37, flags: DIFlagPublic | DIFlagExplicit | DIFlagPrototyped, spFlags: DISPFlagOptimized)
!58 = !DISubroutineType(types: !59)
!59 = !{null, !46, !60}
!60 = !DIBasicType(name: "long int", size: 64, encoding: DW_ATE_signed)
!61 = !DISubprogram(name: "IPAddress", scope: !36, file: !37, line: 42, type: !62, scopeLine: 42, flags: DIFlagPublic | DIFlagPrototyped, spFlags: DISPFlagOptimized)
!62 = !DISubroutineType(types: !63)
!63 = !{null, !46, !64}
!64 = distinct !DICompositeType(tag: DW_TAG_structure_type, name: "in_addr", file: !65, line: 31, size: 32, flags: DIFlagTypePassByValue, elements: !66, identifier: "_ZTS7in_addr")
!65 = !DIFile(filename: "/usr/include/netinet/in.h", directory: "")
!66 = !{!67}
!67 = !DIDerivedType(tag: DW_TAG_member, name: "s_addr", scope: !64, file: !65, line: 33, baseType: !68, size: 32)
!68 = !DIDerivedType(tag: DW_TAG_typedef, name: "in_addr_t", file: !65, line: 30, baseType: !40)
!69 = !DISubprogram(name: "IPAddress", scope: !36, file: !37, line: 50, type: !70, scopeLine: 50, flags: DIFlagPublic | DIFlagExplicit | DIFlagPrototyped, spFlags: DISPFlagOptimized)
!70 = !DISubroutineType(types: !71)
!71 = !{null, !46, !72}
!72 = !DIDerivedType(tag: DW_TAG_pointer_type, baseType: !73, size: 64)
!73 = !DIDerivedType(tag: DW_TAG_const_type, baseType: !74)
!74 = !DIBasicType(name: "unsigned char", size: 8, encoding: DW_ATE_unsigned_char)
!75 = !DISubprogram(name: "IPAddress", scope: !36, file: !37, line: 63, type: !76, scopeLine: 63, flags: DIFlagPublic | DIFlagExplicit | DIFlagPrototyped, spFlags: DISPFlagOptimized)
!76 = !DISubroutineType(types: !77)
!77 = !{null, !46, !78}
!78 = !DIDerivedType(tag: DW_TAG_reference_type, baseType: !79, size: 64)
!79 = !DIDerivedType(tag: DW_TAG_const_type, baseType: !80)
!80 = distinct !DICompositeType(tag: DW_TAG_class_type, name: "String", file: !81, line: 19, size: 192, flags: DIFlagTypePassByReference | DIFlagNonTrivial, elements: !82, identifier: "_ZTS6String")
!81 = !DIFile(filename: "../dummy_inc/click/string.hh", directory: "/home/john/projects/click/ir-dir")
!82 = !{!83, !89, !107, !108, !112, !116, !118, !119, !123, !126, !130, !133, !136, !139, !142, !145, !149, !152, !155, !158, !161, !164, !167, !171, !175, !179, !180, !183, !186, !187, !190, !193, !196, !202, !208, !212, !215, !216, !221, !224, !225, !229, !230, !233, !234, !237, !238, !241, !244, !247, !250, !253, !256, !259, !262, !265, !268, !271, !274, !275, !276, !277, !280, !283, !284, !285, !286, !287, !288, !289, !293, !296, !299, !302, !303, !304, !305, !306, !307, !310, !314, !315, !316, !317, !320, !321, !322, !323, !324, !325, !328, !329, !330, !331, !334, !337, !338, !341, !344, !347, !350, !353, !356, !359, !360, !361, !362, !365, !368, !371, !372, !373}
!83 = !DIDerivedType(tag: DW_TAG_member, name: "bool_data", scope: !80, file: !81, line: 184, baseType: !84, flags: DIFlagPublic | DIFlagStaticMember)
!84 = !DICompositeType(tag: DW_TAG_array_type, baseType: !85, size: 88, elements: !87)
!85 = !DIDerivedType(tag: DW_TAG_const_type, baseType: !86)
!86 = !DIBasicType(name: "char", size: 8, encoding: DW_ATE_signed_char)
!87 = !{!88}
!88 = !DISubrange(count: 11)
!89 = !DIDerivedType(tag: DW_TAG_member, name: "_r", scope: !80, file: !81, line: 211, baseType: !90, size: 192)
!90 = distinct !DICompositeType(tag: DW_TAG_structure_type, name: "rep_t", scope: !80, file: !81, line: 204, size: 192, flags: DIFlagTypePassByValue, elements: !91, identifier: "_ZTSN6String5rep_tE")
!91 = !{!92, !94, !95}
!92 = !DIDerivedType(tag: DW_TAG_member, name: "data", scope: !90, file: !81, line: 205, baseType: !93, size: 64)
!93 = !DIDerivedType(tag: DW_TAG_pointer_type, baseType: !85, size: 64)
!94 = !DIDerivedType(tag: DW_TAG_member, name: "length", scope: !90, file: !81, line: 206, baseType: !34, size: 32, offset: 64)
!95 = !DIDerivedType(tag: DW_TAG_member, name: "memo", scope: !90, file: !81, line: 207, baseType: !96, size: 64, offset: 128)
!96 = !DIDerivedType(tag: DW_TAG_pointer_type, baseType: !97, size: 64)
!97 = distinct !DICompositeType(tag: DW_TAG_structure_type, name: "memo_t", scope: !80, file: !81, line: 189, size: 160, flags: DIFlagTypePassByValue, elements: !98, identifier: "_ZTSN6String6memo_tE")
!98 = !{!99, !101, !102, !103}
!99 = !DIDerivedType(tag: DW_TAG_member, name: "refcount", scope: !97, file: !81, line: 190, baseType: !100, size: 32)
!100 = !DIDerivedType(tag: DW_TAG_volatile_type, baseType: !40)
!101 = !DIDerivedType(tag: DW_TAG_member, name: "capacity", scope: !97, file: !81, line: 191, baseType: !40, size: 32, offset: 32)
!102 = !DIDerivedType(tag: DW_TAG_member, name: "dirty", scope: !97, file: !81, line: 192, baseType: !100, size: 32, offset: 64)
!103 = !DIDerivedType(tag: DW_TAG_member, name: "real_data", scope: !97, file: !81, line: 197, baseType: !104, size: 64, offset: 96)
!104 = !DICompositeType(tag: DW_TAG_array_type, baseType: !86, size: 64, elements: !105)
!105 = !{!106}
!106 = !DISubrange(count: 8)
!107 = !DIDerivedType(tag: DW_TAG_member, name: "null_data", scope: !80, file: !81, line: 292, baseType: !85, flags: DIFlagStaticMember)
!108 = !DIDerivedType(tag: DW_TAG_member, name: "oom_data", scope: !80, file: !81, line: 293, baseType: !109, flags: DIFlagStaticMember)
!109 = !DICompositeType(tag: DW_TAG_array_type, baseType: !85, size: 120, elements: !110)
!110 = !{!111}
!111 = !DISubrange(count: 15)
!112 = !DIDerivedType(tag: DW_TAG_member, name: "int_data", scope: !80, file: !81, line: 294, baseType: !113, flags: DIFlagStaticMember)
!113 = !DICompositeType(tag: DW_TAG_array_type, baseType: !85, size: 160, elements: !114)
!114 = !{!115}
!115 = !DISubrange(count: 20)
!116 = !DIDerivedType(tag: DW_TAG_member, name: "null_string_rep", scope: !80, file: !81, line: 295, baseType: !117, flags: DIFlagStaticMember)
!117 = !DIDerivedType(tag: DW_TAG_const_type, baseType: !90)
!118 = !DIDerivedType(tag: DW_TAG_member, name: "oom_string_rep", scope: !80, file: !81, line: 296, baseType: !117, flags: DIFlagStaticMember)
!119 = !DISubprogram(name: "String", scope: !80, file: !81, line: 39, type: !120, scopeLine: 39, flags: DIFlagPublic | DIFlagPrototyped, spFlags: DISPFlagOptimized)
!120 = !DISubroutineType(types: !121)
!121 = !{null, !122}
!122 = !DIDerivedType(tag: DW_TAG_pointer_type, baseType: !80, size: 64, flags: DIFlagArtificial | DIFlagObjectPointer)
!123 = !DISubprogram(name: "String", scope: !80, file: !81, line: 40, type: !124, scopeLine: 40, flags: DIFlagPublic | DIFlagPrototyped, spFlags: DISPFlagOptimized)
!124 = !DISubroutineType(types: !125)
!125 = !{null, !122, !78}
!126 = !DISubprogram(name: "String", scope: !80, file: !81, line: 42, type: !127, scopeLine: 42, flags: DIFlagPublic | DIFlagPrototyped, spFlags: DISPFlagOptimized)
!127 = !DISubroutineType(types: !128)
!128 = !{null, !122, !129}
!129 = !DIDerivedType(tag: DW_TAG_rvalue_reference_type, baseType: !80, size: 64)
!130 = !DISubprogram(name: "String", scope: !80, file: !81, line: 44, type: !131, scopeLine: 44, flags: DIFlagPublic | DIFlagPrototyped, spFlags: DISPFlagOptimized)
!131 = !DISubroutineType(types: !132)
!132 = !{null, !122, !93}
!133 = !DISubprogram(name: "String", scope: !80, file: !81, line: 45, type: !134, scopeLine: 45, flags: DIFlagPublic | DIFlagPrototyped, spFlags: DISPFlagOptimized)
!134 = !DISubroutineType(types: !135)
!135 = !{null, !122, !93, !34}
!136 = !DISubprogram(name: "String", scope: !80, file: !81, line: 46, type: !137, scopeLine: 46, flags: DIFlagPublic | DIFlagPrototyped, spFlags: DISPFlagOptimized)
!137 = !DISubroutineType(types: !138)
!138 = !{null, !122, !72, !34}
!139 = !DISubprogram(name: "String", scope: !80, file: !81, line: 47, type: !140, scopeLine: 47, flags: DIFlagPublic | DIFlagPrototyped, spFlags: DISPFlagOptimized)
!140 = !DISubroutineType(types: !141)
!141 = !{null, !122, !93, !93}
!142 = !DISubprogram(name: "String", scope: !80, file: !81, line: 48, type: !143, scopeLine: 48, flags: DIFlagPublic | DIFlagPrototyped, spFlags: DISPFlagOptimized)
!143 = !DISubroutineType(types: !144)
!144 = !{null, !122, !72, !72}
!145 = !DISubprogram(name: "String", scope: !80, file: !81, line: 49, type: !146, scopeLine: 49, flags: DIFlagPublic | DIFlagExplicit | DIFlagPrototyped, spFlags: DISPFlagOptimized)
!146 = !DISubroutineType(types: !147)
!147 = !{null, !122, !148}
!148 = !DIBasicType(name: "bool", size: 8, encoding: DW_ATE_boolean)
!149 = !DISubprogram(name: "String", scope: !80, file: !81, line: 50, type: !150, scopeLine: 50, flags: DIFlagPublic | DIFlagExplicit | DIFlagPrototyped, spFlags: DISPFlagOptimized)
!150 = !DISubroutineType(types: !151)
!151 = !{null, !122, !86}
!152 = !DISubprogram(name: "String", scope: !80, file: !81, line: 51, type: !153, scopeLine: 51, flags: DIFlagPublic | DIFlagExplicit | DIFlagPrototyped, spFlags: DISPFlagOptimized)
!153 = !DISubroutineType(types: !154)
!154 = !{null, !122, !74}
!155 = !DISubprogram(name: "String", scope: !80, file: !81, line: 52, type: !156, scopeLine: 52, flags: DIFlagPublic | DIFlagExplicit | DIFlagPrototyped, spFlags: DISPFlagOptimized)
!156 = !DISubroutineType(types: !157)
!157 = !{null, !122, !34}
!158 = !DISubprogram(name: "String", scope: !80, file: !81, line: 53, type: !159, scopeLine: 53, flags: DIFlagPublic | DIFlagExplicit | DIFlagPrototyped, spFlags: DISPFlagOptimized)
!159 = !DISubroutineType(types: !160)
!160 = !{null, !122, !42}
!161 = !DISubprogram(name: "String", scope: !80, file: !81, line: 54, type: !162, scopeLine: 54, flags: DIFlagPublic | DIFlagExplicit | DIFlagPrototyped, spFlags: DISPFlagOptimized)
!162 = !DISubroutineType(types: !163)
!163 = !{null, !122, !60}
!164 = !DISubprogram(name: "String", scope: !80, file: !81, line: 55, type: !165, scopeLine: 55, flags: DIFlagPublic | DIFlagExplicit | DIFlagPrototyped, spFlags: DISPFlagOptimized)
!165 = !DISubroutineType(types: !166)
!166 = !{null, !122, !56}
!167 = !DISubprogram(name: "String", scope: !80, file: !81, line: 57, type: !168, scopeLine: 57, flags: DIFlagPublic | DIFlagExplicit | DIFlagPrototyped, spFlags: DISPFlagOptimized)
!168 = !DISubroutineType(types: !169)
!169 = !{null, !122, !170}
!170 = !DIBasicType(name: "long long int", size: 64, encoding: DW_ATE_signed)
!171 = !DISubprogram(name: "String", scope: !80, file: !81, line: 58, type: !172, scopeLine: 58, flags: DIFlagPublic | DIFlagExplicit | DIFlagPrototyped, spFlags: DISPFlagOptimized)
!172 = !DISubroutineType(types: !173)
!173 = !{null, !122, !174}
!174 = !DIBasicType(name: "long long unsigned int", size: 64, encoding: DW_ATE_unsigned)
!175 = !DISubprogram(name: "String", scope: !80, file: !81, line: 65, type: !176, scopeLine: 65, flags: DIFlagPublic | DIFlagExplicit | DIFlagPrototyped, spFlags: DISPFlagOptimized)
!176 = !DISubroutineType(types: !177)
!177 = !{null, !122, !178}
!178 = !DIBasicType(name: "double", size: 64, encoding: DW_ATE_float)
!179 = !DISubprogram(name: "~String", scope: !80, file: !81, line: 67, type: !120, scopeLine: 67, flags: DIFlagPublic | DIFlagPrototyped, spFlags: DISPFlagOptimized)
!180 = !DISubprogram(name: "make_empty", linkageName: "_ZN6String10make_emptyEv", scope: !80, file: !81, line: 69, type: !181, scopeLine: 69, flags: DIFlagPublic | DIFlagPrototyped | DIFlagStaticMember, spFlags: DISPFlagOptimized)
!181 = !DISubroutineType(types: !182)
!182 = !{!78}
!183 = !DISubprogram(name: "make_uninitialized", linkageName: "_ZN6String18make_uninitializedEi", scope: !80, file: !81, line: 70, type: !184, scopeLine: 70, flags: DIFlagPublic | DIFlagPrototyped | DIFlagStaticMember, spFlags: DISPFlagOptimized)
!184 = !DISubroutineType(types: !185)
!185 = !{!80, !34}
!186 = !DISubprogram(name: "make_garbage", linkageName: "_ZN6String12make_garbageEi", scope: !80, file: !81, line: 71, type: !184, scopeLine: 71, flags: DIFlagPublic | DIFlagPrototyped | DIFlagStaticMember, spFlags: DISPFlagOptimized)
!187 = !DISubprogram(name: "make_stable", linkageName: "_ZN6String11make_stableEPKc", scope: !80, file: !81, line: 72, type: !188, scopeLine: 72, flags: DIFlagPublic | DIFlagPrototyped | DIFlagStaticMember, spFlags: DISPFlagOptimized)
!188 = !DISubroutineType(types: !189)
!189 = !{!80, !93}
!190 = !DISubprogram(name: "make_stable", linkageName: "_ZN6String11make_stableEPKci", scope: !80, file: !81, line: 73, type: !191, scopeLine: 73, flags: DIFlagPublic | DIFlagPrototyped | DIFlagStaticMember, spFlags: DISPFlagOptimized)
!191 = !DISubroutineType(types: !192)
!192 = !{!80, !93, !34}
!193 = !DISubprogram(name: "make_stable", linkageName: "_ZN6String11make_stableEPKcS1_", scope: !80, file: !81, line: 74, type: !194, scopeLine: 74, flags: DIFlagPublic | DIFlagPrototyped | DIFlagStaticMember, spFlags: DISPFlagOptimized)
!194 = !DISubroutineType(types: !195)
!195 = !{!80, !93, !93}
!196 = !DISubprogram(name: "make_numeric", linkageName: "_ZN6String12make_numericElib", scope: !80, file: !81, line: 75, type: !197, scopeLine: 75, flags: DIFlagPublic | DIFlagPrototyped | DIFlagStaticMember, spFlags: DISPFlagOptimized)
!197 = !DISubroutineType(types: !198)
!198 = !{!80, !199, !34, !148}
!199 = !DIDerivedType(tag: DW_TAG_typedef, name: "intmax_t", scope: !80, file: !81, line: 27, baseType: !200)
!200 = !DIDerivedType(tag: DW_TAG_typedef, name: "int64_t", file: !27, line: 27, baseType: !201)
!201 = !DIDerivedType(tag: DW_TAG_typedef, name: "__int64_t", file: !18, line: 44, baseType: !60)
!202 = !DISubprogram(name: "make_numeric", linkageName: "_ZN6String12make_numericEmib", scope: !80, file: !81, line: 76, type: !203, scopeLine: 76, flags: DIFlagPublic | DIFlagPrototyped | DIFlagStaticMember, spFlags: DISPFlagOptimized)
!203 = !DISubroutineType(types: !204)
!204 = !{!80, !205, !34, !148}
!205 = !DIDerivedType(tag: DW_TAG_typedef, name: "uintmax_t", scope: !80, file: !81, line: 28, baseType: !206)
!206 = !DIDerivedType(tag: DW_TAG_typedef, name: "uint64_t", file: !16, line: 27, baseType: !207)
!207 = !DIDerivedType(tag: DW_TAG_typedef, name: "__uint64_t", file: !18, line: 45, baseType: !56)
!208 = !DISubprogram(name: "data", linkageName: "_ZNK6String4dataEv", scope: !80, file: !81, line: 78, type: !209, scopeLine: 78, flags: DIFlagPublic | DIFlagPrototyped, spFlags: DISPFlagOptimized)
!209 = !DISubroutineType(types: !210)
!210 = !{!93, !211}
!211 = !DIDerivedType(tag: DW_TAG_pointer_type, baseType: !79, size: 64, flags: DIFlagArtificial | DIFlagObjectPointer)
!212 = !DISubprogram(name: "length", linkageName: "_ZNK6String6lengthEv", scope: !80, file: !81, line: 79, type: !213, scopeLine: 79, flags: DIFlagPublic | DIFlagPrototyped, spFlags: DISPFlagOptimized)
!213 = !DISubroutineType(types: !214)
!214 = !{!34, !211}
!215 = !DISubprogram(name: "c_str", linkageName: "_ZNK6String5c_strEv", scope: !80, file: !81, line: 81, type: !209, scopeLine: 81, flags: DIFlagPublic | DIFlagPrototyped, spFlags: DISPFlagOptimized)
!216 = !DISubprogram(name: "operator int (String::*)() const", linkageName: "_ZNK6StringcvMS_KFivEEv", scope: !80, file: !81, line: 83, type: !217, scopeLine: 83, flags: DIFlagPublic | DIFlagPrototyped, spFlags: DISPFlagOptimized)
!217 = !DISubroutineType(types: !218)
!218 = !{!219, !211}
!219 = !DIDerivedType(tag: DW_TAG_typedef, name: "unspecified_bool_type", scope: !80, file: !81, line: 24, baseType: !220)
!220 = !DIDerivedType(tag: DW_TAG_ptr_to_member_type, baseType: !213, size: 128, extraData: !80)
!221 = !DISubprogram(name: "empty", linkageName: "_ZNK6String5emptyEv", scope: !80, file: !81, line: 84, type: !222, scopeLine: 84, flags: DIFlagPublic | DIFlagPrototyped, spFlags: DISPFlagOptimized)
!222 = !DISubroutineType(types: !223)
!223 = !{!148, !211}
!224 = !DISubprogram(name: "operator!", linkageName: "_ZNK6StringntEv", scope: !80, file: !81, line: 85, type: !222, scopeLine: 85, flags: DIFlagPublic | DIFlagPrototyped, spFlags: DISPFlagOptimized)
!225 = !DISubprogram(name: "begin", linkageName: "_ZNK6String5beginEv", scope: !80, file: !81, line: 87, type: !226, scopeLine: 87, flags: DIFlagPublic | DIFlagPrototyped, spFlags: DISPFlagOptimized)
!226 = !DISubroutineType(types: !227)
!227 = !{!228, !211}
!228 = !DIDerivedType(tag: DW_TAG_typedef, name: "const_iterator", scope: !80, file: !81, line: 21, baseType: !93)
!229 = !DISubprogram(name: "end", linkageName: "_ZNK6String3endEv", scope: !80, file: !81, line: 88, type: !226, scopeLine: 88, flags: DIFlagPublic | DIFlagPrototyped, spFlags: DISPFlagOptimized)
!230 = !DISubprogram(name: "operator[]", linkageName: "_ZNK6StringixEi", scope: !80, file: !81, line: 90, type: !231, scopeLine: 90, flags: DIFlagPublic | DIFlagPrototyped, spFlags: DISPFlagOptimized)
!231 = !DISubroutineType(types: !232)
!232 = !{!86, !211, !34}
!233 = !DISubprogram(name: "at", linkageName: "_ZNK6String2atEi", scope: !80, file: !81, line: 91, type: !231, scopeLine: 91, flags: DIFlagPublic | DIFlagPrototyped, spFlags: DISPFlagOptimized)
!234 = !DISubprogram(name: "front", linkageName: "_ZNK6String5frontEv", scope: !80, file: !81, line: 92, type: !235, scopeLine: 92, flags: DIFlagPublic | DIFlagPrototyped, spFlags: DISPFlagOptimized)
!235 = !DISubroutineType(types: !236)
!236 = !{!86, !211}
!237 = !DISubprogram(name: "back", linkageName: "_ZNK6String4backEv", scope: !80, file: !81, line: 93, type: !235, scopeLine: 93, flags: DIFlagPublic | DIFlagPrototyped, spFlags: DISPFlagOptimized)
!238 = !DISubprogram(name: "hashcode", linkageName: "_ZN6String8hashcodeEPKcS1_", scope: !80, file: !81, line: 95, type: !239, scopeLine: 95, flags: DIFlagPublic | DIFlagPrototyped | DIFlagStaticMember, spFlags: DISPFlagOptimized)
!239 = !DISubroutineType(types: !240)
!240 = !{!40, !93, !93}
!241 = !DISubprogram(name: "hashcode", linkageName: "_ZN6String8hashcodeEPKhS1_", scope: !80, file: !81, line: 96, type: !242, scopeLine: 96, flags: DIFlagPublic | DIFlagPrototyped | DIFlagStaticMember, spFlags: DISPFlagOptimized)
!242 = !DISubroutineType(types: !243)
!243 = !{!40, !72, !72}
!244 = !DISubprogram(name: "hashcode", linkageName: "_ZNK6String8hashcodeEv", scope: !80, file: !81, line: 98, type: !245, scopeLine: 98, flags: DIFlagPublic | DIFlagPrototyped, spFlags: DISPFlagOptimized)
!245 = !DISubroutineType(types: !246)
!246 = !{!40, !211}
!247 = !DISubprogram(name: "substring", linkageName: "_ZNK6String9substringEPKcS1_", scope: !80, file: !81, line: 100, type: !248, scopeLine: 100, flags: DIFlagPublic | DIFlagPrototyped, spFlags: DISPFlagOptimized)
!248 = !DISubroutineType(types: !249)
!249 = !{!80, !211, !93, !93}
!250 = !DISubprogram(name: "substring", linkageName: "_ZNK6String9substringEii", scope: !80, file: !81, line: 101, type: !251, scopeLine: 101, flags: DIFlagPublic | DIFlagPrototyped, spFlags: DISPFlagOptimized)
!251 = !DISubroutineType(types: !252)
!252 = !{!80, !211, !34, !34}
!253 = !DISubprogram(name: "substring", linkageName: "_ZNK6String9substringEi", scope: !80, file: !81, line: 102, type: !254, scopeLine: 102, flags: DIFlagPublic | DIFlagPrototyped, spFlags: DISPFlagOptimized)
!254 = !DISubroutineType(types: !255)
!255 = !{!80, !211, !34}
!256 = !DISubprogram(name: "trim_space", linkageName: "_ZNK6String10trim_spaceEv", scope: !80, file: !81, line: 103, type: !257, scopeLine: 103, flags: DIFlagPublic | DIFlagPrototyped, spFlags: DISPFlagOptimized)
!257 = !DISubroutineType(types: !258)
!258 = !{!80, !211}
!259 = !DISubprogram(name: "equals", linkageName: "_ZNK6String6equalsERKS_", scope: !80, file: !81, line: 105, type: !260, scopeLine: 105, flags: DIFlagPublic | DIFlagPrototyped, spFlags: DISPFlagOptimized)
!260 = !DISubroutineType(types: !261)
!261 = !{!148, !211, !78}
!262 = !DISubprogram(name: "equals", linkageName: "_ZNK6String6equalsEPKci", scope: !80, file: !81, line: 106, type: !263, scopeLine: 106, flags: DIFlagPublic | DIFlagPrototyped, spFlags: DISPFlagOptimized)
!263 = !DISubroutineType(types: !264)
!264 = !{!148, !211, !93, !34}
!265 = !DISubprogram(name: "compare", linkageName: "_ZN6String7compareERKS_S1_", scope: !80, file: !81, line: 107, type: !266, scopeLine: 107, flags: DIFlagPublic | DIFlagPrototyped | DIFlagStaticMember, spFlags: DISPFlagOptimized)
!266 = !DISubroutineType(types: !267)
!267 = !{!34, !78, !78}
!268 = !DISubprogram(name: "compare", linkageName: "_ZNK6String7compareERKS_", scope: !80, file: !81, line: 108, type: !269, scopeLine: 108, flags: DIFlagPublic | DIFlagPrototyped, spFlags: DISPFlagOptimized)
!269 = !DISubroutineType(types: !270)
!270 = !{!34, !211, !78}
!271 = !DISubprogram(name: "compare", linkageName: "_ZNK6String7compareEPKci", scope: !80, file: !81, line: 109, type: !272, scopeLine: 109, flags: DIFlagPublic | DIFlagPrototyped, spFlags: DISPFlagOptimized)
!272 = !DISubroutineType(types: !273)
!273 = !{!34, !211, !93, !34}
!274 = !DISubprogram(name: "starts_with", linkageName: "_ZNK6String11starts_withERKS_", scope: !80, file: !81, line: 110, type: !260, scopeLine: 110, flags: DIFlagPublic | DIFlagPrototyped, spFlags: DISPFlagOptimized)
!275 = !DISubprogram(name: "starts_with", linkageName: "_ZNK6String11starts_withEPKci", scope: !80, file: !81, line: 111, type: !263, scopeLine: 111, flags: DIFlagPublic | DIFlagPrototyped, spFlags: DISPFlagOptimized)
!276 = !DISubprogram(name: "glob_match", linkageName: "_ZNK6String10glob_matchERKS_", scope: !80, file: !81, line: 112, type: !260, scopeLine: 112, flags: DIFlagPublic | DIFlagPrototyped, spFlags: DISPFlagOptimized)
!277 = !DISubprogram(name: "find_left", linkageName: "_ZNK6String9find_leftEci", scope: !80, file: !81, line: 125, type: !278, scopeLine: 125, flags: DIFlagPublic | DIFlagPrototyped, spFlags: DISPFlagOptimized)
!278 = !DISubroutineType(types: !279)
!279 = !{!34, !211, !86, !34}
!280 = !DISubprogram(name: "find_left", linkageName: "_ZNK6String9find_leftERKS_i", scope: !80, file: !81, line: 126, type: !281, scopeLine: 126, flags: DIFlagPublic | DIFlagPrototyped, spFlags: DISPFlagOptimized)
!281 = !DISubroutineType(types: !282)
!282 = !{!34, !211, !78, !34}
!283 = !DISubprogram(name: "find_right", linkageName: "_ZNK6String10find_rightEci", scope: !80, file: !81, line: 127, type: !278, scopeLine: 127, flags: DIFlagPublic | DIFlagPrototyped, spFlags: DISPFlagOptimized)
!284 = !DISubprogram(name: "lower", linkageName: "_ZNK6String5lowerEv", scope: !80, file: !81, line: 129, type: !257, scopeLine: 129, flags: DIFlagPublic | DIFlagPrototyped, spFlags: DISPFlagOptimized)
!285 = !DISubprogram(name: "upper", linkageName: "_ZNK6String5upperEv", scope: !80, file: !81, line: 130, type: !257, scopeLine: 130, flags: DIFlagPublic | DIFlagPrototyped, spFlags: DISPFlagOptimized)
!286 = !DISubprogram(name: "printable", linkageName: "_ZNK6String9printableEv", scope: !80, file: !81, line: 131, type: !257, scopeLine: 131, flags: DIFlagPublic | DIFlagPrototyped, spFlags: DISPFlagOptimized)
!287 = !DISubprogram(name: "quoted_hex", linkageName: "_ZNK6String10quoted_hexEv", scope: !80, file: !81, line: 132, type: !257, scopeLine: 132, flags: DIFlagPublic | DIFlagPrototyped, spFlags: DISPFlagOptimized)
!288 = !DISubprogram(name: "encode_json", linkageName: "_ZNK6String11encode_jsonEv", scope: !80, file: !81, line: 133, type: !257, scopeLine: 133, flags: DIFlagPublic | DIFlagPrototyped, spFlags: DISPFlagOptimized)
!289 = !DISubprogram(name: "operator=", linkageName: "_ZN6StringaSERKS_", scope: !80, file: !81, line: 135, type: !290, scopeLine: 135, flags: DIFlagPublic | DIFlagPrototyped, spFlags: DISPFlagOptimized)
!290 = !DISubroutineType(types: !291)
!291 = !{!292, !122, !78}
!292 = !DIDerivedType(tag: DW_TAG_reference_type, baseType: !80, size: 64)
!293 = !DISubprogram(name: "operator=", linkageName: "_ZN6StringaSEOS_", scope: !80, file: !81, line: 137, type: !294, scopeLine: 137, flags: DIFlagPublic | DIFlagPrototyped, spFlags: DISPFlagOptimized)
!294 = !DISubroutineType(types: !295)
!295 = !{!292, !122, !129}
!296 = !DISubprogram(name: "operator=", linkageName: "_ZN6StringaSEPKc", scope: !80, file: !81, line: 139, type: !297, scopeLine: 139, flags: DIFlagPublic | DIFlagPrototyped, spFlags: DISPFlagOptimized)
!297 = !DISubroutineType(types: !298)
!298 = !{!292, !122, !93}
!299 = !DISubprogram(name: "swap", linkageName: "_ZN6String4swapERS_", scope: !80, file: !81, line: 141, type: !300, scopeLine: 141, flags: DIFlagPublic | DIFlagPrototyped, spFlags: DISPFlagOptimized)
!300 = !DISubroutineType(types: !301)
!301 = !{null, !122, !292}
!302 = !DISubprogram(name: "append", linkageName: "_ZN6String6appendERKS_", scope: !80, file: !81, line: 143, type: !124, scopeLine: 143, flags: DIFlagPublic | DIFlagPrototyped, spFlags: DISPFlagOptimized)
!303 = !DISubprogram(name: "append", linkageName: "_ZN6String6appendEPKc", scope: !80, file: !81, line: 144, type: !131, scopeLine: 144, flags: DIFlagPublic | DIFlagPrototyped, spFlags: DISPFlagOptimized)
!304 = !DISubprogram(name: "append", linkageName: "_ZN6String6appendEPKci", scope: !80, file: !81, line: 145, type: !134, scopeLine: 145, flags: DIFlagPublic | DIFlagPrototyped, spFlags: DISPFlagOptimized)
!305 = !DISubprogram(name: "append", linkageName: "_ZN6String6appendEPKcS1_", scope: !80, file: !81, line: 146, type: !140, scopeLine: 146, flags: DIFlagPublic | DIFlagPrototyped, spFlags: DISPFlagOptimized)
!306 = !DISubprogram(name: "append", linkageName: "_ZN6String6appendEc", scope: !80, file: !81, line: 147, type: !150, scopeLine: 147, flags: DIFlagPublic | DIFlagPrototyped, spFlags: DISPFlagOptimized)
!307 = !DISubprogram(name: "append_fill", linkageName: "_ZN6String11append_fillEii", scope: !80, file: !81, line: 148, type: !308, scopeLine: 148, flags: DIFlagPublic | DIFlagPrototyped, spFlags: DISPFlagOptimized)
!308 = !DISubroutineType(types: !309)
!309 = !{null, !122, !34, !34}
!310 = !DISubprogram(name: "append_uninitialized", linkageName: "_ZN6String20append_uninitializedEi", scope: !80, file: !81, line: 149, type: !311, scopeLine: 149, flags: DIFlagPublic | DIFlagPrototyped, spFlags: DISPFlagOptimized)
!311 = !DISubroutineType(types: !312)
!312 = !{!313, !122, !34}
!313 = !DIDerivedType(tag: DW_TAG_pointer_type, baseType: !86, size: 64)
!314 = !DISubprogram(name: "append_garbage", linkageName: "_ZN6String14append_garbageEi", scope: !80, file: !81, line: 150, type: !311, scopeLine: 150, flags: DIFlagPublic | DIFlagPrototyped, spFlags: DISPFlagOptimized)
!315 = !DISubprogram(name: "operator+=", linkageName: "_ZN6StringpLERKS_", scope: !80, file: !81, line: 152, type: !290, scopeLine: 152, flags: DIFlagPublic | DIFlagPrototyped, spFlags: DISPFlagOptimized)
!316 = !DISubprogram(name: "operator+=", linkageName: "_ZN6StringpLEPKc", scope: !80, file: !81, line: 153, type: !297, scopeLine: 153, flags: DIFlagPublic | DIFlagPrototyped, spFlags: DISPFlagOptimized)
!317 = !DISubprogram(name: "operator+=", linkageName: "_ZN6StringpLEc", scope: !80, file: !81, line: 154, type: !318, scopeLine: 154, flags: DIFlagPublic | DIFlagPrototyped, spFlags: DISPFlagOptimized)
!318 = !DISubroutineType(types: !319)
!319 = !{!292, !122, !86}
!320 = !DISubprogram(name: "is_shared", linkageName: "_ZNK6String9is_sharedEv", scope: !80, file: !81, line: 160, type: !222, scopeLine: 160, flags: DIFlagPublic | DIFlagPrototyped, spFlags: DISPFlagOptimized)
!321 = !DISubprogram(name: "is_stable", linkageName: "_ZNK6String9is_stableEv", scope: !80, file: !81, line: 161, type: !222, scopeLine: 161, flags: DIFlagPublic | DIFlagPrototyped, spFlags: DISPFlagOptimized)
!322 = !DISubprogram(name: "unique", linkageName: "_ZNK6String6uniqueEv", scope: !80, file: !81, line: 163, type: !257, scopeLine: 163, flags: DIFlagPublic | DIFlagPrototyped, spFlags: DISPFlagOptimized)
!323 = !DISubprogram(name: "unshared", linkageName: "_ZNK6String8unsharedEv", scope: !80, file: !81, line: 164, type: !257, scopeLine: 164, flags: DIFlagPublic | DIFlagPrototyped, spFlags: DISPFlagOptimized)
!324 = !DISubprogram(name: "compact", linkageName: "_ZNK6String7compactEv", scope: !80, file: !81, line: 165, type: !257, scopeLine: 165, flags: DIFlagPublic | DIFlagPrototyped, spFlags: DISPFlagOptimized)
!325 = !DISubprogram(name: "mutable_data", linkageName: "_ZN6String12mutable_dataEv", scope: !80, file: !81, line: 167, type: !326, scopeLine: 167, flags: DIFlagPublic | DIFlagPrototyped, spFlags: DISPFlagOptimized)
!326 = !DISubroutineType(types: !327)
!327 = !{!313, !122}
!328 = !DISubprogram(name: "mutable_c_str", linkageName: "_ZN6String13mutable_c_strEv", scope: !80, file: !81, line: 168, type: !326, scopeLine: 168, flags: DIFlagPublic | DIFlagPrototyped, spFlags: DISPFlagOptimized)
!329 = !DISubprogram(name: "make_out_of_memory", linkageName: "_ZN6String18make_out_of_memoryEv", scope: !80, file: !81, line: 170, type: !181, scopeLine: 170, flags: DIFlagPublic | DIFlagPrototyped | DIFlagStaticMember, spFlags: DISPFlagOptimized)
!330 = !DISubprogram(name: "out_of_memory", linkageName: "_ZNK6String13out_of_memoryEv", scope: !80, file: !81, line: 171, type: !222, scopeLine: 171, flags: DIFlagPublic | DIFlagPrototyped, spFlags: DISPFlagOptimized)
!331 = !DISubprogram(name: "out_of_memory_data", linkageName: "_ZN6String18out_of_memory_dataEv", scope: !80, file: !81, line: 172, type: !332, scopeLine: 172, flags: DIFlagPublic | DIFlagPrototyped | DIFlagStaticMember, spFlags: DISPFlagOptimized)
!332 = !DISubroutineType(types: !333)
!333 = !{!93}
!334 = !DISubprogram(name: "out_of_memory_length", linkageName: "_ZN6String20out_of_memory_lengthEv", scope: !80, file: !81, line: 173, type: !335, scopeLine: 173, flags: DIFlagPublic | DIFlagPrototyped | DIFlagStaticMember, spFlags: DISPFlagOptimized)
!335 = !DISubroutineType(types: !336)
!336 = !{!34}
!337 = !DISubprogram(name: "empty_data", linkageName: "_ZN6String10empty_dataEv", scope: !80, file: !81, line: 174, type: !332, scopeLine: 174, flags: DIFlagPublic | DIFlagPrototyped | DIFlagStaticMember, spFlags: DISPFlagOptimized)
!338 = !DISubprogram(name: "skip_utf8_char", linkageName: "_ZN6String14skip_utf8_charEPKcS1_", scope: !80, file: !81, line: 180, type: !339, scopeLine: 180, flags: DIFlagPublic | DIFlagPrototyped | DIFlagStaticMember, spFlags: DISPFlagOptimized)
!339 = !DISubroutineType(types: !340)
!340 = !{!93, !93, !93}
!341 = !DISubprogram(name: "skip_utf8_char", linkageName: "_ZN6String14skip_utf8_charEPKhS1_", scope: !80, file: !81, line: 181, type: !342, scopeLine: 181, flags: DIFlagPublic | DIFlagPrototyped | DIFlagStaticMember, spFlags: DISPFlagOptimized)
!342 = !DISubroutineType(types: !343)
!343 = !{!72, !72, !72}
!344 = !DISubprogram(name: "assign_memo", linkageName: "_ZNK6String11assign_memoEPKciPNS_6memo_tE", scope: !80, file: !81, line: 256, type: !345, scopeLine: 256, flags: DIFlagPrototyped, spFlags: DISPFlagOptimized)
!345 = !DISubroutineType(types: !346)
!346 = !{null, !211, !93, !34, !96}
!347 = !DISubprogram(name: "String", scope: !80, file: !81, line: 263, type: !348, scopeLine: 263, flags: DIFlagPrototyped, spFlags: DISPFlagOptimized)
!348 = !DISubroutineType(types: !349)
!349 = !{null, !122, !93, !34, !96}
!350 = !DISubprogram(name: "assign", linkageName: "_ZNK6String6assignERKS_", scope: !80, file: !81, line: 267, type: !351, scopeLine: 267, flags: DIFlagPrototyped, spFlags: DISPFlagOptimized)
!351 = !DISubroutineType(types: !352)
!352 = !{null, !211, !78}
!353 = !DISubprogram(name: "deref", linkageName: "_ZNK6String5derefEv", scope: !80, file: !81, line: 271, type: !354, scopeLine: 271, flags: DIFlagPrototyped, spFlags: DISPFlagOptimized)
!354 = !DISubroutineType(types: !355)
!355 = !{null, !211}
!356 = !DISubprogram(name: "assign", linkageName: "_ZN6String6assignEPKcib", scope: !80, file: !81, line: 280, type: !357, scopeLine: 280, flags: DIFlagPrototyped, spFlags: DISPFlagOptimized)
!357 = !DISubroutineType(types: !358)
!358 = !{null, !122, !93, !34, !148}
!359 = !DISubprogram(name: "assign_out_of_memory", linkageName: "_ZN6String20assign_out_of_memoryEv", scope: !80, file: !81, line: 281, type: !120, scopeLine: 281, flags: DIFlagPrototyped, spFlags: DISPFlagOptimized)
!360 = !DISubprogram(name: "append", linkageName: "_ZN6String6appendEPKciPNS_6memo_tE", scope: !80, file: !81, line: 282, type: !348, scopeLine: 282, flags: DIFlagPrototyped, spFlags: DISPFlagOptimized)
!361 = !DISubprogram(name: "hard_make_stable", linkageName: "_ZN6String16hard_make_stableEPKci", scope: !80, file: !81, line: 283, type: !191, scopeLine: 283, flags: DIFlagPrototyped | DIFlagStaticMember, spFlags: DISPFlagOptimized)
!362 = !DISubprogram(name: "absent_memo", linkageName: "_ZN6String11absent_memoEv", scope: !80, file: !81, line: 284, type: !363, scopeLine: 284, flags: DIFlagPrototyped | DIFlagStaticMember, spFlags: DISPFlagOptimized)
!363 = !DISubroutineType(types: !364)
!364 = !{!96}
!365 = !DISubprogram(name: "create_memo", linkageName: "_ZN6String11create_memoEPcii", scope: !80, file: !81, line: 287, type: !366, scopeLine: 287, flags: DIFlagPrototyped | DIFlagStaticMember, spFlags: DISPFlagOptimized)
!366 = !DISubroutineType(types: !367)
!367 = !{!96, !313, !34, !34}
!368 = !DISubprogram(name: "delete_memo", linkageName: "_ZN6String11delete_memoEPNS_6memo_tE", scope: !80, file: !81, line: 288, type: !369, scopeLine: 288, flags: DIFlagPrototyped | DIFlagStaticMember, spFlags: DISPFlagOptimized)
!369 = !DISubroutineType(types: !370)
!370 = !{null, !96}
!371 = !DISubprogram(name: "hard_c_str", linkageName: "_ZNK6String10hard_c_strEv", scope: !80, file: !81, line: 289, type: !209, scopeLine: 289, flags: DIFlagPrototyped, spFlags: DISPFlagOptimized)
!372 = !DISubprogram(name: "hard_equals", linkageName: "_ZNK6String11hard_equalsEPKci", scope: !80, file: !81, line: 290, type: !263, scopeLine: 290, flags: DIFlagPrototyped, spFlags: DISPFlagOptimized)
!373 = !DISubprogram(name: "make_claim", linkageName: "_ZN6String10make_claimEPcii", scope: !80, file: !81, line: 299, type: !374, scopeLine: 299, flags: DIFlagPrototyped | DIFlagStaticMember, spFlags: DISPFlagOptimized)
!374 = !DISubroutineType(types: !375)
!375 = !{!80, !313, !34, !34}
!376 = !DISubprogram(name: "IPAddress", scope: !36, file: !37, line: 66, type: !377, scopeLine: 66, flags: DIFlagPublic | DIFlagPrototyped, spFlags: DISPFlagOptimized)
!377 = !DISubroutineType(types: !378)
!378 = !{null, !46, !379}
!379 = !DIDerivedType(tag: DW_TAG_reference_type, baseType: !380, size: 64)
!380 = !DIDerivedType(tag: DW_TAG_const_type, baseType: !381)
!381 = distinct !DICompositeType(tag: DW_TAG_structure_type, name: "uninitialized_type", file: !382, line: 317, size: 8, flags: DIFlagTypePassByValue, elements: !383, identifier: "_ZTS18uninitialized_type")
!382 = !DIFile(filename: "../dummy_inc/click/config.h", directory: "/home/john/projects/click/ir-dir")
!383 = !{}
!384 = !DISubprogram(name: "make_prefix", linkageName: "_ZN9IPAddress11make_prefixEi", scope: !36, file: !37, line: 78, type: !385, scopeLine: 78, flags: DIFlagPublic | DIFlagPrototyped | DIFlagStaticMember, spFlags: DISPFlagOptimized)
!385 = !DISubroutineType(types: !386)
!386 = !{!36, !34}
!387 = !DISubprogram(name: "make_broadcast", linkageName: "_ZN9IPAddress14make_broadcastEv", scope: !36, file: !37, line: 81, type: !388, scopeLine: 81, flags: DIFlagPublic | DIFlagPrototyped | DIFlagStaticMember, spFlags: DISPFlagOptimized)
!388 = !DISubroutineType(types: !389)
!389 = !{!36}
!390 = !DISubprogram(name: "empty", linkageName: "_ZNK9IPAddress5emptyEv", scope: !36, file: !37, line: 86, type: !391, scopeLine: 86, flags: DIFlagPublic | DIFlagPrototyped, spFlags: DISPFlagOptimized)
!391 = !DISubroutineType(types: !392)
!392 = !{!148, !393}
!393 = !DIDerivedType(tag: DW_TAG_pointer_type, baseType: !394, size: 64, flags: DIFlagArtificial | DIFlagObjectPointer)
!394 = !DIDerivedType(tag: DW_TAG_const_type, baseType: !36)
!395 = !DISubprogram(name: "addr", linkageName: "_ZNK9IPAddress4addrEv", scope: !36, file: !37, line: 91, type: !396, scopeLine: 91, flags: DIFlagPublic | DIFlagPrototyped, spFlags: DISPFlagOptimized)
!396 = !DISubroutineType(types: !397)
!397 = !{!40, !393}
!398 = !DISubprogram(name: "operator unsigned int", linkageName: "_ZNK9IPAddresscvjEv", scope: !36, file: !37, line: 99, type: !396, scopeLine: 99, flags: DIFlagPublic | DIFlagPrototyped, spFlags: DISPFlagOptimized)
!399 = !DISubprogram(name: "is_multicast", linkageName: "_ZNK9IPAddress12is_multicastEv", scope: !36, file: !37, line: 106, type: !391, scopeLine: 106, flags: DIFlagPublic | DIFlagPrototyped, spFlags: DISPFlagOptimized)
!400 = !DISubprogram(name: "is_link_local", linkageName: "_ZNK9IPAddress13is_link_localEv", scope: !36, file: !37, line: 110, type: !391, scopeLine: 110, flags: DIFlagPublic | DIFlagPrototyped, spFlags: DISPFlagOptimized)
!401 = !DISubprogram(name: "in_addr", linkageName: "_ZNK9IPAddress7in_addrEv", scope: !36, file: !37, line: 114, type: !402, scopeLine: 114, flags: DIFlagPublic | DIFlagPrototyped, spFlags: DISPFlagOptimized)
!402 = !DISubroutineType(types: !403)
!403 = !{!64, !393}
!404 = !DISubprogram(name: "operator in_addr", linkageName: "_ZNK9IPAddresscv7in_addrEv", scope: !36, file: !37, line: 115, type: !402, scopeLine: 115, flags: DIFlagPublic | DIFlagPrototyped, spFlags: DISPFlagOptimized)
!405 = !DISubprogram(name: "data", linkageName: "_ZN9IPAddress4dataEv", scope: !36, file: !37, line: 117, type: !406, scopeLine: 117, flags: DIFlagPublic | DIFlagPrototyped, spFlags: DISPFlagOptimized)
!406 = !DISubroutineType(types: !407)
!407 = !{!408, !46}
!408 = !DIDerivedType(tag: DW_TAG_pointer_type, baseType: !74, size: 64)
!409 = !DISubprogram(name: "data", linkageName: "_ZNK9IPAddress4dataEv", scope: !36, file: !37, line: 118, type: !410, scopeLine: 118, flags: DIFlagPublic | DIFlagPrototyped, spFlags: DISPFlagOptimized)
!410 = !DISubroutineType(types: !411)
!411 = !{!72, !393}
!412 = !DISubprogram(name: "hashcode", linkageName: "_ZNK9IPAddress8hashcodeEv", scope: !36, file: !37, line: 120, type: !396, scopeLine: 120, flags: DIFlagPublic | DIFlagPrototyped, spFlags: DISPFlagOptimized)
!413 = !DISubprogram(name: "mask_to_prefix_len", linkageName: "_ZNK9IPAddress18mask_to_prefix_lenEv", scope: !36, file: !37, line: 122, type: !414, scopeLine: 122, flags: DIFlagPublic | DIFlagPrototyped, spFlags: DISPFlagOptimized)
!414 = !DISubroutineType(types: !415)
!415 = !{!34, !393}
!416 = !DISubprogram(name: "matches_prefix", linkageName: "_ZNK9IPAddress14matches_prefixES_S_", scope: !36, file: !37, line: 123, type: !417, scopeLine: 123, flags: DIFlagPublic | DIFlagPrototyped, spFlags: DISPFlagOptimized)
!417 = !DISubroutineType(types: !418)
!418 = !{!148, !393, !36, !36}
!419 = !DISubprogram(name: "mask_as_specific", linkageName: "_ZNK9IPAddress16mask_as_specificES_", scope: !36, file: !37, line: 124, type: !420, scopeLine: 124, flags: DIFlagPublic | DIFlagPrototyped, spFlags: DISPFlagOptimized)
!420 = !DISubroutineType(types: !421)
!421 = !{!148, !393, !36}
!422 = !DISubprogram(name: "mask_more_specific", linkageName: "_ZNK9IPAddress18mask_more_specificES_", scope: !36, file: !37, line: 125, type: !420, scopeLine: 125, flags: DIFlagPublic | DIFlagPrototyped, spFlags: DISPFlagOptimized)
!423 = !DISubprogram(name: "operator&=", linkageName: "_ZN9IPAddressaNES_", scope: !36, file: !37, line: 137, type: !424, scopeLine: 137, flags: DIFlagPublic | DIFlagPrototyped, spFlags: DISPFlagOptimized)
!424 = !DISubroutineType(types: !425)
!425 = !{!426, !46, !36}
!426 = !DIDerivedType(tag: DW_TAG_reference_type, baseType: !36, size: 64)
!427 = !DISubprogram(name: "operator|=", linkageName: "_ZN9IPAddressoRES_", scope: !36, file: !37, line: 138, type: !424, scopeLine: 138, flags: DIFlagPublic | DIFlagPrototyped, spFlags: DISPFlagOptimized)
!428 = !DISubprogram(name: "operator^=", linkageName: "_ZN9IPAddresseOES_", scope: !36, file: !37, line: 139, type: !424, scopeLine: 139, flags: DIFlagPublic | DIFlagPrototyped, spFlags: DISPFlagOptimized)
!429 = !DISubprogram(name: "unparse", linkageName: "_ZNK9IPAddress7unparseEv", scope: !36, file: !37, line: 141, type: !430, scopeLine: 141, flags: DIFlagPublic | DIFlagPrototyped, spFlags: DISPFlagOptimized)
!430 = !DISubroutineType(types: !431)
!431 = !{!80, !393}
!432 = !DISubprogram(name: "unparse_mask", linkageName: "_ZNK9IPAddress12unparse_maskEv", scope: !36, file: !37, line: 142, type: !430, scopeLine: 142, flags: DIFlagPublic | DIFlagPrototyped, spFlags: DISPFlagOptimized)
!433 = !DISubprogram(name: "unparse_with_mask", linkageName: "_ZNK9IPAddress17unparse_with_maskES_", scope: !36, file: !37, line: 143, type: !434, scopeLine: 143, flags: DIFlagPublic | DIFlagPrototyped, spFlags: DISPFlagOptimized)
!434 = !DISubroutineType(types: !435)
!435 = !{!80, !393, !36}
!436 = !DISubprogram(name: "s", linkageName: "_ZNK9IPAddress1sEv", scope: !36, file: !37, line: 145, type: !430, scopeLine: 145, flags: DIFlagPublic | DIFlagPrototyped, spFlags: DISPFlagOptimized)
!437 = !DISubprogram(name: "operator String", linkageName: "_ZNK9IPAddresscv6StringEv", scope: !36, file: !37, line: 146, type: !430, scopeLine: 146, flags: DIFlagPublic | DIFlagPrototyped, spFlags: DISPFlagOptimized)
!438 = !DIDerivedType(tag: DW_TAG_member, name: "port", scope: !23, file: !4, line: 130, baseType: !26, size: 16, offset: 96)
!439 = !DIDerivedType(tag: DW_TAG_member, name: "padding", scope: !23, file: !4, line: 131, baseType: !26, size: 16, offset: 112)
!440 = !DIDerivedType(tag: DW_TAG_member, name: "_rtable", scope: !11, file: !4, line: 141, baseType: !441, size: 64, offset: 192)
!441 = !DIDerivedType(tag: DW_TAG_pointer_type, baseType: !442, size: 64)
!442 = distinct !DICompositeType(tag: DW_TAG_structure_type, name: "CleartextEntry", scope: !5, file: !4, line: 117, size: 128, flags: DIFlagTypePassByValue, elements: !443, identifier: "_ZTSN14DirectIPLookup14CleartextEntryE")
!443 = !{!444, !445, !446, !447, !448}
!444 = !DIDerivedType(tag: DW_TAG_member, name: "ll_next", scope: !442, file: !4, line: 118, baseType: !34, size: 32)
!445 = !DIDerivedType(tag: DW_TAG_member, name: "ll_prev", scope: !442, file: !4, line: 119, baseType: !34, size: 32, offset: 32)
!446 = !DIDerivedType(tag: DW_TAG_member, name: "prefix", scope: !442, file: !4, line: 120, baseType: !40, size: 32, offset: 64)
!447 = !DIDerivedType(tag: DW_TAG_member, name: "plen", scope: !442, file: !4, line: 121, baseType: !15, size: 16, offset: 96)
!448 = !DIDerivedType(tag: DW_TAG_member, name: "vport", scope: !442, file: !4, line: 122, baseType: !26, size: 16, offset: 112)
!449 = !DIDerivedType(tag: DW_TAG_member, name: "_rt_hashtbl", scope: !11, file: !4, line: 142, baseType: !450, size: 64, offset: 256)
!450 = !DIDerivedType(tag: DW_TAG_pointer_type, baseType: !34, size: 64)
!451 = !DIDerivedType(tag: DW_TAG_member, name: "_tbl_0_23_plen", scope: !11, file: !4, line: 143, baseType: !452, size: 64, offset: 320)
!452 = !DIDerivedType(tag: DW_TAG_pointer_type, baseType: !453, size: 64)
!453 = !DIDerivedType(tag: DW_TAG_typedef, name: "uint8_t", file: !16, line: 24, baseType: !454)
!454 = !DIDerivedType(tag: DW_TAG_typedef, name: "__uint8_t", file: !18, line: 38, baseType: !74)
!455 = !DIDerivedType(tag: DW_TAG_member, name: "_tbl_24_31_plen", scope: !11, file: !4, line: 144, baseType: !452, size: 64, offset: 384)
!456 = !DIDerivedType(tag: DW_TAG_member, name: "_rtable_size", scope: !11, file: !4, line: 146, baseType: !40, size: 32, offset: 448)
!457 = !DIDerivedType(tag: DW_TAG_member, name: "_tbl_24_31_size", scope: !11, file: !4, line: 147, baseType: !40, size: 32, offset: 480)
!458 = !DIDerivedType(tag: DW_TAG_member, name: "_vport_size", scope: !11, file: !4, line: 148, baseType: !40, size: 32, offset: 512)
!459 = !DIDerivedType(tag: DW_TAG_member, name: "_rt_empty_head", scope: !11, file: !4, line: 149, baseType: !34, size: 32, offset: 544)
!460 = !DIDerivedType(tag: DW_TAG_member, name: "_tbl_24_31_empty_head", scope: !11, file: !4, line: 150, baseType: !15, size: 16, offset: 576)
!461 = !DIDerivedType(tag: DW_TAG_member, name: "_vport_head", scope: !11, file: !4, line: 151, baseType: !34, size: 32, offset: 608)
!462 = !DIDerivedType(tag: DW_TAG_member, name: "_vport_empty_head", scope: !11, file: !4, line: 152, baseType: !34, size: 32, offset: 640)
!463 = !DIDerivedType(tag: DW_TAG_member, name: "_rtable_capacity", scope: !11, file: !4, line: 154, baseType: !40, size: 32, offset: 672)
!464 = !DIDerivedType(tag: DW_TAG_member, name: "_tbl_24_31_capacity", scope: !11, file: !4, line: 155, baseType: !40, size: 32, offset: 704)
!465 = !DIDerivedType(tag: DW_TAG_member, name: "_vport_capacity", scope: !11, file: !4, line: 156, baseType: !40, size: 32, offset: 736)
!466 = !DISubprogram(name: "Table", scope: !11, file: !4, line: 158, type: !467, scopeLine: 158, flags: DIFlagPrototyped, spFlags: DISPFlagOptimized)
!467 = !DISubroutineType(types: !468)
!468 = !{null, !469}
!469 = !DIDerivedType(tag: DW_TAG_pointer_type, baseType: !11, size: 64, flags: DIFlagArtificial | DIFlagObjectPointer)
!470 = !DISubprogram(name: "~Table", scope: !11, file: !4, line: 163, type: !467, scopeLine: 163, flags: DIFlagPrototyped, spFlags: DISPFlagOptimized)
!471 = !DISubprogram(name: "initialize", linkageName: "_ZN14DirectIPLookup5Table10initializeEv", scope: !11, file: !4, line: 167, type: !472, scopeLine: 167, flags: DIFlagPrototyped, spFlags: DISPFlagOptimized)
!472 = !DISubroutineType(types: !473)
!473 = !{!34, !469}
!474 = !DISubprogram(name: "cleanup", linkageName: "_ZN14DirectIPLookup5Table7cleanupEv", scope: !11, file: !4, line: 168, type: !467, scopeLine: 168, flags: DIFlagPrototyped, spFlags: DISPFlagOptimized)
!475 = !DISubprogram(name: "prefix_hash", linkageName: "_ZN14DirectIPLookup5Table11prefix_hashEjj", scope: !11, file: !4, line: 170, type: !476, scopeLine: 170, flags: DIFlagPrototyped | DIFlagStaticMember, spFlags: DISPFlagOptimized)
!476 = !DISubroutineType(types: !477)
!477 = !{!40, !40, !40}
!478 = !DISubprogram(name: "find_entry", linkageName: "_ZNK14DirectIPLookup5Table10find_entryEjj", scope: !11, file: !4, line: 172, type: !479, scopeLine: 172, flags: DIFlagPrototyped, spFlags: DISPFlagOptimized)
!479 = !DISubroutineType(types: !480)
!480 = !{!34, !481, !40, !40}
!481 = !DIDerivedType(tag: DW_TAG_pointer_type, baseType: !482, size: 64, flags: DIFlagArtificial | DIFlagObjectPointer)
!482 = !DIDerivedType(tag: DW_TAG_const_type, baseType: !11)
!483 = !DISubprogram(name: "dump", linkageName: "_ZNK14DirectIPLookup5Table4dumpEv", scope: !11, file: !4, line: 173, type: !484, scopeLine: 173, flags: DIFlagPrototyped, spFlags: DISPFlagOptimized)
!484 = !DISubroutineType(types: !485)
!485 = !{!80, !481}
!486 = !DISubprogram(name: "vport_find", linkageName: "_ZN14DirectIPLookup5Table10vport_findE9IPAddresss", scope: !11, file: !4, line: 175, type: !487, scopeLine: 175, flags: DIFlagPrototyped, spFlags: DISPFlagOptimized)
!487 = !DISubroutineType(types: !488)
!488 = !{!34, !469, !36, !26}
!489 = !DISubprogram(name: "vport_unref", linkageName: "_ZN14DirectIPLookup5Table11vport_unrefEt", scope: !11, file: !4, line: 176, type: !490, scopeLine: 176, flags: DIFlagPrototyped, spFlags: DISPFlagOptimized)
!490 = !DISubroutineType(types: !491)
!491 = !{null, !469, !15}
!492 = !DISubprogram(name: "add_route", linkageName: "_ZN14DirectIPLookup5Table9add_routeERK7IPRoutebPS1_P12ErrorHandler", scope: !11, file: !4, line: 178, type: !493, scopeLine: 178, flags: DIFlagPrototyped, spFlags: DISPFlagOptimized)
!493 = !DISubroutineType(types: !494)
!494 = !{!34, !469, !495, !148, !689, !690}
!495 = !DIDerivedType(tag: DW_TAG_reference_type, baseType: !496, size: 64)
!496 = !DIDerivedType(tag: DW_TAG_const_type, baseType: !497)
!497 = distinct !DICompositeType(tag: DW_TAG_structure_type, name: "IPRoute", file: !9, line: 163, size: 160, flags: DIFlagTypePassByValue | DIFlagNonTrivial, elements: !498, identifier: "_ZTS7IPRoute")
!498 = !{!499, !500, !501, !502, !503, !504, !508, !511, !515, !516, !519, !522, !523, !524, !525, !528, !685, !688}
!499 = !DIDerivedType(tag: DW_TAG_member, name: "addr", scope: !497, file: !9, line: 164, baseType: !36, size: 32)
!500 = !DIDerivedType(tag: DW_TAG_member, name: "mask", scope: !497, file: !9, line: 165, baseType: !36, size: 32, offset: 32)
!501 = !DIDerivedType(tag: DW_TAG_member, name: "gw", scope: !497, file: !9, line: 166, baseType: !36, size: 32, offset: 64)
!502 = !DIDerivedType(tag: DW_TAG_member, name: "port", scope: !497, file: !9, line: 167, baseType: !32, size: 32, offset: 96)
!503 = !DIDerivedType(tag: DW_TAG_member, name: "extra", scope: !497, file: !9, line: 168, baseType: !32, size: 32, offset: 128)
!504 = !DISubprogram(name: "IPRoute", scope: !497, file: !9, line: 170, type: !505, scopeLine: 170, flags: DIFlagPrototyped, spFlags: DISPFlagOptimized)
!505 = !DISubroutineType(types: !506)
!506 = !{null, !507}
!507 = !DIDerivedType(tag: DW_TAG_pointer_type, baseType: !497, size: 64, flags: DIFlagArtificial | DIFlagObjectPointer)
!508 = !DISubprogram(name: "IPRoute", scope: !497, file: !9, line: 171, type: !509, scopeLine: 171, flags: DIFlagPrototyped, spFlags: DISPFlagOptimized)
!509 = !DISubroutineType(types: !510)
!510 = !{null, !507, !36, !36, !36, !34}
!511 = !DISubprogram(name: "real", linkageName: "_ZNK7IPRoute4realEv", scope: !497, file: !9, line: 174, type: !512, scopeLine: 174, flags: DIFlagPrototyped, spFlags: DISPFlagOptimized)
!512 = !DISubroutineType(types: !513)
!513 = !{!148, !514}
!514 = !DIDerivedType(tag: DW_TAG_pointer_type, baseType: !496, size: 64, flags: DIFlagArtificial | DIFlagObjectPointer)
!515 = !DISubprogram(name: "kill", linkageName: "_ZN7IPRoute4killEv", scope: !497, file: !9, line: 175, type: !505, scopeLine: 175, flags: DIFlagPrototyped, spFlags: DISPFlagOptimized)
!516 = !DISubprogram(name: "contains", linkageName: "_ZNK7IPRoute8containsE9IPAddress", scope: !497, file: !9, line: 176, type: !517, scopeLine: 176, flags: DIFlagPrototyped, spFlags: DISPFlagOptimized)
!517 = !DISubroutineType(types: !518)
!518 = !{!148, !514, !36}
!519 = !DISubprogram(name: "contains", linkageName: "_ZNK7IPRoute8containsERKS_", scope: !497, file: !9, line: 177, type: !520, scopeLine: 177, flags: DIFlagPrototyped, spFlags: DISPFlagOptimized)
!520 = !DISubroutineType(types: !521)
!521 = !{!148, !514, !495}
!522 = !DISubprogram(name: "mask_as_specific", linkageName: "_ZNK7IPRoute16mask_as_specificE9IPAddress", scope: !497, file: !9, line: 178, type: !517, scopeLine: 178, flags: DIFlagPrototyped, spFlags: DISPFlagOptimized)
!523 = !DISubprogram(name: "mask_as_specific", linkageName: "_ZNK7IPRoute16mask_as_specificERKS_", scope: !497, file: !9, line: 179, type: !520, scopeLine: 179, flags: DIFlagPrototyped, spFlags: DISPFlagOptimized)
!524 = !DISubprogram(name: "match", linkageName: "_ZNK7IPRoute5matchERKS_", scope: !497, file: !9, line: 180, type: !520, scopeLine: 180, flags: DIFlagPrototyped, spFlags: DISPFlagOptimized)
!525 = !DISubprogram(name: "prefix_len", linkageName: "_ZNK7IPRoute10prefix_lenEv", scope: !497, file: !9, line: 181, type: !526, scopeLine: 181, flags: DIFlagPrototyped, spFlags: DISPFlagOptimized)
!526 = !DISubroutineType(types: !527)
!527 = !{!34, !514}
!528 = !DISubprogram(name: "unparse", linkageName: "_ZNK7IPRoute7unparseER11StringAccumb", scope: !497, file: !9, line: 183, type: !529, scopeLine: 183, flags: DIFlagPrototyped, spFlags: DISPFlagOptimized)
!529 = !DISubroutineType(types: !530)
!530 = !{!531, !514, !531, !148}
!531 = !DIDerivedType(tag: DW_TAG_reference_type, baseType: !532, size: 64)
!532 = distinct !DICompositeType(tag: DW_TAG_class_type, name: "StringAccum", file: !533, line: 28, size: 128, flags: DIFlagTypePassByReference | DIFlagNonTrivial, elements: !534, identifier: "_ZTS11StringAccum")
!533 = !DIFile(filename: "../dummy_inc/click/straccum.hh", directory: "/home/john/projects/click/ir-dir")
!534 = !{!535, !548, !552, !555, !558, !563, !567, !568, !571, !574, !578, !581, !584, !585, !588, !593, !596, !597, !601, !605, !606, !607, !610, !614, !617, !620, !621, !622, !623, !624, !625, !628, !629, !632, !633, !636, !637, !640, !643, !646, !649, !652, !655, !658, !661, !664, !667, !670, !673, !676, !679, !680, !681, !682, !683, !684}
!535 = !DIDerivedType(tag: DW_TAG_member, name: "r_", scope: !532, file: !533, line: 124, baseType: !536, size: 128)
!536 = distinct !DICompositeType(tag: DW_TAG_structure_type, name: "rep_t", scope: !532, file: !533, line: 112, size: 128, flags: DIFlagTypePassByValue | DIFlagNonTrivial, elements: !537, identifier: "_ZTSN11StringAccum5rep_tE")
!537 = !{!538, !539, !540, !541, !545}
!538 = !DIDerivedType(tag: DW_TAG_member, name: "s", scope: !536, file: !533, line: 113, baseType: !408, size: 64)
!539 = !DIDerivedType(tag: DW_TAG_member, name: "len", scope: !536, file: !533, line: 114, baseType: !34, size: 32, offset: 64)
!540 = !DIDerivedType(tag: DW_TAG_member, name: "cap", scope: !536, file: !533, line: 115, baseType: !34, size: 32, offset: 96)
!541 = !DISubprogram(name: "rep_t", scope: !536, file: !533, line: 116, type: !542, scopeLine: 116, flags: DIFlagPrototyped, spFlags: DISPFlagOptimized)
!542 = !DISubroutineType(types: !543)
!543 = !{null, !544}
!544 = !DIDerivedType(tag: DW_TAG_pointer_type, baseType: !536, size: 64, flags: DIFlagArtificial | DIFlagObjectPointer)
!545 = !DISubprogram(name: "rep_t", scope: !536, file: !533, line: 120, type: !546, scopeLine: 120, flags: DIFlagExplicit | DIFlagPrototyped, spFlags: DISPFlagOptimized)
!546 = !DISubroutineType(types: !547)
!547 = !{null, !544, !381}
!548 = !DISubprogram(name: "StringAccum", scope: !532, file: !533, line: 35, type: !549, scopeLine: 35, flags: DIFlagPublic | DIFlagPrototyped, spFlags: DISPFlagOptimized)
!549 = !DISubroutineType(types: !550)
!550 = !{null, !551}
