; ModuleID = '../elements/ip/ipfilter.cc'
source_filename = "../elements/ip/ipfilter.cc"
target datalayout = "e-m:e-p270:32:32-p271:32:32-p272:64:64-i64:64-f80:128-n8:16:32:64-S128"
target triple = "x86_64-pc-linux-gnu"

%"struct.StaticNameDB::Entry" = type { i8*, i32 }
%class.ArgContext = type <{ %class.Element*, %class.ErrorHandler*, i8*, i8, [7 x i8] }>
%class.Element = type <{ i32 (...)**, [2 x %"class.Element::Port"*], [4 x %"class.Element::Port"], [2 x i32], %class.Router*, i32, [4 x i8] }>
%"class.Element::Port" = type <{ %class.Element*, i32, [4 x i8] }>
%class.Router = type opaque
%class.ErrorHandler = type <{ i32 (...)**, i32, [4 x i8] }>
%class.NameDB = type { i32 (...)**, i32, %class.String, i64, %class.NameDB*, %class.NameDB*, %class.NameDB*, %class.NameInfo* }
%class.String = type { %"struct.String::rep_t" }
%"struct.String::rep_t" = type { i8*, i32, %"struct.String::memo_t"* }
%"struct.String::memo_t" = type { i32, i32, i32, [8 x i8] }
%class.NameInfo = type { %class.Vector, %class.Vector }
%class.Vector = type { %class.vector_memory }
%class.vector_memory = type { %struct.char_array*, i32, i32 }
%struct.char_array = type { [8 x i8] }
%class.IPFilter = type { %class.Element.base, [4 x i8], %"class.Classification::Wordwise::CompressedProgram" }
%class.Element.base = type <{ i32 (...)**, [2 x %"class.Element::Port"*], [4 x %"class.Element::Port"], [2 x i32], %class.Router*, i32 }>
%"class.Classification::Wordwise::CompressedProgram" = type <{ %class.Vector.0, i32, i32, i32, [4 x i8] }>
%class.Vector.0 = type { %class.vector_memory.1 }
%class.vector_memory.1 = type { %struct.char_array.2*, i32, i32 }
%struct.char_array.2 = type { [4 x i8] }
%class.StringAccum = type { %"struct.StringAccum::rep_t" }
%"struct.StringAccum::rep_t" = type { i8*, i32, i32 }
%"struct.IPFilter::Primitive" = type { i32, i32, i32, i8, i32, i32, %"union.IPFilter::PrimitiveData", %"union.IPFilter::PrimitiveData" }
%"union.IPFilter::PrimitiveData" = type { i32, [4 x i8] }
%"class.Classification::Wordwise::Program" = type <{ %class.Vector.3, i32, i32, i32, [4 x i8] }>
%class.Vector.3 = type { %class.vector_memory.4 }
%class.vector_memory.4 = type { %struct.char_array.5*, i32, i32 }
%struct.char_array.5 = type { [20 x i8] }
%class.Vector.6 = type { %class.vector_memory.1 }
%"struct.IPFilter::Parser" = type { %class.Vector.7*, %class.Vector.6*, %"class.Classification::Wordwise::Program"*, %class.Element*, %class.ErrorHandler*, %"struct.IPFilter::Primitive" }
%class.Vector.7 = type { %class.vector_memory.8 }
%class.vector_memory.8 = type { %class.String*, i32, i32 }
%class.Vector.9 = type { %class.vector_memory }
%"struct.IPFilter::Parser::parse_state" = type { i32, i32 }
%class.IntArg = type { i32, i32 }
%class.IPPrefixArg = type { i8 }
%class.IPAddress = type { i32 }
%class.EtherAddressArg = type { i32 }
%class.EtherAddress = type { [3 x i16] }
%class.Vector.10 = type { %class.vector_memory.11 }
%class.vector_memory.11 = type { %"class.Classification::Wordwise::Program"*, i32, i32 }
%class.PrefixErrorHandler = type { %class.ErrorVeneer, %class.String }
%class.ErrorVeneer = type { %class.ErrorHandler.base, %class.ErrorHandler* }
%class.ErrorHandler.base = type <{ i32 (...)**, i32 }>
%class.Packet = type { %class.atomic_uint32_t, %class.Packet*, i8*, i8*, i8*, i8*, %"struct.Packet::AllAnno", void (i8*, i64, i8*)*, i8* }
%class.atomic_uint32_t = type { i32 }
%"struct.Packet::AllAnno" = type { %"union.Packet::Anno", i8*, i8*, i8*, i32, [8 x i8], %class.Packet*, %class.Packet* }
%"union.Packet::Anno" = type { [6 x i64] }
%class.Task = type opaque
%class.Timer = type opaque

$_ZNK7Element8noutputsEv = comdat any

$_ZNK7Element19checked_output_pushEiP6Packet = comdat any

$_ZN8IPFilter5matchERKN14Classification8Wordwise17CompressedProgramEPK6Packet = comdat any

$_ZNK8IPFilter10class_nameEv = comdat any

$_ZNK8IPFilter10port_countEv = comdat any

$_ZNK8IPFilter10processingEv = comdat any

$_ZNK8IPFilter5flagsEv = comdat any

$_ZNK8IPFilter20can_live_reconfigureEv = comdat any

$_ZNK11StringAccum8capacityEv = comdat any

$_ZNK6String6lengthEv = comdat any

$__clang_call_terminate = comdat any

$_Z4findIcEPKT_S2_S2_RS1_ = comdat any

$_ZN13vector_memoryI18typed_array_memoryI6StringEE21reserve_and_push_backEiPKS1_ = comdat any

$_ZN18typed_array_memoryI6StringE4moveEPS0_PKS0_m = comdat any

$_ZNK6VectorIjE5beginEv = comdat any

$_ZNK7Element4Port4pushEP6Packet = comdat any

$_ZN13vector_memoryI18typed_array_memoryIN14Classification8Wordwise7ProgramEEE21reserve_and_push_backEiPKS3_ = comdat any

$_ZN18typed_array_memoryIN14Classification8Wordwise7ProgramEE4moveEPS2_PKS2_m = comdat any

@_ZL7db2type = internal unnamed_addr constant [5 x i32] [i32 11, i32 13, i32 13, i32 14, i32 1075838983], align 16, !dbg !0
@.str = private unnamed_addr constant [3 x i8] c", \00", align 1
@.str.1 = private unnamed_addr constant [21 x i8] c"%<%s%> is %s; try %s\00", align 1
@.str.2 = private unnamed_addr constant [10 x i8] c"ambiguous\00", align 1
@.str.3 = private unnamed_addr constant [12 x i8] c"meaningless\00", align 1
@_ZL12type_entries = internal constant [24 x %"struct.StaticNameDB::Entry"] [%"struct.StaticNameDB::Entry" { i8* getelementptr inbounds ([3 x i8], [3 x i8]* @.str.120, i32 0, i32 0), i32 33 }, %"struct.StaticNameDB::Entry" { i8* getelementptr inbounds ([5 x i8], [5 x i8]* @.str.92, i32 0, i32 0), i32 2 }, %"struct.StaticNameDB::Entry" { i8* getelementptr inbounds ([5 x i8], [5 x i8]* @.str.121, i32 0, i32 0), i32 1073742085 }, %"struct.StaticNameDB::Entry" { i8* getelementptr inbounds ([4 x i8], [4 x i8]* @.str.91, i32 0, i32 0), i32 2 }, %"struct.StaticNameDB::Entry" { i8* getelementptr inbounds ([4 x i8], [4 x i8]* @.str.122, i32 0, i32 0), i32 32 }, %"struct.StaticNameDB::Entry" { i8* getelementptr inbounds ([6 x i8], [6 x i8]* @.str.93, i32 0, i32 0), i32 2 }, %"struct.StaticNameDB::Entry" { i8* getelementptr inbounds ([5 x i8], [5 x i8]* @.str.123, i32 0, i32 0), i32 12 }, %"struct.StaticNameDB::Entry" { i8* getelementptr inbounds ([3 x i8], [3 x i8]* @.str.124, i32 0, i32 0), i32 1073741955 }, %"struct.StaticNameDB::Entry" { i8* getelementptr inbounds ([5 x i8], [5 x i8]* @.str.125, i32 0, i32 0), i32 10 }, %"struct.StaticNameDB::Entry" { i8* getelementptr inbounds ([3 x i8], [3 x i8]* @.str.126, i32 0, i32 0), i32 1073742863 }, %"struct.StaticNameDB::Entry" { i8* getelementptr inbounds ([3 x i8], [3 x i8]* @.str.36, i32 0, i32 0), i32 2 }, %"struct.StaticNameDB::Entry" { i8* getelementptr inbounds ([4 x i8], [4 x i8]* @.str.127, i32 0, i32 0), i32 1073742351 }, %"struct.StaticNameDB::Entry" { i8* getelementptr inbounds ([4 x i8], [4 x i8]* @.str.128, i32 0, i32 0), i32 30 }, %"struct.StaticNameDB::Entry" { i8* getelementptr inbounds ([4 x i8], [4 x i8]* @.str.83, i32 0, i32 0), i32 2 }, %"struct.StaticNameDB::Entry" { i8* getelementptr inbounds ([4 x i8], [4 x i8]* @.str.129, i32 0, i32 0), i32 14 }, %"struct.StaticNameDB::Entry" { i8* getelementptr inbounds ([5 x i8], [5 x i8]* @.str.21, i32 0, i32 0), i32 13 }, %"struct.StaticNameDB::Entry" { i8* getelementptr inbounds ([6 x i8], [6 x i8]* @.str.18, i32 0, i32 0), i32 11 }, %"struct.StaticNameDB::Entry" { i8* getelementptr inbounds ([4 x i8], [4 x i8]* @.str.90, i32 0, i32 0), i32 2 }, %"struct.StaticNameDB::Entry" { i8* getelementptr inbounds ([4 x i8], [4 x i8]* @.str.130, i32 0, i32 0), i32 1073742087 }, %"struct.StaticNameDB::Entry" { i8* getelementptr inbounds ([4 x i8], [4 x i8]* @.str.131, i32 0, i32 0), i32 1073743879 }, %"struct.StaticNameDB::Entry" { i8* getelementptr inbounds ([5 x i8], [5 x i8]* @.str.132, i32 0, i32 0), i32 1075838983 }, %"struct.StaticNameDB::Entry" { i8* getelementptr inbounds ([7 x i8], [7 x i8]* @.str.133, i32 0, i32 0), i32 31 }, %"struct.StaticNameDB::Entry" { i8* getelementptr inbounds ([5 x i8], [5 x i8]* @.str.134, i32 0, i32 0), i32 1073741827 }, %"struct.StaticNameDB::Entry" { i8* getelementptr inbounds ([4 x i8], [4 x i8]* @.str.135, i32 0, i32 0), i32 1086328335 }], align 16, !dbg !3113
@_ZL15tcp_opt_entries = internal constant [6 x %"struct.StaticNameDB::Entry"] [%"struct.StaticNameDB::Entry" { i8* getelementptr inbounds ([4 x i8], [4 x i8]* @.str.138, i32 0, i32 0), i32 16 }, %"struct.StaticNameDB::Entry" { i8* getelementptr inbounds ([4 x i8], [4 x i8]* @.str.139, i32 0, i32 0), i32 1 }, %"struct.StaticNameDB::Entry" { i8* getelementptr inbounds ([4 x i8], [4 x i8]* @.str.140, i32 0, i32 0), i32 8 }, %"struct.StaticNameDB::Entry" { i8* getelementptr inbounds ([4 x i8], [4 x i8]* @.str.141, i32 0, i32 0), i32 4 }, %"struct.StaticNameDB::Entry" { i8* getelementptr inbounds ([4 x i8], [4 x i8]* @.str.142, i32 0, i32 0), i32 2 }, %"struct.StaticNameDB::Entry" { i8* getelementptr inbounds ([4 x i8], [4 x i8]* @.str.143, i32 0, i32 0), i32 32 }], align 16, !dbg !3125
@_ZTV8IPFilter = dso_local unnamed_addr constant { [29 x i8*] } { [29 x i8*] [i8* null, i8* bitcast ({ i8*, i8*, i8* }* @_ZTI8IPFilter to i8*), i8* bitcast (void (%class.IPFilter*)* @_ZN8IPFilterD2Ev to i8*), i8* bitcast (void (%class.IPFilter*)* @_ZN8IPFilterD0Ev to i8*), i8* bitcast (void (%class.IPFilter*, i32, %class.Packet*)* @_ZN8IPFilter4pushEiP6Packet to i8*), i8* bitcast (%class.Packet* (%class.Element*, i32)* @_ZN7Element4pullEi to i8*), i8* bitcast (%class.Packet* (%class.Element*, %class.Packet*)* @_ZN7Element13simple_actionEP6Packet to i8*), i8* bitcast (i1 (%class.Element*, %class.Task*)* @_ZN7Element8run_taskEP4Task to i8*), i8* bitcast (void (%class.Element*, %class.Timer*)* @_ZN7Element9run_timerEP5Timer to i8*), i8* bitcast (void (%class.Element*, i32, i32)* @_ZN7Element8selectedEii to i8*), i8* bitcast (void (%class.Element*, i32)* @_ZN7Element8selectedEi to i8*), i8* bitcast (i8* (%class.IPFilter*)* @_ZNK8IPFilter10class_nameEv to i8*), i8* bitcast (i8* (%class.IPFilter*)* @_ZNK8IPFilter10port_countEv to i8*), i8* bitcast (i8* (%class.IPFilter*)* @_ZNK8IPFilter10processingEv to i8*), i8* bitcast (i8* (%class.Element*)* @_ZNK7Element9flow_codeEv to i8*), i8* bitcast (i8* (%class.IPFilter*)* @_ZNK8IPFilter5flagsEv to i8*), i8* bitcast (i8* (%class.Element*, i8*)* @_ZN7Element4castEPKc to i8*), i8* bitcast (i8* (%class.Element*, i1, i32, i8*)* @_ZN7Element9port_castEbiPKc to i8*), i8* bitcast (i32 (%class.Element*)* @_ZNK7Element15configure_phaseEv to i8*), i8* bitcast (i32 (%class.IPFilter*, %class.Vector.7*, %class.ErrorHandler*)* @_ZN8IPFilter9configureER6VectorI6StringEP12ErrorHandler to i8*), i8* bitcast (void (%class.IPFilter*)* @_ZN8IPFilter12add_handlersEv to i8*), i8* bitcast (i32 (%class.Element*, %class.ErrorHandler*)* @_ZN7Element10initializeEP12ErrorHandler to i8*), i8* bitcast (void (%class.Element*, %class.Element*, %class.ErrorHandler*)* @_ZN7Element10take_stateEPS_P12ErrorHandler to i8*), i8* bitcast (%class.Element* (%class.Element*)* @_ZNK7Element15hotswap_elementEv to i8*), i8* bitcast (void (%class.Element*, i32)* @_ZN7Element7cleanupENS_12CleanupStageE to i8*), i8* bitcast (void (%class.String*, %class.Element*)* @_ZNK7Element11declarationEv to i8*), i8* bitcast (i1 (%class.IPFilter*)* @_ZNK8IPFilter20can_live_reconfigureEv to i8*), i8* bitcast (i32 (%class.Element*, %class.Vector.7*, %class.ErrorHandler*)* @_ZN7Element16live_reconfigureER6VectorI6StringEP12ErrorHandler to i8*), i8* bitcast (i32 (%class.Element*, i32, i8*)* @_ZN7Element5llrpcEjPv to i8*)] }, align 8
@.str.4 = private unnamed_addr constant [21 x i8] c"type specified twice\00", align 1
@.str.5 = private unnamed_addr constant [35 x i8] c"%<src%> or %<dst%> specified twice\00", align 1
@.str.6 = private unnamed_addr constant [35 x i8] c"transport protocol specified twice\00", align 1
@.str.7 = private unnamed_addr constant [38 x i8] c"%<%s%>: mask out of range, bound 0x%X\00", align 1
@.str.8 = private unnamed_addr constant [45 x i8] c"relation %<%s %u%> is always %s (range 0-%u)\00", align 1
@.str.9 = private unnamed_addr constant [5 x i8] c"true\00", align 1
@.str.10 = private unnamed_addr constant [6 x i8] c"false\00", align 1
@.str.11 = private unnamed_addr constant [31 x i8] c"%<%s%>: out of range, bound %u\00", align 1
@.str.12 = private unnamed_addr constant [5 x i8] c"src \00", align 1
@.str.13 = private unnamed_addr constant [5 x i8] c"dst \00", align 1
@.str.14 = private unnamed_addr constant [12 x i8] c"src or dst \00", align 1
@.str.15 = private unnamed_addr constant [13 x i8] c"src and dst \00", align 1
@.str.16 = private unnamed_addr constant [7 x i8] c"<none>\00", align 1
@.str.17 = private unnamed_addr constant [8 x i8] c"ip host\00", align 1
@.str.18 = private unnamed_addr constant [6 x i8] c"proto\00", align 1
@.str.19 = private unnamed_addr constant [11 x i8] c"ether host\00", align 1
@.str.20 = private unnamed_addr constant [8 x i8] c"ip frag\00", align 1
@.str.21 = private unnamed_addr constant [5 x i8] c"port\00", align 1
@.str.22 = private unnamed_addr constant [8 x i8] c"tcp opt\00", align 1
@.str.23 = private unnamed_addr constant [7 x i8] c"ip net\00", align 1
@.str.24 = private unnamed_addr constant [10 x i8] c"ip unfrag\00", align 1
@.str.25 = private unnamed_addr constant [7 x i8] c"ip ect\00", align 1
@.str.26 = private unnamed_addr constant [6 x i8] c"ip ce\00", align 1
@.str.27 = private unnamed_addr constant [7 x i8] c"ip len\00", align 1
@.str.28 = private unnamed_addr constant [6 x i8] c"ip id\00", align 1
@.str.29 = private unnamed_addr constant [8 x i8] c"ip vers\00", align 1
@.str.30 = private unnamed_addr constant [6 x i8] c"ip hl\00", align 1
@.str.31 = private unnamed_addr constant [7 x i8] c"ip tos\00", align 1
@.str.32 = private unnamed_addr constant [8 x i8] c"ip dscp\00", align 1
@.str.33 = private unnamed_addr constant [7 x i8] c"ip ttl\00", align 1
@.str.34 = private unnamed_addr constant [8 x i8] c"tcp win\00", align 1
@.str.35 = private unnamed_addr constant [10 x i8] c"icmp type\00", align 1
@.str.36 = private unnamed_addr constant [3 x i8] c"ip\00", align 1
@.str.37 = private unnamed_addr constant [6 x i8] c"[...]\00", align 1
@.str.38 = private unnamed_addr constant [15 x i8] c"<unknown type \00", align 1
@.str.39 = private unnamed_addr constant [2 x i8] c">\00", align 1
@.str.40 = private unnamed_addr constant [1 x i8] zeroinitializer, align 1
@.str.41 = private unnamed_addr constant [5 x i8] c"icmp\00", align 1
@.str.42 = private unnamed_addr constant [5 x i8] c"igmp\00", align 1
@.str.43 = private unnamed_addr constant [5 x i8] c"ipip\00", align 1
@.str.44 = private unnamed_addr constant [4 x i8] c"tcp\00", align 1
@.str.45 = private unnamed_addr constant [4 x i8] c"udp\00", align 1
@.str.46 = private unnamed_addr constant [7 x i8] c"tcpudp\00", align 1
@.str.47 = private unnamed_addr constant [7 x i8] c"transp\00", align 1
@.str.48 = private unnamed_addr constant [10 x i8] c"ip proto \00", align 1
@.str.49 = private unnamed_addr constant [3 x i8] c"<=\00", align 1
@.str.50 = private unnamed_addr constant [3 x i8] c">=\00", align 1
@.str.51 = private unnamed_addr constant [2 x i8] c"<\00", align 1
@.str.52 = private unnamed_addr constant [3 x i8] c"!=\00", align 1
@.str.53 = private unnamed_addr constant [2 x i8] c"=\00", align 1
@.str.54 = private unnamed_addr constant [21 x i8] c"negation_is_simple()\00", align 1
@.str.55 = private unnamed_addr constant [27 x i8] c"../elements/ip/ipfilter.cc\00", align 1
@__PRETTY_FUNCTION__._ZN8IPFilter9Primitive13simple_negateEv = private unnamed_addr constant [42 x i8] c"void IPFilter::Primitive::simple_negate()\00", align 1
@.str.56 = private unnamed_addr constant [11 x i8] c"%<%s%>: %s\00", align 1
@.str.57 = private unnamed_addr constant [33 x i8] c"specify header field or %<port%>\00", align 1
@.str.58 = private unnamed_addr constant [18 x i8] c"partial directive\00", align 1
@.str.59 = private unnamed_addr constant [20 x i8] c"unknown type %<%s%>\00", align 1
@.str.60 = private unnamed_addr constant [16 x i8] c"address missing\00", align 1
@.str.61 = private unnamed_addr constant [16 x i8] c"specified twice\00", align 1
@.str.62 = private unnamed_addr constant [39 x i8] c"%<%s%>: operator or mask not supported\00", align 1
@.str.63 = private unnamed_addr constant [26 x i8] c"%<port%>: bad protocol %d\00", align 1
@.str.64 = private unnamed_addr constant [29 x i8] c"%<tcp opt%>: bad protocol %d\00", align 1
@.str.65 = private unnamed_addr constant [31 x i8] c"operator or mask not supported\00", align 1
@.str.66 = private unnamed_addr constant [35 x i8] c"%<tcp opt%>: value %d out of range\00", align 1
@.str.67 = private unnamed_addr constant [14 x i8] c"value missing\00", align 1
@.str.68 = private unnamed_addr constant [9 x i8] c"bad mask\00", align 1
@.str.69 = private unnamed_addr constant [20 x i8] c"value not supported\00", align 1
@.str.70 = private unnamed_addr constant [23 x i8] c"operator not supported\00", align 1
@.str.71 = private unnamed_addr constant [8 x i8] c"ip only\00", align 1
@.str.72 = private unnamed_addr constant [35 x i8] c"%<%s%>: %<src%> or %<dst%> ignored\00", align 1
@.str.73 = private unnamed_addr constant [49 x i8] c"_op == IPFilter::OP_EQ || _op == IPFilter::OP_GT\00", align 1
@__PRETTY_FUNCTION__._ZNK8IPFilter9Primitive20add_comparison_exprsERN14Classification8Wordwise7ProgramER6VectorIiEiibb = private unnamed_addr constant [127 x i8] c"void IPFilter::Primitive::add_comparison_exprs(Classification::Wordwise::Program &, Vector<int> &, int, int, bool, bool) const\00", align 1
@.str.74 = private unnamed_addr constant [2 x i8] c"0\00", align 1
@__PRETTY_FUNCTION__._ZNK8IPFilter9Primitive7compileERN14Classification8Wordwise7ProgramER6VectorIiE = private unnamed_addr constant [92 x i8] c"void IPFilter::Primitive::compile(Classification::Wordwise::Program &, Vector<int> &) const\00", align 1
@.str.77 = private unnamed_addr constant [36 x i8] c"missing %<:%> in ternary expression\00", align 1
@.str.78 = private unnamed_addr constant [3 x i8] c"or\00", align 1
@.str.79 = private unnamed_addr constant [3 x i8] c"||\00", align 1
@.str.80 = private unnamed_addr constant [19 x i8] c"missing expression\00", align 1
@.str.81 = private unnamed_addr constant [4 x i8] c"and\00", align 1
@.str.82 = private unnamed_addr constant [3 x i8] c"&&\00", align 1
@.str.83 = private unnamed_addr constant [4 x i8] c"not\00", align 1
@.str.86 = private unnamed_addr constant [32 x i8] c"missing expression after %<%s%>\00", align 1
@.str.87 = private unnamed_addr constant [31 x i8] c"missing expression after %<(%>\00", align 1
@.str.89 = private unnamed_addr constant [14 x i8] c"missing %<)%>\00", align 1
@.str.90 = private unnamed_addr constant [4 x i8] c"src\00", align 1
@.str.91 = private unnamed_addr constant [4 x i8] c"dst\00", align 1
@.str.92 = private unnamed_addr constant [5 x i8] c"dest\00", align 1
@.str.93 = private unnamed_addr constant [6 x i8] c"ether\00", align 1
@blank_args = external global %class.ArgContext, align 8
@.str.96 = private unnamed_addr constant [18 x i8] c"zero mask ignored\00", align 1
@.str.97 = private unnamed_addr constant [3 x i8] c"==\00", align 1
@.str.98 = private unnamed_addr constant [5 x i8] c"mask\00", align 1
@.str.99 = private unnamed_addr constant [30 x i8] c"dangling operator near %<%s%>\00", align 1
@.str.100 = private unnamed_addr constant [23 x i8] c"empty term near %<%s%>\00", align 1
@.str.101 = private unnamed_addr constant [17 x i8] c"empty pattern %d\00", align 1
@.str.102 = private unnamed_addr constant [9 x i8] c"pattern \00", align 1
@.str.103 = private unnamed_addr constant [3 x i8] c": \00", align 1
@.str.104 = private unnamed_addr constant [6 x i8] c"allow\00", align 1
@.str.105 = private unnamed_addr constant [51 x i8] c"%<allow%> is meaningless, element has zero outputs\00", align 1
@.str.106 = private unnamed_addr constant [5 x i8] c"deny\00", align 1
@.str.107 = private unnamed_addr constant [5 x i8] c"drop\00", align 1
@.str.108 = private unnamed_addr constant [25 x i8] c"slot %<%d%> out of range\00", align 1
@.str.109 = private unnamed_addr constant [23 x i8] c"unknown slot ID %<%s%>\00", align 1
@.str.111 = private unnamed_addr constant [4 x i8] c"any\00", align 1
@.str.112 = private unnamed_addr constant [4 x i8] c"all\00", align 1
@.str.113 = private unnamed_addr constant [35 x i8] c"garbage after expression at %<%s%>\00", align 1
@_ZZN8IPFilter13parse_programERN14Classification8Wordwise17CompressedProgramERK6VectorI6StringEiPK7ElementP12ErrorHandlerE10offset_map = internal constant [2 x i32] [i32 264, i32 259], align 4, !dbg !2974
@.str.114 = private unnamed_addr constant [8 x i8] c"program\00", align 1
@_ZTVN10__cxxabiv120__si_class_type_infoE = external global i8*
@_ZTS8IPFilter = dso_local constant [10 x i8] c"8IPFilter\00", align 1
@_ZTI7Element = external constant i8*
@_ZTI8IPFilter = dso_local constant { i8*, i8*, i8* } { i8* bitcast (i8** getelementptr inbounds (i8*, i8** @_ZTVN10__cxxabiv120__si_class_type_infoE, i64 2) to i8*), i8* getelementptr inbounds ([10 x i8], [10 x i8]* @_ZTS8IPFilter, i32 0, i32 0), i8* bitcast (i8** @_ZTI7Element to i8*) }, align 8
@_ZN6String9null_dataE = external constant i8, align 1
@.str.115 = private unnamed_addr constant [9 x i8] c"len >= 0\00", align 1
@.str.116 = private unnamed_addr constant [31 x i8] c"../dummy_inc/click/straccum.hh\00", align 1
@__PRETTY_FUNCTION__._ZN11StringAccum6appendEPKci = private unnamed_addr constant [44 x i8] c"void StringAccum::append(const char *, int)\00", align 1
@.str.117 = private unnamed_addr constant [2 x i8] c" \00", align 1
@.str.118 = private unnamed_addr constant [18 x i8] c"_r.memo->refcount\00", align 1
@.str.119 = private unnamed_addr constant [29 x i8] c"../dummy_inc/click/string.hh\00", align 1
@__PRETTY_FUNCTION__._ZNK6String5derefEv = private unnamed_addr constant [27 x i8] c"void String::deref() const\00", align 1
@.str.120 = private unnamed_addr constant [3 x i8] c"ce\00", align 1
@.str.121 = private unnamed_addr constant [5 x i8] c"dscp\00", align 1
@.str.122 = private unnamed_addr constant [4 x i8] c"ect\00", align 1
@.str.123 = private unnamed_addr constant [5 x i8] c"frag\00", align 1
@.str.124 = private unnamed_addr constant [3 x i8] c"hl\00", align 1
@.str.125 = private unnamed_addr constant [5 x i8] c"host\00", align 1
@.str.126 = private unnamed_addr constant [3 x i8] c"id\00", align 1
@.str.127 = private unnamed_addr constant [4 x i8] c"len\00", align 1
@.str.128 = private unnamed_addr constant [4 x i8] c"net\00", align 1
@.str.129 = private unnamed_addr constant [4 x i8] c"opt\00", align 1
@.str.130 = private unnamed_addr constant [4 x i8] c"tos\00", align 1
@.str.131 = private unnamed_addr constant [4 x i8] c"ttl\00", align 1
@.str.132 = private unnamed_addr constant [5 x i8] c"type\00", align 1
@.str.133 = private unnamed_addr constant [7 x i8] c"unfrag\00", align 1
@.str.134 = private unnamed_addr constant [5 x i8] c"vers\00", align 1
@.str.135 = private unnamed_addr constant [4 x i8] c"win\00", align 1
@_ZTV12StaticNameDB = external unnamed_addr constant { [7 x i8*] }, align 8
@.str.138 = private unnamed_addr constant [4 x i8] c"ack\00", align 1
@.str.139 = private unnamed_addr constant [4 x i8] c"fin\00", align 1
@.str.140 = private unnamed_addr constant [4 x i8] c"psh\00", align 1
@.str.141 = private unnamed_addr constant [4 x i8] c"rst\00", align 1
@.str.142 = private unnamed_addr constant [4 x i8] c"syn\00", align 1
@.str.143 = private unnamed_addr constant [4 x i8] c"urg\00", align 1
@.str.145 = private unnamed_addr constant [14 x i8] c"missing %<]%>\00", align 1
@.str.146 = private unnamed_addr constant [62 x i8] c"syntax error after %<[%>, expected %<[POS]%> or %<[POS:LEN]%>\00", align 1
@.str.147 = private unnamed_addr constant [61 x i8] c"LEN in %<[POS:LEN]%> out of range, should be between 1 and 4\00", align 1
@.str.148 = private unnamed_addr constant [44 x i8] c"field [%d:%d] does not fit in a single word\00", align 1
@_ZTV18PrefixErrorHandler = external unnamed_addr constant { [9 x i8*] }, align 8
@.str.149 = private unnamed_addr constant [8 x i8] c"_e && p\00", align 1
@.str.150 = private unnamed_addr constant [30 x i8] c"../dummy_inc/click/element.hh\00", align 1
@__PRETTY_FUNCTION__._ZNK7Element4Port4pushEP6Packet = private unnamed_addr constant [41 x i8] c"void Element::Port::push(Packet *) const\00", align 1
@.str.151 = private unnamed_addr constant [9 x i8] c"IPFilter\00", align 1
@.str.152 = private unnamed_addr constant [4 x i8] c"1/-\00", align 1
@_ZN7Element4PUSHE = external constant [0 x i8], align 1
@.str.153 = private unnamed_addr constant [15 x i8] c"invalid number\00", align 1
@.str.154 = private unnamed_addr constant [7 x i8] c"n_ > 0\00", align 1
@.str.155 = private unnamed_addr constant [29 x i8] c"../dummy_inc/click/vector.hh\00", align 1
@__PRETTY_FUNCTION__._ZN13vector_memoryI18sized_array_memoryILm8EEE8pop_backEv = private unnamed_addr constant [84 x i8] c"void vector_memory<sized_array_memory<8> >::pop_back() [AM = sized_array_memory<8>]\00", align 1
@_ZL3dbs.0 = internal unnamed_addr global %class.NameDB* null, align 16, !dbg !3753
@_ZL3dbs.1 = internal unnamed_addr global %class.NameDB* null, align 16, !dbg !3754

@_ZN8IPFilterC1Ev = dso_local unnamed_addr alias void (%class.IPFilter*), void (%class.IPFilter*)* @_ZN8IPFilterC2Ev
@_ZN8IPFilterD1Ev = dso_local unnamed_addr alias void (%class.IPFilter*), void (%class.IPFilter*)* @_ZN8IPFilterD2Ev

; Function Attrs: sspstrong uwtable
define dso_local i32 @_ZN8IPFilter6lookupE6StringiiRjPK7ElementP12ErrorHandler(%class.String* %0, i32 %1, i32 %2, i32* dereferenceable(4) %3, %class.Element* %4, %class.ErrorHandler* %5) local_unnamed_addr #0 align 2 personality i8* bitcast (i32 (...)* @__gxx_personality_v0 to i8*) !dbg !3761 {
  %7 = alloca [5 x i32], align 16
  %8 = alloca [5 x i32], align 16
  %9 = alloca %class.StringAccum, align 8
  %10 = alloca %class.String, align 8
  %11 = alloca %class.String, align 8
  call void @llvm.dbg.declare(metadata %class.String* %0, metadata !3763, metadata !DIExpression()), !dbg !3782
  call void @llvm.dbg.value(metadata i32 %1, metadata !3764, metadata !DIExpression()), !dbg !3783
  call void @llvm.dbg.value(metadata i32 %2, metadata !3765, metadata !DIExpression()), !dbg !3783
  call void @llvm.dbg.value(metadata i32* %3, metadata !3766, metadata !DIExpression()), !dbg !3783
  call void @llvm.dbg.value(metadata %class.Element* %4, metadata !3767, metadata !DIExpression()), !dbg !3783
  call void @llvm.dbg.value(metadata %class.ErrorHandler* %5, metadata !3768, metadata !DIExpression()), !dbg !3783
  %12 = icmp eq i32 %1, 0, !dbg !3784
  %13 = icmp ult i32 %1, 2, !dbg !3786
  br i1 %13, label %14, label %21, !dbg !3786

14:                                               ; preds = %6
  %15 = bitcast i32* %3 to i8*, !dbg !3787
  %16 = tail call zeroext i1 @_ZN8NameInfo5queryEjPK7ElementRK6StringPvm(i32 67108868, %class.Element* %4, %class.String* dereferenceable(24) %0, i8* nonnull %15, i64 4), !dbg !3789
  br i1 %16, label %17, label %21, !dbg !3790

17:                                               ; preds = %14
  %18 = load i32, i32* %3, align 4, !dbg !3791, !tbaa !3792
  %19 = icmp eq i32 %18, 2, !dbg !3796
  %20 = select i1 %19, i32 -1, i32 1, !dbg !3791
  br label %327, !dbg !3797

21:                                               ; preds = %14, %6
  %22 = bitcast [5 x i32]* %7 to i8*, !dbg !3798
  call void @llvm.lifetime.start.p0i8(i64 20, i8* nonnull %22) #17, !dbg !3798
  call void @llvm.dbg.declare(metadata [5 x i32]* %7, metadata !3769, metadata !DIExpression()), !dbg !3799
  %23 = bitcast [5 x i32]* %8 to i8*, !dbg !3800
  call void @llvm.lifetime.start.p0i8(i64 20, i8* nonnull %23) #17, !dbg !3800
  call void @llvm.dbg.declare(metadata [5 x i32]* %8, metadata !3771, metadata !DIExpression()), !dbg !3801
  %24 = call zeroext i1 @_ZN8NameInfo5queryEjPK7ElementRK6StringPvm(i32 67108867, %class.Element* %4, %class.String* dereferenceable(24) %0, i8* nonnull %23, i64 4), !dbg !3802
  %25 = zext i1 %24 to i32, !dbg !3802
  %26 = getelementptr inbounds [5 x i32], [5 x i32]* %7, i64 0, i64 0, !dbg !3803
  store i32 %25, i32* %26, align 16, !dbg !3804, !tbaa !3792
  %27 = getelementptr inbounds [5 x i32], [5 x i32]* %8, i64 0, i64 1, !dbg !3805
  %28 = bitcast i32* %27 to i8*, !dbg !3806
  %29 = call zeroext i1 @_ZN8NameInfo5queryEjPK7ElementRK6StringPvm(i32 67239942, %class.Element* %4, %class.String* nonnull dereferenceable(24) %0, i8* nonnull %28, i64 4), !dbg !3807
  %30 = zext i1 %29 to i32, !dbg !3807
  %31 = getelementptr inbounds [5 x i32], [5 x i32]* %7, i64 0, i64 1, !dbg !3808
  store i32 %30, i32* %31, align 4, !dbg !3809, !tbaa !3792
  %32 = getelementptr inbounds [5 x i32], [5 x i32]* %8, i64 0, i64 2, !dbg !3810
  %33 = bitcast i32* %32 to i8*, !dbg !3811
  %34 = call zeroext i1 @_ZN8NameInfo5queryEjPK7ElementRK6StringPvm(i32 67239953, %class.Element* %4, %class.String* nonnull dereferenceable(24) %0, i8* nonnull %33, i64 4), !dbg !3812
  %35 = zext i1 %34 to i32, !dbg !3812
  %36 = getelementptr inbounds [5 x i32], [5 x i32]* %7, i64 0, i64 2, !dbg !3813
  store i32 %35, i32* %36, align 8, !dbg !3814, !tbaa !3792
  %37 = getelementptr inbounds [5 x i32], [5 x i32]* %8, i64 0, i64 3, !dbg !3815
  %38 = bitcast i32* %37 to i8*, !dbg !3816
  %39 = call zeroext i1 @_ZN8NameInfo5queryEjPK7ElementRK6StringPvm(i32 67108869, %class.Element* %4, %class.String* nonnull dereferenceable(24) %0, i8* nonnull %38, i64 4), !dbg !3817
  %40 = zext i1 %39 to i32, !dbg !3817
  %41 = getelementptr inbounds [5 x i32], [5 x i32]* %7, i64 0, i64 3, !dbg !3818
  store i32 %40, i32* %41, align 4, !dbg !3819, !tbaa !3792
  %42 = getelementptr inbounds [5 x i32], [5 x i32]* %8, i64 0, i64 4, !dbg !3820
  %43 = bitcast i32* %42 to i8*, !dbg !3821
  %44 = call zeroext i1 @_ZN8NameInfo5queryEjPK7ElementRK6StringPvm(i32 67174400, %class.Element* %4, %class.String* nonnull dereferenceable(24) %0, i8* nonnull %43, i64 4), !dbg !3822
  %45 = zext i1 %44 to i32, !dbg !3822
  %46 = getelementptr inbounds [5 x i32], [5 x i32]* %7, i64 0, i64 4, !dbg !3823
  store i32 %45, i32* %46, align 16, !dbg !3824, !tbaa !3792
  %47 = or i1 %24, %29, !dbg !3825
  %48 = or i1 %47, %34, !dbg !3825
  %49 = or i1 %48, %39, !dbg !3825
  %50 = or i1 %49, %44, !dbg !3825
  br i1 %50, label %51, label %325, !dbg !3825

51:                                               ; preds = %21
  br i1 %24, label %52, label %55, !dbg !3827

52:                                               ; preds = %51
  %53 = icmp eq i32 %1, 11, !dbg !3828
  %54 = or i1 %12, %53, !dbg !3828
  br label %55, !dbg !3828

55:                                               ; preds = %51, %52
  %56 = phi i1 [ false, %51 ], [ %54, %52 ], !dbg !3783
  %57 = zext i1 %56 to i32, !dbg !3829
  call void @llvm.dbg.value(metadata i32 undef, metadata !3773, metadata !DIExpression()), !dbg !3783
  br i1 %29, label %58, label %61, !dbg !3830

58:                                               ; preds = %55
  switch i32 %1, label %61 [
    i32 13, label %59
    i32 0, label %59
  ], !dbg !3831

59:                                               ; preds = %58, %58
  switch i32 %2, label %60 [
    i32 -1000, label %61
    i32 6, label %61
    i32 256, label %61
  ], !dbg !3832

60:                                               ; preds = %59
  br label %61, !dbg !3833

61:                                               ; preds = %55, %59, %59, %59, %58, %60
  %62 = phi i32 [ 0, %55 ], [ 0, %58 ], [ 1, %59 ], [ 0, %60 ], [ 1, %59 ], [ 1, %59 ]
  call void @llvm.dbg.value(metadata i32 undef, metadata !3773, metadata !DIExpression()), !dbg !3783
  br i1 %34, label %63, label %66, !dbg !3834

63:                                               ; preds = %61
  switch i32 %1, label %66 [
    i32 13, label %64
    i32 0, label %64
  ], !dbg !3835

64:                                               ; preds = %63, %63
  switch i32 %2, label %65 [
    i32 -1000, label %66
    i32 17, label %66
    i32 256, label %66
  ], !dbg !3836

65:                                               ; preds = %64
  br label %66, !dbg !3837

66:                                               ; preds = %61, %64, %64, %64, %63, %65
  %67 = phi i32 [ 0, %61 ], [ 0, %63 ], [ 1, %64 ], [ 0, %65 ], [ 1, %64 ], [ 1, %64 ]
  call void @llvm.dbg.value(metadata i32 undef, metadata !3773, metadata !DIExpression()), !dbg !3783
  br i1 %39, label %68, label %71, !dbg !3838

68:                                               ; preds = %66
  switch i32 %1, label %71 [
    i32 14, label %69
    i32 0, label %69
  ], !dbg !3839

69:                                               ; preds = %68, %68
  switch i32 %2, label %70 [
    i32 -1000, label %71
    i32 6, label %71
    i32 256, label %71
  ], !dbg !3840

70:                                               ; preds = %69
  br label %71, !dbg !3841

71:                                               ; preds = %66, %69, %69, %69, %68, %70
  %72 = phi i32 [ 0, %66 ], [ 0, %68 ], [ 1, %69 ], [ 0, %70 ], [ 1, %69 ], [ 1, %69 ]
  call void @llvm.dbg.value(metadata i32 undef, metadata !3773, metadata !DIExpression()), !dbg !3783
  br i1 %44, label %73, label %79, !dbg !3842

73:                                               ; preds = %71
  switch i32 %1, label %79 [
    i32 1075838983, label %74
    i32 0, label %74
  ], !dbg !3843

74:                                               ; preds = %73, %73
  %75 = icmp eq i32 %2, -1000, !dbg !3844
  %76 = icmp eq i32 %2, 1, !dbg !3845
  %77 = or i1 %75, %76, !dbg !3845
  %78 = zext i1 %77 to i32, !dbg !3845
  br label %79, !dbg !3845

79:                                               ; preds = %71, %73, %74
  %80 = phi i32 [ 0, %71 ], [ 0, %73 ], [ %78, %74 ]
  call void @llvm.dbg.value(metadata i32 undef, metadata !3773, metadata !DIExpression()), !dbg !3783
  %81 = icmp eq i32 %62, 0, !dbg !3846
  %82 = icmp eq i32 %67, 0, !dbg !3848
  %83 = or i1 %81, %82, !dbg !3849
  %84 = load i32, i32* %27, align 4, !dbg !3849
  %85 = load i32, i32* %32, align 8, !dbg !3849
  %86 = icmp ne i32 %84, %85, !dbg !3849
  %87 = zext i1 %86 to i32, !dbg !3849
  %88 = select i1 %83, i32 %67, i32 %87, !dbg !3849
  %89 = add nuw nsw i32 %62, %57, !dbg !3850
  %90 = add nuw nsw i32 %89, %72, !dbg !3851
  %91 = add nuw nsw i32 %90, %80, !dbg !3852
  %92 = add nuw nsw i32 %91, %88, !dbg !3853
  call void @llvm.dbg.value(metadata i32 %92, metadata !3774, metadata !DIExpression()), !dbg !3783
  %93 = icmp eq i32 %92, 1, !dbg !3854
  br i1 %93, label %94, label %105, !dbg !3855

94:                                               ; preds = %79
  call void @llvm.dbg.value(metadata i64 0, metadata !3775, metadata !DIExpression()), !dbg !3856
  call void @llvm.dbg.value(metadata i64 0, metadata !3775, metadata !DIExpression(DW_OP_plus_uconst, 1, DW_OP_stack_value)), !dbg !3856
  %95 = xor i1 %81, true, !dbg !3857
  %96 = or i1 %56, %95, !dbg !3857
  %97 = xor i1 %56, true, !dbg !3857
  %98 = zext i1 %97 to i64, !dbg !3857
  br i1 %96, label %99, label %329, !dbg !3857

99:                                               ; preds = %94, %333, %331, %329
  %100 = phi i64 [ %98, %94 ], [ 2, %329 ], [ 3, %331 ], [ 4, %333 ]
  call void @llvm.dbg.value(metadata i32 undef, metadata !3775, metadata !DIExpression()), !dbg !3856
  %101 = getelementptr inbounds [5 x i32], [5 x i32]* %8, i64 0, i64 %100, !dbg !3859
  %102 = load i32, i32* %101, align 4, !dbg !3859, !tbaa !3792
  store i32 %102, i32* %3, align 4, !dbg !3862, !tbaa !3792
  %103 = getelementptr inbounds [5 x i32], [5 x i32]* @_ZL7db2type, i64 0, i64 %100, !dbg !3863
  %104 = load i32, i32* %103, align 4, !dbg !3863, !tbaa !3792
  br label %325

105:                                              ; preds = %333, %79
  %106 = bitcast %class.StringAccum* %9 to i8*, !dbg !3864
  call void @llvm.lifetime.start.p0i8(i64 16, i8* nonnull %106) #17, !dbg !3864
  call void @llvm.dbg.declare(metadata %class.StringAccum* %9, metadata !3779, metadata !DIExpression()), !dbg !3865
  call void @llvm.dbg.value(metadata %class.StringAccum* %9, metadata !3866, metadata !DIExpression()), !dbg !3870
  call void @llvm.dbg.value(metadata %class.StringAccum* %9, metadata !3872, metadata !DIExpression()), !dbg !3876
  %107 = getelementptr inbounds %class.StringAccum, %class.StringAccum* %9, i64 0, i32 0, i32 0, !dbg !3878
  store i8* @_ZN6String9null_dataE, i8** %107, align 8, !dbg !3878, !tbaa !3879
  %108 = getelementptr inbounds %class.StringAccum, %class.StringAccum* %9, i64 0, i32 0, i32 1, !dbg !3882
  store i32 0, i32* %108, align 8, !dbg !3882, !tbaa !3883
  %109 = getelementptr inbounds %class.StringAccum, %class.StringAccum* %9, i64 0, i32 0, i32 2, !dbg !3884
  store i32 0, i32* %109, align 4, !dbg !3884, !tbaa !3885
  call void @llvm.dbg.value(metadata i32 0, metadata !3780, metadata !DIExpression()), !dbg !3886
  %110 = bitcast %class.String* %10 to i8*, !dbg !3887
  %111 = getelementptr inbounds %class.String, %class.String* %10, i64 0, i32 0, i32 0, !dbg !3891
  %112 = getelementptr inbounds %class.String, %class.String* %10, i64 0, i32 0, i32 1, !dbg !3903
  %113 = getelementptr inbounds %class.String, %class.String* %10, i64 0, i32 0, i32 2, !dbg !3908
  br label %116, !dbg !3919

114:                                              ; preds = %244
  %115 = icmp eq %class.ErrorHandler* %5, null, !dbg !3920
  br i1 %115, label %307, label %250, !dbg !3922

116:                                              ; preds = %247, %105
  %117 = phi i32 [ %25, %105 ], [ %249, %247 ], !dbg !3923
  %118 = phi i64 [ 0, %105 ], [ %245, %247 ]
  call void @llvm.dbg.value(metadata i64 %118, metadata !3780, metadata !DIExpression()), !dbg !3886
  %119 = icmp eq i32 %117, 0, !dbg !3923
  br i1 %119, label %244, label %120, !dbg !3924

120:                                              ; preds = %116
  call void @llvm.dbg.value(metadata %class.StringAccum* %9, metadata !3925, metadata !DIExpression()), !dbg !3929
  %121 = load i32, i32* %108, align 8, !dbg !3932, !tbaa !3933
  %122 = icmp eq i32 %121, 0, !dbg !3935
  %123 = select i1 %122, { i64, i64 } zeroinitializer, { i64, i64 } { i64 ptrtoint (i32 (%class.StringAccum*)* @_ZNK11StringAccum8capacityEv to i64), i64 0 }, !dbg !3936
  %124 = extractvalue { i64, i64 } %123, 0, !dbg !3937
  %125 = icmp eq i64 %124, 0, !dbg !3937
  br i1 %125, label %144, label %126, !dbg !3938

126:                                              ; preds = %120
  call void @llvm.dbg.value(metadata %class.StringAccum* %9, metadata !3939, metadata !DIExpression()), !dbg !3945
  call void @llvm.dbg.value(metadata i8* getelementptr inbounds ([3 x i8], [3 x i8]* @.str, i64 0, i64 0), metadata !3944, metadata !DIExpression()), !dbg !3945
  call void @llvm.dbg.value(metadata %class.StringAccum* %9, metadata !3947, metadata !DIExpression()), !dbg !3951
  call void @llvm.dbg.value(metadata i8* getelementptr inbounds ([3 x i8], [3 x i8]* @.str, i64 0, i64 0), metadata !3950, metadata !DIExpression()), !dbg !3951
  call void @llvm.dbg.value(metadata %class.StringAccum* %9, metadata !3953, metadata !DIExpression()), !dbg !3958
  call void @llvm.dbg.value(metadata i8* getelementptr inbounds ([3 x i8], [3 x i8]* @.str, i64 0, i64 0), metadata !3956, metadata !DIExpression()), !dbg !3958
  call void @llvm.dbg.value(metadata i32 2, metadata !3957, metadata !DIExpression()), !dbg !3958
  %127 = add nsw i32 %121, 2, !dbg !3961
  %128 = load i32, i32* %109, align 4, !dbg !3963, !tbaa !3964
  %129 = icmp sgt i32 %127, %128, !dbg !3965
  br i1 %129, label %137, label %130, !dbg !3966

130:                                              ; preds = %126
  %131 = load i8*, i8** %107, align 8, !dbg !3967, !tbaa !3969
  %132 = sext i32 %121 to i64, !dbg !3970
  %133 = getelementptr inbounds i8, i8* %131, i64 %132, !dbg !3970
  %134 = bitcast i8* %133 to i16*, !dbg !3971
  store i16 8236, i16* %134, align 1, !dbg !3971
  %135 = load i32, i32* %108, align 8, !dbg !3972, !tbaa !3933
  %136 = add nsw i32 %135, 2, !dbg !3972
  store i32 %136, i32* %108, align 8, !dbg !3972, !tbaa !3933
  br label %144, !dbg !3973

137:                                              ; preds = %126
  invoke void @_ZN11StringAccum11hard_appendEPKci(%class.StringAccum* nonnull %9, i8* nonnull getelementptr inbounds ([3 x i8], [3 x i8]* @.str, i64 0, i64 0), i32 2)
          to label %138 unwind label %140, !dbg !3974

138:                                              ; preds = %137
  %139 = load i32, i32* %108, align 8, !dbg !3975, !tbaa !3933
  br label %144, !dbg !3974

140:                                              ; preds = %148, %137
  %141 = landingpad { i8*, i32 }
          cleanup, !dbg !3989
  %142 = extractvalue { i8*, i32 } %141, 0, !dbg !3989
  %143 = extractvalue { i8*, i32 } %141, 1, !dbg !3989
  br label %314, !dbg !3989

144:                                              ; preds = %138, %130, %120
  %145 = phi i32 [ %139, %138 ], [ %136, %130 ], [ %121, %120 ], !dbg !3975
  call void @llvm.dbg.value(metadata %class.StringAccum* %9, metadata !3986, metadata !DIExpression()), !dbg !3990
  call void @llvm.dbg.value(metadata i8 39, metadata !3987, metadata !DIExpression()), !dbg !3990
  call void @llvm.dbg.value(metadata %class.StringAccum* %9, metadata !3979, metadata !DIExpression()), !dbg !3991
  call void @llvm.dbg.value(metadata i8 39, metadata !3980, metadata !DIExpression()), !dbg !3991
  %146 = load i32, i32* %109, align 4, !dbg !3992, !tbaa !3964
  %147 = icmp slt i32 %145, %146, !dbg !3993
  br i1 %147, label %154, label %148, !dbg !3994

148:                                              ; preds = %144
  %149 = invoke i8* @_ZN11StringAccum4growEi(%class.StringAccum* nonnull %9, i32 %145)
          to label %150 unwind label %140, !dbg !3995

150:                                              ; preds = %148
  %151 = icmp eq i8* %149, null, !dbg !3995
  br i1 %151, label %160, label %152, !dbg !3996

152:                                              ; preds = %150
  %153 = load i32, i32* %108, align 8, !dbg !3997, !tbaa !3933
  br label %154, !dbg !3996

154:                                              ; preds = %152, %144
  %155 = phi i32 [ %153, %152 ], [ %145, %144 ], !dbg !3997
  %156 = load i8*, i8** %107, align 8, !dbg !3998, !tbaa !3969
  %157 = add nsw i32 %155, 1, !dbg !3997
  store i32 %157, i32* %108, align 8, !dbg !3997, !tbaa !3933
  %158 = sext i32 %155 to i64, !dbg !3999
  %159 = getelementptr inbounds i8, i8* %156, i64 %158, !dbg !3999
  store i8 39, i8* %159, align 1, !dbg !4000, !tbaa !4001
  br label %160, !dbg !3999

160:                                              ; preds = %154, %150
  call void @llvm.lifetime.start.p0i8(i64 24, i8* nonnull %110) #17, !dbg !4002
  %161 = getelementptr inbounds [5 x i32], [5 x i32]* @_ZL7db2type, i64 0, i64 %118, !dbg !4003
  %162 = load i32, i32* %161, align 4, !dbg !4003, !tbaa !3792
  invoke fastcc void @_ZL12unparse_wordiiRK6String(%class.String* noalias nonnull %10, i32 %162, i32 %2, %class.String* nonnull dereferenceable(24) %0)
          to label %163 unwind label %217, !dbg !4002

163:                                              ; preds = %160
  call void @llvm.dbg.value(metadata %class.StringAccum* %9, metadata !3900, metadata !DIExpression()), !dbg !4004
  call void @llvm.dbg.value(metadata %class.String* %10, metadata !3901, metadata !DIExpression()), !dbg !4004
  call void @llvm.dbg.value(metadata %class.String* %10, metadata !3894, metadata !DIExpression()), !dbg !3891
  %164 = load i8*, i8** %111, align 8, !dbg !4005, !tbaa !4006
  call void @llvm.dbg.value(metadata %class.String* %10, metadata !3906, metadata !DIExpression()), !dbg !3903
  %165 = load i32, i32* %112, align 8, !dbg !4009, !tbaa !4010
  call void @llvm.dbg.value(metadata %class.StringAccum* %9, metadata !3953, metadata !DIExpression()), !dbg !4011
  call void @llvm.dbg.value(metadata i8* %164, metadata !3956, metadata !DIExpression()), !dbg !4011
  call void @llvm.dbg.value(metadata i32 %165, metadata !3957, metadata !DIExpression()), !dbg !4011
  %166 = icmp sgt i32 %165, -1, !dbg !4013
  br i1 %166, label %168, label %167, !dbg !4013

167:                                              ; preds = %163
  call void @__assert_fail(i8* getelementptr inbounds ([9 x i8], [9 x i8]* @.str.115, i64 0, i64 0), i8* getelementptr inbounds ([31 x i8], [31 x i8]* @.str.116, i64 0, i64 0), i32 433, i8* getelementptr inbounds ([44 x i8], [44 x i8]* @__PRETTY_FUNCTION__._ZN11StringAccum6appendEPKci, i64 0, i64 0)) #18, !dbg !4013
  unreachable, !dbg !4013

168:                                              ; preds = %163
  %169 = load i32, i32* %108, align 8, !dbg !4014, !tbaa !3933
  %170 = add nsw i32 %169, %165, !dbg !4015
  %171 = load i32, i32* %109, align 4, !dbg !4016, !tbaa !3964
  %172 = icmp sgt i32 %170, %171, !dbg !4017
  br i1 %172, label %180, label %173, !dbg !4018

173:                                              ; preds = %168
  %174 = load i8*, i8** %107, align 8, !dbg !4019, !tbaa !3969
  %175 = sext i32 %169 to i64, !dbg !4020
  %176 = getelementptr inbounds i8, i8* %174, i64 %175, !dbg !4020
  %177 = zext i32 %165 to i64, !dbg !4021
  call void @llvm.memcpy.p0i8.p0i8.i64(i8* align 1 %176, i8* align 1 %164, i64 %177, i1 false), !dbg !4022
  %178 = load i32, i32* %108, align 8, !dbg !4023, !tbaa !3933
  %179 = add nsw i32 %178, %165, !dbg !4023
  store i32 %179, i32* %108, align 8, !dbg !4023, !tbaa !3933
  br label %183, !dbg !4024

180:                                              ; preds = %168
  invoke void @_ZN11StringAccum11hard_appendEPKci(%class.StringAccum* nonnull %9, i8* %164, i32 %165)
          to label %181 unwind label %221, !dbg !4025

181:                                              ; preds = %180
  %182 = load i32, i32* %108, align 8, !dbg !4026, !tbaa !3933
  br label %183, !dbg !4025

183:                                              ; preds = %181, %173
  %184 = phi i32 [ %182, %181 ], [ %179, %173 ], !dbg !4026
  call void @llvm.dbg.value(metadata %class.StringAccum* %9, metadata !3986, metadata !DIExpression()), !dbg !4029
  call void @llvm.dbg.value(metadata i8 39, metadata !3987, metadata !DIExpression()), !dbg !4029
  call void @llvm.dbg.value(metadata %class.StringAccum* %9, metadata !3979, metadata !DIExpression()), !dbg !4030
  call void @llvm.dbg.value(metadata i8 39, metadata !3980, metadata !DIExpression()), !dbg !4030
  %185 = load i32, i32* %109, align 4, !dbg !4031, !tbaa !3964
  %186 = icmp slt i32 %184, %185, !dbg !4032
  br i1 %186, label %193, label %187, !dbg !4033

187:                                              ; preds = %183
  %188 = invoke i8* @_ZN11StringAccum4growEi(%class.StringAccum* nonnull %9, i32 %184)
          to label %189 unwind label %221, !dbg !4034

189:                                              ; preds = %187
  %190 = icmp eq i8* %188, null, !dbg !4034
  br i1 %190, label %199, label %191, !dbg !4035

191:                                              ; preds = %189
  %192 = load i32, i32* %108, align 8, !dbg !4036, !tbaa !3933
  br label %193, !dbg !4035

193:                                              ; preds = %191, %183
  %194 = phi i32 [ %192, %191 ], [ %184, %183 ], !dbg !4036
  %195 = load i8*, i8** %107, align 8, !dbg !4037, !tbaa !3969
  %196 = add nsw i32 %194, 1, !dbg !4036
  store i32 %196, i32* %108, align 8, !dbg !4036, !tbaa !3933
  %197 = sext i32 %194 to i64, !dbg !4038
  %198 = getelementptr inbounds i8, i8* %195, i64 %197, !dbg !4038
  store i8 39, i8* %198, align 1, !dbg !4039, !tbaa !4001
  br label %199, !dbg !4038

199:                                              ; preds = %193, %189
  call void @llvm.dbg.value(metadata %class.String* %10, metadata !3917, metadata !DIExpression()) #17, !dbg !4040
  call void @llvm.dbg.value(metadata %class.String* %10, metadata !3912, metadata !DIExpression()) #17, !dbg !4041
  %200 = load %"struct.String::memo_t"*, %"struct.String::memo_t"** %113, align 8, !dbg !4042, !tbaa !4043
  %201 = icmp eq %"struct.String::memo_t"* %200, null, !dbg !4044
  br i1 %201, label %216, label %202, !dbg !4045

202:                                              ; preds = %199
  %203 = getelementptr inbounds %"struct.String::memo_t", %"struct.String::memo_t"* %200, i64 0, i32 0, !dbg !4046
  %204 = load volatile i32, i32* %203, align 4, !dbg !4046, !tbaa !4048
  %205 = icmp eq i32 %204, 0, !dbg !4046
  br i1 %205, label %206, label %207, !dbg !4046

206:                                              ; preds = %202
  call void @__assert_fail(i8* getelementptr inbounds ([18 x i8], [18 x i8]* @.str.118, i64 0, i64 0), i8* getelementptr inbounds ([29 x i8], [29 x i8]* @.str.119, i64 0, i64 0), i32 273, i8* getelementptr inbounds ([27 x i8], [27 x i8]* @__PRETTY_FUNCTION__._ZNK6String5derefEv, i64 0, i64 0)) #18, !dbg !4046
  unreachable, !dbg !4046

207:                                              ; preds = %202
  call void @llvm.dbg.value(metadata i32* %203, metadata !4050, metadata !DIExpression()) #17, !dbg !4053
  %208 = load volatile i32, i32* %203, align 4, !dbg !4056, !tbaa !3792
  %209 = add i32 %208, -1, !dbg !4056
  store volatile i32 %209, i32* %203, align 4, !dbg !4056, !tbaa !3792
  %210 = icmp eq i32 %209, 0, !dbg !4057
  br i1 %210, label %211, label %212, !dbg !4058

211:                                              ; preds = %207
  invoke void @_ZN6String11delete_memoEPNS_6memo_tE(%"struct.String::memo_t"* nonnull %200)
          to label %212 unwind label %213, !dbg !4059

212:                                              ; preds = %211, %207
  store %"struct.String::memo_t"* null, %"struct.String::memo_t"** %113, align 8, !dbg !4060, !tbaa !4043
  br label %216, !dbg !4061

213:                                              ; preds = %211
  %214 = landingpad { i8*, i32 }
          catch i8* null, !dbg !4062
  %215 = extractvalue { i8*, i32 } %214, 0, !dbg !4062
  call void @__clang_call_terminate(i8* %215) #18, !dbg !4062
  unreachable, !dbg !4062

216:                                              ; preds = %199, %212
  call void @llvm.lifetime.end.p0i8(i64 24, i8* nonnull %110) #17, !dbg !4063
  br label %244, !dbg !4064

217:                                              ; preds = %160
  %218 = landingpad { i8*, i32 }
          cleanup, !dbg !4065
  %219 = extractvalue { i8*, i32 } %218, 0, !dbg !4065
  %220 = extractvalue { i8*, i32 } %218, 1, !dbg !4065
  br label %241, !dbg !4065

221:                                              ; preds = %187, %180
  %222 = landingpad { i8*, i32 }
          cleanup, !dbg !4065
  %223 = extractvalue { i8*, i32 } %222, 0, !dbg !4065
  %224 = extractvalue { i8*, i32 } %222, 1, !dbg !4065
  call void @llvm.dbg.value(metadata %class.String* %10, metadata !3917, metadata !DIExpression()) #17, !dbg !4066
  call void @llvm.dbg.value(metadata %class.String* %10, metadata !3912, metadata !DIExpression()) #17, !dbg !4068
  %225 = load %"struct.String::memo_t"*, %"struct.String::memo_t"** %113, align 8, !dbg !4070, !tbaa !4043
  %226 = icmp eq %"struct.String::memo_t"* %225, null, !dbg !4071
  br i1 %226, label %241, label %227, !dbg !4072

227:                                              ; preds = %221
  %228 = getelementptr inbounds %"struct.String::memo_t", %"struct.String::memo_t"* %225, i64 0, i32 0, !dbg !4073
  %229 = load volatile i32, i32* %228, align 4, !dbg !4073, !tbaa !4048
  %230 = icmp eq i32 %229, 0, !dbg !4073
  br i1 %230, label %231, label %232, !dbg !4073

231:                                              ; preds = %227
  call void @__assert_fail(i8* getelementptr inbounds ([18 x i8], [18 x i8]* @.str.118, i64 0, i64 0), i8* getelementptr inbounds ([29 x i8], [29 x i8]* @.str.119, i64 0, i64 0), i32 273, i8* getelementptr inbounds ([27 x i8], [27 x i8]* @__PRETTY_FUNCTION__._ZNK6String5derefEv, i64 0, i64 0)) #18, !dbg !4073
  unreachable, !dbg !4073

232:                                              ; preds = %227
  call void @llvm.dbg.value(metadata i32* %228, metadata !4050, metadata !DIExpression()) #17, !dbg !4074
  %233 = load volatile i32, i32* %228, align 4, !dbg !4076, !tbaa !3792
  %234 = add i32 %233, -1, !dbg !4076
  store volatile i32 %234, i32* %228, align 4, !dbg !4076, !tbaa !3792
  %235 = icmp eq i32 %234, 0, !dbg !4077
  br i1 %235, label %236, label %237, !dbg !4078

236:                                              ; preds = %232
  invoke void @_ZN6String11delete_memoEPNS_6memo_tE(%"struct.String::memo_t"* nonnull %225)
          to label %237 unwind label %238, !dbg !4079

237:                                              ; preds = %236, %232
  store %"struct.String::memo_t"* null, %"struct.String::memo_t"** %113, align 8, !dbg !4080, !tbaa !4043
  br label %241, !dbg !4081

238:                                              ; preds = %236
  %239 = landingpad { i8*, i32 }
          catch i8* null, !dbg !4082
  %240 = extractvalue { i8*, i32 } %239, 0, !dbg !4082
  call void @__clang_call_terminate(i8* %240) #18, !dbg !4082
  unreachable, !dbg !4082

241:                                              ; preds = %237, %221, %217
  %242 = phi i8* [ %219, %217 ], [ %223, %221 ], [ %223, %237 ], !dbg !4065
  %243 = phi i32 [ %220, %217 ], [ %224, %221 ], [ %224, %237 ], !dbg !4065
  call void @llvm.lifetime.end.p0i8(i64 24, i8* nonnull %110) #17, !dbg !4063
  br label %314, !dbg !4063

244:                                              ; preds = %116, %216
  %245 = add nuw nsw i64 %118, 1, !dbg !4083
  call void @llvm.dbg.value(metadata i64 %245, metadata !3780, metadata !DIExpression()), !dbg !3886
  %246 = icmp eq i64 %245, 5, !dbg !4084
  br i1 %246, label %114, label %247, !dbg !3919, !llvm.loop !4085

247:                                              ; preds = %244
  %248 = getelementptr inbounds [5 x i32], [5 x i32]* %7, i64 0, i64 %245, !dbg !4087
  %249 = load i32, i32* %248, align 4, !dbg !3923, !tbaa !3792
  br label %116, !dbg !3919

250:                                              ; preds = %114
  %251 = bitcast %class.String* %11 to i8*, !dbg !4088
  call void @llvm.lifetime.start.p0i8(i64 24, i8* nonnull %251) #17, !dbg !4088
  invoke fastcc void @_ZL12unparse_wordiiRK6String(%class.String* noalias nonnull %11, i32 %1, i32 %2, %class.String* nonnull dereferenceable(24) %0)
          to label %252 unwind label %279, !dbg !4088

252:                                              ; preds = %250
  %253 = invoke i8* @_ZNK6String5c_strEv(%class.String* nonnull %11)
          to label %254 unwind label %283, !dbg !4089

254:                                              ; preds = %252
  %255 = invoke i8* @_ZN11StringAccum5c_strEv(%class.StringAccum* nonnull %9)
          to label %256 unwind label %283, !dbg !4090

256:                                              ; preds = %254
  %257 = icmp ugt i32 %92, 1, !dbg !4091
  %258 = select i1 %257, i8* getelementptr inbounds ([10 x i8], [10 x i8]* @.str.2, i64 0, i64 0), i8* getelementptr inbounds ([12 x i8], [12 x i8]* @.str.3, i64 0, i64 0), !dbg !4092
  %259 = invoke i32 (%class.ErrorHandler*, i8*, ...) @_ZN12ErrorHandler5errorEPKcz(%class.ErrorHandler* nonnull %5, i8* getelementptr inbounds ([21 x i8], [21 x i8]* @.str.1, i64 0, i64 0), i8* %253, i8* %258, i8* %255)
          to label %260 unwind label %283, !dbg !4093

260:                                              ; preds = %256
  call void @llvm.dbg.value(metadata %class.String* %11, metadata !3917, metadata !DIExpression()) #17, !dbg !4094
  call void @llvm.dbg.value(metadata %class.String* %11, metadata !3912, metadata !DIExpression()) #17, !dbg !4096
  %261 = getelementptr inbounds %class.String, %class.String* %11, i64 0, i32 0, i32 2, !dbg !4098
  %262 = load %"struct.String::memo_t"*, %"struct.String::memo_t"** %261, align 8, !dbg !4098, !tbaa !4043
  %263 = icmp eq %"struct.String::memo_t"* %262, null, !dbg !4099
  br i1 %263, label %278, label %264, !dbg !4100

264:                                              ; preds = %260
  %265 = getelementptr inbounds %"struct.String::memo_t", %"struct.String::memo_t"* %262, i64 0, i32 0, !dbg !4101
  %266 = load volatile i32, i32* %265, align 4, !dbg !4101, !tbaa !4048
  %267 = icmp eq i32 %266, 0, !dbg !4101
  br i1 %267, label %268, label %269, !dbg !4101

268:                                              ; preds = %264
  call void @__assert_fail(i8* getelementptr inbounds ([18 x i8], [18 x i8]* @.str.118, i64 0, i64 0), i8* getelementptr inbounds ([29 x i8], [29 x i8]* @.str.119, i64 0, i64 0), i32 273, i8* getelementptr inbounds ([27 x i8], [27 x i8]* @__PRETTY_FUNCTION__._ZNK6String5derefEv, i64 0, i64 0)) #18, !dbg !4101
  unreachable, !dbg !4101

269:                                              ; preds = %264
  call void @llvm.dbg.value(metadata i32* %265, metadata !4050, metadata !DIExpression()) #17, !dbg !4102
  %270 = load volatile i32, i32* %265, align 4, !dbg !4104, !tbaa !3792
  %271 = add i32 %270, -1, !dbg !4104
  store volatile i32 %271, i32* %265, align 4, !dbg !4104, !tbaa !3792
  %272 = icmp eq i32 %271, 0, !dbg !4105
  br i1 %272, label %273, label %274, !dbg !4106

273:                                              ; preds = %269
  invoke void @_ZN6String11delete_memoEPNS_6memo_tE(%"struct.String::memo_t"* nonnull %262)
          to label %274 unwind label %275, !dbg !4107

274:                                              ; preds = %273, %269
  store %"struct.String::memo_t"* null, %"struct.String::memo_t"** %261, align 8, !dbg !4108, !tbaa !4043
  br label %278, !dbg !4109

275:                                              ; preds = %273
  %276 = landingpad { i8*, i32 }
          catch i8* null, !dbg !4110
  %277 = extractvalue { i8*, i32 } %276, 0, !dbg !4110
  call void @__clang_call_terminate(i8* %277) #18, !dbg !4110
  unreachable, !dbg !4110

278:                                              ; preds = %260, %274
  call void @llvm.lifetime.end.p0i8(i64 24, i8* nonnull %251) #17, !dbg !4111
  br label %307, !dbg !4111

279:                                              ; preds = %250
  %280 = landingpad { i8*, i32 }
          cleanup, !dbg !4112
  %281 = extractvalue { i8*, i32 } %280, 0, !dbg !4112
  %282 = extractvalue { i8*, i32 } %280, 1, !dbg !4112
  br label %304, !dbg !4112

283:                                              ; preds = %256, %254, %252
  %284 = landingpad { i8*, i32 }
          cleanup, !dbg !4112
  %285 = extractvalue { i8*, i32 } %284, 0, !dbg !4112
  %286 = extractvalue { i8*, i32 } %284, 1, !dbg !4112
  call void @llvm.dbg.value(metadata %class.String* %11, metadata !3917, metadata !DIExpression()) #17, !dbg !4113
  call void @llvm.dbg.value(metadata %class.String* %11, metadata !3912, metadata !DIExpression()) #17, !dbg !4115
  %287 = getelementptr inbounds %class.String, %class.String* %11, i64 0, i32 0, i32 2, !dbg !4117
  %288 = load %"struct.String::memo_t"*, %"struct.String::memo_t"** %287, align 8, !dbg !4117, !tbaa !4043
  %289 = icmp eq %"struct.String::memo_t"* %288, null, !dbg !4118
  br i1 %289, label %304, label %290, !dbg !4119

290:                                              ; preds = %283
  %291 = getelementptr inbounds %"struct.String::memo_t", %"struct.String::memo_t"* %288, i64 0, i32 0, !dbg !4120
  %292 = load volatile i32, i32* %291, align 4, !dbg !4120, !tbaa !4048
  %293 = icmp eq i32 %292, 0, !dbg !4120
  br i1 %293, label %294, label %295, !dbg !4120

294:                                              ; preds = %290
  call void @__assert_fail(i8* getelementptr inbounds ([18 x i8], [18 x i8]* @.str.118, i64 0, i64 0), i8* getelementptr inbounds ([29 x i8], [29 x i8]* @.str.119, i64 0, i64 0), i32 273, i8* getelementptr inbounds ([27 x i8], [27 x i8]* @__PRETTY_FUNCTION__._ZNK6String5derefEv, i64 0, i64 0)) #18, !dbg !4120
  unreachable, !dbg !4120

295:                                              ; preds = %290
  call void @llvm.dbg.value(metadata i32* %291, metadata !4050, metadata !DIExpression()) #17, !dbg !4121
  %296 = load volatile i32, i32* %291, align 4, !dbg !4123, !tbaa !3792
  %297 = add i32 %296, -1, !dbg !4123
  store volatile i32 %297, i32* %291, align 4, !dbg !4123, !tbaa !3792
  %298 = icmp eq i32 %297, 0, !dbg !4124
  br i1 %298, label %299, label %300, !dbg !4125

299:                                              ; preds = %295
  invoke void @_ZN6String11delete_memoEPNS_6memo_tE(%"struct.String::memo_t"* nonnull %288)
          to label %300 unwind label %301, !dbg !4126

300:                                              ; preds = %299, %295
  store %"struct.String::memo_t"* null, %"struct.String::memo_t"** %287, align 8, !dbg !4127, !tbaa !4043
  br label %304, !dbg !4128

301:                                              ; preds = %299
  %302 = landingpad { i8*, i32 }
          catch i8* null, !dbg !4129
  %303 = extractvalue { i8*, i32 } %302, 0, !dbg !4129
  call void @__clang_call_terminate(i8* %303) #18, !dbg !4129
  unreachable, !dbg !4129

304:                                              ; preds = %300, %283, %279
  %305 = phi i8* [ %281, %279 ], [ %285, %283 ], [ %285, %300 ], !dbg !4112
  %306 = phi i32 [ %282, %279 ], [ %286, %283 ], [ %286, %300 ], !dbg !4112
  call void @llvm.lifetime.end.p0i8(i64 24, i8* nonnull %251) #17, !dbg !4111
  br label %314, !dbg !4111

307:                                              ; preds = %114, %278
  call void @llvm.dbg.value(metadata %class.StringAccum* %9, metadata !4130, metadata !DIExpression()) #17, !dbg !4133
  %308 = load i32, i32* %109, align 4, !dbg !4135, !tbaa !3964
  %309 = icmp sgt i32 %308, 0, !dbg !4138
  br i1 %309, label %310, label %313, !dbg !4139

310:                                              ; preds = %307
  %311 = load i8*, i8** %107, align 8, !dbg !4140, !tbaa !3969
  %312 = getelementptr inbounds i8, i8* %311, i64 -12, !dbg !4140
  call void @_ZdaPv(i8* nonnull %312) #19, !dbg !4140
  br label %313, !dbg !4140

313:                                              ; preds = %307, %310
  call void @llvm.lifetime.end.p0i8(i64 16, i8* nonnull %106) #17, !dbg !4141
  br label %325

314:                                              ; preds = %140, %241, %304
  %315 = phi i8* [ %305, %304 ], [ %242, %241 ], [ %142, %140 ], !dbg !3783
  %316 = phi i32 [ %306, %304 ], [ %243, %241 ], [ %143, %140 ], !dbg !3783
  call void @llvm.dbg.value(metadata %class.StringAccum* %9, metadata !4130, metadata !DIExpression()) #17, !dbg !4142
  %317 = load i32, i32* %109, align 4, !dbg !4144, !tbaa !3964
  %318 = icmp sgt i32 %317, 0, !dbg !4145
  br i1 %318, label %319, label %322, !dbg !4146

319:                                              ; preds = %314
  %320 = load i8*, i8** %107, align 8, !dbg !4147, !tbaa !3969
  %321 = getelementptr inbounds i8, i8* %320, i64 -12, !dbg !4147
  call void @_ZdaPv(i8* nonnull %321) #19, !dbg !4147
  br label %322, !dbg !4147

322:                                              ; preds = %314, %319
  call void @llvm.lifetime.end.p0i8(i64 16, i8* nonnull %106) #17, !dbg !4141
  call void @llvm.lifetime.end.p0i8(i64 20, i8* nonnull %23) #17, !dbg !4141
  call void @llvm.lifetime.end.p0i8(i64 20, i8* nonnull %22) #17, !dbg !4141
  %323 = insertvalue { i8*, i32 } undef, i8* %315, 0, !dbg !4141
  %324 = insertvalue { i8*, i32 } %323, i32 %316, 1, !dbg !4141
  resume { i8*, i32 } %324, !dbg !4141

325:                                              ; preds = %313, %99, %21
  %326 = phi i32 [ -1, %21 ], [ -2, %313 ], [ %104, %99 ], !dbg !3783
  call void @llvm.lifetime.end.p0i8(i64 20, i8* nonnull %23) #17, !dbg !4141
  call void @llvm.lifetime.end.p0i8(i64 20, i8* nonnull %22) #17, !dbg !4141
  br label %327

327:                                              ; preds = %325, %17
  %328 = phi i32 [ %20, %17 ], [ %326, %325 ], !dbg !3783
  ret i32 %328, !dbg !4141

329:                                              ; preds = %94
  call void @llvm.dbg.value(metadata i64 2, metadata !3775, metadata !DIExpression()), !dbg !3856
  %330 = icmp eq i32 %88, 0, !dbg !4148
  call void @llvm.dbg.value(metadata i64 2, metadata !3775, metadata !DIExpression(DW_OP_plus_uconst, 1, DW_OP_stack_value)), !dbg !3856
  br i1 %330, label %331, label %99, !dbg !3857

331:                                              ; preds = %329
  call void @llvm.dbg.value(metadata i64 3, metadata !3775, metadata !DIExpression()), !dbg !3856
  %332 = icmp eq i32 %72, 0, !dbg !4148
  call void @llvm.dbg.value(metadata i64 3, metadata !3775, metadata !DIExpression(DW_OP_plus_uconst, 1, DW_OP_stack_value)), !dbg !3856
  br i1 %332, label %333, label %99, !dbg !3857

333:                                              ; preds = %331
  call void @llvm.dbg.value(metadata i64 4, metadata !3775, metadata !DIExpression()), !dbg !3856
  %334 = icmp eq i32 %80, 0, !dbg !4148
  call void @llvm.dbg.value(metadata i64 4, metadata !3775, metadata !DIExpression(DW_OP_plus_uconst, 1, DW_OP_stack_value)), !dbg !3856
  br i1 %334, label %105, label %99, !dbg !3857
}

; Function Attrs: nounwind readnone speculatable willreturn
declare void @llvm.dbg.declare(metadata, metadata, metadata) #1

declare zeroext i1 @_ZN8NameInfo5queryEjPK7ElementRK6StringPvm(i32, %class.Element*, %class.String* dereferenceable(24), i8*, i64) local_unnamed_addr #2

; Function Attrs: argmemonly nounwind willreturn
declare void @llvm.lifetime.start.p0i8(i64 immarg, i8* nocapture) #3

; Function Attrs: argmemonly nounwind willreturn
declare void @llvm.lifetime.end.p0i8(i64 immarg, i8* nocapture) #3

declare i32 @__gxx_personality_v0(...)

; Function Attrs: sspstrong uwtable
define internal fastcc void @_ZL12unparse_wordiiRK6String(%class.String* noalias nocapture %0, i32 %1, i32 %2, %class.String* nocapture readonly dereferenceable(24) %3) unnamed_addr #0 personality i8* bitcast (i32 (...)* @__gxx_personality_v0 to i8*) !dbg !4149 {
  %5 = alloca %class.String, align 8
  %6 = alloca %class.String, align 8
  %7 = alloca %class.String, align 8
  %8 = alloca %class.String, align 8
  call void @llvm.dbg.value(metadata i32 %1, metadata !4153, metadata !DIExpression()), !dbg !4158
  call void @llvm.dbg.value(metadata i32 %2, metadata !4154, metadata !DIExpression()), !dbg !4158
  call void @llvm.dbg.value(metadata %class.String* %3, metadata !4155, metadata !DIExpression()), !dbg !4158
  %9 = bitcast %class.String* %5 to i8*, !dbg !4159
  call void @llvm.lifetime.start.p0i8(i64 24, i8* nonnull %9) #17, !dbg !4159
  call void @llvm.dbg.declare(metadata %class.String* %5, metadata !4156, metadata !DIExpression()), !dbg !4160
  call void @_ZN8IPFilter9Primitive12unparse_typeEii(%class.String* nonnull sret %5, i32 0, i32 %1), !dbg !4161
  %10 = bitcast %class.String* %6 to i8*, !dbg !4162
  call void @llvm.lifetime.start.p0i8(i64 24, i8* nonnull %10) #17, !dbg !4162
  call void @llvm.dbg.declare(metadata %class.String* %6, metadata !4157, metadata !DIExpression()), !dbg !4163
  invoke void @_ZN8IPFilter9Primitive20unparse_transp_protoEi(%class.String* nonnull sret %6, i32 %2)
          to label %11 unwind label %19, !dbg !4164

11:                                               ; preds = %4
  call void @llvm.dbg.value(metadata %class.String* %5, metadata !4165, metadata !DIExpression()), !dbg !4168
  %12 = getelementptr inbounds %class.String, %class.String* %5, i64 0, i32 0, i32 1, !dbg !4171
  %13 = load i32, i32* %12, align 8, !dbg !4171, !tbaa !4010
  %14 = icmp eq i32 %13, 0, !dbg !4172
  %15 = select i1 %14, { i64, i64 } zeroinitializer, { i64, i64 } { i64 ptrtoint (i32 (%class.String*)* @_ZNK6String6lengthEv to i64), i64 0 }, !dbg !4173
  %16 = extractvalue { i64, i64 } %15, 0, !dbg !4174
  %17 = icmp eq i64 %16, 0, !dbg !4174
  br i1 %17, label %27, label %18, !dbg !4175

18:                                               ; preds = %11
  call void @llvm.dbg.value(metadata %class.String* %5, metadata !4176, metadata !DIExpression()), !dbg !4180
  call void @llvm.dbg.value(metadata i8* getelementptr inbounds ([2 x i8], [2 x i8]* @.str.117, i64 0, i64 0), metadata !4179, metadata !DIExpression()), !dbg !4180
  call void @llvm.dbg.value(metadata %class.String* %5, metadata !4182, metadata !DIExpression()), !dbg !4186
  call void @llvm.dbg.value(metadata i8* getelementptr inbounds ([2 x i8], [2 x i8]* @.str.117, i64 0, i64 0), metadata !4185, metadata !DIExpression()), !dbg !4186
  invoke void @_ZN6String6appendEPKciPNS_6memo_tE(%class.String* nonnull %5, i8* nonnull getelementptr inbounds ([2 x i8], [2 x i8]* @.str.117, i64 0, i64 0), i32 1, %"struct.String::memo_t"* nonnull inttoptr (i64 1 to %"struct.String::memo_t"*))
          to label %27 unwind label %23, !dbg !4188

19:                                               ; preds = %4
  %20 = landingpad { i8*, i32 }
          cleanup, !dbg !4190
  %21 = extractvalue { i8*, i32 } %20, 0, !dbg !4190
  %22 = extractvalue { i8*, i32 } %20, 1, !dbg !4190
  br label %195, !dbg !4190

23:                                               ; preds = %47, %18
  %24 = landingpad { i8*, i32 }
          cleanup, !dbg !4191
  %25 = extractvalue { i8*, i32 } %24, 0, !dbg !4191
  %26 = extractvalue { i8*, i32 } %24, 1, !dbg !4191
  br label %175, !dbg !4191

27:                                               ; preds = %18, %11
  call void @llvm.dbg.value(metadata %class.String* %6, metadata !4165, metadata !DIExpression()), !dbg !4192
  %28 = getelementptr inbounds %class.String, %class.String* %6, i64 0, i32 0, i32 1, !dbg !4195
  %29 = load i32, i32* %28, align 8, !dbg !4195, !tbaa !4010
  %30 = icmp eq i32 %29, 0, !dbg !4196
  %31 = select i1 %30, { i64, i64 } zeroinitializer, { i64, i64 } { i64 ptrtoint (i32 (%class.String*)* @_ZNK6String6lengthEv to i64), i64 0 }, !dbg !4197
  %32 = extractvalue { i64, i64 } %31, 0, !dbg !4198
  %33 = icmp eq i64 %32, 0, !dbg !4198
  br i1 %33, label %34, label %47, !dbg !4199

34:                                               ; preds = %27
  call void @llvm.dbg.value(metadata %class.String* %3, metadata !4165, metadata !DIExpression()), !dbg !4200
  %35 = getelementptr inbounds %class.String, %class.String* %3, i64 0, i32 0, i32 1, !dbg !4202
  %36 = load i32, i32* %35, align 8, !dbg !4202, !tbaa !4010
  %37 = icmp eq i32 %36, 0, !dbg !4203
  %38 = select i1 %37, { i64, i64 } zeroinitializer, { i64, i64 } { i64 ptrtoint (i32 (%class.String*)* @_ZNK6String6lengthEv to i64), i64 0 }, !dbg !4204
  %39 = extractvalue { i64, i64 } %38, 0, !dbg !4205
  %40 = icmp eq i64 %39, 0, !dbg !4205
  br i1 %40, label %48, label %41, !dbg !4206

41:                                               ; preds = %34
  call void @llvm.dbg.value(metadata %class.String* %5, metadata !4165, metadata !DIExpression()), !dbg !4207
  %42 = load i32, i32* %12, align 8, !dbg !4209, !tbaa !4010
  %43 = icmp eq i32 %42, 0, !dbg !4210
  %44 = select i1 %43, { i64, i64 } zeroinitializer, { i64, i64 } { i64 ptrtoint (i32 (%class.String*)* @_ZNK6String6lengthEv to i64), i64 0 }, !dbg !4211
  %45 = extractvalue { i64, i64 } %44, 0, !dbg !4212
  %46 = icmp eq i64 %45, 0, !dbg !4212
  br i1 %46, label %48, label %47, !dbg !4213

47:                                               ; preds = %27, %41
  call void @llvm.dbg.value(metadata %class.String* %6, metadata !4176, metadata !DIExpression()), !dbg !4214
  call void @llvm.dbg.value(metadata i8* getelementptr inbounds ([2 x i8], [2 x i8]* @.str.117, i64 0, i64 0), metadata !4179, metadata !DIExpression()), !dbg !4214
  call void @llvm.dbg.value(metadata %class.String* %6, metadata !4182, metadata !DIExpression()), !dbg !4216
  call void @llvm.dbg.value(metadata i8* getelementptr inbounds ([2 x i8], [2 x i8]* @.str.117, i64 0, i64 0), metadata !4185, metadata !DIExpression()), !dbg !4216
  invoke void @_ZN6String6appendEPKciPNS_6memo_tE(%class.String* nonnull %6, i8* nonnull getelementptr inbounds ([2 x i8], [2 x i8]* @.str.117, i64 0, i64 0), i32 1, %"struct.String::memo_t"* nonnull inttoptr (i64 1 to %"struct.String::memo_t"*))
          to label %48 unwind label %23, !dbg !4218

48:                                               ; preds = %47, %41, %34
  call void @llvm.dbg.value(metadata %class.String* %8, metadata !4219, metadata !DIExpression()), !dbg !4223
  call void @llvm.dbg.value(metadata %class.String* %5, metadata !4222, metadata !DIExpression()), !dbg !4223
  call void @llvm.dbg.value(metadata %class.String* %8, metadata !4225, metadata !DIExpression()), !dbg !4229
  call void @llvm.dbg.value(metadata %class.String* %5, metadata !4228, metadata !DIExpression()), !dbg !4229
  %49 = bitcast %class.String* %5 to i64*, !dbg !4232
  %50 = load i64, i64* %49, align 8, !dbg !4232, !tbaa !4006
  %51 = load i32, i32* %12, align 8, !dbg !4233, !tbaa !4010
  %52 = getelementptr inbounds %class.String, %class.String* %5, i64 0, i32 0, i32 2, !dbg !4234
  %53 = load %"struct.String::memo_t"*, %"struct.String::memo_t"** %52, align 8, !dbg !4234, !tbaa !4043
  call void @llvm.dbg.value(metadata %class.String* %8, metadata !4235, metadata !DIExpression()), !dbg !4241
  call void @llvm.dbg.value(metadata i8* undef, metadata !4238, metadata !DIExpression()), !dbg !4241
  call void @llvm.dbg.value(metadata i32 %51, metadata !4239, metadata !DIExpression()), !dbg !4241
  call void @llvm.dbg.value(metadata %"struct.String::memo_t"* %53, metadata !4240, metadata !DIExpression()), !dbg !4241
  %54 = bitcast %class.String* %8 to i64*, !dbg !4243
  store i64 %50, i64* %54, align 8, !dbg !4243, !tbaa !4006
  %55 = getelementptr inbounds %class.String, %class.String* %8, i64 0, i32 0, i32 1, !dbg !4244
  store i32 %51, i32* %55, align 8, !dbg !4245, !tbaa !4010
  %56 = getelementptr inbounds %class.String, %class.String* %8, i64 0, i32 0, i32 2, !dbg !4246
  store %"struct.String::memo_t"* %53, %"struct.String::memo_t"** %56, align 8, !dbg !4248, !tbaa !4043
  %57 = icmp eq %"struct.String::memo_t"* %53, null, !dbg !4249
  br i1 %57, label %62, label %58, !dbg !4250

58:                                               ; preds = %48
  %59 = getelementptr inbounds %"struct.String::memo_t", %"struct.String::memo_t"* %53, i64 0, i32 0, !dbg !4251
  call void @llvm.dbg.value(metadata i32* %59, metadata !4252, metadata !DIExpression()), !dbg !4255
  %60 = load volatile i32, i32* %59, align 4, !dbg !4257, !tbaa !3792
  %61 = add i32 %60, 1, !dbg !4257
  store volatile i32 %61, i32* %59, align 4, !dbg !4257, !tbaa !3792
  br label %62, !dbg !4258

62:                                               ; preds = %58, %48
  call void @llvm.dbg.declare(metadata %class.String* %8, metadata !4259, metadata !DIExpression()), !dbg !4265
  call void @llvm.dbg.value(metadata %class.String* %6, metadata !4264, metadata !DIExpression()), !dbg !4267
  call void @llvm.dbg.value(metadata %class.String* %8, metadata !4268, metadata !DIExpression()), !dbg !4272
  call void @llvm.dbg.value(metadata %class.String* %6, metadata !4271, metadata !DIExpression()), !dbg !4272
  call void @llvm.dbg.value(metadata %class.String* %6, metadata !3894, metadata !DIExpression()), !dbg !4274
  %63 = getelementptr inbounds %class.String, %class.String* %6, i64 0, i32 0, i32 0, !dbg !4276
  %64 = load i8*, i8** %63, align 8, !dbg !4276, !tbaa !4006, !noalias !4277
  call void @llvm.dbg.value(metadata %class.String* %6, metadata !3906, metadata !DIExpression()), !dbg !4280
  %65 = load i32, i32* %28, align 8, !dbg !4282, !tbaa !4010, !noalias !4277
  %66 = getelementptr inbounds %class.String, %class.String* %6, i64 0, i32 0, i32 2, !dbg !4283
  %67 = load %"struct.String::memo_t"*, %"struct.String::memo_t"** %66, align 8, !dbg !4283, !tbaa !4043, !noalias !4277
  invoke void @_ZN6String6appendEPKciPNS_6memo_tE(%class.String* nonnull %8, i8* %64, i32 %65, %"struct.String::memo_t"* %67)
          to label %68 unwind label %131, !dbg !4284

68:                                               ; preds = %62
  call void @llvm.dbg.value(metadata %class.String* %7, metadata !4285, metadata !DIExpression()) #17, !dbg !4289
  call void @llvm.dbg.value(metadata %class.String* %8, metadata !4288, metadata !DIExpression()) #17, !dbg !4289
  %69 = bitcast %class.String* %7 to i8*, !dbg !4291
  %70 = bitcast %class.String* %8 to i8*, !dbg !4291
  call void @llvm.memcpy.p0i8.p0i8.i64(i8* nonnull align 8 dereferenceable(24) %69, i8* nonnull align 8 dereferenceable(24) %70, i64 24, i1 false) #17, !dbg !4291, !tbaa.struct !4292
  store %"struct.String::memo_t"* null, %"struct.String::memo_t"** %56, align 8, !dbg !4294, !tbaa !4043, !noalias !4277
  call void @llvm.dbg.declare(metadata %class.String* %7, metadata !4259, metadata !DIExpression()), !dbg !4296
  call void @llvm.dbg.value(metadata %class.String* %3, metadata !4264, metadata !DIExpression()), !dbg !4298
  call void @llvm.dbg.value(metadata %class.String* %7, metadata !4268, metadata !DIExpression()), !dbg !4299
  call void @llvm.dbg.value(metadata %class.String* %3, metadata !4271, metadata !DIExpression()), !dbg !4299
  call void @llvm.dbg.value(metadata %class.String* %3, metadata !3894, metadata !DIExpression()), !dbg !4301
  %71 = getelementptr inbounds %class.String, %class.String* %3, i64 0, i32 0, i32 0, !dbg !4303
  %72 = load i8*, i8** %71, align 8, !dbg !4303, !tbaa !4006, !noalias !4304
  call void @llvm.dbg.value(metadata %class.String* %3, metadata !3906, metadata !DIExpression()), !dbg !4307
  %73 = getelementptr inbounds %class.String, %class.String* %3, i64 0, i32 0, i32 1, !dbg !4309
  %74 = load i32, i32* %73, align 8, !dbg !4309, !tbaa !4010, !noalias !4304
  %75 = getelementptr inbounds %class.String, %class.String* %3, i64 0, i32 0, i32 2, !dbg !4310
  %76 = load %"struct.String::memo_t"*, %"struct.String::memo_t"** %75, align 8, !dbg !4310, !tbaa !4043, !noalias !4304
  invoke void @_ZN6String6appendEPKciPNS_6memo_tE(%class.String* nonnull %7, i8* %72, i32 %74, %"struct.String::memo_t"* %76)
          to label %77 unwind label %135, !dbg !4311

77:                                               ; preds = %68
  call void @llvm.dbg.value(metadata %class.String* %0, metadata !4285, metadata !DIExpression()) #17, !dbg !4312
  call void @llvm.dbg.value(metadata %class.String* %7, metadata !4288, metadata !DIExpression()) #17, !dbg !4312
  %78 = bitcast %class.String* %0 to i8*, !dbg !4314
  call void @llvm.memcpy.p0i8.p0i8.i64(i8* nonnull align 8 dereferenceable(24) %78, i8* nonnull align 8 dereferenceable(24) %69, i64 24, i1 false) #17, !dbg !4314, !tbaa.struct !4292
  %79 = getelementptr inbounds %class.String, %class.String* %7, i64 0, i32 0, i32 2, !dbg !4315
  store %"struct.String::memo_t"* null, %"struct.String::memo_t"** %79, align 8, !dbg !4316, !tbaa !4043, !noalias !4304
  call void @llvm.dbg.value(metadata %class.String* %7, metadata !3917, metadata !DIExpression()) #17, !dbg !4317
  call void @llvm.dbg.value(metadata %class.String* %7, metadata !3912, metadata !DIExpression()) #17, !dbg !4319
  call void @llvm.dbg.value(metadata %class.String* %8, metadata !3917, metadata !DIExpression()) #17, !dbg !4321
  call void @llvm.dbg.value(metadata %class.String* %8, metadata !3912, metadata !DIExpression()) #17, !dbg !4323
  %80 = load %"struct.String::memo_t"*, %"struct.String::memo_t"** %56, align 8, !dbg !4325, !tbaa !4043
  %81 = icmp eq %"struct.String::memo_t"* %80, null, !dbg !4326
  br i1 %81, label %96, label %82, !dbg !4327

82:                                               ; preds = %77
  %83 = getelementptr inbounds %"struct.String::memo_t", %"struct.String::memo_t"* %80, i64 0, i32 0, !dbg !4328
  %84 = load volatile i32, i32* %83, align 4, !dbg !4328, !tbaa !4048
  %85 = icmp eq i32 %84, 0, !dbg !4328
  br i1 %85, label %86, label %87, !dbg !4328

86:                                               ; preds = %82
  call void @__assert_fail(i8* getelementptr inbounds ([18 x i8], [18 x i8]* @.str.118, i64 0, i64 0), i8* getelementptr inbounds ([29 x i8], [29 x i8]* @.str.119, i64 0, i64 0), i32 273, i8* getelementptr inbounds ([27 x i8], [27 x i8]* @__PRETTY_FUNCTION__._ZNK6String5derefEv, i64 0, i64 0)) #18, !dbg !4328
  unreachable, !dbg !4328

87:                                               ; preds = %82
  call void @llvm.dbg.value(metadata i32* %83, metadata !4050, metadata !DIExpression()) #17, !dbg !4329
  %88 = load volatile i32, i32* %83, align 4, !dbg !4331, !tbaa !3792
  %89 = add i32 %88, -1, !dbg !4331
  store volatile i32 %89, i32* %83, align 4, !dbg !4331, !tbaa !3792
  %90 = icmp eq i32 %89, 0, !dbg !4332
  br i1 %90, label %91, label %92, !dbg !4333

91:                                               ; preds = %87
  invoke void @_ZN6String11delete_memoEPNS_6memo_tE(%"struct.String::memo_t"* nonnull %80)
          to label %92 unwind label %93, !dbg !4334

92:                                               ; preds = %91, %87
  store %"struct.String::memo_t"* null, %"struct.String::memo_t"** %56, align 8, !dbg !4335, !tbaa !4043
  br label %96, !dbg !4336

93:                                               ; preds = %91
  %94 = landingpad { i8*, i32 }
          catch i8* null, !dbg !4337
  %95 = extractvalue { i8*, i32 } %94, 0, !dbg !4337
  call void @__clang_call_terminate(i8* %95) #18, !dbg !4337
  unreachable, !dbg !4337

96:                                               ; preds = %77, %92
  call void @llvm.dbg.value(metadata %class.String* %6, metadata !3917, metadata !DIExpression()) #17, !dbg !4338
  call void @llvm.dbg.value(metadata %class.String* %6, metadata !3912, metadata !DIExpression()) #17, !dbg !4340
  %97 = load %"struct.String::memo_t"*, %"struct.String::memo_t"** %66, align 8, !dbg !4342, !tbaa !4043
  %98 = icmp eq %"struct.String::memo_t"* %97, null, !dbg !4343
  br i1 %98, label %113, label %99, !dbg !4344

99:                                               ; preds = %96
  %100 = getelementptr inbounds %"struct.String::memo_t", %"struct.String::memo_t"* %97, i64 0, i32 0, !dbg !4345
  %101 = load volatile i32, i32* %100, align 4, !dbg !4345, !tbaa !4048
  %102 = icmp eq i32 %101, 0, !dbg !4345
  br i1 %102, label %103, label %104, !dbg !4345

103:                                              ; preds = %99
  call void @__assert_fail(i8* getelementptr inbounds ([18 x i8], [18 x i8]* @.str.118, i64 0, i64 0), i8* getelementptr inbounds ([29 x i8], [29 x i8]* @.str.119, i64 0, i64 0), i32 273, i8* getelementptr inbounds ([27 x i8], [27 x i8]* @__PRETTY_FUNCTION__._ZNK6String5derefEv, i64 0, i64 0)) #18, !dbg !4345
  unreachable, !dbg !4345

104:                                              ; preds = %99
  call void @llvm.dbg.value(metadata i32* %100, metadata !4050, metadata !DIExpression()) #17, !dbg !4346
  %105 = load volatile i32, i32* %100, align 4, !dbg !4348, !tbaa !3792
  %106 = add i32 %105, -1, !dbg !4348
  store volatile i32 %106, i32* %100, align 4, !dbg !4348, !tbaa !3792
  %107 = icmp eq i32 %106, 0, !dbg !4349
  br i1 %107, label %108, label %109, !dbg !4350

108:                                              ; preds = %104
  invoke void @_ZN6String11delete_memoEPNS_6memo_tE(%"struct.String::memo_t"* nonnull %97)
          to label %109 unwind label %110, !dbg !4351

109:                                              ; preds = %108, %104
  store %"struct.String::memo_t"* null, %"struct.String::memo_t"** %66, align 8, !dbg !4352, !tbaa !4043
  br label %113, !dbg !4353

110:                                              ; preds = %108
  %111 = landingpad { i8*, i32 }
          catch i8* null, !dbg !4354
  %112 = extractvalue { i8*, i32 } %111, 0, !dbg !4354
  call void @__clang_call_terminate(i8* %112) #18, !dbg !4354
  unreachable, !dbg !4354

113:                                              ; preds = %96, %109
  call void @llvm.lifetime.end.p0i8(i64 24, i8* nonnull %10) #17, !dbg !4190
  call void @llvm.dbg.value(metadata %class.String* %5, metadata !3917, metadata !DIExpression()) #17, !dbg !4355
  call void @llvm.dbg.value(metadata %class.String* %5, metadata !3912, metadata !DIExpression()) #17, !dbg !4357
  %114 = load %"struct.String::memo_t"*, %"struct.String::memo_t"** %52, align 8, !dbg !4359, !tbaa !4043
  %115 = icmp eq %"struct.String::memo_t"* %114, null, !dbg !4360
  br i1 %115, label %130, label %116, !dbg !4361

116:                                              ; preds = %113
  %117 = getelementptr inbounds %"struct.String::memo_t", %"struct.String::memo_t"* %114, i64 0, i32 0, !dbg !4362
  %118 = load volatile i32, i32* %117, align 4, !dbg !4362, !tbaa !4048
  %119 = icmp eq i32 %118, 0, !dbg !4362
  br i1 %119, label %120, label %121, !dbg !4362

120:                                              ; preds = %116
  call void @__assert_fail(i8* getelementptr inbounds ([18 x i8], [18 x i8]* @.str.118, i64 0, i64 0), i8* getelementptr inbounds ([29 x i8], [29 x i8]* @.str.119, i64 0, i64 0), i32 273, i8* getelementptr inbounds ([27 x i8], [27 x i8]* @__PRETTY_FUNCTION__._ZNK6String5derefEv, i64 0, i64 0)) #18, !dbg !4362
  unreachable, !dbg !4362

121:                                              ; preds = %116
  call void @llvm.dbg.value(metadata i32* %117, metadata !4050, metadata !DIExpression()) #17, !dbg !4363
  %122 = load volatile i32, i32* %117, align 4, !dbg !4365, !tbaa !3792
  %123 = add i32 %122, -1, !dbg !4365
  store volatile i32 %123, i32* %117, align 4, !dbg !4365, !tbaa !3792
  %124 = icmp eq i32 %123, 0, !dbg !4366
  br i1 %124, label %125, label %126, !dbg !4367

125:                                              ; preds = %121
  invoke void @_ZN6String11delete_memoEPNS_6memo_tE(%"struct.String::memo_t"* nonnull %114)
          to label %126 unwind label %127, !dbg !4368

126:                                              ; preds = %125, %121
  store %"struct.String::memo_t"* null, %"struct.String::memo_t"** %52, align 8, !dbg !4369, !tbaa !4043
  br label %130, !dbg !4370

127:                                              ; preds = %125
  %128 = landingpad { i8*, i32 }
          catch i8* null, !dbg !4371
  %129 = extractvalue { i8*, i32 } %128, 0, !dbg !4371
  call void @__clang_call_terminate(i8* %129) #18, !dbg !4371
  unreachable, !dbg !4371

130:                                              ; preds = %113, %126
  call void @llvm.lifetime.end.p0i8(i64 24, i8* nonnull %9) #17, !dbg !4190
  ret void, !dbg !4190

131:                                              ; preds = %62
  %132 = landingpad { i8*, i32 }
          cleanup, !dbg !4190
  %133 = extractvalue { i8*, i32 } %132, 0, !dbg !4190
  %134 = extractvalue { i8*, i32 } %132, 1, !dbg !4190
  br label %156, !dbg !4190

135:                                              ; preds = %68
  %136 = landingpad { i8*, i32 }
          cleanup, !dbg !4190
  %137 = extractvalue { i8*, i32 } %136, 0, !dbg !4190
  %138 = extractvalue { i8*, i32 } %136, 1, !dbg !4190
  call void @llvm.dbg.value(metadata %class.String* %7, metadata !3917, metadata !DIExpression()) #17, !dbg !4372
  call void @llvm.dbg.value(metadata %class.String* %7, metadata !3912, metadata !DIExpression()) #17, !dbg !4374
  %139 = getelementptr inbounds %class.String, %class.String* %7, i64 0, i32 0, i32 2, !dbg !4376
  %140 = load %"struct.String::memo_t"*, %"struct.String::memo_t"** %139, align 8, !dbg !4376, !tbaa !4043
  %141 = icmp eq %"struct.String::memo_t"* %140, null, !dbg !4377
  br i1 %141, label %156, label %142, !dbg !4378

142:                                              ; preds = %135
  %143 = getelementptr inbounds %"struct.String::memo_t", %"struct.String::memo_t"* %140, i64 0, i32 0, !dbg !4379
  %144 = load volatile i32, i32* %143, align 4, !dbg !4379, !tbaa !4048
  %145 = icmp eq i32 %144, 0, !dbg !4379
  br i1 %145, label %146, label %147, !dbg !4379

146:                                              ; preds = %142
  call void @__assert_fail(i8* getelementptr inbounds ([18 x i8], [18 x i8]* @.str.118, i64 0, i64 0), i8* getelementptr inbounds ([29 x i8], [29 x i8]* @.str.119, i64 0, i64 0), i32 273, i8* getelementptr inbounds ([27 x i8], [27 x i8]* @__PRETTY_FUNCTION__._ZNK6String5derefEv, i64 0, i64 0)) #18, !dbg !4379
  unreachable, !dbg !4379

147:                                              ; preds = %142
  call void @llvm.dbg.value(metadata i32* %143, metadata !4050, metadata !DIExpression()) #17, !dbg !4380
  %148 = load volatile i32, i32* %143, align 4, !dbg !4382, !tbaa !3792
  %149 = add i32 %148, -1, !dbg !4382
  store volatile i32 %149, i32* %143, align 4, !dbg !4382, !tbaa !3792
  %150 = icmp eq i32 %149, 0, !dbg !4383
  br i1 %150, label %151, label %152, !dbg !4384

151:                                              ; preds = %147
  invoke void @_ZN6String11delete_memoEPNS_6memo_tE(%"struct.String::memo_t"* nonnull %140)
          to label %152 unwind label %153, !dbg !4385

152:                                              ; preds = %151, %147
  store %"struct.String::memo_t"* null, %"struct.String::memo_t"** %139, align 8, !dbg !4386, !tbaa !4043
  br label %156, !dbg !4387

153:                                              ; preds = %151
  %154 = landingpad { i8*, i32 }
          catch i8* null, !dbg !4388
  %155 = extractvalue { i8*, i32 } %154, 0, !dbg !4388
  call void @__clang_call_terminate(i8* %155) #18, !dbg !4388
  unreachable, !dbg !4388

156:                                              ; preds = %152, %135, %131
  %157 = phi i8* [ %133, %131 ], [ %137, %135 ], [ %137, %152 ], !dbg !4190
  %158 = phi i32 [ %134, %131 ], [ %138, %135 ], [ %138, %152 ], !dbg !4190
  call void @llvm.dbg.value(metadata %class.String* %8, metadata !3917, metadata !DIExpression()) #17, !dbg !4389
  call void @llvm.dbg.value(metadata %class.String* %8, metadata !3912, metadata !DIExpression()) #17, !dbg !4391
  %159 = load %"struct.String::memo_t"*, %"struct.String::memo_t"** %56, align 8, !dbg !4393, !tbaa !4043
  %160 = icmp eq %"struct.String::memo_t"* %159, null, !dbg !4394
  br i1 %160, label %175, label %161, !dbg !4395

161:                                              ; preds = %156
  %162 = getelementptr inbounds %"struct.String::memo_t", %"struct.String::memo_t"* %159, i64 0, i32 0, !dbg !4396
  %163 = load volatile i32, i32* %162, align 4, !dbg !4396, !tbaa !4048
  %164 = icmp eq i32 %163, 0, !dbg !4396
  br i1 %164, label %165, label %166, !dbg !4396

165:                                              ; preds = %161
  call void @__assert_fail(i8* getelementptr inbounds ([18 x i8], [18 x i8]* @.str.118, i64 0, i64 0), i8* getelementptr inbounds ([29 x i8], [29 x i8]* @.str.119, i64 0, i64 0), i32 273, i8* getelementptr inbounds ([27 x i8], [27 x i8]* @__PRETTY_FUNCTION__._ZNK6String5derefEv, i64 0, i64 0)) #18, !dbg !4396
  unreachable, !dbg !4396

166:                                              ; preds = %161
  call void @llvm.dbg.value(metadata i32* %162, metadata !4050, metadata !DIExpression()) #17, !dbg !4397
  %167 = load volatile i32, i32* %162, align 4, !dbg !4399, !tbaa !3792
  %168 = add i32 %167, -1, !dbg !4399
  store volatile i32 %168, i32* %162, align 4, !dbg !4399, !tbaa !3792
  %169 = icmp eq i32 %168, 0, !dbg !4400
  br i1 %169, label %170, label %171, !dbg !4401

170:                                              ; preds = %166
  invoke void @_ZN6String11delete_memoEPNS_6memo_tE(%"struct.String::memo_t"* nonnull %159)
          to label %171 unwind label %172, !dbg !4402

171:                                              ; preds = %170, %166
  store %"struct.String::memo_t"* null, %"struct.String::memo_t"** %56, align 8, !dbg !4403, !tbaa !4043
  br label %175, !dbg !4404

172:                                              ; preds = %170
  %173 = landingpad { i8*, i32 }
          catch i8* null, !dbg !4405
  %174 = extractvalue { i8*, i32 } %173, 0, !dbg !4405
  call void @__clang_call_terminate(i8* %174) #18, !dbg !4405
  unreachable, !dbg !4405

175:                                              ; preds = %171, %156, %23
  %176 = phi i8* [ %25, %23 ], [ %157, %156 ], [ %157, %171 ], !dbg !4158
  %177 = phi i32 [ %26, %23 ], [ %158, %156 ], [ %158, %171 ], !dbg !4158
  call void @llvm.dbg.value(metadata %class.String* %6, metadata !3917, metadata !DIExpression()) #17, !dbg !4406
  call void @llvm.dbg.value(metadata %class.String* %6, metadata !3912, metadata !DIExpression()) #17, !dbg !4408
  %178 = getelementptr inbounds %class.String, %class.String* %6, i64 0, i32 0, i32 2, !dbg !4410
  %179 = load %"struct.String::memo_t"*, %"struct.String::memo_t"** %178, align 8, !dbg !4410, !tbaa !4043
  %180 = icmp eq %"struct.String::memo_t"* %179, null, !dbg !4411
  br i1 %180, label %195, label %181, !dbg !4412

181:                                              ; preds = %175
  %182 = getelementptr inbounds %"struct.String::memo_t", %"struct.String::memo_t"* %179, i64 0, i32 0, !dbg !4413
  %183 = load volatile i32, i32* %182, align 4, !dbg !4413, !tbaa !4048
  %184 = icmp eq i32 %183, 0, !dbg !4413
  br i1 %184, label %185, label %186, !dbg !4413

185:                                              ; preds = %181
  call void @__assert_fail(i8* getelementptr inbounds ([18 x i8], [18 x i8]* @.str.118, i64 0, i64 0), i8* getelementptr inbounds ([29 x i8], [29 x i8]* @.str.119, i64 0, i64 0), i32 273, i8* getelementptr inbounds ([27 x i8], [27 x i8]* @__PRETTY_FUNCTION__._ZNK6String5derefEv, i64 0, i64 0)) #18, !dbg !4413
  unreachable, !dbg !4413

186:                                              ; preds = %181
  call void @llvm.dbg.value(metadata i32* %182, metadata !4050, metadata !DIExpression()) #17, !dbg !4414
  %187 = load volatile i32, i32* %182, align 4, !dbg !4416, !tbaa !3792
  %188 = add i32 %187, -1, !dbg !4416
  store volatile i32 %188, i32* %182, align 4, !dbg !4416, !tbaa !3792
  %189 = icmp eq i32 %188, 0, !dbg !4417
  br i1 %189, label %190, label %191, !dbg !4418

190:                                              ; preds = %186
  invoke void @_ZN6String11delete_memoEPNS_6memo_tE(%"struct.String::memo_t"* nonnull %179)
          to label %191 unwind label %192, !dbg !4419

191:                                              ; preds = %190, %186
  store %"struct.String::memo_t"* null, %"struct.String::memo_t"** %178, align 8, !dbg !4420, !tbaa !4043
  br label %195, !dbg !4421

192:                                              ; preds = %190
  %193 = landingpad { i8*, i32 }
          catch i8* null, !dbg !4422
  %194 = extractvalue { i8*, i32 } %193, 0, !dbg !4422
  call void @__clang_call_terminate(i8* %194) #18, !dbg !4422
  unreachable, !dbg !4422

195:                                              ; preds = %191, %175, %19
  %196 = phi i8* [ %21, %19 ], [ %176, %175 ], [ %176, %191 ], !dbg !4190
  %197 = phi i32 [ %22, %19 ], [ %177, %175 ], [ %177, %191 ], !dbg !4190
  call void @llvm.lifetime.end.p0i8(i64 24, i8* nonnull %10) #17, !dbg !4190
  call void @llvm.dbg.value(metadata %class.String* %5, metadata !3917, metadata !DIExpression()) #17, !dbg !4423
  call void @llvm.dbg.value(metadata %class.String* %5, metadata !3912, metadata !DIExpression()) #17, !dbg !4425
  %198 = getelementptr inbounds %class.String, %class.String* %5, i64 0, i32 0, i32 2, !dbg !4427
  %199 = load %"struct.String::memo_t"*, %"struct.String::memo_t"** %198, align 8, !dbg !4427, !tbaa !4043
  %200 = icmp eq %"struct.String::memo_t"* %199, null, !dbg !4428
  br i1 %200, label %215, label %201, !dbg !4429

201:                                              ; preds = %195
  %202 = getelementptr inbounds %"struct.String::memo_t", %"struct.String::memo_t"* %199, i64 0, i32 0, !dbg !4430
  %203 = load volatile i32, i32* %202, align 4, !dbg !4430, !tbaa !4048
  %204 = icmp eq i32 %203, 0, !dbg !4430
  br i1 %204, label %205, label %206, !dbg !4430

205:                                              ; preds = %201
  call void @__assert_fail(i8* getelementptr inbounds ([18 x i8], [18 x i8]* @.str.118, i64 0, i64 0), i8* getelementptr inbounds ([29 x i8], [29 x i8]* @.str.119, i64 0, i64 0), i32 273, i8* getelementptr inbounds ([27 x i8], [27 x i8]* @__PRETTY_FUNCTION__._ZNK6String5derefEv, i64 0, i64 0)) #18, !dbg !4430
  unreachable, !dbg !4430

206:                                              ; preds = %201
  call void @llvm.dbg.value(metadata i32* %202, metadata !4050, metadata !DIExpression()) #17, !dbg !4431
  %207 = load volatile i32, i32* %202, align 4, !dbg !4433, !tbaa !3792
  %208 = add i32 %207, -1, !dbg !4433
  store volatile i32 %208, i32* %202, align 4, !dbg !4433, !tbaa !3792
  %209 = icmp eq i32 %208, 0, !dbg !4434
  br i1 %209, label %210, label %211, !dbg !4435

210:                                              ; preds = %206
  invoke void @_ZN6String11delete_memoEPNS_6memo_tE(%"struct.String::memo_t"* nonnull %199)
          to label %211 unwind label %212, !dbg !4436

211:                                              ; preds = %210, %206
  store %"struct.String::memo_t"* null, %"struct.String::memo_t"** %198, align 8, !dbg !4437, !tbaa !4043
  br label %215, !dbg !4438

212:                                              ; preds = %210
  %213 = landingpad { i8*, i32 }
          catch i8* null, !dbg !4439
  %214 = extractvalue { i8*, i32 } %213, 0, !dbg !4439
  call void @__clang_call_terminate(i8* %214) #18, !dbg !4439
  unreachable, !dbg !4439

215:                                              ; preds = %195, %211
  call void @llvm.lifetime.end.p0i8(i64 24, i8* nonnull %9) #17, !dbg !4190
  %216 = insertvalue { i8*, i32 } undef, i8* %196, 0, !dbg !4190
  %217 = insertvalue { i8*, i32 } %216, i32 %197, 1, !dbg !4190
  resume { i8*, i32 } %217, !dbg !4190
}

declare i32 @_ZN12ErrorHandler5errorEPKcz(%class.ErrorHandler*, i8*, ...) local_unnamed_addr #2

declare i8* @_ZNK6String5c_strEv(%class.String*) local_unnamed_addr #2

declare i8* @_ZN11StringAccum5c_strEv(%class.StringAccum*) local_unnamed_addr #2

; Function Attrs: sspstrong uwtable
define dso_local void @_ZN8IPFilter17static_initializeEv() local_unnamed_addr #0 align 2 personality i8* bitcast (i32 (...)* @__gxx_personality_v0 to i8*) !dbg !4440 {
  %1 = tail call dereferenceable(96) i8* @_Znwm(i64 96) #20, !dbg !4441
  call void @llvm.dbg.value(metadata %class.String* undef, metadata !4235, metadata !DIExpression()), !dbg !4442
  call void @llvm.dbg.value(metadata i8* @_ZN6String9null_dataE, metadata !4238, metadata !DIExpression()), !dbg !4442
  call void @llvm.dbg.value(metadata i32 0, metadata !4239, metadata !DIExpression()), !dbg !4442
  call void @llvm.dbg.value(metadata %"struct.String::memo_t"* null, metadata !4240, metadata !DIExpression()), !dbg !4442
  call void @llvm.dbg.value(metadata i8* %1, metadata !4449, metadata !DIExpression()), !dbg !4462
  call void @llvm.dbg.value(metadata i32 67108868, metadata !4457, metadata !DIExpression()), !dbg !4462
  call void @llvm.dbg.value(metadata %class.String* undef, metadata !4458, metadata !DIExpression()), !dbg !4462
  call void @llvm.dbg.value(metadata %"struct.StaticNameDB::Entry"* getelementptr inbounds ([24 x %"struct.StaticNameDB::Entry"], [24 x %"struct.StaticNameDB::Entry"]* @_ZL12type_entries, i64 0, i64 0), metadata !4459, metadata !DIExpression()), !dbg !4462
  call void @llvm.dbg.value(metadata i64 24, metadata !4460, metadata !DIExpression()), !dbg !4462
  call void @llvm.dbg.value(metadata i8* %1, metadata !4464, metadata !DIExpression()), !dbg !4474
  call void @llvm.dbg.value(metadata i32 67108868, metadata !4471, metadata !DIExpression()), !dbg !4474
  call void @llvm.dbg.value(metadata %class.String* undef, metadata !4472, metadata !DIExpression()), !dbg !4474
  call void @llvm.dbg.value(metadata i64 4, metadata !4473, metadata !DIExpression()), !dbg !4474
  %2 = bitcast i8* %1 to i32 (...)***, !dbg !4476
  %3 = getelementptr inbounds i8, i8* %1, i64 8, !dbg !4477
  %4 = bitcast i8* %3 to i32*, !dbg !4477
  store i32 67108868, i32* %4, align 8, !dbg !4477, !tbaa !4478
  %5 = getelementptr inbounds i8, i8* %1, i64 16, !dbg !4481
  call void @llvm.dbg.value(metadata %class.String* undef, metadata !4222, metadata !DIExpression()), !dbg !4482
  call void @llvm.dbg.value(metadata %class.String* undef, metadata !4228, metadata !DIExpression()), !dbg !4484
  call void @llvm.dbg.value(metadata i8* undef, metadata !4238, metadata !DIExpression()), !dbg !4486
  call void @llvm.dbg.value(metadata i32 0, metadata !4239, metadata !DIExpression()), !dbg !4486
  call void @llvm.dbg.value(metadata %"struct.String::memo_t"* null, metadata !4240, metadata !DIExpression()), !dbg !4486
  %6 = bitcast i8* %5 to i64*, !dbg !4488
  call void @llvm.dbg.value(metadata i64* %6, metadata !4219, metadata !DIExpression()), !dbg !4482
  call void @llvm.dbg.value(metadata i64* %6, metadata !4225, metadata !DIExpression()), !dbg !4484
  call void @llvm.dbg.value(metadata i64* %6, metadata !4235, metadata !DIExpression()), !dbg !4486
  store i64 ptrtoint (i8* @_ZN6String9null_dataE to i64), i64* %6, align 8, !dbg !4488, !tbaa !4006
  %7 = getelementptr inbounds i8, i8* %1, i64 24, !dbg !4489
  %8 = bitcast i8* %7 to i32*, !dbg !4489
  store i32 0, i32* %8, align 8, !dbg !4490, !tbaa !4010
  %9 = getelementptr inbounds i8, i8* %1, i64 32, !dbg !4491
  %10 = bitcast i8* %9 to %"struct.String::memo_t"**, !dbg !4491
  store %"struct.String::memo_t"* null, %"struct.String::memo_t"** %10, align 8, !dbg !4492, !tbaa !4043
  %11 = getelementptr inbounds i8, i8* %1, i64 40, !dbg !4493
  %12 = bitcast i8* %11 to i64*, !dbg !4493
  store i64 4, i64* %12, align 8, !dbg !4493, !tbaa !4494
  %13 = getelementptr inbounds i8, i8* %1, i64 48, !dbg !4495
  tail call void @llvm.memset.p0i8.i64(i8* nonnull align 8 dereferenceable(32) %13, i8 0, i64 32, i1 false), !dbg !4496
  store i32 (...)** bitcast (i8** getelementptr inbounds ({ [7 x i8*] }, { [7 x i8*] }* @_ZTV12StaticNameDB, i64 0, inrange i32 0, i64 2) to i32 (...)**), i32 (...)*** %2, align 8, !dbg !4497, !tbaa !4498
  %14 = getelementptr inbounds i8, i8* %1, i64 80, !dbg !4500
  %15 = bitcast i8* %14 to %"struct.StaticNameDB::Entry"**, !dbg !4500
  store %"struct.StaticNameDB::Entry"* getelementptr inbounds ([24 x %"struct.StaticNameDB::Entry"], [24 x %"struct.StaticNameDB::Entry"]* @_ZL12type_entries, i64 0, i64 0), %"struct.StaticNameDB::Entry"** %15, align 8, !dbg !4500, !tbaa !4501
  %16 = getelementptr inbounds i8, i8* %1, i64 88, !dbg !4503
  %17 = bitcast i8* %16 to i64*, !dbg !4503
  store i64 24, i64* %17, align 8, !dbg !4503, !tbaa !4504
  store i8* %1, i8** bitcast (%class.NameDB** @_ZL3dbs.0 to i8**), align 16, !dbg !4505, !tbaa !4293
  %18 = tail call dereferenceable(96) i8* @_Znwm(i64 96) #20, !dbg !4506
  call void @llvm.dbg.value(metadata %class.String* undef, metadata !4235, metadata !DIExpression()), !dbg !4507
  call void @llvm.dbg.value(metadata i8* @_ZN6String9null_dataE, metadata !4238, metadata !DIExpression()), !dbg !4507
  call void @llvm.dbg.value(metadata i32 0, metadata !4239, metadata !DIExpression()), !dbg !4507
  call void @llvm.dbg.value(metadata %"struct.String::memo_t"* null, metadata !4240, metadata !DIExpression()), !dbg !4507
  call void @llvm.dbg.value(metadata i8* %18, metadata !4449, metadata !DIExpression()), !dbg !4510
  call void @llvm.dbg.value(metadata i32 67108869, metadata !4457, metadata !DIExpression()), !dbg !4510
  call void @llvm.dbg.value(metadata %class.String* undef, metadata !4458, metadata !DIExpression()), !dbg !4510
  call void @llvm.dbg.value(metadata %"struct.StaticNameDB::Entry"* getelementptr inbounds ([6 x %"struct.StaticNameDB::Entry"], [6 x %"struct.StaticNameDB::Entry"]* @_ZL15tcp_opt_entries, i64 0, i64 0), metadata !4459, metadata !DIExpression()), !dbg !4510
  call void @llvm.dbg.value(metadata i64 6, metadata !4460, metadata !DIExpression()), !dbg !4510
  call void @llvm.dbg.value(metadata i8* %18, metadata !4464, metadata !DIExpression()), !dbg !4512
  call void @llvm.dbg.value(metadata i32 67108869, metadata !4471, metadata !DIExpression()), !dbg !4512
  call void @llvm.dbg.value(metadata %class.String* undef, metadata !4472, metadata !DIExpression()), !dbg !4512
  call void @llvm.dbg.value(metadata i64 4, metadata !4473, metadata !DIExpression()), !dbg !4512
  %19 = bitcast i8* %18 to i32 (...)***, !dbg !4514
  %20 = getelementptr inbounds i8, i8* %18, i64 8, !dbg !4515
  %21 = bitcast i8* %20 to i32*, !dbg !4515
  store i32 67108869, i32* %21, align 8, !dbg !4515, !tbaa !4478
  %22 = getelementptr inbounds i8, i8* %18, i64 16, !dbg !4516
  call void @llvm.dbg.value(metadata %class.String* undef, metadata !4222, metadata !DIExpression()), !dbg !4517
  call void @llvm.dbg.value(metadata %class.String* undef, metadata !4228, metadata !DIExpression()), !dbg !4519
  call void @llvm.dbg.value(metadata i8* undef, metadata !4238, metadata !DIExpression()), !dbg !4521
  call void @llvm.dbg.value(metadata i32 0, metadata !4239, metadata !DIExpression()), !dbg !4521
  call void @llvm.dbg.value(metadata %"struct.String::memo_t"* null, metadata !4240, metadata !DIExpression()), !dbg !4521
  %23 = bitcast i8* %22 to i64*, !dbg !4523
  call void @llvm.dbg.value(metadata i64* %23, metadata !4219, metadata !DIExpression()), !dbg !4517
  call void @llvm.dbg.value(metadata i64* %23, metadata !4225, metadata !DIExpression()), !dbg !4519
  call void @llvm.dbg.value(metadata i64* %23, metadata !4235, metadata !DIExpression()), !dbg !4521
  store i64 ptrtoint (i8* @_ZN6String9null_dataE to i64), i64* %23, align 8, !dbg !4523, !tbaa !4006
  %24 = getelementptr inbounds i8, i8* %18, i64 24, !dbg !4524
  %25 = bitcast i8* %24 to i32*, !dbg !4524
  store i32 0, i32* %25, align 8, !dbg !4525, !tbaa !4010
  %26 = getelementptr inbounds i8, i8* %18, i64 32, !dbg !4526
  %27 = bitcast i8* %26 to %"struct.String::memo_t"**, !dbg !4526
  store %"struct.String::memo_t"* null, %"struct.String::memo_t"** %27, align 8, !dbg !4527, !tbaa !4043
  %28 = getelementptr inbounds i8, i8* %18, i64 40, !dbg !4528
  %29 = bitcast i8* %28 to i64*, !dbg !4528
  store i64 4, i64* %29, align 8, !dbg !4528, !tbaa !4494
  %30 = getelementptr inbounds i8, i8* %18, i64 48, !dbg !4529
  tail call void @llvm.memset.p0i8.i64(i8* nonnull align 8 dereferenceable(32) %30, i8 0, i64 32, i1 false), !dbg !4530
  store i32 (...)** bitcast (i8** getelementptr inbounds ({ [7 x i8*] }, { [7 x i8*] }* @_ZTV12StaticNameDB, i64 0, inrange i32 0, i64 2) to i32 (...)**), i32 (...)*** %19, align 8, !dbg !4531, !tbaa !4498
  %31 = getelementptr inbounds i8, i8* %18, i64 80, !dbg !4532
  %32 = bitcast i8* %31 to %"struct.StaticNameDB::Entry"**, !dbg !4532
  store %"struct.StaticNameDB::Entry"* getelementptr inbounds ([6 x %"struct.StaticNameDB::Entry"], [6 x %"struct.StaticNameDB::Entry"]* @_ZL15tcp_opt_entries, i64 0, i64 0), %"struct.StaticNameDB::Entry"** %32, align 8, !dbg !4532, !tbaa !4501
  %33 = getelementptr inbounds i8, i8* %18, i64 88, !dbg !4533
  %34 = bitcast i8* %33 to i64*, !dbg !4533
  store i64 6, i64* %34, align 8, !dbg !4533, !tbaa !4504
  store i8* %18, i8** bitcast (%class.NameDB** @_ZL3dbs.1 to i8**), align 16, !dbg !4534, !tbaa !4293
  %35 = bitcast i8* %1 to %class.NameDB*, !dbg !4535
  tail call void @_ZN8NameInfo9installdbEP6NameDBPK7Element(%class.NameDB* nonnull %35, %class.Element* null), !dbg !4536
  %36 = load %class.NameDB*, %class.NameDB** @_ZL3dbs.1, align 16, !dbg !4537, !tbaa !4293
  tail call void @_ZN8NameInfo9installdbEP6NameDBPK7Element(%class.NameDB* %36, %class.Element* null), !dbg !4538
  ret void, !dbg !4539
}

; Function Attrs: nobuiltin nofree
declare noalias nonnull i8* @_Znwm(i64) local_unnamed_addr #4

; Function Attrs: nobuiltin nounwind
declare void @_ZdlPv(i8*) local_unnamed_addr #5

declare void @_ZN8NameInfo9installdbEP6NameDBPK7Element(%class.NameDB*, %class.Element*) local_unnamed_addr #2

; Function Attrs: nounwind sspstrong uwtable
define dso_local void @_ZN8IPFilter14static_cleanupEv() local_unnamed_addr #6 align 2 !dbg !4540 {
  %1 = load %class.NameDB*, %class.NameDB** @_ZL3dbs.0, align 16, !dbg !4541, !tbaa !4293
  %2 = icmp eq %class.NameDB* %1, null, !dbg !4542
  br i1 %2, label %8, label %3, !dbg !4542

3:                                                ; preds = %0
  %4 = bitcast %class.NameDB* %1 to void (%class.NameDB*)***, !dbg !4542
  %5 = load void (%class.NameDB*)**, void (%class.NameDB*)*** %4, align 8, !dbg !4542, !tbaa !4498
  %6 = getelementptr inbounds void (%class.NameDB*)*, void (%class.NameDB*)** %5, i64 1, !dbg !4542
  %7 = load void (%class.NameDB*)*, void (%class.NameDB*)** %6, align 8, !dbg !4542
  tail call void %7(%class.NameDB* nonnull %1) #17, !dbg !4542
  br label %8, !dbg !4542

8:                                                ; preds = %3, %0
  %9 = load %class.NameDB*, %class.NameDB** @_ZL3dbs.1, align 16, !dbg !4543, !tbaa !4293
  %10 = icmp eq %class.NameDB* %9, null, !dbg !4544
  br i1 %10, label %16, label %11, !dbg !4544

11:                                               ; preds = %8
  %12 = bitcast %class.NameDB* %9 to void (%class.NameDB*)***, !dbg !4544
  %13 = load void (%class.NameDB*)**, void (%class.NameDB*)*** %12, align 8, !dbg !4544, !tbaa !4498
  %14 = getelementptr inbounds void (%class.NameDB*)*, void (%class.NameDB*)** %13, i64 1, !dbg !4544
  %15 = load void (%class.NameDB*)*, void (%class.NameDB*)** %14, align 8, !dbg !4544
  tail call void %15(%class.NameDB* nonnull %9) #17, !dbg !4544
  br label %16, !dbg !4544

16:                                               ; preds = %11, %8
  ret void, !dbg !4545
}

; Function Attrs: sspstrong uwtable
define dso_local void @_ZN8IPFilterC2Ev(%class.IPFilter* %0) unnamed_addr #0 align 2 personality i8* bitcast (i32 (...)* @__gxx_personality_v0 to i8*) !dbg !4546 {
  call void @llvm.dbg.value(metadata %class.IPFilter* %0, metadata !4548, metadata !DIExpression()), !dbg !4549
  %2 = bitcast %class.IPFilter* %0 to %class.Element*, !dbg !4550
  tail call void @_ZN7ElementC2Ev(%class.Element* %2), !dbg !4551
  %3 = getelementptr %class.IPFilter, %class.IPFilter* %0, i64 0, i32 0, i32 0, !dbg !4550
  store i32 (...)** bitcast (i8** getelementptr inbounds ({ [29 x i8*] }, { [29 x i8*] }* @_ZTV8IPFilter, i64 0, inrange i32 0, i64 2) to i32 (...)**), i32 (...)*** %3, align 8, !dbg !4550, !tbaa !4498
  %4 = getelementptr inbounds %class.IPFilter, %class.IPFilter* %0, i64 0, i32 2, !dbg !4551
  call void @llvm.dbg.value(metadata %"class.Classification::Wordwise::CompressedProgram"* %4, metadata !4552, metadata !DIExpression()), !dbg !4556
  call void @llvm.dbg.value(metadata %"class.Classification::Wordwise::CompressedProgram"* %4, metadata !4558, metadata !DIExpression()), !dbg !4562
  call void @llvm.dbg.value(metadata %"class.Classification::Wordwise::CompressedProgram"* %4, metadata !4564, metadata !DIExpression()) #17, !dbg !4568
  %5 = bitcast %"class.Classification::Wordwise::CompressedProgram"* %4 to i8*, !dbg !4570
  tail call void @llvm.memset.p0i8.i64(i8* nonnull align 8 dereferenceable(16) %5, i8 0, i64 16, i1 false) #17, !dbg !4571
  %6 = getelementptr inbounds %class.IPFilter, %class.IPFilter* %0, i64 0, i32 2, i32 1, !dbg !4572
  store i32 2147483647, i32* %6, align 8, !dbg !4572, !tbaa !4573
  %7 = getelementptr inbounds %class.IPFilter, %class.IPFilter* %0, i64 0, i32 2, i32 2, !dbg !4577
  store i32 -1, i32* %7, align 4, !dbg !4577, !tbaa !4578
  %8 = getelementptr inbounds %class.IPFilter, %class.IPFilter* %0, i64 0, i32 2, i32 3, !dbg !4579
  store i32 0, i32* %8, align 8, !dbg !4579, !tbaa !4580
  ret void, !dbg !4581
}

declare void @_ZN7ElementC2Ev(%class.Element*) unnamed_addr #2

; Function Attrs: nounwind
declare void @_ZN7ElementD2Ev(%class.Element*) unnamed_addr #7

; Function Attrs: nounwind sspstrong uwtable
define dso_local void @_ZN8IPFilterD2Ev(%class.IPFilter* %0) unnamed_addr #6 align 2 personality i32 (...)* @__gxx_personality_v0 !dbg !4582 {
  call void @llvm.dbg.value(metadata %class.IPFilter* %0, metadata !4584, metadata !DIExpression()), !dbg !4585
  %2 = getelementptr %class.IPFilter, %class.IPFilter* %0, i64 0, i32 0, i32 0, !dbg !4586
  store i32 (...)** bitcast (i8** getelementptr inbounds ({ [29 x i8*] }, { [29 x i8*] }* @_ZTV8IPFilter, i64 0, inrange i32 0, i64 2) to i32 (...)**), i32 (...)*** %2, align 8, !dbg !4586, !tbaa !4498
  %3 = getelementptr inbounds %class.IPFilter, %class.IPFilter* %0, i64 0, i32 2, !dbg !4587
  call void @llvm.dbg.value(metadata %"class.Classification::Wordwise::CompressedProgram"* %3, metadata !4589, metadata !DIExpression()) #17, !dbg !4593
  call void @llvm.dbg.value(metadata %"class.Classification::Wordwise::CompressedProgram"* %3, metadata !4595, metadata !DIExpression()) #17, !dbg !4599
  call void @llvm.dbg.value(metadata %"class.Classification::Wordwise::CompressedProgram"* %3, metadata !4602, metadata !DIExpression()) #17, !dbg !4606
  %4 = bitcast %"class.Classification::Wordwise::CompressedProgram"* %3 to i8**, !dbg !4609
  %5 = load i8*, i8** %4, align 8, !dbg !4611, !tbaa !4612
  %6 = icmp eq i8* %5, null, !dbg !4611
  br i1 %6, label %8, label %7, !dbg !4611

7:                                                ; preds = %1
  tail call void @_ZdaPv(i8* nonnull %5) #19, !dbg !4611
  br label %8, !dbg !4611

8:                                                ; preds = %1, %7
  %9 = bitcast %class.IPFilter* %0 to %class.Element*, !dbg !4587
  tail call void @_ZN7ElementD2Ev(%class.Element* %9) #17, !dbg !4587
  ret void, !dbg !4613
}

; Function Attrs: nounwind sspstrong uwtable
define dso_local void @_ZN8IPFilterD0Ev(%class.IPFilter* %0) unnamed_addr #6 align 2 personality i32 (...)* @__gxx_personality_v0 !dbg !4614 {
  call void @llvm.dbg.value(metadata %class.IPFilter* %0, metadata !4616, metadata !DIExpression()), !dbg !4617
  call void @llvm.dbg.value(metadata %class.IPFilter* %0, metadata !4584, metadata !DIExpression()) #17, !dbg !4618
  %2 = getelementptr %class.IPFilter, %class.IPFilter* %0, i64 0, i32 0, i32 0, !dbg !4620
  store i32 (...)** bitcast (i8** getelementptr inbounds ({ [29 x i8*] }, { [29 x i8*] }* @_ZTV8IPFilter, i64 0, inrange i32 0, i64 2) to i32 (...)**), i32 (...)*** %2, align 8, !dbg !4620, !tbaa !4498
  %3 = getelementptr inbounds %class.IPFilter, %class.IPFilter* %0, i64 0, i32 2, !dbg !4621
  call void @llvm.dbg.value(metadata %"class.Classification::Wordwise::CompressedProgram"* %3, metadata !4589, metadata !DIExpression()) #17, !dbg !4622
  call void @llvm.dbg.value(metadata %"class.Classification::Wordwise::CompressedProgram"* %3, metadata !4595, metadata !DIExpression()) #17, !dbg !4624
  call void @llvm.dbg.value(metadata %"class.Classification::Wordwise::CompressedProgram"* %3, metadata !4602, metadata !DIExpression()) #17, !dbg !4626
  %4 = bitcast %"class.Classification::Wordwise::CompressedProgram"* %3 to i8**, !dbg !4628
  %5 = load i8*, i8** %4, align 8, !dbg !4629, !tbaa !4612
  %6 = icmp eq i8* %5, null, !dbg !4629
  br i1 %6, label %8, label %7, !dbg !4629

7:                                                ; preds = %1
  tail call void @_ZdaPv(i8* nonnull %5) #19, !dbg !4629
  br label %8, !dbg !4629

8:                                                ; preds = %1, %7
  %9 = bitcast %class.IPFilter* %0 to %class.Element*, !dbg !4621
  tail call void @_ZN7ElementD2Ev(%class.Element* %9) #17, !dbg !4621
  %10 = bitcast %class.IPFilter* %0 to i8*, !dbg !4630
  tail call void @_ZdlPv(i8* %10) #19, !dbg !4630
  ret void, !dbg !4631
}

; Function Attrs: nofree norecurse nounwind sspstrong uwtable writeonly
define dso_local void @_ZN8IPFilter9Primitive5clearEv(%"struct.IPFilter::Primitive"* nocapture %0) local_unnamed_addr #8 align 2 !dbg !4632 {
  call void @llvm.dbg.value(metadata %"struct.IPFilter::Primitive"* %0, metadata !4634, metadata !DIExpression()), !dbg !4636
  %2 = getelementptr inbounds %"struct.IPFilter::Primitive", %"struct.IPFilter::Primitive"* %0, i64 0, i32 4, !dbg !4637
  store i32 0, i32* %2, align 4, !dbg !4638, !tbaa !4639
  %3 = getelementptr inbounds %"struct.IPFilter::Primitive", %"struct.IPFilter::Primitive"* %0, i64 0, i32 0, !dbg !4642
  store i32 0, i32* %3, align 4, !dbg !4643, !tbaa !4644
  %4 = getelementptr inbounds %"struct.IPFilter::Primitive", %"struct.IPFilter::Primitive"* %0, i64 0, i32 5, !dbg !4645
  store i32 -1000, i32* %4, align 4, !dbg !4646, !tbaa !4647
  %5 = getelementptr inbounds %"struct.IPFilter::Primitive", %"struct.IPFilter::Primitive"* %0, i64 0, i32 1, !dbg !4648
  %6 = bitcast i32* %5 to i8*, !dbg !4649
  call void @llvm.memset.p0i8.i64(i8* nonnull align 4 dereferenceable(9) %6, i8 0, i64 9, i1 false), !dbg !4650
  ret void, !dbg !4649
}

; Function Attrs: sspstrong uwtable
define dso_local void @_ZN8IPFilter9Primitive8set_typeEiP12ErrorHandler(%"struct.IPFilter::Primitive"* nocapture %0, i32 %1, %class.ErrorHandler* %2) local_unnamed_addr #0 align 2 !dbg !4651 {
  call void @llvm.dbg.value(metadata %"struct.IPFilter::Primitive"* %0, metadata !4653, metadata !DIExpression()), !dbg !4656
  call void @llvm.dbg.value(metadata i32 %1, metadata !4654, metadata !DIExpression()), !dbg !4656
  call void @llvm.dbg.value(metadata %class.ErrorHandler* %2, metadata !4655, metadata !DIExpression()), !dbg !4656
  %4 = getelementptr inbounds %"struct.IPFilter::Primitive", %"struct.IPFilter::Primitive"* %0, i64 0, i32 0, !dbg !4657
  %5 = load i32, i32* %4, align 4, !dbg !4657, !tbaa !4644
  %6 = icmp eq i32 %5, 0, !dbg !4657
  br i1 %6, label %9, label %7, !dbg !4659

7:                                                ; preds = %3
  %8 = tail call i32 (%class.ErrorHandler*, i8*, ...) @_ZN12ErrorHandler5errorEPKcz(%class.ErrorHandler* %2, i8* getelementptr inbounds ([21 x i8], [21 x i8]* @.str.4, i64 0, i64 0)), !dbg !4660
  br label %9, !dbg !4661

9:                                                ; preds = %3, %7
  store i32 %1, i32* %4, align 4, !dbg !4662, !tbaa !4644
  ret void, !dbg !4663
}

; Function Attrs: sspstrong uwtable
define dso_local void @_ZN8IPFilter9Primitive10set_srcdstEiP12ErrorHandler(%"struct.IPFilter::Primitive"* nocapture %0, i32 %1, %class.ErrorHandler* %2) local_unnamed_addr #0 align 2 !dbg !4664 {
  call void @llvm.dbg.value(metadata %"struct.IPFilter::Primitive"* %0, metadata !4666, metadata !DIExpression()), !dbg !4669
  call void @llvm.dbg.value(metadata i32 %1, metadata !4667, metadata !DIExpression()), !dbg !4669
  call void @llvm.dbg.value(metadata %class.ErrorHandler* %2, metadata !4668, metadata !DIExpression()), !dbg !4669
  %4 = getelementptr inbounds %"struct.IPFilter::Primitive", %"struct.IPFilter::Primitive"* %0, i64 0, i32 4, !dbg !4670
  %5 = load i32, i32* %4, align 4, !dbg !4670, !tbaa !4639
  %6 = icmp eq i32 %5, 0, !dbg !4670
  br i1 %6, label %9, label %7, !dbg !4672

7:                                                ; preds = %3
  %8 = tail call i32 (%class.ErrorHandler*, i8*, ...) @_ZN12ErrorHandler5errorEPKcz(%class.ErrorHandler* %2, i8* getelementptr inbounds ([35 x i8], [35 x i8]* @.str.5, i64 0, i64 0)), !dbg !4673
  br label %9, !dbg !4674

9:                                                ; preds = %3, %7
  store i32 %1, i32* %4, align 4, !dbg !4675, !tbaa !4639
  ret void, !dbg !4676
}

; Function Attrs: sspstrong uwtable
define dso_local void @_ZN8IPFilter9Primitive16set_transp_protoEiP12ErrorHandler(%"struct.IPFilter::Primitive"* nocapture %0, i32 %1, %class.ErrorHandler* %2) local_unnamed_addr #0 align 2 !dbg !4677 {
  call void @llvm.dbg.value(metadata %"struct.IPFilter::Primitive"* %0, metadata !4679, metadata !DIExpression()), !dbg !4682
  call void @llvm.dbg.value(metadata i32 %1, metadata !4680, metadata !DIExpression()), !dbg !4682
  call void @llvm.dbg.value(metadata %class.ErrorHandler* %2, metadata !4681, metadata !DIExpression()), !dbg !4682
  %4 = getelementptr inbounds %"struct.IPFilter::Primitive", %"struct.IPFilter::Primitive"* %0, i64 0, i32 5, !dbg !4683
  %5 = load i32, i32* %4, align 4, !dbg !4683, !tbaa !4647
  %6 = icmp eq i32 %5, -1000, !dbg !4685
  %7 = icmp eq i32 %5, %1, !dbg !4686
  %8 = or i1 %6, %7, !dbg !4687
  br i1 %8, label %11, label %9, !dbg !4687

9:                                                ; preds = %3
  %10 = tail call i32 (%class.ErrorHandler*, i8*, ...) @_ZN12ErrorHandler5errorEPKcz(%class.ErrorHandler* %2, i8* getelementptr inbounds ([35 x i8], [35 x i8]* @.str.6, i64 0, i64 0)), !dbg !4688
  br label %11, !dbg !4689

11:                                               ; preds = %3, %9
  store i32 %1, i32* %4, align 4, !dbg !4690, !tbaa !4647
  ret void, !dbg !4691
}

; Function Attrs: sspstrong uwtable
define dso_local i32 @_ZN8IPFilter9Primitive8set_maskEjijP12ErrorHandler(%"struct.IPFilter::Primitive"* nocapture %0, i32 %1, i32 %2, i32 %3, %class.ErrorHandler* %4) local_unnamed_addr #0 align 2 personality i8* bitcast (i32 (...)* @__gxx_personality_v0 to i8*) !dbg !4692 {
  %6 = alloca %class.String, align 8
  %7 = alloca %class.String, align 8
  %8 = alloca %class.String, align 8
  call void @llvm.dbg.value(metadata %"struct.IPFilter::Primitive"* %0, metadata !4694, metadata !DIExpression()), !dbg !4711
  call void @llvm.dbg.value(metadata i32 %1, metadata !4695, metadata !DIExpression()), !dbg !4711
  call void @llvm.dbg.value(metadata i32 %2, metadata !4696, metadata !DIExpression()), !dbg !4711
  call void @llvm.dbg.value(metadata i32 %3, metadata !4697, metadata !DIExpression()), !dbg !4711
  call void @llvm.dbg.value(metadata %class.ErrorHandler* %4, metadata !4698, metadata !DIExpression()), !dbg !4711
  %9 = getelementptr inbounds %"struct.IPFilter::Primitive", %"struct.IPFilter::Primitive"* %0, i64 0, i32 6, i32 0, !dbg !4712
  %10 = load i32, i32* %9, align 4, !dbg !4712, !tbaa !4001
  call void @llvm.dbg.value(metadata i32 %10, metadata !4699, metadata !DIExpression()), !dbg !4711
  %11 = icmp eq i32 %3, 0, !dbg !4713
  %12 = select i1 %11, i32 %1, i32 %3, !dbg !4713
  call void @llvm.dbg.value(metadata i32 %12, metadata !4700, metadata !DIExpression()), !dbg !4711
  %13 = and i32 %12, %1, !dbg !4714
  %14 = icmp eq i32 %13, %12, !dbg !4716
  br i1 %14, label %65, label %15, !dbg !4717

15:                                               ; preds = %5
  %16 = bitcast %class.String* %6 to i8*, !dbg !4718
  call void @llvm.lifetime.start.p0i8(i64 24, i8* nonnull %16) #17, !dbg !4718
  call void @llvm.dbg.value(metadata %"struct.IPFilter::Primitive"* %0, metadata !4719, metadata !DIExpression()), !dbg !4723
  %17 = getelementptr inbounds %"struct.IPFilter::Primitive", %"struct.IPFilter::Primitive"* %0, i64 0, i32 4, !dbg !4725
  %18 = load i32, i32* %17, align 4, !dbg !4725, !tbaa !4639, !noalias !4726
  %19 = getelementptr inbounds %"struct.IPFilter::Primitive", %"struct.IPFilter::Primitive"* %0, i64 0, i32 0, !dbg !4729
  %20 = load i32, i32* %19, align 4, !dbg !4729, !tbaa !4644, !noalias !4726
  call void @_ZN8IPFilter9Primitive12unparse_typeEii(%class.String* nonnull sret %6, i32 %18, i32 %20), !dbg !4730
  %21 = invoke i8* @_ZNK6String5c_strEv(%class.String* nonnull %6)
          to label %22 unwind label %43, !dbg !4731

22:                                               ; preds = %15
  %23 = invoke i32 (%class.ErrorHandler*, i8*, ...) @_ZN12ErrorHandler5errorEPKcz(%class.ErrorHandler* %4, i8* getelementptr inbounds ([38 x i8], [38 x i8]* @.str.7, i64 0, i64 0), i8* %21, i32 %1)
          to label %24 unwind label %43, !dbg !4732

24:                                               ; preds = %22
  call void @llvm.dbg.value(metadata %class.String* %6, metadata !3917, metadata !DIExpression()) #17, !dbg !4733
  call void @llvm.dbg.value(metadata %class.String* %6, metadata !3912, metadata !DIExpression()) #17, !dbg !4735
  %25 = getelementptr inbounds %class.String, %class.String* %6, i64 0, i32 0, i32 2, !dbg !4737
  %26 = load %"struct.String::memo_t"*, %"struct.String::memo_t"** %25, align 8, !dbg !4737, !tbaa !4043
  %27 = icmp eq %"struct.String::memo_t"* %26, null, !dbg !4738
  br i1 %27, label %42, label %28, !dbg !4739

28:                                               ; preds = %24
  %29 = getelementptr inbounds %"struct.String::memo_t", %"struct.String::memo_t"* %26, i64 0, i32 0, !dbg !4740
  %30 = load volatile i32, i32* %29, align 4, !dbg !4740, !tbaa !4048
  %31 = icmp eq i32 %30, 0, !dbg !4740
  br i1 %31, label %32, label %33, !dbg !4740

32:                                               ; preds = %28
  call void @__assert_fail(i8* getelementptr inbounds ([18 x i8], [18 x i8]* @.str.118, i64 0, i64 0), i8* getelementptr inbounds ([29 x i8], [29 x i8]* @.str.119, i64 0, i64 0), i32 273, i8* getelementptr inbounds ([27 x i8], [27 x i8]* @__PRETTY_FUNCTION__._ZNK6String5derefEv, i64 0, i64 0)) #18, !dbg !4740
  unreachable, !dbg !4740

33:                                               ; preds = %28
  call void @llvm.dbg.value(metadata i32* %29, metadata !4050, metadata !DIExpression()) #17, !dbg !4741
  %34 = load volatile i32, i32* %29, align 4, !dbg !4743, !tbaa !3792
  %35 = add i32 %34, -1, !dbg !4743
  store volatile i32 %35, i32* %29, align 4, !dbg !4743, !tbaa !3792
  %36 = icmp eq i32 %35, 0, !dbg !4744
  br i1 %36, label %37, label %38, !dbg !4745

37:                                               ; preds = %33
  invoke void @_ZN6String11delete_memoEPNS_6memo_tE(%"struct.String::memo_t"* nonnull %26)
          to label %38 unwind label %39, !dbg !4746

38:                                               ; preds = %37, %33
  store %"struct.String::memo_t"* null, %"struct.String::memo_t"** %25, align 8, !dbg !4747, !tbaa !4043
  br label %42, !dbg !4748

39:                                               ; preds = %37
  %40 = landingpad { i8*, i32 }
          catch i8* null, !dbg !4749
  %41 = extractvalue { i8*, i32 } %40, 0, !dbg !4749
  call void @__clang_call_terminate(i8* %41) #18, !dbg !4749
  unreachable, !dbg !4749

42:                                               ; preds = %24, %38
  call void @llvm.lifetime.end.p0i8(i64 24, i8* nonnull %16) #17, !dbg !4750
  br label %237, !dbg !4750

43:                                               ; preds = %22, %15
  %44 = landingpad { i8*, i32 }
          cleanup, !dbg !4751
  %45 = extractvalue { i8*, i32 } %44, 0, !dbg !4751
  %46 = extractvalue { i8*, i32 } %44, 1, !dbg !4751
  call void @llvm.dbg.value(metadata %class.String* %6, metadata !3917, metadata !DIExpression()) #17, !dbg !4752
  call void @llvm.dbg.value(metadata %class.String* %6, metadata !3912, metadata !DIExpression()) #17, !dbg !4754
  %47 = getelementptr inbounds %class.String, %class.String* %6, i64 0, i32 0, i32 2, !dbg !4756
  %48 = load %"struct.String::memo_t"*, %"struct.String::memo_t"** %47, align 8, !dbg !4756, !tbaa !4043
  %49 = icmp eq %"struct.String::memo_t"* %48, null, !dbg !4757
  br i1 %49, label %64, label %50, !dbg !4758

50:                                               ; preds = %43
  %51 = getelementptr inbounds %"struct.String::memo_t", %"struct.String::memo_t"* %48, i64 0, i32 0, !dbg !4759
  %52 = load volatile i32, i32* %51, align 4, !dbg !4759, !tbaa !4048
  %53 = icmp eq i32 %52, 0, !dbg !4759
  br i1 %53, label %54, label %55, !dbg !4759

54:                                               ; preds = %50
  call void @__assert_fail(i8* getelementptr inbounds ([18 x i8], [18 x i8]* @.str.118, i64 0, i64 0), i8* getelementptr inbounds ([29 x i8], [29 x i8]* @.str.119, i64 0, i64 0), i32 273, i8* getelementptr inbounds ([27 x i8], [27 x i8]* @__PRETTY_FUNCTION__._ZNK6String5derefEv, i64 0, i64 0)) #18, !dbg !4759
  unreachable, !dbg !4759

55:                                               ; preds = %50
  call void @llvm.dbg.value(metadata i32* %51, metadata !4050, metadata !DIExpression()) #17, !dbg !4760
  %56 = load volatile i32, i32* %51, align 4, !dbg !4762, !tbaa !3792
  %57 = add i32 %56, -1, !dbg !4762
  store volatile i32 %57, i32* %51, align 4, !dbg !4762, !tbaa !3792
  %58 = icmp eq i32 %57, 0, !dbg !4763
  br i1 %58, label %59, label %60, !dbg !4764

59:                                               ; preds = %55
  invoke void @_ZN6String11delete_memoEPNS_6memo_tE(%"struct.String::memo_t"* nonnull %48)
          to label %60 unwind label %61, !dbg !4765

60:                                               ; preds = %59, %55
  store %"struct.String::memo_t"* null, %"struct.String::memo_t"** %47, align 8, !dbg !4766, !tbaa !4043
  br label %64, !dbg !4767

61:                                               ; preds = %59
  %62 = landingpad { i8*, i32 }
          catch i8* null, !dbg !4768
  %63 = extractvalue { i8*, i32 } %62, 0, !dbg !4768
  call void @__clang_call_terminate(i8* %63) #18, !dbg !4768
  unreachable, !dbg !4768

64:                                               ; preds = %43, %60
  call void @llvm.lifetime.end.p0i8(i64 24, i8* nonnull %16) #17, !dbg !4750
  br label %239, !dbg !4750

65:                                               ; preds = %5
  %66 = getelementptr inbounds %"struct.IPFilter::Primitive", %"struct.IPFilter::Primitive"* %0, i64 0, i32 2, !dbg !4769
  %67 = load i32, i32* %66, align 4, !dbg !4769, !tbaa !4770
  %68 = add i32 %67, -1, !dbg !4771
  %69 = icmp ult i32 %68, 2, !dbg !4771
  br i1 %69, label %70, label %181, !dbg !4771

70:                                               ; preds = %65
  %71 = icmp eq i32 %67, 2, !dbg !4772
  br i1 %71, label %72, label %75, !dbg !4773

72:                                               ; preds = %70
  %73 = add i32 %10, -1, !dbg !4774
  %74 = icmp ult i32 %73, %12, !dbg !4774
  br i1 %74, label %152, label %77, !dbg !4774

75:                                               ; preds = %70
  %76 = icmp ult i32 %10, %12, !dbg !4775
  br i1 %76, label %156, label %87, !dbg !4776

77:                                               ; preds = %72
  %78 = icmp ugt i32 %10, %12, !dbg !4777
  %79 = getelementptr inbounds %"struct.IPFilter::Primitive", %"struct.IPFilter::Primitive"* %0, i64 0, i32 3, !dbg !4778
  %80 = load i8, i8* %79, align 4, !dbg !4778, !tbaa !4779, !range !4780
  br i1 %78, label %81, label %84, !dbg !4781

81:                                               ; preds = %77
  %82 = icmp eq i8 %80, 0, !dbg !4782
  call void @llvm.dbg.value(metadata i1 %85, metadata !4701, metadata !DIExpression()), !dbg !4778
  %83 = bitcast %class.String* %7 to i8*, !dbg !4783
  call void @llvm.lifetime.start.p0i8(i64 24, i8* nonnull %83) #17, !dbg !4783
  call void @llvm.dbg.value(metadata %"struct.IPFilter::Primitive"* %0, metadata !4784, metadata !DIExpression()), !dbg !4787
  br label %94, !dbg !4789

84:                                               ; preds = %77
  %85 = icmp ne i8 %80, 0, !dbg !4790
  call void @llvm.dbg.value(metadata i1 %85, metadata !4701, metadata !DIExpression()), !dbg !4778
  %86 = bitcast %class.String* %7 to i8*, !dbg !4783
  call void @llvm.lifetime.start.p0i8(i64 24, i8* nonnull %86) #17, !dbg !4783
  call void @llvm.dbg.value(metadata %"struct.IPFilter::Primitive"* %0, metadata !4784, metadata !DIExpression()), !dbg !4787
  br label %94, !dbg !4789

87:                                               ; preds = %75
  %88 = getelementptr inbounds %"struct.IPFilter::Primitive", %"struct.IPFilter::Primitive"* %0, i64 0, i32 3, !dbg !4778
  %89 = load i8, i8* %88, align 4, !dbg !4778, !tbaa !4779, !range !4780
  call void @llvm.dbg.value(metadata i1 %85, metadata !4701, metadata !DIExpression()), !dbg !4778
  %90 = bitcast %class.String* %7 to i8*, !dbg !4783
  call void @llvm.lifetime.start.p0i8(i64 24, i8* nonnull %90) #17, !dbg !4783
  call void @llvm.dbg.value(metadata %"struct.IPFilter::Primitive"* %0, metadata !4784, metadata !DIExpression()), !dbg !4787
  call void @llvm.dbg.value(metadata %class.String* %7, metadata !4791, metadata !DIExpression()), !dbg !4795
  call void @llvm.dbg.value(metadata i8* undef, metadata !4794, metadata !DIExpression()), !dbg !4795
  %91 = icmp eq i8 %89, 0, !dbg !4798
  %92 = select i1 %91, i8* getelementptr inbounds ([2 x i8], [2 x i8]* @.str.39, i64 0, i64 0), i8* getelementptr inbounds ([3 x i8], [3 x i8]* @.str.49, i64 0, i64 0), !dbg !4798
  call void @llvm.dbg.value(metadata i8* %92, metadata !4794, metadata !DIExpression()), !dbg !4795
  %93 = icmp ne i8 %89, 0, !dbg !4790
  br label %99

94:                                               ; preds = %84, %81
  %95 = phi i8* [ %83, %81 ], [ %86, %84 ]
  %96 = phi i1 [ %82, %81 ], [ %85, %84 ]
  call void @llvm.dbg.value(metadata %class.String* %7, metadata !4791, metadata !DIExpression()), !dbg !4799
  call void @llvm.dbg.value(metadata i8* undef, metadata !4794, metadata !DIExpression()), !dbg !4799
  %97 = icmp eq i8 %80, 0, !dbg !4802
  %98 = select i1 %97, i8* getelementptr inbounds ([2 x i8], [2 x i8]* @.str.51, i64 0, i64 0), i8* getelementptr inbounds ([3 x i8], [3 x i8]* @.str.50, i64 0, i64 0), !dbg !4803
  call void @llvm.dbg.value(metadata i8* %98, metadata !4794, metadata !DIExpression()), !dbg !4799
  br label %99

99:                                               ; preds = %87, %94
  %100 = phi i8* [ %92, %87 ], [ %98, %94 ]
  %101 = phi i8* [ %90, %87 ], [ %95, %94 ]
  %102 = phi i1 [ %93, %87 ], [ %96, %94 ]
  %103 = phi i8* [ %88, %87 ], [ %79, %94 ]
  call void @_ZN6String6assignEPKcib(%class.String* nonnull %7, i8* %100, i32 -1, i1 zeroext false), !dbg !4804
  %104 = invoke i8* @_ZNK6String5c_strEv(%class.String* nonnull %7)
          to label %105 unwind label %130, !dbg !4805

105:                                              ; preds = %99
  %106 = select i1 %102, i8* getelementptr inbounds ([5 x i8], [5 x i8]* @.str.9, i64 0, i64 0), i8* getelementptr inbounds ([6 x i8], [6 x i8]* @.str.10, i64 0, i64 0), !dbg !4806
  %107 = invoke i32 (%class.ErrorHandler*, i8*, ...) @_ZN12ErrorHandler7warningEPKcz(%class.ErrorHandler* %4, i8* getelementptr inbounds ([45 x i8], [45 x i8]* @.str.8, i64 0, i64 0), i8* %104, i32 %10, i8* %106, i32 %12)
          to label %108 unwind label %130, !dbg !4807

108:                                              ; preds = %105
  call void @llvm.dbg.value(metadata %class.String* %7, metadata !3917, metadata !DIExpression()) #17, !dbg !4808
  call void @llvm.dbg.value(metadata %class.String* %7, metadata !3912, metadata !DIExpression()) #17, !dbg !4810
  %109 = getelementptr inbounds %class.String, %class.String* %7, i64 0, i32 0, i32 2, !dbg !4812
  %110 = load %"struct.String::memo_t"*, %"struct.String::memo_t"** %109, align 8, !dbg !4812, !tbaa !4043
  %111 = icmp eq %"struct.String::memo_t"* %110, null, !dbg !4813
  br i1 %111, label %126, label %112, !dbg !4814

112:                                              ; preds = %108
  %113 = getelementptr inbounds %"struct.String::memo_t", %"struct.String::memo_t"* %110, i64 0, i32 0, !dbg !4815
  %114 = load volatile i32, i32* %113, align 4, !dbg !4815, !tbaa !4048
  %115 = icmp eq i32 %114, 0, !dbg !4815
  br i1 %115, label %116, label %117, !dbg !4815

116:                                              ; preds = %112
  call void @__assert_fail(i8* getelementptr inbounds ([18 x i8], [18 x i8]* @.str.118, i64 0, i64 0), i8* getelementptr inbounds ([29 x i8], [29 x i8]* @.str.119, i64 0, i64 0), i32 273, i8* getelementptr inbounds ([27 x i8], [27 x i8]* @__PRETTY_FUNCTION__._ZNK6String5derefEv, i64 0, i64 0)) #18, !dbg !4815
  unreachable, !dbg !4815

117:                                              ; preds = %112
  call void @llvm.dbg.value(metadata i32* %113, metadata !4050, metadata !DIExpression()) #17, !dbg !4816
  %118 = load volatile i32, i32* %113, align 4, !dbg !4818, !tbaa !3792
  %119 = add i32 %118, -1, !dbg !4818
  store volatile i32 %119, i32* %113, align 4, !dbg !4818, !tbaa !3792
  %120 = icmp eq i32 %119, 0, !dbg !4819
  br i1 %120, label %121, label %122, !dbg !4820

121:                                              ; preds = %117
  invoke void @_ZN6String11delete_memoEPNS_6memo_tE(%"struct.String::memo_t"* nonnull %110)
          to label %122 unwind label %123, !dbg !4821

122:                                              ; preds = %121, %117
  store %"struct.String::memo_t"* null, %"struct.String::memo_t"** %109, align 8, !dbg !4822, !tbaa !4043
  br label %126, !dbg !4823

123:                                              ; preds = %121
  %124 = landingpad { i8*, i32 }
          catch i8* null, !dbg !4824
  %125 = extractvalue { i8*, i32 } %124, 0, !dbg !4824
  call void @__clang_call_terminate(i8* %125) #18, !dbg !4824
  unreachable, !dbg !4824

126:                                              ; preds = %108, %122
  call void @llvm.lifetime.end.p0i8(i64 24, i8* nonnull %101) #17, !dbg !4825
  %127 = getelementptr inbounds %"struct.IPFilter::Primitive", %"struct.IPFilter::Primitive"* %0, i64 0, i32 7, i32 0, !dbg !4826
  store i32 0, i32* %127, align 4, !dbg !4827, !tbaa !4001
  store i32 0, i32* %9, align 4, !dbg !4828, !tbaa !4001
  %128 = xor i1 %102, true, !dbg !4829
  %129 = zext i1 %128 to i8, !dbg !4830
  store i8 %129, i8* %103, align 4, !dbg !4830, !tbaa !4779
  store i32 0, i32* %66, align 4, !dbg !4831, !tbaa !4770
  br label %237

130:                                              ; preds = %105, %99
  %131 = landingpad { i8*, i32 }
          cleanup, !dbg !4832
  %132 = extractvalue { i8*, i32 } %131, 0, !dbg !4832
  %133 = extractvalue { i8*, i32 } %131, 1, !dbg !4832
  call void @llvm.dbg.value(metadata %class.String* %7, metadata !3917, metadata !DIExpression()) #17, !dbg !4833
  call void @llvm.dbg.value(metadata %class.String* %7, metadata !3912, metadata !DIExpression()) #17, !dbg !4835
  %134 = getelementptr inbounds %class.String, %class.String* %7, i64 0, i32 0, i32 2, !dbg !4837
  %135 = load %"struct.String::memo_t"*, %"struct.String::memo_t"** %134, align 8, !dbg !4837, !tbaa !4043
  %136 = icmp eq %"struct.String::memo_t"* %135, null, !dbg !4838
  br i1 %136, label %151, label %137, !dbg !4839

137:                                              ; preds = %130
  %138 = getelementptr inbounds %"struct.String::memo_t", %"struct.String::memo_t"* %135, i64 0, i32 0, !dbg !4840
  %139 = load volatile i32, i32* %138, align 4, !dbg !4840, !tbaa !4048
  %140 = icmp eq i32 %139, 0, !dbg !4840
  br i1 %140, label %141, label %142, !dbg !4840

141:                                              ; preds = %137
  call void @__assert_fail(i8* getelementptr inbounds ([18 x i8], [18 x i8]* @.str.118, i64 0, i64 0), i8* getelementptr inbounds ([29 x i8], [29 x i8]* @.str.119, i64 0, i64 0), i32 273, i8* getelementptr inbounds ([27 x i8], [27 x i8]* @__PRETTY_FUNCTION__._ZNK6String5derefEv, i64 0, i64 0)) #18, !dbg !4840
  unreachable, !dbg !4840

142:                                              ; preds = %137
  call void @llvm.dbg.value(metadata i32* %138, metadata !4050, metadata !DIExpression()) #17, !dbg !4841
  %143 = load volatile i32, i32* %138, align 4, !dbg !4843, !tbaa !3792
  %144 = add i32 %143, -1, !dbg !4843
  store volatile i32 %144, i32* %138, align 4, !dbg !4843, !tbaa !3792
  %145 = icmp eq i32 %144, 0, !dbg !4844
  br i1 %145, label %146, label %147, !dbg !4845

146:                                              ; preds = %142
  invoke void @_ZN6String11delete_memoEPNS_6memo_tE(%"struct.String::memo_t"* nonnull %135)
          to label %147 unwind label %148, !dbg !4846

147:                                              ; preds = %146, %142
  store %"struct.String::memo_t"* null, %"struct.String::memo_t"** %134, align 8, !dbg !4847, !tbaa !4043
  br label %151, !dbg !4848

148:                                              ; preds = %146
  %149 = landingpad { i8*, i32 }
          catch i8* null, !dbg !4849
  %150 = extractvalue { i8*, i32 } %149, 0, !dbg !4849
  call void @__clang_call_terminate(i8* %150) #18, !dbg !4849
  unreachable, !dbg !4849

151:                                              ; preds = %130, %147
  call void @llvm.lifetime.end.p0i8(i64 24, i8* nonnull %101) #17, !dbg !4825
  br label %239, !dbg !4850

152:                                              ; preds = %72
  store i32 %73, i32* %9, align 4, !dbg !4851, !tbaa !4001
  %153 = getelementptr inbounds %"struct.IPFilter::Primitive", %"struct.IPFilter::Primitive"* %0, i64 0, i32 3, !dbg !4854
  %154 = load i8, i8* %153, align 4, !dbg !4854, !tbaa !4779, !range !4780
  %155 = xor i8 %154, 1, !dbg !4855
  store i8 %155, i8* %153, align 4, !dbg !4855, !tbaa !4779
  store i32 1, i32* %66, align 4, !dbg !4856, !tbaa !4770
  br label %156, !dbg !4857

156:                                              ; preds = %75, %152
  %157 = phi i32 [ %10, %75 ], [ %73, %152 ], !dbg !4858
  %158 = shl i32 %157, %2, !dbg !4859
  %159 = shl nsw i32 -1, %2, !dbg !4860
  %160 = xor i32 %159, -1, !dbg !4860
  %161 = or i32 %158, %160, !dbg !4861
  store i32 %161, i32* %9, align 4, !dbg !4862, !tbaa !4001
  %162 = shl i32 %12, %2, !dbg !4863
  %163 = or i32 %162, %160, !dbg !4864
  %164 = getelementptr inbounds %"struct.IPFilter::Primitive", %"struct.IPFilter::Primitive"* %0, i64 0, i32 7, i32 0, !dbg !4865
  store i32 %163, i32* %164, align 4, !dbg !4866, !tbaa !4001
  %165 = and i32 %161, %163, !dbg !4867
  %166 = icmp eq i32 %165, %161, !dbg !4868
  br i1 %166, label %237, label %167, !dbg !4869

167:                                              ; preds = %156
  %168 = shl i32 %1, %2, !dbg !4870
  %169 = or i32 %168, %160, !dbg !4871
  call void @llvm.dbg.value(metadata i32 %169, metadata !4706, metadata !DIExpression()), !dbg !4872
  %170 = and i32 %161, %169, !dbg !4873
  %171 = xor i32 %165, %170, !dbg !4874
  call void @llvm.dbg.value(metadata i32 %171, metadata !4709, metadata !DIExpression()), !dbg !4872
  call void @llvm.dbg.value(metadata i32 %171, metadata !4875, metadata !DIExpression()) #17, !dbg !4881
  %172 = icmp eq i32 %171, 0, !dbg !4883
  br i1 %172, label %176, label %173, !dbg !4883

173:                                              ; preds = %167
  %174 = tail call i32 @llvm.ctlz.i32(i32 %171, i1 true) #17, !dbg !4884, !range !4885
  %175 = add nuw nsw i32 %174, 1, !dbg !4886
  br label %176, !dbg !4883

176:                                              ; preds = %167, %173
  %177 = phi i32 [ %175, %173 ], [ 0, %167 ], !dbg !4883
  %178 = lshr i32 -1, %177, !dbg !4887
  call void @llvm.dbg.value(metadata i32 %178, metadata !4710, metadata !DIExpression()), !dbg !4872
  %179 = or i32 %178, %161, !dbg !4888
  %180 = and i32 %179, %163, !dbg !4889
  store i32 %180, i32* %9, align 4, !dbg !4890, !tbaa !4001
  br label %237, !dbg !4891

181:                                              ; preds = %65
  %182 = icmp ugt i32 %10, %1, !dbg !4892
  br i1 %182, label %183, label %233, !dbg !4894

183:                                              ; preds = %181
  %184 = bitcast %class.String* %8 to i8*, !dbg !4895
  call void @llvm.lifetime.start.p0i8(i64 24, i8* nonnull %184) #17, !dbg !4895
  call void @llvm.dbg.value(metadata %"struct.IPFilter::Primitive"* %0, metadata !4719, metadata !DIExpression()), !dbg !4896
  %185 = getelementptr inbounds %"struct.IPFilter::Primitive", %"struct.IPFilter::Primitive"* %0, i64 0, i32 4, !dbg !4898
  %186 = load i32, i32* %185, align 4, !dbg !4898, !tbaa !4639, !noalias !4899
  %187 = getelementptr inbounds %"struct.IPFilter::Primitive", %"struct.IPFilter::Primitive"* %0, i64 0, i32 0, !dbg !4902
  %188 = load i32, i32* %187, align 4, !dbg !4902, !tbaa !4644, !noalias !4899
  call void @_ZN8IPFilter9Primitive12unparse_typeEii(%class.String* nonnull sret %8, i32 %186, i32 %188), !dbg !4903
  %189 = invoke i8* @_ZNK6String5c_strEv(%class.String* nonnull %8)
          to label %190 unwind label %211, !dbg !4904

190:                                              ; preds = %183
  %191 = invoke i32 (%class.ErrorHandler*, i8*, ...) @_ZN12ErrorHandler5errorEPKcz(%class.ErrorHandler* %4, i8* getelementptr inbounds ([31 x i8], [31 x i8]* @.str.11, i64 0, i64 0), i8* %189, i32 %1)
          to label %192 unwind label %211, !dbg !4905

192:                                              ; preds = %190
  call void @llvm.dbg.value(metadata %class.String* %8, metadata !3917, metadata !DIExpression()) #17, !dbg !4906
  call void @llvm.dbg.value(metadata %class.String* %8, metadata !3912, metadata !DIExpression()) #17, !dbg !4908
  %193 = getelementptr inbounds %class.String, %class.String* %8, i64 0, i32 0, i32 2, !dbg !4910
  %194 = load %"struct.String::memo_t"*, %"struct.String::memo_t"** %193, align 8, !dbg !4910, !tbaa !4043
  %195 = icmp eq %"struct.String::memo_t"* %194, null, !dbg !4911
  br i1 %195, label %210, label %196, !dbg !4912

196:                                              ; preds = %192
  %197 = getelementptr inbounds %"struct.String::memo_t", %"struct.String::memo_t"* %194, i64 0, i32 0, !dbg !4913
  %198 = load volatile i32, i32* %197, align 4, !dbg !4913, !tbaa !4048
  %199 = icmp eq i32 %198, 0, !dbg !4913
  br i1 %199, label %200, label %201, !dbg !4913

200:                                              ; preds = %196
  call void @__assert_fail(i8* getelementptr inbounds ([18 x i8], [18 x i8]* @.str.118, i64 0, i64 0), i8* getelementptr inbounds ([29 x i8], [29 x i8]* @.str.119, i64 0, i64 0), i32 273, i8* getelementptr inbounds ([27 x i8], [27 x i8]* @__PRETTY_FUNCTION__._ZNK6String5derefEv, i64 0, i64 0)) #18, !dbg !4913
  unreachable, !dbg !4913

201:                                              ; preds = %196
  call void @llvm.dbg.value(metadata i32* %197, metadata !4050, metadata !DIExpression()) #17, !dbg !4914
  %202 = load volatile i32, i32* %197, align 4, !dbg !4916, !tbaa !3792
  %203 = add i32 %202, -1, !dbg !4916
  store volatile i32 %203, i32* %197, align 4, !dbg !4916, !tbaa !3792
  %204 = icmp eq i32 %203, 0, !dbg !4917
  br i1 %204, label %205, label %206, !dbg !4918

205:                                              ; preds = %201
  invoke void @_ZN6String11delete_memoEPNS_6memo_tE(%"struct.String::memo_t"* nonnull %194)
          to label %206 unwind label %207, !dbg !4919

206:                                              ; preds = %205, %201
  store %"struct.String::memo_t"* null, %"struct.String::memo_t"** %193, align 8, !dbg !4920, !tbaa !4043
  br label %210, !dbg !4921

207:                                              ; preds = %205
  %208 = landingpad { i8*, i32 }
          catch i8* null, !dbg !4922
  %209 = extractvalue { i8*, i32 } %208, 0, !dbg !4922
  call void @__clang_call_terminate(i8* %209) #18, !dbg !4922
  unreachable, !dbg !4922

210:                                              ; preds = %192, %206
  call void @llvm.lifetime.end.p0i8(i64 24, i8* nonnull %184) #17, !dbg !4923
  br label %237, !dbg !4923

211:                                              ; preds = %190, %183
  %212 = landingpad { i8*, i32 }
          cleanup, !dbg !4924
  %213 = extractvalue { i8*, i32 } %212, 0, !dbg !4924
  %214 = extractvalue { i8*, i32 } %212, 1, !dbg !4924
  call void @llvm.dbg.value(metadata %class.String* %8, metadata !3917, metadata !DIExpression()) #17, !dbg !4925
  call void @llvm.dbg.value(metadata %class.String* %8, metadata !3912, metadata !DIExpression()) #17, !dbg !4927
  %215 = getelementptr inbounds %class.String, %class.String* %8, i64 0, i32 0, i32 2, !dbg !4929
  %216 = load %"struct.String::memo_t"*, %"struct.String::memo_t"** %215, align 8, !dbg !4929, !tbaa !4043
  %217 = icmp eq %"struct.String::memo_t"* %216, null, !dbg !4930
  br i1 %217, label %232, label %218, !dbg !4931

218:                                              ; preds = %211
  %219 = getelementptr inbounds %"struct.String::memo_t", %"struct.String::memo_t"* %216, i64 0, i32 0, !dbg !4932
  %220 = load volatile i32, i32* %219, align 4, !dbg !4932, !tbaa !4048
  %221 = icmp eq i32 %220, 0, !dbg !4932
  br i1 %221, label %222, label %223, !dbg !4932

222:                                              ; preds = %218
  call void @__assert_fail(i8* getelementptr inbounds ([18 x i8], [18 x i8]* @.str.118, i64 0, i64 0), i8* getelementptr inbounds ([29 x i8], [29 x i8]* @.str.119, i64 0, i64 0), i32 273, i8* getelementptr inbounds ([27 x i8], [27 x i8]* @__PRETTY_FUNCTION__._ZNK6String5derefEv, i64 0, i64 0)) #18, !dbg !4932
  unreachable, !dbg !4932

223:                                              ; preds = %218
  call void @llvm.dbg.value(metadata i32* %219, metadata !4050, metadata !DIExpression()) #17, !dbg !4933
  %224 = load volatile i32, i32* %219, align 4, !dbg !4935, !tbaa !3792
  %225 = add i32 %224, -1, !dbg !4935
  store volatile i32 %225, i32* %219, align 4, !dbg !4935, !tbaa !3792
  %226 = icmp eq i32 %225, 0, !dbg !4936
  br i1 %226, label %227, label %228, !dbg !4937

227:                                              ; preds = %223
  invoke void @_ZN6String11delete_memoEPNS_6memo_tE(%"struct.String::memo_t"* nonnull %216)
          to label %228 unwind label %229, !dbg !4938

228:                                              ; preds = %227, %223
  store %"struct.String::memo_t"* null, %"struct.String::memo_t"** %215, align 8, !dbg !4939, !tbaa !4043
  br label %232, !dbg !4940

229:                                              ; preds = %227
  %230 = landingpad { i8*, i32 }
          catch i8* null, !dbg !4941
  %231 = extractvalue { i8*, i32 } %230, 0, !dbg !4941
  call void @__clang_call_terminate(i8* %231) #18, !dbg !4941
  unreachable, !dbg !4941

232:                                              ; preds = %211, %228
  call void @llvm.lifetime.end.p0i8(i64 24, i8* nonnull %184) #17, !dbg !4923
  br label %239, !dbg !4923

233:                                              ; preds = %181
  %234 = shl i32 %10, %2, !dbg !4942
  store i32 %234, i32* %9, align 4, !dbg !4943, !tbaa !4001
  %235 = shl i32 %12, %2, !dbg !4944
  %236 = getelementptr inbounds %"struct.IPFilter::Primitive", %"struct.IPFilter::Primitive"* %0, i64 0, i32 7, i32 0, !dbg !4945
  store i32 %235, i32* %236, align 4, !dbg !4946, !tbaa !4001
  br label %237, !dbg !4947

237:                                              ; preds = %176, %156, %233, %210, %126, %42
  %238 = phi i32 [ %23, %42 ], [ 0, %126 ], [ %191, %210 ], [ 0, %233 ], [ 0, %156 ], [ 0, %176 ], !dbg !4711
  ret i32 %238, !dbg !4948

239:                                              ; preds = %232, %151, %64
  %240 = phi i32 [ %46, %64 ], [ %133, %151 ], [ %214, %232 ], !dbg !4711
  %241 = phi i8* [ %45, %64 ], [ %132, %151 ], [ %213, %232 ], !dbg !4711
  %242 = insertvalue { i8*, i32 } undef, i8* %241, 0, !dbg !4948
  %243 = insertvalue { i8*, i32 } %242, i32 %240, 1, !dbg !4948
  resume { i8*, i32 } %243, !dbg !4948
}

; Function Attrs: sspstrong uwtable
define dso_local void @_ZNK8IPFilter9Primitive12unparse_typeEv(%class.String* noalias sret %0, %"struct.IPFilter::Primitive"* nocapture readonly %1) local_unnamed_addr #0 align 2 !dbg !4720 {
  call void @llvm.dbg.value(metadata %"struct.IPFilter::Primitive"* %1, metadata !4719, metadata !DIExpression()), !dbg !4949
  %3 = getelementptr inbounds %"struct.IPFilter::Primitive", %"struct.IPFilter::Primitive"* %1, i64 0, i32 4, !dbg !4950
  %4 = load i32, i32* %3, align 4, !dbg !4950, !tbaa !4639
  %5 = getelementptr inbounds %"struct.IPFilter::Primitive", %"struct.IPFilter::Primitive"* %1, i64 0, i32 0, !dbg !4951
  %6 = load i32, i32* %5, align 4, !dbg !4951, !tbaa !4644
  tail call void @_ZN8IPFilter9Primitive12unparse_typeEii(%class.String* sret %0, i32 %4, i32 %6), !dbg !4952
  ret void, !dbg !4953
}

declare i32 @_ZN12ErrorHandler7warningEPKcz(%class.ErrorHandler*, i8*, ...) local_unnamed_addr #2

; Function Attrs: sspstrong uwtable
define dso_local void @_ZNK8IPFilter9Primitive10unparse_opEv(%class.String* noalias sret %0, %"struct.IPFilter::Primitive"* nocapture readonly %1) local_unnamed_addr #0 align 2 !dbg !4785 {
  call void @llvm.dbg.value(metadata %"struct.IPFilter::Primitive"* %1, metadata !4784, metadata !DIExpression()), !dbg !4954
  %3 = getelementptr inbounds %"struct.IPFilter::Primitive", %"struct.IPFilter::Primitive"* %1, i64 0, i32 2, !dbg !4955
  %4 = load i32, i32* %3, align 4, !dbg !4955, !tbaa !4770
  %5 = icmp eq i32 %4, 1, !dbg !4956
  br i1 %5, label %6, label %11, !dbg !4957

6:                                                ; preds = %2
  call void @llvm.dbg.value(metadata %class.String* %0, metadata !4791, metadata !DIExpression()), !dbg !4958
  call void @llvm.dbg.value(metadata i8* undef, metadata !4794, metadata !DIExpression()), !dbg !4958
  %7 = getelementptr inbounds %"struct.IPFilter::Primitive", %"struct.IPFilter::Primitive"* %1, i64 0, i32 3, !dbg !4960
  %8 = load i8, i8* %7, align 4, !dbg !4960, !tbaa !4779, !range !4780
  %9 = icmp eq i8 %8, 0, !dbg !4960
  %10 = select i1 %9, i8* getelementptr inbounds ([2 x i8], [2 x i8]* @.str.39, i64 0, i64 0), i8* getelementptr inbounds ([3 x i8], [3 x i8]* @.str.49, i64 0, i64 0), !dbg !4960
  call void @llvm.dbg.value(metadata i8* %10, metadata !4794, metadata !DIExpression()), !dbg !4958
  br label %20

11:                                               ; preds = %2
  %12 = icmp eq i32 %4, 2, !dbg !4961
  %13 = getelementptr inbounds %"struct.IPFilter::Primitive", %"struct.IPFilter::Primitive"* %1, i64 0, i32 3, !dbg !4962
  %14 = load i8, i8* %13, align 4, !dbg !4962, !tbaa !4779, !range !4780
  %15 = icmp ne i8 %14, 0, !dbg !4962
  call void @llvm.dbg.value(metadata %class.String* %0, metadata !4791, metadata !DIExpression()), !dbg !4963
  call void @llvm.dbg.value(metadata %class.String* %0, metadata !4791, metadata !DIExpression()), !dbg !4965
  call void @llvm.dbg.value(metadata i8* undef, metadata !4794, metadata !DIExpression()), !dbg !4963
  call void @llvm.dbg.value(metadata i8* undef, metadata !4794, metadata !DIExpression()), !dbg !4965
  br i1 %12, label %16, label %18, !dbg !4967

16:                                               ; preds = %11
  %17 = select i1 %15, i8* getelementptr inbounds ([3 x i8], [3 x i8]* @.str.50, i64 0, i64 0), i8* getelementptr inbounds ([2 x i8], [2 x i8]* @.str.51, i64 0, i64 0), !dbg !4968
  call void @llvm.dbg.value(metadata i8* %17, metadata !4794, metadata !DIExpression()), !dbg !4963
  br label %20

18:                                               ; preds = %11
  %19 = select i1 %15, i8* getelementptr inbounds ([3 x i8], [3 x i8]* @.str.52, i64 0, i64 0), i8* getelementptr inbounds ([2 x i8], [2 x i8]* @.str.53, i64 0, i64 0), !dbg !4969
  call void @llvm.dbg.value(metadata i8* %19, metadata !4794, metadata !DIExpression()), !dbg !4965
  br label %20

20:                                               ; preds = %18, %16, %6
  %21 = phi i8* [ %19, %18 ], [ %17, %16 ], [ %10, %6 ]
  tail call void @_ZN6String6assignEPKcib(%class.String* %0, i8* %21, i32 -1, i1 zeroext false), !dbg !4970
  ret void, !dbg !4971
}

; Function Attrs: sspstrong uwtable
define dso_local void @_ZN8IPFilter9Primitive12unparse_typeEii(%class.String* noalias sret %0, i32 %1, i32 %2) local_unnamed_addr #0 align 2 personality i8* bitcast (i32 (...)* @__gxx_personality_v0 to i8*) !dbg !4972 {
  %4 = alloca %class.StringAccum, align 8
  %5 = alloca %class.String, align 8
  call void @llvm.dbg.value(metadata i32 %1, metadata !4974, metadata !DIExpression()), !dbg !4977
  call void @llvm.dbg.value(metadata i32 %2, metadata !4975, metadata !DIExpression()), !dbg !4977
  %6 = bitcast %class.StringAccum* %4 to i8*, !dbg !4978
  call void @llvm.lifetime.start.p0i8(i64 16, i8* nonnull %6) #17, !dbg !4978
  call void @llvm.dbg.declare(metadata %class.StringAccum* %4, metadata !4976, metadata !DIExpression()), !dbg !4979
  call void @llvm.dbg.value(metadata %class.StringAccum* %4, metadata !3866, metadata !DIExpression()), !dbg !4980
  call void @llvm.dbg.value(metadata %class.StringAccum* %4, metadata !3872, metadata !DIExpression()), !dbg !4982
  %7 = getelementptr inbounds %class.StringAccum, %class.StringAccum* %4, i64 0, i32 0, i32 0, !dbg !4984
  store i8* @_ZN6String9null_dataE, i8** %7, align 8, !dbg !4984, !tbaa !3879
  %8 = getelementptr inbounds %class.StringAccum, %class.StringAccum* %4, i64 0, i32 0, i32 1, !dbg !4985
  store i32 0, i32* %8, align 8, !dbg !4985, !tbaa !3883
  %9 = getelementptr inbounds %class.StringAccum, %class.StringAccum* %4, i64 0, i32 0, i32 2, !dbg !4986
  store i32 0, i32* %9, align 4, !dbg !4986, !tbaa !3885
  switch i32 %1, label %18 [
    i32 1, label %10
    i32 2, label %15
    i32 4, label %16
    i32 3, label %17
  ], !dbg !4987

10:                                               ; preds = %3
  call void @llvm.dbg.value(metadata %class.StringAccum* %4, metadata !3939, metadata !DIExpression()), !dbg !4988
  call void @llvm.dbg.value(metadata i8* getelementptr inbounds ([5 x i8], [5 x i8]* @.str.12, i64 0, i64 0), metadata !3944, metadata !DIExpression()), !dbg !4988
  call void @llvm.dbg.value(metadata %class.StringAccum* %4, metadata !3947, metadata !DIExpression()), !dbg !4991
  call void @llvm.dbg.value(metadata i8* getelementptr inbounds ([5 x i8], [5 x i8]* @.str.12, i64 0, i64 0), metadata !3950, metadata !DIExpression()), !dbg !4991
  call void @llvm.dbg.value(metadata %class.StringAccum* %4, metadata !3953, metadata !DIExpression()), !dbg !4993
  call void @llvm.dbg.value(metadata i8* getelementptr inbounds ([5 x i8], [5 x i8]* @.str.12, i64 0, i64 0), metadata !3956, metadata !DIExpression()), !dbg !4993
  call void @llvm.dbg.value(metadata i32 4, metadata !3957, metadata !DIExpression()), !dbg !4993
  invoke void @_ZN11StringAccum11hard_appendEPKci(%class.StringAccum* nonnull %4, i8* nonnull getelementptr inbounds ([5 x i8], [5 x i8]* @.str.12, i64 0, i64 0), i32 4)
          to label %18 unwind label %11, !dbg !4995

11:                                               ; preds = %390, %374, %373, %361, %349, %263, %251, %239, %227, %215, %203, %191, %179, %167, %151, %139, %127, %115, %103, %91, %78, %66, %54, %42, %30, %17, %16, %15, %10, %391
  %12 = landingpad { i8*, i32 }
          cleanup, !dbg !4996
  %13 = extractvalue { i8*, i32 } %12, 0, !dbg !4996
  %14 = extractvalue { i8*, i32 } %12, 1, !dbg !4996
  br label %399, !dbg !4996

15:                                               ; preds = %3
  call void @llvm.dbg.value(metadata %class.StringAccum* %4, metadata !3939, metadata !DIExpression()), !dbg !4997
  call void @llvm.dbg.value(metadata i8* getelementptr inbounds ([5 x i8], [5 x i8]* @.str.13, i64 0, i64 0), metadata !3944, metadata !DIExpression()), !dbg !4997
  call void @llvm.dbg.value(metadata %class.StringAccum* %4, metadata !3947, metadata !DIExpression()), !dbg !4999
  call void @llvm.dbg.value(metadata i8* getelementptr inbounds ([5 x i8], [5 x i8]* @.str.13, i64 0, i64 0), metadata !3950, metadata !DIExpression()), !dbg !4999
  call void @llvm.dbg.value(metadata %class.StringAccum* %4, metadata !3953, metadata !DIExpression()), !dbg !5001
  call void @llvm.dbg.value(metadata i8* getelementptr inbounds ([5 x i8], [5 x i8]* @.str.13, i64 0, i64 0), metadata !3956, metadata !DIExpression()), !dbg !5001
  call void @llvm.dbg.value(metadata i32 4, metadata !3957, metadata !DIExpression()), !dbg !5001
  invoke void @_ZN11StringAccum11hard_appendEPKci(%class.StringAccum* nonnull %4, i8* nonnull getelementptr inbounds ([5 x i8], [5 x i8]* @.str.13, i64 0, i64 0), i32 4)
          to label %18 unwind label %11, !dbg !5003

16:                                               ; preds = %3
  call void @llvm.dbg.value(metadata %class.StringAccum* %4, metadata !3939, metadata !DIExpression()), !dbg !5004
  call void @llvm.dbg.value(metadata i8* getelementptr inbounds ([12 x i8], [12 x i8]* @.str.14, i64 0, i64 0), metadata !3944, metadata !DIExpression()), !dbg !5004
  call void @llvm.dbg.value(metadata %class.StringAccum* %4, metadata !3947, metadata !DIExpression()), !dbg !5006
  call void @llvm.dbg.value(metadata i8* getelementptr inbounds ([12 x i8], [12 x i8]* @.str.14, i64 0, i64 0), metadata !3950, metadata !DIExpression()), !dbg !5006
  call void @llvm.dbg.value(metadata %class.StringAccum* %4, metadata !3953, metadata !DIExpression()), !dbg !5008
  call void @llvm.dbg.value(metadata i8* getelementptr inbounds ([12 x i8], [12 x i8]* @.str.14, i64 0, i64 0), metadata !3956, metadata !DIExpression()), !dbg !5008
  call void @llvm.dbg.value(metadata i32 11, metadata !3957, metadata !DIExpression()), !dbg !5008
  invoke void @_ZN11StringAccum11hard_appendEPKci(%class.StringAccum* nonnull %4, i8* nonnull getelementptr inbounds ([12 x i8], [12 x i8]* @.str.14, i64 0, i64 0), i32 11)
          to label %18 unwind label %11, !dbg !5010

17:                                               ; preds = %3
  call void @llvm.dbg.value(metadata %class.StringAccum* %4, metadata !3939, metadata !DIExpression()), !dbg !5011
  call void @llvm.dbg.value(metadata i8* getelementptr inbounds ([13 x i8], [13 x i8]* @.str.15, i64 0, i64 0), metadata !3944, metadata !DIExpression()), !dbg !5011
  call void @llvm.dbg.value(metadata %class.StringAccum* %4, metadata !3947, metadata !DIExpression()), !dbg !5013
  call void @llvm.dbg.value(metadata i8* getelementptr inbounds ([13 x i8], [13 x i8]* @.str.15, i64 0, i64 0), metadata !3950, metadata !DIExpression()), !dbg !5013
  call void @llvm.dbg.value(metadata %class.StringAccum* %4, metadata !3953, metadata !DIExpression()), !dbg !5015
  call void @llvm.dbg.value(metadata i8* getelementptr inbounds ([13 x i8], [13 x i8]* @.str.15, i64 0, i64 0), metadata !3956, metadata !DIExpression()), !dbg !5015
  call void @llvm.dbg.value(metadata i32 12, metadata !3957, metadata !DIExpression()), !dbg !5015
  invoke void @_ZN11StringAccum11hard_appendEPKci(%class.StringAccum* nonnull %4, i8* nonnull getelementptr inbounds ([13 x i8], [13 x i8]* @.str.15, i64 0, i64 0), i32 12)
          to label %18 unwind label %11, !dbg !5017

18:                                               ; preds = %17, %16, %15, %10, %3
  switch i32 %2, label %152 [
    i32 0, label %19
    i32 10, label %31
    i32 11, label %43
    i32 15, label %55
    i32 12, label %67
    i32 13, label %79
    i32 14, label %92
    i32 30, label %104
    i32 31, label %116
    i32 32, label %128
    i32 33, label %140
  ], !dbg !5018

19:                                               ; preds = %18
  call void @llvm.dbg.value(metadata %class.StringAccum* %4, metadata !3939, metadata !DIExpression()), !dbg !5019
  call void @llvm.dbg.value(metadata i8* getelementptr inbounds ([7 x i8], [7 x i8]* @.str.16, i64 0, i64 0), metadata !3944, metadata !DIExpression()), !dbg !5019
  call void @llvm.dbg.value(metadata %class.StringAccum* %4, metadata !3947, metadata !DIExpression()), !dbg !5022
  call void @llvm.dbg.value(metadata i8* getelementptr inbounds ([7 x i8], [7 x i8]* @.str.16, i64 0, i64 0), metadata !3950, metadata !DIExpression()), !dbg !5022
  call void @llvm.dbg.value(metadata %class.StringAccum* %4, metadata !3953, metadata !DIExpression()), !dbg !5024
  call void @llvm.dbg.value(metadata i8* getelementptr inbounds ([7 x i8], [7 x i8]* @.str.16, i64 0, i64 0), metadata !3956, metadata !DIExpression()), !dbg !5024
  call void @llvm.dbg.value(metadata i32 6, metadata !3957, metadata !DIExpression()), !dbg !5024
  %20 = load i32, i32* %8, align 8, !dbg !5026, !tbaa !3933
  %21 = add nsw i32 %20, 6, !dbg !5027
  %22 = load i32, i32* %9, align 4, !dbg !5028, !tbaa !3964
  %23 = icmp sgt i32 %21, %22, !dbg !5029
  br i1 %23, label %30, label %24, !dbg !5030

24:                                               ; preds = %19
  %25 = load i8*, i8** %7, align 8, !dbg !5031, !tbaa !3969
  %26 = sext i32 %20 to i64, !dbg !5032
  %27 = getelementptr inbounds i8, i8* %25, i64 %26, !dbg !5032
  call void @llvm.memcpy.p0i8.p0i8.i64(i8* nonnull align 1 dereferenceable(6) %27, i8* nonnull align 1 dereferenceable(6) getelementptr inbounds ([7 x i8], [7 x i8]* @.str.16, i64 0, i64 0), i64 6, i1 false), !dbg !5033
  %28 = load i32, i32* %8, align 8, !dbg !5034, !tbaa !3933
  %29 = add nsw i32 %28, 6, !dbg !5034
  store i32 %29, i32* %8, align 8, !dbg !5034, !tbaa !3933
  br label %391, !dbg !5035

30:                                               ; preds = %19
  invoke void @_ZN11StringAccum11hard_appendEPKci(%class.StringAccum* nonnull %4, i8* nonnull getelementptr inbounds ([7 x i8], [7 x i8]* @.str.16, i64 0, i64 0), i32 6)
          to label %391 unwind label %11, !dbg !5036

31:                                               ; preds = %18
  call void @llvm.dbg.value(metadata %class.StringAccum* %4, metadata !3939, metadata !DIExpression()), !dbg !5037
  call void @llvm.dbg.value(metadata i8* getelementptr inbounds ([8 x i8], [8 x i8]* @.str.17, i64 0, i64 0), metadata !3944, metadata !DIExpression()), !dbg !5037
  call void @llvm.dbg.value(metadata %class.StringAccum* %4, metadata !3947, metadata !DIExpression()), !dbg !5039
  call void @llvm.dbg.value(metadata i8* getelementptr inbounds ([8 x i8], [8 x i8]* @.str.17, i64 0, i64 0), metadata !3950, metadata !DIExpression()), !dbg !5039
  call void @llvm.dbg.value(metadata %class.StringAccum* %4, metadata !3953, metadata !DIExpression()), !dbg !5041
  call void @llvm.dbg.value(metadata i8* getelementptr inbounds ([8 x i8], [8 x i8]* @.str.17, i64 0, i64 0), metadata !3956, metadata !DIExpression()), !dbg !5041
  call void @llvm.dbg.value(metadata i32 7, metadata !3957, metadata !DIExpression()), !dbg !5041
  %32 = load i32, i32* %8, align 8, !dbg !5043, !tbaa !3933
  %33 = add nsw i32 %32, 7, !dbg !5044
  %34 = load i32, i32* %9, align 4, !dbg !5045, !tbaa !3964
  %35 = icmp sgt i32 %33, %34, !dbg !5046
  br i1 %35, label %42, label %36, !dbg !5047

36:                                               ; preds = %31
  %37 = load i8*, i8** %7, align 8, !dbg !5048, !tbaa !3969
  %38 = sext i32 %32 to i64, !dbg !5049
  %39 = getelementptr inbounds i8, i8* %37, i64 %38, !dbg !5049
  call void @llvm.memcpy.p0i8.p0i8.i64(i8* nonnull align 1 dereferenceable(7) %39, i8* nonnull align 1 dereferenceable(7) getelementptr inbounds ([8 x i8], [8 x i8]* @.str.17, i64 0, i64 0), i64 7, i1 false), !dbg !5050
  %40 = load i32, i32* %8, align 8, !dbg !5051, !tbaa !3933
  %41 = add nsw i32 %40, 7, !dbg !5051
  store i32 %41, i32* %8, align 8, !dbg !5051, !tbaa !3933
  br label %391, !dbg !5052

42:                                               ; preds = %31
  invoke void @_ZN11StringAccum11hard_appendEPKci(%class.StringAccum* nonnull %4, i8* nonnull getelementptr inbounds ([8 x i8], [8 x i8]* @.str.17, i64 0, i64 0), i32 7)
          to label %391 unwind label %11, !dbg !5053

43:                                               ; preds = %18
  call void @llvm.dbg.value(metadata %class.StringAccum* %4, metadata !3939, metadata !DIExpression()), !dbg !5054
  call void @llvm.dbg.value(metadata i8* getelementptr inbounds ([6 x i8], [6 x i8]* @.str.18, i64 0, i64 0), metadata !3944, metadata !DIExpression()), !dbg !5054
  call void @llvm.dbg.value(metadata %class.StringAccum* %4, metadata !3947, metadata !DIExpression()), !dbg !5056
  call void @llvm.dbg.value(metadata i8* getelementptr inbounds ([6 x i8], [6 x i8]* @.str.18, i64 0, i64 0), metadata !3950, metadata !DIExpression()), !dbg !5056
  call void @llvm.dbg.value(metadata %class.StringAccum* %4, metadata !3953, metadata !DIExpression()), !dbg !5058
  call void @llvm.dbg.value(metadata i8* getelementptr inbounds ([6 x i8], [6 x i8]* @.str.18, i64 0, i64 0), metadata !3956, metadata !DIExpression()), !dbg !5058
  call void @llvm.dbg.value(metadata i32 5, metadata !3957, metadata !DIExpression()), !dbg !5058
  %44 = load i32, i32* %8, align 8, !dbg !5060, !tbaa !3933
  %45 = add nsw i32 %44, 5, !dbg !5061
  %46 = load i32, i32* %9, align 4, !dbg !5062, !tbaa !3964
  %47 = icmp sgt i32 %45, %46, !dbg !5063
  br i1 %47, label %54, label %48, !dbg !5064

48:                                               ; preds = %43
  %49 = load i8*, i8** %7, align 8, !dbg !5065, !tbaa !3969
  %50 = sext i32 %44 to i64, !dbg !5066
  %51 = getelementptr inbounds i8, i8* %49, i64 %50, !dbg !5066
  call void @llvm.memcpy.p0i8.p0i8.i64(i8* nonnull align 1 dereferenceable(5) %51, i8* nonnull align 1 dereferenceable(5) getelementptr inbounds ([6 x i8], [6 x i8]* @.str.18, i64 0, i64 0), i64 5, i1 false), !dbg !5067
  %52 = load i32, i32* %8, align 8, !dbg !5068, !tbaa !3933
  %53 = add nsw i32 %52, 5, !dbg !5068
  store i32 %53, i32* %8, align 8, !dbg !5068, !tbaa !3933
  br label %391, !dbg !5069

54:                                               ; preds = %43
  invoke void @_ZN11StringAccum11hard_appendEPKci(%class.StringAccum* nonnull %4, i8* nonnull getelementptr inbounds ([6 x i8], [6 x i8]* @.str.18, i64 0, i64 0), i32 5)
          to label %391 unwind label %11, !dbg !5070

55:                                               ; preds = %18
  call void @llvm.dbg.value(metadata %class.StringAccum* %4, metadata !3939, metadata !DIExpression()), !dbg !5071
  call void @llvm.dbg.value(metadata i8* getelementptr inbounds ([11 x i8], [11 x i8]* @.str.19, i64 0, i64 0), metadata !3944, metadata !DIExpression()), !dbg !5071
  call void @llvm.dbg.value(metadata %class.StringAccum* %4, metadata !3947, metadata !DIExpression()), !dbg !5073
  call void @llvm.dbg.value(metadata i8* getelementptr inbounds ([11 x i8], [11 x i8]* @.str.19, i64 0, i64 0), metadata !3950, metadata !DIExpression()), !dbg !5073
  call void @llvm.dbg.value(metadata %class.StringAccum* %4, metadata !3953, metadata !DIExpression()), !dbg !5075
  call void @llvm.dbg.value(metadata i8* getelementptr inbounds ([11 x i8], [11 x i8]* @.str.19, i64 0, i64 0), metadata !3956, metadata !DIExpression()), !dbg !5075
  call void @llvm.dbg.value(metadata i32 10, metadata !3957, metadata !DIExpression()), !dbg !5075
  %56 = load i32, i32* %8, align 8, !dbg !5077, !tbaa !3933
  %57 = add nsw i32 %56, 10, !dbg !5078
  %58 = load i32, i32* %9, align 4, !dbg !5079, !tbaa !3964
  %59 = icmp sgt i32 %57, %58, !dbg !5080
  br i1 %59, label %66, label %60, !dbg !5081

60:                                               ; preds = %55
  %61 = load i8*, i8** %7, align 8, !dbg !5082, !tbaa !3969
  %62 = sext i32 %56 to i64, !dbg !5083
  %63 = getelementptr inbounds i8, i8* %61, i64 %62, !dbg !5083
  call void @llvm.memcpy.p0i8.p0i8.i64(i8* nonnull align 1 dereferenceable(10) %63, i8* nonnull align 1 dereferenceable(10) getelementptr inbounds ([11 x i8], [11 x i8]* @.str.19, i64 0, i64 0), i64 10, i1 false), !dbg !5084
  %64 = load i32, i32* %8, align 8, !dbg !5085, !tbaa !3933
  %65 = add nsw i32 %64, 10, !dbg !5085
  store i32 %65, i32* %8, align 8, !dbg !5085, !tbaa !3933
  br label %391, !dbg !5086

66:                                               ; preds = %55
  invoke void @_ZN11StringAccum11hard_appendEPKci(%class.StringAccum* nonnull %4, i8* nonnull getelementptr inbounds ([11 x i8], [11 x i8]* @.str.19, i64 0, i64 0), i32 10)
          to label %391 unwind label %11, !dbg !5087

67:                                               ; preds = %18
  call void @llvm.dbg.value(metadata %class.StringAccum* %4, metadata !3939, metadata !DIExpression()), !dbg !5088
  call void @llvm.dbg.value(metadata i8* getelementptr inbounds ([8 x i8], [8 x i8]* @.str.20, i64 0, i64 0), metadata !3944, metadata !DIExpression()), !dbg !5088
  call void @llvm.dbg.value(metadata %class.StringAccum* %4, metadata !3947, metadata !DIExpression()), !dbg !5090
  call void @llvm.dbg.value(metadata i8* getelementptr inbounds ([8 x i8], [8 x i8]* @.str.20, i64 0, i64 0), metadata !3950, metadata !DIExpression()), !dbg !5090
  call void @llvm.dbg.value(metadata %class.StringAccum* %4, metadata !3953, metadata !DIExpression()), !dbg !5092
  call void @llvm.dbg.value(metadata i8* getelementptr inbounds ([8 x i8], [8 x i8]* @.str.20, i64 0, i64 0), metadata !3956, metadata !DIExpression()), !dbg !5092
  call void @llvm.dbg.value(metadata i32 7, metadata !3957, metadata !DIExpression()), !dbg !5092
  %68 = load i32, i32* %8, align 8, !dbg !5094, !tbaa !3933
  %69 = add nsw i32 %68, 7, !dbg !5095
  %70 = load i32, i32* %9, align 4, !dbg !5096, !tbaa !3964
  %71 = icmp sgt i32 %69, %70, !dbg !5097
  br i1 %71, label %78, label %72, !dbg !5098

72:                                               ; preds = %67
  %73 = load i8*, i8** %7, align 8, !dbg !5099, !tbaa !3969
  %74 = sext i32 %68 to i64, !dbg !5100
  %75 = getelementptr inbounds i8, i8* %73, i64 %74, !dbg !5100
  call void @llvm.memcpy.p0i8.p0i8.i64(i8* nonnull align 1 dereferenceable(7) %75, i8* nonnull align 1 dereferenceable(7) getelementptr inbounds ([8 x i8], [8 x i8]* @.str.20, i64 0, i64 0), i64 7, i1 false), !dbg !5101
  %76 = load i32, i32* %8, align 8, !dbg !5102, !tbaa !3933
  %77 = add nsw i32 %76, 7, !dbg !5102
  store i32 %77, i32* %8, align 8, !dbg !5102, !tbaa !3933
  br label %391, !dbg !5103

78:                                               ; preds = %67
  invoke void @_ZN11StringAccum11hard_appendEPKci(%class.StringAccum* nonnull %4, i8* nonnull getelementptr inbounds ([8 x i8], [8 x i8]* @.str.20, i64 0, i64 0), i32 7)
          to label %391 unwind label %11, !dbg !5104

79:                                               ; preds = %18
  call void @llvm.dbg.value(metadata %class.StringAccum* %4, metadata !3939, metadata !DIExpression()), !dbg !5105
  call void @llvm.dbg.value(metadata i8* getelementptr inbounds ([5 x i8], [5 x i8]* @.str.21, i64 0, i64 0), metadata !3944, metadata !DIExpression()), !dbg !5105
  call void @llvm.dbg.value(metadata %class.StringAccum* %4, metadata !3947, metadata !DIExpression()), !dbg !5107
  call void @llvm.dbg.value(metadata i8* getelementptr inbounds ([5 x i8], [5 x i8]* @.str.21, i64 0, i64 0), metadata !3950, metadata !DIExpression()), !dbg !5107
  call void @llvm.dbg.value(metadata %class.StringAccum* %4, metadata !3953, metadata !DIExpression()), !dbg !5109
  call void @llvm.dbg.value(metadata i8* getelementptr inbounds ([5 x i8], [5 x i8]* @.str.21, i64 0, i64 0), metadata !3956, metadata !DIExpression()), !dbg !5109
  call void @llvm.dbg.value(metadata i32 4, metadata !3957, metadata !DIExpression()), !dbg !5109
  %80 = load i32, i32* %8, align 8, !dbg !5111, !tbaa !3933
  %81 = add nsw i32 %80, 4, !dbg !5112
  %82 = load i32, i32* %9, align 4, !dbg !5113, !tbaa !3964
  %83 = icmp sgt i32 %81, %82, !dbg !5114
  br i1 %83, label %91, label %84, !dbg !5115

84:                                               ; preds = %79
  %85 = load i8*, i8** %7, align 8, !dbg !5116, !tbaa !3969
  %86 = sext i32 %80 to i64, !dbg !5117
  %87 = getelementptr inbounds i8, i8* %85, i64 %86, !dbg !5117
  %88 = bitcast i8* %87 to i32*, !dbg !5118
  store i32 1953656688, i32* %88, align 1, !dbg !5118
  %89 = load i32, i32* %8, align 8, !dbg !5119, !tbaa !3933
  %90 = add nsw i32 %89, 4, !dbg !5119
  store i32 %90, i32* %8, align 8, !dbg !5119, !tbaa !3933
  br label %391, !dbg !5120

91:                                               ; preds = %79
  invoke void @_ZN11StringAccum11hard_appendEPKci(%class.StringAccum* nonnull %4, i8* nonnull getelementptr inbounds ([5 x i8], [5 x i8]* @.str.21, i64 0, i64 0), i32 4)
          to label %391 unwind label %11, !dbg !5121

92:                                               ; preds = %18
  call void @llvm.dbg.value(metadata %class.StringAccum* %4, metadata !3939, metadata !DIExpression()), !dbg !5122
  call void @llvm.dbg.value(metadata i8* getelementptr inbounds ([8 x i8], [8 x i8]* @.str.22, i64 0, i64 0), metadata !3944, metadata !DIExpression()), !dbg !5122
  call void @llvm.dbg.value(metadata %class.StringAccum* %4, metadata !3947, metadata !DIExpression()), !dbg !5124
  call void @llvm.dbg.value(metadata i8* getelementptr inbounds ([8 x i8], [8 x i8]* @.str.22, i64 0, i64 0), metadata !3950, metadata !DIExpression()), !dbg !5124
  call void @llvm.dbg.value(metadata %class.StringAccum* %4, metadata !3953, metadata !DIExpression()), !dbg !5126
  call void @llvm.dbg.value(metadata i8* getelementptr inbounds ([8 x i8], [8 x i8]* @.str.22, i64 0, i64 0), metadata !3956, metadata !DIExpression()), !dbg !5126
  call void @llvm.dbg.value(metadata i32 7, metadata !3957, metadata !DIExpression()), !dbg !5126
  %93 = load i32, i32* %8, align 8, !dbg !5128, !tbaa !3933
  %94 = add nsw i32 %93, 7, !dbg !5129
  %95 = load i32, i32* %9, align 4, !dbg !5130, !tbaa !3964
  %96 = icmp sgt i32 %94, %95, !dbg !5131
  br i1 %96, label %103, label %97, !dbg !5132

97:                                               ; preds = %92
  %98 = load i8*, i8** %7, align 8, !dbg !5133, !tbaa !3969
  %99 = sext i32 %93 to i64, !dbg !5134
  %100 = getelementptr inbounds i8, i8* %98, i64 %99, !dbg !5134
  call void @llvm.memcpy.p0i8.p0i8.i64(i8* nonnull align 1 dereferenceable(7) %100, i8* nonnull align 1 dereferenceable(7) getelementptr inbounds ([8 x i8], [8 x i8]* @.str.22, i64 0, i64 0), i64 7, i1 false), !dbg !5135
  %101 = load i32, i32* %8, align 8, !dbg !5136, !tbaa !3933
  %102 = add nsw i32 %101, 7, !dbg !5136
  store i32 %102, i32* %8, align 8, !dbg !5136, !tbaa !3933
  br label %391, !dbg !5137

103:                                              ; preds = %92
  invoke void @_ZN11StringAccum11hard_appendEPKci(%class.StringAccum* nonnull %4, i8* nonnull getelementptr inbounds ([8 x i8], [8 x i8]* @.str.22, i64 0, i64 0), i32 7)
          to label %391 unwind label %11, !dbg !5138

104:                                              ; preds = %18
  call void @llvm.dbg.value(metadata %class.StringAccum* %4, metadata !3939, metadata !DIExpression()), !dbg !5139
  call void @llvm.dbg.value(metadata i8* getelementptr inbounds ([7 x i8], [7 x i8]* @.str.23, i64 0, i64 0), metadata !3944, metadata !DIExpression()), !dbg !5139
  call void @llvm.dbg.value(metadata %class.StringAccum* %4, metadata !3947, metadata !DIExpression()), !dbg !5141
  call void @llvm.dbg.value(metadata i8* getelementptr inbounds ([7 x i8], [7 x i8]* @.str.23, i64 0, i64 0), metadata !3950, metadata !DIExpression()), !dbg !5141
  call void @llvm.dbg.value(metadata %class.StringAccum* %4, metadata !3953, metadata !DIExpression()), !dbg !5143
  call void @llvm.dbg.value(metadata i8* getelementptr inbounds ([7 x i8], [7 x i8]* @.str.23, i64 0, i64 0), metadata !3956, metadata !DIExpression()), !dbg !5143
  call void @llvm.dbg.value(metadata i32 6, metadata !3957, metadata !DIExpression()), !dbg !5143
  %105 = load i32, i32* %8, align 8, !dbg !5145, !tbaa !3933
  %106 = add nsw i32 %105, 6, !dbg !5146
  %107 = load i32, i32* %9, align 4, !dbg !5147, !tbaa !3964
  %108 = icmp sgt i32 %106, %107, !dbg !5148
  br i1 %108, label %115, label %109, !dbg !5149

109:                                              ; preds = %104
  %110 = load i8*, i8** %7, align 8, !dbg !5150, !tbaa !3969
  %111 = sext i32 %105 to i64, !dbg !5151
  %112 = getelementptr inbounds i8, i8* %110, i64 %111, !dbg !5151
  call void @llvm.memcpy.p0i8.p0i8.i64(i8* nonnull align 1 dereferenceable(6) %112, i8* nonnull align 1 dereferenceable(6) getelementptr inbounds ([7 x i8], [7 x i8]* @.str.23, i64 0, i64 0), i64 6, i1 false), !dbg !5152
  %113 = load i32, i32* %8, align 8, !dbg !5153, !tbaa !3933
  %114 = add nsw i32 %113, 6, !dbg !5153
  store i32 %114, i32* %8, align 8, !dbg !5153, !tbaa !3933
  br label %391, !dbg !5154

115:                                              ; preds = %104
  invoke void @_ZN11StringAccum11hard_appendEPKci(%class.StringAccum* nonnull %4, i8* nonnull getelementptr inbounds ([7 x i8], [7 x i8]* @.str.23, i64 0, i64 0), i32 6)
          to label %391 unwind label %11, !dbg !5155

116:                                              ; preds = %18
  call void @llvm.dbg.value(metadata %class.StringAccum* %4, metadata !3939, metadata !DIExpression()), !dbg !5156
  call void @llvm.dbg.value(metadata i8* getelementptr inbounds ([10 x i8], [10 x i8]* @.str.24, i64 0, i64 0), metadata !3944, metadata !DIExpression()), !dbg !5156
  call void @llvm.dbg.value(metadata %class.StringAccum* %4, metadata !3947, metadata !DIExpression()), !dbg !5158
  call void @llvm.dbg.value(metadata i8* getelementptr inbounds ([10 x i8], [10 x i8]* @.str.24, i64 0, i64 0), metadata !3950, metadata !DIExpression()), !dbg !5158
  call void @llvm.dbg.value(metadata %class.StringAccum* %4, metadata !3953, metadata !DIExpression()), !dbg !5160
  call void @llvm.dbg.value(metadata i8* getelementptr inbounds ([10 x i8], [10 x i8]* @.str.24, i64 0, i64 0), metadata !3956, metadata !DIExpression()), !dbg !5160
  call void @llvm.dbg.value(metadata i32 9, metadata !3957, metadata !DIExpression()), !dbg !5160
  %117 = load i32, i32* %8, align 8, !dbg !5162, !tbaa !3933
  %118 = add nsw i32 %117, 9, !dbg !5163
  %119 = load i32, i32* %9, align 4, !dbg !5164, !tbaa !3964
  %120 = icmp sgt i32 %118, %119, !dbg !5165
  br i1 %120, label %127, label %121, !dbg !5166

121:                                              ; preds = %116
  %122 = load i8*, i8** %7, align 8, !dbg !5167, !tbaa !3969
  %123 = sext i32 %117 to i64, !dbg !5168
  %124 = getelementptr inbounds i8, i8* %122, i64 %123, !dbg !5168
  call void @llvm.memcpy.p0i8.p0i8.i64(i8* nonnull align 1 dereferenceable(9) %124, i8* nonnull align 1 dereferenceable(9) getelementptr inbounds ([10 x i8], [10 x i8]* @.str.24, i64 0, i64 0), i64 9, i1 false), !dbg !5169
  %125 = load i32, i32* %8, align 8, !dbg !5170, !tbaa !3933
  %126 = add nsw i32 %125, 9, !dbg !5170
  store i32 %126, i32* %8, align 8, !dbg !5170, !tbaa !3933
  br label %391, !dbg !5171

127:                                              ; preds = %116
  invoke void @_ZN11StringAccum11hard_appendEPKci(%class.StringAccum* nonnull %4, i8* nonnull getelementptr inbounds ([10 x i8], [10 x i8]* @.str.24, i64 0, i64 0), i32 9)
          to label %391 unwind label %11, !dbg !5172

128:                                              ; preds = %18
  call void @llvm.dbg.value(metadata %class.StringAccum* %4, metadata !3939, metadata !DIExpression()), !dbg !5173
  call void @llvm.dbg.value(metadata i8* getelementptr inbounds ([7 x i8], [7 x i8]* @.str.25, i64 0, i64 0), metadata !3944, metadata !DIExpression()), !dbg !5173
  call void @llvm.dbg.value(metadata %class.StringAccum* %4, metadata !3947, metadata !DIExpression()), !dbg !5175
  call void @llvm.dbg.value(metadata i8* getelementptr inbounds ([7 x i8], [7 x i8]* @.str.25, i64 0, i64 0), metadata !3950, metadata !DIExpression()), !dbg !5175
  call void @llvm.dbg.value(metadata %class.StringAccum* %4, metadata !3953, metadata !DIExpression()), !dbg !5177
  call void @llvm.dbg.value(metadata i8* getelementptr inbounds ([7 x i8], [7 x i8]* @.str.25, i64 0, i64 0), metadata !3956, metadata !DIExpression()), !dbg !5177
  call void @llvm.dbg.value(metadata i32 6, metadata !3957, metadata !DIExpression()), !dbg !5177
  %129 = load i32, i32* %8, align 8, !dbg !5179, !tbaa !3933
  %130 = add nsw i32 %129, 6, !dbg !5180
  %131 = load i32, i32* %9, align 4, !dbg !5181, !tbaa !3964
  %132 = icmp sgt i32 %130, %131, !dbg !5182
  br i1 %132, label %139, label %133, !dbg !5183

133:                                              ; preds = %128
  %134 = load i8*, i8** %7, align 8, !dbg !5184, !tbaa !3969
  %135 = sext i32 %129 to i64, !dbg !5185
  %136 = getelementptr inbounds i8, i8* %134, i64 %135, !dbg !5185
  call void @llvm.memcpy.p0i8.p0i8.i64(i8* nonnull align 1 dereferenceable(6) %136, i8* nonnull align 1 dereferenceable(6) getelementptr inbounds ([7 x i8], [7 x i8]* @.str.25, i64 0, i64 0), i64 6, i1 false), !dbg !5186
  %137 = load i32, i32* %8, align 8, !dbg !5187, !tbaa !3933
  %138 = add nsw i32 %137, 6, !dbg !5187
  store i32 %138, i32* %8, align 8, !dbg !5187, !tbaa !3933
  br label %391, !dbg !5188

139:                                              ; preds = %128
  invoke void @_ZN11StringAccum11hard_appendEPKci(%class.StringAccum* nonnull %4, i8* nonnull getelementptr inbounds ([7 x i8], [7 x i8]* @.str.25, i64 0, i64 0), i32 6)
          to label %391 unwind label %11, !dbg !5189

140:                                              ; preds = %18
  call void @llvm.dbg.value(metadata %class.StringAccum* %4, metadata !3939, metadata !DIExpression()), !dbg !5190
  call void @llvm.dbg.value(metadata i8* getelementptr inbounds ([6 x i8], [6 x i8]* @.str.26, i64 0, i64 0), metadata !3944, metadata !DIExpression()), !dbg !5190
  call void @llvm.dbg.value(metadata %class.StringAccum* %4, metadata !3947, metadata !DIExpression()), !dbg !5192
  call void @llvm.dbg.value(metadata i8* getelementptr inbounds ([6 x i8], [6 x i8]* @.str.26, i64 0, i64 0), metadata !3950, metadata !DIExpression()), !dbg !5192
  call void @llvm.dbg.value(metadata %class.StringAccum* %4, metadata !3953, metadata !DIExpression()), !dbg !5194
  call void @llvm.dbg.value(metadata i8* getelementptr inbounds ([6 x i8], [6 x i8]* @.str.26, i64 0, i64 0), metadata !3956, metadata !DIExpression()), !dbg !5194
  call void @llvm.dbg.value(metadata i32 5, metadata !3957, metadata !DIExpression()), !dbg !5194
  %141 = load i32, i32* %8, align 8, !dbg !5196, !tbaa !3933
  %142 = add nsw i32 %141, 5, !dbg !5197
  %143 = load i32, i32* %9, align 4, !dbg !5198, !tbaa !3964
  %144 = icmp sgt i32 %142, %143, !dbg !5199
  br i1 %144, label %151, label %145, !dbg !5200

145:                                              ; preds = %140
  %146 = load i8*, i8** %7, align 8, !dbg !5201, !tbaa !3969
  %147 = sext i32 %141 to i64, !dbg !5202
  %148 = getelementptr inbounds i8, i8* %146, i64 %147, !dbg !5202
  call void @llvm.memcpy.p0i8.p0i8.i64(i8* nonnull align 1 dereferenceable(5) %148, i8* nonnull align 1 dereferenceable(5) getelementptr inbounds ([6 x i8], [6 x i8]* @.str.26, i64 0, i64 0), i64 5, i1 false), !dbg !5203
  %149 = load i32, i32* %8, align 8, !dbg !5204, !tbaa !3933
  %150 = add nsw i32 %149, 5, !dbg !5204
  store i32 %150, i32* %8, align 8, !dbg !5204, !tbaa !3933
  br label %391, !dbg !5205

151:                                              ; preds = %140
  invoke void @_ZN11StringAccum11hard_appendEPKci(%class.StringAccum* nonnull %4, i8* nonnull getelementptr inbounds ([6 x i8], [6 x i8]* @.str.26, i64 0, i64 0), i32 5)
          to label %391 unwind label %11, !dbg !5206

152:                                              ; preds = %18
  %153 = and i32 %2, 1073741824, !dbg !5207
  %154 = icmp eq i32 %153, 0, !dbg !5209
  br i1 %154, label %362, label %155, !dbg !5210

155:                                              ; preds = %152
  switch i32 %2, label %264 [
    i32 1073742351, label %156
    i32 1073742863, label %168
    i32 1073741827, label %180
    i32 1073741955, label %192
    i32 1073742087, label %204
    i32 1073742085, label %216
    i32 1073743879, label %228
    i32 1086328335, label %240
    i32 1075838983, label %252
  ], !dbg !5211

156:                                              ; preds = %155
  call void @llvm.dbg.value(metadata %class.StringAccum* %4, metadata !3939, metadata !DIExpression()), !dbg !5213
  call void @llvm.dbg.value(metadata i8* getelementptr inbounds ([7 x i8], [7 x i8]* @.str.27, i64 0, i64 0), metadata !3944, metadata !DIExpression()), !dbg !5213
  call void @llvm.dbg.value(metadata %class.StringAccum* %4, metadata !3947, metadata !DIExpression()), !dbg !5216
  call void @llvm.dbg.value(metadata i8* getelementptr inbounds ([7 x i8], [7 x i8]* @.str.27, i64 0, i64 0), metadata !3950, metadata !DIExpression()), !dbg !5216
  call void @llvm.dbg.value(metadata %class.StringAccum* %4, metadata !3953, metadata !DIExpression()), !dbg !5218
  call void @llvm.dbg.value(metadata i8* getelementptr inbounds ([7 x i8], [7 x i8]* @.str.27, i64 0, i64 0), metadata !3956, metadata !DIExpression()), !dbg !5218
  call void @llvm.dbg.value(metadata i32 6, metadata !3957, metadata !DIExpression()), !dbg !5218
  %157 = load i32, i32* %8, align 8, !dbg !5220, !tbaa !3933
  %158 = add nsw i32 %157, 6, !dbg !5221
  %159 = load i32, i32* %9, align 4, !dbg !5222, !tbaa !3964
  %160 = icmp sgt i32 %158, %159, !dbg !5223
  br i1 %160, label %167, label %161, !dbg !5224

161:                                              ; preds = %156
  %162 = load i8*, i8** %7, align 8, !dbg !5225, !tbaa !3969
  %163 = sext i32 %157 to i64, !dbg !5226
  %164 = getelementptr inbounds i8, i8* %162, i64 %163, !dbg !5226
  call void @llvm.memcpy.p0i8.p0i8.i64(i8* nonnull align 1 dereferenceable(6) %164, i8* nonnull align 1 dereferenceable(6) getelementptr inbounds ([7 x i8], [7 x i8]* @.str.27, i64 0, i64 0), i64 6, i1 false), !dbg !5227
  %165 = load i32, i32* %8, align 8, !dbg !5228, !tbaa !3933
  %166 = add nsw i32 %165, 6, !dbg !5228
  store i32 %166, i32* %8, align 8, !dbg !5228, !tbaa !3933
  br label %391, !dbg !5229

167:                                              ; preds = %156
  invoke void @_ZN11StringAccum11hard_appendEPKci(%class.StringAccum* nonnull %4, i8* nonnull getelementptr inbounds ([7 x i8], [7 x i8]* @.str.27, i64 0, i64 0), i32 6)
          to label %391 unwind label %11, !dbg !5230

168:                                              ; preds = %155
  call void @llvm.dbg.value(metadata %class.StringAccum* %4, metadata !3939, metadata !DIExpression()), !dbg !5231
  call void @llvm.dbg.value(metadata i8* getelementptr inbounds ([6 x i8], [6 x i8]* @.str.28, i64 0, i64 0), metadata !3944, metadata !DIExpression()), !dbg !5231
  call void @llvm.dbg.value(metadata %class.StringAccum* %4, metadata !3947, metadata !DIExpression()), !dbg !5233
  call void @llvm.dbg.value(metadata i8* getelementptr inbounds ([6 x i8], [6 x i8]* @.str.28, i64 0, i64 0), metadata !3950, metadata !DIExpression()), !dbg !5233
  call void @llvm.dbg.value(metadata %class.StringAccum* %4, metadata !3953, metadata !DIExpression()), !dbg !5235
  call void @llvm.dbg.value(metadata i8* getelementptr inbounds ([6 x i8], [6 x i8]* @.str.28, i64 0, i64 0), metadata !3956, metadata !DIExpression()), !dbg !5235
  call void @llvm.dbg.value(metadata i32 5, metadata !3957, metadata !DIExpression()), !dbg !5235
  %169 = load i32, i32* %8, align 8, !dbg !5237, !tbaa !3933
  %170 = add nsw i32 %169, 5, !dbg !5238
  %171 = load i32, i32* %9, align 4, !dbg !5239, !tbaa !3964
  %172 = icmp sgt i32 %170, %171, !dbg !5240
  br i1 %172, label %179, label %173, !dbg !5241

173:                                              ; preds = %168
  %174 = load i8*, i8** %7, align 8, !dbg !5242, !tbaa !3969
  %175 = sext i32 %169 to i64, !dbg !5243
  %176 = getelementptr inbounds i8, i8* %174, i64 %175, !dbg !5243
  call void @llvm.memcpy.p0i8.p0i8.i64(i8* nonnull align 1 dereferenceable(5) %176, i8* nonnull align 1 dereferenceable(5) getelementptr inbounds ([6 x i8], [6 x i8]* @.str.28, i64 0, i64 0), i64 5, i1 false), !dbg !5244
  %177 = load i32, i32* %8, align 8, !dbg !5245, !tbaa !3933
  %178 = add nsw i32 %177, 5, !dbg !5245
  store i32 %178, i32* %8, align 8, !dbg !5245, !tbaa !3933
  br label %391, !dbg !5246

179:                                              ; preds = %168
  invoke void @_ZN11StringAccum11hard_appendEPKci(%class.StringAccum* nonnull %4, i8* nonnull getelementptr inbounds ([6 x i8], [6 x i8]* @.str.28, i64 0, i64 0), i32 5)
          to label %391 unwind label %11, !dbg !5247

180:                                              ; preds = %155
  call void @llvm.dbg.value(metadata %class.StringAccum* %4, metadata !3939, metadata !DIExpression()), !dbg !5248
  call void @llvm.dbg.value(metadata i8* getelementptr inbounds ([8 x i8], [8 x i8]* @.str.29, i64 0, i64 0), metadata !3944, metadata !DIExpression()), !dbg !5248
  call void @llvm.dbg.value(metadata %class.StringAccum* %4, metadata !3947, metadata !DIExpression()), !dbg !5250
  call void @llvm.dbg.value(metadata i8* getelementptr inbounds ([8 x i8], [8 x i8]* @.str.29, i64 0, i64 0), metadata !3950, metadata !DIExpression()), !dbg !5250
  call void @llvm.dbg.value(metadata %class.StringAccum* %4, metadata !3953, metadata !DIExpression()), !dbg !5252
  call void @llvm.dbg.value(metadata i8* getelementptr inbounds ([8 x i8], [8 x i8]* @.str.29, i64 0, i64 0), metadata !3956, metadata !DIExpression()), !dbg !5252
  call void @llvm.dbg.value(metadata i32 7, metadata !3957, metadata !DIExpression()), !dbg !5252
  %181 = load i32, i32* %8, align 8, !dbg !5254, !tbaa !3933
  %182 = add nsw i32 %181, 7, !dbg !5255
  %183 = load i32, i32* %9, align 4, !dbg !5256, !tbaa !3964
  %184 = icmp sgt i32 %182, %183, !dbg !5257
  br i1 %184, label %191, label %185, !dbg !5258

185:                                              ; preds = %180
  %186 = load i8*, i8** %7, align 8, !dbg !5259, !tbaa !3969
  %187 = sext i32 %181 to i64, !dbg !5260
  %188 = getelementptr inbounds i8, i8* %186, i64 %187, !dbg !5260
  call void @llvm.memcpy.p0i8.p0i8.i64(i8* nonnull align 1 dereferenceable(7) %188, i8* nonnull align 1 dereferenceable(7) getelementptr inbounds ([8 x i8], [8 x i8]* @.str.29, i64 0, i64 0), i64 7, i1 false), !dbg !5261
  %189 = load i32, i32* %8, align 8, !dbg !5262, !tbaa !3933
  %190 = add nsw i32 %189, 7, !dbg !5262
  store i32 %190, i32* %8, align 8, !dbg !5262, !tbaa !3933
  br label %391, !dbg !5263

191:                                              ; preds = %180
  invoke void @_ZN11StringAccum11hard_appendEPKci(%class.StringAccum* nonnull %4, i8* nonnull getelementptr inbounds ([8 x i8], [8 x i8]* @.str.29, i64 0, i64 0), i32 7)
          to label %391 unwind label %11, !dbg !5264

192:                                              ; preds = %155
  call void @llvm.dbg.value(metadata %class.StringAccum* %4, metadata !3939, metadata !DIExpression()), !dbg !5265
  call void @llvm.dbg.value(metadata i8* getelementptr inbounds ([6 x i8], [6 x i8]* @.str.30, i64 0, i64 0), metadata !3944, metadata !DIExpression()), !dbg !5265
  call void @llvm.dbg.value(metadata %class.StringAccum* %4, metadata !3947, metadata !DIExpression()), !dbg !5267
  call void @llvm.dbg.value(metadata i8* getelementptr inbounds ([6 x i8], [6 x i8]* @.str.30, i64 0, i64 0), metadata !3950, metadata !DIExpression()), !dbg !5267
  call void @llvm.dbg.value(metadata %class.StringAccum* %4, metadata !3953, metadata !DIExpression()), !dbg !5269
  call void @llvm.dbg.value(metadata i8* getelementptr inbounds ([6 x i8], [6 x i8]* @.str.30, i64 0, i64 0), metadata !3956, metadata !DIExpression()), !dbg !5269
  call void @llvm.dbg.value(metadata i32 5, metadata !3957, metadata !DIExpression()), !dbg !5269
  %193 = load i32, i32* %8, align 8, !dbg !5271, !tbaa !3933
  %194 = add nsw i32 %193, 5, !dbg !5272
  %195 = load i32, i32* %9, align 4, !dbg !5273, !tbaa !3964
  %196 = icmp sgt i32 %194, %195, !dbg !5274
  br i1 %196, label %203, label %197, !dbg !5275

197:                                              ; preds = %192
  %198 = load i8*, i8** %7, align 8, !dbg !5276, !tbaa !3969
  %199 = sext i32 %193 to i64, !dbg !5277
  %200 = getelementptr inbounds i8, i8* %198, i64 %199, !dbg !5277
  call void @llvm.memcpy.p0i8.p0i8.i64(i8* nonnull align 1 dereferenceable(5) %200, i8* nonnull align 1 dereferenceable(5) getelementptr inbounds ([6 x i8], [6 x i8]* @.str.30, i64 0, i64 0), i64 5, i1 false), !dbg !5278
  %201 = load i32, i32* %8, align 8, !dbg !5279, !tbaa !3933
  %202 = add nsw i32 %201, 5, !dbg !5279
  store i32 %202, i32* %8, align 8, !dbg !5279, !tbaa !3933
  br label %391, !dbg !5280

203:                                              ; preds = %192
  invoke void @_ZN11StringAccum11hard_appendEPKci(%class.StringAccum* nonnull %4, i8* nonnull getelementptr inbounds ([6 x i8], [6 x i8]* @.str.30, i64 0, i64 0), i32 5)
          to label %391 unwind label %11, !dbg !5281

204:                                              ; preds = %155
  call void @llvm.dbg.value(metadata %class.StringAccum* %4, metadata !3939, metadata !DIExpression()), !dbg !5282
  call void @llvm.dbg.value(metadata i8* getelementptr inbounds ([7 x i8], [7 x i8]* @.str.31, i64 0, i64 0), metadata !3944, metadata !DIExpression()), !dbg !5282
  call void @llvm.dbg.value(metadata %class.StringAccum* %4, metadata !3947, metadata !DIExpression()), !dbg !5284
  call void @llvm.dbg.value(metadata i8* getelementptr inbounds ([7 x i8], [7 x i8]* @.str.31, i64 0, i64 0), metadata !3950, metadata !DIExpression()), !dbg !5284
  call void @llvm.dbg.value(metadata %class.StringAccum* %4, metadata !3953, metadata !DIExpression()), !dbg !5286
  call void @llvm.dbg.value(metadata i8* getelementptr inbounds ([7 x i8], [7 x i8]* @.str.31, i64 0, i64 0), metadata !3956, metadata !DIExpression()), !dbg !5286
  call void @llvm.dbg.value(metadata i32 6, metadata !3957, metadata !DIExpression()), !dbg !5286
  %205 = load i32, i32* %8, align 8, !dbg !5288, !tbaa !3933
  %206 = add nsw i32 %205, 6, !dbg !5289
  %207 = load i32, i32* %9, align 4, !dbg !5290, !tbaa !3964
  %208 = icmp sgt i32 %206, %207, !dbg !5291
  br i1 %208, label %215, label %209, !dbg !5292

209:                                              ; preds = %204
  %210 = load i8*, i8** %7, align 8, !dbg !5293, !tbaa !3969
  %211 = sext i32 %205 to i64, !dbg !5294
  %212 = getelementptr inbounds i8, i8* %210, i64 %211, !dbg !5294
  call void @llvm.memcpy.p0i8.p0i8.i64(i8* nonnull align 1 dereferenceable(6) %212, i8* nonnull align 1 dereferenceable(6) getelementptr inbounds ([7 x i8], [7 x i8]* @.str.31, i64 0, i64 0), i64 6, i1 false), !dbg !5295
  %213 = load i32, i32* %8, align 8, !dbg !5296, !tbaa !3933
  %214 = add nsw i32 %213, 6, !dbg !5296
  store i32 %214, i32* %8, align 8, !dbg !5296, !tbaa !3933
  br label %391, !dbg !5297

215:                                              ; preds = %204
  invoke void @_ZN11StringAccum11hard_appendEPKci(%class.StringAccum* nonnull %4, i8* nonnull getelementptr inbounds ([7 x i8], [7 x i8]* @.str.31, i64 0, i64 0), i32 6)
          to label %391 unwind label %11, !dbg !5298

216:                                              ; preds = %155
  call void @llvm.dbg.value(metadata %class.StringAccum* %4, metadata !3939, metadata !DIExpression()), !dbg !5299
  call void @llvm.dbg.value(metadata i8* getelementptr inbounds ([8 x i8], [8 x i8]* @.str.32, i64 0, i64 0), metadata !3944, metadata !DIExpression()), !dbg !5299
  call void @llvm.dbg.value(metadata %class.StringAccum* %4, metadata !3947, metadata !DIExpression()), !dbg !5301
  call void @llvm.dbg.value(metadata i8* getelementptr inbounds ([8 x i8], [8 x i8]* @.str.32, i64 0, i64 0), metadata !3950, metadata !DIExpression()), !dbg !5301
  call void @llvm.dbg.value(metadata %class.StringAccum* %4, metadata !3953, metadata !DIExpression()), !dbg !5303
  call void @llvm.dbg.value(metadata i8* getelementptr inbounds ([8 x i8], [8 x i8]* @.str.32, i64 0, i64 0), metadata !3956, metadata !DIExpression()), !dbg !5303
  call void @llvm.dbg.value(metadata i32 7, metadata !3957, metadata !DIExpression()), !dbg !5303
  %217 = load i32, i32* %8, align 8, !dbg !5305, !tbaa !3933
  %218 = add nsw i32 %217, 7, !dbg !5306
  %219 = load i32, i32* %9, align 4, !dbg !5307, !tbaa !3964
  %220 = icmp sgt i32 %218, %219, !dbg !5308
  br i1 %220, label %227, label %221, !dbg !5309

221:                                              ; preds = %216
  %222 = load i8*, i8** %7, align 8, !dbg !5310, !tbaa !3969
  %223 = sext i32 %217 to i64, !dbg !5311
  %224 = getelementptr inbounds i8, i8* %222, i64 %223, !dbg !5311
  call void @llvm.memcpy.p0i8.p0i8.i64(i8* nonnull align 1 dereferenceable(7) %224, i8* nonnull align 1 dereferenceable(7) getelementptr inbounds ([8 x i8], [8 x i8]* @.str.32, i64 0, i64 0), i64 7, i1 false), !dbg !5312
  %225 = load i32, i32* %8, align 8, !dbg !5313, !tbaa !3933
  %226 = add nsw i32 %225, 7, !dbg !5313
  store i32 %226, i32* %8, align 8, !dbg !5313, !tbaa !3933
  br label %391, !dbg !5314

227:                                              ; preds = %216
  invoke void @_ZN11StringAccum11hard_appendEPKci(%class.StringAccum* nonnull %4, i8* nonnull getelementptr inbounds ([8 x i8], [8 x i8]* @.str.32, i64 0, i64 0), i32 7)
          to label %391 unwind label %11, !dbg !5315

228:                                              ; preds = %155
  call void @llvm.dbg.value(metadata %class.StringAccum* %4, metadata !3939, metadata !DIExpression()), !dbg !5316
  call void @llvm.dbg.value(metadata i8* getelementptr inbounds ([7 x i8], [7 x i8]* @.str.33, i64 0, i64 0), metadata !3944, metadata !DIExpression()), !dbg !5316
  call void @llvm.dbg.value(metadata %class.StringAccum* %4, metadata !3947, metadata !DIExpression()), !dbg !5318
  call void @llvm.dbg.value(metadata i8* getelementptr inbounds ([7 x i8], [7 x i8]* @.str.33, i64 0, i64 0), metadata !3950, metadata !DIExpression()), !dbg !5318
  call void @llvm.dbg.value(metadata %class.StringAccum* %4, metadata !3953, metadata !DIExpression()), !dbg !5320
  call void @llvm.dbg.value(metadata i8* getelementptr inbounds ([7 x i8], [7 x i8]* @.str.33, i64 0, i64 0), metadata !3956, metadata !DIExpression()), !dbg !5320
  call void @llvm.dbg.value(metadata i32 6, metadata !3957, metadata !DIExpression()), !dbg !5320
  %229 = load i32, i32* %8, align 8, !dbg !5322, !tbaa !3933
  %230 = add nsw i32 %229, 6, !dbg !5323
  %231 = load i32, i32* %9, align 4, !dbg !5324, !tbaa !3964
  %232 = icmp sgt i32 %230, %231, !dbg !5325
  br i1 %232, label %239, label %233, !dbg !5326

233:                                              ; preds = %228
  %234 = load i8*, i8** %7, align 8, !dbg !5327, !tbaa !3969
  %235 = sext i32 %229 to i64, !dbg !5328
  %236 = getelementptr inbounds i8, i8* %234, i64 %235, !dbg !5328
  call void @llvm.memcpy.p0i8.p0i8.i64(i8* nonnull align 1 dereferenceable(6) %236, i8* nonnull align 1 dereferenceable(6) getelementptr inbounds ([7 x i8], [7 x i8]* @.str.33, i64 0, i64 0), i64 6, i1 false), !dbg !5329
  %237 = load i32, i32* %8, align 8, !dbg !5330, !tbaa !3933
  %238 = add nsw i32 %237, 6, !dbg !5330
  store i32 %238, i32* %8, align 8, !dbg !5330, !tbaa !3933
  br label %391, !dbg !5331

239:                                              ; preds = %228
  invoke void @_ZN11StringAccum11hard_appendEPKci(%class.StringAccum* nonnull %4, i8* nonnull getelementptr inbounds ([7 x i8], [7 x i8]* @.str.33, i64 0, i64 0), i32 6)
          to label %391 unwind label %11, !dbg !5332

240:                                              ; preds = %155
  call void @llvm.dbg.value(metadata %class.StringAccum* %4, metadata !3939, metadata !DIExpression()), !dbg !5333
  call void @llvm.dbg.value(metadata i8* getelementptr inbounds ([8 x i8], [8 x i8]* @.str.34, i64 0, i64 0), metadata !3944, metadata !DIExpression()), !dbg !5333
  call void @llvm.dbg.value(metadata %class.StringAccum* %4, metadata !3947, metadata !DIExpression()), !dbg !5335
  call void @llvm.dbg.value(metadata i8* getelementptr inbounds ([8 x i8], [8 x i8]* @.str.34, i64 0, i64 0), metadata !3950, metadata !DIExpression()), !dbg !5335
  call void @llvm.dbg.value(metadata %class.StringAccum* %4, metadata !3953, metadata !DIExpression()), !dbg !5337
  call void @llvm.dbg.value(metadata i8* getelementptr inbounds ([8 x i8], [8 x i8]* @.str.34, i64 0, i64 0), metadata !3956, metadata !DIExpression()), !dbg !5337
  call void @llvm.dbg.value(metadata i32 7, metadata !3957, metadata !DIExpression()), !dbg !5337
  %241 = load i32, i32* %8, align 8, !dbg !5339, !tbaa !3933
  %242 = add nsw i32 %241, 7, !dbg !5340
  %243 = load i32, i32* %9, align 4, !dbg !5341, !tbaa !3964
  %244 = icmp sgt i32 %242, %243, !dbg !5342
  br i1 %244, label %251, label %245, !dbg !5343

245:                                              ; preds = %240
  %246 = load i8*, i8** %7, align 8, !dbg !5344, !tbaa !3969
  %247 = sext i32 %241 to i64, !dbg !5345
  %248 = getelementptr inbounds i8, i8* %246, i64 %247, !dbg !5345
  call void @llvm.memcpy.p0i8.p0i8.i64(i8* nonnull align 1 dereferenceable(7) %248, i8* nonnull align 1 dereferenceable(7) getelementptr inbounds ([8 x i8], [8 x i8]* @.str.34, i64 0, i64 0), i64 7, i1 false), !dbg !5346
  %249 = load i32, i32* %8, align 8, !dbg !5347, !tbaa !3933
  %250 = add nsw i32 %249, 7, !dbg !5347
  store i32 %250, i32* %8, align 8, !dbg !5347, !tbaa !3933
  br label %391, !dbg !5348

251:                                              ; preds = %240
  invoke void @_ZN11StringAccum11hard_appendEPKci(%class.StringAccum* nonnull %4, i8* nonnull getelementptr inbounds ([8 x i8], [8 x i8]* @.str.34, i64 0, i64 0), i32 7)
          to label %391 unwind label %11, !dbg !5349

252:                                              ; preds = %155
  call void @llvm.dbg.value(metadata %class.StringAccum* %4, metadata !3939, metadata !DIExpression()), !dbg !5350
  call void @llvm.dbg.value(metadata i8* getelementptr inbounds ([10 x i8], [10 x i8]* @.str.35, i64 0, i64 0), metadata !3944, metadata !DIExpression()), !dbg !5350
  call void @llvm.dbg.value(metadata %class.StringAccum* %4, metadata !3947, metadata !DIExpression()), !dbg !5352
  call void @llvm.dbg.value(metadata i8* getelementptr inbounds ([10 x i8], [10 x i8]* @.str.35, i64 0, i64 0), metadata !3950, metadata !DIExpression()), !dbg !5352
  call void @llvm.dbg.value(metadata %class.StringAccum* %4, metadata !3953, metadata !DIExpression()), !dbg !5354
  call void @llvm.dbg.value(metadata i8* getelementptr inbounds ([10 x i8], [10 x i8]* @.str.35, i64 0, i64 0), metadata !3956, metadata !DIExpression()), !dbg !5354
  call void @llvm.dbg.value(metadata i32 9, metadata !3957, metadata !DIExpression()), !dbg !5354
  %253 = load i32, i32* %8, align 8, !dbg !5356, !tbaa !3933
  %254 = add nsw i32 %253, 9, !dbg !5357
  %255 = load i32, i32* %9, align 4, !dbg !5358, !tbaa !3964
  %256 = icmp sgt i32 %254, %255, !dbg !5359
  br i1 %256, label %263, label %257, !dbg !5360

257:                                              ; preds = %252
  %258 = load i8*, i8** %7, align 8, !dbg !5361, !tbaa !3969
  %259 = sext i32 %253 to i64, !dbg !5362
  %260 = getelementptr inbounds i8, i8* %258, i64 %259, !dbg !5362
  call void @llvm.memcpy.p0i8.p0i8.i64(i8* nonnull align 1 dereferenceable(9) %260, i8* nonnull align 1 dereferenceable(9) getelementptr inbounds ([10 x i8], [10 x i8]* @.str.35, i64 0, i64 0), i64 9, i1 false), !dbg !5363
  %261 = load i32, i32* %8, align 8, !dbg !5364, !tbaa !3933
  %262 = add nsw i32 %261, 9, !dbg !5364
  store i32 %262, i32* %8, align 8, !dbg !5364, !tbaa !3933
  br label %391, !dbg !5365

263:                                              ; preds = %252
  invoke void @_ZN11StringAccum11hard_appendEPKci(%class.StringAccum* nonnull %4, i8* nonnull getelementptr inbounds ([10 x i8], [10 x i8]* @.str.35, i64 0, i64 0), i32 9)
          to label %391 unwind label %11, !dbg !5366

264:                                              ; preds = %155
  %265 = and i32 %2, 1071644672, !dbg !5367
  %266 = icmp eq i32 %265, 0, !dbg !5369
  br i1 %266, label %337, label %267, !dbg !5370

267:                                              ; preds = %264
  %268 = bitcast %class.String* %5 to i8*, !dbg !5371
  call void @llvm.lifetime.start.p0i8(i64 24, i8* nonnull %268) #17, !dbg !5371
  %269 = lshr exact i32 %265, 21, !dbg !5372
  invoke void @_ZN8IPFilter9Primitive20unparse_transp_protoEi(%class.String* nonnull sret %5, i32 %269)
          to label %270 unwind label %309, !dbg !5371

270:                                              ; preds = %267
  call void @llvm.dbg.value(metadata %class.StringAccum* %4, metadata !3900, metadata !DIExpression()), !dbg !5373
  call void @llvm.dbg.value(metadata %class.String* %5, metadata !3901, metadata !DIExpression()), !dbg !5373
  call void @llvm.dbg.value(metadata %class.String* %5, metadata !3894, metadata !DIExpression()), !dbg !5375
  %271 = getelementptr inbounds %class.String, %class.String* %5, i64 0, i32 0, i32 0, !dbg !5377
  %272 = load i8*, i8** %271, align 8, !dbg !5377, !tbaa !4006
  call void @llvm.dbg.value(metadata %class.String* %5, metadata !3906, metadata !DIExpression()), !dbg !5378
  %273 = getelementptr inbounds %class.String, %class.String* %5, i64 0, i32 0, i32 1, !dbg !5380
  %274 = load i32, i32* %273, align 8, !dbg !5380, !tbaa !4010
  call void @llvm.dbg.value(metadata %class.StringAccum* %4, metadata !3953, metadata !DIExpression()), !dbg !5381
  call void @llvm.dbg.value(metadata i8* %272, metadata !3956, metadata !DIExpression()), !dbg !5381
  call void @llvm.dbg.value(metadata i32 %274, metadata !3957, metadata !DIExpression()), !dbg !5381
  %275 = icmp sgt i32 %274, -1, !dbg !5383
  br i1 %275, label %277, label %276, !dbg !5383

276:                                              ; preds = %270
  call void @__assert_fail(i8* getelementptr inbounds ([9 x i8], [9 x i8]* @.str.115, i64 0, i64 0), i8* getelementptr inbounds ([31 x i8], [31 x i8]* @.str.116, i64 0, i64 0), i32 433, i8* getelementptr inbounds ([44 x i8], [44 x i8]* @__PRETTY_FUNCTION__._ZN11StringAccum6appendEPKci, i64 0, i64 0)) #18, !dbg !5383
  unreachable, !dbg !5383

277:                                              ; preds = %270
  %278 = load i32, i32* %8, align 8, !dbg !5384, !tbaa !3933
  %279 = add nsw i32 %278, %274, !dbg !5385
  %280 = load i32, i32* %9, align 4, !dbg !5386, !tbaa !3964
  %281 = icmp sgt i32 %279, %280, !dbg !5387
  br i1 %281, label %289, label %282, !dbg !5388

282:                                              ; preds = %277
  %283 = load i8*, i8** %7, align 8, !dbg !5389, !tbaa !3969
  %284 = sext i32 %278 to i64, !dbg !5390
  %285 = getelementptr inbounds i8, i8* %283, i64 %284, !dbg !5390
  %286 = zext i32 %274 to i64, !dbg !5391
  call void @llvm.memcpy.p0i8.p0i8.i64(i8* align 1 %285, i8* align 1 %272, i64 %286, i1 false), !dbg !5392
  %287 = load i32, i32* %8, align 8, !dbg !5393, !tbaa !3933
  %288 = add nsw i32 %287, %274, !dbg !5393
  store i32 %288, i32* %8, align 8, !dbg !5393, !tbaa !3933
  br label %290, !dbg !5394

289:                                              ; preds = %277
  invoke void @_ZN11StringAccum11hard_appendEPKci(%class.StringAccum* nonnull %4, i8* %272, i32 %274)
          to label %290 unwind label %313, !dbg !5395

290:                                              ; preds = %282, %289
  call void @llvm.dbg.value(metadata %class.String* %5, metadata !3917, metadata !DIExpression()) #17, !dbg !5396
  call void @llvm.dbg.value(metadata %class.String* %5, metadata !3912, metadata !DIExpression()) #17, !dbg !5398
  %291 = getelementptr inbounds %class.String, %class.String* %5, i64 0, i32 0, i32 2, !dbg !5400
  %292 = load %"struct.String::memo_t"*, %"struct.String::memo_t"** %291, align 8, !dbg !5400, !tbaa !4043
  %293 = icmp eq %"struct.String::memo_t"* %292, null, !dbg !5401
  br i1 %293, label %308, label %294, !dbg !5402

294:                                              ; preds = %290
  %295 = getelementptr inbounds %"struct.String::memo_t", %"struct.String::memo_t"* %292, i64 0, i32 0, !dbg !5403
  %296 = load volatile i32, i32* %295, align 4, !dbg !5403, !tbaa !4048
  %297 = icmp eq i32 %296, 0, !dbg !5403
  br i1 %297, label %298, label %299, !dbg !5403

298:                                              ; preds = %294
  call void @__assert_fail(i8* getelementptr inbounds ([18 x i8], [18 x i8]* @.str.118, i64 0, i64 0), i8* getelementptr inbounds ([29 x i8], [29 x i8]* @.str.119, i64 0, i64 0), i32 273, i8* getelementptr inbounds ([27 x i8], [27 x i8]* @__PRETTY_FUNCTION__._ZNK6String5derefEv, i64 0, i64 0)) #18, !dbg !5403
  unreachable, !dbg !5403

299:                                              ; preds = %294
  call void @llvm.dbg.value(metadata i32* %295, metadata !4050, metadata !DIExpression()) #17, !dbg !5404
  %300 = load volatile i32, i32* %295, align 4, !dbg !5406, !tbaa !3792
  %301 = add i32 %300, -1, !dbg !5406
  store volatile i32 %301, i32* %295, align 4, !dbg !5406, !tbaa !3792
  %302 = icmp eq i32 %301, 0, !dbg !5407
  br i1 %302, label %303, label %304, !dbg !5408

303:                                              ; preds = %299
  invoke void @_ZN6String11delete_memoEPNS_6memo_tE(%"struct.String::memo_t"* nonnull %292)
          to label %304 unwind label %305, !dbg !5409

304:                                              ; preds = %303, %299
  store %"struct.String::memo_t"* null, %"struct.String::memo_t"** %291, align 8, !dbg !5410, !tbaa !4043
  br label %308, !dbg !5411

305:                                              ; preds = %303
  %306 = landingpad { i8*, i32 }
          catch i8* null, !dbg !5412
  %307 = extractvalue { i8*, i32 } %306, 0, !dbg !5412
  call void @__clang_call_terminate(i8* %307) #18, !dbg !5412
  unreachable, !dbg !5412

308:                                              ; preds = %290, %304
  call void @llvm.lifetime.end.p0i8(i64 24, i8* nonnull %268) #17, !dbg !5413
  br label %350, !dbg !5413

309:                                              ; preds = %267
  %310 = landingpad { i8*, i32 }
          cleanup, !dbg !5414
  %311 = extractvalue { i8*, i32 } %310, 0, !dbg !5414
  %312 = extractvalue { i8*, i32 } %310, 1, !dbg !5414
  br label %334, !dbg !5414

313:                                              ; preds = %289
  %314 = landingpad { i8*, i32 }
          cleanup, !dbg !5414
  %315 = extractvalue { i8*, i32 } %314, 0, !dbg !5414
  %316 = extractvalue { i8*, i32 } %314, 1, !dbg !5414
  call void @llvm.dbg.value(metadata %class.String* %5, metadata !3917, metadata !DIExpression()) #17, !dbg !5415
  call void @llvm.dbg.value(metadata %class.String* %5, metadata !3912, metadata !DIExpression()) #17, !dbg !5417
  %317 = getelementptr inbounds %class.String, %class.String* %5, i64 0, i32 0, i32 2, !dbg !5419
  %318 = load %"struct.String::memo_t"*, %"struct.String::memo_t"** %317, align 8, !dbg !5419, !tbaa !4043
  %319 = icmp eq %"struct.String::memo_t"* %318, null, !dbg !5420
  br i1 %319, label %334, label %320, !dbg !5421

320:                                              ; preds = %313
  %321 = getelementptr inbounds %"struct.String::memo_t", %"struct.String::memo_t"* %318, i64 0, i32 0, !dbg !5422
  %322 = load volatile i32, i32* %321, align 4, !dbg !5422, !tbaa !4048
  %323 = icmp eq i32 %322, 0, !dbg !5422
  br i1 %323, label %324, label %325, !dbg !5422

324:                                              ; preds = %320
  call void @__assert_fail(i8* getelementptr inbounds ([18 x i8], [18 x i8]* @.str.118, i64 0, i64 0), i8* getelementptr inbounds ([29 x i8], [29 x i8]* @.str.119, i64 0, i64 0), i32 273, i8* getelementptr inbounds ([27 x i8], [27 x i8]* @__PRETTY_FUNCTION__._ZNK6String5derefEv, i64 0, i64 0)) #18, !dbg !5422
  unreachable, !dbg !5422

325:                                              ; preds = %320
  call void @llvm.dbg.value(metadata i32* %321, metadata !4050, metadata !DIExpression()) #17, !dbg !5423
  %326 = load volatile i32, i32* %321, align 4, !dbg !5425, !tbaa !3792
  %327 = add i32 %326, -1, !dbg !5425
  store volatile i32 %327, i32* %321, align 4, !dbg !5425, !tbaa !3792
  %328 = icmp eq i32 %327, 0, !dbg !5426
  br i1 %328, label %329, label %330, !dbg !5427

329:                                              ; preds = %325
  invoke void @_ZN6String11delete_memoEPNS_6memo_tE(%"struct.String::memo_t"* nonnull %318)
          to label %330 unwind label %331, !dbg !5428

330:                                              ; preds = %329, %325
  store %"struct.String::memo_t"* null, %"struct.String::memo_t"** %317, align 8, !dbg !5429, !tbaa !4043
  br label %334, !dbg !5430

331:                                              ; preds = %329
  %332 = landingpad { i8*, i32 }
          catch i8* null, !dbg !5431
  %333 = extractvalue { i8*, i32 } %332, 0, !dbg !5431
  call void @__clang_call_terminate(i8* %333) #18, !dbg !5431
  unreachable, !dbg !5431

334:                                              ; preds = %330, %313, %309
  %335 = phi i8* [ %311, %309 ], [ %315, %313 ], [ %315, %330 ], !dbg !5414
  %336 = phi i32 [ %312, %309 ], [ %316, %313 ], [ %316, %330 ], !dbg !5414
  call void @llvm.lifetime.end.p0i8(i64 24, i8* nonnull %268) #17, !dbg !5413
  br label %399, !dbg !5413

337:                                              ; preds = %264
  call void @llvm.dbg.value(metadata %class.StringAccum* %4, metadata !3939, metadata !DIExpression()), !dbg !5432
  call void @llvm.dbg.value(metadata i8* getelementptr inbounds ([3 x i8], [3 x i8]* @.str.36, i64 0, i64 0), metadata !3944, metadata !DIExpression()), !dbg !5432
  call void @llvm.dbg.value(metadata %class.StringAccum* %4, metadata !3947, metadata !DIExpression()), !dbg !5434
  call void @llvm.dbg.value(metadata i8* getelementptr inbounds ([3 x i8], [3 x i8]* @.str.36, i64 0, i64 0), metadata !3950, metadata !DIExpression()), !dbg !5434
  call void @llvm.dbg.value(metadata %class.StringAccum* %4, metadata !3953, metadata !DIExpression()), !dbg !5436
  call void @llvm.dbg.value(metadata i8* getelementptr inbounds ([3 x i8], [3 x i8]* @.str.36, i64 0, i64 0), metadata !3956, metadata !DIExpression()), !dbg !5436
  call void @llvm.dbg.value(metadata i32 2, metadata !3957, metadata !DIExpression()), !dbg !5436
  %338 = load i32, i32* %8, align 8, !dbg !5438, !tbaa !3933
  %339 = add nsw i32 %338, 2, !dbg !5439
  %340 = load i32, i32* %9, align 4, !dbg !5440, !tbaa !3964
  %341 = icmp sgt i32 %339, %340, !dbg !5441
  br i1 %341, label %349, label %342, !dbg !5442

342:                                              ; preds = %337
  %343 = load i8*, i8** %7, align 8, !dbg !5443, !tbaa !3969
  %344 = sext i32 %338 to i64, !dbg !5444
  %345 = getelementptr inbounds i8, i8* %343, i64 %344, !dbg !5444
  %346 = bitcast i8* %345 to i16*, !dbg !5445
  store i16 28777, i16* %346, align 1, !dbg !5445
  %347 = load i32, i32* %8, align 8, !dbg !5446, !tbaa !3933
  %348 = add nsw i32 %347, 2, !dbg !5446
  store i32 %348, i32* %8, align 8, !dbg !5446, !tbaa !3933
  br label %350, !dbg !5447

349:                                              ; preds = %337
  invoke void @_ZN11StringAccum11hard_appendEPKci(%class.StringAccum* nonnull %4, i8* nonnull getelementptr inbounds ([3 x i8], [3 x i8]* @.str.36, i64 0, i64 0), i32 2)
          to label %350 unwind label %11, !dbg !5448

350:                                              ; preds = %342, %349, %308
  call void @llvm.dbg.value(metadata %class.StringAccum* %4, metadata !3939, metadata !DIExpression()), !dbg !5449
  call void @llvm.dbg.value(metadata i8* getelementptr inbounds ([6 x i8], [6 x i8]* @.str.37, i64 0, i64 0), metadata !3944, metadata !DIExpression()), !dbg !5449
  call void @llvm.dbg.value(metadata %class.StringAccum* %4, metadata !3947, metadata !DIExpression()), !dbg !5451
  call void @llvm.dbg.value(metadata i8* getelementptr inbounds ([6 x i8], [6 x i8]* @.str.37, i64 0, i64 0), metadata !3950, metadata !DIExpression()), !dbg !5451
  call void @llvm.dbg.value(metadata %class.StringAccum* %4, metadata !3953, metadata !DIExpression()), !dbg !5453
  call void @llvm.dbg.value(metadata i8* getelementptr inbounds ([6 x i8], [6 x i8]* @.str.37, i64 0, i64 0), metadata !3956, metadata !DIExpression()), !dbg !5453
  call void @llvm.dbg.value(metadata i32 5, metadata !3957, metadata !DIExpression()), !dbg !5453
  %351 = load i32, i32* %8, align 8, !dbg !5455, !tbaa !3933
  %352 = add nsw i32 %351, 5, !dbg !5456
  %353 = load i32, i32* %9, align 4, !dbg !5457, !tbaa !3964
  %354 = icmp sgt i32 %352, %353, !dbg !5458
  br i1 %354, label %361, label %355, !dbg !5459

355:                                              ; preds = %350
  %356 = load i8*, i8** %7, align 8, !dbg !5460, !tbaa !3969
  %357 = sext i32 %351 to i64, !dbg !5461
  %358 = getelementptr inbounds i8, i8* %356, i64 %357, !dbg !5461
  call void @llvm.memcpy.p0i8.p0i8.i64(i8* nonnull align 1 dereferenceable(5) %358, i8* nonnull align 1 dereferenceable(5) getelementptr inbounds ([6 x i8], [6 x i8]* @.str.37, i64 0, i64 0), i64 5, i1 false), !dbg !5462
  %359 = load i32, i32* %8, align 8, !dbg !5463, !tbaa !3933
  %360 = add nsw i32 %359, 5, !dbg !5463
  store i32 %360, i32* %8, align 8, !dbg !5463, !tbaa !3933
  br label %391, !dbg !5464

361:                                              ; preds = %350
  invoke void @_ZN11StringAccum11hard_appendEPKci(%class.StringAccum* nonnull %4, i8* nonnull getelementptr inbounds ([6 x i8], [6 x i8]* @.str.37, i64 0, i64 0), i32 5)
          to label %391 unwind label %11, !dbg !5465

362:                                              ; preds = %152
  call void @llvm.dbg.value(metadata %class.StringAccum* %4, metadata !3939, metadata !DIExpression()), !dbg !5466
  call void @llvm.dbg.value(metadata i8* getelementptr inbounds ([15 x i8], [15 x i8]* @.str.38, i64 0, i64 0), metadata !3944, metadata !DIExpression()), !dbg !5466
  call void @llvm.dbg.value(metadata %class.StringAccum* %4, metadata !3947, metadata !DIExpression()), !dbg !5468
  call void @llvm.dbg.value(metadata i8* getelementptr inbounds ([15 x i8], [15 x i8]* @.str.38, i64 0, i64 0), metadata !3950, metadata !DIExpression()), !dbg !5468
  call void @llvm.dbg.value(metadata %class.StringAccum* %4, metadata !3953, metadata !DIExpression()), !dbg !5470
  call void @llvm.dbg.value(metadata i8* getelementptr inbounds ([15 x i8], [15 x i8]* @.str.38, i64 0, i64 0), metadata !3956, metadata !DIExpression()), !dbg !5470
  call void @llvm.dbg.value(metadata i32 14, metadata !3957, metadata !DIExpression()), !dbg !5470
  %363 = load i32, i32* %8, align 8, !dbg !5472, !tbaa !3933
  %364 = add nsw i32 %363, 14, !dbg !5473
  %365 = load i32, i32* %9, align 4, !dbg !5474, !tbaa !3964
  %366 = icmp sgt i32 %364, %365, !dbg !5475
  br i1 %366, label %373, label %367, !dbg !5476

367:                                              ; preds = %362
  %368 = load i8*, i8** %7, align 8, !dbg !5477, !tbaa !3969
  %369 = sext i32 %363 to i64, !dbg !5478
  %370 = getelementptr inbounds i8, i8* %368, i64 %369, !dbg !5478
  call void @llvm.memcpy.p0i8.p0i8.i64(i8* nonnull align 1 dereferenceable(14) %370, i8* nonnull align 1 dereferenceable(14) getelementptr inbounds ([15 x i8], [15 x i8]* @.str.38, i64 0, i64 0), i64 14, i1 false), !dbg !5479
  %371 = load i32, i32* %8, align 8, !dbg !5480, !tbaa !3933
  %372 = add nsw i32 %371, 14, !dbg !5480
  store i32 %372, i32* %8, align 8, !dbg !5480, !tbaa !3933
  br label %374, !dbg !5481

373:                                              ; preds = %362
  invoke void @_ZN11StringAccum11hard_appendEPKci(%class.StringAccum* nonnull %4, i8* nonnull getelementptr inbounds ([15 x i8], [15 x i8]* @.str.38, i64 0, i64 0), i32 14)
          to label %374 unwind label %11, !dbg !5482

374:                                              ; preds = %367, %373
  call void @llvm.dbg.value(metadata %class.StringAccum* %4, metadata !5483, metadata !DIExpression()), !dbg !5489
  call void @llvm.dbg.value(metadata i32 %2, metadata !5488, metadata !DIExpression()), !dbg !5489
  %375 = sext i32 %2 to i64, !dbg !5491
  %376 = invoke dereferenceable(16) %class.StringAccum* @_ZlsR11StringAccuml(%class.StringAccum* nonnull dereferenceable(16) %4, i64 %375)
          to label %377 unwind label %11, !dbg !5492

377:                                              ; preds = %374
  call void @llvm.dbg.value(metadata %class.StringAccum* %376, metadata !3939, metadata !DIExpression()), !dbg !5493
  call void @llvm.dbg.value(metadata i8* getelementptr inbounds ([2 x i8], [2 x i8]* @.str.39, i64 0, i64 0), metadata !3944, metadata !DIExpression()), !dbg !5493
  call void @llvm.dbg.value(metadata %class.StringAccum* %376, metadata !3947, metadata !DIExpression()), !dbg !5495
  call void @llvm.dbg.value(metadata i8* getelementptr inbounds ([2 x i8], [2 x i8]* @.str.39, i64 0, i64 0), metadata !3950, metadata !DIExpression()), !dbg !5495
  call void @llvm.dbg.value(metadata %class.StringAccum* %376, metadata !3953, metadata !DIExpression()), !dbg !5497
  call void @llvm.dbg.value(metadata i8* getelementptr inbounds ([2 x i8], [2 x i8]* @.str.39, i64 0, i64 0), metadata !3956, metadata !DIExpression()), !dbg !5497
  call void @llvm.dbg.value(metadata i32 1, metadata !3957, metadata !DIExpression()), !dbg !5497
  %378 = getelementptr inbounds %class.StringAccum, %class.StringAccum* %376, i64 0, i32 0, i32 1, !dbg !5499
  %379 = load i32, i32* %378, align 8, !dbg !5499, !tbaa !3933
  %380 = getelementptr inbounds %class.StringAccum, %class.StringAccum* %376, i64 0, i32 0, i32 2, !dbg !5500
  %381 = load i32, i32* %380, align 4, !dbg !5500, !tbaa !3964
  %382 = icmp slt i32 %379, %381, !dbg !5501
  br i1 %382, label %383, label %390, !dbg !5502

383:                                              ; preds = %377
  %384 = getelementptr inbounds %class.StringAccum, %class.StringAccum* %376, i64 0, i32 0, i32 0, !dbg !5503
  %385 = load i8*, i8** %384, align 8, !dbg !5503, !tbaa !3969
  %386 = sext i32 %379 to i64, !dbg !5504
  %387 = getelementptr inbounds i8, i8* %385, i64 %386, !dbg !5504
  store i8 62, i8* %387, align 1, !dbg !5505
  %388 = load i32, i32* %378, align 8, !dbg !5506, !tbaa !3933
  %389 = add nsw i32 %388, 1, !dbg !5506
  store i32 %389, i32* %378, align 8, !dbg !5506, !tbaa !3933
  br label %391, !dbg !5507

390:                                              ; preds = %377
  invoke void @_ZN11StringAccum11hard_appendEPKci(%class.StringAccum* nonnull %376, i8* nonnull getelementptr inbounds ([2 x i8], [2 x i8]* @.str.39, i64 0, i64 0), i32 1)
          to label %391 unwind label %11, !dbg !5508

391:                                              ; preds = %383, %390, %355, %361, %257, %263, %245, %251, %233, %239, %221, %227, %209, %215, %197, %203, %185, %191, %173, %179, %161, %167, %145, %151, %133, %139, %121, %127, %109, %115, %97, %103, %84, %91, %72, %78, %60, %66, %48, %54, %36, %42, %24, %30
  invoke void @_ZN11StringAccum11take_stringEv(%class.String* sret %0, %class.StringAccum* nonnull %4)
          to label %392 unwind label %11, !dbg !5509

392:                                              ; preds = %391
  call void @llvm.dbg.value(metadata %class.StringAccum* %4, metadata !4130, metadata !DIExpression()) #17, !dbg !5510
  %393 = load i32, i32* %9, align 4, !dbg !5512, !tbaa !3964
  %394 = icmp sgt i32 %393, 0, !dbg !5513
  br i1 %394, label %395, label %398, !dbg !5514

395:                                              ; preds = %392
  %396 = load i8*, i8** %7, align 8, !dbg !5515, !tbaa !3969
  %397 = getelementptr inbounds i8, i8* %396, i64 -12, !dbg !5515
  call void @_ZdaPv(i8* nonnull %397) #19, !dbg !5515
  br label %398, !dbg !5515

398:                                              ; preds = %392, %395
  call void @llvm.lifetime.end.p0i8(i64 16, i8* nonnull %6) #17, !dbg !5516
  ret void, !dbg !5516

399:                                              ; preds = %334, %11
  %400 = phi i8* [ %13, %11 ], [ %335, %334 ], !dbg !4977
  %401 = phi i32 [ %14, %11 ], [ %336, %334 ], !dbg !4977
  call void @llvm.dbg.value(metadata %class.StringAccum* %4, metadata !4130, metadata !DIExpression()) #17, !dbg !5517
  %402 = load i32, i32* %9, align 4, !dbg !5519, !tbaa !3964
  %403 = icmp sgt i32 %402, 0, !dbg !5520
  br i1 %403, label %404, label %407, !dbg !5521

404:                                              ; preds = %399
  %405 = load i8*, i8** %7, align 8, !dbg !5522, !tbaa !3969
  %406 = getelementptr inbounds i8, i8* %405, i64 -12, !dbg !5522
  call void @_ZdaPv(i8* nonnull %406) #19, !dbg !5522
  br label %407, !dbg !5522

407:                                              ; preds = %399, %404
  call void @llvm.lifetime.end.p0i8(i64 16, i8* nonnull %6) #17, !dbg !5516
  %408 = insertvalue { i8*, i32 } undef, i8* %400, 0, !dbg !5516
  %409 = insertvalue { i8*, i32 } %408, i32 %401, 1, !dbg !5516
  resume { i8*, i32 } %409, !dbg !5516
}

; Function Attrs: sspstrong uwtable
define dso_local void @_ZN8IPFilter9Primitive20unparse_transp_protoEi(%class.String* noalias sret %0, i32 %1) local_unnamed_addr #0 align 2 personality i8* bitcast (i32 (...)* @__gxx_personality_v0 to i8*) !dbg !5523 {
  %3 = alloca %class.String, align 8
  call void @llvm.dbg.value(metadata i32 %1, metadata !5525, metadata !DIExpression()), !dbg !5526
  switch i32 %1, label %36 [
    i32 -1000, label %4
    i32 1, label %8
    i32 2, label %12
    i32 4, label %16
    i32 6, label %20
    i32 17, label %24
    i32 256, label %28
    i32 258, label %32
  ], !dbg !5527

4:                                                ; preds = %2
  call void @llvm.dbg.value(metadata %class.String* %0, metadata !4791, metadata !DIExpression()), !dbg !5528
  call void @llvm.dbg.value(metadata i8* getelementptr inbounds ([1 x i8], [1 x i8]* @.str.40, i64 0, i64 0), metadata !4794, metadata !DIExpression()), !dbg !5528
  call void @llvm.dbg.value(metadata %class.String* %0, metadata !4235, metadata !DIExpression()), !dbg !5531
  call void @llvm.dbg.value(metadata i8* getelementptr inbounds ([1 x i8], [1 x i8]* @.str.40, i64 0, i64 0), metadata !4238, metadata !DIExpression()), !dbg !5531
  call void @llvm.dbg.value(metadata i32 0, metadata !4239, metadata !DIExpression()), !dbg !5531
  call void @llvm.dbg.value(metadata %"struct.String::memo_t"* null, metadata !4240, metadata !DIExpression()), !dbg !5531
  %5 = getelementptr inbounds %class.String, %class.String* %0, i64 0, i32 0, i32 0, !dbg !5535
  store i8* getelementptr inbounds ([1 x i8], [1 x i8]* @.str.40, i64 0, i64 0), i8** %5, align 8, !dbg !5536, !tbaa !4006
  %6 = getelementptr inbounds %class.String, %class.String* %0, i64 0, i32 0, i32 1, !dbg !5537
  store i32 0, i32* %6, align 8, !dbg !5538, !tbaa !4010
  %7 = getelementptr inbounds %class.String, %class.String* %0, i64 0, i32 0, i32 2, !dbg !5539
  store %"struct.String::memo_t"* null, %"struct.String::memo_t"** %7, align 8, !dbg !5540, !tbaa !4043
  br label %101, !dbg !5541

8:                                                ; preds = %2
  call void @llvm.dbg.value(metadata %class.String* %0, metadata !4791, metadata !DIExpression()), !dbg !5542
  call void @llvm.dbg.value(metadata i8* getelementptr inbounds ([5 x i8], [5 x i8]* @.str.41, i64 0, i64 0), metadata !4794, metadata !DIExpression()), !dbg !5542
  call void @llvm.dbg.value(metadata %class.String* %0, metadata !4235, metadata !DIExpression()), !dbg !5544
  call void @llvm.dbg.value(metadata i8* getelementptr inbounds ([5 x i8], [5 x i8]* @.str.41, i64 0, i64 0), metadata !4238, metadata !DIExpression()), !dbg !5544
  call void @llvm.dbg.value(metadata i32 4, metadata !4239, metadata !DIExpression()), !dbg !5544
  call void @llvm.dbg.value(metadata %"struct.String::memo_t"* null, metadata !4240, metadata !DIExpression()), !dbg !5544
  %9 = getelementptr inbounds %class.String, %class.String* %0, i64 0, i32 0, i32 0, !dbg !5546
  store i8* getelementptr inbounds ([5 x i8], [5 x i8]* @.str.41, i64 0, i64 0), i8** %9, align 8, !dbg !5547, !tbaa !4006
  %10 = getelementptr inbounds %class.String, %class.String* %0, i64 0, i32 0, i32 1, !dbg !5548
  store i32 4, i32* %10, align 8, !dbg !5549, !tbaa !4010
  %11 = getelementptr inbounds %class.String, %class.String* %0, i64 0, i32 0, i32 2, !dbg !5550
  store %"struct.String::memo_t"* null, %"struct.String::memo_t"** %11, align 8, !dbg !5551, !tbaa !4043
  br label %101, !dbg !5552

12:                                               ; preds = %2
  call void @llvm.dbg.value(metadata %class.String* %0, metadata !4791, metadata !DIExpression()), !dbg !5553
  call void @llvm.dbg.value(metadata i8* getelementptr inbounds ([5 x i8], [5 x i8]* @.str.42, i64 0, i64 0), metadata !4794, metadata !DIExpression()), !dbg !5553
  call void @llvm.dbg.value(metadata %class.String* %0, metadata !4235, metadata !DIExpression()), !dbg !5555
  call void @llvm.dbg.value(metadata i8* getelementptr inbounds ([5 x i8], [5 x i8]* @.str.42, i64 0, i64 0), metadata !4238, metadata !DIExpression()), !dbg !5555
  call void @llvm.dbg.value(metadata i32 4, metadata !4239, metadata !DIExpression()), !dbg !5555
  call void @llvm.dbg.value(metadata %"struct.String::memo_t"* null, metadata !4240, metadata !DIExpression()), !dbg !5555
  %13 = getelementptr inbounds %class.String, %class.String* %0, i64 0, i32 0, i32 0, !dbg !5557
  store i8* getelementptr inbounds ([5 x i8], [5 x i8]* @.str.42, i64 0, i64 0), i8** %13, align 8, !dbg !5558, !tbaa !4006
  %14 = getelementptr inbounds %class.String, %class.String* %0, i64 0, i32 0, i32 1, !dbg !5559
  store i32 4, i32* %14, align 8, !dbg !5560, !tbaa !4010
  %15 = getelementptr inbounds %class.String, %class.String* %0, i64 0, i32 0, i32 2, !dbg !5561
  store %"struct.String::memo_t"* null, %"struct.String::memo_t"** %15, align 8, !dbg !5562, !tbaa !4043
  br label %101, !dbg !5563

16:                                               ; preds = %2
  call void @llvm.dbg.value(metadata %class.String* %0, metadata !4791, metadata !DIExpression()), !dbg !5564
  call void @llvm.dbg.value(metadata i8* getelementptr inbounds ([5 x i8], [5 x i8]* @.str.43, i64 0, i64 0), metadata !4794, metadata !DIExpression()), !dbg !5564
  call void @llvm.dbg.value(metadata %class.String* %0, metadata !4235, metadata !DIExpression()), !dbg !5566
  call void @llvm.dbg.value(metadata i8* getelementptr inbounds ([5 x i8], [5 x i8]* @.str.43, i64 0, i64 0), metadata !4238, metadata !DIExpression()), !dbg !5566
  call void @llvm.dbg.value(metadata i32 4, metadata !4239, metadata !DIExpression()), !dbg !5566
  call void @llvm.dbg.value(metadata %"struct.String::memo_t"* null, metadata !4240, metadata !DIExpression()), !dbg !5566
  %17 = getelementptr inbounds %class.String, %class.String* %0, i64 0, i32 0, i32 0, !dbg !5568
  store i8* getelementptr inbounds ([5 x i8], [5 x i8]* @.str.43, i64 0, i64 0), i8** %17, align 8, !dbg !5569, !tbaa !4006
  %18 = getelementptr inbounds %class.String, %class.String* %0, i64 0, i32 0, i32 1, !dbg !5570
  store i32 4, i32* %18, align 8, !dbg !5571, !tbaa !4010
  %19 = getelementptr inbounds %class.String, %class.String* %0, i64 0, i32 0, i32 2, !dbg !5572
  store %"struct.String::memo_t"* null, %"struct.String::memo_t"** %19, align 8, !dbg !5573, !tbaa !4043
  br label %101, !dbg !5574

20:                                               ; preds = %2
  call void @llvm.dbg.value(metadata %class.String* %0, metadata !4791, metadata !DIExpression()), !dbg !5575
  call void @llvm.dbg.value(metadata i8* getelementptr inbounds ([4 x i8], [4 x i8]* @.str.44, i64 0, i64 0), metadata !4794, metadata !DIExpression()), !dbg !5575
  call void @llvm.dbg.value(metadata %class.String* %0, metadata !4235, metadata !DIExpression()), !dbg !5577
  call void @llvm.dbg.value(metadata i8* getelementptr inbounds ([4 x i8], [4 x i8]* @.str.44, i64 0, i64 0), metadata !4238, metadata !DIExpression()), !dbg !5577
  call void @llvm.dbg.value(metadata i32 3, metadata !4239, metadata !DIExpression()), !dbg !5577
  call void @llvm.dbg.value(metadata %"struct.String::memo_t"* null, metadata !4240, metadata !DIExpression()), !dbg !5577
  %21 = getelementptr inbounds %class.String, %class.String* %0, i64 0, i32 0, i32 0, !dbg !5579
  store i8* getelementptr inbounds ([4 x i8], [4 x i8]* @.str.44, i64 0, i64 0), i8** %21, align 8, !dbg !5580, !tbaa !4006
  %22 = getelementptr inbounds %class.String, %class.String* %0, i64 0, i32 0, i32 1, !dbg !5581
  store i32 3, i32* %22, align 8, !dbg !5582, !tbaa !4010
  %23 = getelementptr inbounds %class.String, %class.String* %0, i64 0, i32 0, i32 2, !dbg !5583
  store %"struct.String::memo_t"* null, %"struct.String::memo_t"** %23, align 8, !dbg !5584, !tbaa !4043
  br label %101, !dbg !5585

24:                                               ; preds = %2
  call void @llvm.dbg.value(metadata %class.String* %0, metadata !4791, metadata !DIExpression()), !dbg !5586
  call void @llvm.dbg.value(metadata i8* getelementptr inbounds ([4 x i8], [4 x i8]* @.str.45, i64 0, i64 0), metadata !4794, metadata !DIExpression()), !dbg !5586
  call void @llvm.dbg.value(metadata %class.String* %0, metadata !4235, metadata !DIExpression()), !dbg !5588
  call void @llvm.dbg.value(metadata i8* getelementptr inbounds ([4 x i8], [4 x i8]* @.str.45, i64 0, i64 0), metadata !4238, metadata !DIExpression()), !dbg !5588
  call void @llvm.dbg.value(metadata i32 3, metadata !4239, metadata !DIExpression()), !dbg !5588
  call void @llvm.dbg.value(metadata %"struct.String::memo_t"* null, metadata !4240, metadata !DIExpression()), !dbg !5588
  %25 = getelementptr inbounds %class.String, %class.String* %0, i64 0, i32 0, i32 0, !dbg !5590
  store i8* getelementptr inbounds ([4 x i8], [4 x i8]* @.str.45, i64 0, i64 0), i8** %25, align 8, !dbg !5591, !tbaa !4006
  %26 = getelementptr inbounds %class.String, %class.String* %0, i64 0, i32 0, i32 1, !dbg !5592
  store i32 3, i32* %26, align 8, !dbg !5593, !tbaa !4010
  %27 = getelementptr inbounds %class.String, %class.String* %0, i64 0, i32 0, i32 2, !dbg !5594
  store %"struct.String::memo_t"* null, %"struct.String::memo_t"** %27, align 8, !dbg !5595, !tbaa !4043
  br label %101, !dbg !5596

28:                                               ; preds = %2
  call void @llvm.dbg.value(metadata %class.String* %0, metadata !4791, metadata !DIExpression()), !dbg !5597
  call void @llvm.dbg.value(metadata i8* getelementptr inbounds ([7 x i8], [7 x i8]* @.str.46, i64 0, i64 0), metadata !4794, metadata !DIExpression()), !dbg !5597
  call void @llvm.dbg.value(metadata %class.String* %0, metadata !4235, metadata !DIExpression()), !dbg !5599
  call void @llvm.dbg.value(metadata i8* getelementptr inbounds ([7 x i8], [7 x i8]* @.str.46, i64 0, i64 0), metadata !4238, metadata !DIExpression()), !dbg !5599
  call void @llvm.dbg.value(metadata i32 6, metadata !4239, metadata !DIExpression()), !dbg !5599
  call void @llvm.dbg.value(metadata %"struct.String::memo_t"* null, metadata !4240, metadata !DIExpression()), !dbg !5599
  %29 = getelementptr inbounds %class.String, %class.String* %0, i64 0, i32 0, i32 0, !dbg !5601
  store i8* getelementptr inbounds ([7 x i8], [7 x i8]* @.str.46, i64 0, i64 0), i8** %29, align 8, !dbg !5602, !tbaa !4006
  %30 = getelementptr inbounds %class.String, %class.String* %0, i64 0, i32 0, i32 1, !dbg !5603
  store i32 6, i32* %30, align 8, !dbg !5604, !tbaa !4010
  %31 = getelementptr inbounds %class.String, %class.String* %0, i64 0, i32 0, i32 2, !dbg !5605
  store %"struct.String::memo_t"* null, %"struct.String::memo_t"** %31, align 8, !dbg !5606, !tbaa !4043
  br label %101, !dbg !5607

32:                                               ; preds = %2
  call void @llvm.dbg.value(metadata %class.String* %0, metadata !4791, metadata !DIExpression()), !dbg !5608
  call void @llvm.dbg.value(metadata i8* getelementptr inbounds ([7 x i8], [7 x i8]* @.str.47, i64 0, i64 0), metadata !4794, metadata !DIExpression()), !dbg !5608
  call void @llvm.dbg.value(metadata %class.String* %0, metadata !4235, metadata !DIExpression()), !dbg !5610
  call void @llvm.dbg.value(metadata i8* getelementptr inbounds ([7 x i8], [7 x i8]* @.str.47, i64 0, i64 0), metadata !4238, metadata !DIExpression()), !dbg !5610
  call void @llvm.dbg.value(metadata i32 6, metadata !4239, metadata !DIExpression()), !dbg !5610
  call void @llvm.dbg.value(metadata %"struct.String::memo_t"* null, metadata !4240, metadata !DIExpression()), !dbg !5610
  %33 = getelementptr inbounds %class.String, %class.String* %0, i64 0, i32 0, i32 0, !dbg !5612
  store i8* getelementptr inbounds ([7 x i8], [7 x i8]* @.str.47, i64 0, i64 0), i8** %33, align 8, !dbg !5613, !tbaa !4006
  %34 = getelementptr inbounds %class.String, %class.String* %0, i64 0, i32 0, i32 1, !dbg !5614
  store i32 6, i32* %34, align 8, !dbg !5615, !tbaa !4010
  %35 = getelementptr inbounds %class.String, %class.String* %0, i64 0, i32 0, i32 2, !dbg !5616
  store %"struct.String::memo_t"* null, %"struct.String::memo_t"** %35, align 8, !dbg !5617, !tbaa !4043
  br label %101, !dbg !5618

36:                                               ; preds = %2
  %37 = bitcast %class.String* %3 to i8*, !dbg !5619
  call void @llvm.lifetime.start.p0i8(i64 24, i8* nonnull %37) #17, !dbg !5619
  call void @_ZN6StringC1Ei(%class.String* nonnull %3, i32 %1), !dbg !5619
  call void @llvm.dbg.value(metadata i8* undef, metadata !5620, metadata !DIExpression(DW_OP_deref)), !dbg !5627
  call void @llvm.dbg.value(metadata i8* getelementptr inbounds ([10 x i8], [10 x i8]* @.str.48, i64 0, i64 0), metadata !5625, metadata !DIExpression()), !dbg !5627
  call void @llvm.dbg.value(metadata %class.String* %3, metadata !5626, metadata !DIExpression()), !dbg !5627
  call void @llvm.dbg.value(metadata %class.String* %0, metadata !4791, metadata !DIExpression()), !dbg !5629
  call void @llvm.dbg.value(metadata i8* getelementptr inbounds ([10 x i8], [10 x i8]* @.str.48, i64 0, i64 0), metadata !4794, metadata !DIExpression()), !dbg !5629
  call void @llvm.dbg.value(metadata %class.String* %0, metadata !4235, metadata !DIExpression()), !dbg !5631
  call void @llvm.dbg.value(metadata i8* getelementptr inbounds ([10 x i8], [10 x i8]* @.str.48, i64 0, i64 0), metadata !4238, metadata !DIExpression()), !dbg !5631
  call void @llvm.dbg.value(metadata i32 9, metadata !4239, metadata !DIExpression()), !dbg !5631
  call void @llvm.dbg.value(metadata %"struct.String::memo_t"* null, metadata !4240, metadata !DIExpression()), !dbg !5631
  %38 = getelementptr inbounds %class.String, %class.String* %0, i64 0, i32 0, i32 0, !dbg !5633
  store i8* getelementptr inbounds ([10 x i8], [10 x i8]* @.str.48, i64 0, i64 0), i8** %38, align 8, !dbg !5634, !tbaa !4006, !alias.scope !5635
  %39 = getelementptr inbounds %class.String, %class.String* %0, i64 0, i32 0, i32 1, !dbg !5638
  store i32 9, i32* %39, align 8, !dbg !5639, !tbaa !4010, !alias.scope !5635
  %40 = getelementptr inbounds %class.String, %class.String* %0, i64 0, i32 0, i32 2, !dbg !5640
  store %"struct.String::memo_t"* null, %"struct.String::memo_t"** %40, align 8, !dbg !5641, !tbaa !4043, !alias.scope !5635
  call void @llvm.dbg.value(metadata %class.String* %0, metadata !4268, metadata !DIExpression()), !dbg !5642
  call void @llvm.dbg.value(metadata %class.String* %3, metadata !4271, metadata !DIExpression()), !dbg !5642
  call void @llvm.dbg.value(metadata %class.String* %3, metadata !3894, metadata !DIExpression()), !dbg !5644
  %41 = getelementptr inbounds %class.String, %class.String* %3, i64 0, i32 0, i32 0, !dbg !5646
  %42 = load i8*, i8** %41, align 8, !dbg !5646, !tbaa !4006, !noalias !5635
  call void @llvm.dbg.value(metadata %class.String* %3, metadata !3906, metadata !DIExpression()), !dbg !5647
  %43 = getelementptr inbounds %class.String, %class.String* %3, i64 0, i32 0, i32 1, !dbg !5649
  %44 = load i32, i32* %43, align 8, !dbg !5649, !tbaa !4010, !noalias !5635
  %45 = getelementptr inbounds %class.String, %class.String* %3, i64 0, i32 0, i32 2, !dbg !5650
  %46 = load %"struct.String::memo_t"*, %"struct.String::memo_t"** %45, align 8, !dbg !5650, !tbaa !4043, !noalias !5635
  invoke void @_ZN6String6appendEPKciPNS_6memo_tE(%class.String* %0, i8* %42, i32 %44, %"struct.String::memo_t"* %46)
          to label %65 unwind label %47, !dbg !5651

47:                                               ; preds = %36
  %48 = landingpad { i8*, i32 }
          cleanup, !dbg !5652
  call void @llvm.dbg.value(metadata %class.String* %0, metadata !3917, metadata !DIExpression()) #17, !dbg !5653
  call void @llvm.dbg.value(metadata %class.String* %0, metadata !3912, metadata !DIExpression()) #17, !dbg !5655
  %49 = load %"struct.String::memo_t"*, %"struct.String::memo_t"** %40, align 8, !dbg !5657, !tbaa !4043, !alias.scope !5635
  %50 = icmp eq %"struct.String::memo_t"* %49, null, !dbg !5658
  br i1 %50, label %83, label %51, !dbg !5659

51:                                               ; preds = %47
  %52 = getelementptr inbounds %"struct.String::memo_t", %"struct.String::memo_t"* %49, i64 0, i32 0, !dbg !5660
  %53 = load volatile i32, i32* %52, align 4, !dbg !5660, !tbaa !4048
  %54 = icmp eq i32 %53, 0, !dbg !5660
  br i1 %54, label %55, label %56, !dbg !5660

55:                                               ; preds = %51
  call void @__assert_fail(i8* getelementptr inbounds ([18 x i8], [18 x i8]* @.str.118, i64 0, i64 0), i8* getelementptr inbounds ([29 x i8], [29 x i8]* @.str.119, i64 0, i64 0), i32 273, i8* getelementptr inbounds ([27 x i8], [27 x i8]* @__PRETTY_FUNCTION__._ZNK6String5derefEv, i64 0, i64 0)) #18, !dbg !5660
  unreachable, !dbg !5660

56:                                               ; preds = %51
  call void @llvm.dbg.value(metadata i32* %52, metadata !4050, metadata !DIExpression()) #17, !dbg !5661
  %57 = load volatile i32, i32* %52, align 4, !dbg !5663, !tbaa !3792
  %58 = add i32 %57, -1, !dbg !5663
  store volatile i32 %58, i32* %52, align 4, !dbg !5663, !tbaa !3792
  %59 = icmp eq i32 %58, 0, !dbg !5664
  br i1 %59, label %60, label %61, !dbg !5665

60:                                               ; preds = %56
  invoke void @_ZN6String11delete_memoEPNS_6memo_tE(%"struct.String::memo_t"* nonnull %49)
          to label %61 unwind label %62, !dbg !5666

61:                                               ; preds = %60, %56
  store %"struct.String::memo_t"* null, %"struct.String::memo_t"** %40, align 8, !dbg !5667, !tbaa !4043, !alias.scope !5635
  br label %83, !dbg !5668

62:                                               ; preds = %60
  %63 = landingpad { i8*, i32 }
          catch i8* null, !dbg !5669
  %64 = extractvalue { i8*, i32 } %63, 0, !dbg !5669
  call void @__clang_call_terminate(i8* %64) #18, !dbg !5669
  unreachable, !dbg !5669

65:                                               ; preds = %36
  call void @llvm.dbg.value(metadata %class.String* %3, metadata !3917, metadata !DIExpression()) #17, !dbg !5670
  call void @llvm.dbg.value(metadata %class.String* %3, metadata !3912, metadata !DIExpression()) #17, !dbg !5672
  %66 = load %"struct.String::memo_t"*, %"struct.String::memo_t"** %45, align 8, !dbg !5674, !tbaa !4043
  %67 = icmp eq %"struct.String::memo_t"* %66, null, !dbg !5675
  br i1 %67, label %82, label %68, !dbg !5676

68:                                               ; preds = %65
  %69 = getelementptr inbounds %"struct.String::memo_t", %"struct.String::memo_t"* %66, i64 0, i32 0, !dbg !5677
  %70 = load volatile i32, i32* %69, align 4, !dbg !5677, !tbaa !4048
  %71 = icmp eq i32 %70, 0, !dbg !5677
  br i1 %71, label %72, label %73, !dbg !5677

72:                                               ; preds = %68
  call void @__assert_fail(i8* getelementptr inbounds ([18 x i8], [18 x i8]* @.str.118, i64 0, i64 0), i8* getelementptr inbounds ([29 x i8], [29 x i8]* @.str.119, i64 0, i64 0), i32 273, i8* getelementptr inbounds ([27 x i8], [27 x i8]* @__PRETTY_FUNCTION__._ZNK6String5derefEv, i64 0, i64 0)) #18, !dbg !5677
  unreachable, !dbg !5677

73:                                               ; preds = %68
  call void @llvm.dbg.value(metadata i32* %69, metadata !4050, metadata !DIExpression()) #17, !dbg !5678
  %74 = load volatile i32, i32* %69, align 4, !dbg !5680, !tbaa !3792
  %75 = add i32 %74, -1, !dbg !5680
  store volatile i32 %75, i32* %69, align 4, !dbg !5680, !tbaa !3792
  %76 = icmp eq i32 %75, 0, !dbg !5681
  br i1 %76, label %77, label %78, !dbg !5682

77:                                               ; preds = %73
  invoke void @_ZN6String11delete_memoEPNS_6memo_tE(%"struct.String::memo_t"* nonnull %66)
          to label %78 unwind label %79, !dbg !5683

78:                                               ; preds = %77, %73
  store %"struct.String::memo_t"* null, %"struct.String::memo_t"** %45, align 8, !dbg !5684, !tbaa !4043
  br label %82, !dbg !5685

79:                                               ; preds = %77
  %80 = landingpad { i8*, i32 }
          catch i8* null, !dbg !5686
  %81 = extractvalue { i8*, i32 } %80, 0, !dbg !5686
  call void @__clang_call_terminate(i8* %81) #18, !dbg !5686
  unreachable, !dbg !5686

82:                                               ; preds = %65, %78
  call void @llvm.lifetime.end.p0i8(i64 24, i8* nonnull %37) #17, !dbg !5687
  br label %101, !dbg !5687

83:                                               ; preds = %47, %61
  call void @llvm.dbg.value(metadata %class.String* %3, metadata !3917, metadata !DIExpression()) #17, !dbg !5688
  call void @llvm.dbg.value(metadata %class.String* %3, metadata !3912, metadata !DIExpression()) #17, !dbg !5690
  %84 = load %"struct.String::memo_t"*, %"struct.String::memo_t"** %45, align 8, !dbg !5692, !tbaa !4043
  %85 = icmp eq %"struct.String::memo_t"* %84, null, !dbg !5693
  br i1 %85, label %100, label %86, !dbg !5694

86:                                               ; preds = %83
  %87 = getelementptr inbounds %"struct.String::memo_t", %"struct.String::memo_t"* %84, i64 0, i32 0, !dbg !5695
  %88 = load volatile i32, i32* %87, align 4, !dbg !5695, !tbaa !4048
  %89 = icmp eq i32 %88, 0, !dbg !5695
  br i1 %89, label %90, label %91, !dbg !5695

90:                                               ; preds = %86
  call void @__assert_fail(i8* getelementptr inbounds ([18 x i8], [18 x i8]* @.str.118, i64 0, i64 0), i8* getelementptr inbounds ([29 x i8], [29 x i8]* @.str.119, i64 0, i64 0), i32 273, i8* getelementptr inbounds ([27 x i8], [27 x i8]* @__PRETTY_FUNCTION__._ZNK6String5derefEv, i64 0, i64 0)) #18, !dbg !5695
  unreachable, !dbg !5695

91:                                               ; preds = %86
  call void @llvm.dbg.value(metadata i32* %87, metadata !4050, metadata !DIExpression()) #17, !dbg !5696
  %92 = load volatile i32, i32* %87, align 4, !dbg !5698, !tbaa !3792
  %93 = add i32 %92, -1, !dbg !5698
  store volatile i32 %93, i32* %87, align 4, !dbg !5698, !tbaa !3792
  %94 = icmp eq i32 %93, 0, !dbg !5699
  br i1 %94, label %95, label %96, !dbg !5700

95:                                               ; preds = %91
  invoke void @_ZN6String11delete_memoEPNS_6memo_tE(%"struct.String::memo_t"* nonnull %84)
          to label %96 unwind label %97, !dbg !5701

96:                                               ; preds = %95, %91
  store %"struct.String::memo_t"* null, %"struct.String::memo_t"** %45, align 8, !dbg !5702, !tbaa !4043
  br label %100, !dbg !5703

97:                                               ; preds = %95
  %98 = landingpad { i8*, i32 }
          catch i8* null, !dbg !5704
  %99 = extractvalue { i8*, i32 } %98, 0, !dbg !5704
  call void @__clang_call_terminate(i8* %99) #18, !dbg !5704
  unreachable, !dbg !5704

100:                                              ; preds = %83, %96
  call void @llvm.lifetime.end.p0i8(i64 24, i8* nonnull %37) #17, !dbg !5687
  resume { i8*, i32 } %48, !dbg !5687

101:                                              ; preds = %32, %28, %24, %20, %16, %12, %8, %4, %82
  ret void, !dbg !5705
}

declare void @_ZN11StringAccum11take_stringEv(%class.String* sret, %class.StringAccum*) local_unnamed_addr #2

declare void @_ZN6StringC1Ei(%class.String*, i32) unnamed_addr #2

; Function Attrs: nounwind sspstrong uwtable
define dso_local void @_ZN8IPFilter9Primitive13simple_negateEv(%"struct.IPFilter::Primitive"* nocapture %0) local_unnamed_addr #6 align 2 !dbg !5706 {
