; ModuleID = '../elements/ip/ipnameinfo.cc'
source_filename = "../elements/ip/ipnameinfo.cc"
target datalayout = "e-m:e-p270:32:32-p271:32:32-p272:64:64-i64:64-f80:128-n8:16:32:64-S128"
target triple = "x86_64-pc-linux-gnu"

%class.NameDB = type { i32 (...)**, i32, %class.String, i64, %class.NameDB*, %class.NameDB*, %class.NameDB*, %class.NameInfo* }
%class.String = type { %"struct.String::rep_t" }
%"struct.String::rep_t" = type { i8*, i32, %"struct.String::memo_t"* }
%"struct.String::memo_t" = type { i32, i32, i32, [8 x i8] }
%class.NameInfo = type { %class.Vector, %class.Vector }
%class.Vector = type { %class.vector_memory }
%class.vector_memory = type { %struct.char_array*, i32, i32 }
%struct.char_array = type opaque
%"struct.StaticNameDB::Entry" = type { i8*, i32 }
%class.ArgContext = type <{ %class.Element*, %class.ErrorHandler*, i8*, i8, [7 x i8] }>
%class.Element = type <{ i32 (...)**, [2 x %"class.Element::Port"*], [4 x %"class.Element::Port"], [2 x i32], %class.Router*, i32, [4 x i8] }>
%"class.Element::Port" = type <{ %class.Element*, i32, [4 x i8] }>
%class.Router = type opaque
%class.ErrorHandler = type opaque
%"class.(anonymous namespace)::ServicesNameDB" = type { %class.NameDB, %class.DynamicNameDB*, i8, %"class.(anonymous namespace)::ServicesNameDB"*, %"class.(anonymous namespace)::ServicesNameDB"* }
%class.DynamicNameDB = type <{ %class.NameDB, %class.Vector.0, %class.StringAccum, i32, [4 x i8] }>
%class.Vector.0 = type { %class.vector_memory.1 }
%class.vector_memory.1 = type { %class.String*, i32, i32 }
%class.StringAccum = type { %"struct.StringAccum::rep_t" }
%"struct.StringAccum::rep_t" = type { i8*, i32, i32 }
%class.IntArg = type { i32, i32 }
%struct.protoent = type { i8*, i8**, i32 }
%struct.servent = type { i8*, i8**, i32, i8* }

$_ZN6StringD2Ev = comdat any

$_ZN6NameDBD2Ev = comdat any

$__clang_call_terminate = comdat any

$_ZN6VectorI6StringE5beginEv = comdat any

$_ZN6VectorI6StringE3endEv = comdat any

$_ZN13vector_memoryI18typed_array_memoryI6StringEE5eraseEPS1_S4_ = comdat any

$_ZN18typed_array_memoryI6StringE9move_ontoEPS0_PKS0_m = comdat any

$_ZN13vector_memoryI18typed_array_memoryI6StringEE21reserve_and_push_backEiPKS1_ = comdat any

$_ZN18typed_array_memoryI6StringE4moveEPS0_PKS0_m = comdat any

@_ZL3dbs = internal unnamed_addr global [13 x %class.NameDB*] zeroinitializer, align 16, !dbg !0
@_ZL9ip_protos = internal constant [11 x %"struct.StaticNameDB::Entry"] [%"struct.StaticNameDB::Entry" { i8* getelementptr inbounds ([5 x i8], [5 x i8]* @.str.12, i32 0, i32 0), i32 33 }, %"struct.StaticNameDB::Entry" { i8* getelementptr inbounds ([4 x i8], [4 x i8]* @.str.13, i32 0, i32 0), i32 47 }, %"struct.StaticNameDB::Entry" { i8* getelementptr inbounds ([5 x i8], [5 x i8]* @.str.14, i32 0, i32 0), i32 1 }, %"struct.StaticNameDB::Entry" { i8* getelementptr inbounds ([5 x i8], [5 x i8]* @.str.15, i32 0, i32 0), i32 2 }, %"struct.StaticNameDB::Entry" { i8* getelementptr inbounds ([5 x i8], [5 x i8]* @.str.16, i32 0, i32 0), i32 4 }, %"struct.StaticNameDB::Entry" { i8* getelementptr inbounds ([8 x i8], [8 x i8]* @.str.17, i32 0, i32 0), i32 259 }, %"struct.StaticNameDB::Entry" { i8* getelementptr inbounds ([5 x i8], [5 x i8]* @.str.18, i32 0, i32 0), i32 132 }, %"struct.StaticNameDB::Entry" { i8* getelementptr inbounds ([4 x i8], [4 x i8]* @.str.4, i32 0, i32 0), i32 6 }, %"struct.StaticNameDB::Entry" { i8* getelementptr inbounds ([7 x i8], [7 x i8]* @.str.19, i32 0, i32 0), i32 256 }, %"struct.StaticNameDB::Entry" { i8* getelementptr inbounds ([7 x i8], [7 x i8]* @.str.20, i32 0, i32 0), i32 258 }, %"struct.StaticNameDB::Entry" { i8* getelementptr inbounds ([4 x i8], [4 x i8]* @.str.5, i32 0, i32 0), i32 17 }], align 16, !dbg !938
@_ZL10icmp_types = internal constant [15 x %"struct.StaticNameDB::Entry"] [%"struct.StaticNameDB::Entry" { i8* getelementptr inbounds ([5 x i8], [5 x i8]* @.str.23, i32 0, i32 0), i32 8 }, %"struct.StaticNameDB::Entry" { i8* getelementptr inbounds ([11 x i8], [11 x i8]* @.str.24, i32 0, i32 0), i32 0 }, %"struct.StaticNameDB::Entry" { i8* getelementptr inbounds ([8 x i8], [8 x i8]* @.str.25, i32 0, i32 0), i32 15 }, %"struct.StaticNameDB::Entry" { i8* getelementptr inbounds ([14 x i8], [14 x i8]* @.str.26, i32 0, i32 0), i32 16 }, %"struct.StaticNameDB::Entry" { i8* getelementptr inbounds ([8 x i8], [8 x i8]* @.str.27, i32 0, i32 0), i32 17 }, %"struct.StaticNameDB::Entry" { i8* getelementptr inbounds ([14 x i8], [14 x i8]* @.str.28, i32 0, i32 0), i32 18 }, %"struct.StaticNameDB::Entry" { i8* getelementptr inbounds ([17 x i8], [17 x i8]* @.str.29, i32 0, i32 0), i32 12 }, %"struct.StaticNameDB::Entry" { i8* getelementptr inbounds ([9 x i8], [9 x i8]* @.str.30, i32 0, i32 0), i32 5 }, %"struct.StaticNameDB::Entry" { i8* getelementptr inbounds ([13 x i8], [13 x i8]* @.str.31, i32 0, i32 0), i32 9 }, %"struct.StaticNameDB::Entry" { i8* getelementptr inbounds ([14 x i8], [14 x i8]* @.str.32, i32 0, i32 0), i32 10 }, %"struct.StaticNameDB::Entry" { i8* getelementptr inbounds ([13 x i8], [13 x i8]* @.str.33, i32 0, i32 0), i32 4 }, %"struct.StaticNameDB::Entry" { i8* getelementptr inbounds ([13 x i8], [13 x i8]* @.str.34, i32 0, i32 0), i32 11 }, %"struct.StaticNameDB::Entry" { i8* getelementptr inbounds ([10 x i8], [10 x i8]* @.str.35, i32 0, i32 0), i32 13 }, %"struct.StaticNameDB::Entry" { i8* getelementptr inbounds ([16 x i8], [16 x i8]* @.str.36, i32 0, i32 0), i32 14 }, %"struct.StaticNameDB::Entry" { i8* getelementptr inbounds ([12 x i8], [12 x i8]* @.str.37, i32 0, i32 0), i32 3 }], align 16, !dbg !947
@_ZL18icmp_unreach_codes = internal constant [16 x %"struct.StaticNameDB::Entry"] [%"struct.StaticNameDB::Entry" { i8* getelementptr inbounds ([17 x i8], [17 x i8]* @.str.38, i32 0, i32 0), i32 13 }, %"struct.StaticNameDB::Entry" { i8* getelementptr inbounds ([5 x i8], [5 x i8]* @.str.39, i32 0, i32 0), i32 1 }, %"struct.StaticNameDB::Entry" { i8* getelementptr inbounds ([15 x i8], [15 x i8]* @.str.40, i32 0, i32 0), i32 14 }, %"struct.StaticNameDB::Entry" { i8* getelementptr inbounds ([15 x i8], [15 x i8]* @.str.41, i32 0, i32 0), i32 10 }, %"struct.StaticNameDB::Entry" { i8* getelementptr inbounds ([12 x i8], [12 x i8]* @.str.42, i32 0, i32 0), i32 7 }, %"struct.StaticNameDB::Entry" { i8* getelementptr inbounds ([9 x i8], [9 x i8]* @.str.43, i32 0, i32 0), i32 8 }, %"struct.StaticNameDB::Entry" { i8* getelementptr inbounds ([9 x i8], [9 x i8]* @.str.44, i32 0, i32 0), i32 4 }, %"struct.StaticNameDB::Entry" { i8* getelementptr inbounds ([4 x i8], [4 x i8]* @.str.45, i32 0, i32 0), i32 0 }, %"struct.StaticNameDB::Entry" { i8* getelementptr inbounds ([14 x i8], [14 x i8]* @.str.46, i32 0, i32 0), i32 9 }, %"struct.StaticNameDB::Entry" { i8* getelementptr inbounds ([11 x i8], [11 x i8]* @.str.47, i32 0, i32 0), i32 6 }, %"struct.StaticNameDB::Entry" { i8* getelementptr inbounds ([5 x i8], [5 x i8]* @.str.48, i32 0, i32 0), i32 3 }, %"struct.StaticNameDB::Entry" { i8* getelementptr inbounds ([17 x i8], [17 x i8]* @.str.49, i32 0, i32 0), i32 15 }, %"struct.StaticNameDB::Entry" { i8* getelementptr inbounds ([9 x i8], [9 x i8]* @.str.50, i32 0, i32 0), i32 2 }, %"struct.StaticNameDB::Entry" { i8* getelementptr inbounds ([13 x i8], [13 x i8]* @.str.51, i32 0, i32 0), i32 5 }, %"struct.StaticNameDB::Entry" { i8* getelementptr inbounds ([8 x i8], [8 x i8]* @.str.52, i32 0, i32 0), i32 12 }, %"struct.StaticNameDB::Entry" { i8* getelementptr inbounds ([7 x i8], [7 x i8]* @.str.53, i32 0, i32 0), i32 11 }], align 16, !dbg !950
@_ZL19icmp_redirect_codes = internal constant [4 x %"struct.StaticNameDB::Entry"] [%"struct.StaticNameDB::Entry" { i8* getelementptr inbounds ([5 x i8], [5 x i8]* @.str.39, i32 0, i32 0), i32 1 }, %"struct.StaticNameDB::Entry" { i8* getelementptr inbounds ([4 x i8], [4 x i8]* @.str.45, i32 0, i32 0), i32 0 }, %"struct.StaticNameDB::Entry" { i8* getelementptr inbounds ([8 x i8], [8 x i8]* @.str.52, i32 0, i32 0), i32 3 }, %"struct.StaticNameDB::Entry" { i8* getelementptr inbounds ([7 x i8], [7 x i8]* @.str.53, i32 0, i32 0), i32 2 }], align 16, !dbg !955
@_ZL19icmp_timxceed_codes = internal constant [2 x %"struct.StaticNameDB::Entry"] [%"struct.StaticNameDB::Entry" { i8* getelementptr inbounds ([11 x i8], [11 x i8]* @.str.54, i32 0, i32 0), i32 1 }, %"struct.StaticNameDB::Entry" { i8* getelementptr inbounds ([8 x i8], [8 x i8]* @.str.55, i32 0, i32 0), i32 0 }], align 16, !dbg !960
@_ZL20icmp_paramprob_codes = internal constant [3 x %"struct.StaticNameDB::Entry"] [%"struct.StaticNameDB::Entry" { i8* getelementptr inbounds ([11 x i8], [11 x i8]* @.str.56, i32 0, i32 0), i32 0 }, %"struct.StaticNameDB::Entry" { i8* getelementptr inbounds ([7 x i8], [7 x i8]* @.str.57, i32 0, i32 0), i32 2 }, %"struct.StaticNameDB::Entry" { i8* getelementptr inbounds ([11 x i8], [11 x i8]* @.str.58, i32 0, i32 0), i32 1 }], align 16, !dbg !965
@_ZL11known_ports = internal constant [34 x %"struct.StaticNameDB::Entry"] [%"struct.StaticNameDB::Entry" { i8* getelementptr inbounds ([5 x i8], [5 x i8]* @.str.59, i32 0, i32 0), i32 113 }, %"struct.StaticNameDB::Entry" { i8* getelementptr inbounds ([7 x i8], [7 x i8]* @.str.60, i32 0, i32 0), i32 68 }, %"struct.StaticNameDB::Entry" { i8* getelementptr inbounds ([7 x i8], [7 x i8]* @.str.61, i32 0, i32 0), i32 67 }, %"struct.StaticNameDB::Entry" { i8* getelementptr inbounds ([8 x i8], [8 x i8]* @.str.62, i32 0, i32 0), i32 19 }, %"struct.StaticNameDB::Entry" { i8* getelementptr inbounds ([8 x i8], [8 x i8]* @.str.63, i32 0, i32 0), i32 13 }, %"struct.StaticNameDB::Entry" { i8* getelementptr inbounds ([8 x i8], [8 x i8]* @.str.64, i32 0, i32 0), i32 9 }, %"struct.StaticNameDB::Entry" { i8* getelementptr inbounds ([4 x i8], [4 x i8]* @.str.65, i32 0, i32 0), i32 53 }, %"struct.StaticNameDB::Entry" { i8* getelementptr inbounds ([7 x i8], [7 x i8]* @.str.66, i32 0, i32 0), i32 53 }, %"struct.StaticNameDB::Entry" { i8* getelementptr inbounds ([5 x i8], [5 x i8]* @.str.23, i32 0, i32 0), i32 7 }, %"struct.StaticNameDB::Entry" { i8* getelementptr inbounds ([7 x i8], [7 x i8]* @.str.67, i32 0, i32 0), i32 79 }, %"struct.StaticNameDB::Entry" { i8* getelementptr inbounds ([4 x i8], [4 x i8]* @.str.68, i32 0, i32 0), i32 21 }, %"struct.StaticNameDB::Entry" { i8* getelementptr inbounds ([9 x i8], [9 x i8]* @.str.69, i32 0, i32 0), i32 20 }, %"struct.StaticNameDB::Entry" { i8* getelementptr inbounds ([6 x i8], [6 x i8]* @.str.70, i32 0, i32 0), i32 443 }, %"struct.StaticNameDB::Entry" { i8* getelementptr inbounds ([6 x i8], [6 x i8]* @.str.71, i32 0, i32 0), i32 220 }, %"struct.StaticNameDB::Entry" { i8* getelementptr inbounds ([6 x i8], [6 x i8]* @.str.72, i32 0, i32 0), i32 993 }, %"struct.StaticNameDB::Entry" { i8* getelementptr inbounds ([4 x i8], [4 x i8]* @.str.73, i32 0, i32 0), i32 194 }, %"struct.StaticNameDB::Entry" { i8* getelementptr inbounds ([12 x i8], [12 x i8]* @.str.74, i32 0, i32 0), i32 138 }, %"struct.StaticNameDB::Entry" { i8* getelementptr inbounds ([11 x i8], [11 x i8]* @.str.75, i32 0, i32 0), i32 137 }, %"struct.StaticNameDB::Entry" { i8* getelementptr inbounds ([12 x i8], [12 x i8]* @.str.76, i32 0, i32 0), i32 139 }, %"struct.StaticNameDB::Entry" { i8* getelementptr inbounds ([5 x i8], [5 x i8]* @.str.77, i32 0, i32 0), i32 119 }, %"struct.StaticNameDB::Entry" { i8* getelementptr inbounds ([4 x i8], [4 x i8]* @.str.78, i32 0, i32 0), i32 123 }, %"struct.StaticNameDB::Entry" { i8* getelementptr inbounds ([5 x i8], [5 x i8]* @.str.79, i32 0, i32 0), i32 110 }, %"struct.StaticNameDB::Entry" { i8* getelementptr inbounds ([6 x i8], [6 x i8]* @.str.80, i32 0, i32 0), i32 995 }, %"struct.StaticNameDB::Entry" { i8* getelementptr inbounds ([5 x i8], [5 x i8]* @.str.81, i32 0, i32 0), i32 1723 }, %"struct.StaticNameDB::Entry" { i8* getelementptr inbounds ([4 x i8], [4 x i8]* @.str.82, i32 0, i32 0), i32 520 }, %"struct.StaticNameDB::Entry" { i8* getelementptr inbounds ([6 x i8], [6 x i8]* @.str.83, i32 0, i32 0), i32 520 }, %"struct.StaticNameDB::Entry" { i8* getelementptr inbounds ([5 x i8], [5 x i8]* @.str.84, i32 0, i32 0), i32 25 }, %"struct.StaticNameDB::Entry" { i8* getelementptr inbounds ([5 x i8], [5 x i8]* @.str.85, i32 0, i32 0), i32 161 }, %"struct.StaticNameDB::Entry" { i8* getelementptr inbounds ([10 x i8], [10 x i8]* @.str.86, i32 0, i32 0), i32 162 }, %"struct.StaticNameDB::Entry" { i8* getelementptr inbounds ([4 x i8], [4 x i8]* @.str.87, i32 0, i32 0), i32 22 }, %"struct.StaticNameDB::Entry" { i8* getelementptr inbounds ([7 x i8], [7 x i8]* @.str.88, i32 0, i32 0), i32 111 }, %"struct.StaticNameDB::Entry" { i8* getelementptr inbounds ([7 x i8], [7 x i8]* @.str.89, i32 0, i32 0), i32 23 }, %"struct.StaticNameDB::Entry" { i8* getelementptr inbounds ([5 x i8], [5 x i8]* @.str.90, i32 0, i32 0), i32 69 }, %"struct.StaticNameDB::Entry" { i8* getelementptr inbounds ([4 x i8], [4 x i8]* @.str.91, i32 0, i32 0), i32 80 }], align 16, !dbg !970
@_ZTVN12_GLOBAL__N_114ServicesNameDBE = internal unnamed_addr constant { [7 x i8*] } { [7 x i8*] [i8* null, i8* bitcast ({ i8*, i8*, i8* }* @_ZTIN12_GLOBAL__N_114ServicesNameDBE to i8*), i8* bitcast (void (%"class.(anonymous namespace)::ServicesNameDB"*)* @_ZN12_GLOBAL__N_114ServicesNameDBD2Ev to i8*), i8* bitcast (void (%"class.(anonymous namespace)::ServicesNameDB"*)* @_ZN12_GLOBAL__N_114ServicesNameDBD0Ev to i8*), i8* bitcast (i1 (%"class.(anonymous namespace)::ServicesNameDB"*, %class.String*, i8*, i64)* @_ZN12_GLOBAL__N_114ServicesNameDB5queryERK6StringPvm to i8*), i8* bitcast (void (%class.String*, %class.NameDB*, i8*, i64)* @_ZN6NameDB8revqueryEPKvm to i8*), i8* bitcast (i1 (%class.NameDB*, %class.String*, i8*, i64)* @_ZN6NameDB6defineERK6StringPKvm to i8*)] }, align 8
@_ZTVN10__cxxabiv120__si_class_type_infoE = external global i8*
@_ZTSN12_GLOBAL__N_114ServicesNameDBE = internal constant [33 x i8] c"N12_GLOBAL__N_114ServicesNameDBE\00", align 1
@_ZTI6NameDB = external constant i8*
@_ZTIN12_GLOBAL__N_114ServicesNameDBE = internal constant { i8*, i8*, i8* } { i8* bitcast (i8** getelementptr inbounds (i8*, i8** @_ZTVN10__cxxabiv120__si_class_type_infoE, i64 2) to i8*), i8* getelementptr inbounds ([33 x i8], [33 x i8]* @_ZTSN12_GLOBAL__N_114ServicesNameDBE, i32 0, i32 0), i8* bitcast (i8** @_ZTI6NameDB to i8*) }, align 8
@_ZTV6NameDB = external unnamed_addr constant { [7 x i8*] }, align 8
@.str.2 = private unnamed_addr constant [11 x i8] c"vsize == 4\00", align 1
@.str.3 = private unnamed_addr constant [29 x i8] c"../elements/ip/ipnameinfo.cc\00", align 1
@__PRETTY_FUNCTION__._ZN12_GLOBAL__N_114ServicesNameDB5queryERK6StringPvm = private unnamed_addr constant [90 x i8] c"virtual bool (anonymous namespace)::ServicesNameDB::query(const String &, void *, size_t)\00", align 1
@blank_args = external global %class.ArgContext, align 8
@.str.4 = private unnamed_addr constant [4 x i8] c"tcp\00", align 1
@.str.5 = private unnamed_addr constant [4 x i8] c"udp\00", align 1
@.str.6 = private unnamed_addr constant [15 x i8] c"invalid number\00", align 1
@.str.7 = private unnamed_addr constant [15 x i8] c"/etc/protocols\00", align 1
@.str.8 = private unnamed_addr constant [14 x i8] c"/etc/services\00", align 1
@.str.9 = private unnamed_addr constant [1 x i8] zeroinitializer, align 1
@_ZTV13DynamicNameDB = external unnamed_addr constant { [7 x i8*] }, align 8
@_ZN6String9null_dataE = external constant i8, align 1
@.str.10 = private unnamed_addr constant [27 x i8] c"a >= begin() && b <= end()\00", align 1
@.str.11 = private unnamed_addr constant [29 x i8] c"../dummy_inc/click/vector.cc\00", align 1
@__PRETTY_FUNCTION__._ZN13vector_memoryI18typed_array_memoryI6StringEE5eraseEPS1_S4_ = private unnamed_addr constant [171 x i8] c"typename vector_memory<AM>::iterator vector_memory<typed_array_memory<String> >::erase(vector_memory::iterator, vector_memory::iterator) [AM = typed_array_memory<String>]\00", align 1
@.str.12 = private unnamed_addr constant [5 x i8] c"dccp\00", align 1
@.str.13 = private unnamed_addr constant [4 x i8] c"gre\00", align 1
@.str.14 = private unnamed_addr constant [5 x i8] c"icmp\00", align 1
@.str.15 = private unnamed_addr constant [5 x i8] c"igmp\00", align 1
@.str.16 = private unnamed_addr constant [5 x i8] c"ipip\00", align 1
@.str.17 = private unnamed_addr constant [8 x i8] c"payload\00", align 1
@.str.18 = private unnamed_addr constant [5 x i8] c"sctp\00", align 1
@.str.19 = private unnamed_addr constant [7 x i8] c"tcpudp\00", align 1
@.str.20 = private unnamed_addr constant [7 x i8] c"transp\00", align 1
@_ZTV12StaticNameDB = external unnamed_addr constant { [7 x i8*] }, align 8
@.str.21 = private unnamed_addr constant [18 x i8] c"_r.memo->refcount\00", align 1
@.str.22 = private unnamed_addr constant [29 x i8] c"../dummy_inc/click/string.hh\00", align 1
@__PRETTY_FUNCTION__._ZNK6String5derefEv = private unnamed_addr constant [27 x i8] c"void String::deref() const\00", align 1
@.str.23 = private unnamed_addr constant [5 x i8] c"echo\00", align 1
@.str.24 = private unnamed_addr constant [11 x i8] c"echo-reply\00", align 1
@.str.25 = private unnamed_addr constant [8 x i8] c"inforeq\00", align 1
@.str.26 = private unnamed_addr constant [14 x i8] c"inforeq-reply\00", align 1
@.str.27 = private unnamed_addr constant [8 x i8] c"maskreq\00", align 1
@.str.28 = private unnamed_addr constant [14 x i8] c"maskreq-reply\00", align 1
@.str.29 = private unnamed_addr constant [17 x i8] c"parameterproblem\00", align 1
@.str.30 = private unnamed_addr constant [9 x i8] c"redirect\00", align 1
@.str.31 = private unnamed_addr constant [13 x i8] c"routeradvert\00", align 1
@.str.32 = private unnamed_addr constant [14 x i8] c"routersolicit\00", align 1
@.str.33 = private unnamed_addr constant [13 x i8] c"sourcequench\00", align 1
@.str.34 = private unnamed_addr constant [13 x i8] c"timeexceeded\00", align 1
@.str.35 = private unnamed_addr constant [10 x i8] c"timestamp\00", align 1
@.str.36 = private unnamed_addr constant [16 x i8] c"timestamp-reply\00", align 1
@.str.37 = private unnamed_addr constant [12 x i8] c"unreachable\00", align 1
@.str.38 = private unnamed_addr constant [17 x i8] c"filterprohibited\00", align 1
@.str.39 = private unnamed_addr constant [5 x i8] c"host\00", align 1
@.str.40 = private unnamed_addr constant [15 x i8] c"hostprecedence\00", align 1
@.str.41 = private unnamed_addr constant [15 x i8] c"hostprohibited\00", align 1
@.str.42 = private unnamed_addr constant [12 x i8] c"hostunknown\00", align 1
@.str.43 = private unnamed_addr constant [9 x i8] c"isolated\00", align 1
@.str.44 = private unnamed_addr constant [9 x i8] c"needfrag\00", align 1
@.str.45 = private unnamed_addr constant [4 x i8] c"net\00", align 1
@.str.46 = private unnamed_addr constant [14 x i8] c"netprohibited\00", align 1
@.str.47 = private unnamed_addr constant [11 x i8] c"netunknown\00", align 1
@.str.48 = private unnamed_addr constant [5 x i8] c"port\00", align 1
@.str.49 = private unnamed_addr constant [17 x i8] c"precedencecutoff\00", align 1
@.str.50 = private unnamed_addr constant [9 x i8] c"protocol\00", align 1
@.str.51 = private unnamed_addr constant [13 x i8] c"srcroutefail\00", align 1
@.str.52 = private unnamed_addr constant [8 x i8] c"toshost\00", align 1
@.str.53 = private unnamed_addr constant [7 x i8] c"tosnet\00", align 1
@.str.54 = private unnamed_addr constant [11 x i8] c"reassembly\00", align 1
@.str.55 = private unnamed_addr constant [8 x i8] c"transit\00", align 1
@.str.56 = private unnamed_addr constant [11 x i8] c"erroratptr\00", align 1
@.str.57 = private unnamed_addr constant [7 x i8] c"length\00", align 1
@.str.58 = private unnamed_addr constant [11 x i8] c"missingopt\00", align 1
@.str.59 = private unnamed_addr constant [5 x i8] c"auth\00", align 1
@.str.60 = private unnamed_addr constant [7 x i8] c"bootpc\00", align 1
@.str.61 = private unnamed_addr constant [7 x i8] c"bootps\00", align 1
@.str.62 = private unnamed_addr constant [8 x i8] c"chargen\00", align 1
@.str.63 = private unnamed_addr constant [8 x i8] c"daytime\00", align 1
@.str.64 = private unnamed_addr constant [8 x i8] c"discard\00", align 1
@.str.65 = private unnamed_addr constant [4 x i8] c"dns\00", align 1
@.str.66 = private unnamed_addr constant [7 x i8] c"domain\00", align 1
@.str.67 = private unnamed_addr constant [7 x i8] c"finger\00", align 1
@.str.68 = private unnamed_addr constant [4 x i8] c"ftp\00", align 1
@.str.69 = private unnamed_addr constant [9 x i8] c"ftp-data\00", align 1
@.str.70 = private unnamed_addr constant [6 x i8] c"https\00", align 1
@.str.71 = private unnamed_addr constant [6 x i8] c"imap3\00", align 1
@.str.72 = private unnamed_addr constant [6 x i8] c"imaps\00", align 1
@.str.73 = private unnamed_addr constant [4 x i8] c"irc\00", align 1
@.str.74 = private unnamed_addr constant [12 x i8] c"netbios-dgm\00", align 1
@.str.75 = private unnamed_addr constant [11 x i8] c"netbios-ns\00", align 1
@.str.76 = private unnamed_addr constant [12 x i8] c"netbios-ssn\00", align 1
@.str.77 = private unnamed_addr constant [5 x i8] c"nntp\00", align 1
@.str.78 = private unnamed_addr constant [4 x i8] c"ntp\00", align 1
@.str.79 = private unnamed_addr constant [5 x i8] c"pop3\00", align 1
@.str.80 = private unnamed_addr constant [6 x i8] c"pop3s\00", align 1
@.str.81 = private unnamed_addr constant [5 x i8] c"pptp\00", align 1
@.str.82 = private unnamed_addr constant [4 x i8] c"rip\00", align 1
@.str.83 = private unnamed_addr constant [6 x i8] c"route\00", align 1
@.str.84 = private unnamed_addr constant [5 x i8] c"smtp\00", align 1
@.str.85 = private unnamed_addr constant [5 x i8] c"snmp\00", align 1
@.str.86 = private unnamed_addr constant [10 x i8] c"snmp-trap\00", align 1
@.str.87 = private unnamed_addr constant [4 x i8] c"ssh\00", align 1
@.str.88 = private unnamed_addr constant [7 x i8] c"sunrpc\00", align 1
@.str.89 = private unnamed_addr constant [7 x i8] c"telnet\00", align 1
@.str.90 = private unnamed_addr constant [5 x i8] c"tftp\00", align 1
@.str.91 = private unnamed_addr constant [4 x i8] c"www\00", align 1

; Function Attrs: sspstrong uwtable
define dso_local void @_ZN10IPNameInfo17static_initializeEv() local_unnamed_addr #0 align 2 personality i8* bitcast (i32 (...)* @__gxx_personality_v0 to i8*) !dbg !1606 {
  %1 = tail call dereferenceable(112) i8* @_Znwm(i64 112) #12, !dbg !1636
  call void @llvm.dbg.value(metadata i8* %1, metadata !1637, metadata !DIExpression()), !dbg !1642
  call void @llvm.dbg.value(metadata i32 67108867, metadata !1640, metadata !DIExpression()), !dbg !1642
  call void @llvm.dbg.value(metadata %"class.(anonymous namespace)::ServicesNameDB"* null, metadata !1641, metadata !DIExpression()), !dbg !1642
  call void @llvm.dbg.value(metadata %class.String* undef, metadata !1644, metadata !DIExpression()), !dbg !1650
  call void @llvm.dbg.value(metadata i8* @_ZN6String9null_dataE, metadata !1647, metadata !DIExpression()), !dbg !1650
  call void @llvm.dbg.value(metadata i32 0, metadata !1648, metadata !DIExpression()), !dbg !1650
  call void @llvm.dbg.value(metadata %"struct.String::memo_t"* null, metadata !1649, metadata !DIExpression()), !dbg !1650
  call void @llvm.dbg.value(metadata i8* %1, metadata !1657, metadata !DIExpression()), !dbg !1667
  call void @llvm.dbg.value(metadata i32 67108867, metadata !1664, metadata !DIExpression()), !dbg !1667
  call void @llvm.dbg.value(metadata %class.String* undef, metadata !1665, metadata !DIExpression()), !dbg !1667
  call void @llvm.dbg.value(metadata i64 4, metadata !1666, metadata !DIExpression()), !dbg !1667
  %2 = bitcast i8* %1 to i32 (...)***, !dbg !1669
  %3 = getelementptr inbounds i8, i8* %1, i64 8, !dbg !1670
  %4 = bitcast i8* %3 to i32*, !dbg !1670
  store i32 67108867, i32* %4, align 8, !dbg !1670, !tbaa !1671
  %5 = getelementptr inbounds i8, i8* %1, i64 16, !dbg !1680
  call void @llvm.dbg.value(metadata %class.String* undef, metadata !1681, metadata !DIExpression()), !dbg !1685
  call void @llvm.dbg.value(metadata %class.String* undef, metadata !1687, metadata !DIExpression()), !dbg !1691
  call void @llvm.dbg.value(metadata i8* undef, metadata !1647, metadata !DIExpression()), !dbg !1694
  call void @llvm.dbg.value(metadata i32 0, metadata !1648, metadata !DIExpression()), !dbg !1694
  call void @llvm.dbg.value(metadata %"struct.String::memo_t"* null, metadata !1649, metadata !DIExpression()), !dbg !1694
  %6 = bitcast i8* %5 to i64*, !dbg !1696
  call void @llvm.dbg.value(metadata i64* %6, metadata !1684, metadata !DIExpression()), !dbg !1685
  call void @llvm.dbg.value(metadata i64* %6, metadata !1690, metadata !DIExpression()), !dbg !1691
  call void @llvm.dbg.value(metadata i64* %6, metadata !1644, metadata !DIExpression()), !dbg !1694
  store i64 ptrtoint (i8* @_ZN6String9null_dataE to i64), i64* %6, align 8, !dbg !1696, !tbaa !1697
  %7 = getelementptr inbounds i8, i8* %1, i64 24, !dbg !1698
  %8 = bitcast i8* %7 to i32*, !dbg !1698
  store i32 0, i32* %8, align 8, !dbg !1699, !tbaa !1700
  %9 = getelementptr inbounds i8, i8* %1, i64 32, !dbg !1701
  %10 = bitcast i8* %9 to %"struct.String::memo_t"**, !dbg !1701
  store %"struct.String::memo_t"* null, %"struct.String::memo_t"** %10, align 8, !dbg !1703, !tbaa !1704
  %11 = getelementptr inbounds i8, i8* %1, i64 40, !dbg !1705
  %12 = bitcast i8* %11 to i64*, !dbg !1705
  store i64 4, i64* %12, align 8, !dbg !1705, !tbaa !1706
  %13 = getelementptr inbounds i8, i8* %1, i64 48, !dbg !1707
  tail call void @llvm.memset.p0i8.i64(i8* nonnull align 8 dereferenceable(32) %13, i8 0, i64 32, i1 false), !dbg !1708
  store i32 (...)** bitcast (i8** getelementptr inbounds ({ [7 x i8*] }, { [7 x i8*] }* @_ZTVN12_GLOBAL__N_114ServicesNameDBE, i64 0, inrange i32 0, i64 2) to i32 (...)**), i32 (...)*** %2, align 8, !dbg !1709, !tbaa !1710
  %14 = getelementptr inbounds i8, i8* %1, i64 80, !dbg !1712
  %15 = bitcast i8* %14 to %class.DynamicNameDB**, !dbg !1712
  store %class.DynamicNameDB* null, %class.DynamicNameDB** %15, align 8, !dbg !1712, !tbaa !1713
  %16 = getelementptr inbounds i8, i8* %1, i64 88, !dbg !1716
  store i8 0, i8* %16, align 8, !dbg !1716, !tbaa !1717
  %17 = getelementptr inbounds i8, i8* %1, i64 104, !dbg !1718
  %18 = bitcast i8* %17 to i8**, !dbg !1721
  store i8* %1, i8** %18, align 8, !dbg !1721, !tbaa !1722
  %19 = getelementptr inbounds i8, i8* %1, i64 96, !dbg !1723
  %20 = bitcast i8* %19 to i8**, !dbg !1724
  store i8* %1, i8** %20, align 8, !dbg !1724, !tbaa !1725
  store i8* %1, i8** bitcast ([13 x %class.NameDB*]* @_ZL3dbs to i8**), align 16, !dbg !1726, !tbaa !1727
  %21 = tail call dereferenceable(96) i8* @_Znwm(i64 96) #12, !dbg !1728
  call void @llvm.dbg.value(metadata %class.String* undef, metadata !1644, metadata !DIExpression()), !dbg !1729
  call void @llvm.dbg.value(metadata i8* @_ZN6String9null_dataE, metadata !1647, metadata !DIExpression()), !dbg !1729
  call void @llvm.dbg.value(metadata i32 0, metadata !1648, metadata !DIExpression()), !dbg !1729
  call void @llvm.dbg.value(metadata %"struct.String::memo_t"* null, metadata !1649, metadata !DIExpression()), !dbg !1729
  call void @llvm.dbg.value(metadata i8* %21, metadata !1732, metadata !DIExpression()), !dbg !1745
  call void @llvm.dbg.value(metadata i32 67108867, metadata !1740, metadata !DIExpression()), !dbg !1745
  call void @llvm.dbg.value(metadata %class.String* undef, metadata !1741, metadata !DIExpression()), !dbg !1745
  call void @llvm.dbg.value(metadata %"struct.StaticNameDB::Entry"* getelementptr inbounds ([11 x %"struct.StaticNameDB::Entry"], [11 x %"struct.StaticNameDB::Entry"]* @_ZL9ip_protos, i64 0, i64 0), metadata !1742, metadata !DIExpression()), !dbg !1745
  call void @llvm.dbg.value(metadata i64 11, metadata !1743, metadata !DIExpression()), !dbg !1745
  call void @llvm.dbg.value(metadata i8* %21, metadata !1657, metadata !DIExpression()), !dbg !1747
  call void @llvm.dbg.value(metadata i32 67108867, metadata !1664, metadata !DIExpression()), !dbg !1747
  call void @llvm.dbg.value(metadata %class.String* undef, metadata !1665, metadata !DIExpression()), !dbg !1747
  call void @llvm.dbg.value(metadata i64 4, metadata !1666, metadata !DIExpression()), !dbg !1747
  %22 = bitcast i8* %21 to i32 (...)***, !dbg !1749
  %23 = getelementptr inbounds i8, i8* %21, i64 8, !dbg !1750
  %24 = bitcast i8* %23 to i32*, !dbg !1750
  store i32 67108867, i32* %24, align 8, !dbg !1750, !tbaa !1671
  %25 = getelementptr inbounds i8, i8* %21, i64 16, !dbg !1751
  call void @llvm.dbg.value(metadata %class.String* undef, metadata !1681, metadata !DIExpression()), !dbg !1752
  call void @llvm.dbg.value(metadata %class.String* undef, metadata !1687, metadata !DIExpression()), !dbg !1754
  call void @llvm.dbg.value(metadata i8* undef, metadata !1647, metadata !DIExpression()), !dbg !1756
  call void @llvm.dbg.value(metadata i32 0, metadata !1648, metadata !DIExpression()), !dbg !1756
  call void @llvm.dbg.value(metadata %"struct.String::memo_t"* null, metadata !1649, metadata !DIExpression()), !dbg !1756
  %26 = bitcast i8* %25 to i64*, !dbg !1758
  call void @llvm.dbg.value(metadata i64* %26, metadata !1684, metadata !DIExpression()), !dbg !1752
  call void @llvm.dbg.value(metadata i64* %26, metadata !1690, metadata !DIExpression()), !dbg !1754
  call void @llvm.dbg.value(metadata i64* %26, metadata !1644, metadata !DIExpression()), !dbg !1756
  store i64 ptrtoint (i8* @_ZN6String9null_dataE to i64), i64* %26, align 8, !dbg !1758, !tbaa !1697
  %27 = getelementptr inbounds i8, i8* %21, i64 24, !dbg !1759
  %28 = bitcast i8* %27 to i32*, !dbg !1759
  store i32 0, i32* %28, align 8, !dbg !1760, !tbaa !1700
  %29 = getelementptr inbounds i8, i8* %21, i64 32, !dbg !1761
  %30 = bitcast i8* %29 to %"struct.String::memo_t"**, !dbg !1761
  store %"struct.String::memo_t"* null, %"struct.String::memo_t"** %30, align 8, !dbg !1762, !tbaa !1704
  %31 = getelementptr inbounds i8, i8* %21, i64 40, !dbg !1763
  %32 = bitcast i8* %31 to i64*, !dbg !1763
  store i64 4, i64* %32, align 8, !dbg !1763, !tbaa !1706
  %33 = getelementptr inbounds i8, i8* %21, i64 48, !dbg !1764
  tail call void @llvm.memset.p0i8.i64(i8* nonnull align 8 dereferenceable(32) %33, i8 0, i64 32, i1 false), !dbg !1765
  store i32 (...)** bitcast (i8** getelementptr inbounds ({ [7 x i8*] }, { [7 x i8*] }* @_ZTV12StaticNameDB, i64 0, inrange i32 0, i64 2) to i32 (...)**), i32 (...)*** %22, align 8, !dbg !1766, !tbaa !1710
  %34 = getelementptr inbounds i8, i8* %21, i64 80, !dbg !1767
  %35 = bitcast i8* %34 to %"struct.StaticNameDB::Entry"**, !dbg !1767
  store %"struct.StaticNameDB::Entry"* getelementptr inbounds ([11 x %"struct.StaticNameDB::Entry"], [11 x %"struct.StaticNameDB::Entry"]* @_ZL9ip_protos, i64 0, i64 0), %"struct.StaticNameDB::Entry"** %35, align 8, !dbg !1767, !tbaa !1768
  %36 = getelementptr inbounds i8, i8* %21, i64 88, !dbg !1770
  %37 = bitcast i8* %36 to i64*, !dbg !1770
  store i64 11, i64* %37, align 8, !dbg !1770, !tbaa !1771
  store i8* %21, i8** bitcast (%class.NameDB** getelementptr inbounds ([13 x %class.NameDB*], [13 x %class.NameDB*]* @_ZL3dbs, i64 0, i64 1) to i8**), align 8, !dbg !1772, !tbaa !1727
  %38 = tail call dereferenceable(96) i8* @_Znwm(i64 96) #12, !dbg !1773
  call void @llvm.dbg.value(metadata %class.String* undef, metadata !1644, metadata !DIExpression()), !dbg !1774
  call void @llvm.dbg.value(metadata i8* @_ZN6String9null_dataE, metadata !1647, metadata !DIExpression()), !dbg !1774
  call void @llvm.dbg.value(metadata i32 0, metadata !1648, metadata !DIExpression()), !dbg !1774
  call void @llvm.dbg.value(metadata %"struct.String::memo_t"* null, metadata !1649, metadata !DIExpression()), !dbg !1774
  call void @llvm.dbg.value(metadata i8* %38, metadata !1732, metadata !DIExpression()), !dbg !1777
  call void @llvm.dbg.value(metadata i32 67174400, metadata !1740, metadata !DIExpression()), !dbg !1777
  call void @llvm.dbg.value(metadata %class.String* undef, metadata !1741, metadata !DIExpression()), !dbg !1777
  call void @llvm.dbg.value(metadata %"struct.StaticNameDB::Entry"* getelementptr inbounds ([15 x %"struct.StaticNameDB::Entry"], [15 x %"struct.StaticNameDB::Entry"]* @_ZL10icmp_types, i64 0, i64 0), metadata !1742, metadata !DIExpression()), !dbg !1777
  call void @llvm.dbg.value(metadata i64 15, metadata !1743, metadata !DIExpression()), !dbg !1777
  call void @llvm.dbg.value(metadata i8* %38, metadata !1657, metadata !DIExpression()), !dbg !1779
  call void @llvm.dbg.value(metadata i32 67174400, metadata !1664, metadata !DIExpression()), !dbg !1779
  call void @llvm.dbg.value(metadata %class.String* undef, metadata !1665, metadata !DIExpression()), !dbg !1779
  call void @llvm.dbg.value(metadata i64 4, metadata !1666, metadata !DIExpression()), !dbg !1779
  %39 = bitcast i8* %38 to i32 (...)***, !dbg !1781
  %40 = getelementptr inbounds i8, i8* %38, i64 8, !dbg !1782
  %41 = bitcast i8* %40 to i32*, !dbg !1782
  store i32 67174400, i32* %41, align 8, !dbg !1782, !tbaa !1671
  %42 = getelementptr inbounds i8, i8* %38, i64 16, !dbg !1783
  call void @llvm.dbg.value(metadata %class.String* undef, metadata !1681, metadata !DIExpression()), !dbg !1784
  call void @llvm.dbg.value(metadata %class.String* undef, metadata !1687, metadata !DIExpression()), !dbg !1786
  call void @llvm.dbg.value(metadata i8* undef, metadata !1647, metadata !DIExpression()), !dbg !1788
  call void @llvm.dbg.value(metadata i32 0, metadata !1648, metadata !DIExpression()), !dbg !1788
  call void @llvm.dbg.value(metadata %"struct.String::memo_t"* null, metadata !1649, metadata !DIExpression()), !dbg !1788
  %43 = bitcast i8* %42 to i64*, !dbg !1790
  call void @llvm.dbg.value(metadata i64* %43, metadata !1684, metadata !DIExpression()), !dbg !1784
  call void @llvm.dbg.value(metadata i64* %43, metadata !1690, metadata !DIExpression()), !dbg !1786
  call void @llvm.dbg.value(metadata i64* %43, metadata !1644, metadata !DIExpression()), !dbg !1788
  store i64 ptrtoint (i8* @_ZN6String9null_dataE to i64), i64* %43, align 8, !dbg !1790, !tbaa !1697
  %44 = getelementptr inbounds i8, i8* %38, i64 24, !dbg !1791
  %45 = bitcast i8* %44 to i32*, !dbg !1791
  store i32 0, i32* %45, align 8, !dbg !1792, !tbaa !1700
  %46 = getelementptr inbounds i8, i8* %38, i64 32, !dbg !1793
  %47 = bitcast i8* %46 to %"struct.String::memo_t"**, !dbg !1793
  store %"struct.String::memo_t"* null, %"struct.String::memo_t"** %47, align 8, !dbg !1794, !tbaa !1704
  %48 = getelementptr inbounds i8, i8* %38, i64 40, !dbg !1795
  %49 = bitcast i8* %48 to i64*, !dbg !1795
  store i64 4, i64* %49, align 8, !dbg !1795, !tbaa !1706
  %50 = getelementptr inbounds i8, i8* %38, i64 48, !dbg !1796
  tail call void @llvm.memset.p0i8.i64(i8* nonnull align 8 dereferenceable(32) %50, i8 0, i64 32, i1 false), !dbg !1797
  store i32 (...)** bitcast (i8** getelementptr inbounds ({ [7 x i8*] }, { [7 x i8*] }* @_ZTV12StaticNameDB, i64 0, inrange i32 0, i64 2) to i32 (...)**), i32 (...)*** %39, align 8, !dbg !1798, !tbaa !1710
  %51 = getelementptr inbounds i8, i8* %38, i64 80, !dbg !1799
  %52 = bitcast i8* %51 to %"struct.StaticNameDB::Entry"**, !dbg !1799
  store %"struct.StaticNameDB::Entry"* getelementptr inbounds ([15 x %"struct.StaticNameDB::Entry"], [15 x %"struct.StaticNameDB::Entry"]* @_ZL10icmp_types, i64 0, i64 0), %"struct.StaticNameDB::Entry"** %52, align 8, !dbg !1799, !tbaa !1768
  %53 = getelementptr inbounds i8, i8* %38, i64 88, !dbg !1800
  %54 = bitcast i8* %53 to i64*, !dbg !1800
  store i64 15, i64* %54, align 8, !dbg !1800, !tbaa !1771
  store i8* %38, i8** bitcast (%class.NameDB** getelementptr inbounds ([13 x %class.NameDB*], [13 x %class.NameDB*]* @_ZL3dbs, i64 0, i64 2) to i8**), align 16, !dbg !1801, !tbaa !1727
  %55 = tail call dereferenceable(96) i8* @_Znwm(i64 96) #12, !dbg !1802
  call void @llvm.dbg.value(metadata %class.String* undef, metadata !1644, metadata !DIExpression()), !dbg !1803
  call void @llvm.dbg.value(metadata i8* @_ZN6String9null_dataE, metadata !1647, metadata !DIExpression()), !dbg !1803
  call void @llvm.dbg.value(metadata i32 0, metadata !1648, metadata !DIExpression()), !dbg !1803
  call void @llvm.dbg.value(metadata %"struct.String::memo_t"* null, metadata !1649, metadata !DIExpression()), !dbg !1803
  call void @llvm.dbg.value(metadata i8* %55, metadata !1732, metadata !DIExpression()), !dbg !1806
  call void @llvm.dbg.value(metadata i32 67174659, metadata !1740, metadata !DIExpression()), !dbg !1806
  call void @llvm.dbg.value(metadata %class.String* undef, metadata !1741, metadata !DIExpression()), !dbg !1806
  call void @llvm.dbg.value(metadata %"struct.StaticNameDB::Entry"* getelementptr inbounds ([16 x %"struct.StaticNameDB::Entry"], [16 x %"struct.StaticNameDB::Entry"]* @_ZL18icmp_unreach_codes, i64 0, i64 0), metadata !1742, metadata !DIExpression()), !dbg !1806
  call void @llvm.dbg.value(metadata i64 16, metadata !1743, metadata !DIExpression()), !dbg !1806
  call void @llvm.dbg.value(metadata i8* %55, metadata !1657, metadata !DIExpression()), !dbg !1808
  call void @llvm.dbg.value(metadata i32 67174659, metadata !1664, metadata !DIExpression()), !dbg !1808
  call void @llvm.dbg.value(metadata %class.String* undef, metadata !1665, metadata !DIExpression()), !dbg !1808
  call void @llvm.dbg.value(metadata i64 4, metadata !1666, metadata !DIExpression()), !dbg !1808
  %56 = bitcast i8* %55 to i32 (...)***, !dbg !1810
  %57 = getelementptr inbounds i8, i8* %55, i64 8, !dbg !1811
  %58 = bitcast i8* %57 to i32*, !dbg !1811
  store i32 67174659, i32* %58, align 8, !dbg !1811, !tbaa !1671
  %59 = getelementptr inbounds i8, i8* %55, i64 16, !dbg !1812
  call void @llvm.dbg.value(metadata %class.String* undef, metadata !1681, metadata !DIExpression()), !dbg !1813
  call void @llvm.dbg.value(metadata %class.String* undef, metadata !1687, metadata !DIExpression()), !dbg !1815
  call void @llvm.dbg.value(metadata i8* undef, metadata !1647, metadata !DIExpression()), !dbg !1817
  call void @llvm.dbg.value(metadata i32 0, metadata !1648, metadata !DIExpression()), !dbg !1817
  call void @llvm.dbg.value(metadata %"struct.String::memo_t"* null, metadata !1649, metadata !DIExpression()), !dbg !1817
  %60 = bitcast i8* %59 to i64*, !dbg !1819
  call void @llvm.dbg.value(metadata i64* %60, metadata !1684, metadata !DIExpression()), !dbg !1813
  call void @llvm.dbg.value(metadata i64* %60, metadata !1690, metadata !DIExpression()), !dbg !1815
  call void @llvm.dbg.value(metadata i64* %60, metadata !1644, metadata !DIExpression()), !dbg !1817
  store i64 ptrtoint (i8* @_ZN6String9null_dataE to i64), i64* %60, align 8, !dbg !1819, !tbaa !1697
  %61 = getelementptr inbounds i8, i8* %55, i64 24, !dbg !1820
  %62 = bitcast i8* %61 to i32*, !dbg !1820
  store i32 0, i32* %62, align 8, !dbg !1821, !tbaa !1700
  %63 = getelementptr inbounds i8, i8* %55, i64 32, !dbg !1822
  %64 = bitcast i8* %63 to %"struct.String::memo_t"**, !dbg !1822
  store %"struct.String::memo_t"* null, %"struct.String::memo_t"** %64, align 8, !dbg !1823, !tbaa !1704
  %65 = getelementptr inbounds i8, i8* %55, i64 40, !dbg !1824
  %66 = bitcast i8* %65 to i64*, !dbg !1824
  store i64 4, i64* %66, align 8, !dbg !1824, !tbaa !1706
  %67 = getelementptr inbounds i8, i8* %55, i64 48, !dbg !1825
  tail call void @llvm.memset.p0i8.i64(i8* nonnull align 8 dereferenceable(32) %67, i8 0, i64 32, i1 false), !dbg !1826
  store i32 (...)** bitcast (i8** getelementptr inbounds ({ [7 x i8*] }, { [7 x i8*] }* @_ZTV12StaticNameDB, i64 0, inrange i32 0, i64 2) to i32 (...)**), i32 (...)*** %56, align 8, !dbg !1827, !tbaa !1710
  %68 = getelementptr inbounds i8, i8* %55, i64 80, !dbg !1828
  %69 = bitcast i8* %68 to %"struct.StaticNameDB::Entry"**, !dbg !1828
  store %"struct.StaticNameDB::Entry"* getelementptr inbounds ([16 x %"struct.StaticNameDB::Entry"], [16 x %"struct.StaticNameDB::Entry"]* @_ZL18icmp_unreach_codes, i64 0, i64 0), %"struct.StaticNameDB::Entry"** %69, align 8, !dbg !1828, !tbaa !1768
  %70 = getelementptr inbounds i8, i8* %55, i64 88, !dbg !1829
  %71 = bitcast i8* %70 to i64*, !dbg !1829
  store i64 16, i64* %71, align 8, !dbg !1829, !tbaa !1771
  store i8* %55, i8** bitcast (%class.NameDB** getelementptr inbounds ([13 x %class.NameDB*], [13 x %class.NameDB*]* @_ZL3dbs, i64 0, i64 3) to i8**), align 8, !dbg !1830, !tbaa !1727
  %72 = tail call dereferenceable(96) i8* @_Znwm(i64 96) #12, !dbg !1831
  call void @llvm.dbg.value(metadata %class.String* undef, metadata !1644, metadata !DIExpression()), !dbg !1832
  call void @llvm.dbg.value(metadata i8* @_ZN6String9null_dataE, metadata !1647, metadata !DIExpression()), !dbg !1832
  call void @llvm.dbg.value(metadata i32 0, metadata !1648, metadata !DIExpression()), !dbg !1832
  call void @llvm.dbg.value(metadata %"struct.String::memo_t"* null, metadata !1649, metadata !DIExpression()), !dbg !1832
  call void @llvm.dbg.value(metadata i8* %72, metadata !1732, metadata !DIExpression()), !dbg !1835
  call void @llvm.dbg.value(metadata i32 67174661, metadata !1740, metadata !DIExpression()), !dbg !1835
  call void @llvm.dbg.value(metadata %class.String* undef, metadata !1741, metadata !DIExpression()), !dbg !1835
  call void @llvm.dbg.value(metadata %"struct.StaticNameDB::Entry"* getelementptr inbounds ([4 x %"struct.StaticNameDB::Entry"], [4 x %"struct.StaticNameDB::Entry"]* @_ZL19icmp_redirect_codes, i64 0, i64 0), metadata !1742, metadata !DIExpression()), !dbg !1835
  call void @llvm.dbg.value(metadata i64 4, metadata !1743, metadata !DIExpression()), !dbg !1835
  call void @llvm.dbg.value(metadata i8* %72, metadata !1657, metadata !DIExpression()), !dbg !1837
  call void @llvm.dbg.value(metadata i32 67174661, metadata !1664, metadata !DIExpression()), !dbg !1837
  call void @llvm.dbg.value(metadata %class.String* undef, metadata !1665, metadata !DIExpression()), !dbg !1837
  call void @llvm.dbg.value(metadata i64 4, metadata !1666, metadata !DIExpression()), !dbg !1837
  %73 = bitcast i8* %72 to i32 (...)***, !dbg !1839
  %74 = getelementptr inbounds i8, i8* %72, i64 8, !dbg !1840
  %75 = bitcast i8* %74 to i32*, !dbg !1840
  store i32 67174661, i32* %75, align 8, !dbg !1840, !tbaa !1671
  %76 = getelementptr inbounds i8, i8* %72, i64 16, !dbg !1841
  call void @llvm.dbg.value(metadata %class.String* undef, metadata !1681, metadata !DIExpression()), !dbg !1842
  call void @llvm.dbg.value(metadata %class.String* undef, metadata !1687, metadata !DIExpression()), !dbg !1844
  call void @llvm.dbg.value(metadata i8* undef, metadata !1647, metadata !DIExpression()), !dbg !1846
  call void @llvm.dbg.value(metadata i32 0, metadata !1648, metadata !DIExpression()), !dbg !1846
  call void @llvm.dbg.value(metadata %"struct.String::memo_t"* null, metadata !1649, metadata !DIExpression()), !dbg !1846
  %77 = bitcast i8* %76 to i64*, !dbg !1848
  call void @llvm.dbg.value(metadata i64* %77, metadata !1684, metadata !DIExpression()), !dbg !1842
  call void @llvm.dbg.value(metadata i64* %77, metadata !1690, metadata !DIExpression()), !dbg !1844
  call void @llvm.dbg.value(metadata i64* %77, metadata !1644, metadata !DIExpression()), !dbg !1846
  store i64 ptrtoint (i8* @_ZN6String9null_dataE to i64), i64* %77, align 8, !dbg !1848, !tbaa !1697
  %78 = getelementptr inbounds i8, i8* %72, i64 24, !dbg !1849
  %79 = bitcast i8* %78 to i32*, !dbg !1849
  store i32 0, i32* %79, align 8, !dbg !1850, !tbaa !1700
  %80 = getelementptr inbounds i8, i8* %72, i64 32, !dbg !1851
  %81 = bitcast i8* %80 to %"struct.String::memo_t"**, !dbg !1851
  store %"struct.String::memo_t"* null, %"struct.String::memo_t"** %81, align 8, !dbg !1852, !tbaa !1704
  %82 = getelementptr inbounds i8, i8* %72, i64 40, !dbg !1853
  %83 = bitcast i8* %82 to i64*, !dbg !1853
  store i64 4, i64* %83, align 8, !dbg !1853, !tbaa !1706
  %84 = getelementptr inbounds i8, i8* %72, i64 48, !dbg !1854
  tail call void @llvm.memset.p0i8.i64(i8* nonnull align 8 dereferenceable(32) %84, i8 0, i64 32, i1 false), !dbg !1855
  store i32 (...)** bitcast (i8** getelementptr inbounds ({ [7 x i8*] }, { [7 x i8*] }* @_ZTV12StaticNameDB, i64 0, inrange i32 0, i64 2) to i32 (...)**), i32 (...)*** %73, align 8, !dbg !1856, !tbaa !1710
  %85 = getelementptr inbounds i8, i8* %72, i64 80, !dbg !1857
  %86 = bitcast i8* %85 to %"struct.StaticNameDB::Entry"**, !dbg !1857
  store %"struct.StaticNameDB::Entry"* getelementptr inbounds ([4 x %"struct.StaticNameDB::Entry"], [4 x %"struct.StaticNameDB::Entry"]* @_ZL19icmp_redirect_codes, i64 0, i64 0), %"struct.StaticNameDB::Entry"** %86, align 8, !dbg !1857, !tbaa !1768
  %87 = getelementptr inbounds i8, i8* %72, i64 88, !dbg !1858
  %88 = bitcast i8* %87 to i64*, !dbg !1858
  store i64 4, i64* %88, align 8, !dbg !1858, !tbaa !1771
  store i8* %72, i8** bitcast (%class.NameDB** getelementptr inbounds ([13 x %class.NameDB*], [13 x %class.NameDB*]* @_ZL3dbs, i64 0, i64 4) to i8**), align 16, !dbg !1859, !tbaa !1727
  %89 = tail call dereferenceable(96) i8* @_Znwm(i64 96) #12, !dbg !1860
  call void @llvm.dbg.value(metadata %class.String* undef, metadata !1644, metadata !DIExpression()), !dbg !1861
  call void @llvm.dbg.value(metadata i8* @_ZN6String9null_dataE, metadata !1647, metadata !DIExpression()), !dbg !1861
  call void @llvm.dbg.value(metadata i32 0, metadata !1648, metadata !DIExpression()), !dbg !1861
  call void @llvm.dbg.value(metadata %"struct.String::memo_t"* null, metadata !1649, metadata !DIExpression()), !dbg !1861
  call void @llvm.dbg.value(metadata i8* %89, metadata !1732, metadata !DIExpression()), !dbg !1864
  call void @llvm.dbg.value(metadata i32 67174667, metadata !1740, metadata !DIExpression()), !dbg !1864
  call void @llvm.dbg.value(metadata %class.String* undef, metadata !1741, metadata !DIExpression()), !dbg !1864
  call void @llvm.dbg.value(metadata %"struct.StaticNameDB::Entry"* getelementptr inbounds ([2 x %"struct.StaticNameDB::Entry"], [2 x %"struct.StaticNameDB::Entry"]* @_ZL19icmp_timxceed_codes, i64 0, i64 0), metadata !1742, metadata !DIExpression()), !dbg !1864
  call void @llvm.dbg.value(metadata i64 2, metadata !1743, metadata !DIExpression()), !dbg !1864
  call void @llvm.dbg.value(metadata i8* %89, metadata !1657, metadata !DIExpression()), !dbg !1866
  call void @llvm.dbg.value(metadata i32 67174667, metadata !1664, metadata !DIExpression()), !dbg !1866
  call void @llvm.dbg.value(metadata %class.String* undef, metadata !1665, metadata !DIExpression()), !dbg !1866
  call void @llvm.dbg.value(metadata i64 4, metadata !1666, metadata !DIExpression()), !dbg !1866
  %90 = bitcast i8* %89 to i32 (...)***, !dbg !1868
  %91 = getelementptr inbounds i8, i8* %89, i64 8, !dbg !1869
  %92 = bitcast i8* %91 to i32*, !dbg !1869
  store i32 67174667, i32* %92, align 8, !dbg !1869, !tbaa !1671
  %93 = getelementptr inbounds i8, i8* %89, i64 16, !dbg !1870
  call void @llvm.dbg.value(metadata %class.String* undef, metadata !1681, metadata !DIExpression()), !dbg !1871
  call void @llvm.dbg.value(metadata %class.String* undef, metadata !1687, metadata !DIExpression()), !dbg !1873
  call void @llvm.dbg.value(metadata i8* undef, metadata !1647, metadata !DIExpression()), !dbg !1875
  call void @llvm.dbg.value(metadata i32 0, metadata !1648, metadata !DIExpression()), !dbg !1875
  call void @llvm.dbg.value(metadata %"struct.String::memo_t"* null, metadata !1649, metadata !DIExpression()), !dbg !1875
  %94 = bitcast i8* %93 to i64*, !dbg !1877
  call void @llvm.dbg.value(metadata i64* %94, metadata !1684, metadata !DIExpression()), !dbg !1871
  call void @llvm.dbg.value(metadata i64* %94, metadata !1690, metadata !DIExpression()), !dbg !1873
  call void @llvm.dbg.value(metadata i64* %94, metadata !1644, metadata !DIExpression()), !dbg !1875
  store i64 ptrtoint (i8* @_ZN6String9null_dataE to i64), i64* %94, align 8, !dbg !1877, !tbaa !1697
  %95 = getelementptr inbounds i8, i8* %89, i64 24, !dbg !1878
  %96 = bitcast i8* %95 to i32*, !dbg !1878
  store i32 0, i32* %96, align 8, !dbg !1879, !tbaa !1700
  %97 = getelementptr inbounds i8, i8* %89, i64 32, !dbg !1880
  %98 = bitcast i8* %97 to %"struct.String::memo_t"**, !dbg !1880
  store %"struct.String::memo_t"* null, %"struct.String::memo_t"** %98, align 8, !dbg !1881, !tbaa !1704
  %99 = getelementptr inbounds i8, i8* %89, i64 40, !dbg !1882
  %100 = bitcast i8* %99 to i64*, !dbg !1882
  store i64 4, i64* %100, align 8, !dbg !1882, !tbaa !1706
  %101 = getelementptr inbounds i8, i8* %89, i64 48, !dbg !1883
  tail call void @llvm.memset.p0i8.i64(i8* nonnull align 8 dereferenceable(32) %101, i8 0, i64 32, i1 false), !dbg !1884
  store i32 (...)** bitcast (i8** getelementptr inbounds ({ [7 x i8*] }, { [7 x i8*] }* @_ZTV12StaticNameDB, i64 0, inrange i32 0, i64 2) to i32 (...)**), i32 (...)*** %90, align 8, !dbg !1885, !tbaa !1710
  %102 = getelementptr inbounds i8, i8* %89, i64 80, !dbg !1886
  %103 = bitcast i8* %102 to %"struct.StaticNameDB::Entry"**, !dbg !1886
  store %"struct.StaticNameDB::Entry"* getelementptr inbounds ([2 x %"struct.StaticNameDB::Entry"], [2 x %"struct.StaticNameDB::Entry"]* @_ZL19icmp_timxceed_codes, i64 0, i64 0), %"struct.StaticNameDB::Entry"** %103, align 8, !dbg !1886, !tbaa !1768
  %104 = getelementptr inbounds i8, i8* %89, i64 88, !dbg !1887
  %105 = bitcast i8* %104 to i64*, !dbg !1887
  store i64 2, i64* %105, align 8, !dbg !1887, !tbaa !1771
  store i8* %89, i8** bitcast (%class.NameDB** getelementptr inbounds ([13 x %class.NameDB*], [13 x %class.NameDB*]* @_ZL3dbs, i64 0, i64 5) to i8**), align 8, !dbg !1888, !tbaa !1727
  %106 = tail call dereferenceable(96) i8* @_Znwm(i64 96) #12, !dbg !1889
  call void @llvm.dbg.value(metadata %class.String* undef, metadata !1644, metadata !DIExpression()), !dbg !1890
  call void @llvm.dbg.value(metadata i8* @_ZN6String9null_dataE, metadata !1647, metadata !DIExpression()), !dbg !1890
  call void @llvm.dbg.value(metadata i32 0, metadata !1648, metadata !DIExpression()), !dbg !1890
  call void @llvm.dbg.value(metadata %"struct.String::memo_t"* null, metadata !1649, metadata !DIExpression()), !dbg !1890
  call void @llvm.dbg.value(metadata i8* %106, metadata !1732, metadata !DIExpression()), !dbg !1893
  call void @llvm.dbg.value(metadata i32 67174668, metadata !1740, metadata !DIExpression()), !dbg !1893
  call void @llvm.dbg.value(metadata %class.String* undef, metadata !1741, metadata !DIExpression()), !dbg !1893
  call void @llvm.dbg.value(metadata %"struct.StaticNameDB::Entry"* getelementptr inbounds ([3 x %"struct.StaticNameDB::Entry"], [3 x %"struct.StaticNameDB::Entry"]* @_ZL20icmp_paramprob_codes, i64 0, i64 0), metadata !1742, metadata !DIExpression()), !dbg !1893
  call void @llvm.dbg.value(metadata i64 3, metadata !1743, metadata !DIExpression()), !dbg !1893
  call void @llvm.dbg.value(metadata i8* %106, metadata !1657, metadata !DIExpression()), !dbg !1895
  call void @llvm.dbg.value(metadata i32 67174668, metadata !1664, metadata !DIExpression()), !dbg !1895
  call void @llvm.dbg.value(metadata %class.String* undef, metadata !1665, metadata !DIExpression()), !dbg !1895
  call void @llvm.dbg.value(metadata i64 4, metadata !1666, metadata !DIExpression()), !dbg !1895
  %107 = bitcast i8* %106 to i32 (...)***, !dbg !1897
  %108 = getelementptr inbounds i8, i8* %106, i64 8, !dbg !1898
  %109 = bitcast i8* %108 to i32*, !dbg !1898
  store i32 67174668, i32* %109, align 8, !dbg !1898, !tbaa !1671
  %110 = getelementptr inbounds i8, i8* %106, i64 16, !dbg !1899
  call void @llvm.dbg.value(metadata %class.String* undef, metadata !1681, metadata !DIExpression()), !dbg !1900
  call void @llvm.dbg.value(metadata %class.String* undef, metadata !1687, metadata !DIExpression()), !dbg !1902
  call void @llvm.dbg.value(metadata i8* undef, metadata !1647, metadata !DIExpression()), !dbg !1904
  call void @llvm.dbg.value(metadata i32 0, metadata !1648, metadata !DIExpression()), !dbg !1904
  call void @llvm.dbg.value(metadata %"struct.String::memo_t"* null, metadata !1649, metadata !DIExpression()), !dbg !1904
  %111 = bitcast i8* %110 to i64*, !dbg !1906
  call void @llvm.dbg.value(metadata i64* %111, metadata !1684, metadata !DIExpression()), !dbg !1900
  call void @llvm.dbg.value(metadata i64* %111, metadata !1690, metadata !DIExpression()), !dbg !1902
  call void @llvm.dbg.value(metadata i64* %111, metadata !1644, metadata !DIExpression()), !dbg !1904
  store i64 ptrtoint (i8* @_ZN6String9null_dataE to i64), i64* %111, align 8, !dbg !1906, !tbaa !1697
  %112 = getelementptr inbounds i8, i8* %106, i64 24, !dbg !1907
  %113 = bitcast i8* %112 to i32*, !dbg !1907
  store i32 0, i32* %113, align 8, !dbg !1908, !tbaa !1700
  %114 = getelementptr inbounds i8, i8* %106, i64 32, !dbg !1909
  %115 = bitcast i8* %114 to %"struct.String::memo_t"**, !dbg !1909
  store %"struct.String::memo_t"* null, %"struct.String::memo_t"** %115, align 8, !dbg !1910, !tbaa !1704
  %116 = getelementptr inbounds i8, i8* %106, i64 40, !dbg !1911
  %117 = bitcast i8* %116 to i64*, !dbg !1911
  store i64 4, i64* %117, align 8, !dbg !1911, !tbaa !1706
  %118 = getelementptr inbounds i8, i8* %106, i64 48, !dbg !1912
  tail call void @llvm.memset.p0i8.i64(i8* nonnull align 8 dereferenceable(32) %118, i8 0, i64 32, i1 false), !dbg !1913
  store i32 (...)** bitcast (i8** getelementptr inbounds ({ [7 x i8*] }, { [7 x i8*] }* @_ZTV12StaticNameDB, i64 0, inrange i32 0, i64 2) to i32 (...)**), i32 (...)*** %107, align 8, !dbg !1914, !tbaa !1710
  %119 = getelementptr inbounds i8, i8* %106, i64 80, !dbg !1915
  %120 = bitcast i8* %119 to %"struct.StaticNameDB::Entry"**, !dbg !1915
  store %"struct.StaticNameDB::Entry"* getelementptr inbounds ([3 x %"struct.StaticNameDB::Entry"], [3 x %"struct.StaticNameDB::Entry"]* @_ZL20icmp_paramprob_codes, i64 0, i64 0), %"struct.StaticNameDB::Entry"** %120, align 8, !dbg !1915, !tbaa !1768
  %121 = getelementptr inbounds i8, i8* %106, i64 88, !dbg !1916
  %122 = bitcast i8* %121 to i64*, !dbg !1916
  store i64 3, i64* %122, align 8, !dbg !1916, !tbaa !1771
  store i8* %106, i8** bitcast (%class.NameDB** getelementptr inbounds ([13 x %class.NameDB*], [13 x %class.NameDB*]* @_ZL3dbs, i64 0, i64 6) to i8**), align 16, !dbg !1917, !tbaa !1727
  %123 = tail call dereferenceable(112) i8* @_Znwm(i64 112) #12, !dbg !1918
  call void @llvm.dbg.value(metadata i8* %123, metadata !1637, metadata !DIExpression()), !dbg !1919
  call void @llvm.dbg.value(metadata i32 67239942, metadata !1640, metadata !DIExpression()), !dbg !1919
  call void @llvm.dbg.value(metadata %"class.(anonymous namespace)::ServicesNameDB"* null, metadata !1641, metadata !DIExpression()), !dbg !1919
  call void @llvm.dbg.value(metadata %class.String* undef, metadata !1644, metadata !DIExpression()), !dbg !1921
  call void @llvm.dbg.value(metadata i8* @_ZN6String9null_dataE, metadata !1647, metadata !DIExpression()), !dbg !1921
  call void @llvm.dbg.value(metadata i32 0, metadata !1648, metadata !DIExpression()), !dbg !1921
  call void @llvm.dbg.value(metadata %"struct.String::memo_t"* null, metadata !1649, metadata !DIExpression()), !dbg !1921
  call void @llvm.dbg.value(metadata i8* %123, metadata !1657, metadata !DIExpression()), !dbg !1924
  call void @llvm.dbg.value(metadata i32 67239942, metadata !1664, metadata !DIExpression()), !dbg !1924
  call void @llvm.dbg.value(metadata %class.String* undef, metadata !1665, metadata !DIExpression()), !dbg !1924
  call void @llvm.dbg.value(metadata i64 4, metadata !1666, metadata !DIExpression()), !dbg !1924
  %124 = bitcast i8* %123 to i32 (...)***, !dbg !1926
  %125 = getelementptr inbounds i8, i8* %123, i64 8, !dbg !1927
  %126 = bitcast i8* %125 to i32*, !dbg !1927
  store i32 67239942, i32* %126, align 8, !dbg !1927, !tbaa !1671
  %127 = getelementptr inbounds i8, i8* %123, i64 16, !dbg !1928
  call void @llvm.dbg.value(metadata %class.String* undef, metadata !1681, metadata !DIExpression()), !dbg !1929
  call void @llvm.dbg.value(metadata %class.String* undef, metadata !1687, metadata !DIExpression()), !dbg !1931
  call void @llvm.dbg.value(metadata i8* undef, metadata !1647, metadata !DIExpression()), !dbg !1933
  call void @llvm.dbg.value(metadata i32 0, metadata !1648, metadata !DIExpression()), !dbg !1933
  call void @llvm.dbg.value(metadata %"struct.String::memo_t"* null, metadata !1649, metadata !DIExpression()), !dbg !1933
  %128 = bitcast i8* %127 to i64*, !dbg !1935
  call void @llvm.dbg.value(metadata i64* %128, metadata !1684, metadata !DIExpression()), !dbg !1929
  call void @llvm.dbg.value(metadata i64* %128, metadata !1690, metadata !DIExpression()), !dbg !1931
  call void @llvm.dbg.value(metadata i64* %128, metadata !1644, metadata !DIExpression()), !dbg !1933
  store i64 ptrtoint (i8* @_ZN6String9null_dataE to i64), i64* %128, align 8, !dbg !1935, !tbaa !1697
  %129 = getelementptr inbounds i8, i8* %123, i64 24, !dbg !1936
  %130 = bitcast i8* %129 to i32*, !dbg !1936
  store i32 0, i32* %130, align 8, !dbg !1937, !tbaa !1700
  %131 = getelementptr inbounds i8, i8* %123, i64 32, !dbg !1938
  %132 = bitcast i8* %131 to %"struct.String::memo_t"**, !dbg !1938
  store %"struct.String::memo_t"* null, %"struct.String::memo_t"** %132, align 8, !dbg !1939, !tbaa !1704
  %133 = getelementptr inbounds i8, i8* %123, i64 40, !dbg !1940
  %134 = bitcast i8* %133 to i64*, !dbg !1940
  store i64 4, i64* %134, align 8, !dbg !1940, !tbaa !1706
  %135 = getelementptr inbounds i8, i8* %123, i64 48, !dbg !1941
  tail call void @llvm.memset.p0i8.i64(i8* nonnull align 8 dereferenceable(32) %135, i8 0, i64 32, i1 false), !dbg !1942
  store i32 (...)** bitcast (i8** getelementptr inbounds ({ [7 x i8*] }, { [7 x i8*] }* @_ZTVN12_GLOBAL__N_114ServicesNameDBE, i64 0, inrange i32 0, i64 2) to i32 (...)**), i32 (...)*** %124, align 8, !dbg !1943, !tbaa !1710
  %136 = getelementptr inbounds i8, i8* %123, i64 80, !dbg !1944
  %137 = bitcast i8* %136 to %class.DynamicNameDB**, !dbg !1944
  store %class.DynamicNameDB* null, %class.DynamicNameDB** %137, align 8, !dbg !1944, !tbaa !1713
  %138 = getelementptr inbounds i8, i8* %123, i64 88, !dbg !1945
  store i8 0, i8* %138, align 8, !dbg !1945, !tbaa !1717
  %139 = getelementptr inbounds i8, i8* %123, i64 104, !dbg !1946
  %140 = bitcast i8* %139 to i8**, !dbg !1947
  store i8* %123, i8** %140, align 8, !dbg !1947, !tbaa !1722
  %141 = getelementptr inbounds i8, i8* %123, i64 96, !dbg !1948
  %142 = bitcast i8* %141 to i8**, !dbg !1949
  store i8* %123, i8** %142, align 8, !dbg !1949, !tbaa !1725
  call void @llvm.dbg.value(metadata i8* %123, metadata !1611, metadata !DIExpression()), !dbg !1950
  store i8* %123, i8** bitcast (%class.NameDB** getelementptr inbounds ([13 x %class.NameDB*], [13 x %class.NameDB*]* @_ZL3dbs, i64 0, i64 7) to i8**), align 8, !dbg !1951, !tbaa !1727
  %143 = tail call dereferenceable(112) i8* @_Znwm(i64 112) #12, !dbg !1952
  call void @llvm.dbg.value(metadata i8* %143, metadata !1637, metadata !DIExpression()), !dbg !1953
  call void @llvm.dbg.value(metadata i32 67239953, metadata !1640, metadata !DIExpression()), !dbg !1953
  call void @llvm.dbg.value(metadata i8* %123, metadata !1641, metadata !DIExpression()), !dbg !1953
  call void @llvm.dbg.value(metadata %class.String* undef, metadata !1644, metadata !DIExpression()), !dbg !1955
  call void @llvm.dbg.value(metadata i8* @_ZN6String9null_dataE, metadata !1647, metadata !DIExpression()), !dbg !1955
  call void @llvm.dbg.value(metadata i32 0, metadata !1648, metadata !DIExpression()), !dbg !1955
  call void @llvm.dbg.value(metadata %"struct.String::memo_t"* null, metadata !1649, metadata !DIExpression()), !dbg !1955
  call void @llvm.dbg.value(metadata i8* %143, metadata !1657, metadata !DIExpression()), !dbg !1958
  call void @llvm.dbg.value(metadata i32 67239953, metadata !1664, metadata !DIExpression()), !dbg !1958
  call void @llvm.dbg.value(metadata %class.String* undef, metadata !1665, metadata !DIExpression()), !dbg !1958
  call void @llvm.dbg.value(metadata i64 4, metadata !1666, metadata !DIExpression()), !dbg !1958
  %144 = bitcast i8* %143 to i32 (...)***, !dbg !1960
  %145 = getelementptr inbounds i8, i8* %143, i64 8, !dbg !1961
  %146 = bitcast i8* %145 to i32*, !dbg !1961
  store i32 67239953, i32* %146, align 8, !dbg !1961, !tbaa !1671
  %147 = getelementptr inbounds i8, i8* %143, i64 16, !dbg !1962
  call void @llvm.dbg.value(metadata %class.String* undef, metadata !1681, metadata !DIExpression()), !dbg !1963
  call void @llvm.dbg.value(metadata %class.String* undef, metadata !1687, metadata !DIExpression()), !dbg !1965
  call void @llvm.dbg.value(metadata i8* undef, metadata !1647, metadata !DIExpression()), !dbg !1967
  call void @llvm.dbg.value(metadata i32 0, metadata !1648, metadata !DIExpression()), !dbg !1967
  call void @llvm.dbg.value(metadata %"struct.String::memo_t"* null, metadata !1649, metadata !DIExpression()), !dbg !1967
  %148 = bitcast i8* %147 to i64*, !dbg !1969
  call void @llvm.dbg.value(metadata i64* %148, metadata !1684, metadata !DIExpression()), !dbg !1963
  call void @llvm.dbg.value(metadata i64* %148, metadata !1690, metadata !DIExpression()), !dbg !1965
  call void @llvm.dbg.value(metadata i64* %148, metadata !1644, metadata !DIExpression()), !dbg !1967
  store i64 ptrtoint (i8* @_ZN6String9null_dataE to i64), i64* %148, align 8, !dbg !1969, !tbaa !1697
  %149 = getelementptr inbounds i8, i8* %143, i64 24, !dbg !1970
  %150 = bitcast i8* %149 to i32*, !dbg !1970
  store i32 0, i32* %150, align 8, !dbg !1971, !tbaa !1700
  %151 = getelementptr inbounds i8, i8* %143, i64 32, !dbg !1972
  %152 = bitcast i8* %151 to %"struct.String::memo_t"**, !dbg !1972
  store %"struct.String::memo_t"* null, %"struct.String::memo_t"** %152, align 8, !dbg !1973, !tbaa !1704
  %153 = getelementptr inbounds i8, i8* %143, i64 40, !dbg !1974
  %154 = bitcast i8* %153 to i64*, !dbg !1974
  store i64 4, i64* %154, align 8, !dbg !1974, !tbaa !1706
  %155 = getelementptr inbounds i8, i8* %143, i64 48, !dbg !1975
  tail call void @llvm.memset.p0i8.i64(i8* nonnull align 8 dereferenceable(32) %155, i8 0, i64 32, i1 false), !dbg !1976
  store i32 (...)** bitcast (i8** getelementptr inbounds ({ [7 x i8*] }, { [7 x i8*] }* @_ZTVN12_GLOBAL__N_114ServicesNameDBE, i64 0, inrange i32 0, i64 2) to i32 (...)**), i32 (...)*** %144, align 8, !dbg !1977, !tbaa !1710
  %156 = getelementptr inbounds i8, i8* %143, i64 80, !dbg !1978
  %157 = bitcast i8* %156 to %class.DynamicNameDB**, !dbg !1978
  store %class.DynamicNameDB* null, %class.DynamicNameDB** %157, align 8, !dbg !1978, !tbaa !1713
  %158 = getelementptr inbounds i8, i8* %143, i64 88, !dbg !1979
  store i8 0, i8* %158, align 8, !dbg !1979, !tbaa !1717
  %159 = getelementptr inbounds i8, i8* %143, i64 96, !dbg !1980
  %160 = bitcast i8* %159 to i8**, !dbg !1982
  store i8* %123, i8** %160, align 8, !dbg !1982, !tbaa !1725
  %161 = getelementptr inbounds i8, i8* %143, i64 104, !dbg !1983
  %162 = bitcast i8* %161 to i8**, !dbg !1984
  store i8* %123, i8** %162, align 8, !dbg !1984, !tbaa !1722
  %163 = getelementptr inbounds i8, i8* %123, i64 96, !dbg !1985
  %164 = bitcast i8* %163 to i8**, !dbg !1986
  store i8* %143, i8** %164, align 8, !dbg !1986, !tbaa !1725
  store i8* %143, i8** %140, align 8, !dbg !1987, !tbaa !1722
  store i8* %143, i8** bitcast (%class.NameDB** getelementptr inbounds ([13 x %class.NameDB*], [13 x %class.NameDB*]* @_ZL3dbs, i64 0, i64 8) to i8**), align 16, !dbg !1988, !tbaa !1727
  %165 = tail call dereferenceable(112) i8* @_Znwm(i64 112) #12, !dbg !1989
  call void @llvm.dbg.value(metadata i8* %165, metadata !1637, metadata !DIExpression()), !dbg !1990
  call void @llvm.dbg.value(metadata i32 67240068, metadata !1640, metadata !DIExpression()), !dbg !1990
  call void @llvm.dbg.value(metadata i8* %123, metadata !1641, metadata !DIExpression()), !dbg !1990
  call void @llvm.dbg.value(metadata %class.String* undef, metadata !1644, metadata !DIExpression()), !dbg !1992
  call void @llvm.dbg.value(metadata i8* @_ZN6String9null_dataE, metadata !1647, metadata !DIExpression()), !dbg !1992
  call void @llvm.dbg.value(metadata i32 0, metadata !1648, metadata !DIExpression()), !dbg !1992
  call void @llvm.dbg.value(metadata %"struct.String::memo_t"* null, metadata !1649, metadata !DIExpression()), !dbg !1992
  call void @llvm.dbg.value(metadata i8* %165, metadata !1657, metadata !DIExpression()), !dbg !1995
  call void @llvm.dbg.value(metadata i32 67240068, metadata !1664, metadata !DIExpression()), !dbg !1995
  call void @llvm.dbg.value(metadata %class.String* undef, metadata !1665, metadata !DIExpression()), !dbg !1995
  call void @llvm.dbg.value(metadata i64 4, metadata !1666, metadata !DIExpression()), !dbg !1995
  %166 = bitcast i8* %165 to i32 (...)***, !dbg !1997
  %167 = getelementptr inbounds i8, i8* %165, i64 8, !dbg !1998
  %168 = bitcast i8* %167 to i32*, !dbg !1998
  store i32 67240068, i32* %168, align 8, !dbg !1998, !tbaa !1671
  %169 = getelementptr inbounds i8, i8* %165, i64 16, !dbg !1999
  call void @llvm.dbg.value(metadata %class.String* undef, metadata !1681, metadata !DIExpression()), !dbg !2000
  call void @llvm.dbg.value(metadata %class.String* undef, metadata !1687, metadata !DIExpression()), !dbg !2002
  call void @llvm.dbg.value(metadata i8* undef, metadata !1647, metadata !DIExpression()), !dbg !2004
  call void @llvm.dbg.value(metadata i32 0, metadata !1648, metadata !DIExpression()), !dbg !2004
  call void @llvm.dbg.value(metadata %"struct.String::memo_t"* null, metadata !1649, metadata !DIExpression()), !dbg !2004
  %170 = bitcast i8* %169 to i64*, !dbg !2006
  call void @llvm.dbg.value(metadata i64* %170, metadata !1684, metadata !DIExpression()), !dbg !2000
  call void @llvm.dbg.value(metadata i64* %170, metadata !1690, metadata !DIExpression()), !dbg !2002
  call void @llvm.dbg.value(metadata i64* %170, metadata !1644, metadata !DIExpression()), !dbg !2004
  store i64 ptrtoint (i8* @_ZN6String9null_dataE to i64), i64* %170, align 8, !dbg !2006, !tbaa !1697
  %171 = getelementptr inbounds i8, i8* %165, i64 24, !dbg !2007
  %172 = bitcast i8* %171 to i32*, !dbg !2007
  store i32 0, i32* %172, align 8, !dbg !2008, !tbaa !1700
  %173 = getelementptr inbounds i8, i8* %165, i64 32, !dbg !2009
  %174 = bitcast i8* %173 to %"struct.String::memo_t"**, !dbg !2009
  store %"struct.String::memo_t"* null, %"struct.String::memo_t"** %174, align 8, !dbg !2010, !tbaa !1704
  %175 = getelementptr inbounds i8, i8* %165, i64 40, !dbg !2011
  %176 = bitcast i8* %175 to i64*, !dbg !2011
  store i64 4, i64* %176, align 8, !dbg !2011, !tbaa !1706
  %177 = getelementptr inbounds i8, i8* %165, i64 48, !dbg !2012
  tail call void @llvm.memset.p0i8.i64(i8* nonnull align 8 dereferenceable(32) %177, i8 0, i64 32, i1 false), !dbg !2013
  store i32 (...)** bitcast (i8** getelementptr inbounds ({ [7 x i8*] }, { [7 x i8*] }* @_ZTVN12_GLOBAL__N_114ServicesNameDBE, i64 0, inrange i32 0, i64 2) to i32 (...)**), i32 (...)*** %166, align 8, !dbg !2014, !tbaa !1710
  %178 = getelementptr inbounds i8, i8* %165, i64 80, !dbg !2015
  %179 = bitcast i8* %178 to %class.DynamicNameDB**, !dbg !2015
  store %class.DynamicNameDB* null, %class.DynamicNameDB** %179, align 8, !dbg !2015, !tbaa !1713
  %180 = getelementptr inbounds i8, i8* %165, i64 88, !dbg !2016
  store i8 0, i8* %180, align 8, !dbg !2016, !tbaa !1717
  %181 = getelementptr inbounds i8, i8* %165, i64 96, !dbg !2017
  %182 = bitcast i8* %181 to i8**, !dbg !2018
  store i8* %123, i8** %182, align 8, !dbg !2018, !tbaa !1725
  %183 = getelementptr inbounds i8, i8* %165, i64 104, !dbg !2019
  %184 = bitcast i8* %183 to i8**, !dbg !2020
  store i8* %143, i8** %184, align 8, !dbg !2020, !tbaa !1722
  %185 = getelementptr inbounds i8, i8* %143, i64 96, !dbg !2021
  %186 = bitcast i8* %185 to i8**, !dbg !2022
  store i8* %165, i8** %186, align 8, !dbg !2022, !tbaa !1725
  store i8* %165, i8** %140, align 8, !dbg !2023, !tbaa !1722
  store i8* %165, i8** bitcast (%class.NameDB** getelementptr inbounds ([13 x %class.NameDB*], [13 x %class.NameDB*]* @_ZL3dbs, i64 0, i64 9) to i8**), align 8, !dbg !2024, !tbaa !1727
  %187 = tail call dereferenceable(112) i8* @_Znwm(i64 112) #12, !dbg !2025
  call void @llvm.dbg.value(metadata i8* %187, metadata !1637, metadata !DIExpression()), !dbg !2026
  call void @llvm.dbg.value(metadata i32 67239969, metadata !1640, metadata !DIExpression()), !dbg !2026
  call void @llvm.dbg.value(metadata i8* %123, metadata !1641, metadata !DIExpression()), !dbg !2026
  call void @llvm.dbg.value(metadata %class.String* undef, metadata !1644, metadata !DIExpression()), !dbg !2028
  call void @llvm.dbg.value(metadata i8* @_ZN6String9null_dataE, metadata !1647, metadata !DIExpression()), !dbg !2028
  call void @llvm.dbg.value(metadata i32 0, metadata !1648, metadata !DIExpression()), !dbg !2028
  call void @llvm.dbg.value(metadata %"struct.String::memo_t"* null, metadata !1649, metadata !DIExpression()), !dbg !2028
  call void @llvm.dbg.value(metadata i8* %187, metadata !1657, metadata !DIExpression()), !dbg !2031
  call void @llvm.dbg.value(metadata i32 67239969, metadata !1664, metadata !DIExpression()), !dbg !2031
  call void @llvm.dbg.value(metadata %class.String* undef, metadata !1665, metadata !DIExpression()), !dbg !2031
  call void @llvm.dbg.value(metadata i64 4, metadata !1666, metadata !DIExpression()), !dbg !2031
  %188 = bitcast i8* %187 to i32 (...)***, !dbg !2033
  %189 = getelementptr inbounds i8, i8* %187, i64 8, !dbg !2034
  %190 = bitcast i8* %189 to i32*, !dbg !2034
  store i32 67239969, i32* %190, align 8, !dbg !2034, !tbaa !1671
  %191 = getelementptr inbounds i8, i8* %187, i64 16, !dbg !2035
  call void @llvm.dbg.value(metadata %class.String* undef, metadata !1681, metadata !DIExpression()), !dbg !2036
  call void @llvm.dbg.value(metadata %class.String* undef, metadata !1687, metadata !DIExpression()), !dbg !2038
  call void @llvm.dbg.value(metadata i8* undef, metadata !1647, metadata !DIExpression()), !dbg !2040
  call void @llvm.dbg.value(metadata i32 0, metadata !1648, metadata !DIExpression()), !dbg !2040
  call void @llvm.dbg.value(metadata %"struct.String::memo_t"* null, metadata !1649, metadata !DIExpression()), !dbg !2040
  %192 = bitcast i8* %191 to i64*, !dbg !2042
  call void @llvm.dbg.value(metadata i64* %192, metadata !1684, metadata !DIExpression()), !dbg !2036
  call void @llvm.dbg.value(metadata i64* %192, metadata !1690, metadata !DIExpression()), !dbg !2038
  call void @llvm.dbg.value(metadata i64* %192, metadata !1644, metadata !DIExpression()), !dbg !2040
  store i64 ptrtoint (i8* @_ZN6String9null_dataE to i64), i64* %192, align 8, !dbg !2042, !tbaa !1697
  %193 = getelementptr inbounds i8, i8* %187, i64 24, !dbg !2043
  %194 = bitcast i8* %193 to i32*, !dbg !2043
  store i32 0, i32* %194, align 8, !dbg !2044, !tbaa !1700
  %195 = getelementptr inbounds i8, i8* %187, i64 32, !dbg !2045
  %196 = bitcast i8* %195 to %"struct.String::memo_t"**, !dbg !2045
  store %"struct.String::memo_t"* null, %"struct.String::memo_t"** %196, align 8, !dbg !2046, !tbaa !1704
  %197 = getelementptr inbounds i8, i8* %187, i64 40, !dbg !2047
  %198 = bitcast i8* %197 to i64*, !dbg !2047
  store i64 4, i64* %198, align 8, !dbg !2047, !tbaa !1706
  %199 = getelementptr inbounds i8, i8* %187, i64 48, !dbg !2048
  tail call void @llvm.memset.p0i8.i64(i8* nonnull align 8 dereferenceable(32) %199, i8 0, i64 32, i1 false), !dbg !2049
  store i32 (...)** bitcast (i8** getelementptr inbounds ({ [7 x i8*] }, { [7 x i8*] }* @_ZTVN12_GLOBAL__N_114ServicesNameDBE, i64 0, inrange i32 0, i64 2) to i32 (...)**), i32 (...)*** %188, align 8, !dbg !2050, !tbaa !1710
  %200 = getelementptr inbounds i8, i8* %187, i64 80, !dbg !2051
  %201 = bitcast i8* %200 to %class.DynamicNameDB**, !dbg !2051
  store %class.DynamicNameDB* null, %class.DynamicNameDB** %201, align 8, !dbg !2051, !tbaa !1713
  %202 = getelementptr inbounds i8, i8* %187, i64 88, !dbg !2052
  store i8 0, i8* %202, align 8, !dbg !2052, !tbaa !1717
  %203 = getelementptr inbounds i8, i8* %187, i64 96, !dbg !2053
  %204 = bitcast i8* %203 to i8**, !dbg !2054
  store i8* %123, i8** %204, align 8, !dbg !2054, !tbaa !1725
  %205 = getelementptr inbounds i8, i8* %187, i64 104, !dbg !2055
  %206 = bitcast i8* %205 to i8**, !dbg !2056
  store i8* %165, i8** %206, align 8, !dbg !2056, !tbaa !1722
  %207 = getelementptr inbounds i8, i8* %165, i64 96, !dbg !2057
  %208 = bitcast i8* %207 to i8**, !dbg !2058
  store i8* %187, i8** %208, align 8, !dbg !2058, !tbaa !1725
  store i8* %187, i8** %140, align 8, !dbg !2059, !tbaa !1722
  store i8* %187, i8** bitcast (%class.NameDB** getelementptr inbounds ([13 x %class.NameDB*], [13 x %class.NameDB*]* @_ZL3dbs, i64 0, i64 10) to i8**), align 16, !dbg !2060, !tbaa !1727
  %209 = tail call dereferenceable(96) i8* @_Znwm(i64 96) #12, !dbg !2061
  call void @llvm.dbg.value(metadata %class.String* undef, metadata !1644, metadata !DIExpression()), !dbg !2062
  call void @llvm.dbg.value(metadata i8* @_ZN6String9null_dataE, metadata !1647, metadata !DIExpression()), !dbg !2062
  call void @llvm.dbg.value(metadata i32 0, metadata !1648, metadata !DIExpression()), !dbg !2062
  call void @llvm.dbg.value(metadata %"struct.String::memo_t"* null, metadata !1649, metadata !DIExpression()), !dbg !2062
  call void @llvm.dbg.value(metadata i8* %209, metadata !1732, metadata !DIExpression()), !dbg !2065
  call void @llvm.dbg.value(metadata i32 67239942, metadata !1740, metadata !DIExpression()), !dbg !2065
  call void @llvm.dbg.value(metadata %class.String* undef, metadata !1741, metadata !DIExpression()), !dbg !2065
  call void @llvm.dbg.value(metadata %"struct.StaticNameDB::Entry"* getelementptr inbounds ([34 x %"struct.StaticNameDB::Entry"], [34 x %"struct.StaticNameDB::Entry"]* @_ZL11known_ports, i64 0, i64 0), metadata !1742, metadata !DIExpression()), !dbg !2065
  call void @llvm.dbg.value(metadata i64 34, metadata !1743, metadata !DIExpression()), !dbg !2065
  call void @llvm.dbg.value(metadata i8* %209, metadata !1657, metadata !DIExpression()), !dbg !2067
  call void @llvm.dbg.value(metadata i32 67239942, metadata !1664, metadata !DIExpression()), !dbg !2067
  call void @llvm.dbg.value(metadata %class.String* undef, metadata !1665, metadata !DIExpression()), !dbg !2067
  call void @llvm.dbg.value(metadata i64 4, metadata !1666, metadata !DIExpression()), !dbg !2067
  %210 = bitcast i8* %209 to i32 (...)***, !dbg !2069
  %211 = getelementptr inbounds i8, i8* %209, i64 8, !dbg !2070
  %212 = bitcast i8* %211 to i32*, !dbg !2070
  store i32 67239942, i32* %212, align 8, !dbg !2070, !tbaa !1671
  %213 = getelementptr inbounds i8, i8* %209, i64 16, !dbg !2071
  call void @llvm.dbg.value(metadata %class.String* undef, metadata !1681, metadata !DIExpression()), !dbg !2072
  call void @llvm.dbg.value(metadata %class.String* undef, metadata !1687, metadata !DIExpression()), !dbg !2074
  call void @llvm.dbg.value(metadata i8* undef, metadata !1647, metadata !DIExpression()), !dbg !2076
  call void @llvm.dbg.value(metadata i32 0, metadata !1648, metadata !DIExpression()), !dbg !2076
  call void @llvm.dbg.value(metadata %"struct.String::memo_t"* null, metadata !1649, metadata !DIExpression()), !dbg !2076
  %214 = bitcast i8* %213 to i64*, !dbg !2078
  call void @llvm.dbg.value(metadata i64* %214, metadata !1684, metadata !DIExpression()), !dbg !2072
  call void @llvm.dbg.value(metadata i64* %214, metadata !1690, metadata !DIExpression()), !dbg !2074
  call void @llvm.dbg.value(metadata i64* %214, metadata !1644, metadata !DIExpression()), !dbg !2076
  store i64 ptrtoint (i8* @_ZN6String9null_dataE to i64), i64* %214, align 8, !dbg !2078, !tbaa !1697
  %215 = getelementptr inbounds i8, i8* %209, i64 24, !dbg !2079
  %216 = bitcast i8* %215 to i32*, !dbg !2079
  store i32 0, i32* %216, align 8, !dbg !2080, !tbaa !1700
  %217 = getelementptr inbounds i8, i8* %209, i64 32, !dbg !2081
  %218 = bitcast i8* %217 to %"struct.String::memo_t"**, !dbg !2081
  store %"struct.String::memo_t"* null, %"struct.String::memo_t"** %218, align 8, !dbg !2082, !tbaa !1704
  %219 = getelementptr inbounds i8, i8* %209, i64 40, !dbg !2083
  %220 = bitcast i8* %219 to i64*, !dbg !2083
  store i64 4, i64* %220, align 8, !dbg !2083, !tbaa !1706
  %221 = getelementptr inbounds i8, i8* %209, i64 48, !dbg !2084
  tail call void @llvm.memset.p0i8.i64(i8* nonnull align 8 dereferenceable(32) %221, i8 0, i64 32, i1 false), !dbg !2085
  store i32 (...)** bitcast (i8** getelementptr inbounds ({ [7 x i8*] }, { [7 x i8*] }* @_ZTV12StaticNameDB, i64 0, inrange i32 0, i64 2) to i32 (...)**), i32 (...)*** %210, align 8, !dbg !2086, !tbaa !1710
  %222 = getelementptr inbounds i8, i8* %209, i64 80, !dbg !2087
  %223 = bitcast i8* %222 to %"struct.StaticNameDB::Entry"**, !dbg !2087
  store %"struct.StaticNameDB::Entry"* getelementptr inbounds ([34 x %"struct.StaticNameDB::Entry"], [34 x %"struct.StaticNameDB::Entry"]* @_ZL11known_ports, i64 0, i64 0), %"struct.StaticNameDB::Entry"** %223, align 8, !dbg !2087, !tbaa !1768
  %224 = getelementptr inbounds i8, i8* %209, i64 88, !dbg !2088
  %225 = bitcast i8* %224 to i64*, !dbg !2088
  store i64 34, i64* %225, align 8, !dbg !2088, !tbaa !1771
  store i8* %209, i8** bitcast (%class.NameDB** getelementptr inbounds ([13 x %class.NameDB*], [13 x %class.NameDB*]* @_ZL3dbs, i64 0, i64 11) to i8**), align 8, !dbg !2089, !tbaa !1727
  %226 = tail call dereferenceable(96) i8* @_Znwm(i64 96) #12, !dbg !2090
  call void @llvm.dbg.value(metadata %class.String* undef, metadata !1644, metadata !DIExpression()), !dbg !2091
  call void @llvm.dbg.value(metadata i8* @_ZN6String9null_dataE, metadata !1647, metadata !DIExpression()), !dbg !2091
  call void @llvm.dbg.value(metadata i32 0, metadata !1648, metadata !DIExpression()), !dbg !2091
  call void @llvm.dbg.value(metadata %"struct.String::memo_t"* null, metadata !1649, metadata !DIExpression()), !dbg !2091
  call void @llvm.dbg.value(metadata i8* %226, metadata !1732, metadata !DIExpression()), !dbg !2094
  call void @llvm.dbg.value(metadata i32 67239953, metadata !1740, metadata !DIExpression()), !dbg !2094
  call void @llvm.dbg.value(metadata %class.String* undef, metadata !1741, metadata !DIExpression()), !dbg !2094
  call void @llvm.dbg.value(metadata %"struct.StaticNameDB::Entry"* getelementptr inbounds ([34 x %"struct.StaticNameDB::Entry"], [34 x %"struct.StaticNameDB::Entry"]* @_ZL11known_ports, i64 0, i64 0), metadata !1742, metadata !DIExpression()), !dbg !2094
  call void @llvm.dbg.value(metadata i64 34, metadata !1743, metadata !DIExpression()), !dbg !2094
  call void @llvm.dbg.value(metadata i8* %226, metadata !1657, metadata !DIExpression()), !dbg !2096
  call void @llvm.dbg.value(metadata i32 67239953, metadata !1664, metadata !DIExpression()), !dbg !2096
  call void @llvm.dbg.value(metadata %class.String* undef, metadata !1665, metadata !DIExpression()), !dbg !2096
  call void @llvm.dbg.value(metadata i64 4, metadata !1666, metadata !DIExpression()), !dbg !2096
  %227 = bitcast i8* %226 to i32 (...)***, !dbg !2098
  %228 = getelementptr inbounds i8, i8* %226, i64 8, !dbg !2099
  %229 = bitcast i8* %228 to i32*, !dbg !2099
  store i32 67239953, i32* %229, align 8, !dbg !2099, !tbaa !1671
  %230 = getelementptr inbounds i8, i8* %226, i64 16, !dbg !2100
  call void @llvm.dbg.value(metadata %class.String* undef, metadata !1681, metadata !DIExpression()), !dbg !2101
  call void @llvm.dbg.value(metadata %class.String* undef, metadata !1687, metadata !DIExpression()), !dbg !2103
  call void @llvm.dbg.value(metadata i8* undef, metadata !1647, metadata !DIExpression()), !dbg !2105
  call void @llvm.dbg.value(metadata i32 0, metadata !1648, metadata !DIExpression()), !dbg !2105
  call void @llvm.dbg.value(metadata %"struct.String::memo_t"* null, metadata !1649, metadata !DIExpression()), !dbg !2105
  %231 = bitcast i8* %230 to i64*, !dbg !2107
  call void @llvm.dbg.value(metadata i64* %231, metadata !1684, metadata !DIExpression()), !dbg !2101
  call void @llvm.dbg.value(metadata i64* %231, metadata !1690, metadata !DIExpression()), !dbg !2103
  call void @llvm.dbg.value(metadata i64* %231, metadata !1644, metadata !DIExpression()), !dbg !2105
  store i64 ptrtoint (i8* @_ZN6String9null_dataE to i64), i64* %231, align 8, !dbg !2107, !tbaa !1697
  %232 = getelementptr inbounds i8, i8* %226, i64 24, !dbg !2108
  %233 = bitcast i8* %232 to i32*, !dbg !2108
  store i32 0, i32* %233, align 8, !dbg !2109, !tbaa !1700
  %234 = getelementptr inbounds i8, i8* %226, i64 32, !dbg !2110
  %235 = bitcast i8* %234 to %"struct.String::memo_t"**, !dbg !2110
  store %"struct.String::memo_t"* null, %"struct.String::memo_t"** %235, align 8, !dbg !2111, !tbaa !1704
  %236 = getelementptr inbounds i8, i8* %226, i64 40, !dbg !2112
  %237 = bitcast i8* %236 to i64*, !dbg !2112
  store i64 4, i64* %237, align 8, !dbg !2112, !tbaa !1706
  %238 = getelementptr inbounds i8, i8* %226, i64 48, !dbg !2113
  tail call void @llvm.memset.p0i8.i64(i8* nonnull align 8 dereferenceable(32) %238, i8 0, i64 32, i1 false), !dbg !2114
  store i32 (...)** bitcast (i8** getelementptr inbounds ({ [7 x i8*] }, { [7 x i8*] }* @_ZTV12StaticNameDB, i64 0, inrange i32 0, i64 2) to i32 (...)**), i32 (...)*** %227, align 8, !dbg !2115, !tbaa !1710
  %239 = getelementptr inbounds i8, i8* %226, i64 80, !dbg !2116
  %240 = bitcast i8* %239 to %"struct.StaticNameDB::Entry"**, !dbg !2116
  store %"struct.StaticNameDB::Entry"* getelementptr inbounds ([34 x %"struct.StaticNameDB::Entry"], [34 x %"struct.StaticNameDB::Entry"]* @_ZL11known_ports, i64 0, i64 0), %"struct.StaticNameDB::Entry"** %240, align 8, !dbg !2116, !tbaa !1768
  %241 = getelementptr inbounds i8, i8* %226, i64 88, !dbg !2117
  %242 = bitcast i8* %241 to i64*, !dbg !2117
  store i64 34, i64* %242, align 8, !dbg !2117, !tbaa !1771
  store i8* %226, i8** bitcast (%class.NameDB** getelementptr inbounds ([13 x %class.NameDB*], [13 x %class.NameDB*]* @_ZL3dbs, i64 0, i64 12) to i8**), align 16, !dbg !2118, !tbaa !1727
  call void @llvm.dbg.value(metadata i64 0, metadata !1634, metadata !DIExpression()), !dbg !2119
  %243 = load %class.NameDB*, %class.NameDB** getelementptr inbounds ([13 x %class.NameDB*], [13 x %class.NameDB*]* @_ZL3dbs, i64 0, i64 0), align 16, !dbg !2120, !tbaa !1727
  %244 = icmp eq %class.NameDB* %243, null, !dbg !2120
  br i1 %244, label %246, label %245, !dbg !2123

245:                                              ; preds = %0
  tail call void @_ZN8NameInfo9installdbEP6NameDBPK7Element(%class.NameDB* nonnull %243, %class.Element* null), !dbg !2124
  br label %246, !dbg !2124

246:                                              ; preds = %0, %245
  call void @llvm.dbg.value(metadata i64 1, metadata !1634, metadata !DIExpression()), !dbg !2119
  %247 = load %class.NameDB*, %class.NameDB** getelementptr inbounds ([13 x %class.NameDB*], [13 x %class.NameDB*]* @_ZL3dbs, i64 0, i64 1), align 8, !dbg !2120, !tbaa !1727
  %248 = icmp eq %class.NameDB* %247, null, !dbg !2120
  br i1 %248, label %250, label %249, !dbg !2123

249:                                              ; preds = %246
  tail call void @_ZN8NameInfo9installdbEP6NameDBPK7Element(%class.NameDB* nonnull %247, %class.Element* null), !dbg !2124
  br label %250, !dbg !2124

250:                                              ; preds = %249, %246
  call void @llvm.dbg.value(metadata i64 2, metadata !1634, metadata !DIExpression()), !dbg !2119
  %251 = load %class.NameDB*, %class.NameDB** getelementptr inbounds ([13 x %class.NameDB*], [13 x %class.NameDB*]* @_ZL3dbs, i64 0, i64 2), align 16, !dbg !2120, !tbaa !1727
  %252 = icmp eq %class.NameDB* %251, null, !dbg !2120
  br i1 %252, label %254, label %253, !dbg !2123

253:                                              ; preds = %250
  tail call void @_ZN8NameInfo9installdbEP6NameDBPK7Element(%class.NameDB* nonnull %251, %class.Element* null), !dbg !2124
  br label %254, !dbg !2124

254:                                              ; preds = %253, %250
  call void @llvm.dbg.value(metadata i64 3, metadata !1634, metadata !DIExpression()), !dbg !2119
  %255 = load %class.NameDB*, %class.NameDB** getelementptr inbounds ([13 x %class.NameDB*], [13 x %class.NameDB*]* @_ZL3dbs, i64 0, i64 3), align 8, !dbg !2120, !tbaa !1727
  %256 = icmp eq %class.NameDB* %255, null, !dbg !2120
  br i1 %256, label %258, label %257, !dbg !2123

257:                                              ; preds = %254
  tail call void @_ZN8NameInfo9installdbEP6NameDBPK7Element(%class.NameDB* nonnull %255, %class.Element* null), !dbg !2124
  br label %258, !dbg !2124

258:                                              ; preds = %257, %254
  call void @llvm.dbg.value(metadata i64 4, metadata !1634, metadata !DIExpression()), !dbg !2119
  %259 = load %class.NameDB*, %class.NameDB** getelementptr inbounds ([13 x %class.NameDB*], [13 x %class.NameDB*]* @_ZL3dbs, i64 0, i64 4), align 16, !dbg !2120, !tbaa !1727
  %260 = icmp eq %class.NameDB* %259, null, !dbg !2120
  br i1 %260, label %262, label %261, !dbg !2123

261:                                              ; preds = %258
  tail call void @_ZN8NameInfo9installdbEP6NameDBPK7Element(%class.NameDB* nonnull %259, %class.Element* null), !dbg !2124
  br label %262, !dbg !2124

262:                                              ; preds = %261, %258
  call void @llvm.dbg.value(metadata i64 5, metadata !1634, metadata !DIExpression()), !dbg !2119
  %263 = load %class.NameDB*, %class.NameDB** getelementptr inbounds ([13 x %class.NameDB*], [13 x %class.NameDB*]* @_ZL3dbs, i64 0, i64 5), align 8, !dbg !2120, !tbaa !1727
  %264 = icmp eq %class.NameDB* %263, null, !dbg !2120
  br i1 %264, label %266, label %265, !dbg !2123

265:                                              ; preds = %262
  tail call void @_ZN8NameInfo9installdbEP6NameDBPK7Element(%class.NameDB* nonnull %263, %class.Element* null), !dbg !2124
  br label %266, !dbg !2124

266:                                              ; preds = %265, %262
  call void @llvm.dbg.value(metadata i64 6, metadata !1634, metadata !DIExpression()), !dbg !2119
  %267 = load %class.NameDB*, %class.NameDB** getelementptr inbounds ([13 x %class.NameDB*], [13 x %class.NameDB*]* @_ZL3dbs, i64 0, i64 6), align 16, !dbg !2120, !tbaa !1727
  %268 = icmp eq %class.NameDB* %267, null, !dbg !2120
  br i1 %268, label %270, label %269, !dbg !2123

269:                                              ; preds = %266
  tail call void @_ZN8NameInfo9installdbEP6NameDBPK7Element(%class.NameDB* nonnull %267, %class.Element* null), !dbg !2124
  br label %270, !dbg !2124

270:                                              ; preds = %269, %266
  call void @llvm.dbg.value(metadata i64 7, metadata !1634, metadata !DIExpression()), !dbg !2119
  %271 = load %class.NameDB*, %class.NameDB** getelementptr inbounds ([13 x %class.NameDB*], [13 x %class.NameDB*]* @_ZL3dbs, i64 0, i64 7), align 8, !dbg !2120, !tbaa !1727
  %272 = icmp eq %class.NameDB* %271, null, !dbg !2120
  br i1 %272, label %274, label %273, !dbg !2123

273:                                              ; preds = %270
  tail call void @_ZN8NameInfo9installdbEP6NameDBPK7Element(%class.NameDB* nonnull %271, %class.Element* null), !dbg !2124
  br label %274, !dbg !2124

274:                                              ; preds = %273, %270
  call void @llvm.dbg.value(metadata i64 8, metadata !1634, metadata !DIExpression()), !dbg !2119
  %275 = load %class.NameDB*, %class.NameDB** getelementptr inbounds ([13 x %class.NameDB*], [13 x %class.NameDB*]* @_ZL3dbs, i64 0, i64 8), align 16, !dbg !2120, !tbaa !1727
  %276 = icmp eq %class.NameDB* %275, null, !dbg !2120
  br i1 %276, label %278, label %277, !dbg !2123

277:                                              ; preds = %274
  tail call void @_ZN8NameInfo9installdbEP6NameDBPK7Element(%class.NameDB* nonnull %275, %class.Element* null), !dbg !2124
  br label %278, !dbg !2124

278:                                              ; preds = %277, %274
  call void @llvm.dbg.value(metadata i64 9, metadata !1634, metadata !DIExpression()), !dbg !2119
  %279 = load %class.NameDB*, %class.NameDB** getelementptr inbounds ([13 x %class.NameDB*], [13 x %class.NameDB*]* @_ZL3dbs, i64 0, i64 9), align 8, !dbg !2120, !tbaa !1727
  %280 = icmp eq %class.NameDB* %279, null, !dbg !2120
  br i1 %280, label %282, label %281, !dbg !2123

281:                                              ; preds = %278
  tail call void @_ZN8NameInfo9installdbEP6NameDBPK7Element(%class.NameDB* nonnull %279, %class.Element* null), !dbg !2124
  br label %282, !dbg !2124

282:                                              ; preds = %281, %278
  call void @llvm.dbg.value(metadata i64 10, metadata !1634, metadata !DIExpression()), !dbg !2119
  %283 = load %class.NameDB*, %class.NameDB** getelementptr inbounds ([13 x %class.NameDB*], [13 x %class.NameDB*]* @_ZL3dbs, i64 0, i64 10), align 16, !dbg !2120, !tbaa !1727
  %284 = icmp eq %class.NameDB* %283, null, !dbg !2120
  br i1 %284, label %286, label %285, !dbg !2123

285:                                              ; preds = %282
  tail call void @_ZN8NameInfo9installdbEP6NameDBPK7Element(%class.NameDB* nonnull %283, %class.Element* null), !dbg !2124
  br label %286, !dbg !2124

286:                                              ; preds = %285, %282
  call void @llvm.dbg.value(metadata i64 11, metadata !1634, metadata !DIExpression()), !dbg !2119
  %287 = load %class.NameDB*, %class.NameDB** getelementptr inbounds ([13 x %class.NameDB*], [13 x %class.NameDB*]* @_ZL3dbs, i64 0, i64 11), align 8, !dbg !2120, !tbaa !1727
  %288 = icmp eq %class.NameDB* %287, null, !dbg !2120
  br i1 %288, label %290, label %289, !dbg !2123

289:                                              ; preds = %286
  tail call void @_ZN8NameInfo9installdbEP6NameDBPK7Element(%class.NameDB* nonnull %287, %class.Element* null), !dbg !2124
  br label %290, !dbg !2124

290:                                              ; preds = %289, %286
  call void @llvm.dbg.value(metadata i64 12, metadata !1634, metadata !DIExpression()), !dbg !2119
  %291 = load %class.NameDB*, %class.NameDB** getelementptr inbounds ([13 x %class.NameDB*], [13 x %class.NameDB*]* @_ZL3dbs, i64 0, i64 12), align 16, !dbg !2120, !tbaa !1727
  %292 = icmp eq %class.NameDB* %291, null, !dbg !2120
  br i1 %292, label %294, label %293, !dbg !2123

293:                                              ; preds = %290
  tail call void @_ZN8NameInfo9installdbEP6NameDBPK7Element(%class.NameDB* nonnull %291, %class.Element* null), !dbg !2124
  br label %294, !dbg !2124

294:                                              ; preds = %293, %290
  call void @llvm.dbg.value(metadata i64 13, metadata !1634, metadata !DIExpression()), !dbg !2119
  ret void, !dbg !2125
}

; Function Attrs: nobuiltin nofree
declare noalias nonnull i8* @_Znwm(i64) local_unnamed_addr #1

declare i32 @__gxx_personality_v0(...)

; Function Attrs: nobuiltin nounwind
declare void @_ZdlPv(i8*) local_unnamed_addr #2

; Function Attrs: argmemonly nounwind willreturn
declare void @llvm.lifetime.start.p0i8(i64 immarg, i8* nocapture) #3

; Function Attrs: inlinehint nounwind sspstrong uwtable
define linkonce_odr dso_local void @_ZN6StringD2Ev(%class.String* %0) unnamed_addr #4 comdat align 2 personality i8* bitcast (i32 (...)* @__gxx_personality_v0 to i8*) !dbg !2126 {
  call void @llvm.dbg.value(metadata %class.String* %0, metadata !2128, metadata !DIExpression()), !dbg !2129
  call void @llvm.dbg.value(metadata %class.String* %0, metadata !2130, metadata !DIExpression()), !dbg !2133
  %2 = getelementptr inbounds %class.String, %class.String* %0, i64 0, i32 0, i32 2, !dbg !2136
  %3 = load %"struct.String::memo_t"*, %"struct.String::memo_t"** %2, align 8, !dbg !2136, !tbaa !1704
  %4 = icmp eq %"struct.String::memo_t"* %3, null, !dbg !2138
  br i1 %4, label %16, label %5, !dbg !2139

5:                                                ; preds = %1
  %6 = getelementptr inbounds %"struct.String::memo_t", %"struct.String::memo_t"* %3, i64 0, i32 0, !dbg !2140
  %7 = load volatile i32, i32* %6, align 4, !dbg !2140, !tbaa !2142
  %8 = icmp eq i32 %7, 0, !dbg !2140
  br i1 %8, label %9, label %10, !dbg !2140

9:                                                ; preds = %5
  tail call void @__assert_fail(i8* getelementptr inbounds ([18 x i8], [18 x i8]* @.str.21, i64 0, i64 0), i8* getelementptr inbounds ([29 x i8], [29 x i8]* @.str.22, i64 0, i64 0), i32 273, i8* getelementptr inbounds ([27 x i8], [27 x i8]* @__PRETTY_FUNCTION__._ZNK6String5derefEv, i64 0, i64 0)) #13, !dbg !2140
  unreachable, !dbg !2140

10:                                               ; preds = %5
  call void @llvm.dbg.value(metadata i32* %6, metadata !2144, metadata !DIExpression()), !dbg !2205
  %11 = load volatile i32, i32* %6, align 4, !dbg !2208, !tbaa !2209
  %12 = add i32 %11, -1, !dbg !2208
  store volatile i32 %12, i32* %6, align 4, !dbg !2208, !tbaa !2209
  %13 = icmp eq i32 %12, 0, !dbg !2210
  br i1 %13, label %14, label %15, !dbg !2211

14:                                               ; preds = %10
  invoke void @_ZN6String11delete_memoEPNS_6memo_tE(%"struct.String::memo_t"* nonnull %3)
          to label %15 unwind label %17, !dbg !2212

15:                                               ; preds = %14, %10
  store %"struct.String::memo_t"* null, %"struct.String::memo_t"** %2, align 8, !dbg !2213, !tbaa !1704
  br label %16, !dbg !2214

16:                                               ; preds = %15, %1
  ret void, !dbg !2215

17:                                               ; preds = %14
  %18 = landingpad { i8*, i32 }
          catch i8* null, !dbg !2216
  %19 = extractvalue { i8*, i32 } %18, 0, !dbg !2216
  tail call void @__clang_call_terminate(i8* %19) #13, !dbg !2216
  unreachable, !dbg !2216
}

; Function Attrs: argmemonly nounwind willreturn
declare void @llvm.lifetime.end.p0i8(i64 immarg, i8* nocapture) #3

; Function Attrs: nounwind readnone speculatable willreturn
declare void @llvm.dbg.declare(metadata, metadata, metadata) #5

declare void @_ZN8NameInfo9installdbEP6NameDBPK7Element(%class.NameDB*, %class.Element*) local_unnamed_addr #6

; Function Attrs: nounwind sspstrong uwtable
define dso_local void @_ZN10IPNameInfo14static_cleanupEv() local_unnamed_addr #7 align 2 !dbg !2217 {
  call void @llvm.dbg.value(metadata i64 0, metadata !2220, metadata !DIExpression()), !dbg !2222
  %1 = load %class.NameDB*, %class.NameDB** getelementptr inbounds ([13 x %class.NameDB*], [13 x %class.NameDB*]* @_ZL3dbs, i64 0, i64 0), align 16, !dbg !2223, !tbaa !1727
  %2 = icmp eq %class.NameDB* %1, null, !dbg !2223
  br i1 %2, label %8, label %3, !dbg !2226

3:                                                ; preds = %0
  %4 = bitcast %class.NameDB* %1 to void (%class.NameDB*)***, !dbg !2227
  %5 = load void (%class.NameDB*)**, void (%class.NameDB*)*** %4, align 8, !dbg !2227, !tbaa !1710
  %6 = getelementptr inbounds void (%class.NameDB*)*, void (%class.NameDB*)** %5, i64 1, !dbg !2227
  %7 = load void (%class.NameDB*)*, void (%class.NameDB*)** %6, align 8, !dbg !2227
  tail call void %7(%class.NameDB* nonnull %1) #14, !dbg !2227
  store %class.NameDB* null, %class.NameDB** getelementptr inbounds ([13 x %class.NameDB*], [13 x %class.NameDB*]* @_ZL3dbs, i64 0, i64 0), align 16, !dbg !2229, !tbaa !1727
  br label %8, !dbg !2230

8:                                                ; preds = %0, %3
  call void @llvm.dbg.value(metadata i64 1, metadata !2220, metadata !DIExpression()), !dbg !2222
  %9 = load %class.NameDB*, %class.NameDB** getelementptr inbounds ([13 x %class.NameDB*], [13 x %class.NameDB*]* @_ZL3dbs, i64 0, i64 1), align 8, !dbg !2223, !tbaa !1727
  %10 = icmp eq %class.NameDB* %9, null, !dbg !2223
  br i1 %10, label %16, label %11, !dbg !2226

11:                                               ; preds = %8
  %12 = bitcast %class.NameDB* %9 to void (%class.NameDB*)***, !dbg !2227
  %13 = load void (%class.NameDB*)**, void (%class.NameDB*)*** %12, align 8, !dbg !2227, !tbaa !1710
  %14 = getelementptr inbounds void (%class.NameDB*)*, void (%class.NameDB*)** %13, i64 1, !dbg !2227
  %15 = load void (%class.NameDB*)*, void (%class.NameDB*)** %14, align 8, !dbg !2227
  tail call void %15(%class.NameDB* nonnull %9) #14, !dbg !2227
  store %class.NameDB* null, %class.NameDB** getelementptr inbounds ([13 x %class.NameDB*], [13 x %class.NameDB*]* @_ZL3dbs, i64 0, i64 1), align 8, !dbg !2229, !tbaa !1727
  br label %16, !dbg !2230

16:                                               ; preds = %11, %8
  call void @llvm.dbg.value(metadata i64 2, metadata !2220, metadata !DIExpression()), !dbg !2222
  %17 = load %class.NameDB*, %class.NameDB** getelementptr inbounds ([13 x %class.NameDB*], [13 x %class.NameDB*]* @_ZL3dbs, i64 0, i64 2), align 16, !dbg !2223, !tbaa !1727
  %18 = icmp eq %class.NameDB* %17, null, !dbg !2223
  br i1 %18, label %24, label %19, !dbg !2226

19:                                               ; preds = %16
  %20 = bitcast %class.NameDB* %17 to void (%class.NameDB*)***, !dbg !2227
  %21 = load void (%class.NameDB*)**, void (%class.NameDB*)*** %20, align 8, !dbg !2227, !tbaa !1710
  %22 = getelementptr inbounds void (%class.NameDB*)*, void (%class.NameDB*)** %21, i64 1, !dbg !2227
  %23 = load void (%class.NameDB*)*, void (%class.NameDB*)** %22, align 8, !dbg !2227
  tail call void %23(%class.NameDB* nonnull %17) #14, !dbg !2227
  store %class.NameDB* null, %class.NameDB** getelementptr inbounds ([13 x %class.NameDB*], [13 x %class.NameDB*]* @_ZL3dbs, i64 0, i64 2), align 16, !dbg !2229, !tbaa !1727
  br label %24, !dbg !2230

24:                                               ; preds = %19, %16
  call void @llvm.dbg.value(metadata i64 3, metadata !2220, metadata !DIExpression()), !dbg !2222
  %25 = load %class.NameDB*, %class.NameDB** getelementptr inbounds ([13 x %class.NameDB*], [13 x %class.NameDB*]* @_ZL3dbs, i64 0, i64 3), align 8, !dbg !2223, !tbaa !1727
  %26 = icmp eq %class.NameDB* %25, null, !dbg !2223
  br i1 %26, label %32, label %27, !dbg !2226

27:                                               ; preds = %24
  %28 = bitcast %class.NameDB* %25 to void (%class.NameDB*)***, !dbg !2227
  %29 = load void (%class.NameDB*)**, void (%class.NameDB*)*** %28, align 8, !dbg !2227, !tbaa !1710
  %30 = getelementptr inbounds void (%class.NameDB*)*, void (%class.NameDB*)** %29, i64 1, !dbg !2227
  %31 = load void (%class.NameDB*)*, void (%class.NameDB*)** %30, align 8, !dbg !2227
  tail call void %31(%class.NameDB* nonnull %25) #14, !dbg !2227
  store %class.NameDB* null, %class.NameDB** getelementptr inbounds ([13 x %class.NameDB*], [13 x %class.NameDB*]* @_ZL3dbs, i64 0, i64 3), align 8, !dbg !2229, !tbaa !1727
  br label %32, !dbg !2230

32:                                               ; preds = %27, %24
  call void @llvm.dbg.value(metadata i64 4, metadata !2220, metadata !DIExpression()), !dbg !2222
  %33 = load %class.NameDB*, %class.NameDB** getelementptr inbounds ([13 x %class.NameDB*], [13 x %class.NameDB*]* @_ZL3dbs, i64 0, i64 4), align 16, !dbg !2223, !tbaa !1727
  %34 = icmp eq %class.NameDB* %33, null, !dbg !2223
  br i1 %34, label %40, label %35, !dbg !2226

35:                                               ; preds = %32
  %36 = bitcast %class.NameDB* %33 to void (%class.NameDB*)***, !dbg !2227
  %37 = load void (%class.NameDB*)**, void (%class.NameDB*)*** %36, align 8, !dbg !2227, !tbaa !1710
  %38 = getelementptr inbounds void (%class.NameDB*)*, void (%class.NameDB*)** %37, i64 1, !dbg !2227
  %39 = load void (%class.NameDB*)*, void (%class.NameDB*)** %38, align 8, !dbg !2227
  tail call void %39(%class.NameDB* nonnull %33) #14, !dbg !2227
  store %class.NameDB* null, %class.NameDB** getelementptr inbounds ([13 x %class.NameDB*], [13 x %class.NameDB*]* @_ZL3dbs, i64 0, i64 4), align 16, !dbg !2229, !tbaa !1727
  br label %40, !dbg !2230

40:                                               ; preds = %35, %32
  call void @llvm.dbg.value(metadata i64 5, metadata !2220, metadata !DIExpression()), !dbg !2222
  %41 = load %class.NameDB*, %class.NameDB** getelementptr inbounds ([13 x %class.NameDB*], [13 x %class.NameDB*]* @_ZL3dbs, i64 0, i64 5), align 8, !dbg !2223, !tbaa !1727
  %42 = icmp eq %class.NameDB* %41, null, !dbg !2223
  br i1 %42, label %48, label %43, !dbg !2226

43:                                               ; preds = %40
  %44 = bitcast %class.NameDB* %41 to void (%class.NameDB*)***, !dbg !2227
  %45 = load void (%class.NameDB*)**, void (%class.NameDB*)*** %44, align 8, !dbg !2227, !tbaa !1710
  %46 = getelementptr inbounds void (%class.NameDB*)*, void (%class.NameDB*)** %45, i64 1, !dbg !2227
  %47 = load void (%class.NameDB*)*, void (%class.NameDB*)** %46, align 8, !dbg !2227
  tail call void %47(%class.NameDB* nonnull %41) #14, !dbg !2227
  store %class.NameDB* null, %class.NameDB** getelementptr inbounds ([13 x %class.NameDB*], [13 x %class.NameDB*]* @_ZL3dbs, i64 0, i64 5), align 8, !dbg !2229, !tbaa !1727
  br label %48, !dbg !2230

48:                                               ; preds = %43, %40
  call void @llvm.dbg.value(metadata i64 6, metadata !2220, metadata !DIExpression()), !dbg !2222
  %49 = load %class.NameDB*, %class.NameDB** getelementptr inbounds ([13 x %class.NameDB*], [13 x %class.NameDB*]* @_ZL3dbs, i64 0, i64 6), align 16, !dbg !2223, !tbaa !1727
  %50 = icmp eq %class.NameDB* %49, null, !dbg !2223
  br i1 %50, label %56, label %51, !dbg !2226

51:                                               ; preds = %48
  %52 = bitcast %class.NameDB* %49 to void (%class.NameDB*)***, !dbg !2227
  %53 = load void (%class.NameDB*)**, void (%class.NameDB*)*** %52, align 8, !dbg !2227, !tbaa !1710
  %54 = getelementptr inbounds void (%class.NameDB*)*, void (%class.NameDB*)** %53, i64 1, !dbg !2227
  %55 = load void (%class.NameDB*)*, void (%class.NameDB*)** %54, align 8, !dbg !2227
  tail call void %55(%class.NameDB* nonnull %49) #14, !dbg !2227
  store %class.NameDB* null, %class.NameDB** getelementptr inbounds ([13 x %class.NameDB*], [13 x %class.NameDB*]* @_ZL3dbs, i64 0, i64 6), align 16, !dbg !2229, !tbaa !1727
  br label %56, !dbg !2230

56:                                               ; preds = %51, %48
  call void @llvm.dbg.value(metadata i64 7, metadata !2220, metadata !DIExpression()), !dbg !2222
  %57 = load %class.NameDB*, %class.NameDB** getelementptr inbounds ([13 x %class.NameDB*], [13 x %class.NameDB*]* @_ZL3dbs, i64 0, i64 7), align 8, !dbg !2223, !tbaa !1727
  %58 = icmp eq %class.NameDB* %57, null, !dbg !2223
  br i1 %58, label %64, label %59, !dbg !2226

59:                                               ; preds = %56
  %60 = bitcast %class.NameDB* %57 to void (%class.NameDB*)***, !dbg !2227
  %61 = load void (%class.NameDB*)**, void (%class.NameDB*)*** %60, align 8, !dbg !2227, !tbaa !1710
  %62 = getelementptr inbounds void (%class.NameDB*)*, void (%class.NameDB*)** %61, i64 1, !dbg !2227
  %63 = load void (%class.NameDB*)*, void (%class.NameDB*)** %62, align 8, !dbg !2227
  tail call void %63(%class.NameDB* nonnull %57) #14, !dbg !2227
  store %class.NameDB* null, %class.NameDB** getelementptr inbounds ([13 x %class.NameDB*], [13 x %class.NameDB*]* @_ZL3dbs, i64 0, i64 7), align 8, !dbg !2229, !tbaa !1727
  br label %64, !dbg !2230

64:                                               ; preds = %59, %56
  call void @llvm.dbg.value(metadata i64 8, metadata !2220, metadata !DIExpression()), !dbg !2222
  %65 = load %class.NameDB*, %class.NameDB** getelementptr inbounds ([13 x %class.NameDB*], [13 x %class.NameDB*]* @_ZL3dbs, i64 0, i64 8), align 16, !dbg !2223, !tbaa !1727
  %66 = icmp eq %class.NameDB* %65, null, !dbg !2223
  br i1 %66, label %72, label %67, !dbg !2226

67:                                               ; preds = %64
  %68 = bitcast %class.NameDB* %65 to void (%class.NameDB*)***, !dbg !2227
  %69 = load void (%class.NameDB*)**, void (%class.NameDB*)*** %68, align 8, !dbg !2227, !tbaa !1710
  %70 = getelementptr inbounds void (%class.NameDB*)*, void (%class.NameDB*)** %69, i64 1, !dbg !2227
  %71 = load void (%class.NameDB*)*, void (%class.NameDB*)** %70, align 8, !dbg !2227
  tail call void %71(%class.NameDB* nonnull %65) #14, !dbg !2227
  store %class.NameDB* null, %class.NameDB** getelementptr inbounds ([13 x %class.NameDB*], [13 x %class.NameDB*]* @_ZL3dbs, i64 0, i64 8), align 16, !dbg !2229, !tbaa !1727
  br label %72, !dbg !2230

72:                                               ; preds = %67, %64
  call void @llvm.dbg.value(metadata i64 9, metadata !2220, metadata !DIExpression()), !dbg !2222
  %73 = load %class.NameDB*, %class.NameDB** getelementptr inbounds ([13 x %class.NameDB*], [13 x %class.NameDB*]* @_ZL3dbs, i64 0, i64 9), align 8, !dbg !2223, !tbaa !1727
  %74 = icmp eq %class.NameDB* %73, null, !dbg !2223
  br i1 %74, label %80, label %75, !dbg !2226

75:                                               ; preds = %72
  %76 = bitcast %class.NameDB* %73 to void (%class.NameDB*)***, !dbg !2227
  %77 = load void (%class.NameDB*)**, void (%class.NameDB*)*** %76, align 8, !dbg !2227, !tbaa !1710
  %78 = getelementptr inbounds void (%class.NameDB*)*, void (%class.NameDB*)** %77, i64 1, !dbg !2227
  %79 = load void (%class.NameDB*)*, void (%class.NameDB*)** %78, align 8, !dbg !2227
  tail call void %79(%class.NameDB* nonnull %73) #14, !dbg !2227
  store %class.NameDB* null, %class.NameDB** getelementptr inbounds ([13 x %class.NameDB*], [13 x %class.NameDB*]* @_ZL3dbs, i64 0, i64 9), align 8, !dbg !2229, !tbaa !1727
  br label %80, !dbg !2230

80:                                               ; preds = %75, %72
  call void @llvm.dbg.value(metadata i64 10, metadata !2220, metadata !DIExpression()), !dbg !2222
  %81 = load %class.NameDB*, %class.NameDB** getelementptr inbounds ([13 x %class.NameDB*], [13 x %class.NameDB*]* @_ZL3dbs, i64 0, i64 10), align 16, !dbg !2223, !tbaa !1727
  %82 = icmp eq %class.NameDB* %81, null, !dbg !2223
  br i1 %82, label %88, label %83, !dbg !2226

83:                                               ; preds = %80
  %84 = bitcast %class.NameDB* %81 to void (%class.NameDB*)***, !dbg !2227
  %85 = load void (%class.NameDB*)**, void (%class.NameDB*)*** %84, align 8, !dbg !2227, !tbaa !1710
  %86 = getelementptr inbounds void (%class.NameDB*)*, void (%class.NameDB*)** %85, i64 1, !dbg !2227
  %87 = load void (%class.NameDB*)*, void (%class.NameDB*)** %86, align 8, !dbg !2227
  tail call void %87(%class.NameDB* nonnull %81) #14, !dbg !2227
  store %class.NameDB* null, %class.NameDB** getelementptr inbounds ([13 x %class.NameDB*], [13 x %class.NameDB*]* @_ZL3dbs, i64 0, i64 10), align 16, !dbg !2229, !tbaa !1727
  br label %88, !dbg !2230

88:                                               ; preds = %83, %80
  call void @llvm.dbg.value(metadata i64 11, metadata !2220, metadata !DIExpression()), !dbg !2222
  %89 = load %class.NameDB*, %class.NameDB** getelementptr inbounds ([13 x %class.NameDB*], [13 x %class.NameDB*]* @_ZL3dbs, i64 0, i64 11), align 8, !dbg !2223, !tbaa !1727
  %90 = icmp eq %class.NameDB* %89, null, !dbg !2223
  br i1 %90, label %96, label %91, !dbg !2226

91:                                               ; preds = %88
  %92 = bitcast %class.NameDB* %89 to void (%class.NameDB*)***, !dbg !2227
  %93 = load void (%class.NameDB*)**, void (%class.NameDB*)*** %92, align 8, !dbg !2227, !tbaa !1710
  %94 = getelementptr inbounds void (%class.NameDB*)*, void (%class.NameDB*)** %93, i64 1, !dbg !2227
  %95 = load void (%class.NameDB*)*, void (%class.NameDB*)** %94, align 8, !dbg !2227
  tail call void %95(%class.NameDB* nonnull %89) #14, !dbg !2227
  store %class.NameDB* null, %class.NameDB** getelementptr inbounds ([13 x %class.NameDB*], [13 x %class.NameDB*]* @_ZL3dbs, i64 0, i64 11), align 8, !dbg !2229, !tbaa !1727
  br label %96, !dbg !2230

96:                                               ; preds = %91, %88
  call void @llvm.dbg.value(metadata i64 12, metadata !2220, metadata !DIExpression()), !dbg !2222
  %97 = load %class.NameDB*, %class.NameDB** getelementptr inbounds ([13 x %class.NameDB*], [13 x %class.NameDB*]* @_ZL3dbs, i64 0, i64 12), align 16, !dbg !2223, !tbaa !1727
  %98 = icmp eq %class.NameDB* %97, null, !dbg !2223
  br i1 %98, label %104, label %99, !dbg !2226

99:                                               ; preds = %96
  %100 = bitcast %class.NameDB* %97 to void (%class.NameDB*)***, !dbg !2227
  %101 = load void (%class.NameDB*)**, void (%class.NameDB*)*** %100, align 8, !dbg !2227, !tbaa !1710
  %102 = getelementptr inbounds void (%class.NameDB*)*, void (%class.NameDB*)** %101, i64 1, !dbg !2227
  %103 = load void (%class.NameDB*)*, void (%class.NameDB*)** %102, align 8, !dbg !2227
  tail call void %103(%class.NameDB* nonnull %97) #14, !dbg !2227
  store %class.NameDB* null, %class.NameDB** getelementptr inbounds ([13 x %class.NameDB*], [13 x %class.NameDB*]* @_ZL3dbs, i64 0, i64 12), align 16, !dbg !2229, !tbaa !1727
  br label %104, !dbg !2230

104:                                              ; preds = %99, %96
  call void @llvm.dbg.value(metadata i64 13, metadata !2220, metadata !DIExpression()), !dbg !2222
  ret void, !dbg !2231
}

; Function Attrs: nounwind sspstrong uwtable
define internal void @_ZN12_GLOBAL__N_114ServicesNameDBD2Ev(%"class.(anonymous namespace)::ServicesNameDB"* %0) unnamed_addr #7 align 2 !dbg !2232 {
  call void @llvm.dbg.value(metadata %"class.(anonymous namespace)::ServicesNameDB"* %0, metadata !2234, metadata !DIExpression()), !dbg !2235
  %2 = getelementptr %"class.(anonymous namespace)::ServicesNameDB", %"class.(anonymous namespace)::ServicesNameDB"* %0, i64 0, i32 0, i32 0, !dbg !2236
  store i32 (...)** bitcast (i8** getelementptr inbounds ({ [7 x i8*] }, { [7 x i8*] }* @_ZTVN12_GLOBAL__N_114ServicesNameDBE, i64 0, inrange i32 0, i64 2) to i32 (...)**), i32 (...)*** %2, align 8, !dbg !2236, !tbaa !1710
  %3 = getelementptr inbounds %"class.(anonymous namespace)::ServicesNameDB", %"class.(anonymous namespace)::ServicesNameDB"* %0, i64 0, i32 4, !dbg !2237
  %4 = bitcast %"class.(anonymous namespace)::ServicesNameDB"** %3 to i64*, !dbg !2237
  %5 = load i64, i64* %4, align 8, !dbg !2237, !tbaa !1722
  %6 = getelementptr inbounds %"class.(anonymous namespace)::ServicesNameDB", %"class.(anonymous namespace)::ServicesNameDB"* %0, i64 0, i32 3, !dbg !2239
  %7 = load %"class.(anonymous namespace)::ServicesNameDB"*, %"class.(anonymous namespace)::ServicesNameDB"** %6, align 8, !dbg !2239, !tbaa !1725
  %8 = getelementptr inbounds %"class.(anonymous namespace)::ServicesNameDB", %"class.(anonymous namespace)::ServicesNameDB"* %7, i64 0, i32 4, !dbg !2240
  %9 = bitcast %"class.(anonymous namespace)::ServicesNameDB"** %8 to i64*, !dbg !2241
  store i64 %5, i64* %9, align 8, !dbg !2241, !tbaa !1722
  %10 = ptrtoint %"class.(anonymous namespace)::ServicesNameDB"* %7 to i64, !dbg !2242
  %11 = load %"class.(anonymous namespace)::ServicesNameDB"*, %"class.(anonymous namespace)::ServicesNameDB"** %3, align 8, !dbg !2243, !tbaa !1722
  %12 = getelementptr inbounds %"class.(anonymous namespace)::ServicesNameDB", %"class.(anonymous namespace)::ServicesNameDB"* %11, i64 0, i32 3, !dbg !2244
  %13 = bitcast %"class.(anonymous namespace)::ServicesNameDB"** %12 to i64*, !dbg !2245
  store i64 %10, i64* %13, align 8, !dbg !2245, !tbaa !1725
  %14 = getelementptr inbounds %"class.(anonymous namespace)::ServicesNameDB", %"class.(anonymous namespace)::ServicesNameDB"* %0, i64 0, i32 1, !dbg !2246
  %15 = load %class.DynamicNameDB*, %class.DynamicNameDB** %14, align 8, !dbg !2246, !tbaa !1713
  %16 = icmp eq %class.DynamicNameDB* %15, null, !dbg !2247
  br i1 %16, label %22, label %17, !dbg !2247

17:                                               ; preds = %1
  %18 = bitcast %class.DynamicNameDB* %15 to void (%class.DynamicNameDB*)***, !dbg !2247
  %19 = load void (%class.DynamicNameDB*)**, void (%class.DynamicNameDB*)*** %18, align 8, !dbg !2247, !tbaa !1710
  %20 = getelementptr inbounds void (%class.DynamicNameDB*)*, void (%class.DynamicNameDB*)** %19, i64 1, !dbg !2247
  %21 = load void (%class.DynamicNameDB*)*, void (%class.DynamicNameDB*)** %20, align 8, !dbg !2247
  tail call void %21(%class.DynamicNameDB* nonnull %15) #14, !dbg !2247
  br label %22, !dbg !2247

22:                                               ; preds = %17, %1
  %23 = getelementptr %"class.(anonymous namespace)::ServicesNameDB", %"class.(anonymous namespace)::ServicesNameDB"* %0, i64 0, i32 0, !dbg !2248
  tail call void @_ZN6NameDBD2Ev(%class.NameDB* %23) #14, !dbg !2248
  ret void, !dbg !2249
}

; Function Attrs: nounwind sspstrong uwtable
define internal void @_ZN12_GLOBAL__N_114ServicesNameDBD0Ev(%"class.(anonymous namespace)::ServicesNameDB"* %0) unnamed_addr #7 align 2 !dbg !2250 {
  call void @llvm.dbg.value(metadata %"class.(anonymous namespace)::ServicesNameDB"* %0, metadata !2252, metadata !DIExpression()), !dbg !2253
  call void @llvm.dbg.value(metadata %"class.(anonymous namespace)::ServicesNameDB"* %0, metadata !2234, metadata !DIExpression()) #14, !dbg !2254
  %2 = getelementptr %"class.(anonymous namespace)::ServicesNameDB", %"class.(anonymous namespace)::ServicesNameDB"* %0, i64 0, i32 0, i32 0, !dbg !2256
  store i32 (...)** bitcast (i8** getelementptr inbounds ({ [7 x i8*] }, { [7 x i8*] }* @_ZTVN12_GLOBAL__N_114ServicesNameDBE, i64 0, inrange i32 0, i64 2) to i32 (...)**), i32 (...)*** %2, align 8, !dbg !2256, !tbaa !1710
  %3 = getelementptr inbounds %"class.(anonymous namespace)::ServicesNameDB", %"class.(anonymous namespace)::ServicesNameDB"* %0, i64 0, i32 4, !dbg !2257
  %4 = bitcast %"class.(anonymous namespace)::ServicesNameDB"** %3 to i64*, !dbg !2257
  %5 = load i64, i64* %4, align 8, !dbg !2257, !tbaa !1722
  %6 = getelementptr inbounds %"class.(anonymous namespace)::ServicesNameDB", %"class.(anonymous namespace)::ServicesNameDB"* %0, i64 0, i32 3, !dbg !2258
  %7 = load %"class.(anonymous namespace)::ServicesNameDB"*, %"class.(anonymous namespace)::ServicesNameDB"** %6, align 8, !dbg !2258, !tbaa !1725
  %8 = getelementptr inbounds %"class.(anonymous namespace)::ServicesNameDB", %"class.(anonymous namespace)::ServicesNameDB"* %7, i64 0, i32 4, !dbg !2259
  %9 = bitcast %"class.(anonymous namespace)::ServicesNameDB"** %8 to i64*, !dbg !2260
  store i64 %5, i64* %9, align 8, !dbg !2260, !tbaa !1722
  %10 = ptrtoint %"class.(anonymous namespace)::ServicesNameDB"* %7 to i64, !dbg !2261
  %11 = load %"class.(anonymous namespace)::ServicesNameDB"*, %"class.(anonymous namespace)::ServicesNameDB"** %3, align 8, !dbg !2262, !tbaa !1722
  %12 = getelementptr inbounds %"class.(anonymous namespace)::ServicesNameDB", %"class.(anonymous namespace)::ServicesNameDB"* %11, i64 0, i32 3, !dbg !2263
  %13 = bitcast %"class.(anonymous namespace)::ServicesNameDB"** %12 to i64*, !dbg !2264
  store i64 %10, i64* %13, align 8, !dbg !2264, !tbaa !1725
  %14 = getelementptr inbounds %"class.(anonymous namespace)::ServicesNameDB", %"class.(anonymous namespace)::ServicesNameDB"* %0, i64 0, i32 1, !dbg !2265
  %15 = load %class.DynamicNameDB*, %class.DynamicNameDB** %14, align 8, !dbg !2265, !tbaa !1713
  %16 = icmp eq %class.DynamicNameDB* %15, null, !dbg !2266
  br i1 %16, label %22, label %17, !dbg !2266

17:                                               ; preds = %1
  %18 = bitcast %class.DynamicNameDB* %15 to void (%class.DynamicNameDB*)***, !dbg !2266
  %19 = load void (%class.DynamicNameDB*)**, void (%class.DynamicNameDB*)*** %18, align 8, !dbg !2266, !tbaa !1710
  %20 = getelementptr inbounds void (%class.DynamicNameDB*)*, void (%class.DynamicNameDB*)** %19, i64 1, !dbg !2266
  %21 = load void (%class.DynamicNameDB*)*, void (%class.DynamicNameDB*)** %20, align 8, !dbg !2266
  tail call void %21(%class.DynamicNameDB* nonnull %15) #14, !dbg !2266
  br label %22, !dbg !2266

22:                                               ; preds = %1, %17
  %23 = getelementptr %"class.(anonymous namespace)::ServicesNameDB", %"class.(anonymous namespace)::ServicesNameDB"* %0, i64 0, i32 0, !dbg !2267
  tail call void @_ZN6NameDBD2Ev(%class.NameDB* %23) #14, !dbg !2267
  %24 = bitcast %"class.(anonymous namespace)::ServicesNameDB"* %0 to i8*, !dbg !2268
  tail call void @_ZdlPv(i8* %24) #15, !dbg !2268
  ret void, !dbg !2269
}

; Function Attrs: sspstrong uwtable
define internal zeroext i1 @_ZN12_GLOBAL__N_114ServicesNameDB5queryERK6StringPvm(%"class.(anonymous namespace)::ServicesNameDB"* %0, %class.String* dereferenceable(24) %1, i8* %2, i64 %3) unnamed_addr #0 align 2 personality i32 (...)* @__gxx_personality_v0 !dbg !2270 {
  %5 = alloca %class.String, align 8
  call void @llvm.dbg.declare(metadata %class.String* %5, metadata !2299, metadata !DIExpression()), !dbg !2321
  %6 = alloca %class.String, align 8
  %7 = alloca %class.Vector.0, align 8
  call void @llvm.dbg.declare(metadata %class.Vector.0* %7, metadata !2304, metadata !DIExpression()), !dbg !2324
  %8 = alloca i32, align 4
  %9 = alloca i32, align 4
  %10 = alloca %class.String, align 8
  %11 = alloca %class.String, align 8
  %12 = alloca [1 x i32], align 4
  call void @llvm.dbg.declare(metadata [1 x i32]* %12, metadata !716, metadata !DIExpression()), !dbg !2325
  %13 = alloca %class.IntArg, align 4
  call void @llvm.dbg.value(metadata %"class.(anonymous namespace)::ServicesNameDB"* %0, metadata !2272, metadata !DIExpression()), !dbg !2338
  call void @llvm.dbg.value(metadata %class.String* %1, metadata !2273, metadata !DIExpression()), !dbg !2338
  call void @llvm.dbg.value(metadata i8* %2, metadata !2274, metadata !DIExpression()), !dbg !2338
  call void @llvm.dbg.value(metadata i64 %3, metadata !2275, metadata !DIExpression()), !dbg !2338
  %14 = icmp eq i64 %3, 4, !dbg !2339
  br i1 %14, label %16, label %15, !dbg !2339

15:                                               ; preds = %4
  tail call void @__assert_fail(i8* getelementptr inbounds ([11 x i8], [11 x i8]* @.str.2, i64 0, i64 0), i8* getelementptr inbounds ([29 x i8], [29 x i8]* @.str.3, i64 0, i64 0), i32 312, i8* getelementptr inbounds ([90 x i8], [90 x i8]* @__PRETTY_FUNCTION__._ZN12_GLOBAL__N_114ServicesNameDB5queryERK6StringPvm, i64 0, i64 0)) #13, !dbg !2339
  unreachable, !dbg !2339

16:                                               ; preds = %4
  %17 = bitcast %class.IntArg* %13 to i8*, !dbg !2340
  call void @llvm.lifetime.start.p0i8(i64 8, i8* nonnull %17) #14, !dbg !2340
  call void @llvm.dbg.value(metadata %class.IntArg* %13, metadata !2341, metadata !DIExpression()), !dbg !2345
  call void @llvm.dbg.value(metadata i32 0, metadata !2344, metadata !DIExpression()), !dbg !2345
  %18 = getelementptr inbounds %class.IntArg, %class.IntArg* %13, i64 0, i32 0, !dbg !2347
  store i32 0, i32* %18, align 4, !dbg !2347, !tbaa !2348
  call void @llvm.dbg.value(metadata %class.IntArg* %13, metadata !2331, metadata !DIExpression()), !dbg !2350
  call void @llvm.dbg.value(metadata %class.String* %1, metadata !2332, metadata !DIExpression()), !dbg !2350
  call void @llvm.dbg.value(metadata %class.ArgContext* @blank_args, metadata !2334, metadata !DIExpression()), !dbg !2350
  call void @llvm.dbg.value(metadata %class.IntArg* %13, metadata !708, metadata !DIExpression()), !dbg !2351
  call void @llvm.dbg.value(metadata %class.String* %1, metadata !710, metadata !DIExpression()), !dbg !2351
  call void @llvm.dbg.value(metadata %class.ArgContext* @blank_args, metadata !712, metadata !DIExpression()), !dbg !2351
  call void @llvm.dbg.value(metadata i8 1, metadata !713, metadata !DIExpression()), !dbg !2351
  call void @llvm.dbg.value(metadata i32 1, metadata !714, metadata !DIExpression()), !dbg !2351
  %19 = bitcast [1 x i32]* %12 to i8*, !dbg !2352
  call void @llvm.lifetime.start.p0i8(i64 4, i8* nonnull %19) #14, !dbg !2352
  call void @llvm.dbg.value(metadata %class.String* %1, metadata !2353, metadata !DIExpression()), !dbg !2356
  %20 = getelementptr inbounds %class.String, %class.String* %1, i64 0, i32 0, i32 0, !dbg !2359
  %21 = load i8*, i8** %20, align 8, !dbg !2359, !tbaa !1697
  call void @llvm.dbg.value(metadata %class.String* %1, metadata !2360, metadata !DIExpression()), !dbg !2363
  %22 = getelementptr inbounds %class.String, %class.String* %1, i64 0, i32 0, i32 1, !dbg !2365
  %23 = load i32, i32* %22, align 8, !dbg !2365, !tbaa !1700
  %24 = sext i32 %23 to i64, !dbg !2366
  %25 = getelementptr inbounds i8, i8* %21, i64 %24, !dbg !2366
  %26 = getelementptr inbounds [1 x i32], [1 x i32]* %12, i64 0, i64 0, !dbg !2367
  %27 = call i8* @_ZN6IntArg5parseEPKcS1_biPji(%class.IntArg* nonnull %13, i8* %21, i8* %25, i1 zeroext true, i32 4, i32* nonnull %26, i32 1), !dbg !2368
  call void @llvm.dbg.value(metadata %class.String* %1, metadata !2360, metadata !DIExpression()), !dbg !2369
  %28 = load i8*, i8** %20, align 8, !dbg !2371, !tbaa !1697
  %29 = load i32, i32* %22, align 8, !dbg !2372, !tbaa !1700
  %30 = sext i32 %29 to i64, !dbg !2373
  %31 = getelementptr inbounds i8, i8* %28, i64 %30, !dbg !2373
  %32 = icmp eq i8* %27, %31, !dbg !2374
  %33 = getelementptr inbounds %class.IntArg, %class.IntArg* %13, i64 0, i32 1, !dbg !2351
  br i1 %32, label %35, label %34, !dbg !2375

34:                                               ; preds = %16
  store i32 22, i32* %33, align 4, !dbg !2376, !tbaa !2377
  br label %37, !dbg !2378

35:                                               ; preds = %16
  %36 = load i32, i32* %33, align 4, !dbg !2380, !tbaa !2377
  switch i32 %36, label %37 [
    i32 0, label %38
    i32 34, label %38
  ], !dbg !2378

37:                                               ; preds = %35, %34
  call void (%class.ArgContext*, i8*, ...) @_ZNK10ArgContext5errorEPKcz(%class.ArgContext* nonnull @blank_args, i8* getelementptr inbounds ([15 x i8], [15 x i8]* @.str.6, i64 0, i64 0)), !dbg !2381
  call void @llvm.lifetime.end.p0i8(i64 4, i8* nonnull %19) #14, !dbg !2383
  br label %43, !dbg !2384

38:                                               ; preds = %35, %35
  call void @llvm.dbg.value(metadata i32* %26, metadata !2385, metadata !DIExpression()), !dbg !2397
  call void @llvm.dbg.value(metadata i32* %26, metadata !2399, metadata !DIExpression()), !dbg !2408
  %39 = load i32, i32* %26, align 4, !dbg !2410, !tbaa !2209
  call void @llvm.lifetime.end.p0i8(i64 4, i8* nonnull %19) #14, !dbg !2383
  switch i32 %36, label %43 [
    i32 34, label %40
    i32 0, label %42
  ], !dbg !2411

40:                                               ; preds = %38
  %41 = sext i32 %39 to i64, !dbg !2412
  call void @_ZN6IntArg11range_errorERK10ArgContextbx(%class.IntArg* nonnull %13, %class.ArgContext* nonnull dereferenceable(32) @blank_args, i1 zeroext true, i64 %41), !dbg !2415
  br label %43, !dbg !2416

42:                                               ; preds = %38
  call void @llvm.lifetime.end.p0i8(i64 8, i8* nonnull %17) #14, !dbg !2340
  br label %687, !dbg !2417

43:                                               ; preds = %40, %38, %37
  call void @llvm.lifetime.end.p0i8(i64 8, i8* nonnull %17) #14, !dbg !2340
  %44 = getelementptr inbounds %"class.(anonymous namespace)::ServicesNameDB", %"class.(anonymous namespace)::ServicesNameDB"* %0, i64 0, i32 2, !dbg !2418
  %45 = load i8, i8* %44, align 8, !dbg !2418, !tbaa !1717, !range !2419
  %46 = icmp eq i8 %45, 0, !dbg !2418
  br i1 %46, label %47, label %627, !dbg !2420

47:                                               ; preds = %43
  %48 = bitcast %class.String* %6 to i8*, !dbg !2421
  call void @llvm.lifetime.start.p0i8(i64 24, i8* nonnull %48), !dbg !2421
  call void @llvm.dbg.value(metadata %"class.(anonymous namespace)::ServicesNameDB"* %0, metadata !2302, metadata !DIExpression()), !dbg !2421
  call void @llvm.dbg.value(metadata %"class.(anonymous namespace)::ServicesNameDB"* %0, metadata !2422, metadata !DIExpression()), !dbg !2431
  %49 = getelementptr inbounds %"class.(anonymous namespace)::ServicesNameDB", %"class.(anonymous namespace)::ServicesNameDB"* %0, i64 0, i32 0, i32 1, !dbg !2433
  %50 = load i32, i32* %49, align 8, !dbg !2433, !tbaa !1671
  %51 = icmp eq i32 %50, 67108867, !dbg !2434
  call void @llvm.dbg.value(metadata i1 %51, metadata !2303, metadata !DIExpression()), !dbg !2421
  %52 = bitcast %class.String* %5 to i8*, !dbg !2435
  call void @llvm.lifetime.start.p0i8(i64 24, i8* nonnull %52) #14, !dbg !2435
  call void @llvm.dbg.value(metadata %class.String* %6, metadata !2436, metadata !DIExpression()), !dbg !2440
  call void @llvm.dbg.value(metadata i8* undef, metadata !2439, metadata !DIExpression()), !dbg !2440
  %53 = select i1 %51, i8* getelementptr inbounds ([15 x i8], [15 x i8]* @.str.7, i64 0, i64 0), i8* getelementptr inbounds ([14 x i8], [14 x i8]* @.str.8, i64 0, i64 0), !dbg !2442
  call void @llvm.dbg.value(metadata i8* %53, metadata !2439, metadata !DIExpression()), !dbg !2440
  call void @_ZN6String6assignEPKcib(%class.String* nonnull %6, i8* %53, i32 -1, i1 zeroext false), !dbg !2443
  invoke void @_Z11file_string6StringP12ErrorHandler(%class.String* nonnull sret %5, %class.String* nonnull %6, %class.ErrorHandler* null)
          to label %54 unwind label %76, !dbg !2446

54:                                               ; preds = %47
  call void @llvm.dbg.value(metadata %class.String* %6, metadata !2128, metadata !DIExpression()) #14, !dbg !2447
  call void @llvm.dbg.value(metadata %class.String* %6, metadata !2130, metadata !DIExpression()) #14, !dbg !2449
  %55 = getelementptr inbounds %class.String, %class.String* %6, i64 0, i32 0, i32 2, !dbg !2451
  %56 = load %"struct.String::memo_t"*, %"struct.String::memo_t"** %55, align 8, !dbg !2451, !tbaa !1704
  %57 = icmp eq %"struct.String::memo_t"* %56, null, !dbg !2452
  br i1 %57, label %72, label %58, !dbg !2453

58:                                               ; preds = %54
  %59 = getelementptr inbounds %"struct.String::memo_t", %"struct.String::memo_t"* %56, i64 0, i32 0, !dbg !2454
  %60 = load volatile i32, i32* %59, align 4, !dbg !2454, !tbaa !2142
  %61 = icmp eq i32 %60, 0, !dbg !2454
  br i1 %61, label %62, label %63, !dbg !2454

62:                                               ; preds = %58
  call void @__assert_fail(i8* getelementptr inbounds ([18 x i8], [18 x i8]* @.str.21, i64 0, i64 0), i8* getelementptr inbounds ([29 x i8], [29 x i8]* @.str.22, i64 0, i64 0), i32 273, i8* getelementptr inbounds ([27 x i8], [27 x i8]* @__PRETTY_FUNCTION__._ZNK6String5derefEv, i64 0, i64 0)) #13, !dbg !2454
  unreachable, !dbg !2454

63:                                               ; preds = %58
  call void @llvm.dbg.value(metadata i32* %59, metadata !2144, metadata !DIExpression()) #14, !dbg !2455
  %64 = load volatile i32, i32* %59, align 4, !dbg !2457, !tbaa !2209
  %65 = add i32 %64, -1, !dbg !2457
  store volatile i32 %65, i32* %59, align 4, !dbg !2457, !tbaa !2209
  %66 = icmp eq i32 %65, 0, !dbg !2458
  br i1 %66, label %67, label %68, !dbg !2459

67:                                               ; preds = %63
  invoke void @_ZN6String11delete_memoEPNS_6memo_tE(%"struct.String::memo_t"* nonnull %56)
          to label %68 unwind label %69, !dbg !2460

68:                                               ; preds = %67, %63
  store %"struct.String::memo_t"* null, %"struct.String::memo_t"** %55, align 8, !dbg !2461, !tbaa !1704
  br label %72, !dbg !2462

69:                                               ; preds = %67
  %70 = landingpad { i8*, i32 }
          catch i8* null, !dbg !2463
  %71 = extractvalue { i8*, i32 } %70, 0, !dbg !2463
  call void @__clang_call_terminate(i8* %71) #13, !dbg !2463
  unreachable, !dbg !2463

72:                                               ; preds = %68, %54
  call void @llvm.dbg.value(metadata %class.String* %5, metadata !2464, metadata !DIExpression()), !dbg !2467
  call void @llvm.dbg.value(metadata %class.String* %5, metadata !2470, metadata !DIExpression()), !dbg !2473
  %73 = getelementptr inbounds %class.String, %class.String* %5, i64 0, i32 0, i32 1, !dbg !2475
  %74 = load i32, i32* %73, align 8, !dbg !2475, !tbaa !1700
  %75 = icmp eq i32 %74, 0, !dbg !2476
  br i1 %75, label %586, label %97, !dbg !2477

76:                                               ; preds = %47
  %77 = landingpad { i8*, i32 }
          cleanup, !dbg !2478
  %78 = extractvalue { i8*, i32 } %77, 0, !dbg !2478
  %79 = extractvalue { i8*, i32 } %77, 1, !dbg !2478
  call void @llvm.dbg.value(metadata %class.String* %6, metadata !2128, metadata !DIExpression()) #14, !dbg !2479
  call void @llvm.dbg.value(metadata %class.String* %6, metadata !2130, metadata !DIExpression()) #14, !dbg !2481
  %80 = getelementptr inbounds %class.String, %class.String* %6, i64 0, i32 0, i32 2, !dbg !2483
  %81 = load %"struct.String::memo_t"*, %"struct.String::memo_t"** %80, align 8, !dbg !2483, !tbaa !1704
  %82 = icmp eq %"struct.String::memo_t"* %81, null, !dbg !2484
  br i1 %82, label %621, label %83, !dbg !2485

83:                                               ; preds = %76
  %84 = getelementptr inbounds %"struct.String::memo_t", %"struct.String::memo_t"* %81, i64 0, i32 0, !dbg !2486
  %85 = load volatile i32, i32* %84, align 4, !dbg !2486, !tbaa !2142
  %86 = icmp eq i32 %85, 0, !dbg !2486
  br i1 %86, label %87, label %88, !dbg !2486

87:                                               ; preds = %83
  call void @__assert_fail(i8* getelementptr inbounds ([18 x i8], [18 x i8]* @.str.21, i64 0, i64 0), i8* getelementptr inbounds ([29 x i8], [29 x i8]* @.str.22, i64 0, i64 0), i32 273, i8* getelementptr inbounds ([27 x i8], [27 x i8]* @__PRETTY_FUNCTION__._ZNK6String5derefEv, i64 0, i64 0)) #13, !dbg !2486
  unreachable, !dbg !2486

88:                                               ; preds = %83
  call void @llvm.dbg.value(metadata i32* %84, metadata !2144, metadata !DIExpression()) #14, !dbg !2487
  %89 = load volatile i32, i32* %84, align 4, !dbg !2489, !tbaa !2209
  %90 = add i32 %89, -1, !dbg !2489
  store volatile i32 %90, i32* %84, align 4, !dbg !2489, !tbaa !2209
  %91 = icmp eq i32 %90, 0, !dbg !2490
  br i1 %91, label %92, label %93, !dbg !2491

92:                                               ; preds = %88
  invoke void @_ZN6String11delete_memoEPNS_6memo_tE(%"struct.String::memo_t"* nonnull %81)
          to label %93 unwind label %94, !dbg !2492

93:                                               ; preds = %92, %88
  store %"struct.String::memo_t"* null, %"struct.String::memo_t"** %80, align 8, !dbg !2493, !tbaa !1704
  br label %621, !dbg !2494

94:                                               ; preds = %92
  %95 = landingpad { i8*, i32 }
          catch i8* null, !dbg !2495
  %96 = extractvalue { i8*, i32 } %95, 0, !dbg !2495
  call void @__clang_call_terminate(i8* %96) #13, !dbg !2495
  unreachable, !dbg !2495

97:                                               ; preds = %72
  %98 = bitcast %class.Vector.0* %7 to i8*, !dbg !2496
  call void @llvm.lifetime.start.p0i8(i64 16, i8* nonnull %98) #14, !dbg !2496
  call void @llvm.dbg.value(metadata %class.Vector.0* %7, metadata !2497, metadata !DIExpression()), !dbg !2501
  call void @llvm.dbg.value(metadata %class.Vector.0* %7, metadata !2503, metadata !DIExpression()) #14, !dbg !2507
  call void @llvm.memset.p0i8.i64(i8* nonnull align 8 dereferenceable(16) %98, i8 0, i64 16, i1 false) #14, !dbg !2509
  call void @llvm.dbg.value(metadata %class.String* %5, metadata !2353, metadata !DIExpression()), !dbg !2510
  %99 = getelementptr inbounds %class.String, %class.String* %5, i64 0, i32 0, i32 0, !dbg !2512
  %100 = load i8*, i8** %99, align 8, !dbg !2512, !tbaa !1697
  call void @llvm.dbg.value(metadata i8* %100, metadata !2305, metadata !DIExpression()), !dbg !2421
  call void @llvm.dbg.value(metadata %class.String* %5, metadata !2360, metadata !DIExpression()), !dbg !2513
  %101 = sext i32 %74 to i64, !dbg !2515
  %102 = getelementptr inbounds i8, i8* %100, i64 %101, !dbg !2515
  call void @llvm.dbg.value(metadata i8* %102, metadata !2306, metadata !DIExpression()), !dbg !2421
  call void @llvm.dbg.value(metadata i8* %100, metadata !2305, metadata !DIExpression()), !dbg !2421
  %103 = icmp sgt i32 %74, 0, !dbg !2516
  br i1 %103, label %105, label %104, !dbg !2517

104:                                              ; preds = %500, %499, %97
  br label %541, !dbg !2518

105:                                              ; preds = %97
  %106 = bitcast i32* %8 to i8*, !dbg !2519
  %107 = bitcast i32* %9 to i8*, !dbg !2519
  %108 = select i1 %51, i32 256, i32 65536, !dbg !2520
  %109 = bitcast %class.String* %10 to i8*, !dbg !2522
  %110 = getelementptr inbounds %class.String, %class.String* %5, i64 0, i32 0, i32 2, !dbg !2526
  %111 = getelementptr inbounds %class.String, %class.String* %10, i64 0, i32 0, i32 0, !dbg !2534
  %112 = getelementptr inbounds %class.String, %class.String* %10, i64 0, i32 0, i32 1, !dbg !2534
  %113 = getelementptr inbounds %class.String, %class.String* %10, i64 0, i32 0, i32 2, !dbg !2544
  %114 = getelementptr inbounds %class.Vector.0, %class.Vector.0* %7, i64 0, i32 0, i32 1, !dbg !2545
  %115 = getelementptr inbounds %class.Vector.0, %class.Vector.0* %7, i64 0, i32 0, !dbg !2553
  %116 = bitcast %class.String* %11 to i8*, !dbg !2560
  %117 = getelementptr inbounds %class.Vector.0, %class.Vector.0* %7, i64 0, i32 0, i32 2, !dbg !2562
  %118 = getelementptr inbounds %class.Vector.0, %class.Vector.0* %7, i64 0, i32 0, i32 0, !dbg !2580
  %119 = getelementptr inbounds %class.String, %class.String* %11, i64 0, i32 0, i32 2, !dbg !2582
  br label %120, !dbg !2517

120:                                              ; preds = %500, %105
  %121 = phi i8* [ %100, %105 ], [ %501, %500 ]
  call void @llvm.dbg.value(metadata i8* %121, metadata !2305, metadata !DIExpression()), !dbg !2421
  call void @llvm.dbg.value(metadata i8* %121, metadata !2307, metadata !DIExpression()), !dbg !2519
  %122 = icmp ult i8* %121, %102, !dbg !2594
  br i1 %122, label %123, label %129, !dbg !2595

123:                                              ; preds = %120, %126
  %124 = phi i8* [ %127, %126 ], [ %121, %120 ]
  call void @llvm.dbg.value(metadata i8* %124, metadata !2307, metadata !DIExpression()), !dbg !2519
  %125 = load i8, i8* %124, align 1, !dbg !2596, !tbaa !2597
  switch i8 %125, label %126 [
    i8 35, label %129
    i8 13, label %129
    i8 10, label %129
  ], !dbg !2598

126:                                              ; preds = %123
  %127 = getelementptr inbounds i8, i8* %124, i64 1, !dbg !2599
  call void @llvm.dbg.value(metadata i8* %127, metadata !2307, metadata !DIExpression()), !dbg !2519
  %128 = icmp eq i8* %127, %102, !dbg !2594
  br i1 %128, label %129, label %123, !dbg !2595, !llvm.loop !2600

129:                                              ; preds = %126, %123, %123, %123, %120
  %130 = phi i8* [ %121, %120 ], [ %102, %126 ], [ %124, %123 ], [ %124, %123 ], [ %124, %123 ], !dbg !2519
  call void @llvm.dbg.value(metadata i8* %130, metadata !2307, metadata !DIExpression()), !dbg !2519
  call void @llvm.dbg.value(metadata i8* %130, metadata !2307, metadata !DIExpression()), !dbg !2519
  call void @llvm.dbg.value(metadata i8* %130, metadata !2307, metadata !DIExpression()), !dbg !2519
  call void @llvm.dbg.value(metadata i8* %130, metadata !2307, metadata !DIExpression()), !dbg !2519
  call void @llvm.dbg.value(metadata i8* %121, metadata !2309, metadata !DIExpression()), !dbg !2519
  %131 = icmp ult i8* %121, %130, !dbg !2602
  br i1 %131, label %132, label %141, !dbg !2605

132:                                              ; preds = %129, %138
  %133 = phi i8* [ %139, %138 ], [ %121, %129 ]
  call void @llvm.dbg.value(metadata i8* %133, metadata !2309, metadata !DIExpression()), !dbg !2519
  %134 = load i8, i8* %133, align 1, !dbg !2606, !tbaa !2597
  %135 = zext i8 %134 to i32, !dbg !2607
  %136 = call i32 @isspace(i32 %135) #16, !dbg !2608
  %137 = icmp eq i32 %136, 0, !dbg !2608
  br i1 %137, label %141, label %138, !dbg !2609

138:                                              ; preds = %132
  %139 = getelementptr inbounds i8, i8* %133, i64 1, !dbg !2610
  call void @llvm.dbg.value(metadata i8* %139, metadata !2309, metadata !DIExpression()), !dbg !2519
  %140 = icmp eq i8* %139, %130, !dbg !2602
  br i1 %140, label %153, label %132, !dbg !2605, !llvm.loop !2611

141:                                              ; preds = %132, %129
  %142 = phi i8* [ %121, %129 ], [ %133, %132 ], !dbg !2613
  call void @llvm.dbg.value(metadata i8* %142, metadata !2309, metadata !DIExpression()), !dbg !2519
  call void @llvm.dbg.value(metadata i8* %142, metadata !2309, metadata !DIExpression()), !dbg !2519
  call void @llvm.dbg.value(metadata i8* %142, metadata !2310, metadata !DIExpression()), !dbg !2519
  %143 = icmp ult i8* %142, %130, !dbg !2614
  br i1 %143, label %144, label %154, !dbg !2617

144:                                              ; preds = %141, %150
  %145 = phi i8* [ %151, %150 ], [ %142, %141 ]
  call void @llvm.dbg.value(metadata i8* %145, metadata !2310, metadata !DIExpression()), !dbg !2519
  %146 = load i8, i8* %145, align 1, !dbg !2618, !tbaa !2597
  %147 = zext i8 %146 to i32, !dbg !2619
  %148 = call i32 @isspace(i32 %147) #16, !dbg !2620
  %149 = icmp eq i32 %148, 0, !dbg !2620
  br i1 %149, label %150, label %154, !dbg !2621

150:                                              ; preds = %144
  %151 = getelementptr inbounds i8, i8* %145, i64 1, !dbg !2622
  call void @llvm.dbg.value(metadata i8* %151, metadata !2310, metadata !DIExpression()), !dbg !2519
  %152 = icmp eq i8* %151, %130, !dbg !2614
  br i1 %152, label %153, label %144, !dbg !2617, !llvm.loop !2623

153:                                              ; preds = %138, %150
  call void @llvm.dbg.value(metadata i8* %155, metadata !2310, metadata !DIExpression()), !dbg !2519
  call void @llvm.dbg.value(metadata i8* %155, metadata !2310, metadata !DIExpression()), !dbg !2519
  call void @llvm.lifetime.start.p0i8(i64 4, i8* nonnull %106) #14, !dbg !2625
  call void @llvm.dbg.value(metadata i32 0, metadata !2313, metadata !DIExpression()), !dbg !2519
  store i32 0, i32* %8, align 4, !dbg !2626, !tbaa !2209
  call void @llvm.lifetime.start.p0i8(i64 4, i8* nonnull %107) #14, !dbg !2627
  call void @llvm.dbg.value(metadata i8* %155, metadata !2311, metadata !DIExpression()), !dbg !2519
  br label %482, !dbg !2628

154:                                              ; preds = %144, %141
  %155 = phi i8* [ %142, %141 ], [ %145, %144 ], !dbg !2631
  call void @llvm.dbg.value(metadata i8* %155, metadata !2310, metadata !DIExpression()), !dbg !2519
  call void @llvm.dbg.value(metadata i8* %155, metadata !2310, metadata !DIExpression()), !dbg !2519
  call void @llvm.lifetime.start.p0i8(i64 4, i8* nonnull %106) #14, !dbg !2625
  call void @llvm.dbg.value(metadata i32 0, metadata !2313, metadata !DIExpression()), !dbg !2519
  store i32 0, i32* %8, align 4, !dbg !2626, !tbaa !2209
  call void @llvm.lifetime.start.p0i8(i64 4, i8* nonnull %107) #14, !dbg !2627
  call void @llvm.dbg.value(metadata i8* %155, metadata !2311, metadata !DIExpression()), !dbg !2519
  %156 = icmp ult i8* %155, %130, !dbg !2632
  br i1 %156, label %157, label %166, !dbg !2628

157:                                              ; preds = %154, %163
  %158 = phi i8* [ %164, %163 ], [ %155, %154 ]
  call void @llvm.dbg.value(metadata i8* %158, metadata !2311, metadata !DIExpression()), !dbg !2519
  %159 = load i8, i8* %158, align 1, !dbg !2633, !tbaa !2597
  %160 = zext i8 %159 to i32, !dbg !2634
  %161 = call i32 @isspace(i32 %160) #16, !dbg !2635
  %162 = icmp eq i32 %161, 0, !dbg !2635
  br i1 %162, label %166, label %163, !dbg !2636

163:                                              ; preds = %157
  %164 = getelementptr inbounds i8, i8* %158, i64 1, !dbg !2637
  call void @llvm.dbg.value(metadata i8* %164, metadata !2311, metadata !DIExpression()), !dbg !2519
  %165 = icmp eq i8* %164, %130, !dbg !2632
  br i1 %165, label %482, label %157, !dbg !2628, !llvm.loop !2638

166:                                              ; preds = %157, %154
  %167 = phi i8* [ %155, %154 ], [ %158, %157 ], !dbg !2640
  call void @llvm.dbg.value(metadata i8* %167, metadata !2311, metadata !DIExpression()), !dbg !2519
  call void @llvm.dbg.value(metadata i8* %167, metadata !2311, metadata !DIExpression()), !dbg !2519
  call void @llvm.dbg.value(metadata i8* %167, metadata !2312, metadata !DIExpression()), !dbg !2519
  %168 = icmp ult i8* %167, %130, !dbg !2641
  br i1 %168, label %169, label %482, !dbg !2644

169:                                              ; preds = %166
  call void @llvm.dbg.value(metadata i8* %167, metadata !2312, metadata !DIExpression()), !dbg !2519
  %170 = load i8, i8* %167, align 1, !dbg !2645, !tbaa !2597
  %171 = zext i8 %170 to i32, !dbg !2646
  %172 = add nsw i32 %171, -48, !dbg !2647
  %173 = icmp ult i32 %172, 10, !dbg !2647
  call void @llvm.dbg.value(metadata i32 0, metadata !2313, metadata !DIExpression()), !dbg !2519
  br i1 %173, label %181, label %482, !dbg !2648

174:                                              ; preds = %181
  call void @llvm.dbg.value(metadata i8* %189, metadata !2312, metadata !DIExpression()), !dbg !2519
  %175 = load i8, i8* %189, align 1, !dbg !2645, !tbaa !2597
  %176 = zext i8 %175 to i32, !dbg !2646
  %177 = add nsw i32 %176, -48, !dbg !2647
  %178 = icmp ult i32 %177, 10, !dbg !2647
  call void @llvm.dbg.value(metadata i32 %188, metadata !2313, metadata !DIExpression()), !dbg !2519
  %179 = icmp ult i32 %188, 65536, !dbg !2649
  %180 = and i1 %179, %178, !dbg !2648
  br i1 %180, label %181, label %191, !dbg !2648, !llvm.loop !2650

181:                                              ; preds = %169, %174
  %182 = phi i8 [ %175, %174 ], [ %170, %169 ]
  %183 = phi i8* [ %189, %174 ], [ %167, %169 ]
  %184 = phi i32 [ %188, %174 ], [ 0, %169 ]
  call void @llvm.dbg.value(metadata i8* %183, metadata !2312, metadata !DIExpression()), !dbg !2519
  call void @llvm.dbg.value(metadata i32 %184, metadata !2313, metadata !DIExpression()), !dbg !2519
  %185 = mul nuw nsw i32 %184, 10, !dbg !2653
  %186 = sext i8 %182 to i32, !dbg !2654
  %187 = add nsw i32 %185, -48, !dbg !2655
  %188 = add nsw i32 %187, %186, !dbg !2656
  call void @llvm.dbg.value(metadata i32 %188, metadata !2313, metadata !DIExpression()), !dbg !2519
  store i32 %188, i32* %8, align 4, !dbg !2657, !tbaa !2209
  %189 = getelementptr inbounds i8, i8* %183, i64 1, !dbg !2658
  call void @llvm.dbg.value(metadata i8* %189, metadata !2312, metadata !DIExpression()), !dbg !2519
  %190 = icmp eq i8* %189, %130, !dbg !2641
  br i1 %190, label %191, label %174, !dbg !2644, !llvm.loop !2650

191:                                              ; preds = %174, %181
  %192 = phi i8* [ %189, %174 ], [ %130, %181 ], !dbg !2659
  %193 = icmp ult i8* %189, %130, !dbg !2641
  %194 = ptrtoint i8* %192 to i64
  call void @llvm.dbg.value(metadata i8* %192, metadata !2312, metadata !DIExpression()), !dbg !2519
  call void @llvm.dbg.value(metadata i8* %192, metadata !2312, metadata !DIExpression()), !dbg !2519
  %195 = icmp ne i8* %192, %167, !dbg !2660
  %196 = icmp ult i32 %188, %108, !dbg !2661
  %197 = and i1 %196, %195, !dbg !2662
  br i1 %197, label %198, label %482, !dbg !2662

198:                                              ; preds = %191
  br i1 %51, label %289, label %199, !dbg !2663

199:                                              ; preds = %198
  br i1 %193, label %200, label %482, !dbg !2664

200:                                              ; preds = %199
  %201 = load i8, i8* %192, align 1, !dbg !2666, !tbaa !2597
  switch i8 %201, label %482 [
    i8 47, label %202
    i8 44, label %202
  ], !dbg !2667

202:                                              ; preds = %200, %200
  %203 = getelementptr inbounds i8, i8* %192, i64 1, !dbg !2519
  call void @llvm.dbg.value(metadata i8* %203, metadata !2312, metadata !DIExpression()), !dbg !2519
  call void @llvm.dbg.value(metadata i8* %203, metadata !2311, metadata !DIExpression()), !dbg !2519
  call void @llvm.dbg.value(metadata i8* %203, metadata !2312, metadata !DIExpression()), !dbg !2519
  %204 = icmp ult i8* %203, %130, !dbg !2668
  br i1 %204, label %206, label %205, !dbg !2671

205:                                              ; preds = %202
  call void @llvm.lifetime.start.p0i8(i64 24, i8* nonnull %109) #14, !dbg !2672
  call void @llvm.dbg.value(metadata %class.String* %5, metadata !2530, metadata !DIExpression()), !dbg !2673
  call void @llvm.dbg.value(metadata i8* %203, metadata !2531, metadata !DIExpression()), !dbg !2673
  br label %242, !dbg !2674

206:                                              ; preds = %202
  %207 = sub i64 0, %194, !dbg !2675
  %208 = getelementptr i8, i8* %130, i64 %207, !dbg !2675
  %209 = ptrtoint i8* %208 to i64
  br label %210, !dbg !2675

210:                                              ; preds = %217, %206
  %211 = phi i8* [ %219, %217 ], [ %203, %206 ]
  %212 = phi i64 [ %218, %217 ], [ 1, %206 ]
  %213 = load i8, i8* %211, align 1, !dbg !2676, !tbaa !2597
  %214 = zext i8 %213 to i32, !dbg !2677
  %215 = call i32 @isspace(i32 %214) #16, !dbg !2678
  %216 = icmp eq i32 %215, 0, !dbg !2678
  br i1 %216, label %217, label %221, !dbg !2675

217:                                              ; preds = %210
  %218 = add nuw nsw i64 %212, 1, !dbg !2679
  call void @llvm.dbg.value(metadata i8* undef, metadata !2312, metadata !DIExpression()), !dbg !2519
  %219 = getelementptr inbounds i8, i8* %192, i64 %218, !dbg !2519
  call void @llvm.dbg.value(metadata i8* %219, metadata !2312, metadata !DIExpression()), !dbg !2519
  %220 = icmp ult i8* %219, %130, !dbg !2668
  br i1 %220, label %210, label %221, !dbg !2671, !llvm.loop !2680

221:                                              ; preds = %217, %210
  %222 = phi i64 [ %212, %210 ], [ %209, %217 ]
  %223 = phi i8* [ %211, %210 ], [ %219, %217 ], !dbg !2519
  call void @llvm.lifetime.start.p0i8(i64 24, i8* nonnull %109) #14, !dbg !2672
  call void @llvm.dbg.value(metadata %class.String* %5, metadata !2530, metadata !DIExpression()), !dbg !2673
  call void @llvm.dbg.value(metadata i8* %203, metadata !2531, metadata !DIExpression()), !dbg !2673
  call void @llvm.dbg.value(metadata i8* %223, metadata !2532, metadata !DIExpression()), !dbg !2673
  %224 = icmp ugt i64 %222, 1, !dbg !2682
  br i1 %224, label %225, label %242, !dbg !2674

225:                                              ; preds = %221
  %226 = load i8*, i8** %99, align 8, !dbg !2683, !tbaa !1697, !noalias !2684
  %227 = icmp ugt i8* %226, %203, !dbg !2687
  br i1 %227, label %242, label %228, !dbg !2688

228:                                              ; preds = %225
  %229 = load i32, i32* %73, align 8, !dbg !2689, !tbaa !1700, !noalias !2684
  %230 = sext i32 %229 to i64, !dbg !2690
  %231 = getelementptr inbounds i8, i8* %226, i64 %230, !dbg !2690
  %232 = icmp ult i8* %231, %223, !dbg !2691
  br i1 %232, label %242, label %233, !dbg !2692

233:                                              ; preds = %228
  %234 = trunc i64 %222 to i32, !dbg !2693
  %235 = add i32 %234, -1, !dbg !2693
  %236 = load %"struct.String::memo_t"*, %"struct.String::memo_t"** %110, align 8, !dbg !2694, !tbaa !1704, !noalias !2684
  call void @llvm.dbg.value(metadata %class.String* %10, metadata !2539, metadata !DIExpression()), !dbg !2695
  call void @llvm.dbg.value(metadata i8* %203, metadata !2540, metadata !DIExpression()), !dbg !2695
  call void @llvm.dbg.value(metadata i32 %235, metadata !2541, metadata !DIExpression()), !dbg !2695
  call void @llvm.dbg.value(metadata %"struct.String::memo_t"* %236, metadata !2542, metadata !DIExpression()), !dbg !2695
  call void @llvm.dbg.value(metadata %class.String* %10, metadata !1644, metadata !DIExpression()), !dbg !2534
  call void @llvm.dbg.value(metadata i8* %203, metadata !1647, metadata !DIExpression()), !dbg !2534
  call void @llvm.dbg.value(metadata i32 %235, metadata !1648, metadata !DIExpression()), !dbg !2534
  call void @llvm.dbg.value(metadata %"struct.String::memo_t"* %236, metadata !1649, metadata !DIExpression()), !dbg !2534
  store i8* %203, i8** %111, align 8, !dbg !2696, !tbaa !1697, !alias.scope !2684
  store i32 %235, i32* %112, align 8, !dbg !2697, !tbaa !1700, !alias.scope !2684
  store %"struct.String::memo_t"* %236, %"struct.String::memo_t"** %113, align 8, !dbg !2698, !tbaa !1704, !alias.scope !2684
  %237 = icmp eq %"struct.String::memo_t"* %236, null, !dbg !2699
  br i1 %237, label %244, label %238, !dbg !2700

238:                                              ; preds = %233
  %239 = getelementptr inbounds %"struct.String::memo_t", %"struct.String::memo_t"* %236, i64 0, i32 0, !dbg !2701
  call void @llvm.dbg.value(metadata i32* %239, metadata !2702, metadata !DIExpression()), !dbg !2705
  %240 = load volatile i32, i32* %239, align 4, !dbg !2707, !tbaa !2209, !noalias !2684
  %241 = add i32 %240, 1, !dbg !2707
  store volatile i32 %241, i32* %239, align 4, !dbg !2707, !tbaa !2209, !noalias !2684
  br label %244, !dbg !2708

242:                                              ; preds = %228, %225, %221, %205
  %243 = phi i8* [ %203, %205 ], [ %223, %228 ], [ %223, %225 ], [ %223, %221 ]
  call void @llvm.dbg.value(metadata %class.String* %10, metadata !1655, metadata !DIExpression()), !dbg !2709
  call void @llvm.dbg.value(metadata %class.String* %10, metadata !1644, metadata !DIExpression()), !dbg !2711
  call void @llvm.dbg.value(metadata i8* @_ZN6String9null_dataE, metadata !1647, metadata !DIExpression()), !dbg !2711
  call void @llvm.dbg.value(metadata i32 0, metadata !1648, metadata !DIExpression()), !dbg !2711
  call void @llvm.dbg.value(metadata %"struct.String::memo_t"* null, metadata !1649, metadata !DIExpression()), !dbg !2711
  store i8* @_ZN6String9null_dataE, i8** %111, align 8, !dbg !2713, !tbaa !1697, !alias.scope !2684
  store i32 0, i32* %112, align 8, !dbg !2714, !tbaa !1700, !alias.scope !2684
  store %"struct.String::memo_t"* null, %"struct.String::memo_t"** %113, align 8, !dbg !2715, !tbaa !1704, !alias.scope !2684
  br label %244, !dbg !2716

244:                                              ; preds = %242, %238, %233
  %245 = phi i8* [ %243, %242 ], [ %223, %238 ], [ %223, %233 ]
  %246 = invoke zeroext i1 @_ZN8NameInfo9query_intEjPK7ElementRK6StringPj(i32 67108867, %class.Element* null, %class.String* nonnull dereferenceable(24) %10, i32* nonnull %9)
          to label %247 unwind label %265, !dbg !2717

247:                                              ; preds = %244
  call void @llvm.dbg.value(metadata %class.String* %10, metadata !2128, metadata !DIExpression()) #14, !dbg !2718
  call void @llvm.dbg.value(metadata %class.String* %10, metadata !2130, metadata !DIExpression()) #14, !dbg !2720
  %248 = load %"struct.String::memo_t"*, %"struct.String::memo_t"** %113, align 8, !dbg !2722, !tbaa !1704
  %249 = icmp eq %"struct.String::memo_t"* %248, null, !dbg !2723
  br i1 %249, label %264, label %250, !dbg !2724

250:                                              ; preds = %247
  %251 = getelementptr inbounds %"struct.String::memo_t", %"struct.String::memo_t"* %248, i64 0, i32 0, !dbg !2725
  %252 = load volatile i32, i32* %251, align 4, !dbg !2725, !tbaa !2142
  %253 = icmp eq i32 %252, 0, !dbg !2725
  br i1 %253, label %254, label %255, !dbg !2725

254:                                              ; preds = %250
  call void @__assert_fail(i8* getelementptr inbounds ([18 x i8], [18 x i8]* @.str.21, i64 0, i64 0), i8* getelementptr inbounds ([29 x i8], [29 x i8]* @.str.22, i64 0, i64 0), i32 273, i8* getelementptr inbounds ([27 x i8], [27 x i8]* @__PRETTY_FUNCTION__._ZNK6String5derefEv, i64 0, i64 0)) #13, !dbg !2725
  unreachable, !dbg !2725

255:                                              ; preds = %250
  call void @llvm.dbg.value(metadata i32* %251, metadata !2144, metadata !DIExpression()) #14, !dbg !2726
  %256 = load volatile i32, i32* %251, align 4, !dbg !2728, !tbaa !2209
  %257 = add i32 %256, -1, !dbg !2728
  store volatile i32 %257, i32* %251, align 4, !dbg !2728, !tbaa !2209
  %258 = icmp eq i32 %257, 0, !dbg !2729
  br i1 %258, label %259, label %260, !dbg !2730

259:                                              ; preds = %255
  invoke void @_ZN6String11delete_memoEPNS_6memo_tE(%"struct.String::memo_t"* nonnull %248)
          to label %260 unwind label %261, !dbg !2731

260:                                              ; preds = %259, %255
  store %"struct.String::memo_t"* null, %"struct.String::memo_t"** %113, align 8, !dbg !2732, !tbaa !1704
  br label %264, !dbg !2733

261:                                              ; preds = %259
  %262 = landingpad { i8*, i32 }
          catch i8* null, !dbg !2734
  %263 = extractvalue { i8*, i32 } %262, 0, !dbg !2734
  call void @__clang_call_terminate(i8* %263) #13, !dbg !2734
  unreachable, !dbg !2734

264:                                              ; preds = %260, %247
  call void @llvm.lifetime.end.p0i8(i64 24, i8* nonnull %109) #14, !dbg !2735
  br i1 %246, label %286, label %482, !dbg !2736

265:                                              ; preds = %244
  %266 = landingpad { i8*, i32 }
          cleanup, !dbg !2737
  %267 = extractvalue { i8*, i32 } %266, 0, !dbg !2737
  %268 = extractvalue { i8*, i32 } %266, 1, !dbg !2737
  call void @llvm.dbg.value(metadata %class.String* %10, metadata !2128, metadata !DIExpression()) #14, !dbg !2738
  call void @llvm.dbg.value(metadata %class.String* %10, metadata !2130, metadata !DIExpression()) #14, !dbg !2740
  %269 = load %"struct.String::memo_t"*, %"struct.String::memo_t"** %113, align 8, !dbg !2742, !tbaa !1704
  %270 = icmp eq %"struct.String::memo_t"* %269, null, !dbg !2743
  br i1 %270, label %285, label %271, !dbg !2744

271:                                              ; preds = %265
  %272 = getelementptr inbounds %"struct.String::memo_t", %"struct.String::memo_t"* %269, i64 0, i32 0, !dbg !2745
  %273 = load volatile i32, i32* %272, align 4, !dbg !2745, !tbaa !2142
  %274 = icmp eq i32 %273, 0, !dbg !2745
  br i1 %274, label %275, label %276, !dbg !2745

275:                                              ; preds = %271
  call void @__assert_fail(i8* getelementptr inbounds ([18 x i8], [18 x i8]* @.str.21, i64 0, i64 0), i8* getelementptr inbounds ([29 x i8], [29 x i8]* @.str.22, i64 0, i64 0), i32 273, i8* getelementptr inbounds ([27 x i8], [27 x i8]* @__PRETTY_FUNCTION__._ZNK6String5derefEv, i64 0, i64 0)) #13, !dbg !2745
  unreachable, !dbg !2745

276:                                              ; preds = %271
  call void @llvm.dbg.value(metadata i32* %272, metadata !2144, metadata !DIExpression()) #14, !dbg !2746
  %277 = load volatile i32, i32* %272, align 4, !dbg !2748, !tbaa !2209
  %278 = add i32 %277, -1, !dbg !2748
  store volatile i32 %278, i32* %272, align 4, !dbg !2748, !tbaa !2209
  %279 = icmp eq i32 %278, 0, !dbg !2749
  br i1 %279, label %280, label %281, !dbg !2750

280:                                              ; preds = %276
  invoke void @_ZN6String11delete_memoEPNS_6memo_tE(%"struct.String::memo_t"* nonnull %269)
          to label %281 unwind label %282, !dbg !2751

281:                                              ; preds = %280, %276
  store %"struct.String::memo_t"* null, %"struct.String::memo_t"** %113, align 8, !dbg !2752, !tbaa !1704
  br label %285, !dbg !2753

282:                                              ; preds = %280
  %283 = landingpad { i8*, i32 }
          catch i8* null, !dbg !2754
  %284 = extractvalue { i8*, i32 } %283, 0, !dbg !2754
  call void @__clang_call_terminate(i8* %284) #13, !dbg !2754
  unreachable, !dbg !2754

285:                                              ; preds = %281, %265
  call void @llvm.lifetime.end.p0i8(i64 24, i8* nonnull %109) #14, !dbg !2735
  br label %503, !dbg !2735

286:                                              ; preds = %264
  %287 = load i32, i32* %9, align 4, !dbg !2755, !tbaa !2209
  call void @llvm.dbg.value(metadata i32 %287, metadata !2314, metadata !DIExpression()), !dbg !2519
  %288 = add i32 %287, 67239936, !dbg !2755
  call void @llvm.dbg.value(metadata i32 %288, metadata !2314, metadata !DIExpression()), !dbg !2519
  br label %289

289:                                              ; preds = %286, %198
  %290 = phi i32 [ %288, %286 ], [ 67108867, %198 ], !dbg !2756
  %291 = phi i8* [ %245, %286 ], [ %192, %198 ], !dbg !2519
  store i32 %290, i32* %9, align 4, !dbg !2756, !tbaa !2209
  call void @llvm.dbg.value(metadata i8* %291, metadata !2312, metadata !DIExpression()), !dbg !2519
  call void @llvm.dbg.value(metadata %"class.(anonymous namespace)::ServicesNameDB"* undef, metadata !2316, metadata !DIExpression()), !dbg !2519
  br label %292, !dbg !2757

292:                                              ; preds = %292, %289
  %293 = phi %"class.(anonymous namespace)::ServicesNameDB"* [ %0, %289 ], [ %295, %292 ]
  %294 = getelementptr inbounds %"class.(anonymous namespace)::ServicesNameDB", %"class.(anonymous namespace)::ServicesNameDB"* %293, i64 0, i32 3, !dbg !2759
  %295 = load %"class.(anonymous namespace)::ServicesNameDB"*, %"class.(anonymous namespace)::ServicesNameDB"** %294, align 8, !dbg !2759, !tbaa !1725
  call void @llvm.dbg.value(metadata %"class.(anonymous namespace)::ServicesNameDB"* %295, metadata !2316, metadata !DIExpression()), !dbg !2519
  call void @llvm.dbg.value(metadata %"class.(anonymous namespace)::ServicesNameDB"* %295, metadata !2422, metadata !DIExpression()), !dbg !2760
  %296 = getelementptr inbounds %"class.(anonymous namespace)::ServicesNameDB", %"class.(anonymous namespace)::ServicesNameDB"* %295, i64 0, i32 0, i32 1, !dbg !2763
  %297 = load i32, i32* %296, align 8, !dbg !2763, !tbaa !1671
  call void @llvm.dbg.value(metadata i32 %290, metadata !2314, metadata !DIExpression()), !dbg !2519
  %298 = icmp ne i32 %297, %290, !dbg !2764
  %299 = icmp ne %"class.(anonymous namespace)::ServicesNameDB"* %295, %0, !dbg !2765
  %300 = and i1 %299, %298, !dbg !2765
  br i1 %300, label %292, label %309, !dbg !2766, !llvm.loop !2767

301:                                              ; preds = %359, %352, %349
  %302 = landingpad { i8*, i32 }
          cleanup, !dbg !2769
  br label %305, !dbg !2769

303:                                              ; preds = %315
  %304 = landingpad { i8*, i32 }
          cleanup, !dbg !2769
  br label %305, !dbg !2769

305:                                              ; preds = %303, %301
  %306 = phi { i8*, i32 } [ %302, %301 ], [ %304, %303 ]
  %307 = extractvalue { i8*, i32 } %306, 0, !dbg !2769
  %308 = extractvalue { i8*, i32 } %306, 1, !dbg !2769
  br label %503, !dbg !2769

309:                                              ; preds = %292
  call void @llvm.dbg.value(metadata %"class.(anonymous namespace)::ServicesNameDB"* %295, metadata !2422, metadata !DIExpression()), !dbg !2770
  call void @llvm.dbg.value(metadata i32 %290, metadata !2314, metadata !DIExpression()), !dbg !2519
  %310 = icmp eq i32 %297, %290, !dbg !2773
  br i1 %310, label %311, label %482, !dbg !2774

311:                                              ; preds = %309
  %312 = getelementptr inbounds %"class.(anonymous namespace)::ServicesNameDB", %"class.(anonymous namespace)::ServicesNameDB"* %295, i64 0, i32 1, !dbg !2775
  %313 = load %class.DynamicNameDB*, %class.DynamicNameDB** %312, align 8, !dbg !2775, !tbaa !1713
  %314 = icmp eq %class.DynamicNameDB* %313, null, !dbg !2777
  br i1 %314, label %315, label %340, !dbg !2778

315:                                              ; preds = %311
  %316 = invoke dereferenceable(120) i8* @_Znwm(i64 120) #12
          to label %317 unwind label %303, !dbg !2779

317:                                              ; preds = %315
  call void @llvm.dbg.value(metadata i32 %290, metadata !2314, metadata !DIExpression()), !dbg !2519
  call void @llvm.dbg.value(metadata %class.String* undef, metadata !2436, metadata !DIExpression()), !dbg !2780
  call void @llvm.dbg.value(metadata %class.String* undef, metadata !1644, metadata !DIExpression()), !dbg !2782
  call void @llvm.dbg.value(metadata i32 0, metadata !1648, metadata !DIExpression()), !dbg !2782
  call void @llvm.dbg.value(metadata %"struct.String::memo_t"* null, metadata !1649, metadata !DIExpression()), !dbg !2782
  call void @llvm.dbg.value(metadata i8* %316, metadata !2784, metadata !DIExpression()), !dbg !2794
  call void @llvm.dbg.value(metadata i32 %290, metadata !2791, metadata !DIExpression()), !dbg !2794
  call void @llvm.dbg.value(metadata %class.String* undef, metadata !2792, metadata !DIExpression()), !dbg !2794
  call void @llvm.dbg.value(metadata i64 4, metadata !2793, metadata !DIExpression()), !dbg !2794
  call void @llvm.dbg.value(metadata i8* %316, metadata !1657, metadata !DIExpression()), !dbg !2796
  call void @llvm.dbg.value(metadata i32 %290, metadata !1664, metadata !DIExpression()), !dbg !2796
  call void @llvm.dbg.value(metadata %class.String* undef, metadata !1665, metadata !DIExpression()), !dbg !2796
  call void @llvm.dbg.value(metadata i64 4, metadata !1666, metadata !DIExpression()), !dbg !2796
  %318 = bitcast i8* %316 to i32 (...)***, !dbg !2798
  %319 = getelementptr inbounds i8, i8* %316, i64 8, !dbg !2799
  %320 = bitcast i8* %319 to i32*, !dbg !2799
  store i32 %290, i32* %320, align 8, !dbg !2799, !tbaa !1671
  %321 = getelementptr inbounds i8, i8* %316, i64 16, !dbg !2800
  call void @llvm.dbg.value(metadata i8* %321, metadata !1684, metadata !DIExpression()), !dbg !2801
  call void @llvm.dbg.value(metadata %class.String* undef, metadata !1681, metadata !DIExpression()), !dbg !2801
  call void @llvm.dbg.value(metadata i8* %321, metadata !1690, metadata !DIExpression()), !dbg !2803
  call void @llvm.dbg.value(metadata %class.String* undef, metadata !1687, metadata !DIExpression()), !dbg !2803
  call void @llvm.dbg.value(metadata i8* %321, metadata !1644, metadata !DIExpression()), !dbg !2805
  call void @llvm.dbg.value(metadata i8* undef, metadata !1647, metadata !DIExpression()), !dbg !2805
  call void @llvm.dbg.value(metadata i32 0, metadata !1648, metadata !DIExpression()), !dbg !2805
  call void @llvm.dbg.value(metadata %"struct.String::memo_t"* null, metadata !1649, metadata !DIExpression()), !dbg !2805
  %322 = bitcast i8* %321 to i64*, !dbg !2807
  store i64 ptrtoint ([1 x i8]* @.str.9 to i64), i64* %322, align 8, !dbg !2807, !tbaa !1697
  %323 = getelementptr inbounds i8, i8* %316, i64 24, !dbg !2808
  %324 = bitcast i8* %323 to i32*, !dbg !2808
  store i32 0, i32* %324, align 8, !dbg !2809, !tbaa !1700
  %325 = getelementptr inbounds i8, i8* %316, i64 32, !dbg !2810
  %326 = bitcast i8* %325 to %"struct.String::memo_t"**, !dbg !2810
  store %"struct.String::memo_t"* null, %"struct.String::memo_t"** %326, align 8, !dbg !2811, !tbaa !1704
  %327 = getelementptr inbounds i8, i8* %316, i64 40, !dbg !2812
  %328 = bitcast i8* %327 to i64*, !dbg !2812
  store i64 4, i64* %328, align 8, !dbg !2812, !tbaa !1706
  %329 = getelementptr inbounds i8, i8* %316, i64 48, !dbg !2813
  call void @llvm.memset.p0i8.i64(i8* nonnull align 8 dereferenceable(32) %329, i8 0, i64 32, i1 false), !dbg !2814
  store i32 (...)** bitcast (i8** getelementptr inbounds ({ [7 x i8*] }, { [7 x i8*] }* @_ZTV13DynamicNameDB, i64 0, inrange i32 0, i64 2) to i32 (...)**), i32 (...)*** %318, align 8, !dbg !2815, !tbaa !1710
  %330 = getelementptr inbounds i8, i8* %316, i64 80, !dbg !2816
  call void @llvm.dbg.value(metadata i8* %330, metadata !2497, metadata !DIExpression()), !dbg !2817
  call void @llvm.dbg.value(metadata i8* %330, metadata !2503, metadata !DIExpression()) #14, !dbg !2819
  call void @llvm.memset.p0i8.i64(i8* nonnull align 8 dereferenceable(16) %330, i8 0, i64 16, i1 false) #14, !dbg !2821
  call void @llvm.dbg.value(metadata i8* %316, metadata !2822, metadata !DIExpression(DW_OP_plus_uconst, 96, DW_OP_stack_value)), !dbg !2982
  call void @llvm.dbg.value(metadata i8* %316, metadata !2984, metadata !DIExpression(DW_OP_plus_uconst, 96, DW_OP_stack_value)), !dbg !2988
  %331 = getelementptr inbounds i8, i8* %316, i64 96, !dbg !2990
  %332 = bitcast i8* %331 to i8**, !dbg !2990
  store i8* @_ZN6String9null_dataE, i8** %332, align 8, !dbg !2990, !tbaa !2991
  %333 = getelementptr inbounds i8, i8* %316, i64 104, !dbg !2993
  %334 = bitcast i8* %333 to i32*, !dbg !2993
  store i32 0, i32* %334, align 8, !dbg !2993, !tbaa !2994
  %335 = getelementptr inbounds i8, i8* %316, i64 108, !dbg !2995
  %336 = bitcast i8* %335 to i32*, !dbg !2995
  store i32 0, i32* %336, align 4, !dbg !2995, !tbaa !2996
  %337 = getelementptr inbounds i8, i8* %316, i64 112, !dbg !2997
  %338 = bitcast i8* %337 to i32*, !dbg !2997
  store i32 0, i32* %338, align 8, !dbg !2997, !tbaa !2998
  %339 = bitcast %class.DynamicNameDB** %312 to i8**, !dbg !3003
  store i8* %316, i8** %339, align 8, !dbg !3003, !tbaa !1713
  call void @llvm.dbg.value(metadata %class.String* undef, metadata !2128, metadata !DIExpression()) #14, !dbg !3004
  call void @llvm.dbg.value(metadata %class.String* undef, metadata !2130, metadata !DIExpression()) #14, !dbg !3006
  br label %340, !dbg !3008

340:                                              ; preds = %317, %311
  br label %341, !dbg !3009

341:                                              ; preds = %340, %456
  %342 = phi i64 [ %433, %456 ], [ 0, %340 ], !dbg !2519
  %343 = phi i8* [ %445, %456 ], [ %142, %340 ], !dbg !2519
  %344 = phi i8* [ %457, %456 ], [ %155, %340 ], !dbg !2519
  %345 = phi i8* [ %457, %456 ], [ %291, %340 ], !dbg !2519
  call void @llvm.dbg.value(metadata i64 %342, metadata !2315, metadata !DIExpression()), !dbg !2519
  call void @llvm.dbg.value(metadata i8* %345, metadata !2312, metadata !DIExpression()), !dbg !2519
  call void @llvm.dbg.value(metadata i8* %344, metadata !2310, metadata !DIExpression()), !dbg !2519
  call void @llvm.dbg.value(metadata i8* %343, metadata !2309, metadata !DIExpression()), !dbg !2519
  call void @llvm.dbg.value(metadata %class.Vector.0* %7, metadata !2548, metadata !DIExpression()), !dbg !2545
  %346 = load i32, i32* %114, align 8, !dbg !3010, !tbaa !3011
  %347 = sext i32 %346 to i64, !dbg !3012
  %348 = icmp slt i64 %342, %347, !dbg !3012
  br i1 %348, label %349, label %364, !dbg !3013

349:                                              ; preds = %341
  %350 = trunc i64 %342 to i32, !dbg !3014
  %351 = invoke dereferenceable(24) %class.String* @_ZN6VectorI6StringEixEi(%class.Vector.0* nonnull %7, i32 %350)
          to label %352 unwind label %301, !dbg !3014

352:                                              ; preds = %349
  call void @llvm.dbg.value(metadata %class.String* %351, metadata !3015, metadata !DIExpression()), !dbg !3020
  call void @llvm.dbg.value(metadata i8* %343, metadata !3018, metadata !DIExpression()), !dbg !3020
  call void @llvm.dbg.value(metadata i64 undef, metadata !3019, metadata !DIExpression(DW_OP_LLVM_convert, 64, DW_ATE_unsigned, DW_OP_LLVM_convert, 32, DW_ATE_unsigned, DW_OP_stack_value)), !dbg !3020
  %353 = ptrtoint i8* %344 to i64, !dbg !3022
  %354 = ptrtoint i8* %343 to i64, !dbg !3022
  %355 = sub i64 %353, %354, !dbg !3022
  call void @llvm.dbg.value(metadata i64 %355, metadata !3019, metadata !DIExpression(DW_OP_LLVM_convert, 64, DW_ATE_unsigned, DW_OP_LLVM_convert, 32, DW_ATE_unsigned, DW_OP_stack_value)), !dbg !3020
  %356 = trunc i64 %355 to i32, !dbg !3023
  call void @llvm.dbg.value(metadata i32 %356, metadata !3019, metadata !DIExpression()), !dbg !3020
  %357 = invoke zeroext i1 @_ZNK6String11hard_equalsEPKci(%class.String* nonnull %351, i8* %343, i32 %356)
          to label %358 unwind label %301, !dbg !3024

358:                                              ; preds = %352
  br i1 %357, label %364, label %359, !dbg !3026

359:                                              ; preds = %358
  %360 = call %class.String* @_ZN6VectorI6StringE5beginEv(%class.Vector.0* nonnull %7), !dbg !3027
  %361 = getelementptr inbounds %class.String, %class.String* %360, i64 %342, !dbg !3028
  %362 = call %class.String* @_ZN6VectorI6StringE3endEv(%class.Vector.0* nonnull %7), !dbg !3029
  call void @llvm.dbg.value(metadata %class.Vector.0* %7, metadata !2556, metadata !DIExpression()), !dbg !2553
  call void @llvm.dbg.value(metadata %class.String* %361, metadata !2557, metadata !DIExpression()), !dbg !2553
  call void @llvm.dbg.value(metadata %class.String* %362, metadata !2558, metadata !DIExpression()), !dbg !2553
  %363 = invoke %class.String* @_ZN13vector_memoryI18typed_array_memoryI6StringEE5eraseEPS1_S4_(%class.vector_memory.1* nonnull %115, %class.String* %361, %class.String* %362)
          to label %364 unwind label %301, !dbg !3030

364:                                              ; preds = %359, %358, %341
  call void @llvm.dbg.value(metadata %class.Vector.0* %7, metadata !2548, metadata !DIExpression()), !dbg !3031
  %365 = load i32, i32* %114, align 8, !dbg !3033, !tbaa !3011
  %366 = sext i32 %365 to i64, !dbg !3034
  %367 = icmp slt i64 %342, %366, !dbg !3034
  br i1 %367, label %432, label %368, !dbg !3035

368:                                              ; preds = %364
  call void @llvm.lifetime.start.p0i8(i64 24, i8* nonnull %116) #14, !dbg !3036
  call void @llvm.dbg.value(metadata %class.String* %11, metadata !3037, metadata !DIExpression()), !dbg !3042
  call void @llvm.dbg.value(metadata i8* %343, metadata !3040, metadata !DIExpression()), !dbg !3042
  call void @llvm.dbg.value(metadata i8* %344, metadata !3041, metadata !DIExpression()), !dbg !3042
  %369 = icmp ult i8* %343, %344, !dbg !3044
  %370 = ptrtoint i8* %344 to i64, !dbg !3046
  %371 = ptrtoint i8* %343 to i64, !dbg !3046
  %372 = sub i64 %370, %371, !dbg !3046
  %373 = trunc i64 %372 to i32, !dbg !3047
  %374 = select i1 %369, i32 %373, i32 0, !dbg !3047
  invoke void @_ZN6String6assignEPKcib(%class.String* nonnull %11, i8* %343, i32 %374, i1 zeroext false)
          to label %375 unwind label %405, !dbg !3048

375:                                              ; preds = %368
  call void @llvm.dbg.value(metadata %class.Vector.0* %7, metadata !2577, metadata !DIExpression()), !dbg !3049
  call void @llvm.dbg.value(metadata %class.String* %11, metadata !2578, metadata !DIExpression()), !dbg !3049
  call void @llvm.dbg.value(metadata %class.Vector.0* %7, metadata !2566, metadata !DIExpression()), !dbg !3050
  call void @llvm.dbg.value(metadata %class.String* %11, metadata !2567, metadata !DIExpression()), !dbg !3050
  %376 = load i32, i32* %114, align 8, !dbg !3051, !tbaa !3052
  %377 = load i32, i32* %117, align 4, !dbg !3053, !tbaa !3054
  %378 = icmp slt i32 %376, %377, !dbg !3055
  br i1 %378, label %379, label %385, !dbg !3056

379:                                              ; preds = %375
  %380 = load %class.String*, %class.String** %118, align 8, !dbg !3057, !tbaa !3058
  %381 = sext i32 %376 to i64, !dbg !3059
  %382 = getelementptr inbounds %class.String, %class.String* %380, i64 %381, !dbg !3060
  call void @llvm.dbg.value(metadata %class.String* %382, metadata !2591, metadata !DIExpression()), !dbg !3061
  call void @llvm.dbg.value(metadata %class.String* %11, metadata !2592, metadata !DIExpression()), !dbg !3061
  call void @llvm.dbg.value(metadata %class.String* %382, metadata !2586, metadata !DIExpression()) #14, !dbg !3062
  call void @llvm.dbg.value(metadata %class.String* %11, metadata !2587, metadata !DIExpression()) #14, !dbg !3062
  %383 = bitcast %class.String* %382 to i8*, !dbg !3063
  call void @llvm.memcpy.p0i8.p0i8.i64(i8* nonnull align 8 dereferenceable(24) %383, i8* nonnull align 8 dereferenceable(24) %116, i64 24, i1 false) #14, !dbg !3063, !tbaa.struct !3064
  store %"struct.String::memo_t"* null, %"struct.String::memo_t"** %119, align 8, !dbg !3065, !tbaa !1704
  %384 = add nsw i32 %376, 1, !dbg !3066
  store i32 %384, i32* %114, align 8, !dbg !3066, !tbaa !3052
  call void @llvm.dbg.value(metadata %class.String* %11, metadata !2128, metadata !DIExpression()) #14, !dbg !3067
  call void @llvm.dbg.value(metadata %class.String* %11, metadata !2130, metadata !DIExpression()) #14, !dbg !3069
  br label %404, !dbg !3071

385:                                              ; preds = %375
  call void @llvm.dbg.value(metadata %class.vector_memory.1* %115, metadata !2566, metadata !DIExpression()), !dbg !3050
  %386 = invoke zeroext i1 @_ZN13vector_memoryI18typed_array_memoryI6StringEE21reserve_and_push_backEiPKS1_(%class.vector_memory.1* nonnull %115, i32 -1, %class.String* nonnull %11)
          to label %387 unwind label %409, !dbg !3072

387:                                              ; preds = %385
  %388 = load %"struct.String::memo_t"*, %"struct.String::memo_t"** %119, align 8, !dbg !3073, !tbaa !1704
  call void @llvm.dbg.value(metadata %class.String* %11, metadata !2128, metadata !DIExpression()) #14, !dbg !3067
  call void @llvm.dbg.value(metadata %class.String* %11, metadata !2130, metadata !DIExpression()) #14, !dbg !3069
  %389 = icmp eq %"struct.String::memo_t"* %388, null, !dbg !3074
  br i1 %389, label %404, label %390, !dbg !3071

390:                                              ; preds = %387
  %391 = getelementptr inbounds %"struct.String::memo_t", %"struct.String::memo_t"* %388, i64 0, i32 0, !dbg !3075
  %392 = load volatile i32, i32* %391, align 4, !dbg !3075, !tbaa !2142
  %393 = icmp eq i32 %392, 0, !dbg !3075
  br i1 %393, label %394, label %395, !dbg !3075

394:                                              ; preds = %390
  call void @__assert_fail(i8* getelementptr inbounds ([18 x i8], [18 x i8]* @.str.21, i64 0, i64 0), i8* getelementptr inbounds ([29 x i8], [29 x i8]* @.str.22, i64 0, i64 0), i32 273, i8* getelementptr inbounds ([27 x i8], [27 x i8]* @__PRETTY_FUNCTION__._ZNK6String5derefEv, i64 0, i64 0)) #13, !dbg !3075
  unreachable, !dbg !3075

395:                                              ; preds = %390
  call void @llvm.dbg.value(metadata i32* %391, metadata !2144, metadata !DIExpression()) #14, !dbg !3076
  %396 = load volatile i32, i32* %391, align 4, !dbg !3078, !tbaa !2209
  %397 = add i32 %396, -1, !dbg !3078
  store volatile i32 %397, i32* %391, align 4, !dbg !3078, !tbaa !2209
  %398 = icmp eq i32 %397, 0, !dbg !3079
  br i1 %398, label %399, label %400, !dbg !3080

399:                                              ; preds = %395
  invoke void @_ZN6String11delete_memoEPNS_6memo_tE(%"struct.String::memo_t"* nonnull %388)
          to label %400 unwind label %401, !dbg !3081

400:                                              ; preds = %399, %395
  store %"struct.String::memo_t"* null, %"struct.String::memo_t"** %119, align 8, !dbg !3082, !tbaa !1704
  br label %404, !dbg !3083

401:                                              ; preds = %399
  %402 = landingpad { i8*, i32 }
          catch i8* null, !dbg !3084
  %403 = extractvalue { i8*, i32 } %402, 0, !dbg !3084
  call void @__clang_call_terminate(i8* %403) #13, !dbg !3084
  unreachable, !dbg !3084

404:                                              ; preds = %400, %387, %379
  call void @llvm.lifetime.end.p0i8(i64 24, i8* nonnull %116) #14, !dbg !3085
  br label %432, !dbg !3085

405:                                              ; preds = %368
  %406 = landingpad { i8*, i32 }
          cleanup, !dbg !3086
  %407 = extractvalue { i8*, i32 } %406, 0, !dbg !3086
  %408 = extractvalue { i8*, i32 } %406, 1, !dbg !3086
  br label %429, !dbg !3086

409:                                              ; preds = %385
  %410 = landingpad { i8*, i32 }
          cleanup, !dbg !3086
  %411 = extractvalue { i8*, i32 } %410, 0, !dbg !3086
  %412 = extractvalue { i8*, i32 } %410, 1, !dbg !3086
  call void @llvm.dbg.value(metadata %class.String* %11, metadata !2128, metadata !DIExpression()) #14, !dbg !3087
  call void @llvm.dbg.value(metadata %class.String* %11, metadata !2130, metadata !DIExpression()) #14, !dbg !3089
  %413 = load %"struct.String::memo_t"*, %"struct.String::memo_t"** %119, align 8, !dbg !3091, !tbaa !1704
  %414 = icmp eq %"struct.String::memo_t"* %413, null, !dbg !3092
  br i1 %414, label %429, label %415, !dbg !3093

415:                                              ; preds = %409
  %416 = getelementptr inbounds %"struct.String::memo_t", %"struct.String::memo_t"* %413, i64 0, i32 0, !dbg !3094
  %417 = load volatile i32, i32* %416, align 4, !dbg !3094, !tbaa !2142
  %418 = icmp eq i32 %417, 0, !dbg !3094
  br i1 %418, label %419, label %420, !dbg !3094

419:                                              ; preds = %415
  call void @__assert_fail(i8* getelementptr inbounds ([18 x i8], [18 x i8]* @.str.21, i64 0, i64 0), i8* getelementptr inbounds ([29 x i8], [29 x i8]* @.str.22, i64 0, i64 0), i32 273, i8* getelementptr inbounds ([27 x i8], [27 x i8]* @__PRETTY_FUNCTION__._ZNK6String5derefEv, i64 0, i64 0)) #13, !dbg !3094
  unreachable, !dbg !3094

420:                                              ; preds = %415
  call void @llvm.dbg.value(metadata i32* %416, metadata !2144, metadata !DIExpression()) #14, !dbg !3095
  %421 = load volatile i32, i32* %416, align 4, !dbg !3097, !tbaa !2209
  %422 = add i32 %421, -1, !dbg !3097
  store volatile i32 %422, i32* %416, align 4, !dbg !3097, !tbaa !2209
  %423 = icmp eq i32 %422, 0, !dbg !3098
  br i1 %423, label %424, label %425, !dbg !3099

424:                                              ; preds = %420
  invoke void @_ZN6String11delete_memoEPNS_6memo_tE(%"struct.String::memo_t"* nonnull %413)
          to label %425 unwind label %426, !dbg !3100

425:                                              ; preds = %424, %420
  store %"struct.String::memo_t"* null, %"struct.String::memo_t"** %119, align 8, !dbg !3101, !tbaa !1704
  br label %429, !dbg !3102

426:                                              ; preds = %424
  %427 = landingpad { i8*, i32 }
          catch i8* null, !dbg !3103
  %428 = extractvalue { i8*, i32 } %427, 0, !dbg !3103
  call void @__clang_call_terminate(i8* %428) #13, !dbg !3103
  unreachable, !dbg !3103

429:                                              ; preds = %425, %409, %405
  %430 = phi i32 [ %408, %405 ], [ %412, %409 ], [ %412, %425 ], !dbg !3086
  %431 = phi i8* [ %407, %405 ], [ %411, %409 ], [ %411, %425 ], !dbg !3086
  call void @llvm.lifetime.end.p0i8(i64 24, i8* nonnull %116) #14, !dbg !3085
  br label %503, !dbg !3085

432:                                              ; preds = %404, %364
  %433 = add nuw i64 %342, 1, !dbg !3104
  call void @llvm.dbg.value(metadata i64 %433, metadata !2315, metadata !DIExpression()), !dbg !2519
  call void @llvm.dbg.value(metadata i8* %345, metadata !2309, metadata !DIExpression()), !dbg !2519
  %434 = icmp ult i8* %345, %130, !dbg !3105
  br i1 %434, label %435, label %444, !dbg !3108

435:                                              ; preds = %432, %441
  %436 = phi i8* [ %442, %441 ], [ %345, %432 ]
  call void @llvm.dbg.value(metadata i8* %436, metadata !2309, metadata !DIExpression()), !dbg !2519
  %437 = load i8, i8* %436, align 1, !dbg !3109, !tbaa !2597
  %438 = zext i8 %437 to i32, !dbg !3110
  %439 = call i32 @isspace(i32 %438) #16, !dbg !3111
  %440 = icmp eq i32 %439, 0, !dbg !3111
  br i1 %440, label %444, label %441, !dbg !3112

441:                                              ; preds = %435
  %442 = getelementptr inbounds i8, i8* %436, i64 1, !dbg !3113
  call void @llvm.dbg.value(metadata i8* %442, metadata !2309, metadata !DIExpression()), !dbg !2519
  %443 = icmp eq i8* %442, %130, !dbg !3105
  br i1 %443, label %459, label %435, !dbg !3108, !llvm.loop !3114

444:                                              ; preds = %435, %432
  %445 = phi i8* [ %345, %432 ], [ %436, %435 ], !dbg !3116
  call void @llvm.dbg.value(metadata i8* %445, metadata !2309, metadata !DIExpression()), !dbg !2519
  call void @llvm.dbg.value(metadata i8* %445, metadata !2309, metadata !DIExpression()), !dbg !2519
  call void @llvm.dbg.value(metadata i8* %445, metadata !2310, metadata !DIExpression()), !dbg !2519
  %446 = icmp ult i8* %445, %130, !dbg !3117
  br i1 %446, label %447, label %459, !dbg !3120

447:                                              ; preds = %444, %453
  %448 = phi i8* [ %454, %453 ], [ %445, %444 ]
  call void @llvm.dbg.value(metadata i8* %448, metadata !2310, metadata !DIExpression()), !dbg !2519
  %449 = load i8, i8* %448, align 1, !dbg !3121, !tbaa !2597
  %450 = zext i8 %449 to i32, !dbg !3122
  %451 = call i32 @isspace(i32 %450) #16, !dbg !3123
  %452 = icmp eq i32 %451, 0, !dbg !3123
  br i1 %452, label %453, label %456, !dbg !3124

453:                                              ; preds = %447
  %454 = getelementptr inbounds i8, i8* %448, i64 1, !dbg !3125
  call void @llvm.dbg.value(metadata i8* %454, metadata !2310, metadata !DIExpression()), !dbg !2519
  %455 = icmp eq i8* %454, %130, !dbg !3117
  br i1 %455, label %456, label %447, !dbg !3120, !llvm.loop !3126

456:                                              ; preds = %453, %447
  %457 = phi i8* [ %448, %447 ], [ %130, %453 ], !dbg !3128
  call void @llvm.dbg.value(metadata i8* %457, metadata !2310, metadata !DIExpression()), !dbg !2519
  call void @llvm.dbg.value(metadata i8* %457, metadata !2310, metadata !DIExpression()), !dbg !2519
  call void @llvm.dbg.value(metadata i8* %457, metadata !2312, metadata !DIExpression()), !dbg !2519
  %458 = icmp eq i8* %445, %457, !dbg !3129
  br i1 %458, label %459, label %341, !dbg !3130, !llvm.loop !3131

459:                                              ; preds = %456, %444, %441
  %460 = call %class.String* @_ZN6VectorI6StringE5beginEv(%class.Vector.0* nonnull %7), !dbg !3133
  call void @llvm.dbg.value(metadata %class.String* %460, metadata !2317, metadata !DIExpression()), !dbg !3134
  %461 = call %class.String* @_ZN6VectorI6StringE5beginEv(%class.Vector.0* nonnull %7), !dbg !3135
  %462 = and i64 %433, 4294967295, !dbg !3137
  %463 = getelementptr inbounds %class.String, %class.String* %461, i64 %462, !dbg !3137
  %464 = icmp eq %class.String* %460, %463, !dbg !3138
  br i1 %464, label %482, label %469, !dbg !3139

465:                                              ; preds = %469
  %466 = landingpad { i8*, i32 }
          cleanup, !dbg !3140
  %467 = extractvalue { i8*, i32 } %466, 0, !dbg !3140
  %468 = extractvalue { i8*, i32 } %466, 1, !dbg !3140
  br label %503, !dbg !3141

469:                                              ; preds = %459, %477
  %470 = phi %class.String* [ %478, %477 ], [ %460, %459 ]
  call void @llvm.dbg.value(metadata %class.String* %470, metadata !2317, metadata !DIExpression()), !dbg !3134
  %471 = load %class.DynamicNameDB*, %class.DynamicNameDB** %312, align 8, !dbg !3142, !tbaa !1713
  %472 = bitcast %class.DynamicNameDB* %471 to i1 (%class.DynamicNameDB*, %class.String*, i8*, i64)***, !dbg !3143
  %473 = load i1 (%class.DynamicNameDB*, %class.String*, i8*, i64)**, i1 (%class.DynamicNameDB*, %class.String*, i8*, i64)*** %472, align 8, !dbg !3143, !tbaa !1710
  %474 = getelementptr inbounds i1 (%class.DynamicNameDB*, %class.String*, i8*, i64)*, i1 (%class.DynamicNameDB*, %class.String*, i8*, i64)** %473, i64 4, !dbg !3143
  %475 = load i1 (%class.DynamicNameDB*, %class.String*, i8*, i64)*, i1 (%class.DynamicNameDB*, %class.String*, i8*, i64)** %474, align 8, !dbg !3143
  %476 = invoke zeroext i1 %475(%class.DynamicNameDB* %471, %class.String* dereferenceable(24) %470, i8* nonnull %106, i64 4)
          to label %477 unwind label %465, !dbg !3143

477:                                              ; preds = %469
  %478 = getelementptr inbounds %class.String, %class.String* %470, i64 1, !dbg !3144
  call void @llvm.dbg.value(metadata %class.String* %478, metadata !2317, metadata !DIExpression()), !dbg !3134
  %479 = call %class.String* @_ZN6VectorI6StringE5beginEv(%class.Vector.0* nonnull %7), !dbg !3135
  %480 = getelementptr inbounds %class.String, %class.String* %479, i64 %462, !dbg !3137
  %481 = icmp eq %class.String* %478, %480, !dbg !3138
  br i1 %481, label %482, label %469, !dbg !3139, !llvm.loop !3145

482:                                              ; preds = %163, %477, %169, %459, %309, %264, %200, %199, %191, %166, %153
  call void @llvm.dbg.label(metadata !2320), !dbg !3147
  call void @llvm.dbg.value(metadata i8* %130, metadata !2305, metadata !DIExpression()), !dbg !2421
  %483 = icmp ult i8* %130, %102, !dbg !3148
  br i1 %483, label %484, label %490, !dbg !3149

484:                                              ; preds = %482, %487
  %485 = phi i8* [ %488, %487 ], [ %130, %482 ]
  call void @llvm.dbg.value(metadata i8* %485, metadata !2305, metadata !DIExpression()), !dbg !2421
  %486 = load i8, i8* %485, align 1, !dbg !3150, !tbaa !2597
  switch i8 %486, label %487 [
    i8 13, label %490
    i8 10, label %490
  ], !dbg !3151

487:                                              ; preds = %484
  %488 = getelementptr inbounds i8, i8* %485, i64 1, !dbg !3152
  call void @llvm.dbg.value(metadata i8* %488, metadata !2305, metadata !DIExpression()), !dbg !2421
  %489 = icmp eq i8* %488, %102, !dbg !3148
  br i1 %489, label %499, label %484, !dbg !3149, !llvm.loop !3153

490:                                              ; preds = %484, %484, %482
  %491 = phi i8* [ %130, %482 ], [ %485, %484 ], [ %485, %484 ], !dbg !2519
  call void @llvm.dbg.value(metadata i8* %491, metadata !2305, metadata !DIExpression()), !dbg !2421
  call void @llvm.dbg.value(metadata i8* %491, metadata !2305, metadata !DIExpression()), !dbg !2421
  call void @llvm.dbg.value(metadata i8* %491, metadata !2305, metadata !DIExpression()), !dbg !2421
  %492 = icmp ult i8* %491, %102, !dbg !3155
  br i1 %492, label %493, label %500, !dbg !3156

493:                                              ; preds = %490, %496
  %494 = phi i8* [ %497, %496 ], [ %491, %490 ]
  call void @llvm.dbg.value(metadata i8* %494, metadata !2305, metadata !DIExpression()), !dbg !2421
  %495 = load i8, i8* %494, align 1, !dbg !3157, !tbaa !2597
  switch i8 %495, label %500 [
    i8 13, label %496
    i8 10, label %496
  ], !dbg !3158

496:                                              ; preds = %493, %493
  %497 = getelementptr inbounds i8, i8* %494, i64 1, !dbg !3159
  call void @llvm.dbg.value(metadata i8* %497, metadata !2305, metadata !DIExpression()), !dbg !2421
  %498 = icmp eq i8* %497, %102, !dbg !3155
  br i1 %498, label %499, label %493, !dbg !3156, !llvm.loop !3160

499:                                              ; preds = %487, %496
  call void @llvm.dbg.value(metadata i8* %501, metadata !2305, metadata !DIExpression()), !dbg !2421
  call void @llvm.lifetime.end.p0i8(i64 4, i8* nonnull %107) #14, !dbg !3162
  call void @llvm.lifetime.end.p0i8(i64 4, i8* nonnull %106) #14, !dbg !3162
  br label %104, !dbg !2517

500:                                              ; preds = %493, %490
  %501 = phi i8* [ %491, %490 ], [ %494, %493 ], !dbg !2519
  call void @llvm.dbg.value(metadata i8* %501, metadata !2305, metadata !DIExpression()), !dbg !2421
  call void @llvm.lifetime.end.p0i8(i64 4, i8* nonnull %107) #14, !dbg !3162
  call void @llvm.lifetime.end.p0i8(i64 4, i8* nonnull %106) #14, !dbg !3162
  %502 = icmp ult i8* %501, %102, !dbg !2516
  br i1 %502, label %120, label %104, !dbg !2517, !llvm.loop !3163

503:                                              ; preds = %465, %429, %305, %285
  %504 = phi i32 [ %468, %465 ], [ %430, %429 ], [ %308, %305 ], [ %268, %285 ], !dbg !2519
  %505 = phi i8* [ %467, %465 ], [ %431, %429 ], [ %307, %305 ], [ %267, %285 ], !dbg !2519
  call void @llvm.lifetime.end.p0i8(i64 4, i8* nonnull %107) #14, !dbg !3162
  call void @llvm.lifetime.end.p0i8(i64 4, i8* nonnull %106) #14, !dbg !3162
  call void @llvm.dbg.value(metadata %class.Vector.0* %7, metadata !3164, metadata !DIExpression()) #14, !dbg !3169
  call void @llvm.dbg.value(metadata %class.Vector.0* %7, metadata !3171, metadata !DIExpression()) #14, !dbg !3175
  %506 = load %class.String*, %class.String** %118, align 8, !dbg !3178, !tbaa !3058
  %507 = load i32, i32* %114, align 8, !dbg !3180, !tbaa !3052
  %508 = sext i32 %507 to i64, !dbg !3180
  call void @llvm.dbg.value(metadata %class.String* %506, metadata !3181, metadata !DIExpression()) #14, !dbg !3187
  call void @llvm.dbg.value(metadata i64 %508, metadata !3184, metadata !DIExpression()) #14, !dbg !3187
  call void @llvm.dbg.value(metadata i64 0, metadata !3185, metadata !DIExpression()) #14, !dbg !3189
  %509 = icmp eq i32 %507, 0, !dbg !3190
  br i1 %509, label %510, label %512, !dbg !3192

510:                                              ; preds = %503
  %511 = bitcast %class.String* %506 to i8*, !dbg !3192
  br label %537, !dbg !3192

512:                                              ; preds = %503, %531
  %513 = phi i64 [ %532, %531 ], [ 0, %503 ]
  call void @llvm.dbg.value(metadata i64 %513, metadata !3185, metadata !DIExpression()) #14, !dbg !3189
  call void @llvm.dbg.value(metadata %class.String* undef, metadata !2128, metadata !DIExpression()) #14, !dbg !3193
  call void @llvm.dbg.value(metadata %class.String* undef, metadata !2130, metadata !DIExpression()) #14, !dbg !3195
  %514 = getelementptr inbounds %class.String, %class.String* %506, i64 %513, i32 0, i32 2, !dbg !3197
  %515 = load %"struct.String::memo_t"*, %"struct.String::memo_t"** %514, align 8, !dbg !3197, !tbaa !1704
  %516 = icmp eq %"struct.String::memo_t"* %515, null, !dbg !3198
  br i1 %516, label %531, label %517, !dbg !3199

517:                                              ; preds = %512
  %518 = getelementptr inbounds %"struct.String::memo_t", %"struct.String::memo_t"* %515, i64 0, i32 0, !dbg !3200
  %519 = load volatile i32, i32* %518, align 4, !dbg !3200, !tbaa !2142
  %520 = icmp eq i32 %519, 0, !dbg !3200
  br i1 %520, label %521, label %522, !dbg !3200

521:                                              ; preds = %517
  call void @__assert_fail(i8* getelementptr inbounds ([18 x i8], [18 x i8]* @.str.21, i64 0, i64 0), i8* getelementptr inbounds ([29 x i8], [29 x i8]* @.str.22, i64 0, i64 0), i32 273, i8* getelementptr inbounds ([27 x i8], [27 x i8]* @__PRETTY_FUNCTION__._ZNK6String5derefEv, i64 0, i64 0)) #13, !dbg !3200
  unreachable, !dbg !3200

522:                                              ; preds = %517
  call void @llvm.dbg.value(metadata i32* %518, metadata !2144, metadata !DIExpression()) #14, !dbg !3201
  %523 = load volatile i32, i32* %518, align 4, !dbg !3203, !tbaa !2209
  %524 = add i32 %523, -1, !dbg !3203
  store volatile i32 %524, i32* %518, align 4, !dbg !3203, !tbaa !2209
  %525 = icmp eq i32 %524, 0, !dbg !3204
  br i1 %525, label %526, label %527, !dbg !3205

526:                                              ; preds = %522
  invoke void @_ZN6String11delete_memoEPNS_6memo_tE(%"struct.String::memo_t"* nonnull %515)
          to label %527 unwind label %528, !dbg !3206

527:                                              ; preds = %526, %522
  store %"struct.String::memo_t"* null, %"struct.String::memo_t"** %514, align 8, !dbg !3207, !tbaa !1704
  br label %531, !dbg !3208

528:                                              ; preds = %526
  %529 = landingpad { i8*, i32 }
          catch i8* null, !dbg !3209
  %530 = extractvalue { i8*, i32 } %529, 0, !dbg !3209
  call void @__clang_call_terminate(i8* %530) #13, !dbg !3209
  unreachable, !dbg !3209

531:                                              ; preds = %527, %512
  %532 = add nuw i64 %513, 1, !dbg !3210
  call void @llvm.dbg.value(metadata i64 %532, metadata !3185, metadata !DIExpression()) #14, !dbg !3189
  %533 = icmp eq i64 %532, %508, !dbg !3190
  br i1 %533, label %534, label %512, !dbg !3192, !llvm.loop !3211

534:                                              ; preds = %531
  %535 = bitcast %class.Vector.0* %7 to i8**, !dbg !3213
  %536 = load i8*, i8** %535, align 8, !dbg !3214, !tbaa !3058
  br label %537, !dbg !3214

537:                                              ; preds = %534, %510
  %538 = phi i8* [ %536, %534 ], [ %511, %510 ], !dbg !3214
  %539 = icmp eq i8* %538, null, !dbg !3214
  br i1 %539, label %604, label %540, !dbg !3214

540:                                              ; preds = %537
  call void @_ZdaPv(i8* nonnull %538) #15, !dbg !3214
  br label %604, !dbg !3214

541:                                              ; preds = %104, %541
  %542 = phi %"class.(anonymous namespace)::ServicesNameDB"* [ %545, %541 ], [ %0, %104 ], !dbg !2421
  call void @llvm.dbg.value(metadata %"class.(anonymous namespace)::ServicesNameDB"* %542, metadata !2319, metadata !DIExpression()), !dbg !2421
  %543 = getelementptr inbounds %"class.(anonymous namespace)::ServicesNameDB", %"class.(anonymous namespace)::ServicesNameDB"* %542, i64 0, i32 2, !dbg !3215
  store i8 1, i8* %543, align 8, !dbg !3217, !tbaa !1717
  %544 = getelementptr inbounds %"class.(anonymous namespace)::ServicesNameDB", %"class.(anonymous namespace)::ServicesNameDB"* %542, i64 0, i32 3, !dbg !3218
  %545 = load %"class.(anonymous namespace)::ServicesNameDB"*, %"class.(anonymous namespace)::ServicesNameDB"** %544, align 8, !dbg !3218, !tbaa !1725
  call void @llvm.dbg.value(metadata %"class.(anonymous namespace)::ServicesNameDB"* %545, metadata !2319, metadata !DIExpression()), !dbg !2421
  %546 = icmp eq %"class.(anonymous namespace)::ServicesNameDB"* %545, %0, !dbg !3219
  br i1 %546, label %547, label %541, !dbg !3220, !llvm.loop !3221

547:                                              ; preds = %541
  call void @llvm.dbg.value(metadata %class.Vector.0* %7, metadata !3164, metadata !DIExpression()) #14, !dbg !3223
  call void @llvm.dbg.value(metadata %class.Vector.0* %7, metadata !3171, metadata !DIExpression()) #14, !dbg !3225
  %548 = getelementptr inbounds %class.Vector.0, %class.Vector.0* %7, i64 0, i32 0, i32 0, !dbg !3227
  %549 = load %class.String*, %class.String** %548, align 8, !dbg !3227, !tbaa !3058
  %550 = getelementptr inbounds %class.Vector.0, %class.Vector.0* %7, i64 0, i32 0, i32 1, !dbg !3228
  %551 = load i32, i32* %550, align 8, !dbg !3228, !tbaa !3052
  %552 = sext i32 %551 to i64, !dbg !3228
  call void @llvm.dbg.value(metadata %class.String* %549, metadata !3181, metadata !DIExpression()) #14, !dbg !3229
  call void @llvm.dbg.value(metadata i64 %552, metadata !3184, metadata !DIExpression()) #14, !dbg !3229
  call void @llvm.dbg.value(metadata i64 0, metadata !3185, metadata !DIExpression()) #14, !dbg !3231
  %553 = icmp eq i32 %551, 0, !dbg !3232
  br i1 %553, label %554, label %556, !dbg !3233

554:                                              ; preds = %547
  %555 = bitcast %class.String* %549 to i8*, !dbg !3233
  br label %581, !dbg !3233

556:                                              ; preds = %547, %575
  %557 = phi i64 [ %576, %575 ], [ 0, %547 ]
  call void @llvm.dbg.value(metadata i64 %557, metadata !3185, metadata !DIExpression()) #14, !dbg !3231
  call void @llvm.dbg.value(metadata %class.String* undef, metadata !2128, metadata !DIExpression()) #14, !dbg !3234
  call void @llvm.dbg.value(metadata %class.String* undef, metadata !2130, metadata !DIExpression()) #14, !dbg !3236
  %558 = getelementptr inbounds %class.String, %class.String* %549, i64 %557, i32 0, i32 2, !dbg !3238
  %559 = load %"struct.String::memo_t"*, %"struct.String::memo_t"** %558, align 8, !dbg !3238, !tbaa !1704
  %560 = icmp eq %"struct.String::memo_t"* %559, null, !dbg !3239
  br i1 %560, label %575, label %561, !dbg !3240

561:                                              ; preds = %556
  %562 = getelementptr inbounds %"struct.String::memo_t", %"struct.String::memo_t"* %559, i64 0, i32 0, !dbg !3241
  %563 = load volatile i32, i32* %562, align 4, !dbg !3241, !tbaa !2142
  %564 = icmp eq i32 %563, 0, !dbg !3241
  br i1 %564, label %565, label %566, !dbg !3241

565:                                              ; preds = %561
  call void @__assert_fail(i8* getelementptr inbounds ([18 x i8], [18 x i8]* @.str.21, i64 0, i64 0), i8* getelementptr inbounds ([29 x i8], [29 x i8]* @.str.22, i64 0, i64 0), i32 273, i8* getelementptr inbounds ([27 x i8], [27 x i8]* @__PRETTY_FUNCTION__._ZNK6String5derefEv, i64 0, i64 0)) #13, !dbg !3241
  unreachable, !dbg !3241

566:                                              ; preds = %561
  call void @llvm.dbg.value(metadata i32* %562, metadata !2144, metadata !DIExpression()) #14, !dbg !3242
  %567 = load volatile i32, i32* %562, align 4, !dbg !3244, !tbaa !2209
  %568 = add i32 %567, -1, !dbg !3244
  store volatile i32 %568, i32* %562, align 4, !dbg !3244, !tbaa !2209
  %569 = icmp eq i32 %568, 0, !dbg !3245
  br i1 %569, label %570, label %571, !dbg !3246

570:                                              ; preds = %566
  invoke void @_ZN6String11delete_memoEPNS_6memo_tE(%"struct.String::memo_t"* nonnull %559)
          to label %571 unwind label %572, !dbg !3247

571:                                              ; preds = %570, %566
  store %"struct.String::memo_t"* null, %"struct.String::memo_t"** %558, align 8, !dbg !3248, !tbaa !1704
  br label %575, !dbg !3249

572:                                              ; preds = %570
  %573 = landingpad { i8*, i32 }
          catch i8* null, !dbg !3250
  %574 = extractvalue { i8*, i32 } %573, 0, !dbg !3250
  call void @__clang_call_terminate(i8* %574) #13, !dbg !3250
  unreachable, !dbg !3250

575:                                              ; preds = %571, %556
  %576 = add nuw i64 %557, 1, !dbg !3251
  call void @llvm.dbg.value(metadata i64 %576, metadata !3185, metadata !DIExpression()) #14, !dbg !3231
  %577 = icmp eq i64 %576, %552, !dbg !3232
  br i1 %577, label %578, label %556, !dbg !3233, !llvm.loop !3252

578:                                              ; preds = %575
  %579 = bitcast %class.Vector.0* %7 to i8**, !dbg !3254
  %580 = load i8*, i8** %579, align 8, !dbg !3255, !tbaa !3058
  br label %581, !dbg !3255

581:                                              ; preds = %578, %554
  %582 = phi i8* [ %580, %578 ], [ %555, %554 ], !dbg !3255
  %583 = icmp eq i8* %582, null, !dbg !3255
  br i1 %583, label %585, label %584, !dbg !3255

584:                                              ; preds = %581
  call void @_ZdaPv(i8* nonnull %582) #15, !dbg !3255
  br label %585, !dbg !3255

585:                                              ; preds = %584, %581
  call void @llvm.lifetime.end.p0i8(i64 16, i8* nonnull %98) #14, !dbg !2478
  br label %586, !dbg !2478

586:                                              ; preds = %585, %72
  call void @llvm.dbg.value(metadata %class.String* %5, metadata !2128, metadata !DIExpression()) #14, !dbg !3256
  call void @llvm.dbg.value(metadata %class.String* %5, metadata !2130, metadata !DIExpression()) #14, !dbg !3258
  %587 = getelementptr inbounds %class.String, %class.String* %5, i64 0, i32 0, i32 2, !dbg !3260
  %588 = load %"struct.String::memo_t"*, %"struct.String::memo_t"** %587, align 8, !dbg !3260, !tbaa !1704
  %589 = icmp eq %"struct.String::memo_t"* %588, null, !dbg !3261
  br i1 %589, label %626, label %590, !dbg !3262

590:                                              ; preds = %586
  %591 = getelementptr inbounds %"struct.String::memo_t", %"struct.String::memo_t"* %588, i64 0, i32 0, !dbg !3263
  %592 = load volatile i32, i32* %591, align 4, !dbg !3263, !tbaa !2142
  %593 = icmp eq i32 %592, 0, !dbg !3263
  br i1 %593, label %594, label %595, !dbg !3263

594:                                              ; preds = %590
  call void @__assert_fail(i8* getelementptr inbounds ([18 x i8], [18 x i8]* @.str.21, i64 0, i64 0), i8* getelementptr inbounds ([29 x i8], [29 x i8]* @.str.22, i64 0, i64 0), i32 273, i8* getelementptr inbounds ([27 x i8], [27 x i8]* @__PRETTY_FUNCTION__._ZNK6String5derefEv, i64 0, i64 0)) #13, !dbg !3263
  unreachable, !dbg !3263

595:                                              ; preds = %590
  call void @llvm.dbg.value(metadata i32* %591, metadata !2144, metadata !DIExpression()) #14, !dbg !3264
  %596 = load volatile i32, i32* %591, align 4, !dbg !3266, !tbaa !2209
  %597 = add i32 %596, -1, !dbg !3266
  store volatile i32 %597, i32* %591, align 4, !dbg !3266, !tbaa !2209
  %598 = icmp eq i32 %597, 0, !dbg !3267
  br i1 %598, label %599, label %600, !dbg !3268

599:                                              ; preds = %595
  invoke void @_ZN6String11delete_memoEPNS_6memo_tE(%"struct.String::memo_t"* nonnull %588)
          to label %600 unwind label %601, !dbg !3269

600:                                              ; preds = %599, %595
  store %"struct.String::memo_t"* null, %"struct.String::memo_t"** %587, align 8, !dbg !3270, !tbaa !1704
  br label %626, !dbg !3271

601:                                              ; preds = %599
  %602 = landingpad { i8*, i32 }
          catch i8* null, !dbg !3272
  %603 = extractvalue { i8*, i32 } %602, 0, !dbg !3272
  call void @__clang_call_terminate(i8* %603) #13, !dbg !3272
  unreachable, !dbg !3272

604:                                              ; preds = %540, %537
  call void @llvm.lifetime.end.p0i8(i64 16, i8* nonnull %98) #14, !dbg !2478
  call void @llvm.dbg.value(metadata %class.String* %5, metadata !2128, metadata !DIExpression()) #14, !dbg !3273
  call void @llvm.dbg.value(metadata %class.String* %5, metadata !2130, metadata !DIExpression()) #14, !dbg !3275
  %605 = load %"struct.String::memo_t"*, %"struct.String::memo_t"** %110, align 8, !dbg !3277, !tbaa !1704
  %606 = icmp eq %"struct.String::memo_t"* %605, null, !dbg !3278
  br i1 %606, label %621, label %607, !dbg !3279

607:                                              ; preds = %604
  %608 = getelementptr inbounds %"struct.String::memo_t", %"struct.String::memo_t"* %605, i64 0, i32 0, !dbg !3280
  %609 = load volatile i32, i32* %608, align 4, !dbg !3280, !tbaa !2142
  %610 = icmp eq i32 %609, 0, !dbg !3280
  br i1 %610, label %611, label %612, !dbg !3280

611:                                              ; preds = %607
  call void @__assert_fail(i8* getelementptr inbounds ([18 x i8], [18 x i8]* @.str.21, i64 0, i64 0), i8* getelementptr inbounds ([29 x i8], [29 x i8]* @.str.22, i64 0, i64 0), i32 273, i8* getelementptr inbounds ([27 x i8], [27 x i8]* @__PRETTY_FUNCTION__._ZNK6String5derefEv, i64 0, i64 0)) #13, !dbg !3280
  unreachable, !dbg !3280

612:                                              ; preds = %607
  call void @llvm.dbg.value(metadata i32* %608, metadata !2144, metadata !DIExpression()) #14, !dbg !3281
  %613 = load volatile i32, i32* %608, align 4, !dbg !3283, !tbaa !2209
  %614 = add i32 %613, -1, !dbg !3283
  store volatile i32 %614, i32* %608, align 4, !dbg !3283, !tbaa !2209
  %615 = icmp eq i32 %614, 0, !dbg !3284
  br i1 %615, label %616, label %617, !dbg !3285

616:                                              ; preds = %612
  invoke void @_ZN6String11delete_memoEPNS_6memo_tE(%"struct.String::memo_t"* nonnull %605)
          to label %617 unwind label %618, !dbg !3286

617:                                              ; preds = %616, %612
  store %"struct.String::memo_t"* null, %"struct.String::memo_t"** %110, align 8, !dbg !3287, !tbaa !1704
  br label %621, !dbg !3288

618:                                              ; preds = %616
  %619 = landingpad { i8*, i32 }
          catch i8* null, !dbg !3289
  %620 = extractvalue { i8*, i32 } %619, 0, !dbg !3289
  call void @__clang_call_terminate(i8* %620) #13, !dbg !3289
  unreachable, !dbg !3289

621:                                              ; preds = %617, %604, %93, %76
  %622 = phi i32 [ %79, %76 ], [ %79, %93 ], [ %504, %604 ], [ %504, %617 ], !dbg !2421
  %623 = phi i8* [ %78, %76 ], [ %78, %93 ], [ %505, %604 ], [ %505, %617 ], !dbg !2421
  call void @llvm.lifetime.end.p0i8(i64 24, i8* nonnull %52) #14, !dbg !2478
  %624 = insertvalue { i8*, i32 } undef, i8* %623, 0, !dbg !2478
  %625 = insertvalue { i8*, i32 } %624, i32 %622, 1, !dbg !2478
  resume { i8*, i32 } %625, !dbg !2478

626:                                              ; preds = %586, %600
  call void @llvm.lifetime.end.p0i8(i64 24, i8* nonnull %52) #14, !dbg !2478
  call void @llvm.lifetime.end.p0i8(i64 24, i8* nonnull %48), !dbg !2478
  br label %627, !dbg !3290

627:                                              ; preds = %43, %626
  call void @llvm.dbg.value(metadata %"class.(anonymous namespace)::ServicesNameDB"* %0, metadata !2422, metadata !DIExpression()), !dbg !3291
  %628 = getelementptr inbounds %"class.(anonymous namespace)::ServicesNameDB", %"class.(anonymous namespace)::ServicesNameDB"* %0, i64 0, i32 0, i32 1, !dbg !3293
  %629 = load i32, i32* %628, align 8, !dbg !3293, !tbaa !1671
  %630 = icmp eq i32 %629, 67108867, !dbg !3294
  br i1 %630, label %631, label %651, !dbg !3295

631:                                              ; preds = %627
  %632 = getelementptr inbounds %"class.(anonymous namespace)::ServicesNameDB", %"class.(anonymous namespace)::ServicesNameDB"* %0, i64 0, i32 1, !dbg !3296
  %633 = load %class.DynamicNameDB*, %class.DynamicNameDB** %632, align 8, !dbg !3296, !tbaa !1713
  %634 = icmp eq %class.DynamicNameDB* %633, null, !dbg !3296
  br i1 %634, label %635, label %643, !dbg !3297

635:                                              ; preds = %631
  %636 = call i8* @_ZNK6String5c_strEv(%class.String* nonnull %1), !dbg !3298
  %637 = call %struct.protoent* @getprotobyname(i8* %636), !dbg !3299
  call void @llvm.dbg.value(metadata %struct.protoent* %637, metadata !2277, metadata !DIExpression()), !dbg !3300
  %638 = icmp eq %struct.protoent* %637, null, !dbg !3301
  br i1 %638, label %649, label %639, !dbg !3302

639:                                              ; preds = %635
  %640 = getelementptr inbounds %struct.protoent, %struct.protoent* %637, i64 0, i32 2, !dbg !3303
  %641 = load i32, i32* %640, align 8, !dbg !3303, !tbaa !3305
  %642 = bitcast i8* %2 to i32*, !dbg !3307
  store i32 %641, i32* %642, align 4, !dbg !3308, !tbaa !2209
  br label %687

643:                                              ; preds = %631
  %644 = bitcast %class.DynamicNameDB* %633 to i1 (%class.DynamicNameDB*, %class.String*, i8*, i64)***, !dbg !3309
  %645 = load i1 (%class.DynamicNameDB*, %class.String*, i8*, i64)**, i1 (%class.DynamicNameDB*, %class.String*, i8*, i64)*** %644, align 8, !dbg !3309, !tbaa !1710
  %646 = getelementptr inbounds i1 (%class.DynamicNameDB*, %class.String*, i8*, i64)*, i1 (%class.DynamicNameDB*, %class.String*, i8*, i64)** %645, i64 2, !dbg !3309
  %647 = load i1 (%class.DynamicNameDB*, %class.String*, i8*, i64)*, i1 (%class.DynamicNameDB*, %class.String*, i8*, i64)** %646, align 8, !dbg !3309
  %648 = call zeroext i1 %647(%class.DynamicNameDB* nonnull %633, %class.String* nonnull dereferenceable(24) %1, i8* %2, i64 4), !dbg !3309
  br i1 %648, label %687, label %649, !dbg !3311

649:                                              ; preds = %643, %635
  %650 = load i32, i32* %628, align 8, !dbg !3312, !tbaa !1671
  br label %651, !dbg !3312

651:                                              ; preds = %649, %627
  %652 = phi i32 [ %650, %649 ], [ %629, %627 ], !dbg !3312
  call void @llvm.dbg.value(metadata %"class.(anonymous namespace)::ServicesNameDB"* %0, metadata !2422, metadata !DIExpression()), !dbg !3314
  %653 = and i32 %652, -256, !dbg !3315
  %654 = icmp eq i32 %653, 67239936, !dbg !3315
  call void @llvm.dbg.value(metadata %"class.(anonymous namespace)::ServicesNameDB"* %0, metadata !2422, metadata !DIExpression()), !dbg !3316
  br i1 %654, label %655, label %686, !dbg !3315

655:                                              ; preds = %651
  %656 = getelementptr inbounds %"class.(anonymous namespace)::ServicesNameDB", %"class.(anonymous namespace)::ServicesNameDB"* %0, i64 0, i32 1, !dbg !3318
  %657 = load %class.DynamicNameDB*, %class.DynamicNameDB** %656, align 8, !dbg !3318, !tbaa !1713
  %658 = icmp eq %class.DynamicNameDB* %657, null, !dbg !3318
  br i1 %658, label %659, label %680, !dbg !3319

659:                                              ; preds = %655
  call void @llvm.dbg.value(metadata %"class.(anonymous namespace)::ServicesNameDB"* %0, metadata !2422, metadata !DIExpression()), !dbg !3320
  call void @llvm.dbg.value(metadata i32 %652, metadata !2285, metadata !DIExpression(DW_OP_constu, 67239936, DW_OP_minus, DW_OP_stack_value)), !dbg !3322
  switch i32 %652, label %661 [
    i32 67239942, label %668
    i32 67239953, label %660
  ], !dbg !3323

660:                                              ; preds = %659
  call void @llvm.dbg.value(metadata i8* getelementptr inbounds ([4 x i8], [4 x i8]* @.str.5, i64 0, i64 0), metadata !2290, metadata !DIExpression()), !dbg !3322
  br label %668, !dbg !3324

661:                                              ; preds = %659
  %662 = add nsw i32 %652, -67239936, !dbg !3325
  call void @llvm.dbg.value(metadata i32 %662, metadata !2285, metadata !DIExpression()), !dbg !3322
  %663 = call %struct.protoent* @getprotobynumber(i32 %662), !dbg !3326
  call void @llvm.dbg.value(metadata %struct.protoent* %663, metadata !2291, metadata !DIExpression()), !dbg !3327
  %664 = icmp eq %struct.protoent* %663, null, !dbg !3328
  br i1 %664, label %687, label %665, !dbg !3329

665:                                              ; preds = %661
  %666 = getelementptr inbounds %struct.protoent, %struct.protoent* %663, i64 0, i32 0, !dbg !3330
  %667 = load i8*, i8** %666, align 8, !dbg !3330, !tbaa !3331
  call void @llvm.dbg.value(metadata i8* %667, metadata !2290, metadata !DIExpression()), !dbg !3322
  br label %668

668:                                              ; preds = %665, %659, %660
  %669 = phi i8* [ getelementptr inbounds ([4 x i8], [4 x i8]* @.str.5, i64 0, i64 0), %660 ], [ getelementptr inbounds ([4 x i8], [4 x i8]* @.str.4, i64 0, i64 0), %659 ], [ %667, %665 ], !dbg !3332
  call void @llvm.dbg.value(metadata i8* %669, metadata !2290, metadata !DIExpression()), !dbg !3322
  %670 = call i8* @_ZNK6String5c_strEv(%class.String* nonnull %1), !dbg !3333
  %671 = call %struct.servent* @getservbyname(i8* %670, i8* %669), !dbg !3334
  call void @llvm.dbg.value(metadata %struct.servent* %671, metadata !2295, metadata !DIExpression()), !dbg !3335
  %672 = icmp eq %struct.servent* %671, null, !dbg !3336
  br i1 %672, label %686, label %673, !dbg !3337

673:                                              ; preds = %668
  %674 = getelementptr inbounds %struct.servent, %struct.servent* %671, i64 0, i32 2, !dbg !3338
  %675 = load i32, i32* %674, align 8, !dbg !3338, !tbaa !3340
  %676 = trunc i32 %675 to i16, !dbg !3338
  %677 = call i16 @llvm.bswap.i16(i16 %676) #14
  %678 = zext i16 %677 to i32, !dbg !3338
  %679 = bitcast i8* %2 to i32*, !dbg !3342
  store i32 %678, i32* %679, align 4, !dbg !3343, !tbaa !2209
  br label %687

680:                                              ; preds = %655
  %681 = bitcast %class.DynamicNameDB* %657 to i1 (%class.DynamicNameDB*, %class.String*, i8*, i64)***, !dbg !3344
  %682 = load i1 (%class.DynamicNameDB*, %class.String*, i8*, i64)**, i1 (%class.DynamicNameDB*, %class.String*, i8*, i64)*** %681, align 8, !dbg !3344, !tbaa !1710
  %683 = getelementptr inbounds i1 (%class.DynamicNameDB*, %class.String*, i8*, i64)*, i1 (%class.DynamicNameDB*, %class.String*, i8*, i64)** %682, i64 2, !dbg !3344
  %684 = load i1 (%class.DynamicNameDB*, %class.String*, i8*, i64)*, i1 (%class.DynamicNameDB*, %class.String*, i8*, i64)** %683, align 8, !dbg !3344
  %685 = call zeroext i1 %684(%class.DynamicNameDB* nonnull %657, %class.String* nonnull dereferenceable(24) %1, i8* %2, i64 4), !dbg !3344
  br i1 %685, label %687, label %686, !dbg !3346

686:                                              ; preds = %668, %680, %651
  br label %687, !dbg !3347

687:                                              ; preds = %661, %673, %42, %680, %643, %639, %686
  %688 = phi i1 [ false, %686 ], [ true, %673 ], [ false, %42 ], [ true, %639 ], [ true, %643 ], [ true, %680 ], [ false, %661 ], !dbg !2338
  ret i1 %688, !dbg !3348
}

declare void @_ZN6NameDB8revqueryEPKvm(%class.String* sret, %class.NameDB*, i8*, i64) unnamed_addr #6

declare zeroext i1 @_ZN6NameDB6defineERK6StringPKvm(%class.NameDB*, %class.String* dereferenceable(24), i8*, i64) unnamed_addr #6

; Function Attrs: noreturn nounwind
declare void @__assert_fail(i8*, i8*, i32, i8*) local_unnamed_addr #8

; Function Attrs: nounwind sspstrong uwtable
define linkonce_odr dso_local void @_ZN6NameDBD2Ev(%class.NameDB* %0) unnamed_addr #7 comdat align 2 personality i8* bitcast (i32 (...)* @__gxx_personality_v0 to i8*) !dbg !3349 {
  call void @llvm.dbg.value(metadata %class.NameDB* %0, metadata !3354, metadata !DIExpression()), !dbg !3355
  %2 = getelementptr %class.NameDB, %class.NameDB* %0, i64 0, i32 0, !dbg !3356
  store i32 (...)** bitcast (i8** getelementptr inbounds ({ [7 x i8*] }, { [7 x i8*] }* @_ZTV6NameDB, i64 0, inrange i32 0, i64 2) to i32 (...)**), i32 (...)*** %2, align 8, !dbg !3356, !tbaa !1710
  invoke void @_ZN8NameInfo11uninstalldbEP6NameDB(%class.NameDB* %0)
          to label %3 unwind label %22, !dbg !3357

3:                                                ; preds = %1
  call void @llvm.dbg.value(metadata %class.NameDB* %0, metadata !2128, metadata !DIExpression(DW_OP_plus_uconst, 16, DW_OP_stack_value)) #14, !dbg !3359
  call void @llvm.dbg.value(metadata %class.NameDB* %0, metadata !2130, metadata !DIExpression(DW_OP_plus_uconst, 16, DW_OP_stack_value)) #14, !dbg !3361
  %4 = getelementptr inbounds %class.NameDB, %class.NameDB* %0, i64 0, i32 2, i32 0, i32 2, !dbg !3363
  %5 = load %"struct.String::memo_t"*, %"struct.String::memo_t"** %4, align 8, !dbg !3363, !tbaa !1704
  %6 = icmp eq %"struct.String::memo_t"* %5, null, !dbg !3364
  br i1 %6, label %21, label %7, !dbg !3365

7:                                                ; preds = %3
  %8 = getelementptr inbounds %"struct.String::memo_t", %"struct.String::memo_t"* %5, i64 0, i32 0, !dbg !3366
  %9 = load volatile i32, i32* %8, align 4, !dbg !3366, !tbaa !2142
  %10 = icmp eq i32 %9, 0, !dbg !3366
  br i1 %10, label %11, label %12, !dbg !3366

11:                                               ; preds = %7
  tail call void @__assert_fail(i8* getelementptr inbounds ([18 x i8], [18 x i8]* @.str.21, i64 0, i64 0), i8* getelementptr inbounds ([29 x i8], [29 x i8]* @.str.22, i64 0, i64 0), i32 273, i8* getelementptr inbounds ([27 x i8], [27 x i8]* @__PRETTY_FUNCTION__._ZNK6String5derefEv, i64 0, i64 0)) #13, !dbg !3366
  unreachable, !dbg !3366

12:                                               ; preds = %7
  call void @llvm.dbg.value(metadata i32* %8, metadata !2144, metadata !DIExpression()) #14, !dbg !3367
  %13 = load volatile i32, i32* %8, align 4, !dbg !3369, !tbaa !2209
  %14 = add i32 %13, -1, !dbg !3369
  store volatile i32 %14, i32* %8, align 4, !dbg !3369, !tbaa !2209
  %15 = icmp eq i32 %14, 0, !dbg !3370
  br i1 %15, label %16, label %17, !dbg !3371

16:                                               ; preds = %12
  invoke void @_ZN6String11delete_memoEPNS_6memo_tE(%"struct.String::memo_t"* nonnull %5)
          to label %17 unwind label %18, !dbg !3372

17:                                               ; preds = %16, %12
  store %"struct.String::memo_t"* null, %"struct.String::memo_t"** %4, align 8, !dbg !3373, !tbaa !1704
  br label %21, !dbg !3374

18:                                               ; preds = %16
  %19 = landingpad { i8*, i32 }
          catch i8* null, !dbg !3375
  %20 = extractvalue { i8*, i32 } %19, 0, !dbg !3375
  tail call void @__clang_call_terminate(i8* %20) #13, !dbg !3375
  unreachable, !dbg !3375

21:                                               ; preds = %3, %17
  ret void, !dbg !3376

22:                                               ; preds = %1
  %23 = landingpad { i8*, i32 }
          catch i8* null, !dbg !3377
  %24 = extractvalue { i8*, i32 } %23, 0, !dbg !3377
  %25 = getelementptr inbounds %class.NameDB, %class.NameDB* %0, i64 0, i32 2, !dbg !3377
  tail call void @_ZN6StringD2Ev(%class.String* nonnull %25) #14, !dbg !3377
  tail call void @__clang_call_terminate(i8* %24) #13, !dbg !3377
  unreachable, !dbg !3377
}

declare void @_ZN8NameInfo11uninstalldbEP6NameDB(%class.NameDB*) local_unnamed_addr #6

; Function Attrs: noinline noreturn nounwind
define linkonce_odr hidden void @__clang_call_terminate(i8* %0) local_unnamed_addr #9 comdat {
  %2 = tail call i8* @__cxa_begin_catch(i8* %0) #14
  tail call void @_ZSt9terminatev() #13
  unreachable
}

declare i8* @__cxa_begin_catch(i8*) local_unnamed_addr

declare void @_ZSt9terminatev() local_unnamed_addr

declare !dbg !612 %struct.protoent* @getprotobyname(i8*) local_unnamed_addr #6

declare i8* @_ZNK6String5c_strEv(%class.String*) local_unnamed_addr #6

declare !dbg !623 %struct.protoent* @getprotobynumber(i32) local_unnamed_addr #6

declare !dbg !626 %struct.servent* @getservbyname(i8*, i8*) local_unnamed_addr #6

declare void @_ZN6IntArg11range_errorERK10ArgContextbx(%class.IntArg*, %class.ArgContext* dereferenceable(32), i1 zeroext, i64) local_unnamed_addr #6

declare i8* @_ZN6IntArg5parseEPKcS1_biPji(%class.IntArg*, i8*, i8*, i1 zeroext, i32, i32*, i32) local_unnamed_addr #6

declare void @_ZNK10ArgContext5errorEPKcz(%class.ArgContext*, i8*, ...) local_unnamed_addr #6

declare !dbg !736 void @_Z11file_string6StringP12ErrorHandler(%class.String* sret, %class.String*, %class.ErrorHandler*) local_unnamed_addr #6

; Function Attrs: nounwind readonly
declare i32 @isspace(i32) local_unnamed_addr #10

declare zeroext i1 @_ZN8NameInfo9query_intEjPK7ElementRK6StringPj(i32, %class.Element*, %class.String* dereferenceable(24), i32*) local_unnamed_addr #6

declare dereferenceable(24) %class.String* @_ZN6VectorI6StringEixEi(%class.Vector.0*, i32) local_unnamed_addr #6

; Function Attrs: noinline nounwind optnone sspstrong uwtable
define linkonce_odr dso_local %class.String* @_ZN6VectorI6StringE5beginEv(%class.Vector.0* %0) local_unnamed_addr #11 comdat align 2 !dbg !3378 {
  %2 = alloca %class.Vector.0*, align 8
  store %class.Vector.0* %0, %class.Vector.0** %2, align 8, !tbaa !1727
  call void @llvm.dbg.declare(metadata %class.Vector.0** %2, metadata !3380, metadata !DIExpression()), !dbg !3381
  %3 = load %class.Vector.0*, %class.Vector.0** %2, align 8
  %4 = getelementptr inbounds %class.Vector.0, %class.Vector.0* %3, i32 0, i32 0, !dbg !3382
  %5 = getelementptr inbounds %class.vector_memory.1, %class.vector_memory.1* %4, i32 0, i32 0, !dbg !3383
  %6 = load %class.String*, %class.String** %5, align 8, !dbg !3383, !tbaa !3384
  ret %class.String* %6, !dbg !3385
}

; Function Attrs: noinline nounwind optnone sspstrong uwtable
define linkonce_odr dso_local %class.String* @_ZN6VectorI6StringE3endEv(%class.Vector.0* %0) local_unnamed_addr #11 comdat align 2 !dbg !3386 {
  %2 = alloca %class.Vector.0*, align 8
  store %class.Vector.0* %0, %class.Vector.0** %2, align 8, !tbaa !1727
  call void @llvm.dbg.declare(metadata %class.Vector.0** %2, metadata !3388, metadata !DIExpression()), !dbg !3389
  %3 = load %class.Vector.0*, %class.Vector.0** %2, align 8
  %4 = getelementptr inbounds %class.Vector.0, %class.Vector.0* %3, i32 0, i32 0, !dbg !3390
  %5 = getelementptr inbounds %class.vector_memory.1, %class.vector_memory.1* %4, i32 0, i32 0, !dbg !3391
  %6 = load %class.String*, %class.String** %5, align 8, !dbg !3391, !tbaa !3384
  %7 = getelementptr inbounds %class.Vector.0, %class.Vector.0* %3, i32 0, i32 0, !dbg !3392
  %8 = getelementptr inbounds %class.vector_memory.1, %class.vector_memory.1* %7, i32 0, i32 1, !dbg !3393
  %9 = load i32, i32* %8, align 8, !dbg !3393, !tbaa !3011
  %10 = sext i32 %9 to i64, !dbg !3394
  %11 = getelementptr inbounds %class.String, %class.String* %6, i64 %10, !dbg !3394
  ret %class.String* %11, !dbg !3395
}

; Function Attrs: nounwind readnone speculatable willreturn
declare void @llvm.dbg.label(metadata) #5

declare void @_ZN6String6assignEPKcib(%class.String*, i8*, i32, i1 zeroext) local_unnamed_addr #6

declare zeroext i1 @_ZNK6String11hard_equalsEPKci(%class.String*, i8*, i32) local_unnamed_addr #6

; Function Attrs: sspstrong uwtable
define linkonce_odr dso_local %class.String* @_ZN13vector_memoryI18typed_array_memoryI6StringEE5eraseEPS1_S4_(%class.vector_memory.1* %0, %class.String* %1, %class.String* %2) local_unnamed_addr #0 comdat align 2 personality i32 (...)* @__gxx_personality_v0 !dbg !3396 {
  call void @llvm.dbg.value(metadata %class.vector_memory.1* %0, metadata !3398, metadata !DIExpression()), !dbg !3401
  call void @llvm.dbg.value(metadata %class.String* %1, metadata !3399, metadata !DIExpression()), !dbg !3401
  call void @llvm.dbg.value(metadata %class.String* %2, metadata !3400, metadata !DIExpression()), !dbg !3401
  %4 = icmp ult %class.String* %1, %2, !dbg !3402
  br i1 %4, label %5, label %53, !dbg !3404

5:                                                ; preds = %3
  call void @llvm.dbg.value(metadata %class.vector_memory.1* %0, metadata !3405, metadata !DIExpression()), !dbg !3408
  %6 = getelementptr inbounds %class.vector_memory.1, %class.vector_memory.1* %0, i64 0, i32 0, !dbg !3411
  %7 = load %class.String*, %class.String** %6, align 8, !dbg !3411, !tbaa !3058
  %8 = icmp ugt %class.String* %7, %1, !dbg !3412
  br i1 %8, label %15, label %9, !dbg !3412

9:                                                ; preds = %5
  call void @llvm.dbg.value(metadata %class.vector_memory.1* %0, metadata !3413, metadata !DIExpression()), !dbg !3416
  %10 = getelementptr inbounds %class.vector_memory.1, %class.vector_memory.1* %0, i64 0, i32 1, !dbg !3418
  %11 = load i32, i32* %10, align 8, !dbg !3418, !tbaa !3052
  %12 = sext i32 %11 to i64, !dbg !3419
  %13 = getelementptr inbounds %class.String, %class.String* %7, i64 %12, !dbg !3419
  %14 = icmp ult %class.String* %13, %2, !dbg !3412
  br i1 %14, label %15, label %16, !dbg !3412

15:                                               ; preds = %9, %5
  tail call void @__assert_fail(i8* getelementptr inbounds ([27 x i8], [27 x i8]* @.str.10, i64 0, i64 0), i8* getelementptr inbounds ([29 x i8], [29 x i8]* @.str.11, i64 0, i64 0), i32 88, i8* getelementptr inbounds ([171 x i8], [171 x i8]* @__PRETTY_FUNCTION__._ZN13vector_memoryI18typed_array_memoryI6StringEE5eraseEPS1_S4_, i64 0, i64 0)) #13, !dbg !3412
  unreachable, !dbg !3412

16:                                               ; preds = %9
  call void @llvm.dbg.value(metadata %class.vector_memory.1* %0, metadata !3413, metadata !DIExpression()), !dbg !3420
  %17 = ptrtoint %class.String* %13 to i64, !dbg !3422
  %18 = ptrtoint %class.String* %2 to i64, !dbg !3422
  %19 = sub i64 %17, %18, !dbg !3422
  %20 = sdiv exact i64 %19, 24, !dbg !3422
  tail call void @_ZN18typed_array_memoryI6StringE9move_ontoEPS0_PKS0_m(%class.String* %1, %class.String* %2, i64 %20), !dbg !3423
  %21 = ptrtoint %class.String* %1 to i64, !dbg !3424
  %22 = sub i64 %18, %21, !dbg !3424
  %23 = sdiv exact i64 %22, 24, !dbg !3424
  %24 = load i32, i32* %10, align 8, !dbg !3425, !tbaa !3052
  %25 = trunc i64 %23 to i32, !dbg !3425
  %26 = sub i32 %24, %25, !dbg !3425
  store i32 %26, i32* %10, align 8, !dbg !3425, !tbaa !3052
  call void @llvm.dbg.value(metadata %class.vector_memory.1* %0, metadata !3413, metadata !DIExpression()), !dbg !3426
  %27 = load %class.String*, %class.String** %6, align 8, !dbg !3428, !tbaa !3058
  %28 = sext i32 %26 to i64, !dbg !3429
  %29 = getelementptr inbounds %class.String, %class.String* %27, i64 %28, !dbg !3429
  call void @llvm.dbg.value(metadata %class.String* %29, metadata !3181, metadata !DIExpression()) #14, !dbg !3430
  call void @llvm.dbg.value(metadata i64 %23, metadata !3184, metadata !DIExpression()) #14, !dbg !3430
  call void @llvm.dbg.value(metadata i64 0, metadata !3185, metadata !DIExpression()) #14, !dbg !3432
  %30 = icmp eq i64 %22, 0, !dbg !3433
  br i1 %30, label %53, label %31, !dbg !3434

31:                                               ; preds = %16, %50
  %32 = phi i64 [ %51, %50 ], [ 0, %16 ]
  call void @llvm.dbg.value(metadata i64 %32, metadata !3185, metadata !DIExpression()) #14, !dbg !3432
  call void @llvm.dbg.value(metadata %class.String* undef, metadata !2128, metadata !DIExpression()) #14, !dbg !3435
  call void @llvm.dbg.value(metadata %class.String* undef, metadata !2130, metadata !DIExpression()) #14, !dbg !3437
  %33 = getelementptr inbounds %class.String, %class.String* %29, i64 %32, i32 0, i32 2, !dbg !3439
  %34 = load %"struct.String::memo_t"*, %"struct.String::memo_t"** %33, align 8, !dbg !3439, !tbaa !1704
  %35 = icmp eq %"struct.String::memo_t"* %34, null, !dbg !3440
  br i1 %35, label %50, label %36, !dbg !3441

36:                                               ; preds = %31
  %37 = getelementptr inbounds %"struct.String::memo_t", %"struct.String::memo_t"* %34, i64 0, i32 0, !dbg !3442
  %38 = load volatile i32, i32* %37, align 4, !dbg !3442, !tbaa !2142
  %39 = icmp eq i32 %38, 0, !dbg !3442
  br i1 %39, label %40, label %41, !dbg !3442

40:                                               ; preds = %36
  tail call void @__assert_fail(i8* getelementptr inbounds ([18 x i8], [18 x i8]* @.str.21, i64 0, i64 0), i8* getelementptr inbounds ([29 x i8], [29 x i8]* @.str.22, i64 0, i64 0), i32 273, i8* getelementptr inbounds ([27 x i8], [27 x i8]* @__PRETTY_FUNCTION__._ZNK6String5derefEv, i64 0, i64 0)) #13, !dbg !3442
  unreachable, !dbg !3442

41:                                               ; preds = %36
  call void @llvm.dbg.value(metadata i32* %37, metadata !2144, metadata !DIExpression()) #14, !dbg !3443
  %42 = load volatile i32, i32* %37, align 4, !dbg !3445, !tbaa !2209
  %43 = add i32 %42, -1, !dbg !3445
  store volatile i32 %43, i32* %37, align 4, !dbg !3445, !tbaa !2209
  %44 = icmp eq i32 %43, 0, !dbg !3446
  br i1 %44, label %45, label %46, !dbg !3447

45:                                               ; preds = %41
  invoke void @_ZN6String11delete_memoEPNS_6memo_tE(%"struct.String::memo_t"* nonnull %34)
          to label %46 unwind label %47, !dbg !3448

46:                                               ; preds = %45, %41
  store %"struct.String::memo_t"* null, %"struct.String::memo_t"** %33, align 8, !dbg !3449, !tbaa !1704
  br label %50, !dbg !3450

47:                                               ; preds = %45
  %48 = landingpad { i8*, i32 }
          catch i8* null, !dbg !3451
  %49 = extractvalue { i8*, i32 } %48, 0, !dbg !3451
  tail call void @__clang_call_terminate(i8* %49) #13, !dbg !3451
  unreachable, !dbg !3451

50:                                               ; preds = %46, %31
  %51 = add nuw i64 %32, 1, !dbg !3452
  call void @llvm.dbg.value(metadata i64 %51, metadata !3185, metadata !DIExpression()) #14, !dbg !3432
  %52 = icmp eq i64 %51, %23, !dbg !3433
  br i1 %52, label %53, label %31, !dbg !3434, !llvm.loop !3453

53:                                               ; preds = %50, %16, %3
  %54 = phi %class.String* [ %2, %3 ], [ %1, %16 ], [ %1, %50 ], !dbg !3455
  ret %class.String* %54, !dbg !3456
}

; Function Attrs: sspstrong uwtable
define linkonce_odr dso_local void @_ZN18typed_array_memoryI6StringE9move_ontoEPS0_PKS0_m(%class.String* %0, %class.String* %1, i64 %2) local_unnamed_addr #0 comdat align 2 personality i32 (...)* @__gxx_personality_v0 !dbg !3457 {
  call void @llvm.dbg.value(metadata %class.String* %0, metadata !3459, metadata !DIExpression()), !dbg !3466
  call void @llvm.dbg.value(metadata %class.String* %1, metadata !3460, metadata !DIExpression()), !dbg !3466
  call void @llvm.dbg.value(metadata i64 %2, metadata !3461, metadata !DIExpression()), !dbg !3466
  %4 = icmp ugt %class.String* %0, %1, !dbg !3467
  %5 = getelementptr inbounds %class.String, %class.String* %1, i64 %2, !dbg !3468
  %6 = icmp ugt %class.String* %5, %0, !dbg !3469
  %7 = and i1 %4, %6, !dbg !3470
  br i1 %7, label %10, label %8, !dbg !3470

8:                                                ; preds = %3
  call void @llvm.dbg.value(metadata i64 0, metadata !3462, metadata !DIExpression()), !dbg !3471
  %9 = icmp eq i64 %2, 0, !dbg !3472
  br i1 %9, label %94, label %56, !dbg !3474

10:                                               ; preds = %3
  %11 = add i64 %2, -1, !dbg !3475
  call void @llvm.dbg.value(metadata %class.String* undef, metadata !3459, metadata !DIExpression()), !dbg !3466
  call void @llvm.dbg.value(metadata %class.String* undef, metadata !3460, metadata !DIExpression()), !dbg !3466
  call void @llvm.dbg.value(metadata i64 %2, metadata !3461, metadata !DIExpression()), !dbg !3466
  call void @llvm.dbg.value(metadata %class.String* undef, metadata !3459, metadata !DIExpression()), !dbg !3466
  %12 = icmp eq i64 %2, 0, !dbg !3478
  br i1 %12, label %94, label %13, !dbg !3480

13:                                               ; preds = %10
  %14 = getelementptr inbounds %class.String, %class.String* %1, i64 %11, !dbg !3481
  call void @llvm.dbg.value(metadata %class.String* %14, metadata !3460, metadata !DIExpression()), !dbg !3466
  %15 = getelementptr inbounds %class.String, %class.String* %0, i64 %11, !dbg !3482
  call void @llvm.dbg.value(metadata %class.String* %15, metadata !3459, metadata !DIExpression()), !dbg !3466
  call void @llvm.dbg.value(metadata %class.String* %15, metadata !3459, metadata !DIExpression()), !dbg !3466
  br label %16, !dbg !3480

16:                                               ; preds = %13, %51
  %17 = phi i64 [ %52, %51 ], [ %2, %13 ]
  %18 = phi %class.String* [ %54, %51 ], [ %14, %13 ]
  %19 = phi %class.String* [ %53, %51 ], [ %15, %13 ]
  call void @llvm.dbg.value(metadata i64 %17, metadata !3461, metadata !DIExpression()), !dbg !3466
  call void @llvm.dbg.value(metadata %class.String* %18, metadata !3460, metadata !DIExpression()), !dbg !3466
  call void @llvm.dbg.value(metadata %class.String* %19, metadata !3459, metadata !DIExpression()), !dbg !3466
  call void @llvm.dbg.value(metadata %class.String* %19, metadata !2128, metadata !DIExpression()) #14, !dbg !3483
  call void @llvm.dbg.value(metadata %class.String* %19, metadata !2130, metadata !DIExpression()) #14, !dbg !3486
  %20 = getelementptr inbounds %class.String, %class.String* %19, i64 0, i32 0, i32 2, !dbg !3488
  %21 = load %"struct.String::memo_t"*, %"struct.String::memo_t"** %20, align 8, !dbg !3488, !tbaa !1704
  %22 = icmp eq %"struct.String::memo_t"* %21, null, !dbg !3489
  br i1 %22, label %37, label %23, !dbg !3490

23:                                               ; preds = %16
  %24 = getelementptr inbounds %"struct.String::memo_t", %"struct.String::memo_t"* %21, i64 0, i32 0, !dbg !3491
  %25 = load volatile i32, i32* %24, align 4, !dbg !3491, !tbaa !2142
  %26 = icmp eq i32 %25, 0, !dbg !3491
  br i1 %26, label %27, label %28, !dbg !3491

27:                                               ; preds = %23
  tail call void @__assert_fail(i8* getelementptr inbounds ([18 x i8], [18 x i8]* @.str.21, i64 0, i64 0), i8* getelementptr inbounds ([29 x i8], [29 x i8]* @.str.22, i64 0, i64 0), i32 273, i8* getelementptr inbounds ([27 x i8], [27 x i8]* @__PRETTY_FUNCTION__._ZNK6String5derefEv, i64 0, i64 0)) #13, !dbg !3491
  unreachable, !dbg !3491

28:                                               ; preds = %23
  call void @llvm.dbg.value(metadata i32* %24, metadata !2144, metadata !DIExpression()) #14, !dbg !3492
  %29 = load volatile i32, i32* %24, align 4, !dbg !3494, !tbaa !2209
  %30 = add i32 %29, -1, !dbg !3494
  store volatile i32 %30, i32* %24, align 4, !dbg !3494, !tbaa !2209
  %31 = icmp eq i32 %30, 0, !dbg !3495
  br i1 %31, label %32, label %33, !dbg !3496

32:                                               ; preds = %28
  invoke void @_ZN6String11delete_memoEPNS_6memo_tE(%"struct.String::memo_t"* nonnull %21)
          to label %33 unwind label %34, !dbg !3497

33:                                               ; preds = %32, %28
  store %"struct.String::memo_t"* null, %"struct.String::memo_t"** %20, align 8, !dbg !3498, !tbaa !1704
  br label %37, !dbg !3499

34:                                               ; preds = %32
  %35 = landingpad { i8*, i32 }
          catch i8* null, !dbg !3500
  %36 = extractvalue { i8*, i32 } %35, 0, !dbg !3500
  tail call void @__clang_call_terminate(i8* %36) #13, !dbg !3500
  unreachable, !dbg !3500

37:                                               ; preds = %16, %33
  call void @llvm.dbg.value(metadata %class.String* %19, metadata !1684, metadata !DIExpression()), !dbg !3501
  call void @llvm.dbg.value(metadata %class.String* %18, metadata !1681, metadata !DIExpression()), !dbg !3501
  call void @llvm.dbg.value(metadata %class.String* %19, metadata !1690, metadata !DIExpression()), !dbg !3503
  call void @llvm.dbg.value(metadata %class.String* %18, metadata !1687, metadata !DIExpression()), !dbg !3503
  %38 = bitcast %class.String* %18 to i64*, !dbg !3505
  %39 = load i64, i64* %38, align 8, !dbg !3505, !tbaa !1697
  %40 = getelementptr inbounds %class.String, %class.String* %18, i64 0, i32 0, i32 1, !dbg !3506
  %41 = load i32, i32* %40, align 8, !dbg !3506, !tbaa !1700
  %42 = getelementptr inbounds %class.String, %class.String* %18, i64 0, i32 0, i32 2, !dbg !3507
  %43 = load %"struct.String::memo_t"*, %"struct.String::memo_t"** %42, align 8, !dbg !3507, !tbaa !1704
  call void @llvm.dbg.value(metadata %class.String* %19, metadata !1644, metadata !DIExpression()), !dbg !3508
  call void @llvm.dbg.value(metadata i8* undef, metadata !1647, metadata !DIExpression()), !dbg !3508
  call void @llvm.dbg.value(metadata i32 %41, metadata !1648, metadata !DIExpression()), !dbg !3508
  call void @llvm.dbg.value(metadata %"struct.String::memo_t"* %43, metadata !1649, metadata !DIExpression()), !dbg !3508
  %44 = bitcast %class.String* %19 to i64*, !dbg !3510
  store i64 %39, i64* %44, align 8, !dbg !3510, !tbaa !1697
  %45 = getelementptr inbounds %class.String, %class.String* %19, i64 0, i32 0, i32 1, !dbg !3511
  store i32 %41, i32* %45, align 8, !dbg !3512, !tbaa !1700
  store %"struct.String::memo_t"* %43, %"struct.String::memo_t"** %20, align 8, !dbg !3513, !tbaa !1704
  %46 = icmp eq %"struct.String::memo_t"* %43, null, !dbg !3514
  br i1 %46, label %51, label %47, !dbg !3515

47:                                               ; preds = %37
  %48 = getelementptr inbounds %"struct.String::memo_t", %"struct.String::memo_t"* %43, i64 0, i32 0, !dbg !3516
  call void @llvm.dbg.value(metadata i32* %48, metadata !2702, metadata !DIExpression()), !dbg !3517
  %49 = load volatile i32, i32* %48, align 4, !dbg !3519, !tbaa !2209
  %50 = add i32 %49, 1, !dbg !3519
  store volatile i32 %50, i32* %48, align 4, !dbg !3519, !tbaa !2209
  br label %51, !dbg !3520

51:                                               ; preds = %37, %47
  %52 = add i64 %17, -1, !dbg !3521
  call void @llvm.dbg.value(metadata i64 %52, metadata !3461, metadata !DIExpression()), !dbg !3466
  %53 = getelementptr inbounds %class.String, %class.String* %19, i64 -1, !dbg !3522
  call void @llvm.dbg.value(metadata %class.String* %53, metadata !3459, metadata !DIExpression()), !dbg !3466
  %54 = getelementptr inbounds %class.String, %class.String* %18, i64 -1, !dbg !3523
  call void @llvm.dbg.value(metadata %class.String* %54, metadata !3460, metadata !DIExpression()), !dbg !3466
  %55 = icmp eq i64 %52, 0, !dbg !3478
  br i1 %55, label %94, label %16, !dbg !3480, !llvm.loop !3524

56:                                               ; preds = %8, %91
  %57 = phi i64 [ %92, %91 ], [ 0, %8 ]
  call void @llvm.dbg.value(metadata i64 %57, metadata !3462, metadata !DIExpression()), !dbg !3471
  %58 = getelementptr inbounds %class.String, %class.String* %0, i64 %57, !dbg !3526
  call void @llvm.dbg.value(metadata %class.String* %58, metadata !2128, metadata !DIExpression()) #14, !dbg !3528
  call void @llvm.dbg.value(metadata %class.String* %58, metadata !2130, metadata !DIExpression()) #14, !dbg !3530
  %59 = getelementptr inbounds %class.String, %class.String* %0, i64 %57, i32 0, i32 2, !dbg !3532
  %60 = load %"struct.String::memo_t"*, %"struct.String::memo_t"** %59, align 8, !dbg !3532, !tbaa !1704
  %61 = icmp eq %"struct.String::memo_t"* %60, null, !dbg !3533
  br i1 %61, label %76, label %62, !dbg !3534

62:                                               ; preds = %56
  %63 = getelementptr inbounds %"struct.String::memo_t", %"struct.String::memo_t"* %60, i64 0, i32 0, !dbg !3535
  %64 = load volatile i32, i32* %63, align 4, !dbg !3535, !tbaa !2142
  %65 = icmp eq i32 %64, 0, !dbg !3535
  br i1 %65, label %66, label %67, !dbg !3535

66:                                               ; preds = %62
  tail call void @__assert_fail(i8* getelementptr inbounds ([18 x i8], [18 x i8]* @.str.21, i64 0, i64 0), i8* getelementptr inbounds ([29 x i8], [29 x i8]* @.str.22, i64 0, i64 0), i32 273, i8* getelementptr inbounds ([27 x i8], [27 x i8]* @__PRETTY_FUNCTION__._ZNK6String5derefEv, i64 0, i64 0)) #13, !dbg !3535
  unreachable, !dbg !3535

67:                                               ; preds = %62
  call void @llvm.dbg.value(metadata i32* %63, metadata !2144, metadata !DIExpression()) #14, !dbg !3536
  %68 = load volatile i32, i32* %63, align 4, !dbg !3538, !tbaa !2209
  %69 = add i32 %68, -1, !dbg !3538
  store volatile i32 %69, i32* %63, align 4, !dbg !3538, !tbaa !2209
  %70 = icmp eq i32 %69, 0, !dbg !3539
  br i1 %70, label %71, label %72, !dbg !3540

71:                                               ; preds = %67
  invoke void @_ZN6String11delete_memoEPNS_6memo_tE(%"struct.String::memo_t"* nonnull %60)
          to label %72 unwind label %73, !dbg !3541

72:                                               ; preds = %71, %67
  store %"struct.String::memo_t"* null, %"struct.String::memo_t"** %59, align 8, !dbg !3542, !tbaa !1704
  br label %76, !dbg !3543

73:                                               ; preds = %71
  %74 = landingpad { i8*, i32 }
          catch i8* null, !dbg !3544
  %75 = extractvalue { i8*, i32 } %74, 0, !dbg !3544
  tail call void @__clang_call_terminate(i8* %75) #13, !dbg !3544
  unreachable, !dbg !3544

76:                                               ; preds = %56, %72
  %77 = getelementptr inbounds %class.String, %class.String* %1, i64 %57, !dbg !3545
  call void @llvm.dbg.value(metadata %class.String* %58, metadata !1684, metadata !DIExpression()), !dbg !3546
  call void @llvm.dbg.value(metadata %class.String* %77, metadata !1681, metadata !DIExpression()), !dbg !3546
  call void @llvm.dbg.value(metadata %class.String* %58, metadata !1690, metadata !DIExpression()), !dbg !3548
  call void @llvm.dbg.value(metadata %class.String* %77, metadata !1687, metadata !DIExpression()), !dbg !3548
  %78 = bitcast %class.String* %77 to i64*, !dbg !3550
  %79 = load i64, i64* %78, align 8, !dbg !3550, !tbaa !1697
  %80 = getelementptr inbounds %class.String, %class.String* %1, i64 %57, i32 0, i32 1, !dbg !3551
  %81 = load i32, i32* %80, align 8, !dbg !3551, !tbaa !1700
  %82 = getelementptr inbounds %class.String, %class.String* %1, i64 %57, i32 0, i32 2, !dbg !3552
  %83 = load %"struct.String::memo_t"*, %"struct.String::memo_t"** %82, align 8, !dbg !3552, !tbaa !1704
  call void @llvm.dbg.value(metadata %class.String* %58, metadata !1644, metadata !DIExpression()), !dbg !3553
  call void @llvm.dbg.value(metadata i8* undef, metadata !1647, metadata !DIExpression()), !dbg !3553
  call void @llvm.dbg.value(metadata i32 %81, metadata !1648, metadata !DIExpression()), !dbg !3553
  call void @llvm.dbg.value(metadata %"struct.String::memo_t"* %83, metadata !1649, metadata !DIExpression()), !dbg !3553
  %84 = bitcast %class.String* %58 to i64*, !dbg !3555
  store i64 %79, i64* %84, align 8, !dbg !3555, !tbaa !1697
  %85 = getelementptr inbounds %class.String, %class.String* %0, i64 %57, i32 0, i32 1, !dbg !3556
  store i32 %81, i32* %85, align 8, !dbg !3557, !tbaa !1700
  store %"struct.String::memo_t"* %83, %"struct.String::memo_t"** %59, align 8, !dbg !3558, !tbaa !1704
  %86 = icmp eq %"struct.String::memo_t"* %83, null, !dbg !3559
  br i1 %86, label %91, label %87, !dbg !3560

87:                                               ; preds = %76
  %88 = getelementptr inbounds %"struct.String::memo_t", %"struct.String::memo_t"* %83, i64 0, i32 0, !dbg !3561
  call void @llvm.dbg.value(metadata i32* %88, metadata !2702, metadata !DIExpression()), !dbg !3562
  %89 = load volatile i32, i32* %88, align 4, !dbg !3564, !tbaa !2209
  %90 = add i32 %89, 1, !dbg !3564
  store volatile i32 %90, i32* %88, align 4, !dbg !3564, !tbaa !2209
  br label %91, !dbg !3565

91:                                               ; preds = %76, %87
  %92 = add nuw i64 %57, 1, !dbg !3566
  call void @llvm.dbg.value(metadata i64 %92, metadata !3462, metadata !DIExpression()), !dbg !3471
  %93 = icmp eq i64 %92, %2, !dbg !3472
  br i1 %93, label %94, label %56, !dbg !3474, !llvm.loop !3567

94:                                               ; preds = %91, %51, %8, %10
  ret void, !dbg !3569
}

; Function Attrs: sspstrong uwtable
define linkonce_odr dso_local zeroext i1 @_ZN13vector_memoryI18typed_array_memoryI6StringEE21reserve_and_push_backEiPKS1_(%class.vector_memory.1* %0, i32 %1, %class.String* %2) local_unnamed_addr #0 comdat align 2 personality i8* bitcast (i32 (...)* @__gxx_personality_v0 to i8*) !dbg !3570 {
  %4 = alloca %class.String, align 8
  call void @llvm.dbg.value(metadata %class.vector_memory.1* %0, metadata !3572, metadata !DIExpression()), !dbg !3581
  call void @llvm.dbg.value(metadata i32 %1, metadata !3573, metadata !DIExpression()), !dbg !3581
  call void @llvm.dbg.value(metadata %class.String* %2, metadata !3574, metadata !DIExpression()), !dbg !3581
  %5 = icmp ne %class.String* %2, null, !dbg !3582
  br i1 %5, label %6, label %71, !dbg !3582

6:                                                ; preds = %3
  call void @llvm.dbg.value(metadata %class.vector_memory.1* %0, metadata !3583, metadata !DIExpression()), !dbg !3588
  call void @llvm.dbg.value(metadata %class.String* %2, metadata !3586, metadata !DIExpression()), !dbg !3588
  %7 = ptrtoint %class.String* %2 to i64, !dbg !3590
  %8 = bitcast %class.vector_memory.1* %0 to i64*, !dbg !3591
  %9 = load i64, i64* %8, align 8, !dbg !3591, !tbaa !3058
  %10 = sub i64 %7, %9, !dbg !3592
  %11 = getelementptr inbounds %class.vector_memory.1, %class.vector_memory.1* %0, i64 0, i32 1, !dbg !3593
  %12 = load i32, i32* %11, align 8, !dbg !3593, !tbaa !3052
  %13 = sext i32 %12 to i64, !dbg !3593
  %14 = mul nsw i64 %13, 24, !dbg !3594
  %15 = icmp ult i64 %10, %14, !dbg !3595
  br i1 %15, label %16, label %71, !dbg !3596, !prof !3597, !misexpect !3598

16:                                               ; preds = %6
  %17 = bitcast %class.String* %4 to i8*, !dbg !3599
  call void @llvm.lifetime.start.p0i8(i64 24, i8* nonnull %17) #14, !dbg !3599
  call void @llvm.dbg.declare(metadata %class.String* %4, metadata !3575, metadata !DIExpression()), !dbg !3600
  call void @llvm.dbg.value(metadata %class.String* %4, metadata !1684, metadata !DIExpression()), !dbg !3601
  call void @llvm.dbg.value(metadata %class.String* %2, metadata !1681, metadata !DIExpression()), !dbg !3601
  call void @llvm.dbg.value(metadata %class.String* %4, metadata !1690, metadata !DIExpression()), !dbg !3603
  call void @llvm.dbg.value(metadata %class.String* %2, metadata !1687, metadata !DIExpression()), !dbg !3603
  %18 = bitcast %class.String* %2 to i64*, !dbg !3605
  %19 = load i64, i64* %18, align 8, !dbg !3605, !tbaa !1697
  %20 = getelementptr inbounds %class.String, %class.String* %2, i64 0, i32 0, i32 1, !dbg !3606
  %21 = load i32, i32* %20, align 8, !dbg !3606, !tbaa !1700
  %22 = getelementptr inbounds %class.String, %class.String* %2, i64 0, i32 0, i32 2, !dbg !3607
  %23 = load %"struct.String::memo_t"*, %"struct.String::memo_t"** %22, align 8, !dbg !3607, !tbaa !1704
  call void @llvm.dbg.value(metadata %class.String* %4, metadata !1644, metadata !DIExpression()), !dbg !3608
  call void @llvm.dbg.value(metadata i8* undef, metadata !1647, metadata !DIExpression()), !dbg !3608
  call void @llvm.dbg.value(metadata i32 %21, metadata !1648, metadata !DIExpression()), !dbg !3608
  call void @llvm.dbg.value(metadata %"struct.String::memo_t"* %23, metadata !1649, metadata !DIExpression()), !dbg !3608
  %24 = bitcast %class.String* %4 to i64*, !dbg !3610
  store i64 %19, i64* %24, align 8, !dbg !3610, !tbaa !1697
  %25 = getelementptr inbounds %class.String, %class.String* %4, i64 0, i32 0, i32 1, !dbg !3611
  store i32 %21, i32* %25, align 8, !dbg !3612, !tbaa !1700
  %26 = getelementptr inbounds %class.String, %class.String* %4, i64 0, i32 0, i32 2, !dbg !3613
  store %"struct.String::memo_t"* %23, %"struct.String::memo_t"** %26, align 8, !dbg !3614, !tbaa !1704
  %27 = icmp eq %"struct.String::memo_t"* %23, null, !dbg !3615
  br i1 %27, label %32, label %28, !dbg !3616

28:                                               ; preds = %16
  %29 = getelementptr inbounds %"struct.String::memo_t", %"struct.String::memo_t"* %23, i64 0, i32 0, !dbg !3617
  call void @llvm.dbg.value(metadata i32* %29, metadata !2702, metadata !DIExpression()), !dbg !3618
  %30 = load volatile i32, i32* %29, align 4, !dbg !3620, !tbaa !2209
  %31 = add i32 %30, 1, !dbg !3620
  store volatile i32 %31, i32* %29, align 4, !dbg !3620, !tbaa !2209
  br label %32, !dbg !3621

32:                                               ; preds = %16, %28
  %33 = invoke zeroext i1 @_ZN13vector_memoryI18typed_array_memoryI6StringEE21reserve_and_push_backEiPKS1_(%class.vector_memory.1* nonnull %0, i32 %1, %class.String* nonnull %4)
          to label %34 unwind label %52, !dbg !3622

34:                                               ; preds = %32
  call void @llvm.dbg.value(metadata %class.String* %4, metadata !2128, metadata !DIExpression()) #14, !dbg !3623
  call void @llvm.dbg.value(metadata %class.String* %4, metadata !2130, metadata !DIExpression()) #14, !dbg !3625
  %35 = load %"struct.String::memo_t"*, %"struct.String::memo_t"** %26, align 8, !dbg !3627, !tbaa !1704
  %36 = icmp eq %"struct.String::memo_t"* %35, null, !dbg !3628
  br i1 %36, label %51, label %37, !dbg !3629

37:                                               ; preds = %34
  %38 = getelementptr inbounds %"struct.String::memo_t", %"struct.String::memo_t"* %35, i64 0, i32 0, !dbg !3630
  %39 = load volatile i32, i32* %38, align 4, !dbg !3630, !tbaa !2142
  %40 = icmp eq i32 %39, 0, !dbg !3630
  br i1 %40, label %41, label %42, !dbg !3630

41:                                               ; preds = %37
  call void @__assert_fail(i8* getelementptr inbounds ([18 x i8], [18 x i8]* @.str.21, i64 0, i64 0), i8* getelementptr inbounds ([29 x i8], [29 x i8]* @.str.22, i64 0, i64 0), i32 273, i8* getelementptr inbounds ([27 x i8], [27 x i8]* @__PRETTY_FUNCTION__._ZNK6String5derefEv, i64 0, i64 0)) #13, !dbg !3630
  unreachable, !dbg !3630

42:                                               ; preds = %37
  call void @llvm.dbg.value(metadata i32* %38, metadata !2144, metadata !DIExpression()) #14, !dbg !3631
  %43 = load volatile i32, i32* %38, align 4, !dbg !3633, !tbaa !2209
  %44 = add i32 %43, -1, !dbg !3633
  store volatile i32 %44, i32* %38, align 4, !dbg !3633, !tbaa !2209
  %45 = icmp eq i32 %44, 0, !dbg !3634
  br i1 %45, label %46, label %47, !dbg !3635

46:                                               ; preds = %42
  invoke void @_ZN6String11delete_memoEPNS_6memo_tE(%"struct.String::memo_t"* nonnull %35)
          to label %47 unwind label %48, !dbg !3636

47:                                               ; preds = %46, %42
  store %"struct.String::memo_t"* null, %"struct.String::memo_t"** %26, align 8, !dbg !3637, !tbaa !1704
  br label %51, !dbg !3638

48:                                               ; preds = %46
  %49 = landingpad { i8*, i32 }
          catch i8* null, !dbg !3639
  %50 = extractvalue { i8*, i32 } %49, 0, !dbg !3639
  call void @__clang_call_terminate(i8* %50) #13, !dbg !3639
  unreachable, !dbg !3639

51:                                               ; preds = %34, %47
  call void @llvm.lifetime.end.p0i8(i64 24, i8* nonnull %17) #14, !dbg !3640
  br label %127

52:                                               ; preds = %32
  %53 = landingpad { i8*, i32 }
          cleanup, !dbg !3641
  call void @llvm.dbg.value(metadata %class.String* %4, metadata !2128, metadata !DIExpression()) #14, !dbg !3642
  call void @llvm.dbg.value(metadata %class.String* %4, metadata !2130, metadata !DIExpression()) #14, !dbg !3644
  %54 = load %"struct.String::memo_t"*, %"struct.String::memo_t"** %26, align 8, !dbg !3646, !tbaa !1704
  %55 = icmp eq %"struct.String::memo_t"* %54, null, !dbg !3647
  br i1 %55, label %70, label %56, !dbg !3648

56:                                               ; preds = %52
  %57 = getelementptr inbounds %"struct.String::memo_t", %"struct.String::memo_t"* %54, i64 0, i32 0, !dbg !3649
  %58 = load volatile i32, i32* %57, align 4, !dbg !3649, !tbaa !2142
  %59 = icmp eq i32 %58, 0, !dbg !3649
  br i1 %59, label %60, label %61, !dbg !3649

60:                                               ; preds = %56
  call void @__assert_fail(i8* getelementptr inbounds ([18 x i8], [18 x i8]* @.str.21, i64 0, i64 0), i8* getelementptr inbounds ([29 x i8], [29 x i8]* @.str.22, i64 0, i64 0), i32 273, i8* getelementptr inbounds ([27 x i8], [27 x i8]* @__PRETTY_FUNCTION__._ZNK6String5derefEv, i64 0, i64 0)) #13, !dbg !3649
  unreachable, !dbg !3649

61:                                               ; preds = %56
  call void @llvm.dbg.value(metadata i32* %57, metadata !2144, metadata !DIExpression()) #14, !dbg !3650
  %62 = load volatile i32, i32* %57, align 4, !dbg !3652, !tbaa !2209
  %63 = add i32 %62, -1, !dbg !3652
  store volatile i32 %63, i32* %57, align 4, !dbg !3652, !tbaa !2209
  %64 = icmp eq i32 %63, 0, !dbg !3653
  br i1 %64, label %65, label %66, !dbg !3654

65:                                               ; preds = %61
  invoke void @_ZN6String11delete_memoEPNS_6memo_tE(%"struct.String::memo_t"* nonnull %54)
          to label %66 unwind label %67, !dbg !3655

66:                                               ; preds = %65, %61
