; ModuleID = '../elements/ip/ipratemon.cc'
source_filename = "../elements/ip/ipratemon.cc"
target datalayout = "e-m:e-p270:32:32-p271:32:32-p272:64:64-i64:64-f80:128-n8:16:32:64-S128"
target triple = "x86_64-pc-linux-gnu"

%class.ArgContext = type <{ %class.Element*, %class.ErrorHandler*, i8*, i8, [7 x i8] }>
%class.Element = type <{ i32 (...)**, [2 x %"class.Element::Port"*], [4 x %"class.Element::Port"], [2 x i32], %class.Router*, i32, [4 x i8] }>
%"class.Element::Port" = type <{ %class.Element*, i32, [4 x i8] }>
%class.Router = type opaque
%class.ErrorHandler = type <{ i32 (...)**, i32, [4 x i8] }>
%class.IPRateMonitor = type { %class.Element.base, i8, i8, i32, i64, i32, %class.Spinlock*, %"struct.IPRateMonitor::Stats"*, i64, i64, %"struct.IPRateMonitor::Stats"*, %"struct.IPRateMonitor::Stats"*, %"struct.IPRateMonitor::Stats"*, %"struct.IPRateMonitor::Stats"* }
%class.Element.base = type <{ i32 (...)**, [2 x %"class.Element::Port"*], [4 x %"class.Element::Port"], [2 x i32], %class.Router*, i32 }>
%class.Spinlock = type { i8 }
%"struct.IPRateMonitor::Stats" = type { %"struct.IPRateMonitor::Counter"*, %"struct.IPRateMonitor::Stats"*, %"struct.IPRateMonitor::Stats"*, [256 x %"struct.IPRateMonitor::Counter"*], %class.IPRateMonitor* }
%"struct.IPRateMonitor::Counter" = type <{ %class.RateEWMAX, [4 x i8], %"struct.IPRateMonitor::Stats"*, i32, [4 x i8] }>
%class.RateEWMAX = type { i32, [2 x i32], [2 x %class.DirectEWMAX] }
%class.DirectEWMAX = type { i32 }
%class.Vector = type { %class.vector_memory }
%class.vector_memory = type { %class.String*, i32, i32 }
%class.String = type { %"struct.String::rep_t" }
%"struct.String::rep_t" = type { i8*, i32, %"struct.String::memo_t"* }
%"struct.String::memo_t" = type { i32, i32, i32, [8 x i8] }
%class.Args = type { %class.ArgContext.base, i8, i8, i8, %class.Vector*, %class.Vector.0, %"struct.Args::Slot"*, [48 x i8] }
%class.ArgContext.base = type <{ %class.Element*, %class.ErrorHandler*, i8*, i8 }>
%class.Vector.0 = type { %class.vector_memory.1 }
%class.vector_memory.1 = type { %struct.char_array*, i32, i32 }
%struct.char_array = type opaque
%"struct.Args::Slot" = type { i32 (...)**, %"struct.Args::Slot"* }
%class.Packet = type { %class.atomic_uint32_t, %class.Packet*, i8*, i8*, i8*, i8*, %"struct.Packet::AllAnno", void (i8*, i64, i8*)*, i8* }
%class.atomic_uint32_t = type { i32 }
%"struct.Packet::AllAnno" = type { %"union.Packet::Anno", i8*, i8*, i8*, i32, [8 x i8], %class.Packet*, %class.Packet* }
%"union.Packet::Anno" = type { [6 x i64] }
%struct.click_ip = type { i8, i8, i16, i16, i16, i8, i8, i16, %struct.in_addr, %struct.in_addr }
%struct.in_addr = type { i32 }
%class.IntArg = type { i32, i32 }
%class.IPAddress = type { i32 }
%class.Task = type opaque
%class.Timer = type opaque
%class.WordArg = type { i8 }
%"struct.Args::SlotT" = type { %"struct.Args::Slot", %class.String*, %class.String }
%class.FixedPointArg = type { i32, i32, i32 }

$_ZNK7Element6outputEi = comdat any

$_ZNK7Element4Port4pushEP6Packet = comdat any

$_ZNK7Element5inputEi = comdat any

$_ZN9RateEWMAXIN13IPRateMonitor14EWMAParametersEE6updateEij = comdat any

$__clang_call_terminate = comdat any

$_ZNK13IPRateMonitor10class_nameEv = comdat any

$_ZNK13IPRateMonitor10port_countEv = comdat any

$_ZNK6String6lengthEv = comdat any

$_ZN13IPRateMonitor6updateEjiP6Packetbb = comdat any

$_ZNK7Element4portEbi = comdat any

$_Z14args_base_readI7WordArg6StringEvP4ArgsPKciT_RT0_ = comdat any

$_ZN4Args9base_readI7WordArg6StringEEvPKciT_RT0_ = comdat any

$_ZN4Args5SlotTI6StringED2Ev = comdat any

$_ZN4Args5SlotTI6StringED0Ev = comdat any

$_ZN4Args5SlotTI6StringE5storeEv = comdat any

$_Z14args_base_readI13FixedPointArgjEvP4ArgsPKciT_RT0_ = comdat any

$_ZN4Args9base_readI13FixedPointArgjEEvPKciT_RT0_ = comdat any

$_Z14args_base_readIiEvP4ArgsPKciRT_ = comdat any

$_ZN4Args9base_readIiEEvPKciRT_ = comdat any

$_Z14args_base_readImEvP4ArgsPKciRT_ = comdat any

$_ZN4Args9base_readImEEvPKciRT_ = comdat any

$_Z14args_base_readIbEvP4ArgsPKciRT_ = comdat any

$_ZN4Args9base_readIbEEvPKciRT_ = comdat any

$_ZZN13IPRateMonitor6updateEjiP6PacketbbE14prev_fold_time = comdat any

$_ZGVZN13IPRateMonitor6updateEjiP6PacketbbE14prev_fold_time = comdat any

$_ZTVN4Args5SlotTI6StringEE = comdat any

$_ZTSN4Args5SlotTI6StringEE = comdat any

$_ZTSN4Args4SlotE = comdat any

$_ZTIN4Args4SlotE = comdat any

$_ZTIN4Args5SlotTI6StringEE = comdat any

@_ZTV13IPRateMonitor = dso_local unnamed_addr constant { [29 x i8*] } { [29 x i8*] [i8* null, i8* bitcast ({ i8*, i8*, i8* }* @_ZTI13IPRateMonitor to i8*), i8* bitcast (void (%class.IPRateMonitor*)* @_ZN13IPRateMonitorD2Ev to i8*), i8* bitcast (void (%class.IPRateMonitor*)* @_ZN13IPRateMonitorD0Ev to i8*), i8* bitcast (void (%class.IPRateMonitor*, i32, %class.Packet*)* @_ZN13IPRateMonitor4pushEiP6Packet to i8*), i8* bitcast (%class.Packet* (%class.IPRateMonitor*, i32)* @_ZN13IPRateMonitor4pullEi to i8*), i8* bitcast (%class.Packet* (%class.Element*, %class.Packet*)* @_ZN7Element13simple_actionEP6Packet to i8*), i8* bitcast (i1 (%class.Element*, %class.Task*)* @_ZN7Element8run_taskEP4Task to i8*), i8* bitcast (void (%class.Element*, %class.Timer*)* @_ZN7Element9run_timerEP5Timer to i8*), i8* bitcast (void (%class.Element*, i32, i32)* @_ZN7Element8selectedEii to i8*), i8* bitcast (void (%class.Element*, i32)* @_ZN7Element8selectedEi to i8*), i8* bitcast (i8* (%class.IPRateMonitor*)* @_ZNK13IPRateMonitor10class_nameEv to i8*), i8* bitcast (i8* (%class.IPRateMonitor*)* @_ZNK13IPRateMonitor10port_countEv to i8*), i8* bitcast (i8* (%class.Element*)* @_ZNK7Element10processingEv to i8*), i8* bitcast (i8* (%class.Element*)* @_ZNK7Element9flow_codeEv to i8*), i8* bitcast (i8* (%class.Element*)* @_ZNK7Element5flagsEv to i8*), i8* bitcast (i8* (%class.Element*, i8*)* @_ZN7Element4castEPKc to i8*), i8* bitcast (i8* (%class.Element*, i1, i32, i8*)* @_ZN7Element9port_castEbiPKc to i8*), i8* bitcast (i32 (%class.Element*)* @_ZNK7Element15configure_phaseEv to i8*), i8* bitcast (i32 (%class.IPRateMonitor*, %class.Vector*, %class.ErrorHandler*)* @_ZN13IPRateMonitor9configureER6VectorI6StringEP12ErrorHandler to i8*), i8* bitcast (void (%class.IPRateMonitor*)* @_ZN13IPRateMonitor12add_handlersEv to i8*), i8* bitcast (i32 (%class.IPRateMonitor*, %class.ErrorHandler*)* @_ZN13IPRateMonitor10initializeEP12ErrorHandler to i8*), i8* bitcast (void (%class.Element*, %class.Element*, %class.ErrorHandler*)* @_ZN7Element10take_stateEPS_P12ErrorHandler to i8*), i8* bitcast (%class.Element* (%class.Element*)* @_ZNK7Element15hotswap_elementEv to i8*), i8* bitcast (void (%class.IPRateMonitor*, i32)* @_ZN13IPRateMonitor7cleanupEN7Element12CleanupStageE to i8*), i8* bitcast (void (%class.String*, %class.Element*)* @_ZNK7Element11declarationEv to i8*), i8* bitcast (i1 (%class.Element*)* @_ZNK7Element20can_live_reconfigureEv to i8*), i8* bitcast (i32 (%class.Element*, %class.Vector*, %class.ErrorHandler*)* @_ZN7Element16live_reconfigureER6VectorI6StringEP12ErrorHandler to i8*), i8* bitcast (i32 (%class.IPRateMonitor*, i32, i8*)* @_ZN13IPRateMonitor5llrpcEjPv to i8*)] }, align 8
@.str = private unnamed_addr constant [5 x i8] c"TYPE\00", align 1
@.str.1 = private unnamed_addr constant [6 x i8] c"RATIO\00", align 1
@.str.2 = private unnamed_addr constant [7 x i8] c"THRESH\00", align 1
@.str.3 = private unnamed_addr constant [7 x i8] c"MEMORY\00", align 1
@.str.4 = private unnamed_addr constant [5 x i8] c"ANNO\00", align 1
@.str.5 = private unnamed_addr constant [8 x i8] c"PACKETS\00", align 1
@.str.6 = private unnamed_addr constant [6 x i8] c"BYTES\00", align 1
@.str.7 = private unnamed_addr constant [44 x i8] c"monitor type should be \22PACKETS\22 or \22BYTES\22\00", align 1
@.str.8 = private unnamed_addr constant [30 x i8] c"ratio must be between 0 and 1\00", align 1
@.str.11 = private unnamed_addr constant [18 x i8] c"\0A----------------\00", align 1
@.str.12 = private unnamed_addr constant [36 x i8] c"_base = %p, _first: %p, _last = %p\0A\00", align 1
@.str.13 = private unnamed_addr constant [37 x i8] c"r = %p, r->_prev = %p, r->_next = %p\00", align 1
@.str.14 = private unnamed_addr constant [1 x i8] zeroinitializer, align 1
@.str.15 = private unnamed_addr constant [2 x i8] c".\00", align 1
@.str.16 = private unnamed_addr constant [2 x i8] c"\09\00", align 1
@.str.17 = private unnamed_addr constant [2 x i8] c"\0A\00", align 1
@.str.19 = private unnamed_addr constant [20 x i8] c"expecting 1 integer\00", align 1
@blank_args = external global %class.ArgContext, align 8
@.str.20 = private unnamed_addr constant [15 x i8] c"not an integer\00", align 1
@.str.21 = private unnamed_addr constant [22 x i8] c"expecting 3 arguments\00", align 1
@.str.22 = private unnamed_addr constant [18 x i8] c"not an IP address\00", align 1
@.str.23 = private unnamed_addr constant [61 x i8] c"2nd argument specifies a level, between 0 and 3, to annotate\00", align 1
@.str.24 = private unnamed_addr constant [59 x i8] c"3rd argument specifies when this rule expires, must be > 0\00", align 1
@.str.25 = private unnamed_addr constant [7 x i8] c"thresh\00", align 1
@.str.26 = private unnamed_addr constant [5 x i8] c"look\00", align 1
@.str.27 = private unnamed_addr constant [4 x i8] c"mem\00", align 1
@.str.28 = private unnamed_addr constant [7 x i8] c"memmax\00", align 1
@.str.29 = private unnamed_addr constant [11 x i8] c"anno_level\00", align 1
@.str.30 = private unnamed_addr constant [6 x i8] c"reset\00", align 1
@_ZTVN10__cxxabiv120__si_class_type_infoE = external global i8*
@_ZTS13IPRateMonitor = dso_local constant [16 x i8] c"13IPRateMonitor\00", align 1
@_ZTI7Element = external constant i8*
@_ZTI13IPRateMonitor = dso_local constant { i8*, i8*, i8* } { i8* bitcast (i8** getelementptr inbounds (i8*, i8** @_ZTVN10__cxxabiv120__si_class_type_infoE, i64 2) to i8*), i8* getelementptr inbounds ([16 x i8], [16 x i8]* @_ZTS13IPRateMonitor, i32 0, i32 0), i8* bitcast (i8** @_ZTI7Element to i8*) }, align 8
@_ZN6String9null_dataE = external constant i8, align 1
@.str.31 = private unnamed_addr constant [18 x i8] c"_r.memo->refcount\00", align 1
@.str.32 = private unnamed_addr constant [29 x i8] c"../dummy_inc/click/string.hh\00", align 1
@__PRETTY_FUNCTION__._ZNK6String5derefEv = private unnamed_addr constant [27 x i8] c"void String::deref() const\00", align 1
@_ZZN13IPRateMonitor6updateEjiP6PacketbbE14prev_fold_time = linkonce_odr dso_local local_unnamed_addr global i32 0, comdat, align 4, !dbg !0
@_ZGVZN13IPRateMonitor6updateEjiP6PacketbbE14prev_fold_time = linkonce_odr dso_local global i64 0, comdat, align 8
@.str.35 = private unnamed_addr constant [47 x i8] c"(unsigned) port < (unsigned) _nports[isoutput]\00", align 1
@.str.36 = private unnamed_addr constant [30 x i8] c"../dummy_inc/click/element.hh\00", align 1
@__PRETTY_FUNCTION__._ZNK7Element4portEbi = private unnamed_addr constant [52 x i8] c"const Element::Port &Element::port(bool, int) const\00", align 1
@.str.37 = private unnamed_addr constant [8 x i8] c"_e && p\00", align 1
@__PRETTY_FUNCTION__._ZNK7Element4Port4pushEP6Packet = private unnamed_addr constant [41 x i8] c"void Element::Port::push(Packet *) const\00", align 1
@.str.38 = private unnamed_addr constant [3 x i8] c"_e\00", align 1
@__PRETTY_FUNCTION__._ZNK7Element4Port4pullEv = private unnamed_addr constant [36 x i8] c"Packet *Element::Port::pull() const\00", align 1
@.str.39 = private unnamed_addr constant [14 x i8] c"IPRateMonitor\00", align 1
@.str.40 = private unnamed_addr constant [8 x i8] c"1-2/1-2\00", align 1
@_ZTVN4Args5SlotTI6StringEE = linkonce_odr dso_local unnamed_addr constant { [5 x i8*] } { [5 x i8*] [i8* null, i8* bitcast ({ i8*, i8*, i8* }* @_ZTIN4Args5SlotTI6StringEE to i8*), i8* bitcast (void (%"struct.Args::SlotT"*)* @_ZN4Args5SlotTI6StringED2Ev to i8*), i8* bitcast (void (%"struct.Args::SlotT"*)* @_ZN4Args5SlotTI6StringED0Ev to i8*), i8* bitcast (void (%"struct.Args::SlotT"*)* @_ZN4Args5SlotTI6StringE5storeEv to i8*)] }, comdat, align 8
@_ZTSN4Args5SlotTI6StringEE = linkonce_odr dso_local constant [23 x i8] c"N4Args5SlotTI6StringEE\00", comdat, align 1
@_ZTVN10__cxxabiv117__class_type_infoE = external global i8*
@_ZTSN4Args4SlotE = linkonce_odr dso_local constant [13 x i8] c"N4Args4SlotE\00", comdat, align 1
@_ZTIN4Args4SlotE = linkonce_odr dso_local constant { i8*, i8* } { i8* bitcast (i8** getelementptr inbounds (i8*, i8** @_ZTVN10__cxxabiv117__class_type_infoE, i64 2) to i8*), i8* getelementptr inbounds ([13 x i8], [13 x i8]* @_ZTSN4Args4SlotE, i32 0, i32 0) }, comdat, align 8
@_ZTIN4Args5SlotTI6StringEE = linkonce_odr dso_local constant { i8*, i8*, i8* } { i8* bitcast (i8** getelementptr inbounds (i8*, i8** @_ZTVN10__cxxabiv120__si_class_type_infoE, i64 2) to i8*), i8* getelementptr inbounds ([23 x i8], [23 x i8]* @_ZTSN4Args5SlotTI6StringEE, i32 0, i32 0), i8* bitcast ({ i8*, i8* }* @_ZTIN4Args4SlotE to i8*) }, comdat, align 8
@.str.42 = private unnamed_addr constant [15 x i8] c"invalid number\00", align 1

@_ZN13IPRateMonitorC1Ev = dso_local unnamed_addr alias void (%class.IPRateMonitor*), void (%class.IPRateMonitor*)* @_ZN13IPRateMonitorC2Ev
@_ZN13IPRateMonitorD1Ev = dso_local unnamed_addr alias void (%class.IPRateMonitor*), void (%class.IPRateMonitor*)* @_ZN13IPRateMonitorD2Ev
@_ZN13IPRateMonitor5StatsC1EPS_ = dso_local unnamed_addr alias void (%"struct.IPRateMonitor::Stats"*, %class.IPRateMonitor*), void (%"struct.IPRateMonitor::Stats"*, %class.IPRateMonitor*)* @_ZN13IPRateMonitor5StatsC2EPS_
@_ZN13IPRateMonitor5StatsD1Ev = dso_local unnamed_addr alias void (%"struct.IPRateMonitor::Stats"*), void (%"struct.IPRateMonitor::Stats"*)* @_ZN13IPRateMonitor5StatsD2Ev

; Function Attrs: sspstrong uwtable
define dso_local void @_ZN13IPRateMonitorC2Ev(%class.IPRateMonitor* %0) unnamed_addr #0 align 2 !dbg !2876 {
  call void @llvm.dbg.value(metadata %class.IPRateMonitor* %0, metadata !2878, metadata !DIExpression()), !dbg !2879
  %2 = bitcast %class.IPRateMonitor* %0 to %class.Element*, !dbg !2880
  tail call void @_ZN7ElementC2Ev(%class.Element* %2), !dbg !2881
  %3 = getelementptr %class.IPRateMonitor, %class.IPRateMonitor* %0, i64 0, i32 0, i32 0, !dbg !2880
  store i32 (...)** bitcast (i8** getelementptr inbounds ({ [29 x i8*] }, { [29 x i8*] }* @_ZTV13IPRateMonitor, i64 0, inrange i32 0, i64 2) to i32 (...)**), i32 (...)*** %3, align 8, !dbg !2880, !tbaa !2882
  %4 = getelementptr inbounds %class.IPRateMonitor, %class.IPRateMonitor* %0, i64 0, i32 1, !dbg !2885
  store i8 1, i8* %4, align 4, !dbg !2885, !tbaa !2886
  %5 = getelementptr inbounds %class.IPRateMonitor, %class.IPRateMonitor* %0, i64 0, i32 2, !dbg !2893
  store i8 1, i8* %5, align 1, !dbg !2893, !tbaa !2894
  %6 = getelementptr inbounds %class.IPRateMonitor, %class.IPRateMonitor* %0, i64 0, i32 3, !dbg !2895
  store i32 1, i32* %6, align 8, !dbg !2895, !tbaa !2896
  %7 = getelementptr inbounds %class.IPRateMonitor, %class.IPRateMonitor* %0, i64 0, i32 4, !dbg !2897
  store i64 0, i64* %7, align 8, !dbg !2897, !tbaa !2898
  %8 = getelementptr inbounds %class.IPRateMonitor, %class.IPRateMonitor* %0, i64 0, i32 5, !dbg !2899
  store i32 1, i32* %8, align 8, !dbg !2899, !tbaa !2900
  %9 = getelementptr inbounds %class.IPRateMonitor, %class.IPRateMonitor* %0, i64 0, i32 6, !dbg !2901
  %10 = getelementptr inbounds %class.IPRateMonitor, %class.IPRateMonitor* %0, i64 0, i32 9, !dbg !2902
  %11 = bitcast %class.Spinlock** %9 to i8*, !dbg !2903
  call void @llvm.memset.p0i8.i64(i8* nonnull align 8 dereferenceable(16) %11, i8 0, i64 16, i1 false), !dbg !2904
  %12 = bitcast i64* %10 to i8*, !dbg !2903
  call void @llvm.memset.p0i8.i64(i8* nonnull align 8 dereferenceable(32) %12, i8 0, i64 32, i1 false), !dbg !2902
  ret void, !dbg !2903
}

; Function Attrs: nounwind readnone speculatable willreturn
declare void @llvm.dbg.declare(metadata, metadata, metadata) #1

declare void @_ZN7ElementC2Ev(%class.Element*) unnamed_addr #2

; Function Attrs: nounwind
declare void @_ZN7ElementD2Ev(%class.Element*) unnamed_addr #3

; Function Attrs: nounwind sspstrong uwtable
define dso_local void @_ZN13IPRateMonitorD2Ev(%class.IPRateMonitor* %0) unnamed_addr #4 align 2 !dbg !2905 {
  call void @llvm.dbg.value(metadata %class.IPRateMonitor* %0, metadata !2907, metadata !DIExpression()), !dbg !2908
  %2 = bitcast %class.IPRateMonitor* %0 to %class.Element*, !dbg !2909
  tail call void @_ZN7ElementD2Ev(%class.Element* %2) #17, !dbg !2909
  ret void, !dbg !2911
}

; Function Attrs: nounwind sspstrong uwtable
define dso_local void @_ZN13IPRateMonitorD0Ev(%class.IPRateMonitor* %0) unnamed_addr #4 align 2 !dbg !2912 {
  call void @llvm.dbg.value(metadata %class.IPRateMonitor* %0, metadata !2914, metadata !DIExpression()), !dbg !2915
  call void @llvm.dbg.value(metadata %class.IPRateMonitor* %0, metadata !2907, metadata !DIExpression()) #17, !dbg !2916
  %2 = bitcast %class.IPRateMonitor* %0 to %class.Element*, !dbg !2918
  tail call void @_ZN7ElementD2Ev(%class.Element* %2) #17, !dbg !2918
  %3 = bitcast %class.IPRateMonitor* %0 to i8*, !dbg !2919
  tail call void @_ZdlPv(i8* %3) #18, !dbg !2919
  ret void, !dbg !2920
}

; Function Attrs: nobuiltin nounwind
declare void @_ZdlPv(i8*) local_unnamed_addr #5

; Function Attrs: sspstrong uwtable
define dso_local i32 @_ZN13IPRateMonitor9configureER6VectorI6StringEP12ErrorHandler(%class.IPRateMonitor* %0, %class.Vector* dereferenceable(16) %1, %class.ErrorHandler* %2) unnamed_addr #0 align 2 personality i8* bitcast (i32 (...)* @__gxx_personality_v0 to i8*) !dbg !2921 {
  %4 = alloca %class.String, align 8
  %5 = alloca %class.Args, align 8
  %6 = alloca %class.String, align 8
  %7 = alloca %class.String, align 8
  call void @llvm.dbg.value(metadata %class.IPRateMonitor* %0, metadata !2923, metadata !DIExpression()), !dbg !2927
  call void @llvm.dbg.value(metadata %class.Vector* %1, metadata !2924, metadata !DIExpression()), !dbg !2927
  call void @llvm.dbg.value(metadata %class.ErrorHandler* %2, metadata !2925, metadata !DIExpression()), !dbg !2927
  %8 = bitcast %class.String* %4 to i8*, !dbg !2928
  call void @llvm.lifetime.start.p0i8(i64 24, i8* nonnull %8) #17, !dbg !2928
  call void @llvm.dbg.declare(metadata %class.String* %4, metadata !2926, metadata !DIExpression()), !dbg !2929
  call void @llvm.dbg.value(metadata %class.String* %4, metadata !2930, metadata !DIExpression()), !dbg !2933
  call void @llvm.dbg.value(metadata %class.String* %4, metadata !2935, metadata !DIExpression()), !dbg !2941
  call void @llvm.dbg.value(metadata i8* @_ZN6String9null_dataE, metadata !2938, metadata !DIExpression()), !dbg !2941
  call void @llvm.dbg.value(metadata i32 0, metadata !2939, metadata !DIExpression()), !dbg !2941
  call void @llvm.dbg.value(metadata %"struct.String::memo_t"* null, metadata !2940, metadata !DIExpression()), !dbg !2941
  %9 = getelementptr inbounds %class.String, %class.String* %4, i64 0, i32 0, i32 0, !dbg !2944
  store i8* @_ZN6String9null_dataE, i8** %9, align 8, !dbg !2945, !tbaa !2946
  %10 = getelementptr inbounds %class.String, %class.String* %4, i64 0, i32 0, i32 1, !dbg !2949
  store i32 0, i32* %10, align 8, !dbg !2950, !tbaa !2951
  %11 = getelementptr inbounds %class.String, %class.String* %4, i64 0, i32 0, i32 2, !dbg !2952
  store %"struct.String::memo_t"* null, %"struct.String::memo_t"** %11, align 8, !dbg !2954, !tbaa !2955
  %12 = getelementptr inbounds %class.IPRateMonitor, %class.IPRateMonitor* %0, i64 0, i32 4, !dbg !2956
  store i64 0, i64* %12, align 8, !dbg !2957, !tbaa !2898
  %13 = getelementptr inbounds %class.IPRateMonitor, %class.IPRateMonitor* %0, i64 0, i32 2, !dbg !2958
  store i8 1, i8* %13, align 1, !dbg !2959, !tbaa !2894
  %14 = bitcast %class.Args* %5 to i8*, !dbg !2960
  call void @llvm.lifetime.start.p0i8(i64 112, i8* nonnull %14) #17, !dbg !2960
  %15 = bitcast %class.IPRateMonitor* %0 to %class.Element*, !dbg !2962
  invoke void @_ZN4ArgsC1ERK6VectorI6StringEPK7ElementP12ErrorHandler(%class.Args* nonnull %5, %class.Vector* nonnull dereferenceable(16) %1, %class.Element* %15, %class.ErrorHandler* %2)
          to label %16 unwind label %27, !dbg !2960

16:                                               ; preds = %3
  call void @llvm.dbg.value(metadata %class.Args* %5, metadata !2963, metadata !DIExpression()), !dbg !2972
  call void @llvm.dbg.value(metadata i8* getelementptr inbounds ([5 x i8], [5 x i8]* @.str, i64 0, i64 0), metadata !2969, metadata !DIExpression()), !dbg !2972
  call void @llvm.dbg.value(metadata %class.String* %4, metadata !2971, metadata !DIExpression()), !dbg !2972
  call void @llvm.dbg.value(metadata %class.Args* %5, metadata !2974, metadata !DIExpression()), !dbg !2984
  call void @llvm.dbg.value(metadata i8* getelementptr inbounds ([5 x i8], [5 x i8]* @.str, i64 0, i64 0), metadata !2980, metadata !DIExpression()), !dbg !2984
  call void @llvm.dbg.value(metadata i32 3, metadata !2981, metadata !DIExpression()), !dbg !2984
  call void @llvm.dbg.value(metadata %class.String* %4, metadata !2983, metadata !DIExpression()), !dbg !2984
  invoke void @_Z14args_base_readI7WordArg6StringEvP4ArgsPKciT_RT0_(%class.Args* nonnull %5, i8* getelementptr inbounds ([5 x i8], [5 x i8]* @.str, i64 0, i64 0), i32 3, %class.String* nonnull dereferenceable(24) %4)
          to label %17 unwind label %31, !dbg !2986

17:                                               ; preds = %16
  %18 = getelementptr inbounds %class.IPRateMonitor, %class.IPRateMonitor* %0, i64 0, i32 5, !dbg !2987
  call void @llvm.dbg.value(metadata i64 16, metadata !2988, metadata !DIExpression(DW_OP_LLVM_fragment, 0, 64)), !dbg !2997
  call void @llvm.dbg.value(metadata i32 undef, metadata !2988, metadata !DIExpression(DW_OP_LLVM_fragment, 64, 32)), !dbg !2997
  call void @llvm.dbg.value(metadata %class.Args* %5, metadata !2994, metadata !DIExpression()), !dbg !2997
  call void @llvm.dbg.value(metadata i8* getelementptr inbounds ([6 x i8], [6 x i8]* @.str.1, i64 0, i64 0), metadata !2995, metadata !DIExpression()), !dbg !2997
  call void @llvm.dbg.value(metadata i32* %18, metadata !2996, metadata !DIExpression()), !dbg !2997
  call void @llvm.dbg.value(metadata i64 16, metadata !2999, metadata !DIExpression(DW_OP_LLVM_fragment, 0, 64)), !dbg !3009
  call void @llvm.dbg.value(metadata i32 undef, metadata !2999, metadata !DIExpression(DW_OP_LLVM_fragment, 64, 32)), !dbg !3009
  call void @llvm.dbg.value(metadata %class.Args* %5, metadata !3005, metadata !DIExpression()), !dbg !3009
  call void @llvm.dbg.value(metadata i8* getelementptr inbounds ([6 x i8], [6 x i8]* @.str.1, i64 0, i64 0), metadata !3006, metadata !DIExpression()), !dbg !3009
  call void @llvm.dbg.value(metadata i32 3, metadata !3007, metadata !DIExpression()), !dbg !3009
  call void @llvm.dbg.value(metadata i32* %18, metadata !3008, metadata !DIExpression()), !dbg !3009
  invoke void @_Z14args_base_readI13FixedPointArgjEvP4ArgsPKciT_RT0_(%class.Args* nonnull %5, i8* getelementptr inbounds ([6 x i8], [6 x i8]* @.str.1, i64 0, i64 0), i32 3, i64 16, i32 undef, i32* nonnull dereferenceable(4) %18)
          to label %19 unwind label %31, !dbg !3011

19:                                               ; preds = %17
  %20 = getelementptr inbounds %class.IPRateMonitor, %class.IPRateMonitor* %0, i64 0, i32 3, !dbg !3012
  call void @llvm.dbg.value(metadata %class.Args* %5, metadata !3013, metadata !DIExpression()), !dbg !3021
  call void @llvm.dbg.value(metadata i8* getelementptr inbounds ([7 x i8], [7 x i8]* @.str.2, i64 0, i64 0), metadata !3019, metadata !DIExpression()), !dbg !3021
  call void @llvm.dbg.value(metadata i32* %20, metadata !3020, metadata !DIExpression()), !dbg !3021
  call void @llvm.dbg.value(metadata %class.Args* %5, metadata !3023, metadata !DIExpression()), !dbg !3032
  call void @llvm.dbg.value(metadata i8* getelementptr inbounds ([7 x i8], [7 x i8]* @.str.2, i64 0, i64 0), metadata !3029, metadata !DIExpression()), !dbg !3032
  call void @llvm.dbg.value(metadata i32 3, metadata !3030, metadata !DIExpression()), !dbg !3032
  call void @llvm.dbg.value(metadata i32* %20, metadata !3031, metadata !DIExpression()), !dbg !3032
  invoke void @_Z14args_base_readIiEvP4ArgsPKciRT_(%class.Args* nonnull %5, i8* getelementptr inbounds ([7 x i8], [7 x i8]* @.str.2, i64 0, i64 0), i32 3, i32* nonnull dereferenceable(4) %20)
          to label %21 unwind label %31, !dbg !3034

21:                                               ; preds = %19
  call void @llvm.dbg.value(metadata %class.Args* %5, metadata !3035, metadata !DIExpression()), !dbg !3043
  call void @llvm.dbg.value(metadata i8* getelementptr inbounds ([7 x i8], [7 x i8]* @.str.3, i64 0, i64 0), metadata !3041, metadata !DIExpression()), !dbg !3043
  call void @llvm.dbg.value(metadata i64* %12, metadata !3042, metadata !DIExpression()), !dbg !3043
  call void @llvm.dbg.value(metadata %class.Args* %5, metadata !3045, metadata !DIExpression()), !dbg !3054
  call void @llvm.dbg.value(metadata i8* getelementptr inbounds ([7 x i8], [7 x i8]* @.str.3, i64 0, i64 0), metadata !3051, metadata !DIExpression()), !dbg !3054
  call void @llvm.dbg.value(metadata i32 2, metadata !3052, metadata !DIExpression()), !dbg !3054
  call void @llvm.dbg.value(metadata i64* %12, metadata !3053, metadata !DIExpression()), !dbg !3054
  invoke void @_Z14args_base_readImEvP4ArgsPKciRT_(%class.Args* nonnull %5, i8* getelementptr inbounds ([7 x i8], [7 x i8]* @.str.3, i64 0, i64 0), i32 2, i64* nonnull dereferenceable(8) %12)
          to label %22 unwind label %31, !dbg !3056

22:                                               ; preds = %21
  call void @llvm.dbg.value(metadata %class.Args* %5, metadata !3057, metadata !DIExpression()), !dbg !3065
  call void @llvm.dbg.value(metadata i8* getelementptr inbounds ([5 x i8], [5 x i8]* @.str.4, i64 0, i64 0), metadata !3063, metadata !DIExpression()), !dbg !3065
  call void @llvm.dbg.value(metadata i8* %13, metadata !3064, metadata !DIExpression()), !dbg !3065
  call void @llvm.dbg.value(metadata %class.Args* %5, metadata !3067, metadata !DIExpression()), !dbg !3076
  call void @llvm.dbg.value(metadata i8* getelementptr inbounds ([5 x i8], [5 x i8]* @.str.4, i64 0, i64 0), metadata !3073, metadata !DIExpression()), !dbg !3076
  call void @llvm.dbg.value(metadata i32 2, metadata !3074, metadata !DIExpression()), !dbg !3076
  call void @llvm.dbg.value(metadata i8* %13, metadata !3075, metadata !DIExpression()), !dbg !3076
  invoke void @_Z14args_base_readIbEvP4ArgsPKciRT_(%class.Args* nonnull %5, i8* getelementptr inbounds ([5 x i8], [5 x i8]* @.str.4, i64 0, i64 0), i32 2, i8* nonnull dereferenceable(1) %13)
          to label %23 unwind label %31, !dbg !3078

23:                                               ; preds = %22
  %24 = invoke i32 @_ZN4Args8completeEv(%class.Args* nonnull %5)
          to label %25 unwind label %31, !dbg !3079

25:                                               ; preds = %23
  %26 = icmp slt i32 %24, 0, !dbg !3080
  call void @_ZN4ArgsD1Ev(%class.Args* nonnull %5) #17, !dbg !2960
  call void @llvm.lifetime.end.p0i8(i64 112, i8* nonnull %14) #17, !dbg !2960
  br i1 %26, label %132, label %38, !dbg !3081

27:                                               ; preds = %3
  %28 = landingpad { i8*, i32 }
          cleanup, !dbg !3082
  %29 = extractvalue { i8*, i32 } %28, 0, !dbg !3082
  %30 = extractvalue { i8*, i32 } %28, 1, !dbg !3082
  br label %35, !dbg !3082

31:                                               ; preds = %22, %21, %19, %17, %16, %23
  %32 = landingpad { i8*, i32 }
          cleanup, !dbg !3082
  %33 = extractvalue { i8*, i32 } %32, 0, !dbg !3082
  %34 = extractvalue { i8*, i32 } %32, 1, !dbg !3082
  call void @_ZN4ArgsD1Ev(%class.Args* nonnull %5) #17, !dbg !2960
  br label %35, !dbg !2960

35:                                               ; preds = %31, %27
  %36 = phi i32 [ %34, %31 ], [ %30, %27 ], !dbg !3082
  %37 = phi i8* [ %33, %31 ], [ %29, %27 ], !dbg !3082
  call void @llvm.lifetime.end.p0i8(i64 112, i8* nonnull %14) #17, !dbg !2960
  br label %151, !dbg !2960

38:                                               ; preds = %25
  %39 = bitcast %class.String* %6 to i8*, !dbg !3083
  call void @llvm.lifetime.start.p0i8(i64 24, i8* nonnull %39) #17, !dbg !3083
  invoke void @_ZNK6String5upperEv(%class.String* nonnull sret %6, %class.String* nonnull %4)
          to label %40 unwind label %69, !dbg !3085

40:                                               ; preds = %38
  call void @llvm.dbg.value(metadata %class.String* %6, metadata !3086, metadata !DIExpression()), !dbg !3092
  call void @llvm.dbg.value(metadata i8* getelementptr inbounds ([8 x i8], [8 x i8]* @.str.5, i64 0, i64 0), metadata !3091, metadata !DIExpression()), !dbg !3092
  call void @llvm.dbg.value(metadata %class.String* %6, metadata !3094, metadata !DIExpression()), !dbg !3099
  call void @llvm.dbg.value(metadata i8* getelementptr inbounds ([8 x i8], [8 x i8]* @.str.5, i64 0, i64 0), metadata !3097, metadata !DIExpression()), !dbg !3099
  call void @llvm.dbg.value(metadata i32 7, metadata !3098, metadata !DIExpression()), !dbg !3099
  call void @llvm.dbg.value(metadata %class.String* %6, metadata !3102, metadata !DIExpression()), !dbg !3105
  %41 = getelementptr inbounds %class.String, %class.String* %6, i64 0, i32 0, i32 1, !dbg !3108
  %42 = load i32, i32* %41, align 8, !dbg !3108, !tbaa !2951
  %43 = icmp eq i32 %42, 7, !dbg !3109
  br i1 %43, label %44, label %49, !dbg !3110

44:                                               ; preds = %40
  call void @llvm.dbg.value(metadata %class.String* %6, metadata !3111, metadata !DIExpression()), !dbg !3114
  %45 = getelementptr inbounds %class.String, %class.String* %6, i64 0, i32 0, i32 0, !dbg !3116
  %46 = load i8*, i8** %45, align 8, !dbg !3116, !tbaa !2946
  %47 = call i32 @bcmp(i8* nonnull dereferenceable(7) %46, i8* nonnull dereferenceable(7) getelementptr inbounds ([8 x i8], [8 x i8]* @.str.5, i64 0, i64 0), i64 7), !dbg !3117
  %48 = icmp eq i32 %47, 0, !dbg !3118
  br label %49

49:                                               ; preds = %44, %40
  %50 = phi i1 [ false, %40 ], [ %48, %44 ], !dbg !3119
  call void @llvm.dbg.value(metadata %class.String* %6, metadata !3120, metadata !DIExpression()) #17, !dbg !3123
  call void @llvm.dbg.value(metadata %class.String* %6, metadata !3125, metadata !DIExpression()) #17, !dbg !3128
  %51 = getelementptr inbounds %class.String, %class.String* %6, i64 0, i32 0, i32 2, !dbg !3131
  %52 = load %"struct.String::memo_t"*, %"struct.String::memo_t"** %51, align 8, !dbg !3131, !tbaa !2955
  %53 = icmp eq %"struct.String::memo_t"* %52, null, !dbg !3133
  br i1 %53, label %68, label %54, !dbg !3134

54:                                               ; preds = %49
  %55 = getelementptr inbounds %"struct.String::memo_t", %"struct.String::memo_t"* %52, i64 0, i32 0, !dbg !3135
  %56 = load volatile i32, i32* %55, align 4, !dbg !3135, !tbaa !3137
  %57 = icmp eq i32 %56, 0, !dbg !3135
  br i1 %57, label %58, label %59, !dbg !3135

58:                                               ; preds = %54
  call void @__assert_fail(i8* getelementptr inbounds ([18 x i8], [18 x i8]* @.str.31, i64 0, i64 0), i8* getelementptr inbounds ([29 x i8], [29 x i8]* @.str.32, i64 0, i64 0), i32 273, i8* getelementptr inbounds ([27 x i8], [27 x i8]* @__PRETTY_FUNCTION__._ZNK6String5derefEv, i64 0, i64 0)) #19, !dbg !3135
  unreachable, !dbg !3135

59:                                               ; preds = %54
  call void @llvm.dbg.value(metadata i32* %55, metadata !3139, metadata !DIExpression()) #17, !dbg !3142
  %60 = load volatile i32, i32* %55, align 4, !dbg !3145, !tbaa !3146
  %61 = add i32 %60, -1, !dbg !3145
  store volatile i32 %61, i32* %55, align 4, !dbg !3145, !tbaa !3146
  %62 = icmp eq i32 %61, 0, !dbg !3147
  br i1 %62, label %63, label %64, !dbg !3148

63:                                               ; preds = %59
  invoke void @_ZN6String11delete_memoEPNS_6memo_tE(%"struct.String::memo_t"* nonnull %52)
          to label %64 unwind label %65, !dbg !3149

64:                                               ; preds = %63, %59
  store %"struct.String::memo_t"* null, %"struct.String::memo_t"** %51, align 8, !dbg !3150, !tbaa !2955
  br label %68, !dbg !3151

65:                                               ; preds = %63
  %66 = landingpad { i8*, i32 }
          catch i8* null, !dbg !3152
  %67 = extractvalue { i8*, i32 } %66, 0, !dbg !3152
  call void @__clang_call_terminate(i8* %67) #19, !dbg !3152
  unreachable, !dbg !3152

68:                                               ; preds = %49, %64
  call void @llvm.lifetime.end.p0i8(i64 24, i8* nonnull %39) #17, !dbg !3083
  br i1 %50, label %114, label %73, !dbg !3153

69:                                               ; preds = %38
  %70 = landingpad { i8*, i32 }
          cleanup, !dbg !3154
  %71 = extractvalue { i8*, i32 } %70, 0, !dbg !3154
  %72 = extractvalue { i8*, i32 } %70, 1, !dbg !3154
  call void @llvm.lifetime.end.p0i8(i64 24, i8* nonnull %39) #17, !dbg !3083
  br label %151, !dbg !3083

73:                                               ; preds = %68
  %74 = bitcast %class.String* %7 to i8*, !dbg !3155
  call void @llvm.lifetime.start.p0i8(i64 24, i8* nonnull %74) #17, !dbg !3155
  invoke void @_ZNK6String5upperEv(%class.String* nonnull sret %7, %class.String* nonnull %4)
          to label %75 unwind label %104, !dbg !3157

75:                                               ; preds = %73
  call void @llvm.dbg.value(metadata %class.String* %7, metadata !3086, metadata !DIExpression()), !dbg !3158
  call void @llvm.dbg.value(metadata i8* getelementptr inbounds ([6 x i8], [6 x i8]* @.str.6, i64 0, i64 0), metadata !3091, metadata !DIExpression()), !dbg !3158
  call void @llvm.dbg.value(metadata %class.String* %7, metadata !3094, metadata !DIExpression()), !dbg !3160
  call void @llvm.dbg.value(metadata i8* getelementptr inbounds ([6 x i8], [6 x i8]* @.str.6, i64 0, i64 0), metadata !3097, metadata !DIExpression()), !dbg !3160
  call void @llvm.dbg.value(metadata i32 5, metadata !3098, metadata !DIExpression()), !dbg !3160
  call void @llvm.dbg.value(metadata %class.String* %7, metadata !3102, metadata !DIExpression()), !dbg !3162
  %76 = getelementptr inbounds %class.String, %class.String* %7, i64 0, i32 0, i32 1, !dbg !3164
  %77 = load i32, i32* %76, align 8, !dbg !3164, !tbaa !2951
  %78 = icmp eq i32 %77, 5, !dbg !3165
  br i1 %78, label %79, label %84, !dbg !3166

79:                                               ; preds = %75
  call void @llvm.dbg.value(metadata %class.String* %7, metadata !3111, metadata !DIExpression()), !dbg !3167
  %80 = getelementptr inbounds %class.String, %class.String* %7, i64 0, i32 0, i32 0, !dbg !3169
  %81 = load i8*, i8** %80, align 8, !dbg !3169, !tbaa !2946
  %82 = call i32 @bcmp(i8* nonnull dereferenceable(5) %81, i8* nonnull dereferenceable(5) getelementptr inbounds ([6 x i8], [6 x i8]* @.str.6, i64 0, i64 0), i64 5), !dbg !3170
  %83 = icmp eq i32 %82, 0, !dbg !3171
  br label %84

84:                                               ; preds = %79, %75
  %85 = phi i1 [ false, %75 ], [ %83, %79 ], !dbg !3172
  call void @llvm.dbg.value(metadata %class.String* %7, metadata !3120, metadata !DIExpression()) #17, !dbg !3173
  call void @llvm.dbg.value(metadata %class.String* %7, metadata !3125, metadata !DIExpression()) #17, !dbg !3175
  %86 = getelementptr inbounds %class.String, %class.String* %7, i64 0, i32 0, i32 2, !dbg !3177
  %87 = load %"struct.String::memo_t"*, %"struct.String::memo_t"** %86, align 8, !dbg !3177, !tbaa !2955
  %88 = icmp eq %"struct.String::memo_t"* %87, null, !dbg !3178
  br i1 %88, label %103, label %89, !dbg !3179

89:                                               ; preds = %84
  %90 = getelementptr inbounds %"struct.String::memo_t", %"struct.String::memo_t"* %87, i64 0, i32 0, !dbg !3180
  %91 = load volatile i32, i32* %90, align 4, !dbg !3180, !tbaa !3137
  %92 = icmp eq i32 %91, 0, !dbg !3180
  br i1 %92, label %93, label %94, !dbg !3180

93:                                               ; preds = %89
  call void @__assert_fail(i8* getelementptr inbounds ([18 x i8], [18 x i8]* @.str.31, i64 0, i64 0), i8* getelementptr inbounds ([29 x i8], [29 x i8]* @.str.32, i64 0, i64 0), i32 273, i8* getelementptr inbounds ([27 x i8], [27 x i8]* @__PRETTY_FUNCTION__._ZNK6String5derefEv, i64 0, i64 0)) #19, !dbg !3180
  unreachable, !dbg !3180

94:                                               ; preds = %89
  call void @llvm.dbg.value(metadata i32* %90, metadata !3139, metadata !DIExpression()) #17, !dbg !3181
  %95 = load volatile i32, i32* %90, align 4, !dbg !3183, !tbaa !3146
  %96 = add i32 %95, -1, !dbg !3183
  store volatile i32 %96, i32* %90, align 4, !dbg !3183, !tbaa !3146
  %97 = icmp eq i32 %96, 0, !dbg !3184
  br i1 %97, label %98, label %99, !dbg !3185

98:                                               ; preds = %94
  invoke void @_ZN6String11delete_memoEPNS_6memo_tE(%"struct.String::memo_t"* nonnull %87)
          to label %99 unwind label %100, !dbg !3186

99:                                               ; preds = %98, %94
  store %"struct.String::memo_t"* null, %"struct.String::memo_t"** %86, align 8, !dbg !3187, !tbaa !2955
  br label %103, !dbg !3188

100:                                              ; preds = %98
  %101 = landingpad { i8*, i32 }
          catch i8* null, !dbg !3189
  %102 = extractvalue { i8*, i32 } %101, 0, !dbg !3189
  call void @__clang_call_terminate(i8* %102) #19, !dbg !3189
  unreachable, !dbg !3189

103:                                              ; preds = %84, %99
  call void @llvm.lifetime.end.p0i8(i64 24, i8* nonnull %74) #17, !dbg !3155
  br i1 %85, label %114, label %108, !dbg !3190

104:                                              ; preds = %73
  %105 = landingpad { i8*, i32 }
          cleanup, !dbg !3191
  %106 = extractvalue { i8*, i32 } %105, 0, !dbg !3191
  %107 = extractvalue { i8*, i32 } %105, 1, !dbg !3191
  call void @llvm.lifetime.end.p0i8(i64 24, i8* nonnull %74) #17, !dbg !3155
  br label %151, !dbg !3155

108:                                              ; preds = %103
  %109 = invoke i32 (%class.ErrorHandler*, i8*, ...) @_ZN12ErrorHandler5errorEPKcz(%class.ErrorHandler* %2, i8* getelementptr inbounds ([44 x i8], [44 x i8]* @.str.7, i64 0, i64 0))
          to label %132 unwind label %110, !dbg !3192

110:                                              ; preds = %126, %108
  %111 = landingpad { i8*, i32 }
          cleanup, !dbg !3191
  %112 = extractvalue { i8*, i32 } %111, 0, !dbg !3191
  %113 = extractvalue { i8*, i32 } %111, 1, !dbg !3191
  br label %151, !dbg !3191

114:                                              ; preds = %103, %68
  %115 = phi i8 [ 1, %68 ], [ 0, %103 ]
  %116 = getelementptr inbounds %class.IPRateMonitor, %class.IPRateMonitor* %0, i64 0, i32 1, !dbg !3193
  store i8 %115, i8* %116, align 4, !dbg !3193, !tbaa !2886
  %117 = load i64, i64* %12, align 8, !dbg !3194, !tbaa !2898
  %118 = add i64 %117, -1, !dbg !3196
  %119 = icmp ult i64 %118, 99, !dbg !3196
  br i1 %119, label %120, label %121, !dbg !3196

120:                                              ; preds = %114
  store i64 100, i64* %12, align 8, !dbg !3197, !tbaa !2898
  br label %121, !dbg !3198

121:                                              ; preds = %114, %120
  %122 = phi i64 [ %117, %114 ], [ 100, %120 ], !dbg !3199
  %123 = shl i64 %122, 10, !dbg !3199
  store i64 %123, i64* %12, align 8, !dbg !3199, !tbaa !2898
  %124 = load i32, i32* %18, align 8, !dbg !3200, !tbaa !2900
  %125 = icmp ugt i32 %124, 65536, !dbg !3202
  br i1 %125, label %126, label %128, !dbg !3203

126:                                              ; preds = %121
  %127 = invoke i32 (%class.ErrorHandler*, i8*, ...) @_ZN12ErrorHandler5errorEPKcz(%class.ErrorHandler* %2, i8* getelementptr inbounds ([30 x i8], [30 x i8]* @.str.8, i64 0, i64 0))
          to label %132 unwind label %110, !dbg !3204

128:                                              ; preds = %121
  %129 = load i32, i32* %20, align 8, !dbg !3205, !tbaa !2896
  %130 = mul i32 %129, %124, !dbg !3206
  %131 = lshr i32 %130, 16, !dbg !3207
  store i32 %131, i32* %20, align 8, !dbg !3208, !tbaa !2896
  br label %132, !dbg !3209

132:                                              ; preds = %126, %108, %25, %128
  %133 = phi i32 [ 0, %128 ], [ -1, %25 ], [ %109, %108 ], [ %127, %126 ], !dbg !2927
  call void @llvm.dbg.value(metadata %class.String* %4, metadata !3120, metadata !DIExpression()) #17, !dbg !3210
  call void @llvm.dbg.value(metadata %class.String* %4, metadata !3125, metadata !DIExpression()) #17, !dbg !3212
  %134 = load %"struct.String::memo_t"*, %"struct.String::memo_t"** %11, align 8, !dbg !3214, !tbaa !2955
  %135 = icmp eq %"struct.String::memo_t"* %134, null, !dbg !3215
  br i1 %135, label %150, label %136, !dbg !3216

136:                                              ; preds = %132
  %137 = getelementptr inbounds %"struct.String::memo_t", %"struct.String::memo_t"* %134, i64 0, i32 0, !dbg !3217
  %138 = load volatile i32, i32* %137, align 4, !dbg !3217, !tbaa !3137
  %139 = icmp eq i32 %138, 0, !dbg !3217
  br i1 %139, label %140, label %141, !dbg !3217

140:                                              ; preds = %136
  call void @__assert_fail(i8* getelementptr inbounds ([18 x i8], [18 x i8]* @.str.31, i64 0, i64 0), i8* getelementptr inbounds ([29 x i8], [29 x i8]* @.str.32, i64 0, i64 0), i32 273, i8* getelementptr inbounds ([27 x i8], [27 x i8]* @__PRETTY_FUNCTION__._ZNK6String5derefEv, i64 0, i64 0)) #19, !dbg !3217
  unreachable, !dbg !3217

141:                                              ; preds = %136
  call void @llvm.dbg.value(metadata i32* %137, metadata !3139, metadata !DIExpression()) #17, !dbg !3218
  %142 = load volatile i32, i32* %137, align 4, !dbg !3220, !tbaa !3146
  %143 = add i32 %142, -1, !dbg !3220
  store volatile i32 %143, i32* %137, align 4, !dbg !3220, !tbaa !3146
  %144 = icmp eq i32 %143, 0, !dbg !3221
  br i1 %144, label %145, label %146, !dbg !3222

145:                                              ; preds = %141
  invoke void @_ZN6String11delete_memoEPNS_6memo_tE(%"struct.String::memo_t"* nonnull %134)
          to label %146 unwind label %147, !dbg !3223

146:                                              ; preds = %145, %141
  store %"struct.String::memo_t"* null, %"struct.String::memo_t"** %11, align 8, !dbg !3224, !tbaa !2955
  br label %150, !dbg !3225

147:                                              ; preds = %145
  %148 = landingpad { i8*, i32 }
          catch i8* null, !dbg !3226
  %149 = extractvalue { i8*, i32 } %148, 0, !dbg !3226
  call void @__clang_call_terminate(i8* %149) #19, !dbg !3226
  unreachable, !dbg !3226

150:                                              ; preds = %132, %146
  call void @llvm.lifetime.end.p0i8(i64 24, i8* nonnull %8) #17, !dbg !3227
  ret i32 %133, !dbg !3227

151:                                              ; preds = %110, %104, %69, %35
  %152 = phi i32 [ %113, %110 ], [ %107, %104 ], [ %72, %69 ], [ %36, %35 ], !dbg !2927
  %153 = phi i8* [ %112, %110 ], [ %106, %104 ], [ %71, %69 ], [ %37, %35 ], !dbg !2927
  call void @llvm.dbg.value(metadata %class.String* %4, metadata !3120, metadata !DIExpression()) #17, !dbg !3228
  call void @llvm.dbg.value(metadata %class.String* %4, metadata !3125, metadata !DIExpression()) #17, !dbg !3230
  %154 = load %"struct.String::memo_t"*, %"struct.String::memo_t"** %11, align 8, !dbg !3232, !tbaa !2955
  %155 = icmp eq %"struct.String::memo_t"* %154, null, !dbg !3233
  br i1 %155, label %170, label %156, !dbg !3234

156:                                              ; preds = %151
  %157 = getelementptr inbounds %"struct.String::memo_t", %"struct.String::memo_t"* %154, i64 0, i32 0, !dbg !3235
  %158 = load volatile i32, i32* %157, align 4, !dbg !3235, !tbaa !3137
  %159 = icmp eq i32 %158, 0, !dbg !3235
  br i1 %159, label %160, label %161, !dbg !3235

160:                                              ; preds = %156
  call void @__assert_fail(i8* getelementptr inbounds ([18 x i8], [18 x i8]* @.str.31, i64 0, i64 0), i8* getelementptr inbounds ([29 x i8], [29 x i8]* @.str.32, i64 0, i64 0), i32 273, i8* getelementptr inbounds ([27 x i8], [27 x i8]* @__PRETTY_FUNCTION__._ZNK6String5derefEv, i64 0, i64 0)) #19, !dbg !3235
  unreachable, !dbg !3235

161:                                              ; preds = %156
  call void @llvm.dbg.value(metadata i32* %157, metadata !3139, metadata !DIExpression()) #17, !dbg !3236
  %162 = load volatile i32, i32* %157, align 4, !dbg !3238, !tbaa !3146
  %163 = add i32 %162, -1, !dbg !3238
  store volatile i32 %163, i32* %157, align 4, !dbg !3238, !tbaa !3146
  %164 = icmp eq i32 %163, 0, !dbg !3239
  br i1 %164, label %165, label %166, !dbg !3240

165:                                              ; preds = %161
  invoke void @_ZN6String11delete_memoEPNS_6memo_tE(%"struct.String::memo_t"* nonnull %154)
          to label %166 unwind label %167, !dbg !3241

166:                                              ; preds = %165, %161
  store %"struct.String::memo_t"* null, %"struct.String::memo_t"** %11, align 8, !dbg !3242, !tbaa !2955
  br label %170, !dbg !3243

167:                                              ; preds = %165
  %168 = landingpad { i8*, i32 }
          catch i8* null, !dbg !3244
  %169 = extractvalue { i8*, i32 } %168, 0, !dbg !3244
  call void @__clang_call_terminate(i8* %169) #19, !dbg !3244
  unreachable, !dbg !3244

170:                                              ; preds = %151, %166
  call void @llvm.lifetime.end.p0i8(i64 24, i8* nonnull %8) #17, !dbg !3227
  %171 = insertvalue { i8*, i32 } undef, i8* %153, 0, !dbg !3227
  %172 = insertvalue { i8*, i32 } %171, i32 %152, 1, !dbg !3227
  resume { i8*, i32 } %172, !dbg !3227
}

; Function Attrs: argmemonly nounwind willreturn
declare void @llvm.lifetime.start.p0i8(i64 immarg, i8* nocapture) #6

declare void @_ZN4ArgsC1ERK6VectorI6StringEPK7ElementP12ErrorHandler(%class.Args*, %class.Vector* dereferenceable(16), %class.Element*, %class.ErrorHandler*) unnamed_addr #2

declare i32 @__gxx_personality_v0(...)

; Function Attrs: argmemonly nounwind willreturn
declare void @llvm.memcpy.p0i8.p0i8.i64(i8* noalias nocapture writeonly, i8* noalias nocapture readonly, i64, i1 immarg) #6

declare i32 @_ZN4Args8completeEv(%class.Args*) local_unnamed_addr #2

; Function Attrs: nounwind
declare void @_ZN4ArgsD1Ev(%class.Args*) unnamed_addr #3

; Function Attrs: argmemonly nounwind willreturn
declare void @llvm.lifetime.end.p0i8(i64 immarg, i8* nocapture) #6

declare void @_ZNK6String5upperEv(%class.String* sret, %class.String*) local_unnamed_addr #2

declare i32 @_ZN12ErrorHandler5errorEPKcz(%class.ErrorHandler*, i8*, ...) local_unnamed_addr #2

; Function Attrs: sspstrong uwtable
define dso_local i32 @_ZN13IPRateMonitor10initializeEP12ErrorHandler(%class.IPRateMonitor* %0, %class.ErrorHandler* nocapture readnone %1) unnamed_addr #0 align 2 personality i8* bitcast (i32 (...)* @__gxx_personality_v0 to i8*) !dbg !3245 {
  call void @llvm.dbg.value(metadata %class.IPRateMonitor* %0, metadata !3247, metadata !DIExpression()), !dbg !3249
  call void @llvm.dbg.value(metadata %class.ErrorHandler* %1, metadata !3248, metadata !DIExpression()), !dbg !3249
  call void @llvm.dbg.value(metadata %class.IPRateMonitor* %0, metadata !3250, metadata !DIExpression()), !dbg !3253
  %3 = tail call i32 @_Z13click_jiffiesv(), !dbg !3255
  %4 = lshr i32 %3, 3, !dbg !3258
  %5 = zext i32 %4 to i64, !dbg !3259
  %6 = getelementptr inbounds %class.IPRateMonitor, %class.IPRateMonitor* %0, i64 0, i32 8, !dbg !3260
  store i64 %5, i64* %6, align 8, !dbg !3261, !tbaa !3262
  %7 = tail call dereferenceable(1) i8* @_Znwm(i64 1) #20, !dbg !3263
  %8 = getelementptr inbounds %class.IPRateMonitor, %class.IPRateMonitor* %0, i64 0, i32 6, !dbg !3264
  %9 = bitcast %class.Spinlock** %8 to i8**, !dbg !3265
  store i8* %7, i8** %9, align 8, !dbg !3265, !tbaa !3266
  %10 = tail call dereferenceable(2080) i8* @_Znwm(i64 2080) #20, !dbg !3267
  call void @llvm.dbg.value(metadata i8* %10, metadata !3268, metadata !DIExpression()) #17, !dbg !3275
  call void @llvm.dbg.value(metadata %class.IPRateMonitor* %0, metadata !3271, metadata !DIExpression()) #17, !dbg !3275
  %11 = getelementptr inbounds i8, i8* %10, i64 2072, !dbg !3277
  %12 = bitcast i8* %11 to %class.IPRateMonitor**, !dbg !3277
  store %class.IPRateMonitor* %0, %class.IPRateMonitor** %12, align 8, !dbg !3278, !tbaa !3279
  call void @llvm.dbg.value(metadata %class.IPRateMonitor* %0, metadata !3281, metadata !DIExpression()) #17, !dbg !3285
  call void @llvm.dbg.value(metadata i64 2080, metadata !3284, metadata !DIExpression()) #17, !dbg !3285
  %13 = getelementptr inbounds %class.IPRateMonitor, %class.IPRateMonitor* %0, i64 0, i32 9, !dbg !3287
  %14 = load i64, i64* %13, align 8, !dbg !3288, !tbaa !3289
  %15 = add i64 %14, 2080, !dbg !3288
  store i64 %15, i64* %13, align 8, !dbg !3288, !tbaa !3289
  tail call void @llvm.memset.p0i8.i64(i8* nonnull align 8 dereferenceable(2072) %10, i8 0, i64 2072, i1 false) #17, !dbg !3290
  %16 = getelementptr inbounds %class.IPRateMonitor, %class.IPRateMonitor* %0, i64 0, i32 7, !dbg !3291
  %17 = bitcast %"struct.IPRateMonitor::Stats"** %16 to i8**, !dbg !3292
  store i8* %10, i8** %17, align 8, !dbg !3292, !tbaa !3293
  %18 = getelementptr inbounds %class.IPRateMonitor, %class.IPRateMonitor* %0, i64 0, i32 11, !dbg !3294
  %19 = bitcast %"struct.IPRateMonitor::Stats"** %18 to i8**, !dbg !3295
  store i8* %10, i8** %19, align 8, !dbg !3295, !tbaa !3296
  %20 = getelementptr inbounds %class.IPRateMonitor, %class.IPRateMonitor* %0, i64 0, i32 10, !dbg !3297
  %21 = bitcast %"struct.IPRateMonitor::Stats"** %20 to i8**, !dbg !3298
  store i8* %10, i8** %21, align 8, !dbg !3298, !tbaa !3299
  ret i32 0, !dbg !3300
}

; Function Attrs: nobuiltin nofree
declare noalias nonnull i8* @_Znwm(i64) local_unnamed_addr #7

; Function Attrs: nounwind sspstrong uwtable
define dso_local void @_ZN13IPRateMonitor7cleanupEN7Element12CleanupStageE(%class.IPRateMonitor* nocapture %0, i32 %1) unnamed_addr #4 align 2 !dbg !3301 {
  call void @llvm.dbg.value(metadata %class.IPRateMonitor* %0, metadata !3303, metadata !DIExpression()), !dbg !3305
  call void @llvm.dbg.value(metadata i32 undef, metadata !3304, metadata !DIExpression()), !dbg !3305
  %3 = getelementptr inbounds %class.IPRateMonitor, %class.IPRateMonitor* %0, i64 0, i32 7, !dbg !3306
  %4 = load %"struct.IPRateMonitor::Stats"*, %"struct.IPRateMonitor::Stats"** %3, align 8, !dbg !3306, !tbaa !3293
  %5 = icmp eq %"struct.IPRateMonitor::Stats"* %4, null, !dbg !3307
  br i1 %5, label %8, label %6, !dbg !3307

6:                                                ; preds = %2
  tail call void @_ZN13IPRateMonitor5StatsD2Ev(%"struct.IPRateMonitor::Stats"* nonnull %4) #17, !dbg !3307
  %7 = bitcast %"struct.IPRateMonitor::Stats"* %4 to i8*, !dbg !3307
  tail call void @_ZdlPv(i8* %7) #18, !dbg !3307
  br label %8, !dbg !3307

8:                                                ; preds = %6, %2
  %9 = getelementptr inbounds %class.IPRateMonitor, %class.IPRateMonitor* %0, i64 0, i32 6, !dbg !3308
  %10 = load %class.Spinlock*, %class.Spinlock** %9, align 8, !dbg !3308, !tbaa !3266
  %11 = icmp eq %class.Spinlock* %10, null, !dbg !3309
  br i1 %11, label %14, label %12, !dbg !3309

12:                                               ; preds = %8
  %13 = getelementptr %class.Spinlock, %class.Spinlock* %10, i64 0, i32 0, !dbg !3309
  tail call void @_ZdlPv(i8* %13) #18, !dbg !3309
  br label %14, !dbg !3309

14:                                               ; preds = %12, %8
  %15 = bitcast %class.Spinlock** %9 to i8*, !dbg !3310
  call void @llvm.memset.p0i8.i64(i8* nonnull align 8 dereferenceable(16) %15, i8 0, i64 16, i1 false), !dbg !3311
  ret void, !dbg !3310
}

; Function Attrs: sspstrong uwtable
define dso_local void @_ZN13IPRateMonitor4pushEiP6Packet(%class.IPRateMonitor* %0, i32 %1, %class.Packet* %2) unnamed_addr #0 align 2 !dbg !3312 {
  call void @llvm.dbg.value(metadata %class.IPRateMonitor* %0, metadata !3314, metadata !DIExpression()), !dbg !3318
  call void @llvm.dbg.value(metadata i32 %1, metadata !3315, metadata !DIExpression()), !dbg !3318
  call void @llvm.dbg.value(metadata %class.Packet* %2, metadata !3316, metadata !DIExpression()), !dbg !3318
  %4 = tail call i64 @random() #17, !dbg !3319
  %5 = trunc i64 %4 to i32, !dbg !3319
  %6 = lshr i32 %5, 5, !dbg !3324
  %7 = and i32 %6, 65535, !dbg !3325
  %8 = getelementptr inbounds %class.IPRateMonitor, %class.IPRateMonitor* %0, i64 0, i32 5, !dbg !3326
  %9 = load i32, i32* %8, align 8, !dbg !3326, !tbaa !2900
  %10 = icmp ule i32 %7, %9, !dbg !3327
  call void @llvm.dbg.value(metadata i1 %10, metadata !3317, metadata !DIExpression()), !dbg !3318
  %11 = icmp eq i32 %1, 0, !dbg !3328
  call void @llvm.dbg.value(metadata %class.IPRateMonitor* %0, metadata !3329, metadata !DIExpression()), !dbg !3337
  call void @llvm.dbg.value(metadata %class.Packet* %2, metadata !3332, metadata !DIExpression()), !dbg !3337
  call void @llvm.dbg.value(metadata i1 %11, metadata !3333, metadata !DIExpression()), !dbg !3337
  call void @llvm.dbg.value(metadata i1 %10, metadata !3334, metadata !DIExpression()), !dbg !3337
  %12 = tail call %struct.click_ip* @_ZNK6Packet9ip_headerEv(%class.Packet* %2), !dbg !3339
  call void @llvm.dbg.value(metadata %struct.click_ip* %12, metadata !3335, metadata !DIExpression()), !dbg !3337
  %13 = getelementptr inbounds %class.IPRateMonitor, %class.IPRateMonitor* %0, i64 0, i32 1, !dbg !3340
  %14 = load i8, i8* %13, align 4, !dbg !3340, !tbaa !2886, !range !3341
  %15 = icmp eq i8 %14, 0, !dbg !3340
  br i1 %15, label %16, label %21, !dbg !3340

16:                                               ; preds = %3
  %17 = getelementptr inbounds %struct.click_ip, %struct.click_ip* %12, i64 0, i32 2, !dbg !3342
  %18 = load i16, i16* %17, align 2, !dbg !3342, !tbaa !3343
  %19 = tail call i16 @llvm.bswap.i16(i16 %18) #17
  %20 = zext i16 %19 to i32, !dbg !3342
  br label %21, !dbg !3340

21:                                               ; preds = %16, %3
  %22 = phi i32 [ %20, %16 ], [ 1, %3 ], !dbg !3340
  call void @llvm.dbg.value(metadata i32 %22, metadata !3336, metadata !DIExpression()), !dbg !3337
  %23 = getelementptr inbounds %struct.click_ip, %struct.click_ip* %12, i64 0, i32 8, i32 0, !dbg !3347
  %24 = getelementptr inbounds %struct.click_ip, %struct.click_ip* %12, i64 0, i32 9, i32 0, !dbg !3347
  %25 = select i1 %11, i32* %23, i32* %24, !dbg !3347
  %26 = load i32, i32* %25, align 4, !dbg !3348, !tbaa !3146
  tail call void @_ZN13IPRateMonitor6updateEjiP6Packetbb(%class.IPRateMonitor* nonnull %0, i32 %26, i32 %22, %class.Packet* %2, i1 zeroext %11, i1 zeroext %10), !dbg !3348
  %27 = bitcast %class.IPRateMonitor* %0 to %class.Element*, !dbg !3350
  %28 = tail call dereferenceable(16) %"class.Element::Port"* @_ZNK7Element6outputEi(%class.Element* %27, i32 %1), !dbg !3350
  tail call void @_ZNK7Element4Port4pushEP6Packet(%"class.Element::Port"* nonnull %28, %class.Packet* %2), !dbg !3351
  ret void, !dbg !3352
}

; Function Attrs: noinline optnone sspstrong uwtable
define linkonce_odr dso_local dereferenceable(16) %"class.Element::Port"* @_ZNK7Element6outputEi(%class.Element* %0, i32 %1) local_unnamed_addr #8 comdat align 2 !dbg !3353 {
  %3 = alloca %class.Element*, align 8
  %4 = alloca i32, align 4
  store %class.Element* %0, %class.Element** %3, align 8, !tbaa !3393
  call void @llvm.dbg.declare(metadata %class.Element** %3, metadata !3391, metadata !DIExpression()), !dbg !3394
  store i32 %1, i32* %4, align 4, !tbaa !3146
  call void @llvm.dbg.declare(metadata i32* %4, metadata !3392, metadata !DIExpression()), !dbg !3395
  %5 = load %class.Element*, %class.Element** %3, align 8
  %6 = load i32, i32* %4, align 4, !dbg !3396, !tbaa !3146
  %7 = call dereferenceable(16) %"class.Element::Port"* @_ZNK7Element4portEbi(%class.Element* %5, i1 zeroext true, i32 %6), !dbg !3397
  ret %"class.Element::Port"* %7, !dbg !3398
}

; Function Attrs: noinline optnone sspstrong uwtable
define linkonce_odr dso_local void @_ZNK7Element4Port4pushEP6Packet(%"class.Element::Port"* %0, %class.Packet* %1) local_unnamed_addr #8 comdat align 2 !dbg !3399 {
  %3 = alloca %"class.Element::Port"*, align 8
  %4 = alloca %class.Packet*, align 8
  store %"class.Element::Port"* %0, %"class.Element::Port"** %3, align 8, !tbaa !3393
  call void @llvm.dbg.declare(metadata %"class.Element::Port"** %3, metadata !3401, metadata !DIExpression()), !dbg !3404
  store %class.Packet* %1, %class.Packet** %4, align 8, !tbaa !3393
  call void @llvm.dbg.declare(metadata %class.Packet** %4, metadata !3403, metadata !DIExpression()), !dbg !3405
  %5 = load %"class.Element::Port"*, %"class.Element::Port"** %3, align 8
  %6 = getelementptr inbounds %"class.Element::Port", %"class.Element::Port"* %5, i32 0, i32 0, !dbg !3406
  %7 = load %class.Element*, %class.Element** %6, align 8, !dbg !3406, !tbaa !3407
  %8 = icmp ne %class.Element* %7, null, !dbg !3406
  br i1 %8, label %9, label %12, !dbg !3406

9:                                                ; preds = %2
  %10 = load %class.Packet*, %class.Packet** %4, align 8, !dbg !3406, !tbaa !3393
  %11 = icmp ne %class.Packet* %10, null, !dbg !3406
  br label %12

12:                                               ; preds = %9, %2
  %13 = phi i1 [ false, %2 ], [ %11, %9 ], !dbg !3404
  br i1 %13, label %14, label %15, !dbg !3406

14:                                               ; preds = %12
  br label %16, !dbg !3406

15:                                               ; preds = %12
  call void @__assert_fail(i8* getelementptr inbounds ([8 x i8], [8 x i8]* @.str.37, i64 0, i64 0), i8* getelementptr inbounds ([30 x i8], [30 x i8]* @.str.36, i64 0, i64 0), i32 611, i8* getelementptr inbounds ([41 x i8], [41 x i8]* @__PRETTY_FUNCTION__._ZNK7Element4Port4pushEP6Packet, i64 0, i64 0)) #19, !dbg !3406
  unreachable, !dbg !3406

16:                                               ; preds = %14
  %17 = getelementptr inbounds %"class.Element::Port", %"class.Element::Port"* %5, i32 0, i32 0, !dbg !3409
  %18 = load %class.Element*, %class.Element** %17, align 8, !dbg !3409, !tbaa !3407
  %19 = getelementptr inbounds %"class.Element::Port", %"class.Element::Port"* %5, i32 0, i32 1, !dbg !3410
  %20 = load i32, i32* %19, align 8, !dbg !3410, !tbaa !3411
  %21 = load %class.Packet*, %class.Packet** %4, align 8, !dbg !3412, !tbaa !3393
  %22 = bitcast %class.Element* %18 to void (%class.Element*, i32, %class.Packet*)***, !dbg !3413
  %23 = load void (%class.Element*, i32, %class.Packet*)**, void (%class.Element*, i32, %class.Packet*)*** %22, align 8, !dbg !3413, !tbaa !2882
  %24 = getelementptr inbounds void (%class.Element*, i32, %class.Packet*)*, void (%class.Element*, i32, %class.Packet*)** %23, i64 2, !dbg !3413
  %25 = load void (%class.Element*, i32, %class.Packet*)*, void (%class.Element*, i32, %class.Packet*)** %24, align 8, !dbg !3413
  call void %25(%class.Element* %18, i32 %20, %class.Packet* %21), !dbg !3413
  ret void, !dbg !3414
}

; Function Attrs: sspstrong uwtable
define dso_local %class.Packet* @_ZN13IPRateMonitor4pullEi(%class.IPRateMonitor* %0, i32 %1) unnamed_addr #0 align 2 !dbg !3415 {
  call void @llvm.dbg.value(metadata %class.IPRateMonitor* %0, metadata !3417, metadata !DIExpression()), !dbg !3423
  call void @llvm.dbg.value(metadata i32 %1, metadata !3418, metadata !DIExpression()), !dbg !3423
  %3 = bitcast %class.IPRateMonitor* %0 to %class.Element*, !dbg !3424
  %4 = tail call dereferenceable(16) %"class.Element::Port"* @_ZNK7Element5inputEi(%class.Element* %3, i32 %1), !dbg !3424
  call void @llvm.dbg.value(metadata %"class.Element::Port"* %4, metadata !3425, metadata !DIExpression()), !dbg !3429
  %5 = getelementptr inbounds %"class.Element::Port", %"class.Element::Port"* %4, i64 0, i32 0, !dbg !3431
  %6 = load %class.Element*, %class.Element** %5, align 8, !dbg !3431, !tbaa !3407
  %7 = icmp eq %class.Element* %6, null, !dbg !3431
  br i1 %7, label %8, label %9, !dbg !3431

8:                                                ; preds = %2
  tail call void @__assert_fail(i8* getelementptr inbounds ([3 x i8], [3 x i8]* @.str.38, i64 0, i64 0), i8* getelementptr inbounds ([30 x i8], [30 x i8]* @.str.36, i64 0, i64 0), i32 657, i8* getelementptr inbounds ([36 x i8], [36 x i8]* @__PRETTY_FUNCTION__._ZNK7Element4Port4pullEv, i64 0, i64 0)) #19, !dbg !3431
  unreachable, !dbg !3431

9:                                                ; preds = %2
  %10 = getelementptr inbounds %"class.Element::Port", %"class.Element::Port"* %4, i64 0, i32 1, !dbg !3432
  %11 = load i32, i32* %10, align 8, !dbg !3432, !tbaa !3411
  %12 = bitcast %class.Element* %6 to %class.Packet* (%class.Element*, i32)***, !dbg !3433
  %13 = load %class.Packet* (%class.Element*, i32)**, %class.Packet* (%class.Element*, i32)*** %12, align 8, !dbg !3433, !tbaa !2882
  %14 = getelementptr inbounds %class.Packet* (%class.Element*, i32)*, %class.Packet* (%class.Element*, i32)** %13, i64 3, !dbg !3433
  %15 = load %class.Packet* (%class.Element*, i32)*, %class.Packet* (%class.Element*, i32)** %14, align 8, !dbg !3433
  %16 = tail call %class.Packet* %15(%class.Element* nonnull %6, i32 %11), !dbg !3433
  call void @llvm.dbg.value(metadata %class.Packet* %16, metadata !3428, metadata !DIExpression()), !dbg !3429
  call void @llvm.dbg.value(metadata %class.Packet* %16, metadata !3419, metadata !DIExpression()), !dbg !3423
  %17 = icmp eq %class.Packet* %16, null, !dbg !3434
  br i1 %17, label %42, label %18, !dbg !3435

18:                                               ; preds = %9
  %19 = tail call i64 @random() #17, !dbg !3436
  %20 = trunc i64 %19 to i32, !dbg !3436
  %21 = lshr i32 %20, 5, !dbg !3438
  %22 = and i32 %21, 65535, !dbg !3439
  %23 = getelementptr inbounds %class.IPRateMonitor, %class.IPRateMonitor* %0, i64 0, i32 5, !dbg !3440
  %24 = load i32, i32* %23, align 8, !dbg !3440, !tbaa !2900
  %25 = icmp ule i32 %22, %24, !dbg !3441
  call void @llvm.dbg.value(metadata i1 %25, metadata !3420, metadata !DIExpression()), !dbg !3442
  %26 = icmp eq i32 %1, 0, !dbg !3443
  call void @llvm.dbg.value(metadata %class.IPRateMonitor* %0, metadata !3329, metadata !DIExpression()), !dbg !3444
  call void @llvm.dbg.value(metadata %class.Packet* %16, metadata !3332, metadata !DIExpression()), !dbg !3444
  call void @llvm.dbg.value(metadata i1 %26, metadata !3333, metadata !DIExpression()), !dbg !3444
  call void @llvm.dbg.value(metadata i1 %25, metadata !3334, metadata !DIExpression()), !dbg !3444
  %27 = tail call %struct.click_ip* @_ZNK6Packet9ip_headerEv(%class.Packet* nonnull %16), !dbg !3446
  call void @llvm.dbg.value(metadata %struct.click_ip* %27, metadata !3335, metadata !DIExpression()), !dbg !3444
  %28 = getelementptr inbounds %class.IPRateMonitor, %class.IPRateMonitor* %0, i64 0, i32 1, !dbg !3447
  %29 = load i8, i8* %28, align 4, !dbg !3447, !tbaa !2886, !range !3341
  %30 = icmp eq i8 %29, 0, !dbg !3447
  br i1 %30, label %31, label %36, !dbg !3447

31:                                               ; preds = %18
  %32 = getelementptr inbounds %struct.click_ip, %struct.click_ip* %27, i64 0, i32 2, !dbg !3448
  %33 = load i16, i16* %32, align 2, !dbg !3448, !tbaa !3343
  %34 = tail call i16 @llvm.bswap.i16(i16 %33) #17
  %35 = zext i16 %34 to i32, !dbg !3448
  br label %36, !dbg !3447

36:                                               ; preds = %31, %18
  %37 = phi i32 [ %35, %31 ], [ 1, %18 ], !dbg !3447
  call void @llvm.dbg.value(metadata i32 %37, metadata !3336, metadata !DIExpression()), !dbg !3444
  %38 = getelementptr inbounds %struct.click_ip, %struct.click_ip* %27, i64 0, i32 9, i32 0, !dbg !3449
  %39 = getelementptr inbounds %struct.click_ip, %struct.click_ip* %27, i64 0, i32 8, i32 0, !dbg !3449
  %40 = select i1 %26, i32* %39, i32* %38, !dbg !3449
  %41 = load i32, i32* %40, align 4, !dbg !3450, !tbaa !3146
  tail call void @_ZN13IPRateMonitor6updateEjiP6Packetbb(%class.IPRateMonitor* nonnull %0, i32 %41, i32 %37, %class.Packet* nonnull %16, i1 zeroext %26, i1 zeroext %25), !dbg !3450
  br label %42, !dbg !3451

42:                                               ; preds = %36, %9
  ret %class.Packet* %16, !dbg !3451
}

; Function Attrs: noinline nounwind optnone sspstrong uwtable
define linkonce_odr dso_local dereferenceable(16) %"class.Element::Port"* @_ZNK7Element5inputEi(%class.Element* %0, i32 %1) local_unnamed_addr #9 comdat align 2 !dbg !3452 {
  %3 = alloca %class.Element*, align 8
  %4 = alloca i32, align 4
  store %class.Element* %0, %class.Element** %3, align 8, !tbaa !3393
  call void @llvm.dbg.declare(metadata %class.Element** %3, metadata !3455, metadata !DIExpression()), !dbg !3457
  store i32 %1, i32* %4, align 4, !tbaa !3146
  call void @llvm.dbg.declare(metadata i32* %4, metadata !3456, metadata !DIExpression()), !dbg !3458
  %5 = load %class.Element*, %class.Element** %3, align 8
  %6 = load i32, i32* %4, align 4, !dbg !3459, !tbaa !3146
  %7 = call dereferenceable(16) %"class.Element::Port"* @_ZNK7Element4portEbi(%class.Element* %5, i1 zeroext false, i32 %6), !dbg !3460
  ret %"class.Element::Port"* %7, !dbg !3461
}

; Function Attrs: sspstrong uwtable
define dso_local %"struct.IPRateMonitor::Counter"* @_ZN13IPRateMonitor12make_counterEPNS_5StatsEhP9RateEWMAXINS_14EWMAParametersEE(%class.IPRateMonitor* nocapture %0, %"struct.IPRateMonitor::Stats"* nocapture %1, i8 zeroext %2, %class.RateEWMAX* readonly %3) local_unnamed_addr #0 align 2 personality i8* bitcast (i32 (...)* @__gxx_personality_v0 to i8*) !dbg !3462 {
  call void @llvm.dbg.value(metadata %class.IPRateMonitor* %0, metadata !3464, metadata !DIExpression()), !dbg !3469
  call void @llvm.dbg.value(metadata %"struct.IPRateMonitor::Stats"* %1, metadata !3465, metadata !DIExpression()), !dbg !3469
  call void @llvm.dbg.value(metadata i8 %2, metadata !3466, metadata !DIExpression()), !dbg !3469
  call void @llvm.dbg.value(metadata %class.RateEWMAX* %3, metadata !3467, metadata !DIExpression()), !dbg !3469
  call void @llvm.dbg.value(metadata %"struct.IPRateMonitor::Counter"* null, metadata !3468, metadata !DIExpression()), !dbg !3469
  %5 = getelementptr inbounds %class.IPRateMonitor, %class.IPRateMonitor* %0, i64 0, i32 4, !dbg !3470
  %6 = load i64, i64* %5, align 8, !dbg !3470, !tbaa !2898
  %7 = icmp eq i64 %6, 0, !dbg !3470
  br i1 %7, label %13, label %8, !dbg !3472

8:                                                ; preds = %4
  %9 = getelementptr inbounds %class.IPRateMonitor, %class.IPRateMonitor* %0, i64 0, i32 9, !dbg !3473
  %10 = load i64, i64* %9, align 8, !dbg !3473, !tbaa !3289
  %11 = add i64 %10, 40, !dbg !3474
  %12 = icmp ugt i64 %11, %6, !dbg !3475
  br i1 %12, label %41, label %13, !dbg !3476

13:                                               ; preds = %4, %8
  %14 = icmp eq %class.RateEWMAX* %3, null, !dbg !3477
  %15 = tail call dereferenceable(40) i8* @_Znwm(i64 40) #20, !dbg !3479
  %16 = bitcast i8* %15 to %"struct.IPRateMonitor::Counter"*, !dbg !3479
  br i1 %14, label %19, label %17, !dbg !3480

17:                                               ; preds = %13
  call void @llvm.dbg.value(metadata %"struct.IPRateMonitor::Counter"* %16, metadata !3481, metadata !DIExpression()) #17, !dbg !3485
  call void @llvm.dbg.value(metadata %class.RateEWMAX* %3, metadata !3484, metadata !DIExpression()) #17, !dbg !3485
  %18 = bitcast %class.RateEWMAX* %3 to i8*, !dbg !3487
  tail call void @llvm.memcpy.p0i8.p0i8.i64(i8* nonnull align 8 dereferenceable(20) %15, i8* nonnull align 4 dereferenceable(20) %18, i64 20, i1 false) #17, !dbg !3487
  call void @llvm.dbg.value(metadata %"struct.IPRateMonitor::Counter"* %16, metadata !3468, metadata !DIExpression()), !dbg !3469
  br label %30, !dbg !3488

19:                                               ; preds = %13
  call void @llvm.dbg.value(metadata %"struct.IPRateMonitor::Counter"* %16, metadata !3489, metadata !DIExpression()), !dbg !3492
  call void @llvm.dbg.value(metadata %"struct.IPRateMonitor::Counter"* %16, metadata !3494, metadata !DIExpression()), !dbg !3501
  %20 = getelementptr i8, i8* %15, i64 12, !dbg !3503
  %21 = bitcast i8* %20 to i64*, !dbg !3504
  store i64 0, i64* %21, align 4, !dbg !3504
  call void @llvm.dbg.value(metadata i32 undef, metadata !3507, metadata !DIExpression()), !dbg !3510
  %22 = invoke i32 @_Z13click_jiffiesv()
          to label %23 unwind label %28, !dbg !3511

23:                                               ; preds = %19
  %24 = lshr i32 %22, 3, !dbg !3513
  %25 = bitcast i8* %15 to i32*, !dbg !3514
  store i32 %24, i32* %25, align 4, !dbg !3515, !tbaa !3516
  call void @llvm.dbg.value(metadata i32 0, metadata !3497, metadata !DIExpression()), !dbg !3518
  %26 = getelementptr i8, i8* %15, i64 4, !dbg !3519
  %27 = bitcast i8* %26 to i64*, !dbg !3520
  store i64 0, i64* %27, align 4, !dbg !3520
  call void @llvm.dbg.value(metadata i32 undef, metadata !3497, metadata !DIExpression()), !dbg !3518
  call void @llvm.dbg.value(metadata %"struct.IPRateMonitor::Counter"* %16, metadata !3468, metadata !DIExpression()), !dbg !3469
  br label %30

28:                                               ; preds = %19
  %29 = landingpad { i8*, i32 }
          cleanup, !dbg !3522
  tail call void @_ZdlPv(i8* nonnull %15) #18, !dbg !3523
  resume { i8*, i32 } %29, !dbg !3524

30:                                               ; preds = %17, %23
  %31 = getelementptr inbounds i8, i8* %15, i64 24, !dbg !3479
  %32 = bitcast i8* %31 to %"struct.IPRateMonitor::Stats"**, !dbg !3479
  store %"struct.IPRateMonitor::Stats"* null, %"struct.IPRateMonitor::Stats"** %32, align 8, !dbg !3479, !tbaa !3525
  %33 = getelementptr inbounds i8, i8* %15, i64 32, !dbg !3479
  %34 = bitcast i8* %33 to i32*, !dbg !3479
  store i32 0, i32* %34, align 8, !dbg !3479, !tbaa !3527
  %35 = zext i8 %2 to i64, !dbg !3479
  %36 = getelementptr inbounds %"struct.IPRateMonitor::Stats", %"struct.IPRateMonitor::Stats"* %1, i64 0, i32 3, i64 %35, !dbg !3479
  %37 = bitcast %"struct.IPRateMonitor::Counter"** %36 to i8**, !dbg !3479
  store i8* %15, i8** %37, align 8, !dbg !3479, !tbaa !3393
  call void @llvm.dbg.value(metadata %"struct.IPRateMonitor::Counter"* %16, metadata !3468, metadata !DIExpression()), !dbg !3469
  %38 = getelementptr inbounds %class.IPRateMonitor, %class.IPRateMonitor* %0, i64 0, i32 9, !dbg !3528
  %39 = load i64, i64* %38, align 8, !dbg !3529, !tbaa !3289
  %40 = add i64 %39, 40, !dbg !3529
  store i64 %40, i64* %38, align 8, !dbg !3529, !tbaa !3289
  br label %41, !dbg !3530

41:                                               ; preds = %8, %30
  %42 = phi %"struct.IPRateMonitor::Counter"* [ %16, %30 ], [ null, %8 ], !dbg !3469
  ret %"struct.IPRateMonitor::Counter"* %42, !dbg !3524
}

; Function Attrs: sspstrong uwtable
define dso_local void @_ZN13IPRateMonitor11forced_foldEv(%class.IPRateMonitor* nocapture %0) local_unnamed_addr #0 align 2 !dbg !3531 {
  call void @llvm.dbg.value(metadata %class.IPRateMonitor* %0, metadata !3533, metadata !DIExpression()), !dbg !3537
  %2 = getelementptr inbounds %class.IPRateMonitor, %class.IPRateMonitor* %0, i64 0, i32 3, !dbg !3538
  %3 = load i32, i32* %2, align 8, !dbg !3538, !tbaa !2896
  %4 = sitofp i32 %3 to float, !dbg !3538
  %5 = fpext float %4 to double, !dbg !3539
  %6 = fdiv double %5, 5.000000e+00, !dbg !3540
  %7 = fptosi double %6 to i32, !dbg !3541
  call void @llvm.dbg.value(metadata i32 %7, metadata !3534, metadata !DIExpression()), !dbg !3537
  call void @llvm.dbg.value(metadata i32 %3, metadata !3535, metadata !DIExpression()), !dbg !3542
  %8 = getelementptr inbounds %class.IPRateMonitor, %class.IPRateMonitor* %0, i64 0, i32 9, !dbg !3543
  %9 = load i64, i64* %8, align 8, !dbg !3543, !tbaa !3289
  %10 = getelementptr inbounds %class.IPRateMonitor, %class.IPRateMonitor* %0, i64 0, i32 4, !dbg !3545
  %11 = load i64, i64* %10, align 8, !dbg !3545, !tbaa !2898
  %12 = icmp ugt i64 %9, %11, !dbg !3546
  br i1 %12, label %14, label %13, !dbg !3547

13:                                               ; preds = %14, %1
  ret void, !dbg !3548

14:                                               ; preds = %1, %14
  %15 = phi i32 [ %16, %14 ], [ %3, %1 ]
  call void @llvm.dbg.value(metadata i32 %15, metadata !3535, metadata !DIExpression()), !dbg !3542
  tail call void @_ZN13IPRateMonitor4foldEi(%class.IPRateMonitor* nonnull %0, i32 %15), !dbg !3549
  %16 = add nsw i32 %15, %7, !dbg !3550
  call void @llvm.dbg.value(metadata i32 %16, metadata !3535, metadata !DIExpression()), !dbg !3542
  %17 = load i64, i64* %8, align 8, !dbg !3543, !tbaa !3289
  %18 = load i64, i64* %10, align 8, !dbg !3545, !tbaa !2898
  %19 = icmp ugt i64 %17, %18, !dbg !3546
  br i1 %19, label %14, label %13, !dbg !3547, !llvm.loop !3551
}

; Function Attrs: sspstrong uwtable
define dso_local void @_ZN13IPRateMonitor4foldEi(%class.IPRateMonitor* nocapture %0, i32 %1) local_unnamed_addr #0 align 2 !dbg !3553 {
  call void @llvm.dbg.value(metadata %class.IPRateMonitor* %0, metadata !3555, metadata !DIExpression()), !dbg !3562
  call void @llvm.dbg.value(metadata i32 %1, metadata !3556, metadata !DIExpression()), !dbg !3562
  %3 = tail call i32 @_Z12click_randomjj(i32 0, i32 1), !dbg !3563
  %4 = trunc i32 %3 to i8, !dbg !3563
  call void @llvm.dbg.value(metadata i8 %4, metadata !3557, metadata !DIExpression()), !dbg !3562
  %5 = getelementptr inbounds %class.IPRateMonitor, %class.IPRateMonitor* %0, i64 0, i32 13, !dbg !3564
  %6 = getelementptr inbounds %class.IPRateMonitor, %class.IPRateMonitor* %0, i64 0, i32 12, !dbg !3565
  %7 = icmp ne i8 %4, 0, !dbg !3566
  %8 = getelementptr inbounds %class.IPRateMonitor, %class.IPRateMonitor* %0, i64 0, i32 10, !dbg !3566
  %9 = getelementptr inbounds %class.IPRateMonitor, %class.IPRateMonitor* %0, i64 0, i32 11, !dbg !3566
  %10 = select i1 %7, %"struct.IPRateMonitor::Stats"** %8, %"struct.IPRateMonitor::Stats"** %9, !dbg !3566
  %11 = bitcast %"struct.IPRateMonitor::Stats"** %6 to i8*, !dbg !3566
  call void @llvm.memset.p0i8.i64(i8* nonnull align 8 dereferenceable(16) %11, i8 0, i64 16, i1 false), !dbg !3567
  %12 = load %"struct.IPRateMonitor::Stats"*, %"struct.IPRateMonitor::Stats"** %10, align 8, !dbg !3566, !tbaa !3393
  call void @llvm.dbg.value(metadata %"struct.IPRateMonitor::Stats"* %12, metadata !3558, metadata !DIExpression()), !dbg !3562
  %13 = getelementptr inbounds %class.IPRateMonitor, %class.IPRateMonitor* %0, i64 0, i32 4, !dbg !3568
  %14 = load i64, i64* %13, align 8, !dbg !3568, !tbaa !2898
  %15 = trunc i64 %14 to i32, !dbg !3568
  call void @llvm.dbg.value(metadata i32 %15, metadata !3559, metadata !DIExpression()), !dbg !3562
  %16 = icmp eq i32 %15, 0, !dbg !3570
  br i1 %16, label %17, label %24, !dbg !3571

17:                                               ; preds = %2
  %18 = getelementptr inbounds %class.IPRateMonitor, %class.IPRateMonitor* %0, i64 0, i32 9, !dbg !3572
  %19 = load i64, i64* %18, align 8, !dbg !3572, !tbaa !3289
  %20 = uitofp i64 %19 to float, !dbg !3572
  %21 = fpext float %20 to double, !dbg !3573
  %22 = fmul double %21, 9.000000e-01, !dbg !3574
  %23 = fptoui double %22 to i32, !dbg !3575
  call void @llvm.dbg.value(metadata i32 %23, metadata !3559, metadata !DIExpression()), !dbg !3562
  br label %24, !dbg !3576

24:                                               ; preds = %2, %17
  %25 = phi i32 [ %15, %2 ], [ %23, %17 ], !dbg !3577
  call void @llvm.dbg.value(metadata i32 %25, metadata !3559, metadata !DIExpression()), !dbg !3562
  %26 = getelementptr inbounds %class.IPRateMonitor, %class.IPRateMonitor* %0, i64 0, i32 9, !dbg !3578
  %27 = zext i32 %25 to i64, !dbg !3578
  %28 = select i1 %7, %"struct.IPRateMonitor::Stats"** %5, %"struct.IPRateMonitor::Stats"** %6, !dbg !3578
  br i1 %7, label %29, label %57, !dbg !3584

29:                                               ; preds = %24, %51
  %30 = phi %"struct.IPRateMonitor::Stats"* [ %52, %51 ], [ %12, %24 ], !dbg !3562
  call void @llvm.dbg.value(metadata %"struct.IPRateMonitor::Stats"* %30, metadata !3558, metadata !DIExpression()), !dbg !3562
  call void @llvm.dbg.label(metadata !3560), !dbg !3585
  %31 = getelementptr inbounds %"struct.IPRateMonitor::Stats", %"struct.IPRateMonitor::Stats"* %30, i64 0, i32 0, !dbg !3586
  %32 = load %"struct.IPRateMonitor::Counter"*, %"struct.IPRateMonitor::Counter"** %31, align 8, !dbg !3586, !tbaa !3588
  %33 = icmp eq %"struct.IPRateMonitor::Counter"* %32, null, !dbg !3589
  br i1 %33, label %53, label %34, !dbg !3590

34:                                               ; preds = %29
  %35 = getelementptr inbounds %"struct.IPRateMonitor::Counter", %"struct.IPRateMonitor::Counter"* %32, i64 0, i32 0, !dbg !3591
  tail call void @_ZN9RateEWMAXIN13IPRateMonitor14EWMAParametersEE6updateEij(%class.RateEWMAX* nonnull %35, i32 0, i32 0), !dbg !3592
  %36 = load %"struct.IPRateMonitor::Counter"*, %"struct.IPRateMonitor::Counter"** %31, align 8, !dbg !3593, !tbaa !3588
  call void @llvm.dbg.value(metadata %"struct.IPRateMonitor::Counter"* %36, metadata !3594, metadata !DIExpression()), !dbg !3599
  call void @llvm.dbg.value(metadata i32 0, metadata !3597, metadata !DIExpression()), !dbg !3599
  call void @llvm.dbg.value(metadata %class.DirectEWMAX* undef, metadata !3601, metadata !DIExpression()), !dbg !3605
  %37 = getelementptr inbounds %"struct.IPRateMonitor::Counter", %"struct.IPRateMonitor::Counter"* %36, i64 0, i32 0, i32 2, i64 0, i32 0, !dbg !3607
  %38 = load i32, i32* %37, align 4, !dbg !3607, !tbaa !3608
  %39 = icmp slt i32 %38, %1, !dbg !3610
  br i1 %39, label %40, label %53, !dbg !3611

40:                                               ; preds = %34
  call void @llvm.dbg.value(metadata %"struct.IPRateMonitor::Counter"* %36, metadata !3594, metadata !DIExpression()), !dbg !3599
  call void @llvm.dbg.value(metadata %"struct.IPRateMonitor::Counter"* %36, metadata !3594, metadata !DIExpression()), !dbg !3612
  call void @llvm.dbg.value(metadata i32 1, metadata !3597, metadata !DIExpression()), !dbg !3612
  call void @llvm.dbg.value(metadata %class.DirectEWMAX* undef, metadata !3601, metadata !DIExpression()), !dbg !3614
  %41 = getelementptr inbounds %"struct.IPRateMonitor::Counter", %"struct.IPRateMonitor::Counter"* %36, i64 0, i32 0, i32 2, i64 1, i32 0, !dbg !3616
  %42 = load i32, i32* %41, align 4, !dbg !3616, !tbaa !3608
  %43 = icmp slt i32 %42, %1, !dbg !3617
  br i1 %43, label %44, label %53, !dbg !3618

44:                                               ; preds = %40
  tail call void @_ZN13IPRateMonitor5StatsD2Ev(%"struct.IPRateMonitor::Stats"* nonnull %30) #17, !dbg !3619
  %45 = bitcast %"struct.IPRateMonitor::Stats"* %30 to i8*, !dbg !3619
  tail call void @_ZdlPv(i8* %45) #18, !dbg !3619
  %46 = load i64, i64* %26, align 8, !dbg !3620, !tbaa !3289
  %47 = icmp ult i64 %46, %27, !dbg !3621
  br i1 %47, label %85, label %48, !dbg !3622

48:                                               ; preds = %44
  %49 = load %"struct.IPRateMonitor::Stats"*, %"struct.IPRateMonitor::Stats"** %28, align 8, !dbg !3623, !tbaa !3393
  call void @llvm.dbg.value(metadata %"struct.IPRateMonitor::Stats"* %49, metadata !3558, metadata !DIExpression()), !dbg !3562
  %50 = icmp eq %"struct.IPRateMonitor::Stats"* %49, null, !dbg !3624
  br i1 %50, label %85, label %51, !dbg !3625

51:                                               ; preds = %48, %53
  %52 = phi %"struct.IPRateMonitor::Stats"* [ %49, %48 ], [ %55, %53 ]
  br label %29, !dbg !3562, !llvm.loop !3626

53:                                               ; preds = %40, %34, %29
  call void @llvm.dbg.value(metadata %"struct.IPRateMonitor::Stats"* %30, metadata !3558, metadata !DIExpression()), !dbg !3562
  call void @llvm.dbg.value(metadata %"struct.IPRateMonitor::Stats"* %30, metadata !3558, metadata !DIExpression()), !dbg !3562
  call void @llvm.dbg.value(metadata %"struct.IPRateMonitor::Stats"* %30, metadata !3558, metadata !DIExpression()), !dbg !3562
  call void @llvm.dbg.value(metadata %"struct.IPRateMonitor::Stats"* %30, metadata !3558, metadata !DIExpression()), !dbg !3562
  call void @llvm.dbg.value(metadata %"struct.IPRateMonitor::Stats"* %30, metadata !3558, metadata !DIExpression()), !dbg !3562
  call void @llvm.dbg.value(metadata %"struct.IPRateMonitor::Stats"* %30, metadata !3558, metadata !DIExpression()), !dbg !3562
  call void @llvm.dbg.value(metadata %"struct.IPRateMonitor::Stats"* %30, metadata !3558, metadata !DIExpression()), !dbg !3562
  call void @llvm.dbg.value(metadata %"struct.IPRateMonitor::Stats"* %30, metadata !3558, metadata !DIExpression()), !dbg !3562
  call void @llvm.dbg.value(metadata %"struct.IPRateMonitor::Stats"* %30, metadata !3558, metadata !DIExpression()), !dbg !3562
  call void @llvm.dbg.value(metadata %"struct.IPRateMonitor::Stats"* %30, metadata !3558, metadata !DIExpression()), !dbg !3562
  call void @llvm.dbg.value(metadata %"struct.IPRateMonitor::Stats"* %30, metadata !3558, metadata !DIExpression()), !dbg !3562
  call void @llvm.dbg.value(metadata %"struct.IPRateMonitor::Stats"* %30, metadata !3558, metadata !DIExpression()), !dbg !3562
  %54 = getelementptr inbounds %"struct.IPRateMonitor::Stats", %"struct.IPRateMonitor::Stats"* %30, i64 0, i32 2, !dbg !3628
  %55 = load %"struct.IPRateMonitor::Stats"*, %"struct.IPRateMonitor::Stats"** %54, align 8, !dbg !3628, !tbaa !3393
  call void @llvm.dbg.value(metadata %"struct.IPRateMonitor::Stats"* %55, metadata !3558, metadata !DIExpression()), !dbg !3562
  %56 = icmp eq %"struct.IPRateMonitor::Stats"* %55, null, !dbg !3629
  br i1 %56, label %85, label %51, !dbg !3630

57:                                               ; preds = %24, %79
  %58 = phi %"struct.IPRateMonitor::Stats"* [ %80, %79 ], [ %12, %24 ], !dbg !3562
  call void @llvm.dbg.value(metadata %"struct.IPRateMonitor::Stats"* %58, metadata !3558, metadata !DIExpression()), !dbg !3562
  call void @llvm.dbg.label(metadata !3560), !dbg !3585
  %59 = getelementptr inbounds %"struct.IPRateMonitor::Stats", %"struct.IPRateMonitor::Stats"* %58, i64 0, i32 0, !dbg !3586
  %60 = load %"struct.IPRateMonitor::Counter"*, %"struct.IPRateMonitor::Counter"** %59, align 8, !dbg !3586, !tbaa !3588
  %61 = icmp eq %"struct.IPRateMonitor::Counter"* %60, null, !dbg !3589
  br i1 %61, label %81, label %62, !dbg !3590

62:                                               ; preds = %57
  %63 = getelementptr inbounds %"struct.IPRateMonitor::Counter", %"struct.IPRateMonitor::Counter"* %60, i64 0, i32 0, !dbg !3591
  tail call void @_ZN9RateEWMAXIN13IPRateMonitor14EWMAParametersEE6updateEij(%class.RateEWMAX* nonnull %63, i32 0, i32 0), !dbg !3592
  %64 = load %"struct.IPRateMonitor::Counter"*, %"struct.IPRateMonitor::Counter"** %59, align 8, !dbg !3593, !tbaa !3588
  call void @llvm.dbg.value(metadata %"struct.IPRateMonitor::Counter"* %64, metadata !3594, metadata !DIExpression()), !dbg !3599
  call void @llvm.dbg.value(metadata i32 0, metadata !3597, metadata !DIExpression()), !dbg !3599
  call void @llvm.dbg.value(metadata %class.DirectEWMAX* undef, metadata !3601, metadata !DIExpression()), !dbg !3605
  %65 = getelementptr inbounds %"struct.IPRateMonitor::Counter", %"struct.IPRateMonitor::Counter"* %64, i64 0, i32 0, i32 2, i64 0, i32 0, !dbg !3607
  %66 = load i32, i32* %65, align 4, !dbg !3607, !tbaa !3608
  %67 = icmp slt i32 %66, %1, !dbg !3610
  br i1 %67, label %68, label %81, !dbg !3611

68:                                               ; preds = %62
  call void @llvm.dbg.value(metadata %"struct.IPRateMonitor::Counter"* %64, metadata !3594, metadata !DIExpression()), !dbg !3599
  call void @llvm.dbg.value(metadata %"struct.IPRateMonitor::Counter"* %64, metadata !3594, metadata !DIExpression()), !dbg !3612
  call void @llvm.dbg.value(metadata i32 1, metadata !3597, metadata !DIExpression()), !dbg !3612
  call void @llvm.dbg.value(metadata %class.DirectEWMAX* undef, metadata !3601, metadata !DIExpression()), !dbg !3614
  %69 = getelementptr inbounds %"struct.IPRateMonitor::Counter", %"struct.IPRateMonitor::Counter"* %64, i64 0, i32 0, i32 2, i64 1, i32 0, !dbg !3616
  %70 = load i32, i32* %69, align 4, !dbg !3616, !tbaa !3608
  %71 = icmp slt i32 %70, %1, !dbg !3617
  br i1 %71, label %72, label %81, !dbg !3618

72:                                               ; preds = %68
  tail call void @_ZN13IPRateMonitor5StatsD2Ev(%"struct.IPRateMonitor::Stats"* nonnull %58) #17, !dbg !3619
  %73 = bitcast %"struct.IPRateMonitor::Stats"* %58 to i8*, !dbg !3619
  tail call void @_ZdlPv(i8* %73) #18, !dbg !3619
  %74 = load i64, i64* %26, align 8, !dbg !3620, !tbaa !3289
  %75 = icmp ult i64 %74, %27, !dbg !3621
  br i1 %75, label %85, label %76, !dbg !3622

76:                                               ; preds = %72
  %77 = load %"struct.IPRateMonitor::Stats"*, %"struct.IPRateMonitor::Stats"** %28, align 8, !dbg !3623, !tbaa !3393
  call void @llvm.dbg.value(metadata %"struct.IPRateMonitor::Stats"* %77, metadata !3558, metadata !DIExpression()), !dbg !3562
  %78 = icmp eq %"struct.IPRateMonitor::Stats"* %77, null, !dbg !3624
  br i1 %78, label %85, label %79, !dbg !3625

79:                                               ; preds = %76, %81
  %80 = phi %"struct.IPRateMonitor::Stats"* [ %77, %76 ], [ %83, %81 ]
  br label %57, !dbg !3562, !llvm.loop !3626

81:                                               ; preds = %57, %62, %68
  call void @llvm.dbg.value(metadata %"struct.IPRateMonitor::Stats"* %58, metadata !3558, metadata !DIExpression()), !dbg !3562
  call void @llvm.dbg.value(metadata %"struct.IPRateMonitor::Stats"* %58, metadata !3558, metadata !DIExpression()), !dbg !3562
  call void @llvm.dbg.value(metadata %"struct.IPRateMonitor::Stats"* %58, metadata !3558, metadata !DIExpression()), !dbg !3562
  call void @llvm.dbg.value(metadata %"struct.IPRateMonitor::Stats"* %58, metadata !3558, metadata !DIExpression()), !dbg !3562
  call void @llvm.dbg.value(metadata %"struct.IPRateMonitor::Stats"* %58, metadata !3558, metadata !DIExpression()), !dbg !3562
  call void @llvm.dbg.value(metadata %"struct.IPRateMonitor::Stats"* %58, metadata !3558, metadata !DIExpression()), !dbg !3562
  call void @llvm.dbg.value(metadata %"struct.IPRateMonitor::Stats"* %58, metadata !3558, metadata !DIExpression()), !dbg !3562
  call void @llvm.dbg.value(metadata %"struct.IPRateMonitor::Stats"* %58, metadata !3558, metadata !DIExpression()), !dbg !3562
  call void @llvm.dbg.value(metadata %"struct.IPRateMonitor::Stats"* %58, metadata !3558, metadata !DIExpression()), !dbg !3562
  call void @llvm.dbg.value(metadata %"struct.IPRateMonitor::Stats"* %58, metadata !3558, metadata !DIExpression()), !dbg !3562
  call void @llvm.dbg.value(metadata %"struct.IPRateMonitor::Stats"* %58, metadata !3558, metadata !DIExpression()), !dbg !3562
  call void @llvm.dbg.value(metadata %"struct.IPRateMonitor::Stats"* %58, metadata !3558, metadata !DIExpression()), !dbg !3562
  %82 = getelementptr inbounds %"struct.IPRateMonitor::Stats", %"struct.IPRateMonitor::Stats"* %58, i64 0, i32 1, !dbg !3628
  %83 = load %"struct.IPRateMonitor::Stats"*, %"struct.IPRateMonitor::Stats"** %82, align 8, !dbg !3628, !tbaa !3393
  call void @llvm.dbg.value(metadata %"struct.IPRateMonitor::Stats"* %83, metadata !3558, metadata !DIExpression()), !dbg !3562
  %84 = icmp eq %"struct.IPRateMonitor::Stats"* %83, null, !dbg !3629
  br i1 %84, label %85, label %79, !dbg !3630

85:                                               ; preds = %81, %76, %72, %53, %48, %44
  ret void, !dbg !3631
}

declare !dbg !1801 i32 @_Z12click_randomjj(i32, i32) local_unnamed_addr #2

; Function Attrs: nounwind readnone speculatable willreturn
declare void @llvm.dbg.label(metadata) #1

; Function Attrs: inlinehint sspstrong uwtable
define linkonce_odr dso_local void @_ZN9RateEWMAXIN13IPRateMonitor14EWMAParametersEE6updateEij(%class.RateEWMAX* %0, i32 %1, i32 %2) local_unnamed_addr #10 comdat align 2 !dbg !3632 {
  call void @llvm.dbg.value(metadata %class.RateEWMAX* %0, metadata !3634, metadata !DIExpression()), !dbg !3637
  call void @llvm.dbg.value(metadata i32 %1, metadata !3635, metadata !DIExpression()), !dbg !3637
  call void @llvm.dbg.value(metadata i32 %2, metadata !3636, metadata !DIExpression()), !dbg !3637
  %4 = tail call i32 @_Z13click_jiffiesv(), !dbg !3638
  %5 = lshr i32 %4, 3, !dbg !3640
  call void @llvm.dbg.value(metadata %class.RateEWMAX* %0, metadata !3641, metadata !DIExpression()), !dbg !3650
  call void @llvm.dbg.value(metadata i32 %5, metadata !3644, metadata !DIExpression()), !dbg !3650
  %6 = getelementptr inbounds %class.RateEWMAX, %class.RateEWMAX* %0, i64 0, i32 0, !dbg !3652
  %7 = load i32, i32* %6, align 4, !dbg !3652, !tbaa !3516
  call void @llvm.dbg.value(metadata i32 %7, metadata !3645, metadata !DIExpression()), !dbg !3650
  %8 = icmp eq i32 %7, %5, !dbg !3653
  br i1 %8, label %138, label %9, !dbg !3654

9:                                                ; preds = %3
  call void @llvm.dbg.value(metadata i32 0, metadata !3646, metadata !DIExpression()), !dbg !3655
  %10 = add i32 %7, 1, !dbg !3656
  %11 = icmp eq i32 %10, %5, !dbg !3656
  %12 = xor i32 %7, -1, !dbg !3656
  %13 = add i32 %5, %12, !dbg !3656
  %14 = icmp eq i32 %13, 0, !dbg !3660
  br i1 %11, label %15, label %34, !dbg !3673

15:                                               ; preds = %9
  call void @llvm.dbg.value(metadata i64 0, metadata !3646, metadata !DIExpression()), !dbg !3655
  %16 = getelementptr inbounds %class.RateEWMAX, %class.RateEWMAX* %0, i64 0, i32 1, i64 0, !dbg !3674
  %17 = load i32, i32* %16, align 4, !dbg !3674, !tbaa !3146
  call void @llvm.dbg.value(metadata %class.DirectEWMAX* undef, metadata !3675, metadata !DIExpression()), !dbg !3681
  call void @llvm.dbg.value(metadata i32 %17, metadata !3678, metadata !DIExpression()), !dbg !3681
  %18 = shl i32 %17, 10, !dbg !3683
  %19 = or i32 %18, 16, !dbg !3684
  call void @llvm.dbg.value(metadata i32 %19, metadata !3679, metadata !DIExpression()), !dbg !3681
  call void @llvm.dbg.value(metadata i32 5, metadata !3680, metadata !DIExpression()), !dbg !3681
  %20 = getelementptr inbounds %class.RateEWMAX, %class.RateEWMAX* %0, i64 0, i32 2, i64 0, i32 0, !dbg !3685
  %21 = load i32, i32* %20, align 4, !dbg !3685, !tbaa !3608
  %22 = sub i32 %19, %21, !dbg !3686
  %23 = ashr i32 %22, 5, !dbg !3687
  %24 = add i32 %23, %21, !dbg !3688
  store i32 %24, i32* %20, align 4, !dbg !3688, !tbaa !3608
  store i32 0, i32* %16, align 4, !dbg !3689, !tbaa !3146
  call void @llvm.dbg.value(metadata i64 1, metadata !3646, metadata !DIExpression()), !dbg !3655
  %25 = getelementptr inbounds %class.RateEWMAX, %class.RateEWMAX* %0, i64 0, i32 1, i64 1, !dbg !3674
  %26 = load i32, i32* %25, align 4, !dbg !3674, !tbaa !3146
  call void @llvm.dbg.value(metadata i32 %26, metadata !3678, metadata !DIExpression()), !dbg !3681
  %27 = shl i32 %26, 10, !dbg !3683
  %28 = or i32 %27, 16, !dbg !3684
  call void @llvm.dbg.value(metadata i32 %28, metadata !3679, metadata !DIExpression()), !dbg !3681
  %29 = getelementptr inbounds %class.RateEWMAX, %class.RateEWMAX* %0, i64 0, i32 2, i64 1, i32 0, !dbg !3685
  %30 = load i32, i32* %29, align 4, !dbg !3685, !tbaa !3608
  %31 = sub i32 %28, %30, !dbg !3686
  %32 = ashr i32 %31, 5, !dbg !3687
  %33 = add i32 %32, %30, !dbg !3688
  store i32 %33, i32* %29, align 4, !dbg !3688, !tbaa !3608
  store i32 0, i32* %25, align 4, !dbg !3689, !tbaa !3146
  call void @llvm.dbg.value(metadata i64 2, metadata !3646, metadata !DIExpression()), !dbg !3655
  br label %68, !dbg !3690

34:                                               ; preds = %9
  %35 = icmp ugt i32 %13, 99, !dbg !3691
  %36 = getelementptr %class.RateEWMAX, %class.RateEWMAX* %0, i64 0, i32 1, i64 0, !dbg !3655
  call void @llvm.dbg.value(metadata i64 0, metadata !3646, metadata !DIExpression()), !dbg !3655
  call void @llvm.dbg.value(metadata i64 0, metadata !3646, metadata !DIExpression()), !dbg !3655
  br i1 %35, label %66, label %37, !dbg !3673

37:                                               ; preds = %34
  %38 = load i32, i32* %36, align 4, !dbg !3674, !tbaa !3146
  call void @llvm.dbg.value(metadata %class.DirectEWMAX* undef, metadata !3675, metadata !DIExpression()), !dbg !3681
  call void @llvm.dbg.value(metadata i32 %38, metadata !3678, metadata !DIExpression()), !dbg !3681
  %39 = shl i32 %38, 10, !dbg !3683
  %40 = or i32 %39, 16, !dbg !3684
  call void @llvm.dbg.value(metadata i32 %40, metadata !3679, metadata !DIExpression()), !dbg !3681
  call void @llvm.dbg.value(metadata i32 5, metadata !3680, metadata !DIExpression()), !dbg !3681
  %41 = getelementptr inbounds %class.RateEWMAX, %class.RateEWMAX* %0, i64 0, i32 2, i64 0, i32 0, !dbg !3685
  %42 = load i32, i32* %41, align 4, !dbg !3685, !tbaa !3608
  %43 = sub i32 %40, %42, !dbg !3686
  %44 = ashr i32 %43, 5, !dbg !3687
  %45 = add i32 %44, %42, !dbg !3688
  store i32 %45, i32* %41, align 4, !dbg !3688, !tbaa !3608
  call void @llvm.dbg.value(metadata %class.DirectEWMAX* undef, metadata !3667, metadata !DIExpression()), !dbg !3692
  call void @llvm.dbg.value(metadata i32 0, metadata !3668, metadata !DIExpression()), !dbg !3692
  call void @llvm.dbg.value(metadata i32 16, metadata !3670, metadata !DIExpression()), !dbg !3692
  call void @llvm.dbg.value(metadata i32 5, metadata !3671, metadata !DIExpression()), !dbg !3693
  call void @llvm.dbg.value(metadata i32 %13, metadata !3669, metadata !DIExpression()), !dbg !3692
  br i1 %14, label %88, label %46, !dbg !3694

46:                                               ; preds = %37
  %47 = add nsw i32 %5, -2, !dbg !3694
  %48 = sub i32 %47, %7, !dbg !3694
  %49 = and i32 %13, 3, !dbg !3694
  %50 = icmp eq i32 %49, 0, !dbg !3694
  br i1 %50, label %61, label %51, !dbg !3694

51:                                               ; preds = %46, %51
  %52 = phi i32 [ %57, %51 ], [ %45, %46 ], !dbg !3692
  %53 = phi i32 [ %58, %51 ], [ %13, %46 ]
  %54 = phi i32 [ %59, %51 ], [ %49, %46 ]
  call void @llvm.dbg.value(metadata i32 %53, metadata !3669, metadata !DIExpression()), !dbg !3692
  %55 = sub i32 16, %52, !dbg !3695
  %56 = ashr i32 %55, 5, !dbg !3696
  %57 = add i32 %56, %52, !dbg !3697
  %58 = add i32 %53, -1, !dbg !3698
  call void @llvm.dbg.value(metadata i32 %58, metadata !3669, metadata !DIExpression()), !dbg !3692
  %59 = add i32 %54, -1, !dbg !3694
  %60 = icmp eq i32 %59, 0, !dbg !3694
  br i1 %60, label %61, label %51, !dbg !3694, !llvm.loop !3699

61:                                               ; preds = %51, %46
  %62 = phi i32 [ undef, %46 ], [ %57, %51 ]
  %63 = phi i32 [ %45, %46 ], [ %57, %51 ]
  %64 = phi i32 [ %13, %46 ], [ %58, %51 ]
  %65 = icmp ult i32 %48, 3, !dbg !3694
  br i1 %65, label %86, label %69, !dbg !3694

66:                                               ; preds = %34
  call void @llvm.dbg.value(metadata %class.DirectEWMAX* undef, metadata !3675, metadata !DIExpression()), !dbg !3681
  call void @llvm.dbg.value(metadata i32 undef, metadata !3678, metadata !DIExpression()), !dbg !3681
  call void @llvm.dbg.value(metadata i32 undef, metadata !3679, metadata !DIExpression(DW_OP_constu, 10, DW_OP_shl, DW_OP_constu, 16, DW_OP_or, DW_OP_stack_value)), !dbg !3681
  call void @llvm.dbg.value(metadata i32 5, metadata !3680, metadata !DIExpression()), !dbg !3681
  call void @llvm.dbg.value(metadata %class.DirectEWMAX* undef, metadata !3667, metadata !DIExpression()), !dbg !3692
  call void @llvm.dbg.value(metadata i32 0, metadata !3668, metadata !DIExpression()), !dbg !3692
  call void @llvm.dbg.value(metadata i32 %13, metadata !3669, metadata !DIExpression()), !dbg !3692
  call void @llvm.dbg.value(metadata i32 0, metadata !3670, metadata !DIExpression()), !dbg !3692
  call void @llvm.dbg.value(metadata i64 1, metadata !3646, metadata !DIExpression()), !dbg !3655
  call void @llvm.dbg.value(metadata i64 2, metadata !3646, metadata !DIExpression()), !dbg !3655
  %67 = bitcast i32* %36 to i8*, !dbg !3690
  tail call void @llvm.memset.p0i8.i64(i8* nonnull align 4 dereferenceable(16) %67, i8 0, i64 16, i1 false), !dbg !3701
  br label %68, !dbg !3690

68:                                               ; preds = %137, %66, %15
  store i32 %5, i32* %6, align 4, !dbg !3690, !tbaa !3516
  br label %138, !dbg !3702

69:                                               ; preds = %61, %69
  %70 = phi i32 [ %83, %69 ], [ %63, %61 ], !dbg !3692
  %71 = phi i32 [ %84, %69 ], [ %64, %61 ]
  call void @llvm.dbg.value(metadata i32 %71, metadata !3669, metadata !DIExpression()), !dbg !3692
  %72 = sub i32 16, %70, !dbg !3695
  %73 = ashr i32 %72, 5, !dbg !3696
  %74 = add i32 %73, %70, !dbg !3697
  call void @llvm.dbg.value(metadata i32 %71, metadata !3669, metadata !DIExpression(DW_OP_constu, 1, DW_OP_minus, DW_OP_stack_value)), !dbg !3692
  %75 = sub i32 16, %74, !dbg !3695
  %76 = ashr i32 %75, 5, !dbg !3696
  %77 = add i32 %76, %74, !dbg !3697
  call void @llvm.dbg.value(metadata i32 %71, metadata !3669, metadata !DIExpression(DW_OP_constu, 2, DW_OP_minus, DW_OP_stack_value)), !dbg !3692
  %78 = sub i32 16, %77, !dbg !3695
  %79 = ashr i32 %78, 5, !dbg !3696
  %80 = add i32 %79, %77, !dbg !3697
  call void @llvm.dbg.value(metadata i32 %71, metadata !3669, metadata !DIExpression(DW_OP_constu, 3, DW_OP_minus, DW_OP_stack_value)), !dbg !3692
  %81 = sub i32 16, %80, !dbg !3695
  %82 = ashr i32 %81, 5, !dbg !3696
  %83 = add i32 %82, %80, !dbg !3697
  %84 = add i32 %71, -4, !dbg !3698
  call void @llvm.dbg.value(metadata i32 %84, metadata !3669, metadata !DIExpression()), !dbg !3692
  %85 = icmp eq i32 %84, 0, !dbg !3703
  br i1 %85, label %86, label %69, !dbg !3694, !llvm.loop !3704

86:                                               ; preds = %69, %61
  %87 = phi i32 [ %62, %61 ], [ %83, %69 ], !dbg !3697
  store i32 %87, i32* %41, align 4, !dbg !3697, !tbaa !3608
  br label %88, !dbg !3694

88:                                               ; preds = %86, %37
  store i32 0, i32* %36, align 4, !dbg !3689, !tbaa !3146
  call void @llvm.dbg.value(metadata i64 1, metadata !3646, metadata !DIExpression()), !dbg !3655
  %89 = getelementptr inbounds %class.RateEWMAX, %class.RateEWMAX* %0, i64 0, i32 1, i64 1, !dbg !3674
  %90 = load i32, i32* %89, align 4, !dbg !3674, !tbaa !3146
  call void @llvm.dbg.value(metadata %class.DirectEWMAX* undef, metadata !3675, metadata !DIExpression()), !dbg !3681
  call void @llvm.dbg.value(metadata i32 %90, metadata !3678, metadata !DIExpression()), !dbg !3681
  %91 = shl i32 %90, 10, !dbg !3683
  %92 = or i32 %91, 16, !dbg !3684
  call void @llvm.dbg.value(metadata i32 %92, metadata !3679, metadata !DIExpression()), !dbg !3681
  call void @llvm.dbg.value(metadata i32 5, metadata !3680, metadata !DIExpression()), !dbg !3681
  %93 = getelementptr inbounds %class.RateEWMAX, %class.RateEWMAX* %0, i64 0, i32 2, i64 1, i32 0, !dbg !3685
  %94 = load i32, i32* %93, align 4, !dbg !3685, !tbaa !3608
  %95 = sub i32 %92, %94, !dbg !3686
  %96 = ashr i32 %95, 5, !dbg !3687
  %97 = add i32 %96, %94, !dbg !3688
  store i32 %97, i32* %93, align 4, !dbg !3688, !tbaa !3608
  call void @llvm.dbg.value(metadata %class.DirectEWMAX* undef, metadata !3667, metadata !DIExpression()), !dbg !3692
  call void @llvm.dbg.value(metadata i32 0, metadata !3668, metadata !DIExpression()), !dbg !3692
  call void @llvm.dbg.value(metadata i32 16, metadata !3670, metadata !DIExpression()), !dbg !3692
  call void @llvm.dbg.value(metadata i32 5, metadata !3671, metadata !DIExpression()), !dbg !3693
  call void @llvm.dbg.value(metadata i32 %13, metadata !3669, metadata !DIExpression()), !dbg !3692
  br i1 %14, label %137, label %98, !dbg !3694

98:                                               ; preds = %88
  %99 = add nsw i32 %5, -2, !dbg !3694
  %100 = sub i32 %99, %7, !dbg !3694
  %101 = and i32 %13, 3, !dbg !3694
  %102 = icmp eq i32 %101, 0, !dbg !3694
  br i1 %102, label %113, label %103, !dbg !3694

103:                                              ; preds = %98, %103
  %104 = phi i32 [ %109, %103 ], [ %97, %98 ], !dbg !3692
  %105 = phi i32 [ %110, %103 ], [ %13, %98 ]
  %106 = phi i32 [ %111, %103 ], [ %101, %98 ]
  call void @llvm.dbg.value(metadata i32 %105, metadata !3669, metadata !DIExpression()), !dbg !3692
  %107 = sub i32 16, %104, !dbg !3695
  %108 = ashr i32 %107, 5, !dbg !3696
  %109 = add i32 %108, %104, !dbg !3697
  %110 = add i32 %105, -1, !dbg !3698
  call void @llvm.dbg.value(metadata i32 %110, metadata !3669, metadata !DIExpression()), !dbg !3692
  %111 = add i32 %106, -1, !dbg !3694
  %112 = icmp eq i32 %111, 0, !dbg !3694
  br i1 %112, label %113, label %103, !dbg !3694, !llvm.loop !3706

113:                                              ; preds = %103, %98
  %114 = phi i32 [ undef, %98 ], [ %109, %103 ]
  %115 = phi i32 [ %97, %98 ], [ %109, %103 ]
  %116 = phi i32 [ %13, %98 ], [ %110, %103 ]
  %117 = icmp ult i32 %100, 3, !dbg !3694
  br i1 %117, label %135, label %118, !dbg !3694

118:                                              ; preds = %113, %118
  %119 = phi i32 [ %132, %118 ], [ %115, %113 ], !dbg !3692
  %120 = phi i32 [ %133, %118 ], [ %116, %113 ]
  call void @llvm.dbg.value(metadata i32 %120, metadata !3669, metadata !DIExpression()), !dbg !3692
  %121 = sub i32 16, %119, !dbg !3695
  %122 = ashr i32 %121, 5, !dbg !3696
  %123 = add i32 %122, %119, !dbg !3697
  call void @llvm.dbg.value(metadata i32 %120, metadata !3669, metadata !DIExpression(DW_OP_constu, 1, DW_OP_minus, DW_OP_stack_value)), !dbg !3692
  %124 = sub i32 16, %123, !dbg !3695
  %125 = ashr i32 %124, 5, !dbg !3696
  %126 = add i32 %125, %123, !dbg !3697
  call void @llvm.dbg.value(metadata i32 %120, metadata !3669, metadata !DIExpression(DW_OP_constu, 2, DW_OP_minus, DW_OP_stack_value)), !dbg !3692
  %127 = sub i32 16, %126, !dbg !3695
  %128 = ashr i32 %127, 5, !dbg !3696
  %129 = add i32 %128, %126, !dbg !3697
  call void @llvm.dbg.value(metadata i32 %120, metadata !3669, metadata !DIExpression(DW_OP_constu, 3, DW_OP_minus, DW_OP_stack_value)), !dbg !3692
  %130 = sub i32 16, %129, !dbg !3695
  %131 = ashr i32 %130, 5, !dbg !3696
  %132 = add i32 %131, %129, !dbg !3697
  %133 = add i32 %120, -4, !dbg !3698
  call void @llvm.dbg.value(metadata i32 %133, metadata !3669, metadata !DIExpression()), !dbg !3692
  %134 = icmp eq i32 %133, 0, !dbg !3703
  br i1 %134, label %135, label %118, !dbg !3694, !llvm.loop !3707

135:                                              ; preds = %118, %113
  %136 = phi i32 [ %114, %113 ], [ %132, %118 ], !dbg !3697
  store i32 %136, i32* %93, align 4, !dbg !3697, !tbaa !3608
  br label %137, !dbg !3694

137:                                              ; preds = %135, %88
  store i32 0, i32* %89, align 4, !dbg !3689, !tbaa !3146
  call void @llvm.dbg.value(metadata i64 2, metadata !3646, metadata !DIExpression()), !dbg !3655
  br label %68, !dbg !3690

138:                                              ; preds = %3, %68
  %139 = zext i32 %2 to i64, !dbg !3708
  %140 = getelementptr inbounds %class.RateEWMAX, %class.RateEWMAX* %0, i64 0, i32 1, i64 %139, !dbg !3708
  %141 = load i32, i32* %140, align 4, !dbg !3709, !tbaa !3146
  %142 = add i32 %141, %1, !dbg !3709
  store i32 %142, i32* %140, align 4, !dbg !3709, !tbaa !3146
  ret void, !dbg !3710
}

; Function Attrs: sspstrong uwtable
define dso_local void @_ZN13IPRateMonitor12show_agelistEv(%class.IPRateMonitor* nocapture readonly %0) local_unnamed_addr #0 align 2 !dbg !3711 {
  call void @llvm.dbg.value(metadata %class.IPRateMonitor* %0, metadata !3713, metadata !DIExpression()), !dbg !3716
  tail call void (i8*, ...) @click_chatter(i8* getelementptr inbounds ([18 x i8], [18 x i8]* @.str.11, i64 0, i64 0)), !dbg !3717
  %2 = getelementptr inbounds %class.IPRateMonitor, %class.IPRateMonitor* %0, i64 0, i32 7, !dbg !3718
  %3 = load %"struct.IPRateMonitor::Stats"*, %"struct.IPRateMonitor::Stats"** %2, align 8, !dbg !3718, !tbaa !3293
  %4 = getelementptr inbounds %class.IPRateMonitor, %class.IPRateMonitor* %0, i64 0, i32 10, !dbg !3719
  %5 = load %"struct.IPRateMonitor::Stats"*, %"struct.IPRateMonitor::Stats"** %4, align 8, !dbg !3719, !tbaa !3299
  %6 = getelementptr inbounds %class.IPRateMonitor, %class.IPRateMonitor* %0, i64 0, i32 11, !dbg !3720
  %7 = load %"struct.IPRateMonitor::Stats"*, %"struct.IPRateMonitor::Stats"** %6, align 8, !dbg !3720, !tbaa !3296
  tail call void (i8*, ...) @click_chatter(i8* getelementptr inbounds ([36 x i8], [36 x i8]* @.str.12, i64 0, i64 0), %"struct.IPRateMonitor::Stats"* %3, %"struct.IPRateMonitor::Stats"* %5, %"struct.IPRateMonitor::Stats"* %7), !dbg !3721
  call void @llvm.dbg.value(metadata %"struct.IPRateMonitor::Stats"* undef, metadata !3714, metadata !DIExpression()), !dbg !3722
  %8 = load %"struct.IPRateMonitor::Stats"*, %"struct.IPRateMonitor::Stats"** %4, align 8, !dbg !3722, !tbaa !3393
  call void @llvm.dbg.value(metadata %"struct.IPRateMonitor::Stats"* %8, metadata !3714, metadata !DIExpression()), !dbg !3722
  %9 = icmp eq %"struct.IPRateMonitor::Stats"* %8, null, !dbg !3723
  br i1 %9, label %10, label %11, !dbg !3725

10:                                               ; preds = %11, %1
  ret void, !dbg !3726

11:                                               ; preds = %1, %11
  %12 = phi %"struct.IPRateMonitor::Stats"* [ %17, %11 ], [ %8, %1 ]
  %13 = getelementptr inbounds %"struct.IPRateMonitor::Stats", %"struct.IPRateMonitor::Stats"* %12, i64 0, i32 1, !dbg !3727
  %14 = load %"struct.IPRateMonitor::Stats"*, %"struct.IPRateMonitor::Stats"** %13, align 8, !dbg !3727, !tbaa !3728
  %15 = getelementptr inbounds %"struct.IPRateMonitor::Stats", %"struct.IPRateMonitor::Stats"* %12, i64 0, i32 2, !dbg !3729
  %16 = load %"struct.IPRateMonitor::Stats"*, %"struct.IPRateMonitor::Stats"** %15, align 8, !dbg !3729, !tbaa !3730
  tail call void (i8*, ...) @click_chatter(i8* getelementptr inbounds ([37 x i8], [37 x i8]* @.str.13, i64 0, i64 0), %"struct.IPRateMonitor::Stats"* nonnull %12, %"struct.IPRateMonitor::Stats"* %14, %"struct.IPRateMonitor::Stats"* %16), !dbg !3731
  call void @llvm.dbg.value(metadata %"struct.IPRateMonitor::Stats"* undef, metadata !3714, metadata !DIExpression()), !dbg !3722
  %17 = load %"struct.IPRateMonitor::Stats"*, %"struct.IPRateMonitor::Stats"** %15, align 8, !dbg !3722, !tbaa !3393
  call void @llvm.dbg.value(metadata %"struct.IPRateMonitor::Stats"* %17, metadata !3714, metadata !DIExpression()), !dbg !3722
  %18 = icmp eq %"struct.IPRateMonitor::Stats"* %17, null, !dbg !3723
  br i1 %18, label %10, label %11, !dbg !3725, !llvm.loop !3732
}

declare !dbg !1804 void @click_chatter(i8*, ...) local_unnamed_addr #2

; Function Attrs: nofree norecurse nounwind sspstrong uwtable
define dso_local void @_ZN13IPRateMonitor5StatsC2EPS_(%"struct.IPRateMonitor::Stats"* nocapture %0, %class.IPRateMonitor* %1) unnamed_addr #11 align 2 !dbg !3269 {
  call void @llvm.dbg.value(metadata %"struct.IPRateMonitor::Stats"* %0, metadata !3268, metadata !DIExpression()), !dbg !3734
  call void @llvm.dbg.value(metadata %class.IPRateMonitor* %1, metadata !3271, metadata !DIExpression()), !dbg !3734
  %3 = getelementptr inbounds %"struct.IPRateMonitor::Stats", %"struct.IPRateMonitor::Stats"* %0, i64 0, i32 4, !dbg !3735
  store %class.IPRateMonitor* %1, %class.IPRateMonitor** %3, align 8, !dbg !3736, !tbaa !3279
  call void @llvm.dbg.value(metadata %class.IPRateMonitor* %1, metadata !3281, metadata !DIExpression()), !dbg !3737
  call void @llvm.dbg.value(metadata i64 2080, metadata !3284, metadata !DIExpression()), !dbg !3737
  %4 = getelementptr inbounds %class.IPRateMonitor, %class.IPRateMonitor* %1, i64 0, i32 9, !dbg !3739
  %5 = load i64, i64* %4, align 8, !dbg !3740, !tbaa !3289
  %6 = add i64 %5, 2080, !dbg !3740
  store i64 %6, i64* %4, align 8, !dbg !3740, !tbaa !3289
  %7 = bitcast %"struct.IPRateMonitor::Stats"* %0 to i8*, !dbg !3741
  call void @llvm.memset.p0i8.i64(i8* nonnull align 8 dereferenceable(2072) %7, i8 0, i64 2072, i1 false), !dbg !3742
  ret void, !dbg !3741
}

; Function Attrs: nounwind sspstrong uwtable
define dso_local void @_ZN13IPRateMonitor5StatsD2Ev(%"struct.IPRateMonitor::Stats"* nocapture %0) unnamed_addr #4 align 2 personality i8* bitcast (i32 (...)* @__gxx_personality_v0 to i8*) !dbg !3743 {
  call void @llvm.dbg.value(metadata %"struct.IPRateMonitor::Stats"* %0, metadata !3745, metadata !DIExpression()), !dbg !3749
  call void @llvm.dbg.value(metadata i32 0, metadata !3746, metadata !DIExpression()), !dbg !3750
  %2 = getelementptr inbounds %"struct.IPRateMonitor::Stats", %"struct.IPRateMonitor::Stats"* %0, i64 0, i32 4, !dbg !3751
  br label %7, !dbg !3756

3:                                                ; preds = %28
  %4 = getelementptr inbounds %"struct.IPRateMonitor::Stats", %"struct.IPRateMonitor::Stats"* %0, i64 0, i32 1, !dbg !3757
  %5 = load %"struct.IPRateMonitor::Stats"*, %"struct.IPRateMonitor::Stats"** %4, align 8, !dbg !3757, !tbaa !3728
  %6 = icmp eq %"struct.IPRateMonitor::Stats"* %5, null, !dbg !3759
  br i1 %6, label %40, label %31, !dbg !3760

7:                                                ; preds = %28, %1
  %8 = phi i64 [ 0, %1 ], [ %29, %28 ]
  call void @llvm.dbg.value(metadata i64 %8, metadata !3746, metadata !DIExpression()), !dbg !3750
  %9 = getelementptr inbounds %"struct.IPRateMonitor::Stats", %"struct.IPRateMonitor::Stats"* %0, i64 0, i32 3, i64 %8, !dbg !3761
  %10 = load %"struct.IPRateMonitor::Counter"*, %"struct.IPRateMonitor::Counter"** %9, align 8, !dbg !3761, !tbaa !3393
  %11 = icmp eq %"struct.IPRateMonitor::Counter"* %10, null, !dbg !3761
  br i1 %11, label %28, label %12, !dbg !3762

12:                                               ; preds = %7
  %13 = getelementptr inbounds %"struct.IPRateMonitor::Counter", %"struct.IPRateMonitor::Counter"* %10, i64 0, i32 2, !dbg !3763
  %14 = load %"struct.IPRateMonitor::Stats"*, %"struct.IPRateMonitor::Stats"** %13, align 8, !dbg !3763, !tbaa !3525
  %15 = icmp eq %"struct.IPRateMonitor::Stats"* %14, null, !dbg !3764
  br i1 %15, label %20, label %16, !dbg !3764

16:                                               ; preds = %12
  tail call void @_ZN13IPRateMonitor5StatsD2Ev(%"struct.IPRateMonitor::Stats"* nonnull %14) #17, !dbg !3764
  %17 = bitcast %"struct.IPRateMonitor::Stats"* %14 to i8*, !dbg !3764
  tail call void @_ZdlPv(i8* %17) #18, !dbg !3764
  %18 = load %"struct.IPRateMonitor::Counter"*, %"struct.IPRateMonitor::Counter"** %9, align 8, !dbg !3765, !tbaa !3393
  %19 = icmp eq %"struct.IPRateMonitor::Counter"* %18, null, !dbg !3766
  br i1 %19, label %23, label %20, !dbg !3766

20:                                               ; preds = %12, %16
  %21 = phi %"struct.IPRateMonitor::Counter"* [ %18, %16 ], [ %10, %12 ]
  %22 = bitcast %"struct.IPRateMonitor::Counter"* %21 to i8*, !dbg !3766
  tail call void @_ZdlPv(i8* %22) #18, !dbg !3766
  br label %23, !dbg !3766

23:                                               ; preds = %20, %16
  %24 = load %class.IPRateMonitor*, %class.IPRateMonitor** %2, align 8, !dbg !3767, !tbaa !3279
  call void @llvm.dbg.value(metadata %class.IPRateMonitor* %24, metadata !3281, metadata !DIExpression()), !dbg !3768
  call void @llvm.dbg.value(metadata i64 -40, metadata !3284, metadata !DIExpression()), !dbg !3768
  %25 = getelementptr inbounds %class.IPRateMonitor, %class.IPRateMonitor* %24, i64 0, i32 9, !dbg !3770
  %26 = load i64, i64* %25, align 8, !dbg !3771, !tbaa !3289
  %27 = add i64 %26, -40, !dbg !3771
  store i64 %27, i64* %25, align 8, !dbg !3771, !tbaa !3289
  store %"struct.IPRateMonitor::Counter"* null, %"struct.IPRateMonitor::Counter"** %9, align 8, !dbg !3772, !tbaa !3393
  br label %28, !dbg !3773

28:                                               ; preds = %7, %23
  %29 = add nuw nsw i64 %8, 1, !dbg !3774
  call void @llvm.dbg.value(metadata i64 %29, metadata !3746, metadata !DIExpression()), !dbg !3750
  %30 = icmp eq i64 %29, 256, !dbg !3775
  br i1 %30, label %3, label %7, !dbg !3756, !llvm.loop !3776

31:                                               ; preds = %3
  %32 = getelementptr inbounds %"struct.IPRateMonitor::Stats", %"struct.IPRateMonitor::Stats"* %0, i64 0, i32 2, !dbg !3778
  %33 = bitcast %"struct.IPRateMonitor::Stats"** %32 to i64*, !dbg !3778
  %34 = load i64, i64* %33, align 8, !dbg !3778, !tbaa !3730
  %35 = getelementptr inbounds %"struct.IPRateMonitor::Stats", %"struct.IPRateMonitor::Stats"* %5, i64 0, i32 2, !dbg !3780
  %36 = bitcast %"struct.IPRateMonitor::Stats"** %35 to i64*, !dbg !3781
  store i64 %34, i64* %36, align 8, !dbg !3781, !tbaa !3730
  %37 = load %class.IPRateMonitor*, %class.IPRateMonitor** %2, align 8, !dbg !3782, !tbaa !3279
  call void @llvm.dbg.value(metadata %class.IPRateMonitor* %37, metadata !3783, metadata !DIExpression()), !dbg !3787
  call void @llvm.dbg.value(metadata %"struct.IPRateMonitor::Stats"* %5, metadata !3786, metadata !DIExpression()), !dbg !3787
  %38 = getelementptr inbounds %class.IPRateMonitor, %class.IPRateMonitor* %37, i64 0, i32 12, !dbg !3789
  store %"struct.IPRateMonitor::Stats"* %5, %"struct.IPRateMonitor::Stats"** %38, align 8, !dbg !3790, !tbaa !3791
  %39 = load %"struct.IPRateMonitor::Stats"*, %"struct.IPRateMonitor::Stats"** %32, align 8, !dbg !3792, !tbaa !3730
  br label %50, !dbg !3794

40:                                               ; preds = %3
  %41 = load %class.IPRateMonitor*, %class.IPRateMonitor** %2, align 8, !dbg !3795, !tbaa !3279
  %42 = getelementptr inbounds %"struct.IPRateMonitor::Stats", %"struct.IPRateMonitor::Stats"* %0, i64 0, i32 2, !dbg !3797
  %43 = load %"struct.IPRateMonitor::Stats"*, %"struct.IPRateMonitor::Stats"** %42, align 8, !dbg !3797, !tbaa !3730
  call void @llvm.dbg.value(metadata %class.IPRateMonitor* %41, metadata !3798, metadata !DIExpression()), !dbg !3802
  call void @llvm.dbg.value(metadata %"struct.IPRateMonitor::Stats"* %43, metadata !3801, metadata !DIExpression()), !dbg !3802
  %44 = getelementptr inbounds %class.IPRateMonitor, %class.IPRateMonitor* %41, i64 0, i32 10, !dbg !3804
  store %"struct.IPRateMonitor::Stats"* %43, %"struct.IPRateMonitor::Stats"** %44, align 8, !dbg !3805, !tbaa !3299
  %45 = icmp eq %"struct.IPRateMonitor::Stats"* %43, null, !dbg !3806
  br i1 %45, label %48, label %46, !dbg !3808

46:                                               ; preds = %40
  %47 = getelementptr inbounds %"struct.IPRateMonitor::Stats", %"struct.IPRateMonitor::Stats"* %43, i64 0, i32 1, !dbg !3809
  store %"struct.IPRateMonitor::Stats"* null, %"struct.IPRateMonitor::Stats"** %47, align 8, !dbg !3810, !tbaa !3728
  br label %48, !dbg !3811

48:                                               ; preds = %40, %46
  call void @llvm.dbg.value(metadata %class.IPRateMonitor* %41, metadata !3783, metadata !DIExpression()), !dbg !3812
  call void @llvm.dbg.value(metadata %"struct.IPRateMonitor::Stats"* null, metadata !3786, metadata !DIExpression()), !dbg !3812
  %49 = getelementptr inbounds %class.IPRateMonitor, %class.IPRateMonitor* %41, i64 0, i32 12, !dbg !3814
  store %"struct.IPRateMonitor::Stats"* null, %"struct.IPRateMonitor::Stats"** %49, align 8, !dbg !3815, !tbaa !3791
  br label %50

50:                                               ; preds = %48, %31
  %51 = phi %class.IPRateMonitor* [ %41, %48 ], [ %37, %31 ]
  %52 = phi %"struct.IPRateMonitor::Stats"* [ %43, %48 ], [ %39, %31 ], !dbg !3792
  %53 = icmp eq %"struct.IPRateMonitor::Stats"* %52, null, !dbg !3816
  br i1 %53, label %59, label %54, !dbg !3817

54:                                               ; preds = %50
  %55 = bitcast %"struct.IPRateMonitor::Stats"** %4 to i64*, !dbg !3818
  %56 = load i64, i64* %55, align 8, !dbg !3818, !tbaa !3728
  %57 = getelementptr inbounds %"struct.IPRateMonitor::Stats", %"struct.IPRateMonitor::Stats"* %52, i64 0, i32 1, !dbg !3820
  %58 = bitcast %"struct.IPRateMonitor::Stats"** %57 to i64*, !dbg !3821
  store i64 %56, i64* %58, align 8, !dbg !3821, !tbaa !3728
  call void @llvm.dbg.value(metadata %class.IPRateMonitor* %51, metadata !3822, metadata !DIExpression()), !dbg !3826
  call void @llvm.dbg.value(metadata %"struct.IPRateMonitor::Stats"* %52, metadata !3825, metadata !DIExpression()), !dbg !3826
  br label %65, !dbg !3828

59:                                               ; preds = %50
  %60 = load %"struct.IPRateMonitor::Stats"*, %"struct.IPRateMonitor::Stats"** %4, align 8, !dbg !3829, !tbaa !3728
  call void @llvm.dbg.value(metadata %class.IPRateMonitor* %51, metadata !3831, metadata !DIExpression()), !dbg !3835
  call void @llvm.dbg.value(metadata %"struct.IPRateMonitor::Stats"* %60, metadata !3834, metadata !DIExpression()), !dbg !3835
  %61 = getelementptr inbounds %class.IPRateMonitor, %class.IPRateMonitor* %51, i64 0, i32 11, !dbg !3837
  store %"struct.IPRateMonitor::Stats"* %60, %"struct.IPRateMonitor::Stats"** %61, align 8, !dbg !3838, !tbaa !3296
  %62 = icmp eq %"struct.IPRateMonitor::Stats"* %60, null, !dbg !3839
  br i1 %62, label %65, label %63, !dbg !3841

63:                                               ; preds = %59
  %64 = getelementptr inbounds %"struct.IPRateMonitor::Stats", %"struct.IPRateMonitor::Stats"* %60, i64 0, i32 2, !dbg !3842
  store %"struct.IPRateMonitor::Stats"* null, %"struct.IPRateMonitor::Stats"** %64, align 8, !dbg !3843, !tbaa !3730
  br label %65, !dbg !3844

65:                                               ; preds = %63, %59, %54
  %66 = phi %"struct.IPRateMonitor::Stats"* [ %52, %54 ], [ null, %59 ], [ null, %63 ]
  %67 = getelementptr inbounds %class.IPRateMonitor, %class.IPRateMonitor* %51, i64 0, i32 13, !dbg !3845
  store %"struct.IPRateMonitor::Stats"* %66, %"struct.IPRateMonitor::Stats"** %67, align 8, !dbg !3845, !tbaa !3846
  %68 = getelementptr inbounds %"struct.IPRateMonitor::Stats", %"struct.IPRateMonitor::Stats"* %0, i64 0, i32 0, !dbg !3847
  %69 = load %"struct.IPRateMonitor::Counter"*, %"struct.IPRateMonitor::Counter"** %68, align 8, !dbg !3847, !tbaa !3588
  %70 = icmp eq %"struct.IPRateMonitor::Counter"* %69, null, !dbg !3849
  br i1 %70, label %73, label %71, !dbg !3850

71:                                               ; preds = %65
  %72 = getelementptr inbounds %"struct.IPRateMonitor::Counter", %"struct.IPRateMonitor::Counter"* %69, i64 0, i32 2, !dbg !3851
  store %"struct.IPRateMonitor::Stats"* null, %"struct.IPRateMonitor::Stats"** %72, align 8, !dbg !3852, !tbaa !3525
  br label %73, !dbg !3853

73:                                               ; preds = %65, %71
  call void @llvm.dbg.value(metadata %class.IPRateMonitor* %51, metadata !3281, metadata !DIExpression()), !dbg !3854
  call void @llvm.dbg.value(metadata i64 -2080, metadata !3284, metadata !DIExpression()), !dbg !3854
  %74 = getelementptr inbounds %class.IPRateMonitor, %class.IPRateMonitor* %51, i64 0, i32 9, !dbg !3856
  %75 = load i64, i64* %74, align 8, !dbg !3857, !tbaa !3289
  %76 = add i64 %75, -2080, !dbg !3857
  store i64 %76, i64* %74, align 8, !dbg !3857, !tbaa !3289
  ret void, !dbg !3858
}

; Function Attrs: noinline noreturn nounwind
define linkonce_odr hidden void @__clang_call_terminate(i8* %0) local_unnamed_addr #12 comdat {
  %2 = tail call i8* @__cxa_begin_catch(i8* %0) #17
  tail call void @_ZSt9terminatev() #19
  unreachable
}

declare i8* @__cxa_begin_catch(i8*) local_unnamed_addr

declare void @_ZSt9terminatev() local_unnamed_addr

; Function Attrs: sspstrong uwtable
define dso_local void @_ZN13IPRateMonitor5printEPNS_5StatsE6String(%class.String* noalias sret %0, %class.IPRateMonitor* nocapture readnone %1, %"struct.IPRateMonitor::Stats"* nocapture readonly %2, %class.String* nocapture readonly %3) local_unnamed_addr #0 align 2 personality i8* bitcast (i32 (...)* @__gxx_personality_v0 to i8*) !dbg !3859 {
  %5 = alloca %class.String, align 8
  %6 = alloca %class.String, align 8
  %7 = alloca %class.String, align 8
  %8 = alloca %class.String, align 8
  %9 = alloca %class.String, align 8
  %10 = alloca %class.String, align 8
  %11 = alloca %class.String, align 8
  %12 = alloca %class.String, align 8
  call void @llvm.dbg.value(metadata i8* undef, metadata !3864, metadata !DIExpression(DW_OP_deref)), !dbg !3873
  call void @llvm.dbg.value(metadata %class.IPRateMonitor* %1, metadata !3861, metadata !DIExpression()), !dbg !3873
  call void @llvm.dbg.value(metadata %"struct.IPRateMonitor::Stats"* %2, metadata !3862, metadata !DIExpression()), !dbg !3873
  call void @llvm.dbg.declare(metadata %class.String* %3, metadata !3863, metadata !DIExpression()), !dbg !3874
  call void @llvm.dbg.value(metadata %class.String* %0, metadata !3875, metadata !DIExpression()), !dbg !3879
  call void @llvm.dbg.value(metadata i8* getelementptr inbounds ([1 x i8], [1 x i8]* @.str.14, i64 0, i64 0), metadata !3878, metadata !DIExpression()), !dbg !3879
  call void @llvm.dbg.value(metadata %class.String* %0, metadata !2935, metadata !DIExpression()), !dbg !3881
  call void @llvm.dbg.value(metadata i8* getelementptr inbounds ([1 x i8], [1 x i8]* @.str.14, i64 0, i64 0), metadata !2938, metadata !DIExpression()), !dbg !3881
  call void @llvm.dbg.value(metadata i32 0, metadata !2939, metadata !DIExpression()), !dbg !3881
  call void @llvm.dbg.value(metadata %"struct.String::memo_t"* null, metadata !2940, metadata !DIExpression()), !dbg !3881
  %13 = getelementptr inbounds %class.String, %class.String* %0, i64 0, i32 0, i32 0, !dbg !3885
  store i8* getelementptr inbounds ([1 x i8], [1 x i8]* @.str.14, i64 0, i64 0), i8** %13, align 8, !dbg !3886, !tbaa !2946
  %14 = getelementptr inbounds %class.String, %class.String* %0, i64 0, i32 0, i32 1, !dbg !3887
  store i32 0, i32* %14, align 8, !dbg !3888, !tbaa !2951
  %15 = getelementptr inbounds %class.String, %class.String* %0, i64 0, i32 0, i32 2, !dbg !3889
  store %"struct.String::memo_t"* null, %"struct.String::memo_t"** %15, align 8, !dbg !3890, !tbaa !2955
  call void @llvm.dbg.value(metadata i32 0, metadata !3865, metadata !DIExpression()), !dbg !3891
  %16 = getelementptr inbounds %class.String, %class.String* %3, i64 0, i32 0, i32 1, !dbg !3892
  %17 = bitcast %class.String* %3 to i64*, !dbg !3898
  %18 = getelementptr inbounds %class.String, %class.String* %3, i64 0, i32 0, i32 2, !dbg !3898
  %19 = bitcast %class.String* %6 to i64*, !dbg !3910
  %20 = getelementptr inbounds %class.String, %class.String* %6, i64 0, i32 0, i32 1, !dbg !3910
  %21 = getelementptr inbounds %class.String, %class.String* %6, i64 0, i32 0, i32 2, !dbg !3912
  %22 = bitcast %class.String* %5 to i8*, !dbg !3913
  %23 = bitcast %class.String* %6 to i8*, !dbg !3913
  %24 = bitcast %class.String* %7 to i8*, !dbg !3926
  %25 = getelementptr inbounds %class.String, %class.String* %7, i64 0, i32 0, i32 0, !dbg !3927
  %26 = getelementptr inbounds %class.String, %class.String* %7, i64 0, i32 0, i32 1, !dbg !3941
  %27 = getelementptr inbounds %class.String, %class.String* %7, i64 0, i32 0, i32 2, !dbg !3943
  %28 = getelementptr inbounds %class.String, %class.String* %5, i64 0, i32 0, i32 0, !dbg !3944
  %29 = getelementptr inbounds %class.String, %class.String* %5, i64 0, i32 0, i32 1, !dbg !3944
  %30 = getelementptr inbounds %class.String, %class.String* %5, i64 0, i32 0, i32 2, !dbg !3944
  %31 = bitcast %class.String* %8 to i8*, !dbg !3926
  %32 = getelementptr inbounds %class.String, %class.String* %8, i64 0, i32 0, i32 0, !dbg !3946
  %33 = getelementptr inbounds %class.String, %class.String* %8, i64 0, i32 0, i32 1, !dbg !3946
  %34 = getelementptr inbounds %class.String, %class.String* %8, i64 0, i32 0, i32 2, !dbg !3946
  %35 = bitcast %class.String* %9 to i8*, !dbg !3952
  %36 = getelementptr inbounds %class.String, %class.String* %9, i64 0, i32 0, i32 0, !dbg !3953
  %37 = getelementptr inbounds %class.String, %class.String* %9, i64 0, i32 0, i32 1, !dbg !3956
  %38 = getelementptr inbounds %class.String, %class.String* %9, i64 0, i32 0, i32 2, !dbg !3958
  %39 = bitcast %class.String* %10 to i8*, !dbg !3952
  %40 = getelementptr inbounds %class.String, %class.String* %10, i64 0, i32 0, i32 0, !dbg !3959
  %41 = getelementptr inbounds %class.String, %class.String* %10, i64 0, i32 0, i32 1, !dbg !3962
  %42 = getelementptr inbounds %class.String, %class.String* %10, i64 0, i32 0, i32 2, !dbg !3964
  %43 = bitcast %class.String* %11 to i8*, !dbg !3965
  %44 = getelementptr inbounds %class.String, %class.String* %12, i64 0, i32 0, i32 0, !dbg !3967
  %45 = getelementptr inbounds %class.String, %class.String* %12, i64 0, i32 0, i32 1, !dbg !3967
  %46 = getelementptr inbounds %class.String, %class.String* %12, i64 0, i32 0, i32 2, !dbg !3978
  %47 = getelementptr inbounds %class.String, %class.String* %11, i64 0, i32 0, i32 0, !dbg !3979
  %48 = getelementptr inbounds %class.String, %class.String* %11, i64 0, i32 0, i32 1, !dbg !3982
  %49 = getelementptr inbounds %class.String, %class.String* %11, i64 0, i32 0, i32 2, !dbg !3984
  br label %50, !dbg !3985

50:                                               ; preds = %474, %4
  %51 = phi i64 [ 0, %4 ], [ %475, %474 ]
  call void @llvm.dbg.value(metadata i64 %51, metadata !3865, metadata !DIExpression()), !dbg !3891
  %52 = getelementptr inbounds %"struct.IPRateMonitor::Stats", %"struct.IPRateMonitor::Stats"* %2, i64 0, i32 3, i64 %51, !dbg !3986
  %53 = load %"struct.IPRateMonitor::Counter"*, %"struct.IPRateMonitor::Counter"** %52, align 8, !dbg !3986, !tbaa !3393
  call void @llvm.dbg.value(metadata %"struct.IPRateMonitor::Counter"* %53, metadata !3867, metadata !DIExpression()), !dbg !3988
  %54 = icmp eq %"struct.IPRateMonitor::Counter"* %53, null, !dbg !3989
  br i1 %54, label %474, label %55, !dbg !3990

55:                                               ; preds = %50
  %56 = getelementptr inbounds %"struct.IPRateMonitor::Counter", %"struct.IPRateMonitor::Counter"* %53, i64 0, i32 0, !dbg !3991
  call void @llvm.dbg.value(metadata %class.RateEWMAX* %56, metadata !3594, metadata !DIExpression()), !dbg !3992
  call void @llvm.dbg.value(metadata i32 1, metadata !3597, metadata !DIExpression()), !dbg !3992
  call void @llvm.dbg.value(metadata %class.DirectEWMAX* undef, metadata !3601, metadata !DIExpression()), !dbg !3994
  %57 = getelementptr inbounds %"struct.IPRateMonitor::Counter", %"struct.IPRateMonitor::Counter"* %53, i64 0, i32 0, i32 2, i64 1, i32 0, !dbg !3996
  %58 = load i32, i32* %57, align 4, !dbg !3996, !tbaa !3608
  %59 = icmp sgt i32 %58, 0, !dbg !3997
  br i1 %59, label %64, label %60, !dbg !3998

60:                                               ; preds = %55
  call void @llvm.dbg.value(metadata %class.RateEWMAX* %56, metadata !3594, metadata !DIExpression()), !dbg !3999
  call void @llvm.dbg.value(metadata i32 0, metadata !3597, metadata !DIExpression()), !dbg !3999
  call void @llvm.dbg.value(metadata %class.DirectEWMAX* undef, metadata !3601, metadata !DIExpression()), !dbg !4001
  %61 = getelementptr inbounds %"struct.IPRateMonitor::Counter", %"struct.IPRateMonitor::Counter"* %53, i64 0, i32 0, i32 2, i64 0, i32 0, !dbg !4003
  %62 = load i32, i32* %61, align 4, !dbg !4003, !tbaa !3608
  %63 = icmp sgt i32 %62, 0, !dbg !4004
  br i1 %63, label %64, label %474, !dbg !4005

64:                                               ; preds = %55, %60
  call void @llvm.dbg.value(metadata %class.String* undef, metadata !2935, metadata !DIExpression()), !dbg !4006
  call void @llvm.dbg.value(metadata i8* @_ZN6String9null_dataE, metadata !2938, metadata !DIExpression()), !dbg !4006
  call void @llvm.dbg.value(metadata i32 0, metadata !2939, metadata !DIExpression()), !dbg !4006
  call void @llvm.dbg.value(metadata %"struct.String::memo_t"* null, metadata !2940, metadata !DIExpression()), !dbg !4006
  call void @llvm.dbg.value(metadata i8* @_ZN6String9null_dataE, metadata !3870, metadata !DIExpression(DW_OP_LLVM_fragment, 0, 64)), !dbg !3952
  call void @llvm.dbg.value(metadata i32 0, metadata !3870, metadata !DIExpression(DW_OP_LLVM_fragment, 64, 32)), !dbg !3952
  call void @llvm.dbg.value(metadata %"struct.String::memo_t"* null, metadata !3870, metadata !DIExpression(DW_OP_LLVM_fragment, 128, 64)), !dbg !3952
  call void @llvm.dbg.value(metadata %class.String* %3, metadata !3895, metadata !DIExpression()), !dbg !3892
  %65 = load i32, i32* %16, align 8, !dbg !4009, !tbaa !2951
  %66 = icmp eq i32 %65, 0, !dbg !4010
  %67 = select i1 %66, { i64, i64 } zeroinitializer, { i64, i64 } { i64 ptrtoint (i32 (%class.String*)* @_ZNK6String6lengthEv to i64), i64 0 }, !dbg !4011
  %68 = extractvalue { i64, i64 } %67, 0, !dbg !4012
  %69 = icmp eq i64 %68, 0, !dbg !4012
  br i1 %69, label %209, label %70, !dbg !4013

70:                                               ; preds = %64
  call void @llvm.dbg.value(metadata %class.String* %6, metadata !3907, metadata !DIExpression()), !dbg !4014
  call void @llvm.dbg.value(metadata %class.String* %3, metadata !3908, metadata !DIExpression()), !dbg !4014
  call void @llvm.dbg.value(metadata %class.String* %6, metadata !3901, metadata !DIExpression()), !dbg !3898
  call void @llvm.dbg.value(metadata %class.String* %3, metadata !3902, metadata !DIExpression()), !dbg !3898
  %71 = load i64, i64* %17, align 8, !dbg !4015, !tbaa !2946
  %72 = load %"struct.String::memo_t"*, %"struct.String::memo_t"** %18, align 8, !dbg !4016, !tbaa !2955
  call void @llvm.dbg.value(metadata %class.String* %6, metadata !2935, metadata !DIExpression()), !dbg !3910
  call void @llvm.dbg.value(metadata i8* undef, metadata !2938, metadata !DIExpression()), !dbg !3910
  call void @llvm.dbg.value(metadata i32 %65, metadata !2939, metadata !DIExpression()), !dbg !3910
  call void @llvm.dbg.value(metadata %"struct.String::memo_t"* %72, metadata !2940, metadata !DIExpression()), !dbg !3910
  store i64 %71, i64* %19, align 8, !dbg !4017, !tbaa !2946
  store i32 %65, i32* %20, align 8, !dbg !4018, !tbaa !2951
  store %"struct.String::memo_t"* %72, %"struct.String::memo_t"** %21, align 8, !dbg !4019, !tbaa !2955
  %73 = icmp eq %"struct.String::memo_t"* %72, null, !dbg !4020
  br i1 %73, label %78, label %74, !dbg !4021

74:                                               ; preds = %70
  %75 = getelementptr inbounds %"struct.String::memo_t", %"struct.String::memo_t"* %72, i64 0, i32 0, !dbg !4022
  call void @llvm.dbg.value(metadata i32* %75, metadata !4023, metadata !DIExpression()), !dbg !4026
  %76 = load volatile i32, i32* %75, align 4, !dbg !4028, !tbaa !3146
  %77 = add i32 %76, 1, !dbg !4028
  store volatile i32 %77, i32* %75, align 4, !dbg !4028, !tbaa !3146
  br label %78, !dbg !4029

78:                                               ; preds = %70, %74
  call void @llvm.dbg.declare(metadata %class.String* %6, metadata !3923, metadata !DIExpression()), !dbg !4030
  call void @llvm.dbg.value(metadata i8* getelementptr inbounds ([2 x i8], [2 x i8]* @.str.15, i64 0, i64 0), metadata !3924, metadata !DIExpression()), !dbg !4031
  call void @llvm.dbg.value(metadata %class.String* %6, metadata !4032, metadata !DIExpression()), !dbg !4036
  call void @llvm.dbg.value(metadata i8* getelementptr inbounds ([2 x i8], [2 x i8]* @.str.15, i64 0, i64 0), metadata !4035, metadata !DIExpression()), !dbg !4036
  invoke void @_ZN6String6appendEPKciPNS_6memo_tE(%class.String* nonnull %6, i8* nonnull getelementptr inbounds ([2 x i8], [2 x i8]* @.str.15, i64 0, i64 0), i32 1, %"struct.String::memo_t"* nonnull inttoptr (i64 1 to %"struct.String::memo_t"*))
          to label %79 unwind label %143, !dbg !4038

79:                                               ; preds = %78
  call void @llvm.dbg.value(metadata %class.String* %5, metadata !3916, metadata !DIExpression()) #17, !dbg !3913
  call void @llvm.dbg.value(metadata %class.String* %6, metadata !3917, metadata !DIExpression()) #17, !dbg !3913
  call void @llvm.memcpy.p0i8.p0i8.i64(i8* nonnull align 8 dereferenceable(24) %22, i8* nonnull align 8 dereferenceable(24) %23, i64 24, i1 false) #17, !dbg !4040, !tbaa.struct !4041
  store %"struct.String::memo_t"* null, %"struct.String::memo_t"** %21, align 8, !dbg !4042, !tbaa !2955, !noalias !4044
  call void @llvm.lifetime.start.p0i8(i64 24, i8* nonnull %24) #17, !dbg !4047
  %80 = trunc i64 %51 to i32, !dbg !4047
  invoke void @_ZN6StringC1Ei(%class.String* nonnull %7, i32 %80)
          to label %81 unwind label %147, !dbg !4047

81:                                               ; preds = %79
  call void @llvm.dbg.declare(metadata %class.String* %5, metadata !3938, metadata !DIExpression()), !dbg !4048
  call void @llvm.dbg.value(metadata %class.String* %7, metadata !3939, metadata !DIExpression()), !dbg !4049
  call void @llvm.dbg.value(metadata %class.String* %5, metadata !3931, metadata !DIExpression()), !dbg !3943
  call void @llvm.dbg.value(metadata %class.String* %7, metadata !3932, metadata !DIExpression()), !dbg !3943
  call void @llvm.dbg.value(metadata %class.String* %7, metadata !3111, metadata !DIExpression()), !dbg !3927
  %82 = load i8*, i8** %25, align 8, !dbg !4050, !tbaa !2946, !noalias !4051
  call void @llvm.dbg.value(metadata %class.String* %7, metadata !3102, metadata !DIExpression()), !dbg !3941
  %83 = load i32, i32* %26, align 8, !dbg !4054, !tbaa !2951, !noalias !4051
  %84 = load %"struct.String::memo_t"*, %"struct.String::memo_t"** %27, align 8, !dbg !4055, !tbaa !2955, !noalias !4051
  invoke void @_ZN6String6appendEPKciPNS_6memo_tE(%class.String* nonnull %5, i8* %82, i32 %83, %"struct.String::memo_t"* %84)
          to label %85 unwind label %151, !dbg !4056

85:                                               ; preds = %81
  call void @llvm.dbg.value(metadata %class.String* undef, metadata !3916, metadata !DIExpression()) #17, !dbg !3944
  call void @llvm.dbg.value(metadata %class.String* %5, metadata !3917, metadata !DIExpression()) #17, !dbg !3944
  %86 = load i8*, i8** %28, align 8, !dbg !4057, !tbaa.struct !4041
  %87 = load i32, i32* %29, align 8, !dbg !4057, !tbaa.struct !4041
  %88 = load %"struct.String::memo_t"*, %"struct.String::memo_t"** %30, align 8, !dbg !4057, !tbaa.struct !4041
  store %"struct.String::memo_t"* null, %"struct.String::memo_t"** %30, align 8, !dbg !4058, !tbaa !2955, !noalias !4051
  call void @llvm.dbg.value(metadata %class.String* undef, metadata !3949, metadata !DIExpression()), !dbg !4059
  call void @llvm.dbg.value(metadata %class.String* undef, metadata !3950, metadata !DIExpression()), !dbg !4059
  call void @llvm.dbg.value(metadata %class.String* undef, metadata !3125, metadata !DIExpression()), !dbg !4061
  call void @llvm.dbg.value(metadata i8* %86, metadata !3870, metadata !DIExpression(DW_OP_LLVM_fragment, 0, 64)), !dbg !3952
  call void @llvm.dbg.value(metadata i32 %87, metadata !3870, metadata !DIExpression(DW_OP_LLVM_fragment, 64, 32)), !dbg !3952
  call void @llvm.dbg.value(metadata i32 undef, metadata !3870, metadata !DIExpression(DW_OP_LLVM_fragment, 96, 32)), !dbg !3952
  call void @llvm.dbg.value(metadata %"struct.String::memo_t"* %88, metadata !3870, metadata !DIExpression(DW_OP_LLVM_fragment, 128, 64)), !dbg !3952
  call void @llvm.dbg.value(metadata %class.String* undef, metadata !3120, metadata !DIExpression()) #17, !dbg !4063
  call void @llvm.dbg.value(metadata %class.String* undef, metadata !3125, metadata !DIExpression()) #17, !dbg !4065
  call void @llvm.dbg.value(metadata %class.String* %7, metadata !3120, metadata !DIExpression()) #17, !dbg !4067
  call void @llvm.dbg.value(metadata %class.String* %7, metadata !3125, metadata !DIExpression()) #17, !dbg !4069
  %89 = load %"struct.String::memo_t"*, %"struct.String::memo_t"** %27, align 8, !dbg !4071, !tbaa !2955
  %90 = icmp eq %"struct.String::memo_t"* %89, null, !dbg !4072
  br i1 %90, label %91, label %92, !dbg !4073

91:                                               ; preds = %85
  call void @llvm.lifetime.end.p0i8(i64 24, i8* nonnull %24) #17, !dbg !4074
  call void @llvm.dbg.value(metadata %class.String* %5, metadata !3120, metadata !DIExpression()) #17, !dbg !4075
  call void @llvm.dbg.value(metadata %class.String* %5, metadata !3125, metadata !DIExpression()) #17, !dbg !4077
  br label %122, !dbg !4079

92:                                               ; preds = %85
  %93 = getelementptr inbounds %"struct.String::memo_t", %"struct.String::memo_t"* %89, i64 0, i32 0, !dbg !4080
  %94 = load volatile i32, i32* %93, align 4, !dbg !4080, !tbaa !3137
  %95 = icmp eq i32 %94, 0, !dbg !4080
  br i1 %95, label %96, label %97, !dbg !4080

96:                                               ; preds = %92
  call void @__assert_fail(i8* getelementptr inbounds ([18 x i8], [18 x i8]* @.str.31, i64 0, i64 0), i8* getelementptr inbounds ([29 x i8], [29 x i8]* @.str.32, i64 0, i64 0), i32 273, i8* getelementptr inbounds ([27 x i8], [27 x i8]* @__PRETTY_FUNCTION__._ZNK6String5derefEv, i64 0, i64 0)) #19, !dbg !4080
  unreachable, !dbg !4080

97:                                               ; preds = %92
  call void @llvm.dbg.value(metadata i32* %93, metadata !3139, metadata !DIExpression()) #17, !dbg !4081
  %98 = load volatile i32, i32* %93, align 4, !dbg !4083, !tbaa !3146
  %99 = add i32 %98, -1, !dbg !4083
  store volatile i32 %99, i32* %93, align 4, !dbg !4083, !tbaa !3146
  %100 = icmp eq i32 %99, 0, !dbg !4084
  br i1 %100, label %101, label %105, !dbg !4085

101:                                              ; preds = %97
  invoke void @_ZN6String11delete_memoEPNS_6memo_tE(%"struct.String::memo_t"* nonnull %89)
          to label %105 unwind label %102, !dbg !4086

102:                                              ; preds = %101
  %103 = landingpad { i8*, i32 }
          catch i8* null, !dbg !4087
  %104 = extractvalue { i8*, i32 } %103, 0, !dbg !4087
  call void @__clang_call_terminate(i8* %104) #19, !dbg !4087
  unreachable, !dbg !4087

105:                                              ; preds = %97, %101
  %106 = load %"struct.String::memo_t"*, %"struct.String::memo_t"** %30, align 8, !dbg !4088, !tbaa !2955
  call void @llvm.lifetime.end.p0i8(i64 24, i8* nonnull %24) #17, !dbg !4074
  call void @llvm.dbg.value(metadata %class.String* %5, metadata !3120, metadata !DIExpression()) #17, !dbg !4075
  call void @llvm.dbg.value(metadata %class.String* %5, metadata !3125, metadata !DIExpression()) #17, !dbg !4077
  %107 = icmp eq %"struct.String::memo_t"* %106, null, !dbg !4089
  br i1 %107, label %122, label %108, !dbg !4079

108:                                              ; preds = %105
  %109 = getelementptr inbounds %"struct.String::memo_t", %"struct.String::memo_t"* %106, i64 0, i32 0, !dbg !4090
  %110 = load volatile i32, i32* %109, align 4, !dbg !4090, !tbaa !3137
  %111 = icmp eq i32 %110, 0, !dbg !4090
  br i1 %111, label %112, label %113, !dbg !4090

112:                                              ; preds = %108
  call void @__assert_fail(i8* getelementptr inbounds ([18 x i8], [18 x i8]* @.str.31, i64 0, i64 0), i8* getelementptr inbounds ([29 x i8], [29 x i8]* @.str.32, i64 0, i64 0), i32 273, i8* getelementptr inbounds ([27 x i8], [27 x i8]* @__PRETTY_FUNCTION__._ZNK6String5derefEv, i64 0, i64 0)) #19, !dbg !4090
  unreachable, !dbg !4090

113:                                              ; preds = %108
  call void @llvm.dbg.value(metadata i32* %109, metadata !3139, metadata !DIExpression()) #17, !dbg !4091
  %114 = load volatile i32, i32* %109, align 4, !dbg !4093, !tbaa !3146
  %115 = add i32 %114, -1, !dbg !4093
  store volatile i32 %115, i32* %109, align 4, !dbg !4093, !tbaa !3146
  %116 = icmp eq i32 %115, 0, !dbg !4094
  br i1 %116, label %117, label %118, !dbg !4095

117:                                              ; preds = %113
  invoke void @_ZN6String11delete_memoEPNS_6memo_tE(%"struct.String::memo_t"* nonnull %106)
          to label %118 unwind label %119, !dbg !4096

118:                                              ; preds = %117, %113
  store %"struct.String::memo_t"* null, %"struct.String::memo_t"** %30, align 8, !dbg !4097, !tbaa !2955
  br label %122, !dbg !4098

119:                                              ; preds = %117
  %120 = landingpad { i8*, i32 }
          catch i8* null, !dbg !4099
  %121 = extractvalue { i8*, i32 } %120, 0, !dbg !4099
  call void @__clang_call_terminate(i8* %121) #19, !dbg !4099
  unreachable, !dbg !4099

122:                                              ; preds = %91, %105, %118
  call void @llvm.dbg.value(metadata %class.String* %6, metadata !3120, metadata !DIExpression()) #17, !dbg !4100
  call void @llvm.dbg.value(metadata %class.String* %6, metadata !3125, metadata !DIExpression()) #17, !dbg !4102
  %123 = load %"struct.String::memo_t"*, %"struct.String::memo_t"** %21, align 8, !dbg !4104, !tbaa !2955
  %124 = icmp eq %"struct.String::memo_t"* %123, null, !dbg !4105
  br i1 %124, label %219, label %125, !dbg !4106

125:                                              ; preds = %122
  %126 = getelementptr inbounds %"struct.String::memo_t", %"struct.String::memo_t"* %123, i64 0, i32 0, !dbg !4107
  %127 = load volatile i32, i32* %126, align 4, !dbg !4107, !tbaa !3137
  %128 = icmp eq i32 %127, 0, !dbg !4107
  br i1 %128, label %129, label %130, !dbg !4107

129:                                              ; preds = %125
  call void @__assert_fail(i8* getelementptr inbounds ([18 x i8], [18 x i8]* @.str.31, i64 0, i64 0), i8* getelementptr inbounds ([29 x i8], [29 x i8]* @.str.32, i64 0, i64 0), i32 273, i8* getelementptr inbounds ([27 x i8], [27 x i8]* @__PRETTY_FUNCTION__._ZNK6String5derefEv, i64 0, i64 0)) #19, !dbg !4107
  unreachable, !dbg !4107

130:                                              ; preds = %125
  call void @llvm.dbg.value(metadata i32* %126, metadata !3139, metadata !DIExpression()) #17, !dbg !4108
  %131 = load volatile i32, i32* %126, align 4, !dbg !4110, !tbaa !3146
  %132 = add i32 %131, -1, !dbg !4110
  store volatile i32 %132, i32* %126, align 4, !dbg !4110, !tbaa !3146
  %133 = icmp eq i32 %132, 0, !dbg !4111
  br i1 %133, label %134, label %135, !dbg !4112

134:                                              ; preds = %130
  invoke void @_ZN6String11delete_memoEPNS_6memo_tE(%"struct.String::memo_t"* nonnull %123)
          to label %135 unwind label %136, !dbg !4113

135:                                              ; preds = %134, %130
  store %"struct.String::memo_t"* null, %"struct.String::memo_t"** %21, align 8, !dbg !4114, !tbaa !2955
  br label %219, !dbg !4115

136:                                              ; preds = %134
  %137 = landingpad { i8*, i32 }
          catch i8* null, !dbg !4116
  %138 = extractvalue { i8*, i32 } %137, 0, !dbg !4116
  call void @__clang_call_terminate(i8* %138) #19, !dbg !4116
  unreachable, !dbg !4116

139:                                              ; preds = %275, %250, %224, %219, %223
  %140 = landingpad { i8*, i32 }
          cleanup, !dbg !4117
  %141 = extractvalue { i8*, i32 } %140, 0, !dbg !4117
  %142 = extractvalue { i8*, i32 } %140, 1, !dbg !4117
  br label %457, !dbg !4117

143:                                              ; preds = %78
  %144 = landingpad { i8*, i32 }
          cleanup, !dbg !4117
  %145 = extractvalue { i8*, i32 } %144, 0, !dbg !4117
  %146 = extractvalue { i8*, i32 } %144, 1, !dbg !4117
  br label %190, !dbg !4117

147:                                              ; preds = %79
  %148 = landingpad { i8*, i32 }
          cleanup, !dbg !4117
  %149 = extractvalue { i8*, i32 } %148, 0, !dbg !4117
  %150 = extractvalue { i8*, i32 } %148, 1, !dbg !4117
  br label %171, !dbg !4117

151:                                              ; preds = %81
  %152 = landingpad { i8*, i32 }
          cleanup, !dbg !4117
  %153 = extractvalue { i8*, i32 } %152, 0, !dbg !4117
  %154 = extractvalue { i8*, i32 } %152, 1, !dbg !4117
  call void @llvm.dbg.value(metadata %class.String* %7, metadata !3120, metadata !DIExpression()) #17, !dbg !4118
  call void @llvm.dbg.value(metadata %class.String* %7, metadata !3125, metadata !DIExpression()) #17, !dbg !4120
  %155 = load %"struct.String::memo_t"*, %"struct.String::memo_t"** %27, align 8, !dbg !4122, !tbaa !2955
  %156 = icmp eq %"struct.String::memo_t"* %155, null, !dbg !4123
  br i1 %156, label %171, label %157, !dbg !4124

157:                                              ; preds = %151
  %158 = getelementptr inbounds %"struct.String::memo_t", %"struct.String::memo_t"* %155, i64 0, i32 0, !dbg !4125
  %159 = load volatile i32, i32* %158, align 4, !dbg !4125, !tbaa !3137
  %160 = icmp eq i32 %159, 0, !dbg !4125
  br i1 %160, label %161, label %162, !dbg !4125

161:                                              ; preds = %157
  call void @__assert_fail(i8* getelementptr inbounds ([18 x i8], [18 x i8]* @.str.31, i64 0, i64 0), i8* getelementptr inbounds ([29 x i8], [29 x i8]* @.str.32, i64 0, i64 0), i32 273, i8* getelementptr inbounds ([27 x i8], [27 x i8]* @__PRETTY_FUNCTION__._ZNK6String5derefEv, i64 0, i64 0)) #19, !dbg !4125
  unreachable, !dbg !4125

162:                                              ; preds = %157
  call void @llvm.dbg.value(metadata i32* %158, metadata !3139, metadata !DIExpression()) #17, !dbg !4126
  %163 = load volatile i32, i32* %158, align 4, !dbg !4128, !tbaa !3146
  %164 = add i32 %163, -1, !dbg !4128
  store volatile i32 %164, i32* %158, align 4, !dbg !4128, !tbaa !3146
  %165 = icmp eq i32 %164, 0, !dbg !4129
  br i1 %165, label %166, label %167, !dbg !4130

166:                                              ; preds = %162
  invoke void @_ZN6String11delete_memoEPNS_6memo_tE(%"struct.String::memo_t"* nonnull %155)
          to label %167 unwind label %168, !dbg !4131

167:                                              ; preds = %166, %162
  store %"struct.String::memo_t"* null, %"struct.String::memo_t"** %27, align 8, !dbg !4132, !tbaa !2955
  br label %171, !dbg !4133

168:                                              ; preds = %166
  %169 = landingpad { i8*, i32 }
          catch i8* null, !dbg !4134
  %170 = extractvalue { i8*, i32 } %169, 0, !dbg !4134
  call void @__clang_call_terminate(i8* %170) #19, !dbg !4134
  unreachable, !dbg !4134

171:                                              ; preds = %167, %151, %147
  %172 = phi i8* [ %149, %147 ], [ %153, %151 ], [ %153, %167 ], !dbg !4117
  %173 = phi i32 [ %150, %147 ], [ %154, %151 ], [ %154, %167 ], !dbg !4117
  call void @llvm.lifetime.end.p0i8(i64 24, i8* nonnull %24) #17, !dbg !4074
  call void @llvm.dbg.value(metadata %class.String* %5, metadata !3120, metadata !DIExpression()) #17, !dbg !4135
  call void @llvm.dbg.value(metadata %class.String* %5, metadata !3125, metadata !DIExpression()) #17, !dbg !4137
  %174 = load %"struct.String::memo_t"*, %"struct.String::memo_t"** %30, align 8, !dbg !4139, !tbaa !2955
  %175 = icmp eq %"struct.String::memo_t"* %174, null, !dbg !4140
  br i1 %175, label %190, label %176, !dbg !4141

176:                                              ; preds = %171
  %177 = getelementptr inbounds %"struct.String::memo_t", %"struct.String::memo_t"* %174, i64 0, i32 0, !dbg !4142
  %178 = load volatile i32, i32* %177, align 4, !dbg !4142, !tbaa !3137
  %179 = icmp eq i32 %178, 0, !dbg !4142
  br i1 %179, label %180, label %181, !dbg !4142

180:                                              ; preds = %176
  call void @__assert_fail(i8* getelementptr inbounds ([18 x i8], [18 x i8]* @.str.31, i64 0, i64 0), i8* getelementptr inbounds ([29 x i8], [29 x i8]* @.str.32, i64 0, i64 0), i32 273, i8* getelementptr inbounds ([27 x i8], [27 x i8]* @__PRETTY_FUNCTION__._ZNK6String5derefEv, i64 0, i64 0)) #19, !dbg !4142
  unreachable, !dbg !4142

181:                                              ; preds = %176
  call void @llvm.dbg.value(metadata i32* %177, metadata !3139, metadata !DIExpression()) #17, !dbg !4143
  %182 = load volatile i32, i32* %177, align 4, !dbg !4145, !tbaa !3146
  %183 = add i32 %182, -1, !dbg !4145
  store volatile i32 %183, i32* %177, align 4, !dbg !4145, !tbaa !3146
  %184 = icmp eq i32 %183, 0, !dbg !4146
  br i1 %184, label %185, label %186, !dbg !4147

185:                                              ; preds = %181
  invoke void @_ZN6String11delete_memoEPNS_6memo_tE(%"struct.String::memo_t"* nonnull %174)
          to label %186 unwind label %187, !dbg !4148

186:                                              ; preds = %185, %181
  store %"struct.String::memo_t"* null, %"struct.String::memo_t"** %30, align 8, !dbg !4149, !tbaa !2955
  br label %190, !dbg !4150

187:                                              ; preds = %185
  %188 = landingpad { i8*, i32 }
          catch i8* null, !dbg !4151
  %189 = extractvalue { i8*, i32 } %188, 0, !dbg !4151
  call void @__clang_call_terminate(i8* %189) #19, !dbg !4151
  unreachable, !dbg !4151

190:                                              ; preds = %186, %171, %143
  %191 = phi i8* [ %145, %143 ], [ %172, %171 ], [ %172, %186 ], !dbg !4117
  %192 = phi i32 [ %146, %143 ], [ %173, %171 ], [ %173, %186 ], !dbg !4117
  call void @llvm.dbg.value(metadata %class.String* %6, metadata !3120, metadata !DIExpression()) #17, !dbg !4152
  call void @llvm.dbg.value(metadata %class.String* %6, metadata !3125, metadata !DIExpression()) #17, !dbg !4154
  %193 = load %"struct.String::memo_t"*, %"struct.String::memo_t"** %21, align 8, !dbg !4156, !tbaa !2955
  %194 = icmp eq %"struct.String::memo_t"* %193, null, !dbg !4157
  br i1 %194, label %477, label %195, !dbg !4158

195:                                              ; preds = %190
  %196 = getelementptr inbounds %"struct.String::memo_t", %"struct.String::memo_t"* %193, i64 0, i32 0, !dbg !4159
  %197 = load volatile i32, i32* %196, align 4, !dbg !4159, !tbaa !3137
  %198 = icmp eq i32 %197, 0, !dbg !4159
  br i1 %198, label %199, label %200, !dbg !4159

199:                                              ; preds = %195
  call void @__assert_fail(i8* getelementptr inbounds ([18 x i8], [18 x i8]* @.str.31, i64 0, i64 0), i8* getelementptr inbounds ([29 x i8], [29 x i8]* @.str.32, i64 0, i64 0), i32 273, i8* getelementptr inbounds ([27 x i8], [27 x i8]* @__PRETTY_FUNCTION__._ZNK6String5derefEv, i64 0, i64 0)) #19, !dbg !4159
  unreachable, !dbg !4159

200:                                              ; preds = %195
  call void @llvm.dbg.value(metadata i32* %196, metadata !3139, metadata !DIExpression()) #17, !dbg !4160
  %201 = load volatile i32, i32* %196, align 4, !dbg !4162, !tbaa !3146
  %202 = add i32 %201, -1, !dbg !4162
  store volatile i32 %202, i32* %196, align 4, !dbg !4162, !tbaa !3146
  %203 = icmp eq i32 %202, 0, !dbg !4163
  br i1 %203, label %204, label %205, !dbg !4164

204:                                              ; preds = %200
  invoke void @_ZN6String11delete_memoEPNS_6memo_tE(%"struct.String::memo_t"* nonnull %193)
          to label %205 unwind label %206, !dbg !4165

205:                                              ; preds = %204, %200
  store %"struct.String::memo_t"* null, %"struct.String::memo_t"** %21, align 8, !dbg !4166, !tbaa !2955
  br label %477, !dbg !4167

206:                                              ; preds = %204
  %207 = landingpad { i8*, i32 }
          catch i8* null, !dbg !4168
  %208 = extractvalue { i8*, i32 } %207, 0, !dbg !4168
  call void @__clang_call_terminate(i8* %208) #19, !dbg !4168
  unreachable, !dbg !4168

209:                                              ; preds = %64
  call void @llvm.lifetime.start.p0i8(i64 24, i8* nonnull %31) #17, !dbg !4169
  %210 = trunc i64 %51 to i32, !dbg !4169
  invoke void @_ZN6StringC1Ei(%class.String* nonnull %8, i32 %210)
          to label %211 unwind label %215, !dbg !4169

211:                                              ; preds = %209
  %212 = load i8*, i8** %32, align 8, !dbg !4170, !tbaa.struct !4041
  call void @llvm.dbg.value(metadata i8* %212, metadata !3870, metadata !DIExpression(DW_OP_LLVM_fragment, 0, 64)), !dbg !3952
  %213 = load i32, i32* %33, align 8, !dbg !4170, !tbaa.struct !4041
  call void @llvm.dbg.value(metadata i32 %213, metadata !3870, metadata !DIExpression(DW_OP_LLVM_fragment, 64, 32)), !dbg !3952
  call void @llvm.dbg.value(metadata i32 undef, metadata !3870, metadata !DIExpression(DW_OP_LLVM_fragment, 96, 32)), !dbg !3952
  %214 = load %"struct.String::memo_t"*, %"struct.String::memo_t"** %34, align 8, !dbg !4170, !tbaa.struct !4041
  call void @llvm.dbg.value(metadata %"struct.String::memo_t"* %214, metadata !3870, metadata !DIExpression(DW_OP_LLVM_fragment, 128, 64)), !dbg !3952
  call void @llvm.dbg.value(metadata %class.String* %8, metadata !3120, metadata !DIExpression()) #17, !dbg !4171
  call void @llvm.dbg.value(metadata %class.String* %8, metadata !3125, metadata !DIExpression()) #17, !dbg !4173
  call void @llvm.lifetime.end.p0i8(i64 24, i8* nonnull %31) #17, !dbg !4175
  br label %219

215:                                              ; preds = %209
  %216 = landingpad { i8*, i32 }
          cleanup, !dbg !4117
  %217 = extractvalue { i8*, i32 } %216, 0, !dbg !4117
  %218 = extractvalue { i8*, i32 } %216, 1, !dbg !4117
  call void @llvm.lifetime.end.p0i8(i64 24, i8* nonnull %31) #17, !dbg !4175
  br label %477, !dbg !4175

219:                                              ; preds = %135, %122, %211
  %220 = phi %"struct.String::memo_t"* [ %214, %211 ], [ %88, %122 ], [ %88, %135 ], !dbg !3926
  %221 = phi i32 [ %213, %211 ], [ %87, %122 ], [ %87, %135 ], !dbg !3926
  %222 = phi i8* [ %212, %211 ], [ %86, %122 ], [ %86, %135 ], !dbg !3926
  call void @llvm.dbg.value(metadata i8* %222, metadata !3870, metadata !DIExpression(DW_OP_LLVM_fragment, 0, 64)), !dbg !3952
  call void @llvm.dbg.value(metadata i32 %221, metadata !3870, metadata !DIExpression(DW_OP_LLVM_fragment, 64, 32)), !dbg !3952
  call void @llvm.dbg.value(metadata %"struct.String::memo_t"* %220, metadata !3870, metadata !DIExpression(DW_OP_LLVM_fragment, 128, 64)), !dbg !3952
  call void @llvm.dbg.value(metadata %class.String* %0, metadata !3931, metadata !DIExpression()), !dbg !4176
  call void @llvm.dbg.value(metadata %class.String* undef, metadata !3932, metadata !DIExpression()), !dbg !4176
  call void @llvm.dbg.value(metadata %class.String* undef, metadata !3111, metadata !DIExpression()), !dbg !4178
  call void @llvm.dbg.value(metadata %class.String* undef, metadata !3102, metadata !DIExpression()), !dbg !4180
  invoke void @_ZN6String6appendEPKciPNS_6memo_tE(%class.String* %0, i8* %222, i32 %221, %"struct.String::memo_t"* %220)
          to label %223 unwind label %139, !dbg !4182

223:                                              ; preds = %219
  invoke void @_ZN9RateEWMAXIN13IPRateMonitor14EWMAParametersEE6updateEij(%class.RateEWMAX* nonnull %56, i32 0, i32 0)
          to label %224 unwind label %139, !dbg !4183

224:                                              ; preds = %223
  call void @llvm.dbg.value(metadata %class.String* %0, metadata !4184, metadata !DIExpression()), !dbg !4188
  call void @llvm.dbg.value(metadata i8* getelementptr inbounds ([2 x i8], [2 x i8]* @.str.16, i64 0, i64 0), metadata !4187, metadata !DIExpression()), !dbg !4188
  call void @llvm.dbg.value(metadata %class.String* %0, metadata !4032, metadata !DIExpression()), !dbg !4190
  call void @llvm.dbg.value(metadata i8* getelementptr inbounds ([2 x i8], [2 x i8]* @.str.16, i64 0, i64 0), metadata !4035, metadata !DIExpression()), !dbg !4190
  invoke void @_ZN6String6appendEPKciPNS_6memo_tE(%class.String* %0, i8* nonnull getelementptr inbounds ([2 x i8], [2 x i8]* @.str.16, i64 0, i64 0), i32 1, %"struct.String::memo_t"* nonnull inttoptr (i64 1 to %"struct.String::memo_t"*))
          to label %225 unwind label %139, !dbg !4192

225:                                              ; preds = %224
  call void @llvm.lifetime.start.p0i8(i64 24, i8* nonnull %35) #17, !dbg !4193
  call void @llvm.dbg.value(metadata %class.RateEWMAX* %56, metadata !4194, metadata !DIExpression()), !dbg !4198
  call void @llvm.dbg.value(metadata i32 0, metadata !4197, metadata !DIExpression()), !dbg !4198
  call void @llvm.dbg.value(metadata %class.RateEWMAX* %56, metadata !3594, metadata !DIExpression()), !dbg !4200
  call void @llvm.dbg.value(metadata i32 0, metadata !3597, metadata !DIExpression()), !dbg !4200
  call void @llvm.dbg.value(metadata %class.DirectEWMAX* undef, metadata !3601, metadata !DIExpression()), !dbg !4202
  %226 = getelementptr inbounds %"struct.IPRateMonitor::Counter", %"struct.IPRateMonitor::Counter"* %53, i64 0, i32 0, i32 2, i64 0, i32 0, !dbg !4204
  %227 = load i32, i32* %226, align 4, !dbg !4204, !tbaa !3608, !noalias !4205
  %228 = mul i32 %227, 125, !dbg !4208
  invoke void @_Z16cp_unparse_real2ji(%class.String* nonnull sret %9, i32 %228, i32 10)
          to label %229 unwind label %339, !dbg !4209

229:                                              ; preds = %225
  call void @llvm.dbg.value(metadata %class.String* %0, metadata !3931, metadata !DIExpression()), !dbg !3958
  call void @llvm.dbg.value(metadata %class.String* %9, metadata !3932, metadata !DIExpression()), !dbg !3958
  call void @llvm.dbg.value(metadata %class.String* %9, metadata !3111, metadata !DIExpression()), !dbg !3953
  %230 = load i8*, i8** %36, align 8, !dbg !4210, !tbaa !2946
  call void @llvm.dbg.value(metadata %class.String* %9, metadata !3102, metadata !DIExpression()), !dbg !3956
  %231 = load i32, i32* %37, align 8, !dbg !4211, !tbaa !2951
  %232 = load %"struct.String::memo_t"*, %"struct.String::memo_t"** %38, align 8, !dbg !4212, !tbaa !2955
  invoke void @_ZN6String6appendEPKciPNS_6memo_tE(%class.String* %0, i8* %230, i32 %231, %"struct.String::memo_t"* %232)
          to label %233 unwind label %343, !dbg !4213

233:                                              ; preds = %229
  call void @llvm.dbg.value(metadata %class.String* %9, metadata !3120, metadata !DIExpression()) #17, !dbg !4214
  call void @llvm.dbg.value(metadata %class.String* %9, metadata !3125, metadata !DIExpression()) #17, !dbg !4216
  %234 = load %"struct.String::memo_t"*, %"struct.String::memo_t"** %38, align 8, !dbg !4218, !tbaa !2955
  %235 = icmp eq %"struct.String::memo_t"* %234, null, !dbg !4219
  br i1 %235, label %250, label %236, !dbg !4220

236:                                              ; preds = %233
  %237 = getelementptr inbounds %"struct.String::memo_t", %"struct.String::memo_t"* %234, i64 0, i32 0, !dbg !4221
  %238 = load volatile i32, i32* %237, align 4, !dbg !4221, !tbaa !3137
  %239 = icmp eq i32 %238, 0, !dbg !4221
  br i1 %239, label %240, label %241, !dbg !4221

240:                                              ; preds = %236
  call void @__assert_fail(i8* getelementptr inbounds ([18 x i8], [18 x i8]* @.str.31, i64 0, i64 0), i8* getelementptr inbounds ([29 x i8], [29 x i8]* @.str.32, i64 0, i64 0), i32 273, i8* getelementptr inbounds ([27 x i8], [27 x i8]* @__PRETTY_FUNCTION__._ZNK6String5derefEv, i64 0, i64 0)) #19, !dbg !4221
  unreachable, !dbg !4221

241:                                              ; preds = %236
  call void @llvm.dbg.value(metadata i32* %237, metadata !3139, metadata !DIExpression()) #17, !dbg !4222
  %242 = load volatile i32, i32* %237, align 4, !dbg !4224, !tbaa !3146
  %243 = add i32 %242, -1, !dbg !4224
  store volatile i32 %243, i32* %237, align 4, !dbg !4224, !tbaa !3146
  %244 = icmp eq i32 %243, 0, !dbg !4225
  br i1 %244, label %245, label %246, !dbg !4226

245:                                              ; preds = %241
  invoke void @_ZN6String11delete_memoEPNS_6memo_tE(%"struct.String::memo_t"* nonnull %234)
          to label %246 unwind label %247, !dbg !4227

246:                                              ; preds = %245, %241
  store %"struct.String::memo_t"* null, %"struct.String::memo_t"** %38, align 8, !dbg !4228, !tbaa !2955
  br label %250, !dbg !4229

247:                                              ; preds = %245
  %248 = landingpad { i8*, i32 }
          catch i8* null, !dbg !4230
  %249 = extractvalue { i8*, i32 } %248, 0, !dbg !4230
  call void @__clang_call_terminate(i8* %249) #19, !dbg !4230
  unreachable, !dbg !4230

250:                                              ; preds = %233, %246
  call void @llvm.lifetime.end.p0i8(i64 24, i8* nonnull %35) #17, !dbg !4231
  call void @llvm.dbg.value(metadata %class.String* %0, metadata !4184, metadata !DIExpression()), !dbg !4232
  call void @llvm.dbg.value(metadata i8* getelementptr inbounds ([2 x i8], [2 x i8]* @.str.16, i64 0, i64 0), metadata !4187, metadata !DIExpression()), !dbg !4232
  call void @llvm.dbg.value(metadata %class.String* %0, metadata !4032, metadata !DIExpression()), !dbg !4234
  call void @llvm.dbg.value(metadata i8* getelementptr inbounds ([2 x i8], [2 x i8]* @.str.16, i64 0, i64 0), metadata !4035, metadata !DIExpression()), !dbg !4234
  invoke void @_ZN6String6appendEPKciPNS_6memo_tE(%class.String* %0, i8* nonnull getelementptr inbounds ([2 x i8], [2 x i8]* @.str.16, i64 0, i64 0), i32 1, %"struct.String::memo_t"* nonnull inttoptr (i64 1 to %"struct.String::memo_t"*))
          to label %251 unwind label %139, !dbg !4236

251:                                              ; preds = %250
  call void @llvm.lifetime.start.p0i8(i64 24, i8* nonnull %39) #17, !dbg !4237
  call void @llvm.dbg.value(metadata %class.RateEWMAX* %56, metadata !4194, metadata !DIExpression()), !dbg !4238
  call void @llvm.dbg.value(metadata i32 1, metadata !4197, metadata !DIExpression()), !dbg !4238
  call void @llvm.dbg.value(metadata %class.RateEWMAX* %56, metadata !3594, metadata !DIExpression()), !dbg !4240
  call void @llvm.dbg.value(metadata i32 1, metadata !3597, metadata !DIExpression()), !dbg !4240
  call void @llvm.dbg.value(metadata %class.DirectEWMAX* undef, metadata !3601, metadata !DIExpression()), !dbg !4242
  %252 = load i32, i32* %57, align 4, !dbg !4244, !tbaa !3608, !noalias !4245
  %253 = mul i32 %252, 125, !dbg !4248
  invoke void @_Z16cp_unparse_real2ji(%class.String* nonnull sret %10, i32 %253, i32 10)
          to label %254 unwind label %366, !dbg !4249

254:                                              ; preds = %251
  call void @llvm.dbg.value(metadata %class.String* %0, metadata !3931, metadata !DIExpression()), !dbg !3964
  call void @llvm.dbg.value(metadata %class.String* %10, metadata !3932, metadata !DIExpression()), !dbg !3964
  call void @llvm.dbg.value(metadata %class.String* %10, metadata !3111, metadata !DIExpression()), !dbg !3959
  %255 = load i8*, i8** %40, align 8, !dbg !4250, !tbaa !2946
  call void @llvm.dbg.value(metadata %class.String* %10, metadata !3102, metadata !DIExpression()), !dbg !3962
  %256 = load i32, i32* %41, align 8, !dbg !4251, !tbaa !2951
  %257 = load %"struct.String::memo_t"*, %"struct.String::memo_t"** %42, align 8, !dbg !4252, !tbaa !2955
  invoke void @_ZN6String6appendEPKciPNS_6memo_tE(%class.String* %0, i8* %255, i32 %256, %"struct.String::memo_t"* %257)
          to label %258 unwind label %370, !dbg !4253

258:                                              ; preds = %254
  call void @llvm.dbg.value(metadata %class.String* %10, metadata !3120, metadata !DIExpression()) #17, !dbg !4254
  call void @llvm.dbg.value(metadata %class.String* %10, metadata !3125, metadata !DIExpression()) #17, !dbg !4256
  %259 = load %"struct.String::memo_t"*, %"struct.String::memo_t"** %42, align 8, !dbg !4258, !tbaa !2955
  %260 = icmp eq %"struct.String::memo_t"* %259, null, !dbg !4259
  br i1 %260, label %275, label %261, !dbg !4260

261:                                              ; preds = %258
  %262 = getelementptr inbounds %"struct.String::memo_t", %"struct.String::memo_t"* %259, i64 0, i32 0, !dbg !4261
  %263 = load volatile i32, i32* %262, align 4, !dbg !4261, !tbaa !3137
  %264 = icmp eq i32 %263, 0, !dbg !4261
  br i1 %264, label %265, label %266, !dbg !4261

265:                                              ; preds = %261
  call void @__assert_fail(i8* getelementptr inbounds ([18 x i8], [18 x i8]* @.str.31, i64 0, i64 0), i8* getelementptr inbounds ([29 x i8], [29 x i8]* @.str.32, i64 0, i64 0), i32 273, i8* getelementptr inbounds ([27 x i8], [27 x i8]* @__PRETTY_FUNCTION__._ZNK6String5derefEv, i64 0, i64 0)) #19, !dbg !4261
  unreachable, !dbg !4261

266:                                              ; preds = %261
  call void @llvm.dbg.value(metadata i32* %262, metadata !3139, metadata !DIExpression()) #17, !dbg !4262
  %267 = load volatile i32, i32* %262, align 4, !dbg !4264, !tbaa !3146
  %268 = add i32 %267, -1, !dbg !4264
  store volatile i32 %268, i32* %262, align 4, !dbg !4264, !tbaa !3146
  %269 = icmp eq i32 %268, 0, !dbg !4265
  br i1 %269, label %270, label %271, !dbg !4266

270:                                              ; preds = %266
  invoke void @_ZN6String11delete_memoEPNS_6memo_tE(%"struct.String::memo_t"* nonnull %259)
          to label %271 unwind label %272, !dbg !4267

271:                                              ; preds = %270, %266
  store %"struct.String::memo_t"* null, %"struct.String::memo_t"** %42, align 8, !dbg !4268, !tbaa !2955
  br label %275, !dbg !4269

272:                                              ; preds = %270
  %273 = landingpad { i8*, i32 }
          catch i8* null, !dbg !4270
  %274 = extractvalue { i8*, i32 } %273, 0, !dbg !4270
  call void @__clang_call_terminate(i8* %274) #19, !dbg !4270
  unreachable, !dbg !4270

275:                                              ; preds = %258, %271
  call void @llvm.lifetime.end.p0i8(i64 24, i8* nonnull %39) #17, !dbg !4271
  call void @llvm.dbg.value(metadata %class.String* %0, metadata !4184, metadata !DIExpression()), !dbg !4272
  call void @llvm.dbg.value(metadata i8* getelementptr inbounds ([2 x i8], [2 x i8]* @.str.17, i64 0, i64 0), metadata !4187, metadata !DIExpression()), !dbg !4272
  call void @llvm.dbg.value(metadata %class.String* %0, metadata !4032, metadata !DIExpression()), !dbg !4274
  call void @llvm.dbg.value(metadata i8* getelementptr inbounds ([2 x i8], [2 x i8]* @.str.17, i64 0, i64 0), metadata !4035, metadata !DIExpression()), !dbg !4274
  invoke void @_ZN6String6appendEPKciPNS_6memo_tE(%class.String* %0, i8* nonnull getelementptr inbounds ([2 x i8], [2 x i8]* @.str.17, i64 0, i64 0), i32 1, %"struct.String::memo_t"* nonnull inttoptr (i64 1 to %"struct.String::memo_t"*))
          to label %276 unwind label %139, !dbg !4276

276:                                              ; preds = %275
  %277 = getelementptr inbounds %"struct.IPRateMonitor::Counter", %"struct.IPRateMonitor::Counter"* %53, i64 0, i32 2, !dbg !4277
  %278 = load %"struct.IPRateMonitor::Stats"*, %"struct.IPRateMonitor::Stats"** %277, align 8, !dbg !4277, !tbaa !3525
  %279 = icmp eq %"struct.IPRateMonitor::Stats"* %278, null, !dbg !4278
  br i1 %279, label %442, label %280, !dbg !4279

280:                                              ; preds = %276
  call void @llvm.lifetime.start.p0i8(i64 24, i8* nonnull %43) #17, !dbg !4280
  call void @llvm.dbg.value(metadata i8* undef, metadata !3976, metadata !DIExpression(DW_OP_deref)), !dbg !4281
  call void @llvm.dbg.value(metadata i8* getelementptr inbounds ([2 x i8], [2 x i8]* @.str.16, i64 0, i64 0), metadata !3974, metadata !DIExpression()), !dbg !4281
  call void @llvm.dbg.value(metadata %class.String* undef, metadata !3975, metadata !DIExpression()), !dbg !4281
  call void @llvm.dbg.value(metadata %class.String* %12, metadata !3875, metadata !DIExpression()), !dbg !4282
  call void @llvm.dbg.value(metadata i8* getelementptr inbounds ([2 x i8], [2 x i8]* @.str.16, i64 0, i64 0), metadata !3878, metadata !DIExpression()), !dbg !4282
  call void @llvm.dbg.value(metadata %class.String* %12, metadata !2935, metadata !DIExpression()), !dbg !3967
  call void @llvm.dbg.value(metadata i8* getelementptr inbounds ([2 x i8], [2 x i8]* @.str.16, i64 0, i64 0), metadata !2938, metadata !DIExpression()), !dbg !3967
  call void @llvm.dbg.value(metadata i32 1, metadata !2939, metadata !DIExpression()), !dbg !3967
  call void @llvm.dbg.value(metadata %"struct.String::memo_t"* null, metadata !2940, metadata !DIExpression()), !dbg !3967
  store i8* getelementptr inbounds ([2 x i8], [2 x i8]* @.str.16, i64 0, i64 0), i8** %44, align 8, !dbg !4283, !tbaa !2946, !alias.scope !4284
  store i32 1, i32* %45, align 8, !dbg !4287, !tbaa !2951, !alias.scope !4284
  store %"struct.String::memo_t"* null, %"struct.String::memo_t"** %46, align 8, !dbg !4288, !tbaa !2955, !alias.scope !4284
  call void @llvm.dbg.value(metadata %class.String* %12, metadata !3931, metadata !DIExpression()), !dbg !4289
  call void @llvm.dbg.value(metadata %class.String* undef, metadata !3932, metadata !DIExpression()), !dbg !4289
  call void @llvm.dbg.value(metadata %class.String* undef, metadata !3111, metadata !DIExpression()), !dbg !4291
  call void @llvm.dbg.value(metadata %class.String* undef, metadata !3102, metadata !DIExpression()), !dbg !4293
  invoke void @_ZN6String6appendEPKciPNS_6memo_tE(%class.String* nonnull %12, i8* %222, i32 %221, %"struct.String::memo_t"* %220)
          to label %299 unwind label %281, !dbg !4295

281:                                              ; preds = %280
  %282 = landingpad { i8*, i32 }
          cleanup, !dbg !4296
  call void @llvm.dbg.value(metadata %class.String* %12, metadata !3120, metadata !DIExpression()) #17, !dbg !4297
  call void @llvm.dbg.value(metadata %class.String* %12, metadata !3125, metadata !DIExpression()) #17, !dbg !4299
  %283 = load %"struct.String::memo_t"*, %"struct.String::memo_t"** %46, align 8, !dbg !4301, !tbaa !2955, !alias.scope !4284
  %284 = icmp eq %"struct.String::memo_t"* %283, null, !dbg !4302
  br i1 %284, label %393, label %285, !dbg !4303

285:                                              ; preds = %281
  %286 = getelementptr inbounds %"struct.String::memo_t", %"struct.String::memo_t"* %283, i64 0, i32 0, !dbg !4304
  %287 = load volatile i32, i32* %286, align 4, !dbg !4304, !tbaa !3137
  %288 = icmp eq i32 %287, 0, !dbg !4304
  br i1 %288, label %289, label %290, !dbg !4304

289:                                              ; preds = %285
  call void @__assert_fail(i8* getelementptr inbounds ([18 x i8], [18 x i8]* @.str.31, i64 0, i64 0), i8* getelementptr inbounds ([29 x i8], [29 x i8]* @.str.32, i64 0, i64 0), i32 273, i8* getelementptr inbounds ([27 x i8], [27 x i8]* @__PRETTY_FUNCTION__._ZNK6String5derefEv, i64 0, i64 0)) #19, !dbg !4304
  unreachable, !dbg !4304

290:                                              ; preds = %285
  call void @llvm.dbg.value(metadata i32* %286, metadata !3139, metadata !DIExpression()) #17, !dbg !4305
  %291 = load volatile i32, i32* %286, align 4, !dbg !4307, !tbaa !3146
  %292 = add i32 %291, -1, !dbg !4307
  store volatile i32 %292, i32* %286, align 4, !dbg !4307, !tbaa !3146
  %293 = icmp eq i32 %292, 0, !dbg !4308
  br i1 %293, label %294, label %295, !dbg !4309

294:                                              ; preds = %290
  invoke void @_ZN6String11delete_memoEPNS_6memo_tE(%"struct.String::memo_t"* nonnull %283)
          to label %295 unwind label %296, !dbg !4310

295:                                              ; preds = %294, %290
  store %"struct.String::memo_t"* null, %"struct.String::memo_t"** %46, align 8, !dbg !4311, !tbaa !2955, !alias.scope !4284
  br label %393, !dbg !4312

296:                                              ; preds = %294
  %297 = landingpad { i8*, i32 }
          catch i8* null, !dbg !4313
  %298 = extractvalue { i8*, i32 } %297, 0, !dbg !4313
  call void @__clang_call_terminate(i8* %298) #19, !dbg !4313
  unreachable, !dbg !4313

299:                                              ; preds = %280
  invoke void @_ZN13IPRateMonitor5printEPNS_5StatsE6String(%class.String* nonnull sret %11, %class.IPRateMonitor* %1, %"struct.IPRateMonitor::Stats"* nonnull %278, %class.String* nonnull %12)
          to label %300 unwind label %396, !dbg !4280

300:                                              ; preds = %299
  call void @llvm.dbg.value(metadata %class.String* %0, metadata !3931, metadata !DIExpression()), !dbg !3984
  call void @llvm.dbg.value(metadata %class.String* %11, metadata !3932, metadata !DIExpression()), !dbg !3984
  call void @llvm.dbg.value(metadata %class.String* %11, metadata !3111, metadata !DIExpression()), !dbg !3979
  %301 = load i8*, i8** %47, align 8, !dbg !4314, !tbaa !2946
  call void @llvm.dbg.value(metadata %class.String* %11, metadata !3102, metadata !DIExpression()), !dbg !3982
  %302 = load i32, i32* %48, align 8, !dbg !4315, !tbaa !2951
  %303 = load %"struct.String::memo_t"*, %"struct.String::memo_t"** %49, align 8, !dbg !4316, !tbaa !2955
  invoke void @_ZN6String6appendEPKciPNS_6memo_tE(%class.String* %0, i8* %301, i32 %302, %"struct.String::memo_t"* %303)
          to label %304 unwind label %400, !dbg !4317

304:                                              ; preds = %300
  call void @llvm.dbg.value(metadata %class.String* %11, metadata !3120, metadata !DIExpression()) #17, !dbg !4318
  call void @llvm.dbg.value(metadata %class.String* %11, metadata !3125, metadata !DIExpression()) #17, !dbg !4320
  %305 = load %"struct.String::memo_t"*, %"struct.String::memo_t"** %49, align 8, !dbg !4322, !tbaa !2955
  %306 = icmp eq %"struct.String::memo_t"* %305, null, !dbg !4323
  br i1 %306, label %321, label %307, !dbg !4324

307:                                              ; preds = %304
  %308 = getelementptr inbounds %"struct.String::memo_t", %"struct.String::memo_t"* %305, i64 0, i32 0, !dbg !4325
  %309 = load volatile i32, i32* %308, align 4, !dbg !4325, !tbaa !3137
  %310 = icmp eq i32 %309, 0, !dbg !4325
  br i1 %310, label %311, label %312, !dbg !4325

311:                                              ; preds = %307
  call void @__assert_fail(i8* getelementptr inbounds ([18 x i8], [18 x i8]* @.str.31, i64 0, i64 0), i8* getelementptr inbounds ([29 x i8], [29 x i8]* @.str.32, i64 0, i64 0), i32 273, i8* getelementptr inbounds ([27 x i8], [27 x i8]* @__PRETTY_FUNCTION__._ZNK6String5derefEv, i64 0, i64 0)) #19, !dbg !4325
  unreachable, !dbg !4325

312:                                              ; preds = %307
  call void @llvm.dbg.value(metadata i32* %308, metadata !3139, metadata !DIExpression()) #17, !dbg !4326
  %313 = load volatile i32, i32* %308, align 4, !dbg !4328, !tbaa !3146
  %314 = add i32 %313, -1, !dbg !4328
  store volatile i32 %314, i32* %308, align 4, !dbg !4328, !tbaa !3146
  %315 = icmp eq i32 %314, 0, !dbg !4329
  br i1 %315, label %316, label %317, !dbg !4330

316:                                              ; preds = %312
  invoke void @_ZN6String11delete_memoEPNS_6memo_tE(%"struct.String::memo_t"* nonnull %305)
          to label %317 unwind label %318, !dbg !4331

317:                                              ; preds = %316, %312
  store %"struct.String::memo_t"* null, %"struct.String::memo_t"** %49, align 8, !dbg !4332, !tbaa !2955
  br label %321, !dbg !4333

318:                                              ; preds = %316
  %319 = landingpad { i8*, i32 }
          catch i8* null, !dbg !4334
  %320 = extractvalue { i8*, i32 } %319, 0, !dbg !4334
  call void @__clang_call_terminate(i8* %320) #19, !dbg !4334
  unreachable, !dbg !4334

321:                                              ; preds = %304, %317
  call void @llvm.dbg.value(metadata %class.String* %12, metadata !3120, metadata !DIExpression()) #17, !dbg !4335
  call void @llvm.dbg.value(metadata %class.String* %12, metadata !3125, metadata !DIExpression()) #17, !dbg !4337
  %322 = load %"struct.String::memo_t"*, %"struct.String::memo_t"** %46, align 8, !dbg !4339, !tbaa !2955
  %323 = icmp eq %"struct.String::memo_t"* %322, null, !dbg !4340
  br i1 %323, label %338, label %324, !dbg !4341

324:                                              ; preds = %321
  %325 = getelementptr inbounds %"struct.String::memo_t", %"struct.String::memo_t"* %322, i64 0, i32 0, !dbg !4342
  %326 = load volatile i32, i32* %325, align 4, !dbg !4342, !tbaa !3137
  %327 = icmp eq i32 %326, 0, !dbg !4342
  br i1 %327, label %328, label %329, !dbg !4342

328:                                              ; preds = %324
  call void @__assert_fail(i8* getelementptr inbounds ([18 x i8], [18 x i8]* @.str.31, i64 0, i64 0), i8* getelementptr inbounds ([29 x i8], [29 x i8]* @.str.32, i64 0, i64 0), i32 273, i8* getelementptr inbounds ([27 x i8], [27 x i8]* @__PRETTY_FUNCTION__._ZNK6String5derefEv, i64 0, i64 0)) #19, !dbg !4342
  unreachable, !dbg !4342

329:                                              ; preds = %324
  call void @llvm.dbg.value(metadata i32* %325, metadata !3139, metadata !DIExpression()) #17, !dbg !4343
  %330 = load volatile i32, i32* %325, align 4, !dbg !4345, !tbaa !3146
  %331 = add i32 %330, -1, !dbg !4345
  store volatile i32 %331, i32* %325, align 4, !dbg !4345, !tbaa !3146
  %332 = icmp eq i32 %331, 0, !dbg !4346
  br i1 %332, label %333, label %334, !dbg !4347

333:                                              ; preds = %329
  invoke void @_ZN6String11delete_memoEPNS_6memo_tE(%"struct.String::memo_t"* nonnull %322)
          to label %334 unwind label %335, !dbg !4348

334:                                              ; preds = %333, %329
  store %"struct.String::memo_t"* null, %"struct.String::memo_t"** %46, align 8, !dbg !4349, !tbaa !2955
  br label %338, !dbg !4350

335:                                              ; preds = %333
  %336 = landingpad { i8*, i32 }
          catch i8* null, !dbg !4351
  %337 = extractvalue { i8*, i32 } %336, 0, !dbg !4351
  call void @__clang_call_terminate(i8* %337) #19, !dbg !4351
  unreachable, !dbg !4351

338:                                              ; preds = %321, %334
  call void @llvm.lifetime.end.p0i8(i64 24, i8* nonnull %43) #17, !dbg !4352
  br label %442, !dbg !4352

339:                                              ; preds = %225
  %340 = landingpad { i8*, i32 }
          cleanup, !dbg !4353
  %341 = extractvalue { i8*, i32 } %340, 0, !dbg !4353
  %342 = extractvalue { i8*, i32 } %340, 1, !dbg !4353
  br label %363, !dbg !4353

343:                                              ; preds = %229
  %344 = landingpad { i8*, i32 }
          cleanup, !dbg !4353
  %345 = extractvalue { i8*, i32 } %344, 0, !dbg !4353
  %346 = extractvalue { i8*, i32 } %344, 1, !dbg !4353
  call void @llvm.dbg.value(metadata %class.String* %9, metadata !3120, metadata !DIExpression()) #17, !dbg !4354
  call void @llvm.dbg.value(metadata %class.String* %9, metadata !3125, metadata !DIExpression()) #17, !dbg !4356
  %347 = load %"struct.String::memo_t"*, %"struct.String::memo_t"** %38, align 8, !dbg !4358, !tbaa !2955
  %348 = icmp eq %"struct.String::memo_t"* %347, null, !dbg !4359
  br i1 %348, label %363, label %349, !dbg !4360

349:                                              ; preds = %343
  %350 = getelementptr inbounds %"struct.String::memo_t", %"struct.String::memo_t"* %347, i64 0, i32 0, !dbg !4361
  %351 = load volatile i32, i32* %350, align 4, !dbg !4361, !tbaa !3137
  %352 = icmp eq i32 %351, 0, !dbg !4361
  br i1 %352, label %353, label %354, !dbg !4361

353:                                              ; preds = %349
  call void @__assert_fail(i8* getelementptr inbounds ([18 x i8], [18 x i8]* @.str.31, i64 0, i64 0), i8* getelementptr inbounds ([29 x i8], [29 x i8]* @.str.32, i64 0, i64 0), i32 273, i8* getelementptr inbounds ([27 x i8], [27 x i8]* @__PRETTY_FUNCTION__._ZNK6String5derefEv, i64 0, i64 0)) #19, !dbg !4361
  unreachable, !dbg !4361

354:                                              ; preds = %349
  call void @llvm.dbg.value(metadata i32* %350, metadata !3139, metadata !DIExpression()) #17, !dbg !4362
  %355 = load volatile i32, i32* %350, align 4, !dbg !4364, !tbaa !3146
  %356 = add i32 %355, -1, !dbg !4364
  store volatile i32 %356, i32* %350, align 4, !dbg !4364, !tbaa !3146
  %357 = icmp eq i32 %356, 0, !dbg !4365
  br i1 %357, label %358, label %359, !dbg !4366

358:                                              ; preds = %354
  invoke void @_ZN6String11delete_memoEPNS_6memo_tE(%"struct.String::memo_t"* nonnull %347)
          to label %359 unwind label %360, !dbg !4367

359:                                              ; preds = %358, %354
  store %"struct.String::memo_t"* null, %"struct.String::memo_t"** %38, align 8, !dbg !4368, !tbaa !2955
  br label %363, !dbg !4369

360:                                              ; preds = %358
  %361 = landingpad { i8*, i32 }
          catch i8* null, !dbg !4370
  %362 = extractvalue { i8*, i32 } %361, 0, !dbg !4370
  call void @__clang_call_terminate(i8* %362) #19, !dbg !4370
  unreachable, !dbg !4370

363:                                              ; preds = %359, %343, %339
  %364 = phi i8* [ %341, %339 ], [ %345, %343 ], [ %345, %359 ], !dbg !4353
  %365 = phi i32 [ %342, %339 ], [ %346, %343 ], [ %346, %359 ], !dbg !4353
  call void @llvm.lifetime.end.p0i8(i64 24, i8* nonnull %35) #17, !dbg !4231
  br label %457, !dbg !4231

366:                                              ; preds = %251
  %367 = landingpad { i8*, i32 }
          cleanup, !dbg !4353
  %368 = extractvalue { i8*, i32 } %367, 0, !dbg !4353
  %369 = extractvalue { i8*, i32 } %367, 1, !dbg !4353
  br label %390, !dbg !4353

370:                                              ; preds = %254
  %371 = landingpad { i8*, i32 }
          cleanup, !dbg !4353
  %372 = extractvalue { i8*, i32 } %371, 0, !dbg !4353
  %373 = extractvalue { i8*, i32 } %371, 1, !dbg !4353
  call void @llvm.dbg.value(metadata %class.String* %10, metadata !3120, metadata !DIExpression()) #17, !dbg !4371
  call void @llvm.dbg.value(metadata %class.String* %10, metadata !3125, metadata !DIExpression()) #17, !dbg !4373
  %374 = load %"struct.String::memo_t"*, %"struct.String::memo_t"** %42, align 8, !dbg !4375, !tbaa !2955
  %375 = icmp eq %"struct.String::memo_t"* %374, null, !dbg !4376
  br i1 %375, label %390, label %376, !dbg !4377

376:                                              ; preds = %370
  %377 = getelementptr inbounds %"struct.String::memo_t", %"struct.String::memo_t"* %374, i64 0, i32 0, !dbg !4378
  %378 = load volatile i32, i32* %377, align 4, !dbg !4378, !tbaa !3137
  %379 = icmp eq i32 %378, 0, !dbg !4378
  br i1 %379, label %380, label %381, !dbg !4378

380:                                              ; preds = %376
  call void @__assert_fail(i8* getelementptr inbounds ([18 x i8], [18 x i8]* @.str.31, i64 0, i64 0), i8* getelementptr inbounds ([29 x i8], [29 x i8]* @.str.32, i64 0, i64 0), i32 273, i8* getelementptr inbounds ([27 x i8], [27 x i8]* @__PRETTY_FUNCTION__._ZNK6String5derefEv, i64 0, i64 0)) #19, !dbg !4378
  unreachable, !dbg !4378

381:                                              ; preds = %376
  call void @llvm.dbg.value(metadata i32* %377, metadata !3139, metadata !DIExpression()) #17, !dbg !4379
  %382 = load volatile i32, i32* %377, align 4, !dbg !4381, !tbaa !3146
  %383 = add i32 %382, -1, !dbg !4381
  store volatile i32 %383, i32* %377, align 4, !dbg !4381, !tbaa !3146
  %384 = icmp eq i32 %383, 0, !dbg !4382
  br i1 %384, label %385, label %386, !dbg !4383

385:                                              ; preds = %381
  invoke void @_ZN6String11delete_memoEPNS_6memo_tE(%"struct.String::memo_t"* nonnull %374)
          to label %386 unwind label %387, !dbg !4384

386:                                              ; preds = %385, %381
  store %"struct.String::memo_t"* null, %"struct.String::memo_t"** %42, align 8, !dbg !4385, !tbaa !2955
  br label %390, !dbg !4386

387:                                              ; preds = %385
  %388 = landingpad { i8*, i32 }
          catch i8* null, !dbg !4387
  %389 = extractvalue { i8*, i32 } %388, 0, !dbg !4387
  call void @__clang_call_terminate(i8* %389) #19, !dbg !4387
  unreachable, !dbg !4387

390:                                              ; preds = %386, %370, %366
  %391 = phi i8* [ %368, %366 ], [ %372, %370 ], [ %372, %386 ], !dbg !4353
  %392 = phi i32 [ %369, %366 ], [ %373, %370 ], [ %373, %386 ], !dbg !4353
  call void @llvm.lifetime.end.p0i8(i64 24, i8* nonnull %39) #17, !dbg !4271
  br label %457, !dbg !4271

393:                                              ; preds = %281, %295
  %394 = extractvalue { i8*, i32 } %282, 0, !dbg !4388
  %395 = extractvalue { i8*, i32 } %282, 1, !dbg !4388
  br label %439, !dbg !4388

396:                                              ; preds = %299
  %397 = landingpad { i8*, i32 }
          cleanup, !dbg !4388
  %398 = extractvalue { i8*, i32 } %397, 0, !dbg !4388
  %399 = extractvalue { i8*, i32 } %397, 1, !dbg !4388
  br label %420, !dbg !4388

400:                                              ; preds = %300
  %401 = landingpad { i8*, i32 }
          cleanup, !dbg !4388
  %402 = extractvalue { i8*, i32 } %401, 0, !dbg !4388
  %403 = extractvalue { i8*, i32 } %401, 1, !dbg !4388
  call void @llvm.dbg.value(metadata %class.String* %11, metadata !3120, metadata !DIExpression()) #17, !dbg !4389
  call void @llvm.dbg.value(metadata %class.String* %11, metadata !3125, metadata !DIExpression()) #17, !dbg !4391
  %404 = load %"struct.String::memo_t"*, %"struct.String::memo_t"** %49, align 8, !dbg !4393, !tbaa !2955
  %405 = icmp eq %"struct.String::memo_t"* %404, null, !dbg !4394
  br i1 %405, label %420, label %406, !dbg !4395

406:                                              ; preds = %400
  %407 = getelementptr inbounds %"struct.String::memo_t", %"struct.String::memo_t"* %404, i64 0, i32 0, !dbg !4396
  %408 = load volatile i32, i32* %407, align 4, !dbg !4396, !tbaa !3137
  %409 = icmp eq i32 %408, 0, !dbg !4396
  br i1 %409, label %410, label %411, !dbg !4396

410:                                              ; preds = %406
  call void @__assert_fail(i8* getelementptr inbounds ([18 x i8], [18 x i8]* @.str.31, i64 0, i64 0), i8* getelementptr inbounds ([29 x i8], [29 x i8]* @.str.32, i64 0, i64 0), i32 273, i8* getelementptr inbounds ([27 x i8], [27 x i8]* @__PRETTY_FUNCTION__._ZNK6String5derefEv, i64 0, i64 0)) #19, !dbg !4396
  unreachable, !dbg !4396

411:                                              ; preds = %406
  call void @llvm.dbg.value(metadata i32* %407, metadata !3139, metadata !DIExpression()) #17, !dbg !4397
  %412 = load volatile i32, i32* %407, align 4, !dbg !4399, !tbaa !3146
  %413 = add i32 %412, -1, !dbg !4399
  store volatile i32 %413, i32* %407, align 4, !dbg !4399, !tbaa !3146
  %414 = icmp eq i32 %413, 0, !dbg !4400
  br i1 %414, label %415, label %416, !dbg !4401

415:                                              ; preds = %411
  invoke void @_ZN6String11delete_memoEPNS_6memo_tE(%"struct.String::memo_t"* nonnull %404)
          to label %416 unwind label %417, !dbg !4402

416:                                              ; preds = %415, %411
  store %"struct.String::memo_t"* null, %"struct.String::memo_t"** %49, align 8, !dbg !4403, !tbaa !2955
  br label %420, !dbg !4404

417:                                              ; preds = %415
  %418 = landingpad { i8*, i32 }
          catch i8* null, !dbg !4405
  %419 = extractvalue { i8*, i32 } %418, 0, !dbg !4405
  call void @__clang_call_terminate(i8* %419) #19, !dbg !4405
  unreachable, !dbg !4405

420:                                              ; preds = %416, %400, %396
  %421 = phi i8* [ %398, %396 ], [ %402, %400 ], [ %402, %416 ], !dbg !4388
  %422 = phi i32 [ %399, %396 ], [ %403, %400 ], [ %403, %416 ], !dbg !4388
  call void @llvm.dbg.value(metadata %class.String* %12, metadata !3120, metadata !DIExpression()) #17, !dbg !4406
  call void @llvm.dbg.value(metadata %class.String* %12, metadata !3125, metadata !DIExpression()) #17, !dbg !4408
  %423 = load %"struct.String::memo_t"*, %"struct.String::memo_t"** %46, align 8, !dbg !4410, !tbaa !2955
  %424 = icmp eq %"struct.String::memo_t"* %423, null, !dbg !4411
  br i1 %424, label %439, label %425, !dbg !4412

425:                                              ; preds = %420
  %426 = getelementptr inbounds %"struct.String::memo_t", %"struct.String::memo_t"* %423, i64 0, i32 0, !dbg !4413
  %427 = load volatile i32, i32* %426, align 4, !dbg !4413, !tbaa !3137
  %428 = icmp eq i32 %427, 0, !dbg !4413
  br i1 %428, label %429, label %430, !dbg !4413

429:                                              ; preds = %425
  call void @__assert_fail(i8* getelementptr inbounds ([18 x i8], [18 x i8]* @.str.31, i64 0, i64 0), i8* getelementptr inbounds ([29 x i8], [29 x i8]* @.str.32, i64 0, i64 0), i32 273, i8* getelementptr inbounds ([27 x i8], [27 x i8]* @__PRETTY_FUNCTION__._ZNK6String5derefEv, i64 0, i64 0)) #19, !dbg !4413
  unreachable, !dbg !4413

430:                                              ; preds = %425
  call void @llvm.dbg.value(metadata i32* %426, metadata !3139, metadata !DIExpression()) #17, !dbg !4414
  %431 = load volatile i32, i32* %426, align 4, !dbg !4416, !tbaa !3146
  %432 = add i32 %431, -1, !dbg !4416
  store volatile i32 %432, i32* %426, align 4, !dbg !4416, !tbaa !3146
  %433 = icmp eq i32 %432, 0, !dbg !4417
  br i1 %433, label %434, label %435, !dbg !4418

434:                                              ; preds = %430
  invoke void @_ZN6String11delete_memoEPNS_6memo_tE(%"struct.String::memo_t"* nonnull %423)
          to label %435 unwind label %436, !dbg !4419

435:                                              ; preds = %434, %430
  store %"struct.String::memo_t"* null, %"struct.String::memo_t"** %46, align 8, !dbg !4420, !tbaa !2955
  br label %439, !dbg !4421

436:                                              ; preds = %434
  %437 = landingpad { i8*, i32 }
          catch i8* null, !dbg !4422
  %438 = extractvalue { i8*, i32 } %437, 0, !dbg !4422
  call void @__clang_call_terminate(i8* %438) #19, !dbg !4422
  unreachable, !dbg !4422

439:                                              ; preds = %435, %420, %393
  %440 = phi i8* [ %394, %393 ], [ %421, %420 ], [ %421, %435 ], !dbg !4388
  %441 = phi i32 [ %395, %393 ], [ %422, %420 ], [ %422, %435 ], !dbg !4388
  call void @llvm.lifetime.end.p0i8(i64 24, i8* nonnull %43) #17, !dbg !4352
  br label %457, !dbg !4352

442:                                              ; preds = %276, %338
  call void @llvm.dbg.value(metadata %class.String* undef, metadata !3120, metadata !DIExpression()) #17, !dbg !4423
  call void @llvm.dbg.value(metadata %class.String* undef, metadata !3125, metadata !DIExpression()) #17, !dbg !4425
  %443 = icmp eq %"struct.String::memo_t"* %220, null, !dbg !4427
  br i1 %443, label %474, label %444, !dbg !4428

444:                                              ; preds = %442
  %445 = getelementptr inbounds %"struct.String::memo_t", %"struct.String::memo_t"* %220, i64 0, i32 0, !dbg !4429
  %446 = load volatile i32, i32* %445, align 4, !dbg !4429, !tbaa !3137
  %447 = icmp eq i32 %446, 0, !dbg !4429
  br i1 %447, label %448, label %449, !dbg !4429

448:                                              ; preds = %444
  call void @__assert_fail(i8* getelementptr inbounds ([18 x i8], [18 x i8]* @.str.31, i64 0, i64 0), i8* getelementptr inbounds ([29 x i8], [29 x i8]* @.str.32, i64 0, i64 0), i32 273, i8* getelementptr inbounds ([27 x i8], [27 x i8]* @__PRETTY_FUNCTION__._ZNK6String5derefEv, i64 0, i64 0)) #19, !dbg !4429
  unreachable, !dbg !4429

449:                                              ; preds = %444
  call void @llvm.dbg.value(metadata i32* %445, metadata !3139, metadata !DIExpression()) #17, !dbg !4430
  %450 = load volatile i32, i32* %445, align 4, !dbg !4432, !tbaa !3146
  %451 = add i32 %450, -1, !dbg !4432
  store volatile i32 %451, i32* %445, align 4, !dbg !4432, !tbaa !3146
  %452 = icmp eq i32 %451, 0, !dbg !4433
  br i1 %452, label %453, label %474, !dbg !4434

453:                                              ; preds = %449
  invoke void @_ZN6String11delete_memoEPNS_6memo_tE(%"struct.String::memo_t"* nonnull %220)
          to label %474 unwind label %454, !dbg !4435

454:                                              ; preds = %453
  %455 = landingpad { i8*, i32 }
          catch i8* null, !dbg !4436
  %456 = extractvalue { i8*, i32 } %455, 0, !dbg !4436
  call void @__clang_call_terminate(i8* %456) #19, !dbg !4436
  unreachable, !dbg !4436

457:                                              ; preds = %439, %390, %363, %139
  %458 = phi i8* [ %440, %439 ], [ %141, %139 ], [ %391, %390 ], [ %364, %363 ], !dbg !3952
  %459 = phi i32 [ %441, %439 ], [ %142, %139 ], [ %392, %390 ], [ %365, %363 ], !dbg !3952
  call void @llvm.dbg.value(metadata %"struct.String::memo_t"* %220, metadata !3870, metadata !DIExpression(DW_OP_LLVM_fragment, 128, 64)), !dbg !3952
  call void @llvm.dbg.value(metadata %class.String* undef, metadata !3120, metadata !DIExpression()) #17, !dbg !4437
  call void @llvm.dbg.value(metadata %class.String* undef, metadata !3125, metadata !DIExpression()) #17, !dbg !4439
  %460 = icmp eq %"struct.String::memo_t"* %220, null, !dbg !4441
  br i1 %460, label %477, label %461, !dbg !4442

461:                                              ; preds = %457
  %462 = getelementptr inbounds %"struct.String::memo_t", %"struct.String::memo_t"* %220, i64 0, i32 0, !dbg !4443
  %463 = load volatile i32, i32* %462, align 4, !dbg !4443, !tbaa !3137
  %464 = icmp eq i32 %463, 0, !dbg !4443
  br i1 %464, label %465, label %466, !dbg !4443

465:                                              ; preds = %461
  call void @__assert_fail(i8* getelementptr inbounds ([18 x i8], [18 x i8]* @.str.31, i64 0, i64 0), i8* getelementptr inbounds ([29 x i8], [29 x i8]* @.str.32, i64 0, i64 0), i32 273, i8* getelementptr inbounds ([27 x i8], [27 x i8]* @__PRETTY_FUNCTION__._ZNK6String5derefEv, i64 0, i64 0)) #19, !dbg !4443
  unreachable, !dbg !4443

466:                                              ; preds = %461
  call void @llvm.dbg.value(metadata i32* %462, metadata !3139, metadata !DIExpression()) #17, !dbg !4444
  %467 = load volatile i32, i32* %462, align 4, !dbg !4446, !tbaa !3146
  %468 = add i32 %467, -1, !dbg !4446
  store volatile i32 %468, i32* %462, align 4, !dbg !4446, !tbaa !3146
  %469 = icmp eq i32 %468, 0, !dbg !4447
  br i1 %469, label %470, label %477, !dbg !4448

470:                                              ; preds = %466
  invoke void @_ZN6String11delete_memoEPNS_6memo_tE(%"struct.String::memo_t"* nonnull %220)
          to label %477 unwind label %471, !dbg !4449

471:                                              ; preds = %470
  %472 = landingpad { i8*, i32 }
          catch i8* null, !dbg !4450
  %473 = extractvalue { i8*, i32 } %472, 0, !dbg !4450
  call void @__clang_call_terminate(i8* %473) #19, !dbg !4450
  unreachable, !dbg !4450

474:                                              ; preds = %442, %453, %449, %60, %50
  %475 = add nuw nsw i64 %51, 1, !dbg !4451
  call void @llvm.dbg.value(metadata i64 %475, metadata !3865, metadata !DIExpression()), !dbg !3891
  %476 = icmp eq i64 %475, 256, !dbg !4452
  br i1 %476, label %499, label %50, !dbg !3985, !llvm.loop !4453

477:                                              ; preds = %190, %205, %215, %466, %470, %457
  %478 = phi i8* [ %458, %457 ], [ %458, %470 ], [ %458, %466 ], [ %191, %205 ], [ %191, %190 ], [ %217, %215 ], !dbg !4455
  %479 = phi i32 [ %459, %457 ], [ %459, %470 ], [ %459, %466 ], [ %192, %205 ], [ %192, %190 ], [ %218, %215 ], !dbg !4455
  call void @llvm.dbg.value(metadata %class.String* %0, metadata !3120, metadata !DIExpression()) #17, !dbg !4456
  call void @llvm.dbg.value(metadata %class.String* %0, metadata !3125, metadata !DIExpression()) #17, !dbg !4458
  %480 = load %"struct.String::memo_t"*, %"struct.String::memo_t"** %15, align 8, !dbg !4460, !tbaa !2955
  %481 = icmp eq %"struct.String::memo_t"* %480, null, !dbg !4461
  br i1 %481, label %496, label %482, !dbg !4462

482:                                              ; preds = %477
  %483 = getelementptr inbounds %"struct.String::memo_t", %"struct.String::memo_t"* %480, i64 0, i32 0, !dbg !4463
  %484 = load volatile i32, i32* %483, align 4, !dbg !4463, !tbaa !3137
  %485 = icmp eq i32 %484, 0, !dbg !4463
  br i1 %485, label %486, label %487, !dbg !4463

486:                                              ; preds = %482
  call void @__assert_fail(i8* getelementptr inbounds ([18 x i8], [18 x i8]* @.str.31, i64 0, i64 0), i8* getelementptr inbounds ([29 x i8], [29 x i8]* @.str.32, i64 0, i64 0), i32 273, i8* getelementptr inbounds ([27 x i8], [27 x i8]* @__PRETTY_FUNCTION__._ZNK6String5derefEv, i64 0, i64 0)) #19, !dbg !4463
  unreachable, !dbg !4463

487:                                              ; preds = %482
  call void @llvm.dbg.value(metadata i32* %483, metadata !3139, metadata !DIExpression()) #17, !dbg !4464
  %488 = load volatile i32, i32* %483, align 4, !dbg !4466, !tbaa !3146
  %489 = add i32 %488, -1, !dbg !4466
  store volatile i32 %489, i32* %483, align 4, !dbg !4466, !tbaa !3146
  %490 = icmp eq i32 %489, 0, !dbg !4467
  br i1 %490, label %491, label %492, !dbg !4468

491:                                              ; preds = %487
  invoke void @_ZN6String11delete_memoEPNS_6memo_tE(%"struct.String::memo_t"* nonnull %480)
          to label %492 unwind label %493, !dbg !4469

492:                                              ; preds = %491, %487
  store %"struct.String::memo_t"* null, %"struct.String::memo_t"** %15, align 8, !dbg !4470, !tbaa !2955
  br label %496, !dbg !4471

493:                                              ; preds = %491
  %494 = landingpad { i8*, i32 }
          catch i8* null, !dbg !4472
  %495 = extractvalue { i8*, i32 } %494, 0, !dbg !4472
  call void @__clang_call_terminate(i8* %495) #19, !dbg !4472
  unreachable, !dbg !4472

496:                                              ; preds = %477, %492
  %497 = insertvalue { i8*, i32 } undef, i8* %478, 0, !dbg !4473
  %498 = insertvalue { i8*, i32 } %497, i32 %479, 1, !dbg !4473
  resume { i8*, i32 } %498, !dbg !4473

499:                                              ; preds = %474
  ret void, !dbg !4473
}

declare void @_ZN6StringC1Ei(%class.String*, i32) unnamed_addr #2

; Function Attrs: sspstrong uwtable
define dso_local void @_ZN13IPRateMonitor17look_read_handlerEP7ElementPv(%class.String* noalias nocapture sret %0, %class.Element* nocapture readonly %1, i8* nocapture readnone %2) #0 align 2 personality i8* bitcast (i32 (...)* @__gxx_personality_v0 to i8*) !dbg !4474 {
  %4 = alloca %class.String, align 8
  %5 = alloca %class.String, align 8
  %6 = alloca %class.String, align 8
  %7 = alloca %class.String, align 8
  call void @llvm.dbg.value(metadata %class.Element* %1, metadata !4476, metadata !DIExpression()), !dbg !4480
  call void @llvm.dbg.value(metadata i8* undef, metadata !4477, metadata !DIExpression()), !dbg !4480
  %8 = bitcast %class.Element* %1 to %class.IPRateMonitor*, !dbg !4481
  call void @llvm.dbg.value(metadata %class.IPRateMonitor* %8, metadata !4478, metadata !DIExpression()), !dbg !4480
  %9 = tail call i32 @_Z13click_jiffiesv(), !dbg !4482
  %10 = lshr i32 %9, 3, !dbg !4484
  %11 = zext i32 %10 to i64, !dbg !4485
  %12 = getelementptr inbounds %class.Element, %class.Element* %1, i64 1, i32 2, i64 1, !dbg !4486
  %13 = bitcast %"class.Element::Port"* %12 to i64*, !dbg !4486
  %14 = load i64, i64* %13, align 8, !dbg !4486, !tbaa !3262
  %15 = sub i64 %11, %14, !dbg !4487
  call void @_ZN6StringC1Em(%class.String* nonnull %4, i64 %15), !dbg !4488
  call void @llvm.dbg.declare(metadata %class.String* %4, metadata !3923, metadata !DIExpression()), !dbg !4489
  call void @llvm.dbg.value(metadata i8* getelementptr inbounds ([2 x i8], [2 x i8]* @.str.17, i64 0, i64 0), metadata !3924, metadata !DIExpression()), !dbg !4491
  call void @llvm.dbg.value(metadata %class.String* %4, metadata !4032, metadata !DIExpression()), !dbg !4492
  call void @llvm.dbg.value(metadata i8* getelementptr inbounds ([2 x i8], [2 x i8]* @.str.17, i64 0, i64 0), metadata !4035, metadata !DIExpression()), !dbg !4492
  invoke void @_ZN6String6appendEPKciPNS_6memo_tE(%class.String* nonnull %4, i8* nonnull getelementptr inbounds ([2 x i8], [2 x i8]* @.str.17, i64 0, i64 0), i32 1, %"struct.String::memo_t"* nonnull inttoptr (i64 1 to %"struct.String::memo_t"*))
          to label %16 unwind label %98, !dbg !4494

16:                                               ; preds = %3
  call void @llvm.dbg.value(metadata %class.String* undef, metadata !3916, metadata !DIExpression()) #17, !dbg !4495
  call void @llvm.dbg.value(metadata %class.String* %4, metadata !3917, metadata !DIExpression()) #17, !dbg !4495
  %17 = bitcast %class.String* %4 to i64*, !dbg !4497
  %18 = load i64, i64* %17, align 8, !dbg !4497, !tbaa.struct !4041
  call void @llvm.dbg.value(metadata i64 %18, metadata !4479, metadata !DIExpression(DW_OP_LLVM_fragment, 0, 64)), !dbg !4480
  %19 = getelementptr inbounds %class.String, %class.String* %4, i64 0, i32 0, i32 1, !dbg !4497
  %20 = load i32, i32* %19, align 8, !dbg !4497, !tbaa.struct !4041
  call void @llvm.dbg.value(metadata i32 %20, metadata !4479, metadata !DIExpression(DW_OP_LLVM_fragment, 64, 32)), !dbg !4480
  call void @llvm.dbg.value(metadata i32 undef, metadata !4479, metadata !DIExpression(DW_OP_LLVM_fragment, 96, 32)), !dbg !4480
  %21 = getelementptr inbounds %class.String, %class.String* %4, i64 0, i32 0, i32 2, !dbg !4497
  %22 = load %"struct.String::memo_t"*, %"struct.String::memo_t"** %21, align 8, !dbg !4497, !tbaa.struct !4041
  call void @llvm.dbg.value(metadata %"struct.String::memo_t"* %22, metadata !4479, metadata !DIExpression(DW_OP_LLVM_fragment, 128, 64)), !dbg !4480
  store %"struct.String::memo_t"* null, %"struct.String::memo_t"** %21, align 8, !dbg !4498, !tbaa !2955, !noalias !4499
  call void @llvm.dbg.value(metadata %class.String* %4, metadata !3120, metadata !DIExpression()) #17, !dbg !4502
  call void @llvm.dbg.value(metadata %class.String* %4, metadata !3125, metadata !DIExpression()) #17, !dbg !4504
  call void @llvm.dbg.value(metadata %class.String* %5, metadata !3907, metadata !DIExpression()), !dbg !4506
  call void @llvm.dbg.value(metadata %class.String* undef, metadata !3908, metadata !DIExpression()), !dbg !4506
  call void @llvm.dbg.value(metadata %class.String* %5, metadata !3901, metadata !DIExpression()), !dbg !4510
  call void @llvm.dbg.value(metadata %class.String* undef, metadata !3902, metadata !DIExpression()), !dbg !4510
  call void @llvm.dbg.value(metadata %class.String* %5, metadata !2935, metadata !DIExpression()), !dbg !4512
  call void @llvm.dbg.value(metadata i8* undef, metadata !2938, metadata !DIExpression()), !dbg !4512
  call void @llvm.dbg.value(metadata i32 %20, metadata !2939, metadata !DIExpression()), !dbg !4512
  call void @llvm.dbg.value(metadata %"struct.String::memo_t"* %22, metadata !2940, metadata !DIExpression()), !dbg !4512
  %23 = bitcast %class.String* %5 to i64*, !dbg !4514
  store i64 %18, i64* %23, align 8, !dbg !4514, !tbaa !2946
  %24 = getelementptr inbounds %class.String, %class.String* %5, i64 0, i32 0, i32 1, !dbg !4515
  store i32 %20, i32* %24, align 8, !dbg !4516, !tbaa !2951
  %25 = getelementptr inbounds %class.String, %class.String* %5, i64 0, i32 0, i32 2, !dbg !4517
  store %"struct.String::memo_t"* %22, %"struct.String::memo_t"** %25, align 8, !dbg !4518, !tbaa !2955
  %26 = icmp eq %"struct.String::memo_t"* %22, null, !dbg !4519
  br i1 %26, label %31, label %27, !dbg !4520

27:                                               ; preds = %16
  %28 = getelementptr inbounds %"struct.String::memo_t", %"struct.String::memo_t"* %22, i64 0, i32 0, !dbg !4521
  call void @llvm.dbg.value(metadata i32* %28, metadata !4023, metadata !DIExpression()), !dbg !4522
  %29 = load volatile i32, i32* %28, align 4, !dbg !4524, !tbaa !3146
  %30 = add i32 %29, 1, !dbg !4524
  store volatile i32 %30, i32* %28, align 4, !dbg !4524, !tbaa !3146
  br label %31, !dbg !4525

31:                                               ; preds = %27, %16
  %32 = bitcast %class.String* %6 to i8*, !dbg !4526
  call void @llvm.lifetime.start.p0i8(i64 24, i8* nonnull %32) #17, !dbg !4526
  %33 = getelementptr inbounds %class.Element, %class.Element* %1, i64 1, i32 2, i64 0, i32 1, !dbg !4527
  %34 = bitcast i32* %33 to %"struct.IPRateMonitor::Stats"**, !dbg !4527
  %35 = load %"struct.IPRateMonitor::Stats"*, %"struct.IPRateMonitor::Stats"** %34, align 8, !dbg !4527, !tbaa !3293
  call void @llvm.dbg.value(metadata %class.String* %7, metadata !3875, metadata !DIExpression()), !dbg !4528
  call void @llvm.dbg.value(metadata i8* getelementptr inbounds ([1 x i8], [1 x i8]* @.str.14, i64 0, i64 0), metadata !3878, metadata !DIExpression()), !dbg !4528
  call void @llvm.dbg.value(metadata %class.String* %7, metadata !2935, metadata !DIExpression()), !dbg !4530
  call void @llvm.dbg.value(metadata i8* getelementptr inbounds ([1 x i8], [1 x i8]* @.str.14, i64 0, i64 0), metadata !2938, metadata !DIExpression()), !dbg !4530
  call void @llvm.dbg.value(metadata i32 0, metadata !2939, metadata !DIExpression()), !dbg !4530
  call void @llvm.dbg.value(metadata %"struct.String::memo_t"* null, metadata !2940, metadata !DIExpression()), !dbg !4530
  %36 = getelementptr inbounds %class.String, %class.String* %7, i64 0, i32 0, i32 0, !dbg !4532
  store i8* getelementptr inbounds ([1 x i8], [1 x i8]* @.str.14, i64 0, i64 0), i8** %36, align 8, !dbg !4533, !tbaa !2946
  %37 = getelementptr inbounds %class.String, %class.String* %7, i64 0, i32 0, i32 1, !dbg !4534
  store i32 0, i32* %37, align 8, !dbg !4535, !tbaa !2951
  %38 = getelementptr inbounds %class.String, %class.String* %7, i64 0, i32 0, i32 2, !dbg !4536
  store %"struct.String::memo_t"* null, %"struct.String::memo_t"** %38, align 8, !dbg !4537, !tbaa !2955
  invoke void @_ZN13IPRateMonitor5printEPNS_5StatsE6String(%class.String* nonnull sret %6, %class.IPRateMonitor* nonnull %8, %"struct.IPRateMonitor::Stats"* %35, %class.String* nonnull %7)
          to label %39 unwind label %119, !dbg !4538

39:                                               ; preds = %31
  call void @llvm.dbg.declare(metadata %class.String* %5, metadata !3938, metadata !DIExpression()), !dbg !4539
  call void @llvm.dbg.value(metadata %class.String* %6, metadata !3939, metadata !DIExpression()), !dbg !4541
  call void @llvm.dbg.value(metadata %class.String* %5, metadata !3931, metadata !DIExpression()), !dbg !4542
  call void @llvm.dbg.value(metadata %class.String* %6, metadata !3932, metadata !DIExpression()), !dbg !4542
  call void @llvm.dbg.value(metadata %class.String* %6, metadata !3111, metadata !DIExpression()), !dbg !4544
  %40 = getelementptr inbounds %class.String, %class.String* %6, i64 0, i32 0, i32 0, !dbg !4546
  %41 = load i8*, i8** %40, align 8, !dbg !4546, !tbaa !2946, !noalias !4547
  call void @llvm.dbg.value(metadata %class.String* %6, metadata !3102, metadata !DIExpression()), !dbg !4550
  %42 = getelementptr inbounds %class.String, %class.String* %6, i64 0, i32 0, i32 1, !dbg !4552
  %43 = load i32, i32* %42, align 8, !dbg !4552, !tbaa !2951, !noalias !4547
  %44 = getelementptr inbounds %class.String, %class.String* %6, i64 0, i32 0, i32 2, !dbg !4553
  %45 = load %"struct.String::memo_t"*, %"struct.String::memo_t"** %44, align 8, !dbg !4553, !tbaa !2955, !noalias !4547
  invoke void @_ZN6String6appendEPKciPNS_6memo_tE(%class.String* nonnull %5, i8* %41, i32 %43, %"struct.String::memo_t"* %45)
          to label %46 unwind label %123, !dbg !4554

46:                                               ; preds = %39
  call void @llvm.dbg.value(metadata %class.String* undef, metadata !3916, metadata !DIExpression()) #17, !dbg !4555
  call void @llvm.dbg.value(metadata %class.String* %5, metadata !3917, metadata !DIExpression()) #17, !dbg !4555
  %47 = bitcast %class.String* %5 to i8*, !dbg !4557
  %48 = load i64, i64* %23, align 8, !dbg !4557, !tbaa.struct !4041
  %49 = load i32, i32* %24, align 8, !dbg !4557, !tbaa.struct !4041
  %50 = getelementptr inbounds i8, i8* %47, i64 12, !dbg !4557
  %51 = bitcast i8* %50 to i32*, !dbg !4557
  %52 = load i32, i32* %51, align 4, !dbg !4557, !tbaa.struct !4041
  %53 = load %"struct.String::memo_t"*, %"struct.String::memo_t"** %25, align 8, !dbg !4557, !tbaa.struct !4041
  store %"struct.String::memo_t"* null, %"struct.String::memo_t"** %25, align 8, !dbg !4558, !tbaa !2955, !noalias !4547
  call void @llvm.dbg.value(metadata %class.String* undef, metadata !3949, metadata !DIExpression()), !dbg !4559
  call void @llvm.dbg.value(metadata %class.String* undef, metadata !3950, metadata !DIExpression()), !dbg !4559
  call void @llvm.dbg.value(metadata %class.String* undef, metadata !3125, metadata !DIExpression()), !dbg !4561
  br i1 %26, label %64, label %54, !dbg !4563

54:                                               ; preds = %46
  %55 = getelementptr inbounds %"struct.String::memo_t", %"struct.String::memo_t"* %22, i64 0, i32 0, !dbg !4564
  %56 = load volatile i32, i32* %55, align 4, !dbg !4564, !tbaa !3137
  %57 = icmp eq i32 %56, 0, !dbg !4564
  br i1 %57, label %58, label %59, !dbg !4564

58:                                               ; preds = %54
  call void @__assert_fail(i8* getelementptr inbounds ([18 x i8], [18 x i8]* @.str.31, i64 0, i64 0), i8* getelementptr inbounds ([29 x i8], [29 x i8]* @.str.32, i64 0, i64 0), i32 273, i8* getelementptr inbounds ([27 x i8], [27 x i8]* @__PRETTY_FUNCTION__._ZNK6String5derefEv, i64 0, i64 0)) #19, !dbg !4564
  unreachable, !dbg !4564

59:                                               ; preds = %54
  call void @llvm.dbg.value(metadata i32* %55, metadata !3139, metadata !DIExpression()), !dbg !4565
  %60 = load volatile i32, i32* %55, align 4, !dbg !4567, !tbaa !3146
  %61 = add i32 %60, -1, !dbg !4567
  store volatile i32 %61, i32* %55, align 4, !dbg !4567, !tbaa !3146
  %62 = icmp eq i32 %61, 0, !dbg !4568
  br i1 %62, label %63, label %64, !dbg !4569

63:                                               ; preds = %59
  invoke void @_ZN6String11delete_memoEPNS_6memo_tE(%"struct.String::memo_t"* nonnull %22)
          to label %64 unwind label %127, !dbg !4570

64:                                               ; preds = %59, %63, %46
  call void @llvm.dbg.value(metadata %class.String* %6, metadata !3120, metadata !DIExpression()) #17, !dbg !4571
  call void @llvm.dbg.value(metadata %class.String* %6, metadata !3125, metadata !DIExpression()) #17, !dbg !4573
  %65 = load %"struct.String::memo_t"*, %"struct.String::memo_t"** %44, align 8, !dbg !4575, !tbaa !2955
  %66 = icmp eq %"struct.String::memo_t"* %65, null, !dbg !4576
  br i1 %66, label %81, label %67, !dbg !4577

67:                                               ; preds = %64
  %68 = getelementptr inbounds %"struct.String::memo_t", %"struct.String::memo_t"* %65, i64 0, i32 0, !dbg !4578
  %69 = load volatile i32, i32* %68, align 4, !dbg !4578, !tbaa !3137
  %70 = icmp eq i32 %69, 0, !dbg !4578
  br i1 %70, label %71, label %72, !dbg !4578

71:                                               ; preds = %67
  call void @__assert_fail(i8* getelementptr inbounds ([18 x i8], [18 x i8]* @.str.31, i64 0, i64 0), i8* getelementptr inbounds ([29 x i8], [29 x i8]* @.str.32, i64 0, i64 0), i32 273, i8* getelementptr inbounds ([27 x i8], [27 x i8]* @__PRETTY_FUNCTION__._ZNK6String5derefEv, i64 0, i64 0)) #19, !dbg !4578
  unreachable, !dbg !4578

72:                                               ; preds = %67
  call void @llvm.dbg.value(metadata i32* %68, metadata !3139, metadata !DIExpression()) #17, !dbg !4579
  %73 = load volatile i32, i32* %68, align 4, !dbg !4581, !tbaa !3146
  %74 = add i32 %73, -1, !dbg !4581
  store volatile i32 %74, i32* %68, align 4, !dbg !4581, !tbaa !3146
  %75 = icmp eq i32 %74, 0, !dbg !4582
  br i1 %75, label %76, label %77, !dbg !4583

76:                                               ; preds = %72
  invoke void @_ZN6String11delete_memoEPNS_6memo_tE(%"struct.String::memo_t"* nonnull %65)
          to label %77 unwind label %78, !dbg !4584

77:                                               ; preds = %76, %72
  store %"struct.String::memo_t"* null, %"struct.String::memo_t"** %44, align 8, !dbg !4585, !tbaa !2955
  br label %81, !dbg !4586

78:                                               ; preds = %76
  %79 = landingpad { i8*, i32 }
          catch i8* null, !dbg !4587
  %80 = extractvalue { i8*, i32 } %79, 0, !dbg !4587
  call void @__clang_call_terminate(i8* %80) #19, !dbg !4587
  unreachable, !dbg !4587

81:                                               ; preds = %77, %64
  call void @llvm.lifetime.end.p0i8(i64 24, i8* nonnull %32) #17, !dbg !4588
  call void @llvm.dbg.value(metadata %class.String* %5, metadata !3120, metadata !DIExpression()) #17, !dbg !4589
  call void @llvm.dbg.value(metadata %class.String* %5, metadata !3125, metadata !DIExpression()) #17, !dbg !4591
  %82 = load %"struct.String::memo_t"*, %"struct.String::memo_t"** %25, align 8, !dbg !4593, !tbaa !2955
  %83 = icmp eq %"struct.String::memo_t"* %82, null, !dbg !4594
  br i1 %83, label %183, label %84, !dbg !4595

84:                                               ; preds = %81
  %85 = getelementptr inbounds %"struct.String::memo_t", %"struct.String::memo_t"* %82, i64 0, i32 0, !dbg !4596
  %86 = load volatile i32, i32* %85, align 4, !dbg !4596, !tbaa !3137
  %87 = icmp eq i32 %86, 0, !dbg !4596
  br i1 %87, label %88, label %89, !dbg !4596

88:                                               ; preds = %84
  call void @__assert_fail(i8* getelementptr inbounds ([18 x i8], [18 x i8]* @.str.31, i64 0, i64 0), i8* getelementptr inbounds ([29 x i8], [29 x i8]* @.str.32, i64 0, i64 0), i32 273, i8* getelementptr inbounds ([27 x i8], [27 x i8]* @__PRETTY_FUNCTION__._ZNK6String5derefEv, i64 0, i64 0)) #19, !dbg !4596
  unreachable, !dbg !4596

89:                                               ; preds = %84
  call void @llvm.dbg.value(metadata i32* %85, metadata !3139, metadata !DIExpression()) #17, !dbg !4597
  %90 = load volatile i32, i32* %85, align 4, !dbg !4599, !tbaa !3146
  %91 = add i32 %90, -1, !dbg !4599
  store volatile i32 %91, i32* %85, align 4, !dbg !4599, !tbaa !3146
  %92 = icmp eq i32 %91, 0, !dbg !4600
  br i1 %92, label %93, label %94, !dbg !4601

93:                                               ; preds = %89
  invoke void @_ZN6String11delete_memoEPNS_6memo_tE(%"struct.String::memo_t"* nonnull %82)
          to label %94 unwind label %95, !dbg !4602

94:                                               ; preds = %93, %89
  store %"struct.String::memo_t"* null, %"struct.String::memo_t"** %25, align 8, !dbg !4603, !tbaa !2955
  br label %183, !dbg !4604

95:                                               ; preds = %93
  %96 = landingpad { i8*, i32 }
          catch i8* null, !dbg !4605
  %97 = extractvalue { i8*, i32 } %96, 0, !dbg !4605
  call void @__clang_call_terminate(i8* %97) #19, !dbg !4605
  unreachable, !dbg !4605

98:                                               ; preds = %3
  %99 = landingpad { i8*, i32 }
          cleanup, !dbg !4606
  %100 = extractvalue { i8*, i32 } %99, 0, !dbg !4606
  %101 = extractvalue { i8*, i32 } %99, 1, !dbg !4606
  call void @llvm.dbg.value(metadata %class.String* %4, metadata !3120, metadata !DIExpression()) #17, !dbg !4607
  call void @llvm.dbg.value(metadata %class.String* %4, metadata !3125, metadata !DIExpression()) #17, !dbg !4609
  %102 = getelementptr inbounds %class.String, %class.String* %4, i64 0, i32 0, i32 2, !dbg !4611
  %103 = load %"struct.String::memo_t"*, %"struct.String::memo_t"** %102, align 8, !dbg !4611, !tbaa !2955
  %104 = icmp eq %"struct.String::memo_t"* %103, null, !dbg !4612
  br i1 %104, label %204, label %105, !dbg !4613

105:                                              ; preds = %98
  %106 = getelementptr inbounds %"struct.String::memo_t", %"struct.String::memo_t"* %103, i64 0, i32 0, !dbg !4614
  %107 = load volatile i32, i32* %106, align 4, !dbg !4614, !tbaa !3137
  %108 = icmp eq i32 %107, 0, !dbg !4614
  br i1 %108, label %109, label %110, !dbg !4614

109:                                              ; preds = %105
  call void @__assert_fail(i8* getelementptr inbounds ([18 x i8], [18 x i8]* @.str.31, i64 0, i64 0), i8* getelementptr inbounds ([29 x i8], [29 x i8]* @.str.32, i64 0, i64 0), i32 273, i8* getelementptr inbounds ([27 x i8], [27 x i8]* @__PRETTY_FUNCTION__._ZNK6String5derefEv, i64 0, i64 0)) #19, !dbg !4614
  unreachable, !dbg !4614

110:                                              ; preds = %105
  call void @llvm.dbg.value(metadata i32* %106, metadata !3139, metadata !DIExpression()) #17, !dbg !4615
  %111 = load volatile i32, i32* %106, align 4, !dbg !4617, !tbaa !3146
  %112 = add i32 %111, -1, !dbg !4617
  store volatile i32 %112, i32* %106, align 4, !dbg !4617, !tbaa !3146
  %113 = icmp eq i32 %112, 0, !dbg !4618
  br i1 %113, label %114, label %115, !dbg !4619

114:                                              ; preds = %110
  invoke void @_ZN6String11delete_memoEPNS_6memo_tE(%"struct.String::memo_t"* nonnull %103)
          to label %115 unwind label %116, !dbg !4620

115:                                              ; preds = %114, %110
  store %"struct.String::memo_t"* null, %"struct.String::memo_t"** %102, align 8, !dbg !4621, !tbaa !2955
  br label %204, !dbg !4622

116:                                              ; preds = %114
  %117 = landingpad { i8*, i32 }
          catch i8* null, !dbg !4623
  %118 = extractvalue { i8*, i32 } %117, 0, !dbg !4623
  call void @__clang_call_terminate(i8* %118) #19, !dbg !4623
  unreachable, !dbg !4623

119:                                              ; preds = %31
  %120 = landingpad { i8*, i32 }
          cleanup, !dbg !4624
  %121 = extractvalue { i8*, i32 } %120, 0, !dbg !4624
  %122 = extractvalue { i8*, i32 } %120, 1, !dbg !4624
  br label %164, !dbg !4624

123:                                              ; preds = %39
  %124 = landingpad { i8*, i32 }
          cleanup, !dbg !4624
  %125 = extractvalue { i8*, i32 } %124, 0, !dbg !4624
  %126 = extractvalue { i8*, i32 } %124, 1, !dbg !4624
  br label %145, !dbg !4624

127:                                              ; preds = %63
  %128 = landingpad { i8*, i32 }
          cleanup, !dbg !4624
  %129 = extractvalue { i8*, i32 } %128, 0, !dbg !4624
  %130 = extractvalue { i8*, i32 } %128, 1, !dbg !4624
  call void @llvm.dbg.value(metadata %class.String* undef, metadata !3120, metadata !DIExpression()) #17, !dbg !4625
  call void @llvm.dbg.value(metadata %class.String* undef, metadata !3125, metadata !DIExpression()) #17, !dbg !4627
  %131 = icmp eq %"struct.String::memo_t"* %53, null, !dbg !4629
  br i1 %131, label %145, label %132, !dbg !4630

132:                                              ; preds = %127
  %133 = getelementptr inbounds %"struct.String::memo_t", %"struct.String::memo_t"* %53, i64 0, i32 0, !dbg !4631
  %134 = load volatile i32, i32* %133, align 4, !dbg !4631, !tbaa !3137
  %135 = icmp eq i32 %134, 0, !dbg !4631
  br i1 %135, label %136, label %137, !dbg !4631

136:                                              ; preds = %132
  call void @__assert_fail(i8* getelementptr inbounds ([18 x i8], [18 x i8]* @.str.31, i64 0, i64 0), i8* getelementptr inbounds ([29 x i8], [29 x i8]* @.str.32, i64 0, i64 0), i32 273, i8* getelementptr inbounds ([27 x i8], [27 x i8]* @__PRETTY_FUNCTION__._ZNK6String5derefEv, i64 0, i64 0)) #19, !dbg !4631
  unreachable, !dbg !4631

137:                                              ; preds = %132
  call void @llvm.dbg.value(metadata i32* %133, metadata !3139, metadata !DIExpression()) #17, !dbg !4632
  %138 = load volatile i32, i32* %133, align 4, !dbg !4634, !tbaa !3146
  %139 = add i32 %138, -1, !dbg !4634
  store volatile i32 %139, i32* %133, align 4, !dbg !4634, !tbaa !3146
  %140 = icmp eq i32 %139, 0, !dbg !4635
  br i1 %140, label %141, label %145, !dbg !4636

141:                                              ; preds = %137
  invoke void @_ZN6String11delete_memoEPNS_6memo_tE(%"struct.String::memo_t"* nonnull %53)
          to label %145 unwind label %142, !dbg !4637

142:                                              ; preds = %141
  %143 = landingpad { i8*, i32 }
          catch i8* null, !dbg !4638
  %144 = extractvalue { i8*, i32 } %143, 0, !dbg !4638
  call void @__clang_call_terminate(i8* %144) #19, !dbg !4638
  unreachable, !dbg !4638

145:                                              ; preds = %127, %141, %137, %123
  %146 = phi i8* [ %125, %123 ], [ %129, %137 ], [ %129, %141 ], [ %129, %127 ], !dbg !4624
  %147 = phi i32 [ %126, %123 ], [ %130, %137 ], [ %130, %141 ], [ %130, %127 ], !dbg !4624
  call void @llvm.dbg.value(metadata %class.String* %6, metadata !3120, metadata !DIExpression()) #17, !dbg !4639
  call void @llvm.dbg.value(metadata %class.String* %6, metadata !3125, metadata !DIExpression()) #17, !dbg !4641
  %148 = load %"struct.String::memo_t"*, %"struct.String::memo_t"** %44, align 8, !dbg !4643, !tbaa !2955
  %149 = icmp eq %"struct.String::memo_t"* %148, null, !dbg !4644
  br i1 %149, label %164, label %150, !dbg !4645

150:                                              ; preds = %145
  %151 = getelementptr inbounds %"struct.String::memo_t", %"struct.String::memo_t"* %148, i64 0, i32 0, !dbg !4646
  %152 = load volatile i32, i32* %151, align 4, !dbg !4646, !tbaa !3137
  %153 = icmp eq i32 %152, 0, !dbg !4646
  br i1 %153, label %154, label %155, !dbg !4646

154:                                              ; preds = %150
  call void @__assert_fail(i8* getelementptr inbounds ([18 x i8], [18 x i8]* @.str.31, i64 0, i64 0), i8* getelementptr inbounds ([29 x i8], [29 x i8]* @.str.32, i64 0, i64 0), i32 273, i8* getelementptr inbounds ([27 x i8], [27 x i8]* @__PRETTY_FUNCTION__._ZNK6String5derefEv, i64 0, i64 0)) #19, !dbg !4646
  unreachable, !dbg !4646

155:                                              ; preds = %150
  call void @llvm.dbg.value(metadata i32* %151, metadata !3139, metadata !DIExpression()) #17, !dbg !4647
  %156 = load volatile i32, i32* %151, align 4, !dbg !4649, !tbaa !3146
  %157 = add i32 %156, -1, !dbg !4649
  store volatile i32 %157, i32* %151, align 4, !dbg !4649, !tbaa !3146
  %158 = icmp eq i32 %157, 0, !dbg !4650
  br i1 %158, label %159, label %160, !dbg !4651

159:                                              ; preds = %155
  invoke void @_ZN6String11delete_memoEPNS_6memo_tE(%"struct.String::memo_t"* nonnull %148)
          to label %160 unwind label %161, !dbg !4652

160:                                              ; preds = %159, %155
  store %"struct.String::memo_t"* null, %"struct.String::memo_t"** %44, align 8, !dbg !4653, !tbaa !2955
  br label %164, !dbg !4654

161:                                              ; preds = %159
  %162 = landingpad { i8*, i32 }
          catch i8* null, !dbg !4655
  %163 = extractvalue { i8*, i32 } %162, 0, !dbg !4655
  call void @__clang_call_terminate(i8* %163) #19, !dbg !4655
  unreachable, !dbg !4655

164:                                              ; preds = %119, %145, %160
  %165 = phi i8* [ %121, %119 ], [ %146, %145 ], [ %146, %160 ], !dbg !4624
  %166 = phi i32 [ %122, %119 ], [ %147, %145 ], [ %147, %160 ], !dbg !4624
  call void @llvm.dbg.value(metadata %class.String* %7, metadata !3120, metadata !DIExpression()) #17, !dbg !4656
  call void @llvm.dbg.value(metadata %class.String* %7, metadata !3125, metadata !DIExpression()) #17, !dbg !4658
  call void @llvm.lifetime.end.p0i8(i64 24, i8* nonnull %32) #17, !dbg !4588
  call void @llvm.dbg.value(metadata %class.String* %5, metadata !3120, metadata !DIExpression()) #17, !dbg !4660
  call void @llvm.dbg.value(metadata %class.String* %5, metadata !3125, metadata !DIExpression()) #17, !dbg !4662
  %167 = load %"struct.String::memo_t"*, %"struct.String::memo_t"** %25, align 8, !dbg !4664, !tbaa !2955
  %168 = icmp eq %"struct.String::memo_t"* %167, null, !dbg !4665
  br i1 %168, label %190, label %169, !dbg !4666

169:                                              ; preds = %164
  %170 = getelementptr inbounds %"struct.String::memo_t", %"struct.String::memo_t"* %167, i64 0, i32 0, !dbg !4667
  %171 = load volatile i32, i32* %170, align 4, !dbg !4667, !tbaa !3137
  %172 = icmp eq i32 %171, 0, !dbg !4667
  br i1 %172, label %173, label %174, !dbg !4667

173:                                              ; preds = %169
  call void @__assert_fail(i8* getelementptr inbounds ([18 x i8], [18 x i8]* @.str.31, i64 0, i64 0), i8* getelementptr inbounds ([29 x i8], [29 x i8]* @.str.32, i64 0, i64 0), i32 273, i8* getelementptr inbounds ([27 x i8], [27 x i8]* @__PRETTY_FUNCTION__._ZNK6String5derefEv, i64 0, i64 0)) #19, !dbg !4667
  unreachable, !dbg !4667

174:                                              ; preds = %169
  call void @llvm.dbg.value(metadata i32* %170, metadata !3139, metadata !DIExpression()) #17, !dbg !4668
  %175 = load volatile i32, i32* %170, align 4, !dbg !4670, !tbaa !3146
  %176 = add i32 %175, -1, !dbg !4670
  store volatile i32 %176, i32* %170, align 4, !dbg !4670, !tbaa !3146
  %177 = icmp eq i32 %176, 0, !dbg !4671
  br i1 %177, label %178, label %179, !dbg !4672

178:                                              ; preds = %174
  invoke void @_ZN6String11delete_memoEPNS_6memo_tE(%"struct.String::memo_t"* nonnull %167)
          to label %179 unwind label %180, !dbg !4673

179:                                              ; preds = %178, %174
  store %"struct.String::memo_t"* null, %"struct.String::memo_t"** %25, align 8, !dbg !4674, !tbaa !2955
  br label %190, !dbg !4675

180:                                              ; preds = %178
  %181 = landingpad { i8*, i32 }
          catch i8* null, !dbg !4676
  %182 = extractvalue { i8*, i32 } %181, 0, !dbg !4676
  call void @__clang_call_terminate(i8* %182) #19, !dbg !4676
  unreachable, !dbg !4676

183:                                              ; preds = %81, %94
  call void @llvm.dbg.value(metadata %class.String* %0, metadata !3916, metadata !DIExpression()) #17, !dbg !4677
  call void @llvm.dbg.value(metadata %class.String* undef, metadata !3917, metadata !DIExpression()) #17, !dbg !4677
  %184 = bitcast %class.String* %0 to i8*, !dbg !4679
  %185 = bitcast %class.String* %0 to i64*, !dbg !4679
  store i64 %48, i64* %185, align 8, !dbg !4679, !tbaa.struct !4041
  %186 = getelementptr inbounds %class.String, %class.String* %0, i64 0, i32 0, i32 1, !dbg !4679
  store i32 %49, i32* %186, align 8, !dbg !4679, !tbaa.struct !4041
  %187 = getelementptr inbounds i8, i8* %184, i64 12, !dbg !4679
  %188 = bitcast i8* %187 to i32*, !dbg !4679
  store i32 %52, i32* %188, align 4, !dbg !4679, !tbaa.struct !4041
  %189 = getelementptr inbounds %class.String, %class.String* %0, i64 0, i32 0, i32 2, !dbg !4679
  store %"struct.String::memo_t"* %53, %"struct.String::memo_t"** %189, align 8, !dbg !4679, !tbaa.struct !4041
  call void @llvm.dbg.value(metadata %"struct.String::memo_t"* null, metadata !4479, metadata !DIExpression(DW_OP_LLVM_fragment, 128, 64)), !dbg !4480
  call void @llvm.dbg.value(metadata %"struct.String::memo_t"* null, metadata !4479, metadata !DIExpression(DW_OP_LLVM_fragment, 128, 64)), !dbg !4480
  call void @llvm.dbg.value(metadata %class.String* undef, metadata !3120, metadata !DIExpression()) #17, !dbg !4680
  call void @llvm.dbg.value(metadata %class.String* undef, metadata !3125, metadata !DIExpression()) #17, !dbg !4682
  ret void, !dbg !4606

190:                                              ; preds = %164, %179
  call void @llvm.dbg.value(metadata %class.String* undef, metadata !3120, metadata !DIExpression()) #17, !dbg !4684
  call void @llvm.dbg.value(metadata %class.String* undef, metadata !3125, metadata !DIExpression()) #17, !dbg !4686
  br i1 %26, label %204, label %191, !dbg !4688

191:                                              ; preds = %190
  %192 = getelementptr inbounds %"struct.String::memo_t", %"struct.String::memo_t"* %22, i64 0, i32 0, !dbg !4689
  %193 = load volatile i32, i32* %192, align 4, !dbg !4689, !tbaa !3137
  %194 = icmp eq i32 %193, 0, !dbg !4689
  br i1 %194, label %195, label %196, !dbg !4689

195:                                              ; preds = %191
  call void @__assert_fail(i8* getelementptr inbounds ([18 x i8], [18 x i8]* @.str.31, i64 0, i64 0), i8* getelementptr inbounds ([29 x i8], [29 x i8]* @.str.32, i64 0, i64 0), i32 273, i8* getelementptr inbounds ([27 x i8], [27 x i8]* @__PRETTY_FUNCTION__._ZNK6String5derefEv, i64 0, i64 0)) #19, !dbg !4689
  unreachable, !dbg !4689

196:                                              ; preds = %191
  call void @llvm.dbg.value(metadata i32* %192, metadata !3139, metadata !DIExpression()) #17, !dbg !4690
  %197 = load volatile i32, i32* %192, align 4, !dbg !4692, !tbaa !3146
  %198 = add i32 %197, -1, !dbg !4692
  store volatile i32 %198, i32* %192, align 4, !dbg !4692, !tbaa !3146
  %199 = icmp eq i32 %198, 0, !dbg !4693
  br i1 %199, label %200, label %204, !dbg !4694

200:                                              ; preds = %196
  invoke void @_ZN6String11delete_memoEPNS_6memo_tE(%"struct.String::memo_t"* nonnull %22)
          to label %204 unwind label %201, !dbg !4695

201:                                              ; preds = %200
  %202 = landingpad { i8*, i32 }
          catch i8* null, !dbg !4696
  %203 = extractvalue { i8*, i32 } %202, 0, !dbg !4696
  call void @__clang_call_terminate(i8* %203) #19, !dbg !4696
  unreachable, !dbg !4696

204:                                              ; preds = %190, %200, %196, %115, %98
  %205 = phi i8* [ %100, %98 ], [ %100, %115 ], [ %165, %196 ], [ %165, %200 ], [ %165, %190 ], !dbg !4480
  %206 = phi i32 [ %101, %98 ], [ %101, %115 ], [ %166, %196 ], [ %166, %200 ], [ %166, %190 ], !dbg !4480
  %207 = insertvalue { i8*, i32 } undef, i8* %205, 0, !dbg !4606
  %208 = insertvalue { i8*, i32 } %207, i32 %206, 1, !dbg !4606
  resume { i8*, i32 } %208, !dbg !4606
}

declare void @_ZN6StringC1Em(%class.String*, i64) unnamed_addr #2

; Function Attrs: sspstrong uwtable
define dso_local i32 @_ZN13IPRateMonitor19reset_write_handlerERK6StringP7ElementPvP12ErrorHandler(%class.String* nocapture readnone dereferenceable(24) %0, %class.Element* nocapture %1, i8* nocapture readnone %2, %class.ErrorHandler* nocapture readnone %3) #0 align 2 !dbg !4697 {
  call void @llvm.dbg.value(metadata %class.String* undef, metadata !4699, metadata !DIExpression()), !dbg !4706
  call void @llvm.dbg.value(metadata %class.Element* %1, metadata !4700, metadata !DIExpression()), !dbg !4706
  call void @llvm.dbg.value(metadata i8* undef, metadata !4701, metadata !DIExpression()), !dbg !4706
  call void @llvm.dbg.value(metadata %class.ErrorHandler* undef, metadata !4702, metadata !DIExpression()), !dbg !4706
  call void @llvm.dbg.value(metadata %class.Element* %1, metadata !4703, metadata !DIExpression()), !dbg !4706
  call void @llvm.dbg.value(metadata i32 0, metadata !4704, metadata !DIExpression()), !dbg !4707
  %5 = getelementptr inbounds %class.Element, %class.Element* %1, i64 1, i32 2, i64 0, i32 1, !dbg !4708
  %6 = bitcast i32* %5 to %"struct.IPRateMonitor::Stats"**, !dbg !4708
  br label %13, !dbg !4712

7:                                                ; preds = %36
  call void @llvm.dbg.value(metadata %class.Element* %1, metadata !3250, metadata !DIExpression()), !dbg !4713
  %8 = tail call i32 @_Z13click_jiffiesv(), !dbg !4715
  %9 = lshr i32 %8, 3, !dbg !4717
  %10 = zext i32 %9 to i64, !dbg !4718
  %11 = getelementptr inbounds %class.Element, %class.Element* %1, i64 1, i32 2, i64 1, !dbg !4719
  %12 = bitcast %"class.Element::Port"* %11 to i64*, !dbg !4719
  store i64 %10, i64* %12, align 8, !dbg !4720, !tbaa !3262
  ret i32 0, !dbg !4721

13:                                               ; preds = %36, %4
  %14 = phi i64 [ 0, %4 ], [ %37, %36 ]
  call void @llvm.dbg.value(metadata i64 %14, metadata !4704, metadata !DIExpression()), !dbg !4707
  %15 = load %"struct.IPRateMonitor::Stats"*, %"struct.IPRateMonitor::Stats"** %6, align 8, !dbg !4722, !tbaa !3293
  %16 = getelementptr inbounds %"struct.IPRateMonitor::Stats", %"struct.IPRateMonitor::Stats"* %15, i64 0, i32 3, i64 %14, !dbg !4723
  %17 = load %"struct.IPRateMonitor::Counter"*, %"struct.IPRateMonitor::Counter"** %16, align 8, !dbg !4723, !tbaa !3393
  %18 = icmp eq %"struct.IPRateMonitor::Counter"* %17, null, !dbg !4723
  br i1 %18, label %36, label %19, !dbg !4724

19:                                               ; preds = %13
  %20 = getelementptr inbounds %"struct.IPRateMonitor::Counter", %"struct.IPRateMonitor::Counter"* %17, i64 0, i32 2, !dbg !4725
  %21 = load %"struct.IPRateMonitor::Stats"*, %"struct.IPRateMonitor::Stats"** %20, align 8, !dbg !4725, !tbaa !3525
  %22 = icmp eq %"struct.IPRateMonitor::Stats"* %21, null, !dbg !4728
  br i1 %22, label %29, label %23, !dbg !4729

23:                                               ; preds = %19
  tail call void @_ZN13IPRateMonitor5StatsD2Ev(%"struct.IPRateMonitor::Stats"* nonnull %21) #17, !dbg !4730
  %24 = bitcast %"struct.IPRateMonitor::Stats"* %21 to i8*, !dbg !4730
  tail call void @_ZdlPv(i8* %24) #18, !dbg !4730
  %25 = load %"struct.IPRateMonitor::Stats"*, %"struct.IPRateMonitor::Stats"** %6, align 8, !dbg !4731, !tbaa !3293
  %26 = getelementptr inbounds %"struct.IPRateMonitor::Stats", %"struct.IPRateMonitor::Stats"* %25, i64 0, i32 3, i64 %14, !dbg !4732
  %27 = load %"struct.IPRateMonitor::Counter"*, %"struct.IPRateMonitor::Counter"** %26, align 8, !dbg !4733, !tbaa !3393
  %28 = icmp eq %"struct.IPRateMonitor::Counter"* %27, null, !dbg !4734
  br i1 %28, label %33, label %29, !dbg !4734

29:                                               ; preds = %19, %23
  %30 = phi %"struct.IPRateMonitor::Counter"* [ %27, %23 ], [ %17, %19 ]
  %31 = bitcast %"struct.IPRateMonitor::Counter"* %30 to i8*, !dbg !4734
  tail call void @_ZdlPv(i8* %31) #18, !dbg !4734
  %32 = load %"struct.IPRateMonitor::Stats"*, %"struct.IPRateMonitor::Stats"** %6, align 8, !dbg !4735, !tbaa !3293
  br label %33, !dbg !4734

33:                                               ; preds = %29, %23
  %34 = phi %"struct.IPRateMonitor::Stats"* [ %32, %29 ], [ %25, %23 ], !dbg !4735
  %35 = getelementptr inbounds %"struct.IPRateMonitor::Stats", %"struct.IPRateMonitor::Stats"* %34, i64 0, i32 3, i64 %14, !dbg !4736
  store %"struct.IPRateMonitor::Counter"* null, %"struct.IPRateMonitor::Counter"** %35, align 8, !dbg !4737, !tbaa !3393
  br label %36, !dbg !4738

36:                                               ; preds = %13, %33
  %37 = add nuw nsw i64 %14, 1, !dbg !4739
  call void @llvm.dbg.value(metadata i64 %37, metadata !4704, metadata !DIExpression()), !dbg !4707
  %38 = icmp eq i64 %37, 256, !dbg !4740
  br i1 %38, label %7, label %13, !dbg !4712, !llvm.loop !4741
}

; Function Attrs: sspstrong uwtable
define dso_local i32 @_ZN13IPRateMonitor20memmax_write_handlerERK6StringP7ElementPvP12ErrorHandler(%class.String* dereferenceable(24) %0, %class.Element* nocapture %1, i8* nocapture readnone %2, %class.ErrorHandler* %3) #0 align 2 personality i8* bitcast (i32 (...)* @__gxx_personality_v0 to i8*) !dbg !4743 {
  %5 = alloca [1 x i32], align 4
  call void @llvm.dbg.declare(metadata [1 x i32]* %5, metadata !2200, metadata !DIExpression()), !dbg !4752
  %6 = alloca %class.Vector, align 8
  %7 = alloca %class.IntArg, align 4
  call void @llvm.dbg.value(metadata %class.String* %0, metadata !4745, metadata !DIExpression()), !dbg !4765
  call void @llvm.dbg.value(metadata %class.Element* %1, metadata !4746, metadata !DIExpression()), !dbg !4765
  call void @llvm.dbg.value(metadata i8* undef, metadata !4747, metadata !DIExpression()), !dbg !4765
  call void @llvm.dbg.value(metadata %class.ErrorHandler* %3, metadata !4748, metadata !DIExpression()), !dbg !4765
  %8 = bitcast %class.Vector* %6 to i8*, !dbg !4766
  call void @llvm.lifetime.start.p0i8(i64 16, i8* nonnull %8) #17, !dbg !4766
  call void @llvm.dbg.declare(metadata %class.Vector* %6, metadata !4749, metadata !DIExpression()), !dbg !4767
  call void @llvm.dbg.value(metadata %class.Vector* %6, metadata !4768, metadata !DIExpression()), !dbg !4771
  call void @llvm.dbg.value(metadata %class.Vector* %6, metadata !4773, metadata !DIExpression()) #17, !dbg !4777
  call void @llvm.memset.p0i8.i64(i8* nonnull align 8 dereferenceable(16) %8, i8 0, i64 16, i1 false) #17, !dbg !4779
  invoke void @_Z9cp_argvecRK6StringR6VectorIS_E(%class.String* nonnull dereferenceable(24) %0, %class.Vector* nonnull dereferenceable(16) %6)
          to label %9 unwind label %16, !dbg !4780

9:                                                ; preds = %4
  %10 = bitcast %class.Element* %1 to %class.IPRateMonitor*, !dbg !4781
  call void @llvm.dbg.value(metadata %class.IPRateMonitor* %10, metadata !4750, metadata !DIExpression()), !dbg !4765
  call void @llvm.dbg.value(metadata %class.Vector* %6, metadata !4782, metadata !DIExpression()), !dbg !4785
  %11 = getelementptr inbounds %class.Vector, %class.Vector* %6, i64 0, i32 0, i32 1, !dbg !4788
  %12 = load i32, i32* %11, align 8, !dbg !4788, !tbaa !4789
  %13 = icmp eq i32 %12, 1, !dbg !4792
  br i1 %13, label %24, label %14, !dbg !4793

14:                                               ; preds = %9
  %15 = invoke i32 (%class.ErrorHandler*, i8*, ...) @_ZN12ErrorHandler5errorEPKcz(%class.ErrorHandler* %3, i8* getelementptr inbounds ([20 x i8], [20 x i8]* @.str.19, i64 0, i64 0))
          to label %104 unwind label %20, !dbg !4794

16:                                               ; preds = %4
  %17 = landingpad { i8*, i32 }
          cleanup, !dbg !4796
  %18 = extractvalue { i8*, i32 } %17, 0, !dbg !4796
  %19 = extractvalue { i8*, i32 } %17, 1, !dbg !4796
  br label %143, !dbg !4796

20:                                               ; preds = %14
  %21 = landingpad { i8*, i32 }
          cleanup, !dbg !4797
  %22 = extractvalue { i8*, i32 } %21, 0, !dbg !4797
  %23 = extractvalue { i8*, i32 } %21, 1, !dbg !4797
  br label %143, !dbg !4797

24:                                               ; preds = %9
  %25 = bitcast %class.IntArg* %7 to i8*, !dbg !4798
  call void @llvm.lifetime.start.p0i8(i64 8, i8* nonnull %25) #17, !dbg !4798
  call void @llvm.dbg.value(metadata %class.IntArg* %7, metadata !4799, metadata !DIExpression()), !dbg !4803
  call void @llvm.dbg.value(metadata i32 0, metadata !4802, metadata !DIExpression()), !dbg !4803
  %26 = getelementptr inbounds %class.IntArg, %class.IntArg* %7, i64 0, i32 0, !dbg !4805
  store i32 0, i32* %26, align 4, !dbg !4805, !tbaa !4806
  %27 = invoke dereferenceable(24) %class.String* @_ZN6VectorI6StringEixEi(%class.Vector* nonnull %6, i32 0)
          to label %28 unwind label %56, !dbg !4808

28:                                               ; preds = %24
  call void @llvm.dbg.value(metadata %class.IntArg* %7, metadata !4758, metadata !DIExpression()), !dbg !4809
  call void @llvm.dbg.value(metadata %class.String* %27, metadata !4759, metadata !DIExpression()), !dbg !4809
  call void @llvm.dbg.value(metadata %class.ArgContext* @blank_args, metadata !4761, metadata !DIExpression()), !dbg !4809
  call void @llvm.dbg.value(metadata %class.IntArg* %7, metadata !2193, metadata !DIExpression()), !dbg !4810
  call void @llvm.dbg.value(metadata %class.String* %27, metadata !2195, metadata !DIExpression()), !dbg !4810
  call void @llvm.dbg.value(metadata %class.ArgContext* @blank_args, metadata !2197, metadata !DIExpression()), !dbg !4810
  call void @llvm.dbg.value(metadata i8 1, metadata !2198, metadata !DIExpression()), !dbg !4810
  call void @llvm.dbg.value(metadata i32 1, metadata !2199, metadata !DIExpression()), !dbg !4810
  %29 = bitcast [1 x i32]* %5 to i8*, !dbg !4811
  call void @llvm.lifetime.start.p0i8(i64 4, i8* nonnull %29) #17, !dbg !4811
  call void @llvm.dbg.value(metadata %class.String* %27, metadata !4812, metadata !DIExpression()), !dbg !4815
  %30 = getelementptr inbounds %class.String, %class.String* %27, i64 0, i32 0, i32 0, !dbg !4818
  %31 = load i8*, i8** %30, align 8, !dbg !4818, !tbaa !2946
  call void @llvm.dbg.value(metadata %class.String* %27, metadata !4819, metadata !DIExpression()), !dbg !4822
  %32 = getelementptr inbounds %class.String, %class.String* %27, i64 0, i32 0, i32 1, !dbg !4824
  %33 = load i32, i32* %32, align 8, !dbg !4824, !tbaa !2951
  %34 = sext i32 %33 to i64, !dbg !4825
  %35 = getelementptr inbounds i8, i8* %31, i64 %34, !dbg !4825
  %36 = getelementptr inbounds [1 x i32], [1 x i32]* %5, i64 0, i64 0, !dbg !4826
  %37 = invoke i8* @_ZN6IntArg5parseEPKcS1_biPji(%class.IntArg* nonnull %7, i8* %31, i8* %35, i1 zeroext true, i32 4, i32* nonnull %36, i32 1)
          to label %38 unwind label %56, !dbg !4827

38:                                               ; preds = %28
  call void @llvm.dbg.value(metadata %class.String* %27, metadata !4819, metadata !DIExpression()), !dbg !4828
  %39 = load i8*, i8** %30, align 8, !dbg !4830, !tbaa !2946
  %40 = load i32, i32* %32, align 8, !dbg !4831, !tbaa !2951
  %41 = sext i32 %40 to i64, !dbg !4832
  %42 = getelementptr inbounds i8, i8* %39, i64 %41, !dbg !4832
  %43 = icmp eq i8* %37, %42, !dbg !4833
  %44 = getelementptr inbounds %class.IntArg, %class.IntArg* %7, i64 0, i32 1, !dbg !4810
  br i1 %43, label %46, label %45, !dbg !4834

45:                                               ; preds = %38
  store i32 22, i32* %44, align 4, !dbg !4835, !tbaa !4836
  br label %48, !dbg !4837

46:                                               ; preds = %38
  %47 = load i32, i32* %44, align 4, !dbg !4839, !tbaa !4836
  switch i32 %47, label %48 [
    i32 0, label %50
    i32 34, label %50
  ], !dbg !4837

48:                                               ; preds = %46, %45
  invoke void (%class.ArgContext*, i8*, ...) @_ZNK10ArgContext5errorEPKcz(%class.ArgContext* nonnull @blank_args, i8* getelementptr inbounds ([15 x i8], [15 x i8]* @.str.42, i64 0, i64 0))
          to label %49 unwind label %56, !dbg !4840

49:                                               ; preds = %48
  call void @llvm.lifetime.end.p0i8(i64 4, i8* nonnull %29) #17, !dbg !4842
  br label %54, !dbg !4843

50:                                               ; preds = %46, %46
  call void @llvm.dbg.value(metadata i32* %36, metadata !4844, metadata !DIExpression()), !dbg !4855
  call void @llvm.dbg.value(metadata i32* %36, metadata !4857, metadata !DIExpression()), !dbg !4866
  %51 = load i32, i32* %36, align 4, !dbg !4868, !tbaa !3146
  call void @llvm.lifetime.end.p0i8(i64 4, i8* nonnull %29) #17, !dbg !4842
  switch i32 %47, label %54 [
    i32 34, label %52
    i32 0, label %68
  ], !dbg !4869

52:                                               ; preds = %50
  %53 = sext i32 %51 to i64, !dbg !4870
  invoke void @_ZN6IntArg11range_errorERK10ArgContextbx(%class.IntArg* nonnull %7, %class.ArgContext* nonnull dereferenceable(32) @blank_args, i1 zeroext true, i64 %53)
          to label %54 unwind label %56, !dbg !4873

54:                                               ; preds = %50, %49, %52
  call void @llvm.lifetime.end.p0i8(i64 8, i8* nonnull %25) #17, !dbg !4874
  %55 = invoke i32 (%class.ErrorHandler*, i8*, ...) @_ZN12ErrorHandler5errorEPKcz(%class.ErrorHandler* %3, i8* getelementptr inbounds ([15 x i8], [15 x i8]* @.str.20, i64 0, i64 0))
          to label %104 unwind label %62, !dbg !4875

56:                                               ; preds = %52, %48, %28, %24
  %57 = landingpad { i8*, i32 }
          cleanup, !dbg !4877
  %58 = extractvalue { i8*, i32 } %57, 0, !dbg !4877
  %59 = extractvalue { i8*, i32 } %57, 1, !dbg !4877
  call void @llvm.lifetime.end.p0i8(i64 8, i8* nonnull %25) #17, !dbg !4874
  br label %143, !dbg !4874

60:                                               ; preds = %97
  %61 = landingpad { i8*, i32 }
          cleanup, !dbg !4878
  br label %64, !dbg !4878

62:                                               ; preds = %54
  %63 = landingpad { i8*, i32 }
          cleanup, !dbg !4878
  br label %64, !dbg !4878

64:                                               ; preds = %62, %60
  %65 = phi { i8*, i32 } [ %61, %60 ], [ %63, %62 ]
  %66 = extractvalue { i8*, i32 } %65, 0, !dbg !4878
  %67 = extractvalue { i8*, i32 } %65, 1, !dbg !4878
  br label %143, !dbg !4878

68:                                               ; preds = %50
  call void @llvm.lifetime.end.p0i8(i64 8, i8* nonnull %25) #17, !dbg !4874
  call void @llvm.dbg.value(metadata i32 %51, metadata !4751, metadata !DIExpression()), !dbg !4765
  %69 = icmp ne i32 %51, 0, !dbg !4879
  %70 = icmp slt i32 %51, 100, !dbg !4881
  %71 = and i1 %69, %70, !dbg !4882
  br i1 %71, label %72, label %75, !dbg !4882

72:                                               ; preds = %68
  call void @llvm.dbg.value(metadata i32 100, metadata !4751, metadata !DIExpression()), !dbg !4765
  call void @llvm.dbg.value(metadata i32 %51, metadata !4751, metadata !DIExpression()), !dbg !4765
  %73 = getelementptr inbounds %class.Element, %class.Element* %1, i64 1, i32 1, !dbg !4883
  %74 = bitcast [2 x %"class.Element::Port"*]* %73 to i64*, !dbg !4883
  store i64 102400, i64* %74, align 8, !dbg !4884, !tbaa !2898
  br label %81, !dbg !4885

75:                                               ; preds = %68
  call void @llvm.dbg.value(metadata i32 %51, metadata !4751, metadata !DIExpression()), !dbg !4765
  %76 = shl nsw i32 %51, 10, !dbg !4887
  %77 = sext i32 %76 to i64, !dbg !4888
  %78 = getelementptr inbounds %class.Element, %class.Element* %1, i64 1, i32 1, !dbg !4883
  %79 = bitcast [2 x %"class.Element::Port"*]* %78 to i64*, !dbg !4883
  store i64 %77, i64* %79, align 8, !dbg !4884, !tbaa !2898
  %80 = icmp eq i32 %51, 0, !dbg !4889
  br i1 %80, label %104, label %81, !dbg !4885

81:                                               ; preds = %72, %75
  %82 = phi i64 [ 102400, %72 ], [ %77, %75 ]
  %83 = getelementptr inbounds %class.Element, %class.Element* %1, i64 1, i32 2, i64 1, i32 1, !dbg !4890
  %84 = bitcast i32* %83 to i64*, !dbg !4890
  %85 = load i64, i64* %84, align 8, !dbg !4890, !tbaa !3289
  %86 = icmp ugt i64 %85, %82, !dbg !4891
  br i1 %86, label %87, label %104, !dbg !4892

87:                                               ; preds = %81
  call void @llvm.dbg.value(metadata %class.IPRateMonitor* %10, metadata !3533, metadata !DIExpression()), !dbg !4893
  %88 = getelementptr inbounds %class.Element, %class.Element* %1, i64 1, !dbg !4895
  %89 = bitcast %class.Element* %88 to i32*, !dbg !4895
  %90 = load i32, i32* %89, align 8, !dbg !4895, !tbaa !2896
  %91 = sitofp i32 %90 to float, !dbg !4895
  %92 = fpext float %91 to double, !dbg !4896
  %93 = fdiv double %92, 5.000000e+00, !dbg !4897
  %94 = fptosi double %93 to i32, !dbg !4898
  call void @llvm.dbg.value(metadata i32 %94, metadata !3534, metadata !DIExpression()), !dbg !4893
  call void @llvm.dbg.value(metadata i32 %90, metadata !3535, metadata !DIExpression()), !dbg !4899
  %95 = getelementptr inbounds %class.Element, %class.Element* %1, i64 1, i32 1, !dbg !4900
  %96 = bitcast [2 x %"class.Element::Port"*]* %95 to i64*, !dbg !4900
  br label %97, !dbg !4901

97:                                               ; preds = %87, %99
  %98 = phi i32 [ %100, %99 ], [ %90, %87 ]
  call void @llvm.dbg.value(metadata i32 %98, metadata !3535, metadata !DIExpression()), !dbg !4899
  invoke void @_ZN13IPRateMonitor4foldEi(%class.IPRateMonitor* nonnull %10, i32 %98)
          to label %99 unwind label %60, !dbg !4902

99:                                               ; preds = %97
  %100 = add nsw i32 %98, %94, !dbg !4903
  call void @llvm.dbg.value(metadata i32 %100, metadata !3535, metadata !DIExpression()), !dbg !4899
  %101 = load i64, i64* %84, align 8, !dbg !4904, !tbaa !3289
  %102 = load i64, i64* %96, align 8, !dbg !4900, !tbaa !2898
  %103 = icmp ugt i64 %101, %102, !dbg !4905
  br i1 %103, label %97, label %104, !dbg !4901, !llvm.loop !4906

104:                                              ; preds = %99, %54, %75, %81, %14
  %105 = phi i32 [ -1, %14 ], [ -1, %54 ], [ 0, %75 ], [ 0, %81 ], [ 0, %99 ], !dbg !4765
  call void @llvm.dbg.value(metadata %class.Vector* %6, metadata !4908, metadata !DIExpression()) #17, !dbg !4912
  call void @llvm.dbg.value(metadata %class.Vector* %6, metadata !4914, metadata !DIExpression()) #17, !dbg !4918
  %106 = getelementptr inbounds %class.Vector, %class.Vector* %6, i64 0, i32 0, i32 0, !dbg !4921
  %107 = load %class.String*, %class.String** %106, align 8, !dbg !4921, !tbaa !4923
  %108 = load i32, i32* %11, align 8, !dbg !4924, !tbaa !4925
  %109 = sext i32 %108 to i64, !dbg !4924
  call void @llvm.dbg.value(metadata %class.String* %107, metadata !4926, metadata !DIExpression()) #17, !dbg !4932
  call void @llvm.dbg.value(metadata i64 %109, metadata !4929, metadata !DIExpression()) #17, !dbg !4932
  call void @llvm.dbg.value(metadata i64 0, metadata !4930, metadata !DIExpression()) #17, !dbg !4934
  %110 = icmp eq i32 %108, 0, !dbg !4935
  br i1 %110, label %111, label %113, !dbg !4937

111:                                              ; preds = %104
  %112 = bitcast %class.String* %107 to i8*, !dbg !4937
  br label %138, !dbg !4937

113:                                              ; preds = %104, %132
  %114 = phi i64 [ %133, %132 ], [ 0, %104 ]
  call void @llvm.dbg.value(metadata i64 %114, metadata !4930, metadata !DIExpression()) #17, !dbg !4934
  call void @llvm.dbg.value(metadata %class.String* undef, metadata !3120, metadata !DIExpression()) #17, !dbg !4938
  call void @llvm.dbg.value(metadata %class.String* undef, metadata !3125, metadata !DIExpression()) #17, !dbg !4940
  %115 = getelementptr inbounds %class.String, %class.String* %107, i64 %114, i32 0, i32 2, !dbg !4942
  %116 = load %"struct.String::memo_t"*, %"struct.String::memo_t"** %115, align 8, !dbg !4942, !tbaa !2955
  %117 = icmp eq %"struct.String::memo_t"* %116, null, !dbg !4943
  br i1 %117, label %132, label %118, !dbg !4944

118:                                              ; preds = %113
  %119 = getelementptr inbounds %"struct.String::memo_t", %"struct.String::memo_t"* %116, i64 0, i32 0, !dbg !4945
  %120 = load volatile i32, i32* %119, align 4, !dbg !4945, !tbaa !3137
  %121 = icmp eq i32 %120, 0, !dbg !4945
  br i1 %121, label %122, label %123, !dbg !4945

