; ModuleID = '../elements/ip/lookupiproute.cc'
source_filename = "../elements/ip/lookupiproute.cc"
target datalayout = "e-m:e-p270:32:32-p271:32:32-p272:64:64-i64:64-f80:128-n8:16:32:64-S128"
target triple = "x86_64-pc-linux-gnu"

%class.StaticIPLookup = type { %class.LinearIPLookup.base, [4 x i8] }
%class.LinearIPLookup.base = type <{ %class.IPRouteTable.base, [4 x i8], %class.Vector.13, i32, %class.IPAddress, i32, %class.IPAddress, i32 }>
%class.IPRouteTable.base = type { %class.Element.base }
%class.Element.base = type <{ i32 (...)**, [2 x %"class.Element::Port"*], [4 x %"class.Element::Port"], [2 x i32], %class.Router*, i32 }>
%"class.Element::Port" = type <{ %class.Element*, i32, [4 x i8] }>
%class.Element = type <{ i32 (...)**, [2 x %"class.Element::Port"*], [4 x %"class.Element::Port"], [2 x i32], %class.Router*, i32, [4 x i8] }>
%class.Router = type { %class.Master*, %class.atomic_uint32_t, i32, i8, i32, %class.atomic_uint32_t, %class.Vector, %class.Vector.0, %class.Vector.0, %class.Vector.2, %class.Vector.5, %class.Vector.6, i32, %class.Vector.5, [2 x %class.Vector.5], %class.Vector.5, %class.Vector.8, %class.Vector.5, %class.Vector.0, %class.Vector.5, %class.Vector.5, %class.Vector.5, %class.Vector.5, %class.Handler**, i32, i32, %class.Vector.0, %class.Vector.12, %class.Element*, %class.String, %"struct.Router::notifier_signals_t"*, %class.HashMap_ArenaFactory*, %class.Router*, %class.ThreadSched*, %class.NameInfo*, %class.Vector.5, %class.Vector.0, %class.Router* }
%class.Master = type opaque
%class.atomic_uint32_t = type { i32 }
%class.Vector = type { %class.vector_memory }
%class.vector_memory = type { %struct.char_array*, i32, i32 }
%struct.char_array = type opaque
%class.Vector.2 = type { %class.vector_memory.3 }
%class.vector_memory.3 = type { %struct.char_array.4*, i32, i32 }
%struct.char_array.4 = type opaque
%class.Vector.6 = type { %class.vector_memory.7 }
%class.vector_memory.7 = type { %"struct.Router::element_landmark_t"*, i32, i32 }
%"struct.Router::element_landmark_t" = type { i32, %class.String }
%class.Vector.8 = type { %class.vector_memory.9 }
%class.vector_memory.9 = type { %struct.char_array.10*, i32, i32 }
%struct.char_array.10 = type { [16 x i8] }
%class.Handler = type <{ %class.String, %union.anon, %union.anon.11, i8*, i8*, i32, i32, i32, [4 x i8] }>
%union.anon = type { i32 (i32, %class.String*, %class.Element*, %class.Handler*, %class.ErrorHandler*)* }
%class.ErrorHandler = type <{ i32 (...)**, i32, [4 x i8] }>
%union.anon.11 = type { i32 (i32, %class.String*, %class.Element*, %class.Handler*, %class.ErrorHandler*)* }
%class.Vector.12 = type { %class.vector_memory }
%class.String = type { %"struct.String::rep_t" }
%"struct.String::rep_t" = type { i8*, i32, %"struct.String::memo_t"* }
%"struct.String::memo_t" = type { i32, i32, i32, [8 x i8] }
%"struct.Router::notifier_signals_t" = type { %class.String, i32, [128 x %class.atomic_uint32_t], %"struct.Router::notifier_signals_t"* }
%class.HashMap_ArenaFactory = type opaque
%class.ThreadSched = type { i32 (...)** }
%class.NameInfo = type opaque
%class.Vector.5 = type { %class.vector_memory.3 }
%class.Vector.0 = type { %class.vector_memory.1 }
%class.vector_memory.1 = type { %class.String*, i32, i32 }
%class.Vector.13 = type { %class.vector_memory.14 }
%class.vector_memory.14 = type { %struct.char_array.15*, i32, i32 }
%struct.char_array.15 = type opaque
%class.IPAddress = type { i32 }
%class.LinearIPLookup = type <{ %class.IPRouteTable.base, [4 x i8], %class.Vector.13, i32, %class.IPAddress, i32, %class.IPAddress, i32, [4 x i8] }>
%struct.IPRoute = type { %class.IPAddress, %class.IPAddress, %class.IPAddress, i32, i32 }
%class.Packet = type { %class.atomic_uint32_t, %class.Packet*, i8*, i8*, i8*, i8*, %"struct.Packet::AllAnno", void (i8*, i64, i8*)*, i8* }
%"struct.Packet::AllAnno" = type { %"union.Packet::Anno", i8*, i8*, i8*, i32, [8 x i8], %class.Packet*, %class.Packet* }
%"union.Packet::Anno" = type { [6 x i64] }
%class.Task = type { %struct.TaskLink.base, i32, i32, %"union.Task::Status", i1 (%class.Task*, i8*)*, i8*, %class.RouterThread*, %class.Element*, %"union.Task::Pending" }
%struct.TaskLink.base = type <{ %struct.TaskLink*, %struct.TaskLink*, i32 }>
%struct.TaskLink = type <{ %struct.TaskLink*, %struct.TaskLink*, i32, [4 x i8] }>
%"union.Task::Status" = type { i32 }
%class.RouterThread = type { %struct.TaskLink, i8, [7 x i8], %class.TimerSet, %class.SelectSet, [32 x i8], %class.Spinlock, %class.atomic_uint32_t, %class.atomic_uint32_t, %"union.Task::Pending", %"union.Task::Pending"*, %class.SpinlockIRQ, [31 x i8], %class.Master*, i32, i8, i32, i32, [40 x i8] }
%class.TimerSet = type <{ %class.Timestamp, i32, i32, i32, [4 x i8], %class.Vector.16, %class.Vector.17, %class.SimpleSpinlock, [7 x i8], %class.Timestamp, i32, [4 x i8] }>
%class.Vector.16 = type { %class.vector_memory.9 }
%class.Vector.17 = type { %class.vector_memory }
%class.SimpleSpinlock = type { i8 }
%class.Timestamp = type { %"union.Timestamp::rep_t" }
%"union.Timestamp::rep_t" = type { i64 }
%class.SelectSet = type { [2 x i32], i8, %class.Vector.18, %class.Vector.19 }
%class.Vector.18 = type { %class.vector_memory }
%class.Vector.19 = type { %class.vector_memory.20 }
%class.vector_memory.20 = type { %struct.char_array.21*, i32, i32 }
%struct.char_array.21 = type opaque
%class.Spinlock = type { i8 }
%class.SpinlockIRQ = type { i8 }
%"union.Task::Pending" = type { %class.Task* }
%class.Timer = type { i32, %class.Timestamp, %union.anon.22, i8*, %class.Element*, %class.RouterThread* }
%union.anon.22 = type { void (%class.Timer*, i8*)* }
%class.IPRouteTable = type { %class.Element.base, [4 x i8] }

$_ZNK14StaticIPLookup10class_nameEv = comdat any

$_ZNK14LinearIPLookup10port_countEv = comdat any

$_ZNK14LinearIPLookup10processingEv = comdat any

@_ZTV14StaticIPLookup = dso_local unnamed_addr constant { [33 x i8*] } { [33 x i8*] [i8* null, i8* bitcast ({ i8*, i8*, i8* }* @_ZTI14StaticIPLookup to i8*), i8* bitcast (void (%class.StaticIPLookup*)* @_ZN14StaticIPLookupD2Ev to i8*), i8* bitcast (void (%class.StaticIPLookup*)* @_ZN14StaticIPLookupD0Ev to i8*), i8* bitcast (void (%class.LinearIPLookup*, i32, %class.Packet*)* @_ZN14LinearIPLookup4pushEiP6Packet to i8*), i8* bitcast (%class.Packet* (%class.Element*, i32)* @_ZN7Element4pullEi to i8*), i8* bitcast (%class.Packet* (%class.Element*, %class.Packet*)* @_ZN7Element13simple_actionEP6Packet to i8*), i8* bitcast (i1 (%class.Element*, %class.Task*)* @_ZN7Element8run_taskEP4Task to i8*), i8* bitcast (void (%class.Element*, %class.Timer*)* @_ZN7Element9run_timerEP5Timer to i8*), i8* bitcast (void (%class.Element*, i32, i32)* @_ZN7Element8selectedEii to i8*), i8* bitcast (void (%class.Element*, i32)* @_ZN7Element8selectedEi to i8*), i8* bitcast (i8* (%class.StaticIPLookup*)* @_ZNK14StaticIPLookup10class_nameEv to i8*), i8* bitcast (i8* (%class.LinearIPLookup*)* @_ZNK14LinearIPLookup10port_countEv to i8*), i8* bitcast (i8* (%class.LinearIPLookup*)* @_ZNK14LinearIPLookup10processingEv to i8*), i8* bitcast (i8* (%class.Element*)* @_ZNK7Element9flow_codeEv to i8*), i8* bitcast (i8* (%class.Element*)* @_ZNK7Element5flagsEv to i8*), i8* bitcast (i8* (%class.IPRouteTable*, i8*)* @_ZN12IPRouteTable4castEPKc to i8*), i8* bitcast (i8* (%class.Element*, i1, i32, i8*)* @_ZN7Element9port_castEbiPKc to i8*), i8* bitcast (i32 (%class.Element*)* @_ZNK7Element15configure_phaseEv to i8*), i8* bitcast (i32 (%class.IPRouteTable*, %class.Vector.0*, %class.ErrorHandler*)* @_ZN12IPRouteTable9configureER6VectorI6StringEP12ErrorHandler to i8*), i8* bitcast (void (%class.StaticIPLookup*)* @_ZN14StaticIPLookup12add_handlersEv to i8*), i8* bitcast (i32 (%class.LinearIPLookup*, %class.ErrorHandler*)* @_ZN14LinearIPLookup10initializeEP12ErrorHandler to i8*), i8* bitcast (void (%class.Element*, %class.Element*, %class.ErrorHandler*)* @_ZN7Element10take_stateEPS_P12ErrorHandler to i8*), i8* bitcast (%class.Element* (%class.Element*)* @_ZNK7Element15hotswap_elementEv to i8*), i8* bitcast (void (%class.Element*, i32)* @_ZN7Element7cleanupENS_12CleanupStageE to i8*), i8* bitcast (void (%class.String*, %class.Element*)* @_ZNK7Element11declarationEv to i8*), i8* bitcast (i1 (%class.Element*)* @_ZNK7Element20can_live_reconfigureEv to i8*), i8* bitcast (i32 (%class.Element*, %class.Vector.0*, %class.ErrorHandler*)* @_ZN7Element16live_reconfigureER6VectorI6StringEP12ErrorHandler to i8*), i8* bitcast (i32 (%class.Element*, i32, i8*)* @_ZN7Element5llrpcEjPv to i8*), i8* bitcast (i32 (%class.StaticIPLookup*, %struct.IPRoute*, i1, %struct.IPRoute*, %class.ErrorHandler*)* @_ZN14StaticIPLookup9add_routeERK7IPRoutebPS0_P12ErrorHandler to i8*), i8* bitcast (i32 (%class.StaticIPLookup*, %struct.IPRoute*, %struct.IPRoute*, %class.ErrorHandler*)* @_ZN14StaticIPLookup12remove_routeERK7IPRoutePS0_P12ErrorHandler to i8*), i8* bitcast (i32 (%class.LinearIPLookup*, i32, %class.IPAddress*)* @_ZNK14LinearIPLookup12lookup_routeE9IPAddressRS0_ to i8*), i8* bitcast (void (%class.String*, %class.LinearIPLookup*)* @_ZN14LinearIPLookup11dump_routesEv to i8*)] }, align 8
@.str = private unnamed_addr constant [29 x i8] c"can't add routes dynamically\00", align 1
@.str.1 = private unnamed_addr constant [32 x i8] c"can't remove routes dynamically\00", align 1
@.str.2 = private unnamed_addr constant [6 x i8] c"table\00", align 1
@.str.3 = private unnamed_addr constant [7 x i8] c"lookup\00", align 1
@_ZTVN10__cxxabiv120__si_class_type_infoE = external global i8*
@_ZTS14StaticIPLookup = dso_local constant [17 x i8] c"14StaticIPLookup\00", align 1
@_ZTI14LinearIPLookup = external constant i8*
@_ZTI14StaticIPLookup = dso_local constant { i8*, i8*, i8* } { i8* bitcast (i8** getelementptr inbounds (i8*, i8** @_ZTVN10__cxxabiv120__si_class_type_infoE, i64 2) to i8*), i8* getelementptr inbounds ([17 x i8], [17 x i8]* @_ZTS14StaticIPLookup, i32 0, i32 0), i8* bitcast (i8** @_ZTI14LinearIPLookup to i8*) }, align 8
@.str.4 = private unnamed_addr constant [15 x i8] c"StaticIPLookup\00", align 1
@.str.5 = private unnamed_addr constant [4 x i8] c"1/-\00", align 1
@_ZN7Element4PUSHE = external constant [0 x i8], align 1

@_ZN14StaticIPLookupC1Ev = dso_local unnamed_addr alias void (%class.StaticIPLookup*), void (%class.StaticIPLookup*)* @_ZN14StaticIPLookupC2Ev
@_ZN14StaticIPLookupD1Ev = dso_local unnamed_addr alias void (%class.StaticIPLookup*), void (%class.StaticIPLookup*)* @_ZN14StaticIPLookupD2Ev

; Function Attrs: sspstrong uwtable
define dso_local void @_ZN14StaticIPLookupC2Ev(%class.StaticIPLookup* %0) unnamed_addr #0 align 2 !dbg !2810 {
  call void @llvm.dbg.value(metadata %class.StaticIPLookup* %0, metadata !2969, metadata !DIExpression()), !dbg !2971
  %2 = bitcast %class.StaticIPLookup* %0 to %class.LinearIPLookup*, !dbg !2972
  tail call void @_ZN14LinearIPLookupC2Ev(%class.LinearIPLookup* %2), !dbg !2973
  %3 = getelementptr %class.StaticIPLookup, %class.StaticIPLookup* %0, i64 0, i32 0, i32 0, i32 0, i32 0, !dbg !2972
  store i32 (...)** bitcast (i8** getelementptr inbounds ({ [33 x i8*] }, { [33 x i8*] }* @_ZTV14StaticIPLookup, i64 0, inrange i32 0, i64 2) to i32 (...)**), i32 (...)*** %3, align 8, !dbg !2972, !tbaa !2974
  ret void, !dbg !2977
}

declare void @_ZN14LinearIPLookupC2Ev(%class.LinearIPLookup*) unnamed_addr #1

; Function Attrs: nounwind
declare void @_ZN14LinearIPLookupD2Ev(%class.LinearIPLookup*) unnamed_addr #2

; Function Attrs: nounwind sspstrong uwtable
define dso_local void @_ZN14StaticIPLookupD2Ev(%class.StaticIPLookup* %0) unnamed_addr #3 align 2 !dbg !2978 {
  call void @llvm.dbg.value(metadata %class.StaticIPLookup* %0, metadata !2980, metadata !DIExpression()), !dbg !2981
  %2 = bitcast %class.StaticIPLookup* %0 to %class.LinearIPLookup*, !dbg !2982
  tail call void @_ZN14LinearIPLookupD2Ev(%class.LinearIPLookup* %2) #6, !dbg !2982
  ret void, !dbg !2984
}

; Function Attrs: nounwind sspstrong uwtable
define dso_local void @_ZN14StaticIPLookupD0Ev(%class.StaticIPLookup* %0) unnamed_addr #3 align 2 !dbg !2985 {
  call void @llvm.dbg.value(metadata %class.StaticIPLookup* %0, metadata !2987, metadata !DIExpression()), !dbg !2988
  call void @llvm.dbg.value(metadata %class.StaticIPLookup* %0, metadata !2980, metadata !DIExpression()) #6, !dbg !2989
  %2 = bitcast %class.StaticIPLookup* %0 to %class.LinearIPLookup*, !dbg !2991
  tail call void @_ZN14LinearIPLookupD2Ev(%class.LinearIPLookup* %2) #6, !dbg !2991
  %3 = bitcast %class.StaticIPLookup* %0 to i8*, !dbg !2992
  tail call void @_ZdlPv(i8* %3) #7, !dbg !2992
  ret void, !dbg !2993
}

; Function Attrs: nobuiltin nounwind
declare void @_ZdlPv(i8*) local_unnamed_addr #4

; Function Attrs: sspstrong uwtable
define dso_local i32 @_ZN14StaticIPLookup9add_routeERK7IPRoutebPS0_P12ErrorHandler(%class.StaticIPLookup* %0, %struct.IPRoute* dereferenceable(20) %1, i1 zeroext %2, %struct.IPRoute* %3, %class.ErrorHandler* %4) unnamed_addr #0 align 2 !dbg !2994 {
  call void @llvm.dbg.value(metadata %class.StaticIPLookup* %0, metadata !2996, metadata !DIExpression()), !dbg !3001
  call void @llvm.dbg.value(metadata %struct.IPRoute* %1, metadata !2997, metadata !DIExpression()), !dbg !3001
  call void @llvm.dbg.value(metadata i1 %2, metadata !2998, metadata !DIExpression()), !dbg !3001
  call void @llvm.dbg.value(metadata %struct.IPRoute* %3, metadata !2999, metadata !DIExpression()), !dbg !3001
  call void @llvm.dbg.value(metadata %class.ErrorHandler* %4, metadata !3000, metadata !DIExpression()), !dbg !3001
  call void @llvm.dbg.value(metadata %class.StaticIPLookup* %0, metadata !3002, metadata !DIExpression()), !dbg !3009
  %6 = getelementptr inbounds %class.StaticIPLookup, %class.StaticIPLookup* %0, i64 0, i32 0, i32 0, i32 0, i32 4, !dbg !3012
  %7 = load %class.Router*, %class.Router** %6, align 8, !dbg !3012, !tbaa !3013
  call void @llvm.dbg.value(metadata %class.Router* %7, metadata !3018, metadata !DIExpression()), !dbg !3021
  %8 = getelementptr inbounds %class.Router, %class.Router* %7, i64 0, i32 2, !dbg !3023
  %9 = load volatile i32, i32* %8, align 4, !dbg !3023, !tbaa !3024
  %10 = icmp eq i32 %9, 3, !dbg !3042
  br i1 %10, label %11, label %13, !dbg !3043

11:                                               ; preds = %5
  %12 = tail call i32 (%class.ErrorHandler*, i8*, ...) @_ZN12ErrorHandler5errorEPKcz(%class.ErrorHandler* %4, i8* getelementptr inbounds ([29 x i8], [29 x i8]* @.str, i64 0, i64 0)), !dbg !3044
  br label %16, !dbg !3045

13:                                               ; preds = %5
  %14 = bitcast %class.StaticIPLookup* %0 to %class.LinearIPLookup*, !dbg !3046
  %15 = tail call i32 @_ZN14LinearIPLookup9add_routeERK7IPRoutebPS0_P12ErrorHandler(%class.LinearIPLookup* %14, %struct.IPRoute* nonnull dereferenceable(20) %1, i1 zeroext %2, %struct.IPRoute* %3, %class.ErrorHandler* %4), !dbg !3046
  br label %16, !dbg !3047

16:                                               ; preds = %13, %11
  %17 = phi i32 [ %12, %11 ], [ %15, %13 ], !dbg !3048
  ret i32 %17, !dbg !3049
}

declare i32 @_ZN12ErrorHandler5errorEPKcz(%class.ErrorHandler*, i8*, ...) local_unnamed_addr #1

declare i32 @_ZN14LinearIPLookup9add_routeERK7IPRoutebPS0_P12ErrorHandler(%class.LinearIPLookup*, %struct.IPRoute* dereferenceable(20), i1 zeroext, %struct.IPRoute*, %class.ErrorHandler*) unnamed_addr #1

; Function Attrs: sspstrong uwtable
define dso_local i32 @_ZN14StaticIPLookup12remove_routeERK7IPRoutePS0_P12ErrorHandler(%class.StaticIPLookup* %0, %struct.IPRoute* dereferenceable(20) %1, %struct.IPRoute* %2, %class.ErrorHandler* %3) unnamed_addr #0 align 2 !dbg !3050 {
  call void @llvm.dbg.value(metadata %class.StaticIPLookup* %0, metadata !3052, metadata !DIExpression()), !dbg !3056
  call void @llvm.dbg.value(metadata %struct.IPRoute* %1, metadata !3053, metadata !DIExpression()), !dbg !3056
  call void @llvm.dbg.value(metadata %struct.IPRoute* %2, metadata !3054, metadata !DIExpression()), !dbg !3056
  call void @llvm.dbg.value(metadata %class.ErrorHandler* %3, metadata !3055, metadata !DIExpression()), !dbg !3056
  call void @llvm.dbg.value(metadata %class.StaticIPLookup* %0, metadata !3002, metadata !DIExpression()), !dbg !3057
  %5 = getelementptr inbounds %class.StaticIPLookup, %class.StaticIPLookup* %0, i64 0, i32 0, i32 0, i32 0, i32 4, !dbg !3060
  %6 = load %class.Router*, %class.Router** %5, align 8, !dbg !3060, !tbaa !3013
  call void @llvm.dbg.value(metadata %class.Router* %6, metadata !3018, metadata !DIExpression()), !dbg !3061
  %7 = getelementptr inbounds %class.Router, %class.Router* %6, i64 0, i32 2, !dbg !3063
  %8 = load volatile i32, i32* %7, align 4, !dbg !3063, !tbaa !3024
  %9 = icmp eq i32 %8, 3, !dbg !3064
  br i1 %9, label %10, label %12, !dbg !3065

10:                                               ; preds = %4
  %11 = tail call i32 (%class.ErrorHandler*, i8*, ...) @_ZN12ErrorHandler5errorEPKcz(%class.ErrorHandler* %3, i8* getelementptr inbounds ([32 x i8], [32 x i8]* @.str.1, i64 0, i64 0)), !dbg !3066
  br label %15, !dbg !3067

12:                                               ; preds = %4
  %13 = bitcast %class.StaticIPLookup* %0 to %class.LinearIPLookup*, !dbg !3068
  %14 = tail call i32 @_ZN14LinearIPLookup12remove_routeERK7IPRoutePS0_P12ErrorHandler(%class.LinearIPLookup* %13, %struct.IPRoute* nonnull dereferenceable(20) %1, %struct.IPRoute* %2, %class.ErrorHandler* %3), !dbg !3068
  br label %15, !dbg !3069

15:                                               ; preds = %12, %10
  %16 = phi i32 [ %11, %10 ], [ %14, %12 ], !dbg !3070
  ret i32 %16, !dbg !3071
}

declare i32 @_ZN14LinearIPLookup12remove_routeERK7IPRoutePS0_P12ErrorHandler(%class.LinearIPLookup*, %struct.IPRoute* dereferenceable(20), %struct.IPRoute*, %class.ErrorHandler*) unnamed_addr #1

; Function Attrs: sspstrong uwtable
define dso_local void @_ZN14StaticIPLookup12add_handlersEv(%class.StaticIPLookup* %0) unnamed_addr #0 align 2 !dbg !3072 {
  call void @llvm.dbg.value(metadata %class.StaticIPLookup* %0, metadata !3074, metadata !DIExpression()), !dbg !3075
  %2 = bitcast %class.StaticIPLookup* %0 to %class.Element*, !dbg !3076
  tail call void @_ZN7Element16add_read_handlerEPKcPF6StringPS_PvEij(%class.Element* %2, i8* getelementptr inbounds ([6 x i8], [6 x i8]* @.str.2, i64 0, i64 0), void (%class.String*, %class.Element*, i8*)* nonnull @_ZN12IPRouteTable13table_handlerEP7ElementPv, i32 0, i32 0), !dbg !3076
  tail call void @_ZN7Element11set_handlerEPKciPFiiR6StringPS_PK7HandlerP12ErrorHandlerEii(%class.Element* %2, i8* getelementptr inbounds ([7 x i8], [7 x i8]* @.str.3, i64 0, i64 0), i32 5, i32 (i32, %class.String*, %class.Element*, %class.Handler*, %class.ErrorHandler*)* nonnull @_ZN12IPRouteTable14lookup_handlerEiR6StringP7ElementPK7HandlerP12ErrorHandler, i32 0, i32 0), !dbg !3077
  ret void, !dbg !3078
}

declare void @_ZN7Element16add_read_handlerEPKcPF6StringPS_PvEij(%class.Element*, i8*, void (%class.String*, %class.Element*, i8*)*, i32, i32) local_unnamed_addr #1

declare void @_ZN12IPRouteTable13table_handlerEP7ElementPv(%class.String* sret, %class.Element*, i8*) #1

declare void @_ZN7Element11set_handlerEPKciPFiiR6StringPS_PK7HandlerP12ErrorHandlerEii(%class.Element*, i8*, i32, i32 (i32, %class.String*, %class.Element*, %class.Handler*, %class.ErrorHandler*)*, i32, i32) local_unnamed_addr #1

declare i32 @_ZN12IPRouteTable14lookup_handlerEiR6StringP7ElementPK7HandlerP12ErrorHandler(i32, %class.String* dereferenceable(24), %class.Element*, %class.Handler*, %class.ErrorHandler*) #1

declare void @_ZN14LinearIPLookup4pushEiP6Packet(%class.LinearIPLookup*, i32, %class.Packet*) unnamed_addr #1

declare %class.Packet* @_ZN7Element4pullEi(%class.Element*, i32) unnamed_addr #1

declare %class.Packet* @_ZN7Element13simple_actionEP6Packet(%class.Element*, %class.Packet*) unnamed_addr #1

declare zeroext i1 @_ZN7Element8run_taskEP4Task(%class.Element*, %class.Task*) unnamed_addr #1

declare void @_ZN7Element9run_timerEP5Timer(%class.Element*, %class.Timer*) unnamed_addr #1

declare void @_ZN7Element8selectedEii(%class.Element*, i32, i32) unnamed_addr #1

declare void @_ZN7Element8selectedEi(%class.Element*, i32) unnamed_addr #1

; Function Attrs: nounwind sspstrong uwtable
define linkonce_odr dso_local i8* @_ZNK14StaticIPLookup10class_nameEv(%class.StaticIPLookup* %0) unnamed_addr #3 comdat align 2 !dbg !3079 {
  call void @llvm.dbg.value(metadata %class.StaticIPLookup* %0, metadata !3081, metadata !DIExpression()), !dbg !3083
  ret i8* getelementptr inbounds ([15 x i8], [15 x i8]* @.str.4, i64 0, i64 0), !dbg !3084
}

; Function Attrs: nounwind sspstrong uwtable
define linkonce_odr dso_local i8* @_ZNK14LinearIPLookup10port_countEv(%class.LinearIPLookup* %0) unnamed_addr #3 comdat align 2 !dbg !3085 {
  call void @llvm.dbg.value(metadata %class.LinearIPLookup* %0, metadata !3092, metadata !DIExpression()), !dbg !3094
  ret i8* getelementptr inbounds ([4 x i8], [4 x i8]* @.str.5, i64 0, i64 0), !dbg !3095
}

; Function Attrs: nounwind sspstrong uwtable
define linkonce_odr dso_local i8* @_ZNK14LinearIPLookup10processingEv(%class.LinearIPLookup* %0) unnamed_addr #3 comdat align 2 !dbg !3096 {
  call void @llvm.dbg.value(metadata %class.LinearIPLookup* %0, metadata !3099, metadata !DIExpression()), !dbg !3100
  ret i8* getelementptr inbounds ([0 x i8], [0 x i8]* @_ZN7Element4PUSHE, i64 0, i64 0), !dbg !3101
}

declare i8* @_ZNK7Element9flow_codeEv(%class.Element*) unnamed_addr #1

declare i8* @_ZNK7Element5flagsEv(%class.Element*) unnamed_addr #1

declare i8* @_ZN12IPRouteTable4castEPKc(%class.IPRouteTable*, i8*) unnamed_addr #1

declare i8* @_ZN7Element9port_castEbiPKc(%class.Element*, i1 zeroext, i32, i8*) unnamed_addr #1

declare i32 @_ZNK7Element15configure_phaseEv(%class.Element*) unnamed_addr #1

declare i32 @_ZN12IPRouteTable9configureER6VectorI6StringEP12ErrorHandler(%class.IPRouteTable*, %class.Vector.0* dereferenceable(16), %class.ErrorHandler*) unnamed_addr #1

declare i32 @_ZN14LinearIPLookup10initializeEP12ErrorHandler(%class.LinearIPLookup*, %class.ErrorHandler*) unnamed_addr #1

declare void @_ZN7Element10take_stateEPS_P12ErrorHandler(%class.Element*, %class.Element*, %class.ErrorHandler*) unnamed_addr #1

declare %class.Element* @_ZNK7Element15hotswap_elementEv(%class.Element*) unnamed_addr #1

declare void @_ZN7Element7cleanupENS_12CleanupStageE(%class.Element*, i32) unnamed_addr #1

declare void @_ZNK7Element11declarationEv(%class.String* sret, %class.Element*) unnamed_addr #1

declare zeroext i1 @_ZNK7Element20can_live_reconfigureEv(%class.Element*) unnamed_addr #1

declare i32 @_ZN7Element16live_reconfigureER6VectorI6StringEP12ErrorHandler(%class.Element*, %class.Vector.0* dereferenceable(16), %class.ErrorHandler*) unnamed_addr #1

declare i32 @_ZN7Element5llrpcEjPv(%class.Element*, i32, i8*) unnamed_addr #1

declare i32 @_ZNK14LinearIPLookup12lookup_routeE9IPAddressRS0_(%class.LinearIPLookup*, i32, %class.IPAddress* dereferenceable(4)) unnamed_addr #1

declare void @_ZN14LinearIPLookup11dump_routesEv(%class.String* sret, %class.LinearIPLookup*) unnamed_addr #1

; Function Attrs: nounwind readnone speculatable willreturn
declare void @llvm.dbg.value(metadata, metadata, metadata) #5

attributes #0 = { sspstrong uwtable "correctly-rounded-divide-sqrt-fp-math"="false" "disable-tail-calls"="false" "frame-pointer"="none" "less-precise-fpmad"="false" "min-legal-vector-width"="0" "no-infs-fp-math"="false" "no-jump-tables"="false" "no-nans-fp-math"="false" "no-signed-zeros-fp-math"="false" "no-trapping-math"="false" "stack-protector-buffer-size"="8" "target-cpu"="x86-64" "target-features"="+cx8,+fxsr,+mmx,+sse,+sse2,+x87" "unsafe-fp-math"="false" "use-soft-float"="false" }
attributes #1 = { "correctly-rounded-divide-sqrt-fp-math"="false" "disable-tail-calls"="false" "frame-pointer"="none" "less-precise-fpmad"="false" "no-infs-fp-math"="false" "no-nans-fp-math"="false" "no-signed-zeros-fp-math"="false" "no-trapping-math"="false" "stack-protector-buffer-size"="8" "target-cpu"="x86-64" "target-features"="+cx8,+fxsr,+mmx,+sse,+sse2,+x87" "unsafe-fp-math"="false" "use-soft-float"="false" }
attributes #2 = { nounwind "correctly-rounded-divide-sqrt-fp-math"="false" "disable-tail-calls"="false" "frame-pointer"="none" "less-precise-fpmad"="false" "no-infs-fp-math"="false" "no-nans-fp-math"="false" "no-signed-zeros-fp-math"="false" "no-trapping-math"="false" "stack-protector-buffer-size"="8" "target-cpu"="x86-64" "target-features"="+cx8,+fxsr,+mmx,+sse,+sse2,+x87" "unsafe-fp-math"="false" "use-soft-float"="false" }
attributes #3 = { nounwind sspstrong uwtable "correctly-rounded-divide-sqrt-fp-math"="false" "disable-tail-calls"="false" "frame-pointer"="none" "less-precise-fpmad"="false" "min-legal-vector-width"="0" "no-infs-fp-math"="false" "no-jump-tables"="false" "no-nans-fp-math"="false" "no-signed-zeros-fp-math"="false" "no-trapping-math"="false" "stack-protector-buffer-size"="8" "target-cpu"="x86-64" "target-features"="+cx8,+fxsr,+mmx,+sse,+sse2,+x87" "unsafe-fp-math"="false" "use-soft-float"="false" }
attributes #4 = { nobuiltin nounwind "correctly-rounded-divide-sqrt-fp-math"="false" "disable-tail-calls"="false" "frame-pointer"="none" "less-precise-fpmad"="false" "no-infs-fp-math"="false" "no-nans-fp-math"="false" "no-signed-zeros-fp-math"="false" "no-trapping-math"="false" "stack-protector-buffer-size"="8" "target-cpu"="x86-64" "target-features"="+cx8,+fxsr,+mmx,+sse,+sse2,+x87" "unsafe-fp-math"="false" "use-soft-float"="false" }
attributes #5 = { nounwind readnone speculatable willreturn }
attributes #6 = { nounwind }
attributes #7 = { builtin nounwind }

!llvm.dbg.cu = !{!0}
!llvm.module.flags = !{!2804, !2805, !2806, !2807, !2808}
!llvm.ident = !{!2809}

!0 = distinct !DICompileUnit(language: DW_LANG_C_plus_plus_14, file: !1, producer: "clang version 10.0.0 ", isOptimized: true, runtimeVersion: 0, emissionKind: FullDebug, enums: !2, imports: !2182, splitDebugInlining: false, nameTableKind: None)
!1 = !DIFile(filename: "../elements/ip/lookupiproute.cc", directory: "/home/john/projects/click/ir-dir")
!2 = !{!3, !425}
!3 = !DICompositeType(tag: DW_TAG_enumeration_type, name: "DeprecatedFlags", scope: !5, file: !4, line: 252, baseType: !34, size: 32, elements: !414, identifier: "_ZTSN7Handler15DeprecatedFlagsE")
!4 = !DIFile(filename: "../dummy_inc/click/handler.hh", directory: "/home/john/projects/click/ir-dir")
!5 = distinct !DICompositeType(tag: DW_TAG_class_type, name: "Handler", file: !4, line: 19, size: 576, flags: DIFlagTypePassByReference | DIFlagNonTrivial, elements: !6, identifier: "_ZTS7Handler")
!6 = !{!7, !318, !340, !349, !350, !351, !352, !353, !354, !355, !359, !362, !365, !368, !369, !370, !371, !374, !375, !376, !377, !378, !379, !380, !381, !382, !385, !388, !391, !394, !397, !400, !403, !407, !411}
!7 = !DIDerivedType(tag: DW_TAG_member, name: "_name", scope: !5, file: !4, line: 289, baseType: !8, size: 192)
!8 = distinct !DICompositeType(tag: DW_TAG_class_type, name: "String", file: !9, line: 19, size: 192, flags: DIFlagTypePassByReference | DIFlagNonTrivial, elements: !10, identifier: "_ZTS6String")
!9 = !DIFile(filename: "../dummy_inc/click/string.hh", directory: "/home/john/projects/click/ir-dir")
!10 = !{!11, !17, !41, !42, !46, !50, !52, !53, !57, !62, !66, !69, !72, !78, !81, !84, !88, !91, !94, !97, !100, !104, !108, !112, !116, !120, !121, !124, !127, !128, !131, !134, !137, !144, !150, !154, !157, !158, !163, !166, !167, !171, !172, !175, !176, !179, !180, !183, !186, !189, !192, !195, !198, !201, !204, !207, !210, !213, !216, !217, !218, !219, !222, !225, !226, !227, !228, !229, !230, !231, !235, !238, !241, !244, !245, !246, !247, !248, !249, !252, !256, !257, !258, !259, !262, !263, !264, !265, !266, !267, !270, !271, !272, !273, !276, !279, !280, !283, !286, !289, !292, !295, !298, !301, !302, !303, !304, !307, !310, !313, !314, !315}
!11 = !DIDerivedType(tag: DW_TAG_member, name: "bool_data", scope: !8, file: !9, line: 184, baseType: !12, flags: DIFlagPublic | DIFlagStaticMember)
!12 = !DICompositeType(tag: DW_TAG_array_type, baseType: !13, size: 88, elements: !15)
!13 = !DIDerivedType(tag: DW_TAG_const_type, baseType: !14)
!14 = !DIBasicType(name: "char", size: 8, encoding: DW_ATE_signed_char)
!15 = !{!16}
!16 = !DISubrange(count: 11)
!17 = !DIDerivedType(tag: DW_TAG_member, name: "_r", scope: !8, file: !9, line: 211, baseType: !18, size: 192)
!18 = distinct !DICompositeType(tag: DW_TAG_structure_type, name: "rep_t", scope: !8, file: !9, line: 204, size: 192, flags: DIFlagTypePassByValue, elements: !19, identifier: "_ZTSN6String5rep_tE")
!19 = !{!20, !22, !24}
!20 = !DIDerivedType(tag: DW_TAG_member, name: "data", scope: !18, file: !9, line: 205, baseType: !21, size: 64)
!21 = !DIDerivedType(tag: DW_TAG_pointer_type, baseType: !13, size: 64)
!22 = !DIDerivedType(tag: DW_TAG_member, name: "length", scope: !18, file: !9, line: 206, baseType: !23, size: 32, offset: 64)
!23 = !DIBasicType(name: "int", size: 32, encoding: DW_ATE_signed)
!24 = !DIDerivedType(tag: DW_TAG_member, name: "memo", scope: !18, file: !9, line: 207, baseType: !25, size: 64, offset: 128)
!25 = !DIDerivedType(tag: DW_TAG_pointer_type, baseType: !26, size: 64)
!26 = distinct !DICompositeType(tag: DW_TAG_structure_type, name: "memo_t", scope: !8, file: !9, line: 189, size: 160, flags: DIFlagTypePassByValue, elements: !27, identifier: "_ZTSN6String6memo_tE")
!27 = !{!28, !35, !36, !37}
!28 = !DIDerivedType(tag: DW_TAG_member, name: "refcount", scope: !26, file: !9, line: 190, baseType: !29, size: 32)
!29 = !DIDerivedType(tag: DW_TAG_volatile_type, baseType: !30)
!30 = !DIDerivedType(tag: DW_TAG_typedef, name: "uint32_t", file: !31, line: 26, baseType: !32)
!31 = !DIFile(filename: "/usr/include/bits/stdint-uintn.h", directory: "")
!32 = !DIDerivedType(tag: DW_TAG_typedef, name: "__uint32_t", file: !33, line: 42, baseType: !34)
!33 = !DIFile(filename: "/usr/include/bits/types.h", directory: "")
!34 = !DIBasicType(name: "unsigned int", size: 32, encoding: DW_ATE_unsigned)
!35 = !DIDerivedType(tag: DW_TAG_member, name: "capacity", scope: !26, file: !9, line: 191, baseType: !30, size: 32, offset: 32)
!36 = !DIDerivedType(tag: DW_TAG_member, name: "dirty", scope: !26, file: !9, line: 192, baseType: !29, size: 32, offset: 64)
!37 = !DIDerivedType(tag: DW_TAG_member, name: "real_data", scope: !26, file: !9, line: 197, baseType: !38, size: 64, offset: 96)
!38 = !DICompositeType(tag: DW_TAG_array_type, baseType: !14, size: 64, elements: !39)
!39 = !{!40}
!40 = !DISubrange(count: 8)
!41 = !DIDerivedType(tag: DW_TAG_member, name: "null_data", scope: !8, file: !9, line: 292, baseType: !13, flags: DIFlagStaticMember)
!42 = !DIDerivedType(tag: DW_TAG_member, name: "oom_data", scope: !8, file: !9, line: 293, baseType: !43, flags: DIFlagStaticMember)
!43 = !DICompositeType(tag: DW_TAG_array_type, baseType: !13, size: 120, elements: !44)
!44 = !{!45}
!45 = !DISubrange(count: 15)
!46 = !DIDerivedType(tag: DW_TAG_member, name: "int_data", scope: !8, file: !9, line: 294, baseType: !47, flags: DIFlagStaticMember)
!47 = !DICompositeType(tag: DW_TAG_array_type, baseType: !13, size: 160, elements: !48)
!48 = !{!49}
!49 = !DISubrange(count: 20)
!50 = !DIDerivedType(tag: DW_TAG_member, name: "null_string_rep", scope: !8, file: !9, line: 295, baseType: !51, flags: DIFlagStaticMember)
!51 = !DIDerivedType(tag: DW_TAG_const_type, baseType: !18)
!52 = !DIDerivedType(tag: DW_TAG_member, name: "oom_string_rep", scope: !8, file: !9, line: 296, baseType: !51, flags: DIFlagStaticMember)
!53 = !DISubprogram(name: "String", scope: !8, file: !9, line: 39, type: !54, scopeLine: 39, flags: DIFlagPublic | DIFlagPrototyped, spFlags: DISPFlagOptimized)
!54 = !DISubroutineType(types: !55)
!55 = !{null, !56}
!56 = !DIDerivedType(tag: DW_TAG_pointer_type, baseType: !8, size: 64, flags: DIFlagArtificial | DIFlagObjectPointer)
!57 = !DISubprogram(name: "String", scope: !8, file: !9, line: 40, type: !58, scopeLine: 40, flags: DIFlagPublic | DIFlagPrototyped, spFlags: DISPFlagOptimized)
!58 = !DISubroutineType(types: !59)
!59 = !{null, !56, !60}
!60 = !DIDerivedType(tag: DW_TAG_reference_type, baseType: !61, size: 64)
!61 = !DIDerivedType(tag: DW_TAG_const_type, baseType: !8)
!62 = !DISubprogram(name: "String", scope: !8, file: !9, line: 42, type: !63, scopeLine: 42, flags: DIFlagPublic | DIFlagPrototyped, spFlags: DISPFlagOptimized)
!63 = !DISubroutineType(types: !64)
!64 = !{null, !56, !65}
!65 = !DIDerivedType(tag: DW_TAG_rvalue_reference_type, baseType: !8, size: 64)
!66 = !DISubprogram(name: "String", scope: !8, file: !9, line: 44, type: !67, scopeLine: 44, flags: DIFlagPublic | DIFlagPrototyped, spFlags: DISPFlagOptimized)
!67 = !DISubroutineType(types: !68)
!68 = !{null, !56, !21}
!69 = !DISubprogram(name: "String", scope: !8, file: !9, line: 45, type: !70, scopeLine: 45, flags: DIFlagPublic | DIFlagPrototyped, spFlags: DISPFlagOptimized)
!70 = !DISubroutineType(types: !71)
!71 = !{null, !56, !21, !23}
!72 = !DISubprogram(name: "String", scope: !8, file: !9, line: 46, type: !73, scopeLine: 46, flags: DIFlagPublic | DIFlagPrototyped, spFlags: DISPFlagOptimized)
!73 = !DISubroutineType(types: !74)
!74 = !{null, !56, !75, !23}
!75 = !DIDerivedType(tag: DW_TAG_pointer_type, baseType: !76, size: 64)
!76 = !DIDerivedType(tag: DW_TAG_const_type, baseType: !77)
!77 = !DIBasicType(name: "unsigned char", size: 8, encoding: DW_ATE_unsigned_char)
!78 = !DISubprogram(name: "String", scope: !8, file: !9, line: 47, type: !79, scopeLine: 47, flags: DIFlagPublic | DIFlagPrototyped, spFlags: DISPFlagOptimized)
!79 = !DISubroutineType(types: !80)
!80 = !{null, !56, !21, !21}
!81 = !DISubprogram(name: "String", scope: !8, file: !9, line: 48, type: !82, scopeLine: 48, flags: DIFlagPublic | DIFlagPrototyped, spFlags: DISPFlagOptimized)
!82 = !DISubroutineType(types: !83)
!83 = !{null, !56, !75, !75}
!84 = !DISubprogram(name: "String", scope: !8, file: !9, line: 49, type: !85, scopeLine: 49, flags: DIFlagPublic | DIFlagExplicit | DIFlagPrototyped, spFlags: DISPFlagOptimized)
!85 = !DISubroutineType(types: !86)
!86 = !{null, !56, !87}
!87 = !DIBasicType(name: "bool", size: 8, encoding: DW_ATE_boolean)
!88 = !DISubprogram(name: "String", scope: !8, file: !9, line: 50, type: !89, scopeLine: 50, flags: DIFlagPublic | DIFlagExplicit | DIFlagPrototyped, spFlags: DISPFlagOptimized)
!89 = !DISubroutineType(types: !90)
!90 = !{null, !56, !14}
!91 = !DISubprogram(name: "String", scope: !8, file: !9, line: 51, type: !92, scopeLine: 51, flags: DIFlagPublic | DIFlagExplicit | DIFlagPrototyped, spFlags: DISPFlagOptimized)
!92 = !DISubroutineType(types: !93)
!93 = !{null, !56, !77}
!94 = !DISubprogram(name: "String", scope: !8, file: !9, line: 52, type: !95, scopeLine: 52, flags: DIFlagPublic | DIFlagExplicit | DIFlagPrototyped, spFlags: DISPFlagOptimized)
!95 = !DISubroutineType(types: !96)
!96 = !{null, !56, !23}
!97 = !DISubprogram(name: "String", scope: !8, file: !9, line: 53, type: !98, scopeLine: 53, flags: DIFlagPublic | DIFlagExplicit | DIFlagPrototyped, spFlags: DISPFlagOptimized)
!98 = !DISubroutineType(types: !99)
!99 = !{null, !56, !34}
!100 = !DISubprogram(name: "String", scope: !8, file: !9, line: 54, type: !101, scopeLine: 54, flags: DIFlagPublic | DIFlagExplicit | DIFlagPrototyped, spFlags: DISPFlagOptimized)
!101 = !DISubroutineType(types: !102)
!102 = !{null, !56, !103}
!103 = !DIBasicType(name: "long int", size: 64, encoding: DW_ATE_signed)
!104 = !DISubprogram(name: "String", scope: !8, file: !9, line: 55, type: !105, scopeLine: 55, flags: DIFlagPublic | DIFlagExplicit | DIFlagPrototyped, spFlags: DISPFlagOptimized)
!105 = !DISubroutineType(types: !106)
!106 = !{null, !56, !107}
!107 = !DIBasicType(name: "long unsigned int", size: 64, encoding: DW_ATE_unsigned)
!108 = !DISubprogram(name: "String", scope: !8, file: !9, line: 57, type: !109, scopeLine: 57, flags: DIFlagPublic | DIFlagExplicit | DIFlagPrototyped, spFlags: DISPFlagOptimized)
!109 = !DISubroutineType(types: !110)
!110 = !{null, !56, !111}
!111 = !DIBasicType(name: "long long int", size: 64, encoding: DW_ATE_signed)
!112 = !DISubprogram(name: "String", scope: !8, file: !9, line: 58, type: !113, scopeLine: 58, flags: DIFlagPublic | DIFlagExplicit | DIFlagPrototyped, spFlags: DISPFlagOptimized)
!113 = !DISubroutineType(types: !114)
!114 = !{null, !56, !115}
!115 = !DIBasicType(name: "long long unsigned int", size: 64, encoding: DW_ATE_unsigned)
!116 = !DISubprogram(name: "String", scope: !8, file: !9, line: 65, type: !117, scopeLine: 65, flags: DIFlagPublic | DIFlagExplicit | DIFlagPrototyped, spFlags: DISPFlagOptimized)
!117 = !DISubroutineType(types: !118)
!118 = !{null, !56, !119}
!119 = !DIBasicType(name: "double", size: 64, encoding: DW_ATE_float)
!120 = !DISubprogram(name: "~String", scope: !8, file: !9, line: 67, type: !54, scopeLine: 67, flags: DIFlagPublic | DIFlagPrototyped, spFlags: DISPFlagOptimized)
!121 = !DISubprogram(name: "make_empty", linkageName: "_ZN6String10make_emptyEv", scope: !8, file: !9, line: 69, type: !122, scopeLine: 69, flags: DIFlagPublic | DIFlagPrototyped | DIFlagStaticMember, spFlags: DISPFlagOptimized)
!122 = !DISubroutineType(types: !123)
!123 = !{!60}
!124 = !DISubprogram(name: "make_uninitialized", linkageName: "_ZN6String18make_uninitializedEi", scope: !8, file: !9, line: 70, type: !125, scopeLine: 70, flags: DIFlagPublic | DIFlagPrototyped | DIFlagStaticMember, spFlags: DISPFlagOptimized)
!125 = !DISubroutineType(types: !126)
!126 = !{!8, !23}
!127 = !DISubprogram(name: "make_garbage", linkageName: "_ZN6String12make_garbageEi", scope: !8, file: !9, line: 71, type: !125, scopeLine: 71, flags: DIFlagPublic | DIFlagPrototyped | DIFlagStaticMember, spFlags: DISPFlagOptimized)
!128 = !DISubprogram(name: "make_stable", linkageName: "_ZN6String11make_stableEPKc", scope: !8, file: !9, line: 72, type: !129, scopeLine: 72, flags: DIFlagPublic | DIFlagPrototyped | DIFlagStaticMember, spFlags: DISPFlagOptimized)
!129 = !DISubroutineType(types: !130)
!130 = !{!8, !21}
!131 = !DISubprogram(name: "make_stable", linkageName: "_ZN6String11make_stableEPKci", scope: !8, file: !9, line: 73, type: !132, scopeLine: 73, flags: DIFlagPublic | DIFlagPrototyped | DIFlagStaticMember, spFlags: DISPFlagOptimized)
!132 = !DISubroutineType(types: !133)
!133 = !{!8, !21, !23}
!134 = !DISubprogram(name: "make_stable", linkageName: "_ZN6String11make_stableEPKcS1_", scope: !8, file: !9, line: 74, type: !135, scopeLine: 74, flags: DIFlagPublic | DIFlagPrototyped | DIFlagStaticMember, spFlags: DISPFlagOptimized)
!135 = !DISubroutineType(types: !136)
!136 = !{!8, !21, !21}
!137 = !DISubprogram(name: "make_numeric", linkageName: "_ZN6String12make_numericElib", scope: !8, file: !9, line: 75, type: !138, scopeLine: 75, flags: DIFlagPublic | DIFlagPrototyped | DIFlagStaticMember, spFlags: DISPFlagOptimized)
!138 = !DISubroutineType(types: !139)
!139 = !{!8, !140, !23, !87}
!140 = !DIDerivedType(tag: DW_TAG_typedef, name: "intmax_t", scope: !8, file: !9, line: 27, baseType: !141)
!141 = !DIDerivedType(tag: DW_TAG_typedef, name: "int64_t", file: !142, line: 27, baseType: !143)
!142 = !DIFile(filename: "/usr/include/bits/stdint-intn.h", directory: "")
!143 = !DIDerivedType(tag: DW_TAG_typedef, name: "__int64_t", file: !33, line: 44, baseType: !103)
!144 = !DISubprogram(name: "make_numeric", linkageName: "_ZN6String12make_numericEmib", scope: !8, file: !9, line: 76, type: !145, scopeLine: 76, flags: DIFlagPublic | DIFlagPrototyped | DIFlagStaticMember, spFlags: DISPFlagOptimized)
!145 = !DISubroutineType(types: !146)
!146 = !{!8, !147, !23, !87}
!147 = !DIDerivedType(tag: DW_TAG_typedef, name: "uintmax_t", scope: !8, file: !9, line: 28, baseType: !148)
!148 = !DIDerivedType(tag: DW_TAG_typedef, name: "uint64_t", file: !31, line: 27, baseType: !149)
!149 = !DIDerivedType(tag: DW_TAG_typedef, name: "__uint64_t", file: !33, line: 45, baseType: !107)
!150 = !DISubprogram(name: "data", linkageName: "_ZNK6String4dataEv", scope: !8, file: !9, line: 78, type: !151, scopeLine: 78, flags: DIFlagPublic | DIFlagPrototyped, spFlags: DISPFlagOptimized)
!151 = !DISubroutineType(types: !152)
!152 = !{!21, !153}
!153 = !DIDerivedType(tag: DW_TAG_pointer_type, baseType: !61, size: 64, flags: DIFlagArtificial | DIFlagObjectPointer)
!154 = !DISubprogram(name: "length", linkageName: "_ZNK6String6lengthEv", scope: !8, file: !9, line: 79, type: !155, scopeLine: 79, flags: DIFlagPublic | DIFlagPrototyped, spFlags: DISPFlagOptimized)
!155 = !DISubroutineType(types: !156)
!156 = !{!23, !153}
!157 = !DISubprogram(name: "c_str", linkageName: "_ZNK6String5c_strEv", scope: !8, file: !9, line: 81, type: !151, scopeLine: 81, flags: DIFlagPublic | DIFlagPrototyped, spFlags: DISPFlagOptimized)
!158 = !DISubprogram(name: "operator int (String::*)() const", linkageName: "_ZNK6StringcvMS_KFivEEv", scope: !8, file: !9, line: 83, type: !159, scopeLine: 83, flags: DIFlagPublic | DIFlagPrototyped, spFlags: DISPFlagOptimized)
!159 = !DISubroutineType(types: !160)
!160 = !{!161, !153}
!161 = !DIDerivedType(tag: DW_TAG_typedef, name: "unspecified_bool_type", scope: !8, file: !9, line: 24, baseType: !162)
!162 = !DIDerivedType(tag: DW_TAG_ptr_to_member_type, baseType: !155, size: 128, extraData: !8)
!163 = !DISubprogram(name: "empty", linkageName: "_ZNK6String5emptyEv", scope: !8, file: !9, line: 84, type: !164, scopeLine: 84, flags: DIFlagPublic | DIFlagPrototyped, spFlags: DISPFlagOptimized)
!164 = !DISubroutineType(types: !165)
!165 = !{!87, !153}
!166 = !DISubprogram(name: "operator!", linkageName: "_ZNK6StringntEv", scope: !8, file: !9, line: 85, type: !164, scopeLine: 85, flags: DIFlagPublic | DIFlagPrototyped, spFlags: DISPFlagOptimized)
!167 = !DISubprogram(name: "begin", linkageName: "_ZNK6String5beginEv", scope: !8, file: !9, line: 87, type: !168, scopeLine: 87, flags: DIFlagPublic | DIFlagPrototyped, spFlags: DISPFlagOptimized)
!168 = !DISubroutineType(types: !169)
!169 = !{!170, !153}
!170 = !DIDerivedType(tag: DW_TAG_typedef, name: "const_iterator", scope: !8, file: !9, line: 21, baseType: !21)
!171 = !DISubprogram(name: "end", linkageName: "_ZNK6String3endEv", scope: !8, file: !9, line: 88, type: !168, scopeLine: 88, flags: DIFlagPublic | DIFlagPrototyped, spFlags: DISPFlagOptimized)
!172 = !DISubprogram(name: "operator[]", linkageName: "_ZNK6StringixEi", scope: !8, file: !9, line: 90, type: !173, scopeLine: 90, flags: DIFlagPublic | DIFlagPrototyped, spFlags: DISPFlagOptimized)
!173 = !DISubroutineType(types: !174)
!174 = !{!14, !153, !23}
!175 = !DISubprogram(name: "at", linkageName: "_ZNK6String2atEi", scope: !8, file: !9, line: 91, type: !173, scopeLine: 91, flags: DIFlagPublic | DIFlagPrototyped, spFlags: DISPFlagOptimized)
!176 = !DISubprogram(name: "front", linkageName: "_ZNK6String5frontEv", scope: !8, file: !9, line: 92, type: !177, scopeLine: 92, flags: DIFlagPublic | DIFlagPrototyped, spFlags: DISPFlagOptimized)
!177 = !DISubroutineType(types: !178)
!178 = !{!14, !153}
!179 = !DISubprogram(name: "back", linkageName: "_ZNK6String4backEv", scope: !8, file: !9, line: 93, type: !177, scopeLine: 93, flags: DIFlagPublic | DIFlagPrototyped, spFlags: DISPFlagOptimized)
!180 = !DISubprogram(name: "hashcode", linkageName: "_ZN6String8hashcodeEPKcS1_", scope: !8, file: !9, line: 95, type: !181, scopeLine: 95, flags: DIFlagPublic | DIFlagPrototyped | DIFlagStaticMember, spFlags: DISPFlagOptimized)
!181 = !DISubroutineType(types: !182)
!182 = !{!30, !21, !21}
!183 = !DISubprogram(name: "hashcode", linkageName: "_ZN6String8hashcodeEPKhS1_", scope: !8, file: !9, line: 96, type: !184, scopeLine: 96, flags: DIFlagPublic | DIFlagPrototyped | DIFlagStaticMember, spFlags: DISPFlagOptimized)
!184 = !DISubroutineType(types: !185)
!185 = !{!30, !75, !75}
!186 = !DISubprogram(name: "hashcode", linkageName: "_ZNK6String8hashcodeEv", scope: !8, file: !9, line: 98, type: !187, scopeLine: 98, flags: DIFlagPublic | DIFlagPrototyped, spFlags: DISPFlagOptimized)
!187 = !DISubroutineType(types: !188)
!188 = !{!30, !153}
!189 = !DISubprogram(name: "substring", linkageName: "_ZNK6String9substringEPKcS1_", scope: !8, file: !9, line: 100, type: !190, scopeLine: 100, flags: DIFlagPublic | DIFlagPrototyped, spFlags: DISPFlagOptimized)
!190 = !DISubroutineType(types: !191)
!191 = !{!8, !153, !21, !21}
!192 = !DISubprogram(name: "substring", linkageName: "_ZNK6String9substringEii", scope: !8, file: !9, line: 101, type: !193, scopeLine: 101, flags: DIFlagPublic | DIFlagPrototyped, spFlags: DISPFlagOptimized)
!193 = !DISubroutineType(types: !194)
!194 = !{!8, !153, !23, !23}
!195 = !DISubprogram(name: "substring", linkageName: "_ZNK6String9substringEi", scope: !8, file: !9, line: 102, type: !196, scopeLine: 102, flags: DIFlagPublic | DIFlagPrototyped, spFlags: DISPFlagOptimized)
!196 = !DISubroutineType(types: !197)
!197 = !{!8, !153, !23}
!198 = !DISubprogram(name: "trim_space", linkageName: "_ZNK6String10trim_spaceEv", scope: !8, file: !9, line: 103, type: !199, scopeLine: 103, flags: DIFlagPublic | DIFlagPrototyped, spFlags: DISPFlagOptimized)
!199 = !DISubroutineType(types: !200)
!200 = !{!8, !153}
!201 = !DISubprogram(name: "equals", linkageName: "_ZNK6String6equalsERKS_", scope: !8, file: !9, line: 105, type: !202, scopeLine: 105, flags: DIFlagPublic | DIFlagPrototyped, spFlags: DISPFlagOptimized)
!202 = !DISubroutineType(types: !203)
!203 = !{!87, !153, !60}
!204 = !DISubprogram(name: "equals", linkageName: "_ZNK6String6equalsEPKci", scope: !8, file: !9, line: 106, type: !205, scopeLine: 106, flags: DIFlagPublic | DIFlagPrototyped, spFlags: DISPFlagOptimized)
!205 = !DISubroutineType(types: !206)
!206 = !{!87, !153, !21, !23}
!207 = !DISubprogram(name: "compare", linkageName: "_ZN6String7compareERKS_S1_", scope: !8, file: !9, line: 107, type: !208, scopeLine: 107, flags: DIFlagPublic | DIFlagPrototyped | DIFlagStaticMember, spFlags: DISPFlagOptimized)
!208 = !DISubroutineType(types: !209)
!209 = !{!23, !60, !60}
!210 = !DISubprogram(name: "compare", linkageName: "_ZNK6String7compareERKS_", scope: !8, file: !9, line: 108, type: !211, scopeLine: 108, flags: DIFlagPublic | DIFlagPrototyped, spFlags: DISPFlagOptimized)
!211 = !DISubroutineType(types: !212)
!212 = !{!23, !153, !60}
!213 = !DISubprogram(name: "compare", linkageName: "_ZNK6String7compareEPKci", scope: !8, file: !9, line: 109, type: !214, scopeLine: 109, flags: DIFlagPublic | DIFlagPrototyped, spFlags: DISPFlagOptimized)
!214 = !DISubroutineType(types: !215)
!215 = !{!23, !153, !21, !23}
!216 = !DISubprogram(name: "starts_with", linkageName: "_ZNK6String11starts_withERKS_", scope: !8, file: !9, line: 110, type: !202, scopeLine: 110, flags: DIFlagPublic | DIFlagPrototyped, spFlags: DISPFlagOptimized)
!217 = !DISubprogram(name: "starts_with", linkageName: "_ZNK6String11starts_withEPKci", scope: !8, file: !9, line: 111, type: !205, scopeLine: 111, flags: DIFlagPublic | DIFlagPrototyped, spFlags: DISPFlagOptimized)
!218 = !DISubprogram(name: "glob_match", linkageName: "_ZNK6String10glob_matchERKS_", scope: !8, file: !9, line: 112, type: !202, scopeLine: 112, flags: DIFlagPublic | DIFlagPrototyped, spFlags: DISPFlagOptimized)
!219 = !DISubprogram(name: "find_left", linkageName: "_ZNK6String9find_leftEci", scope: !8, file: !9, line: 125, type: !220, scopeLine: 125, flags: DIFlagPublic | DIFlagPrototyped, spFlags: DISPFlagOptimized)
!220 = !DISubroutineType(types: !221)
!221 = !{!23, !153, !14, !23}
!222 = !DISubprogram(name: "find_left", linkageName: "_ZNK6String9find_leftERKS_i", scope: !8, file: !9, line: 126, type: !223, scopeLine: 126, flags: DIFlagPublic | DIFlagPrototyped, spFlags: DISPFlagOptimized)
!223 = !DISubroutineType(types: !224)
!224 = !{!23, !153, !60, !23}
!225 = !DISubprogram(name: "find_right", linkageName: "_ZNK6String10find_rightEci", scope: !8, file: !9, line: 127, type: !220, scopeLine: 127, flags: DIFlagPublic | DIFlagPrototyped, spFlags: DISPFlagOptimized)
!226 = !DISubprogram(name: "lower", linkageName: "_ZNK6String5lowerEv", scope: !8, file: !9, line: 129, type: !199, scopeLine: 129, flags: DIFlagPublic | DIFlagPrototyped, spFlags: DISPFlagOptimized)
!227 = !DISubprogram(name: "upper", linkageName: "_ZNK6String5upperEv", scope: !8, file: !9, line: 130, type: !199, scopeLine: 130, flags: DIFlagPublic | DIFlagPrototyped, spFlags: DISPFlagOptimized)
!228 = !DISubprogram(name: "printable", linkageName: "_ZNK6String9printableEv", scope: !8, file: !9, line: 131, type: !199, scopeLine: 131, flags: DIFlagPublic | DIFlagPrototyped, spFlags: DISPFlagOptimized)
!229 = !DISubprogram(name: "quoted_hex", linkageName: "_ZNK6String10quoted_hexEv", scope: !8, file: !9, line: 132, type: !199, scopeLine: 132, flags: DIFlagPublic | DIFlagPrototyped, spFlags: DISPFlagOptimized)
!230 = !DISubprogram(name: "encode_json", linkageName: "_ZNK6String11encode_jsonEv", scope: !8, file: !9, line: 133, type: !199, scopeLine: 133, flags: DIFlagPublic | DIFlagPrototyped, spFlags: DISPFlagOptimized)
!231 = !DISubprogram(name: "operator=", linkageName: "_ZN6StringaSERKS_", scope: !8, file: !9, line: 135, type: !232, scopeLine: 135, flags: DIFlagPublic | DIFlagPrototyped, spFlags: DISPFlagOptimized)
!232 = !DISubroutineType(types: !233)
!233 = !{!234, !56, !60}
!234 = !DIDerivedType(tag: DW_TAG_reference_type, baseType: !8, size: 64)
!235 = !DISubprogram(name: "operator=", linkageName: "_ZN6StringaSEOS_", scope: !8, file: !9, line: 137, type: !236, scopeLine: 137, flags: DIFlagPublic | DIFlagPrototyped, spFlags: DISPFlagOptimized)
!236 = !DISubroutineType(types: !237)
!237 = !{!234, !56, !65}
!238 = !DISubprogram(name: "operator=", linkageName: "_ZN6StringaSEPKc", scope: !8, file: !9, line: 139, type: !239, scopeLine: 139, flags: DIFlagPublic | DIFlagPrototyped, spFlags: DISPFlagOptimized)
!239 = !DISubroutineType(types: !240)
!240 = !{!234, !56, !21}
!241 = !DISubprogram(name: "swap", linkageName: "_ZN6String4swapERS_", scope: !8, file: !9, line: 141, type: !242, scopeLine: 141, flags: DIFlagPublic | DIFlagPrototyped, spFlags: DISPFlagOptimized)
!242 = !DISubroutineType(types: !243)
!243 = !{null, !56, !234}
!244 = !DISubprogram(name: "append", linkageName: "_ZN6String6appendERKS_", scope: !8, file: !9, line: 143, type: !58, scopeLine: 143, flags: DIFlagPublic | DIFlagPrototyped, spFlags: DISPFlagOptimized)
!245 = !DISubprogram(name: "append", linkageName: "_ZN6String6appendEPKc", scope: !8, file: !9, line: 144, type: !67, scopeLine: 144, flags: DIFlagPublic | DIFlagPrototyped, spFlags: DISPFlagOptimized)
!246 = !DISubprogram(name: "append", linkageName: "_ZN6String6appendEPKci", scope: !8, file: !9, line: 145, type: !70, scopeLine: 145, flags: DIFlagPublic | DIFlagPrototyped, spFlags: DISPFlagOptimized)
!247 = !DISubprogram(name: "append", linkageName: "_ZN6String6appendEPKcS1_", scope: !8, file: !9, line: 146, type: !79, scopeLine: 146, flags: DIFlagPublic | DIFlagPrototyped, spFlags: DISPFlagOptimized)
!248 = !DISubprogram(name: "append", linkageName: "_ZN6String6appendEc", scope: !8, file: !9, line: 147, type: !89, scopeLine: 147, flags: DIFlagPublic | DIFlagPrototyped, spFlags: DISPFlagOptimized)
!249 = !DISubprogram(name: "append_fill", linkageName: "_ZN6String11append_fillEii", scope: !8, file: !9, line: 148, type: !250, scopeLine: 148, flags: DIFlagPublic | DIFlagPrototyped, spFlags: DISPFlagOptimized)
!250 = !DISubroutineType(types: !251)
!251 = !{null, !56, !23, !23}
!252 = !DISubprogram(name: "append_uninitialized", linkageName: "_ZN6String20append_uninitializedEi", scope: !8, file: !9, line: 149, type: !253, scopeLine: 149, flags: DIFlagPublic | DIFlagPrototyped, spFlags: DISPFlagOptimized)
!253 = !DISubroutineType(types: !254)
!254 = !{!255, !56, !23}
!255 = !DIDerivedType(tag: DW_TAG_pointer_type, baseType: !14, size: 64)
!256 = !DISubprogram(name: "append_garbage", linkageName: "_ZN6String14append_garbageEi", scope: !8, file: !9, line: 150, type: !253, scopeLine: 150, flags: DIFlagPublic | DIFlagPrototyped, spFlags: DISPFlagOptimized)
!257 = !DISubprogram(name: "operator+=", linkageName: "_ZN6StringpLERKS_", scope: !8, file: !9, line: 152, type: !232, scopeLine: 152, flags: DIFlagPublic | DIFlagPrototyped, spFlags: DISPFlagOptimized)
!258 = !DISubprogram(name: "operator+=", linkageName: "_ZN6StringpLEPKc", scope: !8, file: !9, line: 153, type: !239, scopeLine: 153, flags: DIFlagPublic | DIFlagPrototyped, spFlags: DISPFlagOptimized)
!259 = !DISubprogram(name: "operator+=", linkageName: "_ZN6StringpLEc", scope: !8, file: !9, line: 154, type: !260, scopeLine: 154, flags: DIFlagPublic | DIFlagPrototyped, spFlags: DISPFlagOptimized)
!260 = !DISubroutineType(types: !261)
!261 = !{!234, !56, !14}
!262 = !DISubprogram(name: "is_shared", linkageName: "_ZNK6String9is_sharedEv", scope: !8, file: !9, line: 160, type: !164, scopeLine: 160, flags: DIFlagPublic | DIFlagPrototyped, spFlags: DISPFlagOptimized)
!263 = !DISubprogram(name: "is_stable", linkageName: "_ZNK6String9is_stableEv", scope: !8, file: !9, line: 161, type: !164, scopeLine: 161, flags: DIFlagPublic | DIFlagPrototyped, spFlags: DISPFlagOptimized)
!264 = !DISubprogram(name: "unique", linkageName: "_ZNK6String6uniqueEv", scope: !8, file: !9, line: 163, type: !199, scopeLine: 163, flags: DIFlagPublic | DIFlagPrototyped, spFlags: DISPFlagOptimized)
!265 = !DISubprogram(name: "unshared", linkageName: "_ZNK6String8unsharedEv", scope: !8, file: !9, line: 164, type: !199, scopeLine: 164, flags: DIFlagPublic | DIFlagPrototyped, spFlags: DISPFlagOptimized)
!266 = !DISubprogram(name: "compact", linkageName: "_ZNK6String7compactEv", scope: !8, file: !9, line: 165, type: !199, scopeLine: 165, flags: DIFlagPublic | DIFlagPrototyped, spFlags: DISPFlagOptimized)
!267 = !DISubprogram(name: "mutable_data", linkageName: "_ZN6String12mutable_dataEv", scope: !8, file: !9, line: 167, type: !268, scopeLine: 167, flags: DIFlagPublic | DIFlagPrototyped, spFlags: DISPFlagOptimized)
!268 = !DISubroutineType(types: !269)
!269 = !{!255, !56}
!270 = !DISubprogram(name: "mutable_c_str", linkageName: "_ZN6String13mutable_c_strEv", scope: !8, file: !9, line: 168, type: !268, scopeLine: 168, flags: DIFlagPublic | DIFlagPrototyped, spFlags: DISPFlagOptimized)
!271 = !DISubprogram(name: "make_out_of_memory", linkageName: "_ZN6String18make_out_of_memoryEv", scope: !8, file: !9, line: 170, type: !122, scopeLine: 170, flags: DIFlagPublic | DIFlagPrototyped | DIFlagStaticMember, spFlags: DISPFlagOptimized)
!272 = !DISubprogram(name: "out_of_memory", linkageName: "_ZNK6String13out_of_memoryEv", scope: !8, file: !9, line: 171, type: !164, scopeLine: 171, flags: DIFlagPublic | DIFlagPrototyped, spFlags: DISPFlagOptimized)
!273 = !DISubprogram(name: "out_of_memory_data", linkageName: "_ZN6String18out_of_memory_dataEv", scope: !8, file: !9, line: 172, type: !274, scopeLine: 172, flags: DIFlagPublic | DIFlagPrototyped | DIFlagStaticMember, spFlags: DISPFlagOptimized)
!274 = !DISubroutineType(types: !275)
!275 = !{!21}
!276 = !DISubprogram(name: "out_of_memory_length", linkageName: "_ZN6String20out_of_memory_lengthEv", scope: !8, file: !9, line: 173, type: !277, scopeLine: 173, flags: DIFlagPublic | DIFlagPrototyped | DIFlagStaticMember, spFlags: DISPFlagOptimized)
!277 = !DISubroutineType(types: !278)
!278 = !{!23}
!279 = !DISubprogram(name: "empty_data", linkageName: "_ZN6String10empty_dataEv", scope: !8, file: !9, line: 174, type: !274, scopeLine: 174, flags: DIFlagPublic | DIFlagPrototyped | DIFlagStaticMember, spFlags: DISPFlagOptimized)
!280 = !DISubprogram(name: "skip_utf8_char", linkageName: "_ZN6String14skip_utf8_charEPKcS1_", scope: !8, file: !9, line: 180, type: !281, scopeLine: 180, flags: DIFlagPublic | DIFlagPrototyped | DIFlagStaticMember, spFlags: DISPFlagOptimized)
!281 = !DISubroutineType(types: !282)
!282 = !{!21, !21, !21}
!283 = !DISubprogram(name: "skip_utf8_char", linkageName: "_ZN6String14skip_utf8_charEPKhS1_", scope: !8, file: !9, line: 181, type: !284, scopeLine: 181, flags: DIFlagPublic | DIFlagPrototyped | DIFlagStaticMember, spFlags: DISPFlagOptimized)
!284 = !DISubroutineType(types: !285)
!285 = !{!75, !75, !75}
!286 = !DISubprogram(name: "assign_memo", linkageName: "_ZNK6String11assign_memoEPKciPNS_6memo_tE", scope: !8, file: !9, line: 256, type: !287, scopeLine: 256, flags: DIFlagPrototyped, spFlags: DISPFlagOptimized)
!287 = !DISubroutineType(types: !288)
!288 = !{null, !153, !21, !23, !25}
!289 = !DISubprogram(name: "String", scope: !8, file: !9, line: 263, type: !290, scopeLine: 263, flags: DIFlagPrototyped, spFlags: DISPFlagOptimized)
!290 = !DISubroutineType(types: !291)
!291 = !{null, !56, !21, !23, !25}
!292 = !DISubprogram(name: "assign", linkageName: "_ZNK6String6assignERKS_", scope: !8, file: !9, line: 267, type: !293, scopeLine: 267, flags: DIFlagPrototyped, spFlags: DISPFlagOptimized)
!293 = !DISubroutineType(types: !294)
!294 = !{null, !153, !60}
!295 = !DISubprogram(name: "deref", linkageName: "_ZNK6String5derefEv", scope: !8, file: !9, line: 271, type: !296, scopeLine: 271, flags: DIFlagPrototyped, spFlags: DISPFlagOptimized)
!296 = !DISubroutineType(types: !297)
!297 = !{null, !153}
!298 = !DISubprogram(name: "assign", linkageName: "_ZN6String6assignEPKcib", scope: !8, file: !9, line: 280, type: !299, scopeLine: 280, flags: DIFlagPrototyped, spFlags: DISPFlagOptimized)
!299 = !DISubroutineType(types: !300)
!300 = !{null, !56, !21, !23, !87}
!301 = !DISubprogram(name: "assign_out_of_memory", linkageName: "_ZN6String20assign_out_of_memoryEv", scope: !8, file: !9, line: 281, type: !54, scopeLine: 281, flags: DIFlagPrototyped, spFlags: DISPFlagOptimized)
!302 = !DISubprogram(name: "append", linkageName: "_ZN6String6appendEPKciPNS_6memo_tE", scope: !8, file: !9, line: 282, type: !290, scopeLine: 282, flags: DIFlagPrototyped, spFlags: DISPFlagOptimized)
!303 = !DISubprogram(name: "hard_make_stable", linkageName: "_ZN6String16hard_make_stableEPKci", scope: !8, file: !9, line: 283, type: !132, scopeLine: 283, flags: DIFlagPrototyped | DIFlagStaticMember, spFlags: DISPFlagOptimized)
!304 = !DISubprogram(name: "absent_memo", linkageName: "_ZN6String11absent_memoEv", scope: !8, file: !9, line: 284, type: !305, scopeLine: 284, flags: DIFlagPrototyped | DIFlagStaticMember, spFlags: DISPFlagOptimized)
!305 = !DISubroutineType(types: !306)
!306 = !{!25}
!307 = !DISubprogram(name: "create_memo", linkageName: "_ZN6String11create_memoEPcii", scope: !8, file: !9, line: 287, type: !308, scopeLine: 287, flags: DIFlagPrototyped | DIFlagStaticMember, spFlags: DISPFlagOptimized)
!308 = !DISubroutineType(types: !309)
!309 = !{!25, !255, !23, !23}
!310 = !DISubprogram(name: "delete_memo", linkageName: "_ZN6String11delete_memoEPNS_6memo_tE", scope: !8, file: !9, line: 288, type: !311, scopeLine: 288, flags: DIFlagPrototyped | DIFlagStaticMember, spFlags: DISPFlagOptimized)
!311 = !DISubroutineType(types: !312)
!312 = !{null, !25}
!313 = !DISubprogram(name: "hard_c_str", linkageName: "_ZNK6String10hard_c_strEv", scope: !8, file: !9, line: 289, type: !151, scopeLine: 289, flags: DIFlagPrototyped, spFlags: DISPFlagOptimized)
!314 = !DISubprogram(name: "hard_equals", linkageName: "_ZNK6String11hard_equalsEPKci", scope: !8, file: !9, line: 290, type: !205, scopeLine: 290, flags: DIFlagPrototyped, spFlags: DISPFlagOptimized)
!315 = !DISubprogram(name: "make_claim", linkageName: "_ZN6String10make_claimEPcii", scope: !8, file: !9, line: 299, type: !316, scopeLine: 299, flags: DIFlagPrototyped | DIFlagStaticMember, spFlags: DISPFlagOptimized)
!316 = !DISubroutineType(types: !317)
!317 = !{!8, !255, !23, !23}
!318 = !DIDerivedType(tag: DW_TAG_member, name: "_read_hook", scope: !5, file: !4, line: 293, baseType: !319, size: 64, offset: 192)
!319 = distinct !DICompositeType(tag: DW_TAG_union_type, scope: !5, file: !4, line: 290, size: 64, flags: DIFlagTypePassByValue, elements: !320, identifier: "_ZTSN7HandlerUt1_E")
!320 = !{!321, !334}
!321 = !DIDerivedType(tag: DW_TAG_member, name: "h", scope: !319, file: !4, line: 291, baseType: !322, size: 64)
!322 = !DIDerivedType(tag: DW_TAG_typedef, name: "HandlerCallback", file: !4, line: 13, baseType: !323)
!323 = !DIDerivedType(tag: DW_TAG_pointer_type, baseType: !324, size: 64)
!324 = !DISubroutineType(types: !325)
!325 = !{!23, !23, !234, !326, !329, !331}
!326 = !DIDerivedType(tag: DW_TAG_pointer_type, baseType: !327, size: 64)
!327 = !DICompositeType(tag: DW_TAG_class_type, name: "Element", file: !328, line: 29, flags: DIFlagFwdDecl, identifier: "_ZTS7Element")
!328 = !DIFile(filename: "../dummy_inc/click/element.hh", directory: "/home/john/projects/click/ir-dir")
!329 = !DIDerivedType(tag: DW_TAG_pointer_type, baseType: !330, size: 64)
!330 = !DIDerivedType(tag: DW_TAG_const_type, baseType: !5)
!331 = !DIDerivedType(tag: DW_TAG_pointer_type, baseType: !332, size: 64)
!332 = !DICompositeType(tag: DW_TAG_class_type, name: "ErrorHandler", file: !333, line: 90, flags: DIFlagFwdDecl, identifier: "_ZTS12ErrorHandler")
!333 = !DIFile(filename: "../dummy_inc/click/error.hh", directory: "/home/john/projects/click/ir-dir")
!334 = !DIDerivedType(tag: DW_TAG_member, name: "r", scope: !319, file: !4, line: 292, baseType: !335, size: 64)
!335 = !DIDerivedType(tag: DW_TAG_typedef, name: "ReadHandlerCallback", file: !4, line: 15, baseType: !336)
!336 = !DIDerivedType(tag: DW_TAG_pointer_type, baseType: !337, size: 64)
!337 = !DISubroutineType(types: !338)
!338 = !{!8, !326, !339}
!339 = !DIDerivedType(tag: DW_TAG_pointer_type, baseType: null, size: 64)
!340 = !DIDerivedType(tag: DW_TAG_member, name: "_write_hook", scope: !5, file: !4, line: 297, baseType: !341, size: 64, offset: 256)
!341 = distinct !DICompositeType(tag: DW_TAG_union_type, scope: !5, file: !4, line: 294, size: 64, flags: DIFlagTypePassByValue, elements: !342, identifier: "_ZTSN7HandlerUt2_E")
!342 = !{!343, !344}
!343 = !DIDerivedType(tag: DW_TAG_member, name: "h", scope: !341, file: !4, line: 295, baseType: !322, size: 64)
!344 = !DIDerivedType(tag: DW_TAG_member, name: "w", scope: !341, file: !4, line: 296, baseType: !345, size: 64)
!345 = !DIDerivedType(tag: DW_TAG_typedef, name: "WriteHandlerCallback", file: !4, line: 16, baseType: !346)
!346 = !DIDerivedType(tag: DW_TAG_pointer_type, baseType: !347, size: 64)
!347 = !DISubroutineType(types: !348)
!348 = !{!23, !60, !326, !339, !331}
!349 = !DIDerivedType(tag: DW_TAG_member, name: "_read_user_data", scope: !5, file: !4, line: 298, baseType: !339, size: 64, offset: 320)
!350 = !DIDerivedType(tag: DW_TAG_member, name: "_write_user_data", scope: !5, file: !4, line: 299, baseType: !339, size: 64, offset: 384)
!351 = !DIDerivedType(tag: DW_TAG_member, name: "_flags", scope: !5, file: !4, line: 300, baseType: !30, size: 32, offset: 448)
!352 = !DIDerivedType(tag: DW_TAG_member, name: "_use_count", scope: !5, file: !4, line: 301, baseType: !23, size: 32, offset: 480)
!353 = !DIDerivedType(tag: DW_TAG_member, name: "_next_by_name", scope: !5, file: !4, line: 302, baseType: !23, size: 32, offset: 512)
!354 = !DIDerivedType(tag: DW_TAG_member, name: "the_blank_handler", scope: !5, file: !4, line: 304, baseType: !329, flags: DIFlagStaticMember)
!355 = !DISubprogram(name: "name", linkageName: "_ZNK7Handler4nameEv", scope: !5, file: !4, line: 62, type: !356, scopeLine: 62, flags: DIFlagPublic | DIFlagPrototyped, spFlags: DISPFlagOptimized)
!356 = !DISubroutineType(types: !357)
!357 = !{!60, !358}
!358 = !DIDerivedType(tag: DW_TAG_pointer_type, baseType: !330, size: 64, flags: DIFlagArtificial | DIFlagObjectPointer)
!359 = !DISubprogram(name: "flags", linkageName: "_ZNK7Handler5flagsEv", scope: !5, file: !4, line: 69, type: !360, scopeLine: 69, flags: DIFlagPublic | DIFlagPrototyped, spFlags: DISPFlagOptimized)
!360 = !DISubroutineType(types: !361)
!361 = !{!30, !358}
!362 = !DISubprogram(name: "user_data", linkageName: "_ZNK7Handler9user_dataEi", scope: !5, file: !4, line: 75, type: !363, scopeLine: 75, flags: DIFlagPublic | DIFlagPrototyped, spFlags: DISPFlagOptimized)
!363 = !DISubroutineType(types: !364)
!364 = !{!339, !358, !23}
!365 = !DISubprogram(name: "read_user_data", linkageName: "_ZNK7Handler14read_user_dataEv", scope: !5, file: !4, line: 80, type: !366, scopeLine: 80, flags: DIFlagPublic | DIFlagPrototyped, spFlags: DISPFlagOptimized)
!366 = !DISubroutineType(types: !367)
!367 = !{!339, !358}
!368 = !DISubprogram(name: "write_user_data", linkageName: "_ZNK7Handler15write_user_dataEv", scope: !5, file: !4, line: 85, type: !366, scopeLine: 85, flags: DIFlagPublic | DIFlagPrototyped, spFlags: DISPFlagOptimized)
!369 = !DISubprogram(name: "user_data1", linkageName: "_ZNK7Handler10user_data1Ev", scope: !5, file: !4, line: 90, type: !366, scopeLine: 90, flags: DIFlagPublic | DIFlagPrototyped, spFlags: DISPFlagOptimized)
!370 = !DISubprogram(name: "user_data2", linkageName: "_ZNK7Handler10user_data2Ev", scope: !5, file: !4, line: 91, type: !366, scopeLine: 91, flags: DIFlagPublic | DIFlagPrototyped, spFlags: DISPFlagOptimized)
!371 = !DISubprogram(name: "readable", linkageName: "_ZNK7Handler8readableEv", scope: !5, file: !4, line: 96, type: !372, scopeLine: 96, flags: DIFlagPublic | DIFlagPrototyped, spFlags: DISPFlagOptimized)
!372 = !DISubroutineType(types: !373)
!373 = !{!87, !358}
!374 = !DISubprogram(name: "read_param", linkageName: "_ZNK7Handler10read_paramEv", scope: !5, file: !4, line: 102, type: !372, scopeLine: 102, flags: DIFlagPublic | DIFlagPrototyped, spFlags: DISPFlagOptimized)
!375 = !DISubprogram(name: "read_visible", linkageName: "_ZNK7Handler12read_visibleEv", scope: !5, file: !4, line: 111, type: !372, scopeLine: 111, flags: DIFlagPublic | DIFlagPrototyped, spFlags: DISPFlagOptimized)
!376 = !DISubprogram(name: "writable", linkageName: "_ZNK7Handler8writableEv", scope: !5, file: !4, line: 116, type: !372, scopeLine: 116, flags: DIFlagPublic | DIFlagPrototyped, spFlags: DISPFlagOptimized)
!377 = !DISubprogram(name: "write_visible", linkageName: "_ZNK7Handler13write_visibleEv", scope: !5, file: !4, line: 125, type: !372, scopeLine: 125, flags: DIFlagPublic | DIFlagPrototyped, spFlags: DISPFlagOptimized)
!378 = !DISubprogram(name: "visible", linkageName: "_ZNK7Handler7visibleEv", scope: !5, file: !4, line: 130, type: !372, scopeLine: 130, flags: DIFlagPublic | DIFlagPrototyped, spFlags: DISPFlagOptimized)
!379 = !DISubprogram(name: "allow_concurrent_handlers", linkageName: "_ZNK7Handler25allow_concurrent_handlersEv", scope: !5, file: !4, line: 136, type: !372, scopeLine: 136, flags: DIFlagPublic | DIFlagPrototyped, spFlags: DISPFlagOptimized)
!380 = !DISubprogram(name: "allow_concurrent_threads", linkageName: "_ZNK7Handler24allow_concurrent_threadsEv", scope: !5, file: !4, line: 142, type: !372, scopeLine: 142, flags: DIFlagPublic | DIFlagPrototyped, spFlags: DISPFlagOptimized)
!381 = !DISubprogram(name: "raw", linkageName: "_ZNK7Handler3rawEv", scope: !5, file: !4, line: 164, type: !372, scopeLine: 164, flags: DIFlagPublic | DIFlagPrototyped, spFlags: DISPFlagOptimized)
!382 = !DISubprogram(name: "call_read", linkageName: "_ZNK7Handler9call_readEP7ElementRK6StringP12ErrorHandler", scope: !5, file: !4, line: 177, type: !383, scopeLine: 177, flags: DIFlagPublic | DIFlagPrototyped, spFlags: DISPFlagOptimized)
!383 = !DISubroutineType(types: !384)
!384 = !{!8, !358, !326, !60, !331}
!385 = !DISubprogram(name: "call_read", linkageName: "_ZNK7Handler9call_readEP7ElementP12ErrorHandler", scope: !5, file: !4, line: 186, type: !386, scopeLine: 186, flags: DIFlagPublic | DIFlagPrototyped, spFlags: DISPFlagOptimized)
!386 = !DISubroutineType(types: !387)
!387 = !{!8, !358, !326, !331}
!388 = !DISubprogram(name: "call_write", linkageName: "_ZNK7Handler10call_writeERK6StringP7ElementP12ErrorHandler", scope: !5, file: !4, line: 198, type: !389, scopeLine: 198, flags: DIFlagPublic | DIFlagPrototyped, spFlags: DISPFlagOptimized)
!389 = !DISubroutineType(types: !390)
!390 = !{!23, !358, !60, !326, !331}
!391 = !DISubprogram(name: "unparse_name", linkageName: "_ZNK7Handler12unparse_nameEP7Element", scope: !5, file: !4, line: 207, type: !392, scopeLine: 207, flags: DIFlagPublic | DIFlagPrototyped, spFlags: DISPFlagOptimized)
!392 = !DISubroutineType(types: !393)
!393 = !{!8, !358, !326}
!394 = !DISubprogram(name: "unparse_name", linkageName: "_ZN7Handler12unparse_nameEP7ElementRK6String", scope: !5, file: !4, line: 216, type: !395, scopeLine: 216, flags: DIFlagPublic | DIFlagPrototyped | DIFlagStaticMember, spFlags: DISPFlagOptimized)
!395 = !DISubroutineType(types: !396)
!396 = !{!8, !326, !60}
!397 = !DISubprogram(name: "blank_handler", linkageName: "_ZN7Handler13blank_handlerEv", scope: !5, file: !4, line: 223, type: !398, scopeLine: 223, flags: DIFlagPublic | DIFlagPrototyped | DIFlagStaticMember, spFlags: DISPFlagOptimized)
!398 = !DISubroutineType(types: !399)
!399 = !{!329}
!400 = !DISubprogram(name: "__call_read", linkageName: "_ZNK7Handler11__call_readEP7ElementPv", scope: !5, file: !4, line: 281, type: !401, scopeLine: 281, flags: DIFlagPublic | DIFlagPrototyped, spFlags: DISPFlagOptimized)
!401 = !DISubroutineType(types: !402)
!402 = !{!8, !358, !326, !339}
!403 = !DISubprogram(name: "Handler", scope: !5, file: !4, line: 306, type: !404, scopeLine: 306, flags: DIFlagPrototyped, spFlags: DISPFlagOptimized)
!404 = !DISubroutineType(types: !405)
!405 = !{null, !406, !60}
!406 = !DIDerivedType(tag: DW_TAG_pointer_type, baseType: !5, size: 64, flags: DIFlagArtificial | DIFlagObjectPointer)
!407 = !DISubprogram(name: "combine", linkageName: "_ZN7Handler7combineERKS_", scope: !5, file: !4, line: 308, type: !408, scopeLine: 308, flags: DIFlagPrototyped, spFlags: DISPFlagOptimized)
!408 = !DISubroutineType(types: !409)
!409 = !{null, !406, !410}
!410 = !DIDerivedType(tag: DW_TAG_reference_type, baseType: !330, size: 64)
!411 = !DISubprogram(name: "compatible", linkageName: "_ZNK7Handler10compatibleERKS_", scope: !5, file: !4, line: 309, type: !412, scopeLine: 309, flags: DIFlagPrototyped, spFlags: DISPFlagOptimized)
!412 = !DISubroutineType(types: !413)
!413 = !{!87, !358, !410}
!414 = !{!415, !416, !417, !418, !419, !420, !421, !422, !423, !424}
!415 = !DIEnumerator(name: "OP_READ", value: 1, isUnsigned: true)
!416 = !DIEnumerator(name: "OP_WRITE", value: 2, isUnsigned: true)
!417 = !DIEnumerator(name: "READ_PARAM", value: 4, isUnsigned: true)
!418 = !DIEnumerator(name: "RAW", value: 64, isUnsigned: true)
!419 = !DIEnumerator(name: "CALM", value: 2048, isUnsigned: true)
!420 = !DIEnumerator(name: "EXPENSIVE", value: 4096, isUnsigned: true)
!421 = !DIEnumerator(name: "BUTTON", value: 8192, isUnsigned: true)
!422 = !DIEnumerator(name: "CHECKBOX", value: 16384, isUnsigned: true)
!423 = !DIEnumerator(name: "USER_FLAG_SHIFT", value: 28, isUnsigned: true)
!424 = !DIEnumerator(name: "USER_FLAG_0", value: 268435456, isUnsigned: true)
!425 = !DICompositeType(tag: DW_TAG_enumeration_type, scope: !427, file: !426, line: 220, baseType: !34, size: 32, elements: !2176, identifier: "_ZTSN6RouterUt1_E")
!426 = !DIFile(filename: "../dummy_inc/click/router.hh", directory: "/home/john/projects/click/ir-dir")
!427 = distinct !DICompositeType(tag: DW_TAG_class_type, name: "Router", file: !426, line: 23, size: 3776, flags: DIFlagTypePassByReference | DIFlagNonTrivial, elements: !428, identifier: "_ZTS6Router")
!428 = !{!429, !432, !493, !495, !496, !497, !498, !499, !500, !700, !890, !891, !1072, !1184, !1380, !1381, !1382, !1386, !1387, !1618, !1619, !1620, !1621, !1622, !1623, !1624, !1627, !1628, !1629, !1630, !1742, !1743, !1744, !1747, !1750, !1752, !1756, !1759, !1760, !1761, !1762, !1767, !1770, !1771, !1772, !1773, !1776, !1780, !1781, !1784, !1787, !1790, !1793, !1796, !1800, !1803, !1806, !1807, !1808, !1811, !1814, !1817, !1822, !1827, !1830, !1831, !1836, !1837, !1840, !1841, !1844, !1847, !1850, !1853, !1856, !1859, !1862, !1865, !1868, !1871, !1874, !1877, !1880, !1883, !1886, !1889, !1892, !1895, !1898, !1901, !2062, !2063, !2064, !2065, !2068, !2071, !2072, !2075, !2076, !2077, !2078, !2081, !2084, !2087, !2090, !2093, !2096, !2099, !2102, !2105, !2110, !2114, !2118, !2122, !2125, !2128, !2129, !2130, !2131, !2132, !2135, !2136, !2137, !2140, !2143, !2144, !2147, !2148, !2149, !2152, !2155, !2158, !2161, !2164, !2168, !2171, !2174, !2175}
!429 = !DIDerivedType(tag: DW_TAG_member, name: "_master", scope: !427, file: !426, line: 229, baseType: !430, size: 64)
!430 = !DIDerivedType(tag: DW_TAG_pointer_type, baseType: !431, size: 64)
!431 = !DICompositeType(tag: DW_TAG_class_type, name: "Master", file: !328, line: 11, flags: DIFlagFwdDecl, identifier: "_ZTS6Master")
!432 = !DIDerivedType(tag: DW_TAG_member, name: "_runcount", scope: !427, file: !426, line: 231, baseType: !433, size: 32, offset: 64)
!433 = distinct !DICompositeType(tag: DW_TAG_class_type, name: "atomic_uint32_t", file: !434, line: 52, size: 32, flags: DIFlagTypePassByValue, elements: !435, identifier: "_ZTS15atomic_uint32_t")
!434 = !DIFile(filename: "../dummy_inc/click/atomic.hh", directory: "/home/john/projects/click/ir-dir")
!435 = !{!436, !437, !442, !443, !448, !453, !454, !455, !456, !459, !462, !463, !464, !467, !468, !471, !474, !477, !481, !484, !487, !490}
!436 = !DIDerivedType(tag: DW_TAG_member, name: "_val", scope: !433, file: !434, line: 91, baseType: !30, size: 32)
!437 = !DISubprogram(name: "value", linkageName: "_ZNK15atomic_uint32_t5valueEv", scope: !433, file: !434, line: 57, type: !438, scopeLine: 57, flags: DIFlagPublic | DIFlagPrototyped, spFlags: DISPFlagOptimized)
!438 = !DISubroutineType(types: !439)
!439 = !{!30, !440}
!440 = !DIDerivedType(tag: DW_TAG_pointer_type, baseType: !441, size: 64, flags: DIFlagArtificial | DIFlagObjectPointer)
!441 = !DIDerivedType(tag: DW_TAG_const_type, baseType: !433)
!442 = !DISubprogram(name: "operator unsigned int", linkageName: "_ZNK15atomic_uint32_tcvjEv", scope: !433, file: !434, line: 58, type: !438, scopeLine: 58, flags: DIFlagPublic | DIFlagPrototyped, spFlags: DISPFlagOptimized)
!443 = !DISubprogram(name: "operator=", linkageName: "_ZN15atomic_uint32_taSEj", scope: !433, file: !434, line: 60, type: !444, scopeLine: 60, flags: DIFlagPublic | DIFlagPrototyped, spFlags: DISPFlagOptimized)
!444 = !DISubroutineType(types: !445)
!445 = !{!446, !447, !30}
!446 = !DIDerivedType(tag: DW_TAG_reference_type, baseType: !433, size: 64)
!447 = !DIDerivedType(tag: DW_TAG_pointer_type, baseType: !433, size: 64, flags: DIFlagArtificial | DIFlagObjectPointer)
!448 = !DISubprogram(name: "operator+=", linkageName: "_ZN15atomic_uint32_tpLEi", scope: !433, file: !434, line: 62, type: !449, scopeLine: 62, flags: DIFlagPublic | DIFlagPrototyped, spFlags: DISPFlagOptimized)
!449 = !DISubroutineType(types: !450)
!450 = !{!446, !447, !451}
!451 = !DIDerivedType(tag: DW_TAG_typedef, name: "int32_t", file: !142, line: 26, baseType: !452)
!452 = !DIDerivedType(tag: DW_TAG_typedef, name: "__int32_t", file: !33, line: 41, baseType: !23)
!453 = !DISubprogram(name: "operator-=", linkageName: "_ZN15atomic_uint32_tmIEi", scope: !433, file: !434, line: 63, type: !449, scopeLine: 63, flags: DIFlagPublic | DIFlagPrototyped, spFlags: DISPFlagOptimized)
!454 = !DISubprogram(name: "operator|=", linkageName: "_ZN15atomic_uint32_toREj", scope: !433, file: !434, line: 64, type: !444, scopeLine: 64, flags: DIFlagPublic | DIFlagPrototyped, spFlags: DISPFlagOptimized)
!455 = !DISubprogram(name: "operator&=", linkageName: "_ZN15atomic_uint32_taNEj", scope: !433, file: !434, line: 65, type: !444, scopeLine: 65, flags: DIFlagPublic | DIFlagPrototyped, spFlags: DISPFlagOptimized)
!456 = !DISubprogram(name: "operator++", linkageName: "_ZN15atomic_uint32_tppEv", scope: !433, file: !434, line: 67, type: !457, scopeLine: 67, flags: DIFlagPublic | DIFlagPrototyped, spFlags: DISPFlagOptimized)
!457 = !DISubroutineType(types: !458)
!458 = !{null, !447}
!459 = !DISubprogram(name: "operator++", linkageName: "_ZN15atomic_uint32_tppEi", scope: !433, file: !434, line: 68, type: !460, scopeLine: 68, flags: DIFlagPublic | DIFlagPrototyped, spFlags: DISPFlagOptimized)
!460 = !DISubroutineType(types: !461)
!461 = !{null, !447, !23}
!462 = !DISubprogram(name: "operator--", linkageName: "_ZN15atomic_uint32_tmmEv", scope: !433, file: !434, line: 69, type: !457, scopeLine: 69, flags: DIFlagPublic | DIFlagPrototyped, spFlags: DISPFlagOptimized)
!463 = !DISubprogram(name: "operator--", linkageName: "_ZN15atomic_uint32_tmmEi", scope: !433, file: !434, line: 70, type: !460, scopeLine: 70, flags: DIFlagPublic | DIFlagPrototyped, spFlags: DISPFlagOptimized)
!464 = !DISubprogram(name: "swap", linkageName: "_ZN15atomic_uint32_t4swapEj", scope: !433, file: !434, line: 72, type: !465, scopeLine: 72, flags: DIFlagPublic | DIFlagPrototyped, spFlags: DISPFlagOptimized)
!465 = !DISubroutineType(types: !466)
!466 = !{!30, !447, !30}
!467 = !DISubprogram(name: "fetch_and_add", linkageName: "_ZN15atomic_uint32_t13fetch_and_addEj", scope: !433, file: !434, line: 73, type: !465, scopeLine: 73, flags: DIFlagPublic | DIFlagPrototyped, spFlags: DISPFlagOptimized)
!468 = !DISubprogram(name: "dec_and_test", linkageName: "_ZN15atomic_uint32_t12dec_and_testEv", scope: !433, file: !434, line: 74, type: !469, scopeLine: 74, flags: DIFlagPublic | DIFlagPrototyped, spFlags: DISPFlagOptimized)
!469 = !DISubroutineType(types: !470)
!470 = !{!87, !447}
!471 = !DISubprogram(name: "compare_swap", linkageName: "_ZN15atomic_uint32_t12compare_swapEjj", scope: !433, file: !434, line: 75, type: !472, scopeLine: 75, flags: DIFlagPublic | DIFlagPrototyped, spFlags: DISPFlagOptimized)
!472 = !DISubroutineType(types: !473)
!473 = !{!30, !447, !30, !30}
!474 = !DISubprogram(name: "compare_and_swap", linkageName: "_ZN15atomic_uint32_t16compare_and_swapEjj", scope: !433, file: !434, line: 76, type: !475, scopeLine: 76, flags: DIFlagPublic | DIFlagPrototyped, spFlags: DISPFlagOptimized)
!475 = !DISubroutineType(types: !476)
!476 = !{!87, !447, !30, !30}
!477 = !DISubprogram(name: "swap", linkageName: "_ZN15atomic_uint32_t4swapERVjj", scope: !433, file: !434, line: 78, type: !478, scopeLine: 78, flags: DIFlagPublic | DIFlagPrototyped | DIFlagStaticMember, spFlags: DISPFlagOptimized)
!478 = !DISubroutineType(types: !479)
!479 = !{!30, !480, !30}
!480 = !DIDerivedType(tag: DW_TAG_reference_type, baseType: !29, size: 64)
!481 = !DISubprogram(name: "inc", linkageName: "_ZN15atomic_uint32_t3incERVj", scope: !433, file: !434, line: 79, type: !482, scopeLine: 79, flags: DIFlagPublic | DIFlagPrototyped | DIFlagStaticMember, spFlags: DISPFlagOptimized)
!482 = !DISubroutineType(types: !483)
!483 = !{null, !480}
!484 = !DISubprogram(name: "dec_and_test", linkageName: "_ZN15atomic_uint32_t12dec_and_testERVj", scope: !433, file: !434, line: 80, type: !485, scopeLine: 80, flags: DIFlagPublic | DIFlagPrototyped | DIFlagStaticMember, spFlags: DISPFlagOptimized)
!485 = !DISubroutineType(types: !486)
!486 = !{!87, !480}
!487 = !DISubprogram(name: "compare_swap", linkageName: "_ZN15atomic_uint32_t12compare_swapERVjjj", scope: !433, file: !434, line: 81, type: !488, scopeLine: 81, flags: DIFlagPublic | DIFlagPrototyped | DIFlagStaticMember, spFlags: DISPFlagOptimized)
!488 = !DISubroutineType(types: !489)
!489 = !{!30, !480, !30, !30}
!490 = !DISubprogram(name: "compare_and_swap", linkageName: "_ZN15atomic_uint32_t16compare_and_swapERVjjj", scope: !433, file: !434, line: 82, type: !491, scopeLine: 82, flags: DIFlagPublic | DIFlagPrototyped | DIFlagStaticMember, spFlags: DISPFlagOptimized)
!491 = !DISubroutineType(types: !492)
!492 = !{!87, !480, !30, !30}
!493 = !DIDerivedType(tag: DW_TAG_member, name: "_state", scope: !427, file: !426, line: 233, baseType: !494, size: 32, offset: 96)
!494 = !DIDerivedType(tag: DW_TAG_volatile_type, baseType: !23)
!495 = !DIDerivedType(tag: DW_TAG_member, name: "_have_connections", scope: !427, file: !426, line: 234, baseType: !87, size: 1, offset: 128, flags: DIFlagBitField, extraData: i64 128)
!496 = !DIDerivedType(tag: DW_TAG_member, name: "_conn_sorted", scope: !427, file: !426, line: 235, baseType: !87, size: 1, offset: 129, flags: DIFlagBitField, extraData: i64 128)
!497 = !DIDerivedType(tag: DW_TAG_member, name: "_have_configuration", scope: !427, file: !426, line: 236, baseType: !87, size: 1, offset: 130, flags: DIFlagBitField, extraData: i64 128)
!498 = !DIDerivedType(tag: DW_TAG_member, name: "_running", scope: !427, file: !426, line: 237, baseType: !494, size: 32, offset: 160)
!499 = !DIDerivedType(tag: DW_TAG_member, name: "_refcount", scope: !427, file: !426, line: 239, baseType: !433, size: 32, offset: 192)
!500 = !DIDerivedType(tag: DW_TAG_member, name: "_elements", scope: !427, file: !426, line: 241, baseType: !501, size: 128, offset: 256)
!501 = distinct !DICompositeType(tag: DW_TAG_class_type, name: "Vector<Element *>", file: !502, line: 111, size: 128, flags: DIFlagTypePassByReference | DIFlagNonTrivial, elements: !503, templateParams: !699, identifier: "_ZTS6VectorIP7ElementE")
!502 = !DIFile(filename: "../dummy_inc/click/vector.hh", directory: "/home/john/projects/click/ir-dir")
!503 = !{!504, !589, !593, !606, !611, !615, !619, !622, !625, !630, !631, !638, !639, !640, !641, !644, !645, !648, !649, !652, !656, !660, !661, !662, !665, !668, !669, !670, !671, !672, !673, !674, !677, !680, !683, !684, !685, !686, !689, !692, !695, !696}
!504 = !DIDerivedType(tag: DW_TAG_member, name: "vm_", scope: !501, file: !502, line: 114, baseType: !505, size: 128)
!505 = distinct !DICompositeType(tag: DW_TAG_class_type, name: "vector_memory<sized_array_memory<8> >", file: !502, line: 11, size: 128, flags: DIFlagTypePassByReference | DIFlagNonTrivial, elements: !506, templateParams: !587, identifier: "_ZTS13vector_memoryI18sized_array_memoryILm8EEE")
!506 = !{!507, !538, !540, !541, !548, !552, !553, !557, !560, !561, !565, !566, !569, !572, !575, !578, !579, !580, !583}
!507 = !DIDerivedType(tag: DW_TAG_member, name: "l_", scope: !505, file: !502, line: 68, baseType: !508, size: 64, flags: DIFlagPublic)
!508 = !DIDerivedType(tag: DW_TAG_pointer_type, baseType: !509, size: 64)
!509 = !DIDerivedType(tag: DW_TAG_typedef, name: "type", scope: !505, file: !502, line: 13, baseType: !510)
!510 = !DIDerivedType(tag: DW_TAG_typedef, name: "type", scope: !512, file: !511, line: 11, baseType: !536)
!511 = !DIFile(filename: "../dummy_inc/click/array_memory.hh", directory: "/home/john/projects/click/ir-dir")
!512 = distinct !DICompositeType(tag: DW_TAG_class_type, name: "sized_array_memory<8>", file: !511, line: 10, size: 8, flags: DIFlagTypePassByValue, elements: !513, templateParams: !534, identifier: "_ZTS18sized_array_memoryILm8EE")
!513 = !{!514, !521, !524, !527, !528, !529, !532, !533}
!514 = !DISubprogram(name: "fill", linkageName: "_ZN18sized_array_memoryILm8EE4fillEPvmPKv", scope: !512, file: !511, line: 19, type: !515, scopeLine: 19, flags: DIFlagPublic | DIFlagPrototyped | DIFlagStaticMember, spFlags: DISPFlagOptimized)
!515 = !DISubroutineType(types: !516)
!516 = !{null, !339, !517, !519}
!517 = !DIDerivedType(tag: DW_TAG_typedef, name: "size_t", file: !518, line: 46, baseType: !107)
!518 = !DIFile(filename: "/usr/lib/clang/10.0.0/include/stddef.h", directory: "")
!519 = !DIDerivedType(tag: DW_TAG_pointer_type, baseType: !520, size: 64)
!520 = !DIDerivedType(tag: DW_TAG_const_type, baseType: null)
!521 = !DISubprogram(name: "move_construct", linkageName: "_ZN18sized_array_memoryILm8EE14move_constructEPvS1_", scope: !512, file: !511, line: 23, type: !522, scopeLine: 23, flags: DIFlagPublic | DIFlagPrototyped | DIFlagStaticMember, spFlags: DISPFlagOptimized)
!522 = !DISubroutineType(types: !523)
!523 = !{null, !339, !339}
!524 = !DISubprogram(name: "copy", linkageName: "_ZN18sized_array_memoryILm8EE4copyEPvPKvm", scope: !512, file: !511, line: 26, type: !525, scopeLine: 26, flags: DIFlagPublic | DIFlagPrototyped | DIFlagStaticMember, spFlags: DISPFlagOptimized)
!525 = !DISubroutineType(types: !526)
!526 = !{null, !339, !519, !517}
!527 = !DISubprogram(name: "move", linkageName: "_ZN18sized_array_memoryILm8EE4moveEPvPKvm", scope: !512, file: !511, line: 30, type: !525, scopeLine: 30, flags: DIFlagPublic | DIFlagPrototyped | DIFlagStaticMember, spFlags: DISPFlagOptimized)
!528 = !DISubprogram(name: "move_onto", linkageName: "_ZN18sized_array_memoryILm8EE9move_ontoEPvPKvm", scope: !512, file: !511, line: 34, type: !525, scopeLine: 34, flags: DIFlagPublic | DIFlagPrototyped | DIFlagStaticMember, spFlags: DISPFlagOptimized)
!529 = !DISubprogram(name: "destroy", linkageName: "_ZN18sized_array_memoryILm8EE7destroyEPvm", scope: !512, file: !511, line: 38, type: !530, scopeLine: 38, flags: DIFlagPublic | DIFlagPrototyped | DIFlagStaticMember, spFlags: DISPFlagOptimized)
!530 = !DISubroutineType(types: !531)
!531 = !{null, !339, !517}
!532 = !DISubprogram(name: "mark_noaccess", linkageName: "_ZN18sized_array_memoryILm8EE13mark_noaccessEPvm", scope: !512, file: !511, line: 41, type: !530, scopeLine: 41, flags: DIFlagPublic | DIFlagPrototyped | DIFlagStaticMember, spFlags: DISPFlagOptimized)
!533 = !DISubprogram(name: "mark_undefined", linkageName: "_ZN18sized_array_memoryILm8EE14mark_undefinedEPvm", scope: !512, file: !511, line: 48, type: !530, scopeLine: 48, flags: DIFlagPublic | DIFlagPrototyped | DIFlagStaticMember, spFlags: DISPFlagOptimized)
!534 = !{!535}
!535 = !DITemplateValueParameter(name: "s", type: !107, value: i64 8)
!536 = !DICompositeType(tag: DW_TAG_structure_type, name: "char_array<8>", file: !537, line: 165, flags: DIFlagFwdDecl, identifier: "_ZTS10char_arrayILm8EE")
!537 = !DIFile(filename: "../dummy_inc/click/type_traits.hh", directory: "/home/john/projects/click/ir-dir")
!538 = !DIDerivedType(tag: DW_TAG_member, name: "n_", scope: !505, file: !502, line: 69, baseType: !539, size: 32, offset: 64, flags: DIFlagPublic)
!539 = !DIDerivedType(tag: DW_TAG_typedef, name: "size_type", file: !502, line: 12, baseType: !23)
!540 = !DIDerivedType(tag: DW_TAG_member, name: "capacity_", scope: !505, file: !502, line: 70, baseType: !539, size: 32, offset: 96, flags: DIFlagPublic)
!541 = !DISubprogram(name: "need_argument_copy", linkageName: "_ZNK13vector_memoryI18sized_array_memoryILm8EEE18need_argument_copyEPK10char_arrayILm8EE", scope: !505, file: !502, line: 15, type: !542, scopeLine: 15, flags: DIFlagPublic | DIFlagPrototyped, spFlags: DISPFlagOptimized)
!542 = !DISubroutineType(types: !543)
!543 = !{!87, !544, !546}
!544 = !DIDerivedType(tag: DW_TAG_pointer_type, baseType: !545, size: 64, flags: DIFlagArtificial | DIFlagObjectPointer)
!545 = !DIDerivedType(tag: DW_TAG_const_type, baseType: !505)
!546 = !DIDerivedType(tag: DW_TAG_pointer_type, baseType: !547, size: 64)
!547 = !DIDerivedType(tag: DW_TAG_const_type, baseType: !509)
!548 = !DISubprogram(name: "vector_memory", scope: !505, file: !502, line: 20, type: !549, scopeLine: 20, flags: DIFlagPublic | DIFlagPrototyped, spFlags: DISPFlagOptimized)
!549 = !DISubroutineType(types: !550)
!550 = !{null, !551}
!551 = !DIDerivedType(tag: DW_TAG_pointer_type, baseType: !505, size: 64, flags: DIFlagArtificial | DIFlagObjectPointer)
!552 = !DISubprogram(name: "~vector_memory", scope: !505, file: !502, line: 23, type: !549, scopeLine: 23, flags: DIFlagPublic | DIFlagPrototyped, spFlags: DISPFlagOptimized)
!553 = !DISubprogram(name: "assign", linkageName: "_ZN13vector_memoryI18sized_array_memoryILm8EEE6assignERKS2_", scope: !505, file: !502, line: 25, type: !554, scopeLine: 25, flags: DIFlagPublic | DIFlagPrototyped, spFlags: DISPFlagOptimized)
!554 = !DISubroutineType(types: !555)
!555 = !{null, !551, !556}
!556 = !DIDerivedType(tag: DW_TAG_reference_type, baseType: !545, size: 64)
!557 = !DISubprogram(name: "assign", linkageName: "_ZN13vector_memoryI18sized_array_memoryILm8EEE6assignEiPK10char_arrayILm8EE", scope: !505, file: !502, line: 26, type: !558, scopeLine: 26, flags: DIFlagPublic | DIFlagPrototyped, spFlags: DISPFlagOptimized)
!558 = !DISubroutineType(types: !559)
!559 = !{null, !551, !539, !546}
!560 = !DISubprogram(name: "resize", linkageName: "_ZN13vector_memoryI18sized_array_memoryILm8EEE6resizeEiPK10char_arrayILm8EE", scope: !505, file: !502, line: 27, type: !558, scopeLine: 27, flags: DIFlagPublic | DIFlagPrototyped, spFlags: DISPFlagOptimized)
!561 = !DISubprogram(name: "begin", linkageName: "_ZN13vector_memoryI18sized_array_memoryILm8EEE5beginEv", scope: !505, file: !502, line: 28, type: !562, scopeLine: 28, flags: DIFlagPublic | DIFlagPrototyped, spFlags: DISPFlagOptimized)
!562 = !DISubroutineType(types: !563)
!563 = !{!564, !551}
!564 = !DIDerivedType(tag: DW_TAG_typedef, name: "iterator", scope: !505, file: !502, line: 14, baseType: !508)
!565 = !DISubprogram(name: "end", linkageName: "_ZN13vector_memoryI18sized_array_memoryILm8EEE3endEv", scope: !505, file: !502, line: 31, type: !562, scopeLine: 31, flags: DIFlagPublic | DIFlagPrototyped, spFlags: DISPFlagOptimized)
!566 = !DISubprogram(name: "insert", linkageName: "_ZN13vector_memoryI18sized_array_memoryILm8EEE6insertEP10char_arrayILm8EEPKS4_", scope: !505, file: !502, line: 34, type: !567, scopeLine: 34, flags: DIFlagPublic | DIFlagPrototyped, spFlags: DISPFlagOptimized)
!567 = !DISubroutineType(types: !568)
!568 = !{!564, !551, !564, !546}
!569 = !DISubprogram(name: "erase", linkageName: "_ZN13vector_memoryI18sized_array_memoryILm8EEE5eraseEP10char_arrayILm8EES5_", scope: !505, file: !502, line: 35, type: !570, scopeLine: 35, flags: DIFlagPublic | DIFlagPrototyped, spFlags: DISPFlagOptimized)
!570 = !DISubroutineType(types: !571)
!571 = !{!564, !551, !564, !564}
!572 = !DISubprogram(name: "push_back", linkageName: "_ZN13vector_memoryI18sized_array_memoryILm8EEE9push_backEPK10char_arrayILm8EE", scope: !505, file: !502, line: 36, type: !573, scopeLine: 36, flags: DIFlagPublic | DIFlagPrototyped, spFlags: DISPFlagOptimized)
!573 = !DISubroutineType(types: !574)
!574 = !{null, !551, !546}
!575 = !DISubprogram(name: "move_construct_back", linkageName: "_ZN13vector_memoryI18sized_array_memoryILm8EEE19move_construct_backEP10char_arrayILm8EE", scope: !505, file: !502, line: 45, type: !576, scopeLine: 45, flags: DIFlagPublic | DIFlagPrototyped, spFlags: DISPFlagOptimized)
!576 = !DISubroutineType(types: !577)
!577 = !{null, !551, !508}
!578 = !DISubprogram(name: "pop_back", linkageName: "_ZN13vector_memoryI18sized_array_memoryILm8EEE8pop_backEv", scope: !505, file: !502, line: 54, type: !549, scopeLine: 54, flags: DIFlagPublic | DIFlagPrototyped, spFlags: DISPFlagOptimized)
!579 = !DISubprogram(name: "clear", linkageName: "_ZN13vector_memoryI18sized_array_memoryILm8EEE5clearEv", scope: !505, file: !502, line: 60, type: !549, scopeLine: 60, flags: DIFlagPublic | DIFlagPrototyped, spFlags: DISPFlagOptimized)
!580 = !DISubprogram(name: "reserve_and_push_back", linkageName: "_ZN13vector_memoryI18sized_array_memoryILm8EEE21reserve_and_push_backEiPK10char_arrayILm8EE", scope: !505, file: !502, line: 65, type: !581, scopeLine: 65, flags: DIFlagPublic | DIFlagPrototyped, spFlags: DISPFlagOptimized)
!581 = !DISubroutineType(types: !582)
!582 = !{!87, !551, !539, !546}
!583 = !DISubprogram(name: "swap", linkageName: "_ZN13vector_memoryI18sized_array_memoryILm8EEE4swapERS2_", scope: !505, file: !502, line: 66, type: !584, scopeLine: 66, flags: DIFlagPublic | DIFlagPrototyped, spFlags: DISPFlagOptimized)
!584 = !DISubroutineType(types: !585)
!585 = !{null, !551, !586}
!586 = !DIDerivedType(tag: DW_TAG_reference_type, baseType: !505, size: 64)
!587 = !{!588}
!588 = !DITemplateTypeParameter(name: "AM", type: !512)
!589 = !DISubprogram(name: "Vector", scope: !501, file: !502, line: 137, type: !590, scopeLine: 137, flags: DIFlagPublic | DIFlagExplicit | DIFlagPrototyped, spFlags: DISPFlagOptimized)
!590 = !DISubroutineType(types: !591)
!591 = !{null, !592}
!592 = !DIDerivedType(tag: DW_TAG_pointer_type, baseType: !501, size: 64, flags: DIFlagArtificial | DIFlagObjectPointer)
!593 = !DISubprogram(name: "Vector", scope: !501, file: !502, line: 138, type: !594, scopeLine: 138, flags: DIFlagPublic | DIFlagExplicit | DIFlagPrototyped, spFlags: DISPFlagOptimized)
!594 = !DISubroutineType(types: !595)
!595 = !{null, !592, !596, !597}
!596 = !DIDerivedType(tag: DW_TAG_typedef, name: "size_type", file: !502, line: 128, baseType: !23)
!597 = !DIDerivedType(tag: DW_TAG_typedef, name: "value_argument_type", scope: !501, file: !502, line: 125, baseType: !598)
!598 = !DIDerivedType(tag: DW_TAG_typedef, name: "type", scope: !599, file: !537, line: 157, baseType: !326)
!599 = distinct !DICompositeType(tag: DW_TAG_structure_type, name: "fast_argument<Element *, false>", file: !537, line: 155, size: 8, flags: DIFlagTypePassByValue, elements: !600, templateParams: !603, identifier: "_ZTS13fast_argumentIP7ElementLb0EE")
!600 = !{!601}
!601 = !DIDerivedType(tag: DW_TAG_member, name: "is_reference", scope: !599, file: !537, line: 156, baseType: !602, flags: DIFlagStaticMember, extraData: i1 false)
!602 = !DIDerivedType(tag: DW_TAG_const_type, baseType: !87)
!603 = !{!604, !605}
!604 = !DITemplateTypeParameter(name: "T", type: !326)
!605 = !DITemplateValueParameter(name: "use_reference", type: !87, value: i8 0)
!606 = !DISubprogram(name: "Vector", scope: !501, file: !502, line: 139, type: !607, scopeLine: 139, flags: DIFlagPublic | DIFlagPrototyped, spFlags: DISPFlagOptimized)
!607 = !DISubroutineType(types: !608)
!608 = !{null, !592, !609}
!609 = !DIDerivedType(tag: DW_TAG_reference_type, baseType: !610, size: 64)
!610 = !DIDerivedType(tag: DW_TAG_const_type, baseType: !501)
!611 = !DISubprogram(name: "Vector", scope: !501, file: !502, line: 141, type: !612, scopeLine: 141, flags: DIFlagPublic | DIFlagPrototyped, spFlags: DISPFlagOptimized)
!612 = !DISubroutineType(types: !613)
!613 = !{null, !592, !614}
!614 = !DIDerivedType(tag: DW_TAG_rvalue_reference_type, baseType: !501, size: 64)
!615 = !DISubprogram(name: "operator=", linkageName: "_ZN6VectorIP7ElementEaSERKS2_", scope: !501, file: !502, line: 144, type: !616, scopeLine: 144, flags: DIFlagPublic | DIFlagPrototyped, spFlags: DISPFlagOptimized)
!616 = !DISubroutineType(types: !617)
!617 = !{!618, !592, !609}
!618 = !DIDerivedType(tag: DW_TAG_reference_type, baseType: !501, size: 64)
!619 = !DISubprogram(name: "operator=", linkageName: "_ZN6VectorIP7ElementEaSEOS2_", scope: !501, file: !502, line: 146, type: !620, scopeLine: 146, flags: DIFlagPublic | DIFlagPrototyped, spFlags: DISPFlagOptimized)
!620 = !DISubroutineType(types: !621)
!621 = !{!618, !592, !614}
!622 = !DISubprogram(name: "assign", linkageName: "_ZN6VectorIP7ElementE6assignEiS1_", scope: !501, file: !502, line: 148, type: !623, scopeLine: 148, flags: DIFlagPublic | DIFlagPrototyped, spFlags: DISPFlagOptimized)
!623 = !DISubroutineType(types: !624)
!624 = !{!618, !592, !596, !597}
!625 = !DISubprogram(name: "begin", linkageName: "_ZN6VectorIP7ElementE5beginEv", scope: !501, file: !502, line: 150, type: !626, scopeLine: 150, flags: DIFlagPublic | DIFlagPrototyped, spFlags: DISPFlagOptimized)
!626 = !DISubroutineType(types: !627)
!627 = !{!628, !592}
!628 = !DIDerivedType(tag: DW_TAG_typedef, name: "iterator", scope: !501, file: !502, line: 130, baseType: !629)
!629 = !DIDerivedType(tag: DW_TAG_pointer_type, baseType: !326, size: 64)
!630 = !DISubprogram(name: "end", linkageName: "_ZN6VectorIP7ElementE3endEv", scope: !501, file: !502, line: 151, type: !626, scopeLine: 151, flags: DIFlagPublic | DIFlagPrototyped, spFlags: DISPFlagOptimized)
!631 = !DISubprogram(name: "begin", linkageName: "_ZNK6VectorIP7ElementE5beginEv", scope: !501, file: !502, line: 152, type: !632, scopeLine: 152, flags: DIFlagPublic | DIFlagPrototyped, spFlags: DISPFlagOptimized)
!632 = !DISubroutineType(types: !633)
!633 = !{!634, !637}
!634 = !DIDerivedType(tag: DW_TAG_typedef, name: "const_iterator", scope: !501, file: !502, line: 131, baseType: !635)
!635 = !DIDerivedType(tag: DW_TAG_pointer_type, baseType: !636, size: 64)
!636 = !DIDerivedType(tag: DW_TAG_const_type, baseType: !326)
!637 = !DIDerivedType(tag: DW_TAG_pointer_type, baseType: !610, size: 64, flags: DIFlagArtificial | DIFlagObjectPointer)
!638 = !DISubprogram(name: "end", linkageName: "_ZNK6VectorIP7ElementE3endEv", scope: !501, file: !502, line: 153, type: !632, scopeLine: 153, flags: DIFlagPublic | DIFlagPrototyped, spFlags: DISPFlagOptimized)
!639 = !DISubprogram(name: "cbegin", linkageName: "_ZNK6VectorIP7ElementE6cbeginEv", scope: !501, file: !502, line: 154, type: !632, scopeLine: 154, flags: DIFlagPublic | DIFlagPrototyped, spFlags: DISPFlagOptimized)
!640 = !DISubprogram(name: "cend", linkageName: "_ZNK6VectorIP7ElementE4cendEv", scope: !501, file: !502, line: 155, type: !632, scopeLine: 155, flags: DIFlagPublic | DIFlagPrototyped, spFlags: DISPFlagOptimized)
!641 = !DISubprogram(name: "size", linkageName: "_ZNK6VectorIP7ElementE4sizeEv", scope: !501, file: !502, line: 157, type: !642, scopeLine: 157, flags: DIFlagPublic | DIFlagPrototyped, spFlags: DISPFlagOptimized)
!642 = !DISubroutineType(types: !643)
!643 = !{!596, !637}
!644 = !DISubprogram(name: "capacity", linkageName: "_ZNK6VectorIP7ElementE8capacityEv", scope: !501, file: !502, line: 158, type: !642, scopeLine: 158, flags: DIFlagPublic | DIFlagPrototyped, spFlags: DISPFlagOptimized)
!645 = !DISubprogram(name: "empty", linkageName: "_ZNK6VectorIP7ElementE5emptyEv", scope: !501, file: !502, line: 159, type: !646, scopeLine: 159, flags: DIFlagPublic | DIFlagPrototyped, spFlags: DISPFlagOptimized)
!646 = !DISubroutineType(types: !647)
!647 = !{!87, !637}
!648 = !DISubprogram(name: "resize", linkageName: "_ZN6VectorIP7ElementE6resizeEiS1_", scope: !501, file: !502, line: 160, type: !594, scopeLine: 160, flags: DIFlagPublic | DIFlagPrototyped, spFlags: DISPFlagOptimized)
!649 = !DISubprogram(name: "reserve", linkageName: "_ZN6VectorIP7ElementE7reserveEi", scope: !501, file: !502, line: 161, type: !650, scopeLine: 161, flags: DIFlagPublic | DIFlagPrototyped, spFlags: DISPFlagOptimized)
!650 = !DISubroutineType(types: !651)
!651 = !{!87, !592, !596}
!652 = !DISubprogram(name: "operator[]", linkageName: "_ZN6VectorIP7ElementEixEi", scope: !501, file: !502, line: 163, type: !653, scopeLine: 163, flags: DIFlagPublic | DIFlagPrototyped, spFlags: DISPFlagOptimized)
!653 = !DISubroutineType(types: !654)
!654 = !{!655, !592, !596}
!655 = !DIDerivedType(tag: DW_TAG_reference_type, baseType: !326, size: 64)
!656 = !DISubprogram(name: "operator[]", linkageName: "_ZNK6VectorIP7ElementEixEi", scope: !501, file: !502, line: 164, type: !657, scopeLine: 164, flags: DIFlagPublic | DIFlagPrototyped, spFlags: DISPFlagOptimized)
!657 = !DISubroutineType(types: !658)
!658 = !{!659, !637, !596}
!659 = !DIDerivedType(tag: DW_TAG_reference_type, baseType: !636, size: 64)
!660 = !DISubprogram(name: "at", linkageName: "_ZN6VectorIP7ElementE2atEi", scope: !501, file: !502, line: 165, type: !653, scopeLine: 165, flags: DIFlagPublic | DIFlagPrototyped, spFlags: DISPFlagOptimized)
!661 = !DISubprogram(name: "at", linkageName: "_ZNK6VectorIP7ElementE2atEi", scope: !501, file: !502, line: 166, type: !657, scopeLine: 166, flags: DIFlagPublic | DIFlagPrototyped, spFlags: DISPFlagOptimized)
!662 = !DISubprogram(name: "front", linkageName: "_ZN6VectorIP7ElementE5frontEv", scope: !501, file: !502, line: 167, type: !663, scopeLine: 167, flags: DIFlagPublic | DIFlagPrototyped, spFlags: DISPFlagOptimized)
!663 = !DISubroutineType(types: !664)
!664 = !{!655, !592}
!665 = !DISubprogram(name: "front", linkageName: "_ZNK6VectorIP7ElementE5frontEv", scope: !501, file: !502, line: 168, type: !666, scopeLine: 168, flags: DIFlagPublic | DIFlagPrototyped, spFlags: DISPFlagOptimized)
!666 = !DISubroutineType(types: !667)
!667 = !{!659, !637}
!668 = !DISubprogram(name: "back", linkageName: "_ZN6VectorIP7ElementE4backEv", scope: !501, file: !502, line: 169, type: !663, scopeLine: 169, flags: DIFlagPublic | DIFlagPrototyped, spFlags: DISPFlagOptimized)
!669 = !DISubprogram(name: "back", linkageName: "_ZNK6VectorIP7ElementE4backEv", scope: !501, file: !502, line: 170, type: !666, scopeLine: 170, flags: DIFlagPublic | DIFlagPrototyped, spFlags: DISPFlagOptimized)
!670 = !DISubprogram(name: "unchecked_at", linkageName: "_ZN6VectorIP7ElementE12unchecked_atEi", scope: !501, file: !502, line: 172, type: !653, scopeLine: 172, flags: DIFlagPublic | DIFlagPrototyped, spFlags: DISPFlagOptimized)
!671 = !DISubprogram(name: "unchecked_at", linkageName: "_ZNK6VectorIP7ElementE12unchecked_atEi", scope: !501, file: !502, line: 173, type: !657, scopeLine: 173, flags: DIFlagPublic | DIFlagPrototyped, spFlags: DISPFlagOptimized)
!672 = !DISubprogram(name: "at_u", linkageName: "_ZN6VectorIP7ElementE4at_uEi", scope: !501, file: !502, line: 174, type: !653, scopeLine: 174, flags: DIFlagPublic | DIFlagPrototyped, spFlags: DISPFlagOptimized)
!673 = !DISubprogram(name: "at_u", linkageName: "_ZNK6VectorIP7ElementE4at_uEi", scope: !501, file: !502, line: 175, type: !657, scopeLine: 175, flags: DIFlagPublic | DIFlagPrototyped, spFlags: DISPFlagOptimized)
!674 = !DISubprogram(name: "data", linkageName: "_ZN6VectorIP7ElementE4dataEv", scope: !501, file: !502, line: 177, type: !675, scopeLine: 177, flags: DIFlagPublic | DIFlagPrototyped, spFlags: DISPFlagOptimized)
!675 = !DISubroutineType(types: !676)
!676 = !{!629, !592}
!677 = !DISubprogram(name: "data", linkageName: "_ZNK6VectorIP7ElementE4dataEv", scope: !501, file: !502, line: 178, type: !678, scopeLine: 178, flags: DIFlagPublic | DIFlagPrototyped, spFlags: DISPFlagOptimized)
!678 = !DISubroutineType(types: !679)
!679 = !{!635, !637}
!680 = !DISubprogram(name: "push_back", linkageName: "_ZN6VectorIP7ElementE9push_backES1_", scope: !501, file: !502, line: 180, type: !681, scopeLine: 180, flags: DIFlagPublic | DIFlagPrototyped, spFlags: DISPFlagOptimized)
!681 = !DISubroutineType(types: !682)
!682 = !{null, !592, !597}
!683 = !DISubprogram(name: "pop_back", linkageName: "_ZN6VectorIP7ElementE8pop_backEv", scope: !501, file: !502, line: 185, type: !590, scopeLine: 185, flags: DIFlagPublic | DIFlagPrototyped, spFlags: DISPFlagOptimized)
!684 = !DISubprogram(name: "push_front", linkageName: "_ZN6VectorIP7ElementE10push_frontES1_", scope: !501, file: !502, line: 186, type: !681, scopeLine: 186, flags: DIFlagPublic | DIFlagPrototyped, spFlags: DISPFlagOptimized)
!685 = !DISubprogram(name: "pop_front", linkageName: "_ZN6VectorIP7ElementE9pop_frontEv", scope: !501, file: !502, line: 187, type: !590, scopeLine: 187, flags: DIFlagPublic | DIFlagPrototyped, spFlags: DISPFlagOptimized)
!686 = !DISubprogram(name: "insert", linkageName: "_ZN6VectorIP7ElementE6insertEPS1_S1_", scope: !501, file: !502, line: 189, type: !687, scopeLine: 189, flags: DIFlagPublic | DIFlagPrototyped, spFlags: DISPFlagOptimized)
!687 = !DISubroutineType(types: !688)
!688 = !{!628, !592, !628, !597}
!689 = !DISubprogram(name: "erase", linkageName: "_ZN6VectorIP7ElementE5eraseEPS1_", scope: !501, file: !502, line: 190, type: !690, scopeLine: 190, flags: DIFlagPublic | DIFlagPrototyped, spFlags: DISPFlagOptimized)
!690 = !DISubroutineType(types: !691)
!691 = !{!628, !592, !628}
!692 = !DISubprogram(name: "erase", linkageName: "_ZN6VectorIP7ElementE5eraseEPS1_S3_", scope: !501, file: !502, line: 191, type: !693, scopeLine: 191, flags: DIFlagPublic | DIFlagPrototyped, spFlags: DISPFlagOptimized)
!693 = !DISubroutineType(types: !694)
!694 = !{!628, !592, !628, !628}
!695 = !DISubprogram(name: "clear", linkageName: "_ZN6VectorIP7ElementE5clearEv", scope: !501, file: !502, line: 193, type: !590, scopeLine: 193, flags: DIFlagPublic | DIFlagPrototyped, spFlags: DISPFlagOptimized)
!696 = !DISubprogram(name: "swap", linkageName: "_ZN6VectorIP7ElementE4swapERS2_", scope: !501, file: !502, line: 195, type: !697, scopeLine: 195, flags: DIFlagPublic | DIFlagPrototyped, spFlags: DISPFlagOptimized)
!697 = !DISubroutineType(types: !698)
!698 = !{null, !592, !618}
!699 = !{!604}
!700 = !DIDerivedType(tag: DW_TAG_member, name: "_element_names", scope: !427, file: !426, line: 242, baseType: !701, size: 128, offset: 384)
!701 = distinct !DICompositeType(tag: DW_TAG_class_type, name: "Vector<String>", file: !502, line: 111, size: 128, flags: DIFlagTypePassByReference | DIFlagNonTrivial, elements: !702, templateParams: !736, identifier: "_ZTS6VectorI6StringE")
!702 = !{!703, !788, !792, !802, !807, !811, !815, !818, !821, !825, !826, !831, !832, !833, !834, !837, !838, !841, !842, !845, !848, !851, !852, !853, !856, !859, !860, !861, !862, !863, !864, !865, !868, !871, !874, !875, !876, !877, !880, !883, !886, !887}
!703 = !DIDerivedType(tag: DW_TAG_member, name: "vm_", scope: !701, file: !502, line: 114, baseType: !704, size: 128)
!704 = distinct !DICompositeType(tag: DW_TAG_class_type, name: "vector_memory<typed_array_memory<String> >", file: !502, line: 11, size: 128, flags: DIFlagTypePassByReference | DIFlagNonTrivial, elements: !705, templateParams: !786, identifier: "_ZTS13vector_memoryI18typed_array_memoryI6StringEE")
!705 = !{!706, !738, !739, !740, !747, !751, !752, !756, !759, !760, !764, !765, !768, !771, !774, !777, !778, !779, !782}
!706 = !DIDerivedType(tag: DW_TAG_member, name: "l_", scope: !704, file: !502, line: 68, baseType: !707, size: 64, flags: DIFlagPublic)
!707 = !DIDerivedType(tag: DW_TAG_pointer_type, baseType: !708, size: 64)
!708 = !DIDerivedType(tag: DW_TAG_typedef, name: "type", scope: !704, file: !502, line: 13, baseType: !709)
!709 = !DIDerivedType(tag: DW_TAG_typedef, name: "type", scope: !710, file: !511, line: 58, baseType: !8)
!710 = distinct !DICompositeType(tag: DW_TAG_class_type, name: "typed_array_memory<String>", file: !511, line: 57, size: 8, flags: DIFlagTypePassByValue, elements: !711, templateParams: !736, identifier: "_ZTS18typed_array_memoryI6StringE")
!711 = !{!712, !716, !720, !723, !726, !729, !730, !731, !734, !735}
!712 = !DISubprogram(name: "cast", linkageName: "_ZN18typed_array_memoryI6StringE4castEPS0_", scope: !710, file: !511, line: 59, type: !713, scopeLine: 59, flags: DIFlagPublic | DIFlagPrototyped | DIFlagStaticMember, spFlags: DISPFlagOptimized)
!713 = !DISubroutineType(types: !714)
!714 = !{!715, !715}
!715 = !DIDerivedType(tag: DW_TAG_pointer_type, baseType: !8, size: 64)
!716 = !DISubprogram(name: "cast", linkageName: "_ZN18typed_array_memoryI6StringE4castEPKS0_", scope: !710, file: !511, line: 62, type: !717, scopeLine: 62, flags: DIFlagPublic | DIFlagPrototyped | DIFlagStaticMember, spFlags: DISPFlagOptimized)
!717 = !DISubroutineType(types: !718)
!718 = !{!719, !719}
!719 = !DIDerivedType(tag: DW_TAG_pointer_type, baseType: !61, size: 64)
!720 = !DISubprogram(name: "fill", linkageName: "_ZN18typed_array_memoryI6StringE4fillEPS0_mPKS0_", scope: !710, file: !511, line: 65, type: !721, scopeLine: 65, flags: DIFlagPublic | DIFlagPrototyped | DIFlagStaticMember, spFlags: DISPFlagOptimized)
!721 = !DISubroutineType(types: !722)
!722 = !{null, !715, !517, !719}
!723 = !DISubprogram(name: "move_construct", linkageName: "_ZN18typed_array_memoryI6StringE14move_constructEPS0_S2_", scope: !710, file: !511, line: 69, type: !724, scopeLine: 69, flags: DIFlagPublic | DIFlagPrototyped | DIFlagStaticMember, spFlags: DISPFlagOptimized)
!724 = !DISubroutineType(types: !725)
!725 = !{null, !715, !715}
!726 = !DISubprogram(name: "copy", linkageName: "_ZN18typed_array_memoryI6StringE4copyEPS0_PKS0_m", scope: !710, file: !511, line: 76, type: !727, scopeLine: 76, flags: DIFlagPublic | DIFlagPrototyped | DIFlagStaticMember, spFlags: DISPFlagOptimized)
!727 = !DISubroutineType(types: !728)
!728 = !{null, !715, !719, !517}
!729 = !DISubprogram(name: "move", linkageName: "_ZN18typed_array_memoryI6StringE4moveEPS0_PKS0_m", scope: !710, file: !511, line: 80, type: !727, scopeLine: 80, flags: DIFlagPublic | DIFlagPrototyped | DIFlagStaticMember, spFlags: DISPFlagOptimized)
!730 = !DISubprogram(name: "move_onto", linkageName: "_ZN18typed_array_memoryI6StringE9move_ontoEPS0_PKS0_m", scope: !710, file: !511, line: 93, type: !727, scopeLine: 93, flags: DIFlagPublic | DIFlagPrototyped | DIFlagStaticMember, spFlags: DISPFlagOptimized)
!731 = !DISubprogram(name: "destroy", linkageName: "_ZN18typed_array_memoryI6StringE7destroyEPS0_m", scope: !710, file: !511, line: 106, type: !732, scopeLine: 106, flags: DIFlagPublic | DIFlagPrototyped | DIFlagStaticMember, spFlags: DISPFlagOptimized)
!732 = !DISubroutineType(types: !733)
!733 = !{null, !715, !517}
!734 = !DISubprogram(name: "mark_noaccess", linkageName: "_ZN18typed_array_memoryI6StringE13mark_noaccessEPS0_m", scope: !710, file: !511, line: 110, type: !732, scopeLine: 110, flags: DIFlagPublic | DIFlagPrototyped | DIFlagStaticMember, spFlags: DISPFlagOptimized)
!735 = !DISubprogram(name: "mark_undefined", linkageName: "_ZN18typed_array_memoryI6StringE14mark_undefinedEPS0_m", scope: !710, file: !511, line: 113, type: !732, scopeLine: 113, flags: DIFlagPublic | DIFlagPrototyped | DIFlagStaticMember, spFlags: DISPFlagOptimized)
!736 = !{!737}
!737 = !DITemplateTypeParameter(name: "T", type: !8)
!738 = !DIDerivedType(tag: DW_TAG_member, name: "n_", scope: !704, file: !502, line: 69, baseType: !539, size: 32, offset: 64, flags: DIFlagPublic)
!739 = !DIDerivedType(tag: DW_TAG_member, name: "capacity_", scope: !704, file: !502, line: 70, baseType: !539, size: 32, offset: 96, flags: DIFlagPublic)
!740 = !DISubprogram(name: "need_argument_copy", linkageName: "_ZNK13vector_memoryI18typed_array_memoryI6StringEE18need_argument_copyEPKS1_", scope: !704, file: !502, line: 15, type: !741, scopeLine: 15, flags: DIFlagPublic | DIFlagPrototyped, spFlags: DISPFlagOptimized)
!741 = !DISubroutineType(types: !742)
!742 = !{!87, !743, !745}
!743 = !DIDerivedType(tag: DW_TAG_pointer_type, baseType: !744, size: 64, flags: DIFlagArtificial | DIFlagObjectPointer)
!744 = !DIDerivedType(tag: DW_TAG_const_type, baseType: !704)
!745 = !DIDerivedType(tag: DW_TAG_pointer_type, baseType: !746, size: 64)
!746 = !DIDerivedType(tag: DW_TAG_const_type, baseType: !708)
!747 = !DISubprogram(name: "vector_memory", scope: !704, file: !502, line: 20, type: !748, scopeLine: 20, flags: DIFlagPublic | DIFlagPrototyped, spFlags: DISPFlagOptimized)
!748 = !DISubroutineType(types: !749)
!749 = !{null, !750}
!750 = !DIDerivedType(tag: DW_TAG_pointer_type, baseType: !704, size: 64, flags: DIFlagArtificial | DIFlagObjectPointer)
!751 = !DISubprogram(name: "~vector_memory", scope: !704, file: !502, line: 23, type: !748, scopeLine: 23, flags: DIFlagPublic | DIFlagPrototyped, spFlags: DISPFlagOptimized)
!752 = !DISubprogram(name: "assign", linkageName: "_ZN13vector_memoryI18typed_array_memoryI6StringEE6assignERKS3_", scope: !704, file: !502, line: 25, type: !753, scopeLine: 25, flags: DIFlagPublic | DIFlagPrototyped, spFlags: DISPFlagOptimized)
!753 = !DISubroutineType(types: !754)
!754 = !{null, !750, !755}
!755 = !DIDerivedType(tag: DW_TAG_reference_type, baseType: !744, size: 64)
!756 = !DISubprogram(name: "assign", linkageName: "_ZN13vector_memoryI18typed_array_memoryI6StringEE6assignEiPKS1_", scope: !704, file: !502, line: 26, type: !757, scopeLine: 26, flags: DIFlagPublic | DIFlagPrototyped, spFlags: DISPFlagOptimized)
!757 = !DISubroutineType(types: !758)
!758 = !{null, !750, !539, !745}
!759 = !DISubprogram(name: "resize", linkageName: "_ZN13vector_memoryI18typed_array_memoryI6StringEE6resizeEiPKS1_", scope: !704, file: !502, line: 27, type: !757, scopeLine: 27, flags: DIFlagPublic | DIFlagPrototyped, spFlags: DISPFlagOptimized)
!760 = !DISubprogram(name: "begin", linkageName: "_ZN13vector_memoryI18typed_array_memoryI6StringEE5beginEv", scope: !704, file: !502, line: 28, type: !761, scopeLine: 28, flags: DIFlagPublic | DIFlagPrototyped, spFlags: DISPFlagOptimized)
!761 = !DISubroutineType(types: !762)
!762 = !{!763, !750}
!763 = !DIDerivedType(tag: DW_TAG_typedef, name: "iterator", scope: !704, file: !502, line: 14, baseType: !707)
!764 = !DISubprogram(name: "end", linkageName: "_ZN13vector_memoryI18typed_array_memoryI6StringEE3endEv", scope: !704, file: !502, line: 31, type: !761, scopeLine: 31, flags: DIFlagPublic | DIFlagPrototyped, spFlags: DISPFlagOptimized)
!765 = !DISubprogram(name: "insert", linkageName: "_ZN13vector_memoryI18typed_array_memoryI6StringEE6insertEPS1_PKS1_", scope: !704, file: !502, line: 34, type: !766, scopeLine: 34, flags: DIFlagPublic | DIFlagPrototyped, spFlags: DISPFlagOptimized)
!766 = !DISubroutineType(types: !767)
!767 = !{!763, !750, !763, !745}
!768 = !DISubprogram(name: "erase", linkageName: "_ZN13vector_memoryI18typed_array_memoryI6StringEE5eraseEPS1_S4_", scope: !704, file: !502, line: 35, type: !769, scopeLine: 35, flags: DIFlagPublic | DIFlagPrototyped, spFlags: DISPFlagOptimized)
!769 = !DISubroutineType(types: !770)
!770 = !{!763, !750, !763, !763}
!771 = !DISubprogram(name: "push_back", linkageName: "_ZN13vector_memoryI18typed_array_memoryI6StringEE9push_backEPKS1_", scope: !704, file: !502, line: 36, type: !772, scopeLine: 36, flags: DIFlagPublic | DIFlagPrototyped, spFlags: DISPFlagOptimized)
!772 = !DISubroutineType(types: !773)
!773 = !{null, !750, !745}
!774 = !DISubprogram(name: "move_construct_back", linkageName: "_ZN13vector_memoryI18typed_array_memoryI6StringEE19move_construct_backEPS1_", scope: !704, file: !502, line: 45, type: !775, scopeLine: 45, flags: DIFlagPublic | DIFlagPrototyped, spFlags: DISPFlagOptimized)
!775 = !DISubroutineType(types: !776)
!776 = !{null, !750, !707}
!777 = !DISubprogram(name: "pop_back", linkageName: "_ZN13vector_memoryI18typed_array_memoryI6StringEE8pop_backEv", scope: !704, file: !502, line: 54, type: !748, scopeLine: 54, flags: DIFlagPublic | DIFlagPrototyped, spFlags: DISPFlagOptimized)
!778 = !DISubprogram(name: "clear", linkageName: "_ZN13vector_memoryI18typed_array_memoryI6StringEE5clearEv", scope: !704, file: !502, line: 60, type: !748, scopeLine: 60, flags: DIFlagPublic | DIFlagPrototyped, spFlags: DISPFlagOptimized)
!779 = !DISubprogram(name: "reserve_and_push_back", linkageName: "_ZN13vector_memoryI18typed_array_memoryI6StringEE21reserve_and_push_backEiPKS1_", scope: !704, file: !502, line: 65, type: !780, scopeLine: 65, flags: DIFlagPublic | DIFlagPrototyped, spFlags: DISPFlagOptimized)
!780 = !DISubroutineType(types: !781)
!781 = !{!87, !750, !539, !745}
!782 = !DISubprogram(name: "swap", linkageName: "_ZN13vector_memoryI18typed_array_memoryI6StringEE4swapERS3_", scope: !704, file: !502, line: 66, type: !783, scopeLine: 66, flags: DIFlagPublic | DIFlagPrototyped, spFlags: DISPFlagOptimized)
!783 = !DISubroutineType(types: !784)
!784 = !{null, !750, !785}
!785 = !DIDerivedType(tag: DW_TAG_reference_type, baseType: !704, size: 64)
!786 = !{!787}
!787 = !DITemplateTypeParameter(name: "AM", type: !710)
!788 = !DISubprogram(name: "Vector", scope: !701, file: !502, line: 137, type: !789, scopeLine: 137, flags: DIFlagPublic | DIFlagExplicit | DIFlagPrototyped, spFlags: DISPFlagOptimized)
!789 = !DISubroutineType(types: !790)
!790 = !{null, !791}
!791 = !DIDerivedType(tag: DW_TAG_pointer_type, baseType: !701, size: 64, flags: DIFlagArtificial | DIFlagObjectPointer)
!792 = !DISubprogram(name: "Vector", scope: !701, file: !502, line: 138, type: !793, scopeLine: 138, flags: DIFlagPublic | DIFlagExplicit | DIFlagPrototyped, spFlags: DISPFlagOptimized)
!793 = !DISubroutineType(types: !794)
!794 = !{null, !791, !596, !795}
!795 = !DIDerivedType(tag: DW_TAG_typedef, name: "value_argument_type", scope: !701, file: !502, line: 125, baseType: !796)
!796 = !DIDerivedType(tag: DW_TAG_typedef, name: "type", scope: !797, file: !537, line: 150, baseType: !60)
!797 = distinct !DICompositeType(tag: DW_TAG_structure_type, name: "fast_argument<String, true>", file: !537, line: 148, size: 8, flags: DIFlagTypePassByValue, elements: !798, templateParams: !800, identifier: "_ZTS13fast_argumentI6StringLb1EE")
!798 = !{!799}
!799 = !DIDerivedType(tag: DW_TAG_member, name: "is_reference", scope: !797, file: !537, line: 149, baseType: !602, flags: DIFlagStaticMember, extraData: i1 true)
!800 = !{!737, !801}
!801 = !DITemplateValueParameter(name: "use_reference", type: !87, value: i8 1)
!802 = !DISubprogram(name: "Vector", scope: !701, file: !502, line: 139, type: !803, scopeLine: 139, flags: DIFlagPublic | DIFlagPrototyped, spFlags: DISPFlagOptimized)
!803 = !DISubroutineType(types: !804)
!804 = !{null, !791, !805}
!805 = !DIDerivedType(tag: DW_TAG_reference_type, baseType: !806, size: 64)
!806 = !DIDerivedType(tag: DW_TAG_const_type, baseType: !701)
!807 = !DISubprogram(name: "Vector", scope: !701, file: !502, line: 141, type: !808, scopeLine: 141, flags: DIFlagPublic | DIFlagPrototyped, spFlags: DISPFlagOptimized)
!808 = !DISubroutineType(types: !809)
!809 = !{null, !791, !810}
!810 = !DIDerivedType(tag: DW_TAG_rvalue_reference_type, baseType: !701, size: 64)
!811 = !DISubprogram(name: "operator=", linkageName: "_ZN6VectorI6StringEaSERKS1_", scope: !701, file: !502, line: 144, type: !812, scopeLine: 144, flags: DIFlagPublic | DIFlagPrototyped, spFlags: DISPFlagOptimized)
!812 = !DISubroutineType(types: !813)
!813 = !{!814, !791, !805}
!814 = !DIDerivedType(tag: DW_TAG_reference_type, baseType: !701, size: 64)
!815 = !DISubprogram(name: "operator=", linkageName: "_ZN6VectorI6StringEaSEOS1_", scope: !701, file: !502, line: 146, type: !816, scopeLine: 146, flags: DIFlagPublic | DIFlagPrototyped, spFlags: DISPFlagOptimized)
!816 = !DISubroutineType(types: !817)
!817 = !{!814, !791, !810}
!818 = !DISubprogram(name: "assign", linkageName: "_ZN6VectorI6StringE6assignEiRKS0_", scope: !701, file: !502, line: 148, type: !819, scopeLine: 148, flags: DIFlagPublic | DIFlagPrototyped, spFlags: DISPFlagOptimized)
!819 = !DISubroutineType(types: !820)
!820 = !{!814, !791, !596, !795}
!821 = !DISubprogram(name: "begin", linkageName: "_ZN6VectorI6StringE5beginEv", scope: !701, file: !502, line: 150, type: !822, scopeLine: 150, flags: DIFlagPublic | DIFlagPrototyped, spFlags: DISPFlagOptimized)
!822 = !DISubroutineType(types: !823)
!823 = !{!824, !791}
!824 = !DIDerivedType(tag: DW_TAG_typedef, name: "iterator", scope: !701, file: !502, line: 130, baseType: !715)
!825 = !DISubprogram(name: "end", linkageName: "_ZN6VectorI6StringE3endEv", scope: !701, file: !502, line: 151, type: !822, scopeLine: 151, flags: DIFlagPublic | DIFlagPrototyped, spFlags: DISPFlagOptimized)
!826 = !DISubprogram(name: "begin", linkageName: "_ZNK6VectorI6StringE5beginEv", scope: !701, file: !502, line: 152, type: !827, scopeLine: 152, flags: DIFlagPublic | DIFlagPrototyped, spFlags: DISPFlagOptimized)
!827 = !DISubroutineType(types: !828)
!828 = !{!829, !830}
!829 = !DIDerivedType(tag: DW_TAG_typedef, name: "const_iterator", scope: !701, file: !502, line: 131, baseType: !719)
!830 = !DIDerivedType(tag: DW_TAG_pointer_type, baseType: !806, size: 64, flags: DIFlagArtificial | DIFlagObjectPointer)
!831 = !DISubprogram(name: "end", linkageName: "_ZNK6VectorI6StringE3endEv", scope: !701, file: !502, line: 153, type: !827, scopeLine: 153, flags: DIFlagPublic | DIFlagPrototyped, spFlags: DISPFlagOptimized)
!832 = !DISubprogram(name: "cbegin", linkageName: "_ZNK6VectorI6StringE6cbeginEv", scope: !701, file: !502, line: 154, type: !827, scopeLine: 154, flags: DIFlagPublic | DIFlagPrototyped, spFlags: DISPFlagOptimized)
!833 = !DISubprogram(name: "cend", linkageName: "_ZNK6VectorI6StringE4cendEv", scope: !701, file: !502, line: 155, type: !827, scopeLine: 155, flags: DIFlagPublic | DIFlagPrototyped, spFlags: DISPFlagOptimized)
!834 = !DISubprogram(name: "size", linkageName: "_ZNK6VectorI6StringE4sizeEv", scope: !701, file: !502, line: 157, type: !835, scopeLine: 157, flags: DIFlagPublic | DIFlagPrototyped, spFlags: DISPFlagOptimized)
!835 = !DISubroutineType(types: !836)
!836 = !{!596, !830}
!837 = !DISubprogram(name: "capacity", linkageName: "_ZNK6VectorI6StringE8capacityEv", scope: !701, file: !502, line: 158, type: !835, scopeLine: 158, flags: DIFlagPublic | DIFlagPrototyped, spFlags: DISPFlagOptimized)
!838 = !DISubprogram(name: "empty", linkageName: "_ZNK6VectorI6StringE5emptyEv", scope: !701, file: !502, line: 159, type: !839, scopeLine: 159, flags: DIFlagPublic | DIFlagPrototyped, spFlags: DISPFlagOptimized)
!839 = !DISubroutineType(types: !840)
!840 = !{!87, !830}
!841 = !DISubprogram(name: "resize", linkageName: "_ZN6VectorI6StringE6resizeEiRKS0_", scope: !701, file: !502, line: 160, type: !793, scopeLine: 160, flags: DIFlagPublic | DIFlagPrototyped, spFlags: DISPFlagOptimized)
!842 = !DISubprogram(name: "reserve", linkageName: "_ZN6VectorI6StringE7reserveEi", scope: !701, file: !502, line: 161, type: !843, scopeLine: 161, flags: DIFlagPublic | DIFlagPrototyped, spFlags: DISPFlagOptimized)
!843 = !DISubroutineType(types: !844)
!844 = !{!87, !791, !596}
!845 = !DISubprogram(name: "operator[]", linkageName: "_ZN6VectorI6StringEixEi", scope: !701, file: !502, line: 163, type: !846, scopeLine: 163, flags: DIFlagPublic | DIFlagPrototyped, spFlags: DISPFlagOptimized)
!846 = !DISubroutineType(types: !847)
!847 = !{!234, !791, !596}
!848 = !DISubprogram(name: "operator[]", linkageName: "_ZNK6VectorI6StringEixEi", scope: !701, file: !502, line: 164, type: !849, scopeLine: 164, flags: DIFlagPublic | DIFlagPrototyped, spFlags: DISPFlagOptimized)
!849 = !DISubroutineType(types: !850)
!850 = !{!60, !830, !596}
!851 = !DISubprogram(name: "at", linkageName: "_ZN6VectorI6StringE2atEi", scope: !701, file: !502, line: 165, type: !846, scopeLine: 165, flags: DIFlagPublic | DIFlagPrototyped, spFlags: DISPFlagOptimized)
!852 = !DISubprogram(name: "at", linkageName: "_ZNK6VectorI6StringE2atEi", scope: !701, file: !502, line: 166, type: !849, scopeLine: 166, flags: DIFlagPublic | DIFlagPrototyped, spFlags: DISPFlagOptimized)
!853 = !DISubprogram(name: "front", linkageName: "_ZN6VectorI6StringE5frontEv", scope: !701, file: !502, line: 167, type: !854, scopeLine: 167, flags: DIFlagPublic | DIFlagPrototyped, spFlags: DISPFlagOptimized)
!854 = !DISubroutineType(types: !855)
!855 = !{!234, !791}
!856 = !DISubprogram(name: "front", linkageName: "_ZNK6VectorI6StringE5frontEv", scope: !701, file: !502, line: 168, type: !857, scopeLine: 168, flags: DIFlagPublic | DIFlagPrototyped, spFlags: DISPFlagOptimized)
!857 = !DISubroutineType(types: !858)
!858 = !{!60, !830}
!859 = !DISubprogram(name: "back", linkageName: "_ZN6VectorI6StringE4backEv", scope: !701, file: !502, line: 169, type: !854, scopeLine: 169, flags: DIFlagPublic | DIFlagPrototyped, spFlags: DISPFlagOptimized)
!860 = !DISubprogram(name: "back", linkageName: "_ZNK6VectorI6StringE4backEv", scope: !701, file: !502, line: 170, type: !857, scopeLine: 170, flags: DIFlagPublic | DIFlagPrototyped, spFlags: DISPFlagOptimized)
!861 = !DISubprogram(name: "unchecked_at", linkageName: "_ZN6VectorI6StringE12unchecked_atEi", scope: !701, file: !502, line: 172, type: !846, scopeLine: 172, flags: DIFlagPublic | DIFlagPrototyped, spFlags: DISPFlagOptimized)
!862 = !DISubprogram(name: "unchecked_at", linkageName: "_ZNK6VectorI6StringE12unchecked_atEi", scope: !701, file: !502, line: 173, type: !849, scopeLine: 173, flags: DIFlagPublic | DIFlagPrototyped, spFlags: DISPFlagOptimized)
!863 = !DISubprogram(name: "at_u", linkageName: "_ZN6VectorI6StringE4at_uEi", scope: !701, file: !502, line: 174, type: !846, scopeLine: 174, flags: DIFlagPublic | DIFlagPrototyped, spFlags: DISPFlagOptimized)
!864 = !DISubprogram(name: "at_u", linkageName: "_ZNK6VectorI6StringE4at_uEi", scope: !701, file: !502, line: 175, type: !849, scopeLine: 175, flags: DIFlagPublic | DIFlagPrototyped, spFlags: DISPFlagOptimized)
!865 = !DISubprogram(name: "data", linkageName: "_ZN6VectorI6StringE4dataEv", scope: !701, file: !502, line: 177, type: !866, scopeLine: 177, flags: DIFlagPublic | DIFlagPrototyped, spFlags: DISPFlagOptimized)
!866 = !DISubroutineType(types: !867)
!867 = !{!715, !791}
!868 = !DISubprogram(name: "data", linkageName: "_ZNK6VectorI6StringE4dataEv", scope: !701, file: !502, line: 178, type: !869, scopeLine: 178, flags: DIFlagPublic | DIFlagPrototyped, spFlags: DISPFlagOptimized)
!869 = !DISubroutineType(types: !870)
!870 = !{!719, !830}
!871 = !DISubprogram(name: "push_back", linkageName: "_ZN6VectorI6StringE9push_backERKS0_", scope: !701, file: !502, line: 180, type: !872, scopeLine: 180, flags: DIFlagPublic | DIFlagPrototyped, spFlags: DISPFlagOptimized)
!872 = !DISubroutineType(types: !873)
!873 = !{null, !791, !795}
!874 = !DISubprogram(name: "pop_back", linkageName: "_ZN6VectorI6StringE8pop_backEv", scope: !701, file: !502, line: 185, type: !789, scopeLine: 185, flags: DIFlagPublic | DIFlagPrototyped, spFlags: DISPFlagOptimized)
!875 = !DISubprogram(name: "push_front", linkageName: "_ZN6VectorI6StringE10push_frontERKS0_", scope: !701, file: !502, line: 186, type: !872, scopeLine: 186, flags: DIFlagPublic | DIFlagPrototyped, spFlags: DISPFlagOptimized)
!876 = !DISubprogram(name: "pop_front", linkageName: "_ZN6VectorI6StringE9pop_frontEv", scope: !701, file: !502, line: 187, type: !789, scopeLine: 187, flags: DIFlagPublic | DIFlagPrototyped, spFlags: DISPFlagOptimized)
!877 = !DISubprogram(name: "insert", linkageName: "_ZN6VectorI6StringE6insertEPS0_RKS0_", scope: !701, file: !502, line: 189, type: !878, scopeLine: 189, flags: DIFlagPublic | DIFlagPrototyped, spFlags: DISPFlagOptimized)
!878 = !DISubroutineType(types: !879)
!879 = !{!824, !791, !824, !795}
!880 = !DISubprogram(name: "erase", linkageName: "_ZN6VectorI6StringE5eraseEPS0_", scope: !701, file: !502, line: 190, type: !881, scopeLine: 190, flags: DIFlagPublic | DIFlagPrototyped, spFlags: DISPFlagOptimized)
!881 = !DISubroutineType(types: !882)
!882 = !{!824, !791, !824}
!883 = !DISubprogram(name: "erase", linkageName: "_ZN6VectorI6StringE5eraseEPS0_S2_", scope: !701, file: !502, line: 191, type: !884, scopeLine: 191, flags: DIFlagPublic | DIFlagPrototyped, spFlags: DISPFlagOptimized)
!884 = !DISubroutineType(types: !885)
!885 = !{!824, !791, !824, !824}
!886 = !DISubprogram(name: "clear", linkageName: "_ZN6VectorI6StringE5clearEv", scope: !701, file: !502, line: 193, type: !789, scopeLine: 193, flags: DIFlagPublic | DIFlagPrototyped, spFlags: DISPFlagOptimized)
!887 = !DISubprogram(name: "swap", linkageName: "_ZN6VectorI6StringE4swapERS1_", scope: !701, file: !502, line: 195, type: !888, scopeLine: 195, flags: DIFlagPublic | DIFlagPrototyped, spFlags: DISPFlagOptimized)
!888 = !DISubroutineType(types: !889)
!889 = !{null, !791, !814}
!890 = !DIDerivedType(tag: DW_TAG_member, name: "_element_configurations", scope: !427, file: !426, line: 243, baseType: !701, size: 128, offset: 512)
!891 = !DIDerivedType(tag: DW_TAG_member, name: "_element_landmarkids", scope: !427, file: !426, line: 244, baseType: !892, size: 128, offset: 640)
!892 = distinct !DICompositeType(tag: DW_TAG_class_type, name: "Vector<unsigned int>", file: !502, line: 111, size: 128, flags: DIFlagTypePassByReference | DIFlagNonTrivial, elements: !893, templateParams: !1071, identifier: "_ZTS6VectorIjE")
!893 = !{!894, !964, !968, !978, !983, !987, !991, !994, !997, !1002, !1003, !1010, !1011, !1012, !1013, !1016, !1017, !1020, !1021, !1024, !1028, !1032, !1033, !1034, !1037, !1040, !1041, !1042, !1043, !1044, !1045, !1046, !1049, !1052, !1055, !1056, !1057, !1058, !1061, !1064, !1067, !1068}
!894 = !DIDerivedType(tag: DW_TAG_member, name: "vm_", scope: !892, file: !502, line: 114, baseType: !895, size: 128)
!895 = distinct !DICompositeType(tag: DW_TAG_class_type, name: "vector_memory<sized_array_memory<4> >", file: !502, line: 11, size: 128, flags: DIFlagTypePassByReference | DIFlagNonTrivial, elements: !896, templateParams: !962, identifier: "_ZTS13vector_memoryI18sized_array_memoryILm4EEE")
!896 = !{!897, !914, !915, !916, !923, !927, !928, !932, !935, !936, !940, !941, !944, !947, !950, !953, !954, !955, !958}
!897 = !DIDerivedType(tag: DW_TAG_member, name: "l_", scope: !895, file: !502, line: 68, baseType: !898, size: 64, flags: DIFlagPublic)
!898 = !DIDerivedType(tag: DW_TAG_pointer_type, baseType: !899, size: 64)
!899 = !DIDerivedType(tag: DW_TAG_typedef, name: "type", scope: !895, file: !502, line: 13, baseType: !900)
!900 = !DIDerivedType(tag: DW_TAG_typedef, name: "type", scope: !901, file: !511, line: 11, baseType: !913)
!901 = distinct !DICompositeType(tag: DW_TAG_class_type, name: "sized_array_memory<4>", file: !511, line: 10, size: 8, flags: DIFlagTypePassByValue, elements: !902, templateParams: !911, identifier: "_ZTS18sized_array_memoryILm4EE")
!902 = !{!903, !904, !905, !906, !907, !908, !909, !910}
!903 = !DISubprogram(name: "fill", linkageName: "_ZN18sized_array_memoryILm4EE4fillEPvmPKv", scope: !901, file: !511, line: 19, type: !515, scopeLine: 19, flags: DIFlagPublic | DIFlagPrototyped | DIFlagStaticMember, spFlags: DISPFlagOptimized)
!904 = !DISubprogram(name: "move_construct", linkageName: "_ZN18sized_array_memoryILm4EE14move_constructEPvS1_", scope: !901, file: !511, line: 23, type: !522, scopeLine: 23, flags: DIFlagPublic | DIFlagPrototyped | DIFlagStaticMember, spFlags: DISPFlagOptimized)
!905 = !DISubprogram(name: "copy", linkageName: "_ZN18sized_array_memoryILm4EE4copyEPvPKvm", scope: !901, file: !511, line: 26, type: !525, scopeLine: 26, flags: DIFlagPublic | DIFlagPrototyped | DIFlagStaticMember, spFlags: DISPFlagOptimized)
!906 = !DISubprogram(name: "move", linkageName: "_ZN18sized_array_memoryILm4EE4moveEPvPKvm", scope: !901, file: !511, line: 30, type: !525, scopeLine: 30, flags: DIFlagPublic | DIFlagPrototyped | DIFlagStaticMember, spFlags: DISPFlagOptimized)
!907 = !DISubprogram(name: "move_onto", linkageName: "_ZN18sized_array_memoryILm4EE9move_ontoEPvPKvm", scope: !901, file: !511, line: 34, type: !525, scopeLine: 34, flags: DIFlagPublic | DIFlagPrototyped | DIFlagStaticMember, spFlags: DISPFlagOptimized)
!908 = !DISubprogram(name: "destroy", linkageName: "_ZN18sized_array_memoryILm4EE7destroyEPvm", scope: !901, file: !511, line: 38, type: !530, scopeLine: 38, flags: DIFlagPublic | DIFlagPrototyped | DIFlagStaticMember, spFlags: DISPFlagOptimized)
!909 = !DISubprogram(name: "mark_noaccess", linkageName: "_ZN18sized_array_memoryILm4EE13mark_noaccessEPvm", scope: !901, file: !511, line: 41, type: !530, scopeLine: 41, flags: DIFlagPublic | DIFlagPrototyped | DIFlagStaticMember, spFlags: DISPFlagOptimized)
!910 = !DISubprogram(name: "mark_undefined", linkageName: "_ZN18sized_array_memoryILm4EE14mark_undefinedEPvm", scope: !901, file: !511, line: 48, type: !530, scopeLine: 48, flags: DIFlagPublic | DIFlagPrototyped | DIFlagStaticMember, spFlags: DISPFlagOptimized)
!911 = !{!912}
!912 = !DITemplateValueParameter(name: "s", type: !107, value: i64 4)
!913 = !DICompositeType(tag: DW_TAG_structure_type, name: "char_array<4>", file: !537, line: 165, flags: DIFlagFwdDecl, identifier: "_ZTS10char_arrayILm4EE")
!914 = !DIDerivedType(tag: DW_TAG_member, name: "n_", scope: !895, file: !502, line: 69, baseType: !539, size: 32, offset: 64, flags: DIFlagPublic)
!915 = !DIDerivedType(tag: DW_TAG_member, name: "capacity_", scope: !895, file: !502, line: 70, baseType: !539, size: 32, offset: 96, flags: DIFlagPublic)
!916 = !DISubprogram(name: "need_argument_copy", linkageName: "_ZNK13vector_memoryI18sized_array_memoryILm4EEE18need_argument_copyEPK10char_arrayILm4EE", scope: !895, file: !502, line: 15, type: !917, scopeLine: 15, flags: DIFlagPublic | DIFlagPrototyped, spFlags: DISPFlagOptimized)
!917 = !DISubroutineType(types: !918)
!918 = !{!87, !919, !921}
!919 = !DIDerivedType(tag: DW_TAG_pointer_type, baseType: !920, size: 64, flags: DIFlagArtificial | DIFlagObjectPointer)
!920 = !DIDerivedType(tag: DW_TAG_const_type, baseType: !895)
!921 = !DIDerivedType(tag: DW_TAG_pointer_type, baseType: !922, size: 64)
!922 = !DIDerivedType(tag: DW_TAG_const_type, baseType: !899)
!923 = !DISubprogram(name: "vector_memory", scope: !895, file: !502, line: 20, type: !924, scopeLine: 20, flags: DIFlagPublic | DIFlagPrototyped, spFlags: DISPFlagOptimized)
!924 = !DISubroutineType(types: !925)
!925 = !{null, !926}
!926 = !DIDerivedType(tag: DW_TAG_pointer_type, baseType: !895, size: 64, flags: DIFlagArtificial | DIFlagObjectPointer)
!927 = !DISubprogram(name: "~vector_memory", scope: !895, file: !502, line: 23, type: !924, scopeLine: 23, flags: DIFlagPublic | DIFlagPrototyped, spFlags: DISPFlagOptimized)
!928 = !DISubprogram(name: "assign", linkageName: "_ZN13vector_memoryI18sized_array_memoryILm4EEE6assignERKS2_", scope: !895, file: !502, line: 25, type: !929, scopeLine: 25, flags: DIFlagPublic | DIFlagPrototyped, spFlags: DISPFlagOptimized)
!929 = !DISubroutineType(types: !930)
!930 = !{null, !926, !931}
!931 = !DIDerivedType(tag: DW_TAG_reference_type, baseType: !920, size: 64)
!932 = !DISubprogram(name: "assign", linkageName: "_ZN13vector_memoryI18sized_array_memoryILm4EEE6assignEiPK10char_arrayILm4EE", scope: !895, file: !502, line: 26, type: !933, scopeLine: 26, flags: DIFlagPublic | DIFlagPrototyped, spFlags: DISPFlagOptimized)
!933 = !DISubroutineType(types: !934)
!934 = !{null, !926, !539, !921}
!935 = !DISubprogram(name: "resize", linkageName: "_ZN13vector_memoryI18sized_array_memoryILm4EEE6resizeEiPK10char_arrayILm4EE", scope: !895, file: !502, line: 27, type: !933, scopeLine: 27, flags: DIFlagPublic | DIFlagPrototyped, spFlags: DISPFlagOptimized)
!936 = !DISubprogram(name: "begin", linkageName: "_ZN13vector_memoryI18sized_array_memoryILm4EEE5beginEv", scope: !895, file: !502, line: 28, type: !937, scopeLine: 28, flags: DIFlagPublic | DIFlagPrototyped, spFlags: DISPFlagOptimized)
!937 = !DISubroutineType(types: !938)
!938 = !{!939, !926}
!939 = !DIDerivedType(tag: DW_TAG_typedef, name: "iterator", scope: !895, file: !502, line: 14, baseType: !898)
!940 = !DISubprogram(name: "end", linkageName: "_ZN13vector_memoryI18sized_array_memoryILm4EEE3endEv", scope: !895, file: !502, line: 31, type: !937, scopeLine: 31, flags: DIFlagPublic | DIFlagPrototyped, spFlags: DISPFlagOptimized)
!941 = !DISubprogram(name: "insert", linkageName: "_ZN13vector_memoryI18sized_array_memoryILm4EEE6insertEP10char_arrayILm4EEPKS4_", scope: !895, file: !502, line: 34, type: !942, scopeLine: 34, flags: DIFlagPublic | DIFlagPrototyped, spFlags: DISPFlagOptimized)
!942 = !DISubroutineType(types: !943)
!943 = !{!939, !926, !939, !921}
!944 = !DISubprogram(name: "erase", linkageName: "_ZN13vector_memoryI18sized_array_memoryILm4EEE5eraseEP10char_arrayILm4EES5_", scope: !895, file: !502, line: 35, type: !945, scopeLine: 35, flags: DIFlagPublic | DIFlagPrototyped, spFlags: DISPFlagOptimized)
!945 = !DISubroutineType(types: !946)
!946 = !{!939, !926, !939, !939}
!947 = !DISubprogram(name: "push_back", linkageName: "_ZN13vector_memoryI18sized_array_memoryILm4EEE9push_backEPK10char_arrayILm4EE", scope: !895, file: !502, line: 36, type: !948, scopeLine: 36, flags: DIFlagPublic | DIFlagPrototyped, spFlags: DISPFlagOptimized)
!948 = !DISubroutineType(types: !949)
!949 = !{null, !926, !921}
!950 = !DISubprogram(name: "move_construct_back", linkageName: "_ZN13vector_memoryI18sized_array_memoryILm4EEE19move_construct_backEP10char_arrayILm4EE", scope: !895, file: !502, line: 45, type: !951, scopeLine: 45, flags: DIFlagPublic | DIFlagPrototyped, spFlags: DISPFlagOptimized)
!951 = !DISubroutineType(types: !952)
!952 = !{null, !926, !898}
!953 = !DISubprogram(name: "pop_back", linkageName: "_ZN13vector_memoryI18sized_array_memoryILm4EEE8pop_backEv", scope: !895, file: !502, line: 54, type: !924, scopeLine: 54, flags: DIFlagPublic | DIFlagPrototyped, spFlags: DISPFlagOptimized)
!954 = !DISubprogram(name: "clear", linkageName: "_ZN13vector_memoryI18sized_array_memoryILm4EEE5clearEv", scope: !895, file: !502, line: 60, type: !924, scopeLine: 60, flags: DIFlagPublic | DIFlagPrototyped, spFlags: DISPFlagOptimized)
!955 = !DISubprogram(name: "reserve_and_push_back", linkageName: "_ZN13vector_memoryI18sized_array_memoryILm4EEE21reserve_and_push_backEiPK10char_arrayILm4EE", scope: !895, file: !502, line: 65, type: !956, scopeLine: 65, flags: DIFlagPublic | DIFlagPrototyped, spFlags: DISPFlagOptimized)
!956 = !DISubroutineType(types: !957)
!957 = !{!87, !926, !539, !921}
!958 = !DISubprogram(name: "swap", linkageName: "_ZN13vector_memoryI18sized_array_memoryILm4EEE4swapERS2_", scope: !895, file: !502, line: 66, type: !959, scopeLine: 66, flags: DIFlagPublic | DIFlagPrototyped, spFlags: DISPFlagOptimized)
!959 = !DISubroutineType(types: !960)
!960 = !{null, !926, !961}
!961 = !DIDerivedType(tag: DW_TAG_reference_type, baseType: !895, size: 64)
!962 = !{!963}
!963 = !DITemplateTypeParameter(name: "AM", type: !901)
!964 = !DISubprogram(name: "Vector", scope: !892, file: !502, line: 137, type: !965, scopeLine: 137, flags: DIFlagPublic | DIFlagExplicit | DIFlagPrototyped, spFlags: DISPFlagOptimized)
!965 = !DISubroutineType(types: !966)
!966 = !{null, !967}
!967 = !DIDerivedType(tag: DW_TAG_pointer_type, baseType: !892, size: 64, flags: DIFlagArtificial | DIFlagObjectPointer)
!968 = !DISubprogram(name: "Vector", scope: !892, file: !502, line: 138, type: !969, scopeLine: 138, flags: DIFlagPublic | DIFlagExplicit | DIFlagPrototyped, spFlags: DISPFlagOptimized)
!969 = !DISubroutineType(types: !970)
!970 = !{null, !967, !596, !971}
!971 = !DIDerivedType(tag: DW_TAG_typedef, name: "value_argument_type", scope: !892, file: !502, line: 125, baseType: !972)
!972 = !DIDerivedType(tag: DW_TAG_typedef, name: "type", scope: !973, file: !537, line: 157, baseType: !34)
!973 = distinct !DICompositeType(tag: DW_TAG_structure_type, name: "fast_argument<unsigned int, false>", file: !537, line: 155, size: 8, flags: DIFlagTypePassByValue, elements: !974, templateParams: !976, identifier: "_ZTS13fast_argumentIjLb0EE")
!974 = !{!975}
!975 = !DIDerivedType(tag: DW_TAG_member, name: "is_reference", scope: !973, file: !537, line: 156, baseType: !602, flags: DIFlagStaticMember, extraData: i1 false)
!976 = !{!977, !605}
!977 = !DITemplateTypeParameter(name: "T", type: !34)
!978 = !DISubprogram(name: "Vector", scope: !892, file: !502, line: 139, type: !979, scopeLine: 139, flags: DIFlagPublic | DIFlagPrototyped, spFlags: DISPFlagOptimized)
!979 = !DISubroutineType(types: !980)
!980 = !{null, !967, !981}
!981 = !DIDerivedType(tag: DW_TAG_reference_type, baseType: !982, size: 64)
!982 = !DIDerivedType(tag: DW_TAG_const_type, baseType: !892)
!983 = !DISubprogram(name: "Vector", scope: !892, file: !502, line: 141, type: !984, scopeLine: 141, flags: DIFlagPublic | DIFlagPrototyped, spFlags: DISPFlagOptimized)
!984 = !DISubroutineType(types: !985)
!985 = !{null, !967, !986}
!986 = !DIDerivedType(tag: DW_TAG_rvalue_reference_type, baseType: !892, size: 64)
!987 = !DISubprogram(name: "operator=", linkageName: "_ZN6VectorIjEaSERKS0_", scope: !892, file: !502, line: 144, type: !988, scopeLine: 144, flags: DIFlagPublic | DIFlagPrototyped, spFlags: DISPFlagOptimized)
!988 = !DISubroutineType(types: !989)
!989 = !{!990, !967, !981}
!990 = !DIDerivedType(tag: DW_TAG_reference_type, baseType: !892, size: 64)
!991 = !DISubprogram(name: "operator=", linkageName: "_ZN6VectorIjEaSEOS0_", scope: !892, file: !502, line: 146, type: !992, scopeLine: 146, flags: DIFlagPublic | DIFlagPrototyped, spFlags: DISPFlagOptimized)
!992 = !DISubroutineType(types: !993)
!993 = !{!990, !967, !986}
!994 = !DISubprogram(name: "assign", linkageName: "_ZN6VectorIjE6assignEij", scope: !892, file: !502, line: 148, type: !995, scopeLine: 148, flags: DIFlagPublic | DIFlagPrototyped, spFlags: DISPFlagOptimized)
!995 = !DISubroutineType(types: !996)
!996 = !{!990, !967, !596, !971}
!997 = !DISubprogram(name: "begin", linkageName: "_ZN6VectorIjE5beginEv", scope: !892, file: !502, line: 150, type: !998, scopeLine: 150, flags: DIFlagPublic | DIFlagPrototyped, spFlags: DISPFlagOptimized)
!998 = !DISubroutineType(types: !999)
!999 = !{!1000, !967}
!1000 = !DIDerivedType(tag: DW_TAG_typedef, name: "iterator", scope: !892, file: !502, line: 130, baseType: !1001)
!1001 = !DIDerivedType(tag: DW_TAG_pointer_type, baseType: !34, size: 64)
!1002 = !DISubprogram(name: "end", linkageName: "_ZN6VectorIjE3endEv", scope: !892, file: !502, line: 151, type: !998, scopeLine: 151, flags: DIFlagPublic | DIFlagPrototyped, spFlags: DISPFlagOptimized)
!1003 = !DISubprogram(name: "begin", linkageName: "_ZNK6VectorIjE5beginEv", scope: !892, file: !502, line: 152, type: !1004, scopeLine: 152, flags: DIFlagPublic | DIFlagPrototyped, spFlags: DISPFlagOptimized)
!1004 = !DISubroutineType(types: !1005)
!1005 = !{!1006, !1009}
!1006 = !DIDerivedType(tag: DW_TAG_typedef, name: "const_iterator", scope: !892, file: !502, line: 131, baseType: !1007)
!1007 = !DIDerivedType(tag: DW_TAG_pointer_type, baseType: !1008, size: 64)
!1008 = !DIDerivedType(tag: DW_TAG_const_type, baseType: !34)
!1009 = !DIDerivedType(tag: DW_TAG_pointer_type, baseType: !982, size: 64, flags: DIFlagArtificial | DIFlagObjectPointer)
!1010 = !DISubprogram(name: "end", linkageName: "_ZNK6VectorIjE3endEv", scope: !892, file: !502, line: 153, type: !1004, scopeLine: 153, flags: DIFlagPublic | DIFlagPrototyped, spFlags: DISPFlagOptimized)
!1011 = !DISubprogram(name: "cbegin", linkageName: "_ZNK6VectorIjE6cbeginEv", scope: !892, file: !502, line: 154, type: !1004, scopeLine: 154, flags: DIFlagPublic | DIFlagPrototyped, spFlags: DISPFlagOptimized)
!1012 = !DISubprogram(name: "cend", linkageName: "_ZNK6VectorIjE4cendEv", scope: !892, file: !502, line: 155, type: !1004, scopeLine: 155, flags: DIFlagPublic | DIFlagPrototyped, spFlags: DISPFlagOptimized)
!1013 = !DISubprogram(name: "size", linkageName: "_ZNK6VectorIjE4sizeEv", scope: !892, file: !502, line: 157, type: !1014, scopeLine: 157, flags: DIFlagPublic | DIFlagPrototyped, spFlags: DISPFlagOptimized)
!1014 = !DISubroutineType(types: !1015)
!1015 = !{!596, !1009}
!1016 = !DISubprogram(name: "capacity", linkageName: "_ZNK6VectorIjE8capacityEv", scope: !892, file: !502, line: 158, type: !1014, scopeLine: 158, flags: DIFlagPublic | DIFlagPrototyped, spFlags: DISPFlagOptimized)
!1017 = !DISubprogram(name: "empty", linkageName: "_ZNK6VectorIjE5emptyEv", scope: !892, file: !502, line: 159, type: !1018, scopeLine: 159, flags: DIFlagPublic | DIFlagPrototyped, spFlags: DISPFlagOptimized)
!1018 = !DISubroutineType(types: !1019)
!1019 = !{!87, !1009}
!1020 = !DISubprogram(name: "resize", linkageName: "_ZN6VectorIjE6resizeEij", scope: !892, file: !502, line: 160, type: !969, scopeLine: 160, flags: DIFlagPublic | DIFlagPrototyped, spFlags: DISPFlagOptimized)
!1021 = !DISubprogram(name: "reserve", linkageName: "_ZN6VectorIjE7reserveEi", scope: !892, file: !502, line: 161, type: !1022, scopeLine: 161, flags: DIFlagPublic | DIFlagPrototyped, spFlags: DISPFlagOptimized)
!1022 = !DISubroutineType(types: !1023)
!1023 = !{!87, !967, !596}
!1024 = !DISubprogram(name: "operator[]", linkageName: "_ZN6VectorIjEixEi", scope: !892, file: !502, line: 163, type: !1025, scopeLine: 163, flags: DIFlagPublic | DIFlagPrototyped, spFlags: DISPFlagOptimized)
!1025 = !DISubroutineType(types: !1026)
!1026 = !{!1027, !967, !596}
!1027 = !DIDerivedType(tag: DW_TAG_reference_type, baseType: !34, size: 64)
!1028 = !DISubprogram(name: "operator[]", linkageName: "_ZNK6VectorIjEixEi", scope: !892, file: !502, line: 164, type: !1029, scopeLine: 164, flags: DIFlagPublic | DIFlagPrototyped, spFlags: DISPFlagOptimized)
!1029 = !DISubroutineType(types: !1030)
!1030 = !{!1031, !1009, !596}
!1031 = !DIDerivedType(tag: DW_TAG_reference_type, baseType: !1008, size: 64)
!1032 = !DISubprogram(name: "at", linkageName: "_ZN6VectorIjE2atEi", scope: !892, file: !502, line: 165, type: !1025, scopeLine: 165, flags: DIFlagPublic | DIFlagPrototyped, spFlags: DISPFlagOptimized)
!1033 = !DISubprogram(name: "at", linkageName: "_ZNK6VectorIjE2atEi", scope: !892, file: !502, line: 166, type: !1029, scopeLine: 166, flags: DIFlagPublic | DIFlagPrototyped, spFlags: DISPFlagOptimized)
!1034 = !DISubprogram(name: "front", linkageName: "_ZN6VectorIjE5frontEv", scope: !892, file: !502, line: 167, type: !1035, scopeLine: 167, flags: DIFlagPublic | DIFlagPrototyped, spFlags: DISPFlagOptimized)
!1035 = !DISubroutineType(types: !1036)
!1036 = !{!1027, !967}
!1037 = !DISubprogram(name: "front", linkageName: "_ZNK6VectorIjE5frontEv", scope: !892, file: !502, line: 168, type: !1038, scopeLine: 168, flags: DIFlagPublic | DIFlagPrototyped, spFlags: DISPFlagOptimized)
!1038 = !DISubroutineType(types: !1039)
!1039 = !{!1031, !1009}
!1040 = !DISubprogram(name: "back", linkageName: "_ZN6VectorIjE4backEv", scope: !892, file: !502, line: 169, type: !1035, scopeLine: 169, flags: DIFlagPublic | DIFlagPrototyped, spFlags: DISPFlagOptimized)
!1041 = !DISubprogram(name: "back", linkageName: "_ZNK6VectorIjE4backEv", scope: !892, file: !502, line: 170, type: !1038, scopeLine: 170, flags: DIFlagPublic | DIFlagPrototyped, spFlags: DISPFlagOptimized)
!1042 = !DISubprogram(name: "unchecked_at", linkageName: "_ZN6VectorIjE12unchecked_atEi", scope: !892, file: !502, line: 172, type: !1025, scopeLine: 172, flags: DIFlagPublic | DIFlagPrototyped, spFlags: DISPFlagOptimized)
!1043 = !DISubprogram(name: "unchecked_at", linkageName: "_ZNK6VectorIjE12unchecked_atEi", scope: !892, file: !502, line: 173, type: !1029, scopeLine: 173, flags: DIFlagPublic | DIFlagPrototyped, spFlags: DISPFlagOptimized)
!1044 = !DISubprogram(name: "at_u", linkageName: "_ZN6VectorIjE4at_uEi", scope: !892, file: !502, line: 174, type: !1025, scopeLine: 174, flags: DIFlagPublic | DIFlagPrototyped, spFlags: DISPFlagOptimized)
!1045 = !DISubprogram(name: "at_u", linkageName: "_ZNK6VectorIjE4at_uEi", scope: !892, file: !502, line: 175, type: !1029, scopeLine: 175, flags: DIFlagPublic | DIFlagPrototyped, spFlags: DISPFlagOptimized)
!1046 = !DISubprogram(name: "data", linkageName: "_ZN6VectorIjE4dataEv", scope: !892, file: !502, line: 177, type: !1047, scopeLine: 177, flags: DIFlagPublic | DIFlagPrototyped, spFlags: DISPFlagOptimized)
!1047 = !DISubroutineType(types: !1048)
!1048 = !{!1001, !967}
!1049 = !DISubprogram(name: "data", linkageName: "_ZNK6VectorIjE4dataEv", scope: !892, file: !502, line: 178, type: !1050, scopeLine: 178, flags: DIFlagPublic | DIFlagPrototyped, spFlags: DISPFlagOptimized)
!1050 = !DISubroutineType(types: !1051)
!1051 = !{!1007, !1009}
!1052 = !DISubprogram(name: "push_back", linkageName: "_ZN6VectorIjE9push_backEj", scope: !892, file: !502, line: 180, type: !1053, scopeLine: 180, flags: DIFlagPublic | DIFlagPrototyped, spFlags: DISPFlagOptimized)
!1053 = !DISubroutineType(types: !1054)
!1054 = !{null, !967, !971}
!1055 = !DISubprogram(name: "pop_back", linkageName: "_ZN6VectorIjE8pop_backEv", scope: !892, file: !502, line: 185, type: !965, scopeLine: 185, flags: DIFlagPublic | DIFlagPrototyped, spFlags: DISPFlagOptimized)
!1056 = !DISubprogram(name: "push_front", linkageName: "_ZN6VectorIjE10push_frontEj", scope: !892, file: !502, line: 186, type: !1053, scopeLine: 186, flags: DIFlagPublic | DIFlagPrototyped, spFlags: DISPFlagOptimized)
!1057 = !DISubprogram(name: "pop_front", linkageName: "_ZN6VectorIjE9pop_frontEv", scope: !892, file: !502, line: 187, type: !965, scopeLine: 187, flags: DIFlagPublic | DIFlagPrototyped, spFlags: DISPFlagOptimized)
!1058 = !DISubprogram(name: "insert", linkageName: "_ZN6VectorIjE6insertEPjj", scope: !892, file: !502, line: 189, type: !1059, scopeLine: 189, flags: DIFlagPublic | DIFlagPrototyped, spFlags: DISPFlagOptimized)
!1059 = !DISubroutineType(types: !1060)
!1060 = !{!1000, !967, !1000, !971}
!1061 = !DISubprogram(name: "erase", linkageName: "_ZN6VectorIjE5eraseEPj", scope: !892, file: !502, line: 190, type: !1062, scopeLine: 190, flags: DIFlagPublic | DIFlagPrototyped, spFlags: DISPFlagOptimized)
!1062 = !DISubroutineType(types: !1063)
!1063 = !{!1000, !967, !1000}
!1064 = !DISubprogram(name: "erase", linkageName: "_ZN6VectorIjE5eraseEPjS1_", scope: !892, file: !502, line: 191, type: !1065, scopeLine: 191, flags: DIFlagPublic | DIFlagPrototyped, spFlags: DISPFlagOptimized)
!1065 = !DISubroutineType(types: !1066)
!1066 = !{!1000, !967, !1000, !1000}
!1067 = !DISubprogram(name: "clear", linkageName: "_ZN6VectorIjE5clearEv", scope: !892, file: !502, line: 193, type: !965, scopeLine: 193, flags: DIFlagPublic | DIFlagPrototyped, spFlags: DISPFlagOptimized)
!1068 = !DISubprogram(name: "swap", linkageName: "_ZN6VectorIjE4swapERS0_", scope: !892, file: !502, line: 195, type: !1069, scopeLine: 195, flags: DIFlagPublic | DIFlagPrototyped, spFlags: DISPFlagOptimized)
!1069 = !DISubroutineType(types: !1070)
!1070 = !{null, !967, !990}
!1071 = !{!977}
!1072 = !DIDerivedType(tag: DW_TAG_member, name: "_element_home_thread_ids", scope: !427, file: !426, line: 245, baseType: !1073, size: 128, offset: 768)
!1073 = distinct !DICompositeType(tag: DW_TAG_class_type, name: "Vector<int>", file: !502, line: 111, size: 128, flags: DIFlagTypePassByReference | DIFlagNonTrivial, elements: !1074, templateParams: !1183, identifier: "_ZTS6VectorIiE")
!1074 = !{!1075, !1076, !1080, !1090, !1095, !1099, !1103, !1106, !1109, !1114, !1115, !1122, !1123, !1124, !1125, !1128, !1129, !1132, !1133, !1136, !1140, !1144, !1145, !1146, !1149, !1152, !1153, !1154, !1155, !1156, !1157, !1158, !1161, !1164, !1167, !1168, !1169, !1170, !1173, !1176, !1179, !1180}
!1075 = !DIDerivedType(tag: DW_TAG_member, name: "vm_", scope: !1073, file: !502, line: 114, baseType: !895, size: 128)
!1076 = !DISubprogram(name: "Vector", scope: !1073, file: !502, line: 137, type: !1077, scopeLine: 137, flags: DIFlagPublic | DIFlagExplicit | DIFlagPrototyped, spFlags: DISPFlagOptimized)
!1077 = !DISubroutineType(types: !1078)
!1078 = !{null, !1079}
!1079 = !DIDerivedType(tag: DW_TAG_pointer_type, baseType: !1073, size: 64, flags: DIFlagArtificial | DIFlagObjectPointer)
!1080 = !DISubprogram(name: "Vector", scope: !1073, file: !502, line: 138, type: !1081, scopeLine: 138, flags: DIFlagPublic | DIFlagExplicit | DIFlagPrototyped, spFlags: DISPFlagOptimized)
!1081 = !DISubroutineType(types: !1082)
!1082 = !{null, !1079, !596, !1083}
!1083 = !DIDerivedType(tag: DW_TAG_typedef, name: "value_argument_type", scope: !1073, file: !502, line: 125, baseType: !1084)
!1084 = !DIDerivedType(tag: DW_TAG_typedef, name: "type", scope: !1085, file: !537, line: 157, baseType: !23)
!1085 = distinct !DICompositeType(tag: DW_TAG_structure_type, name: "fast_argument<int, false>", file: !537, line: 155, size: 8, flags: DIFlagTypePassByValue, elements: !1086, templateParams: !1088, identifier: "_ZTS13fast_argumentIiLb0EE")
!1086 = !{!1087}
!1087 = !DIDerivedType(tag: DW_TAG_member, name: "is_reference", scope: !1085, file: !537, line: 156, baseType: !602, flags: DIFlagStaticMember, extraData: i1 false)
!1088 = !{!1089, !605}
!1089 = !DITemplateTypeParameter(name: "T", type: !23)
!1090 = !DISubprogram(name: "Vector", scope: !1073, file: !502, line: 139, type: !1091, scopeLine: 139, flags: DIFlagPublic | DIFlagPrototyped, spFlags: DISPFlagOptimized)
!1091 = !DISubroutineType(types: !1092)
!1092 = !{null, !1079, !1093}
!1093 = !DIDerivedType(tag: DW_TAG_reference_type, baseType: !1094, size: 64)
!1094 = !DIDerivedType(tag: DW_TAG_const_type, baseType: !1073)
!1095 = !DISubprogram(name: "Vector", scope: !1073, file: !502, line: 141, type: !1096, scopeLine: 141, flags: DIFlagPublic | DIFlagPrototyped, spFlags: DISPFlagOptimized)
!1096 = !DISubroutineType(types: !1097)
!1097 = !{null, !1079, !1098}
!1098 = !DIDerivedType(tag: DW_TAG_rvalue_reference_type, baseType: !1073, size: 64)
!1099 = !DISubprogram(name: "operator=", linkageName: "_ZN6VectorIiEaSERKS0_", scope: !1073, file: !502, line: 144, type: !1100, scopeLine: 144, flags: DIFlagPublic | DIFlagPrototyped, spFlags: DISPFlagOptimized)
!1100 = !DISubroutineType(types: !1101)
!1101 = !{!1102, !1079, !1093}
!1102 = !DIDerivedType(tag: DW_TAG_reference_type, baseType: !1073, size: 64)
!1103 = !DISubprogram(name: "operator=", linkageName: "_ZN6VectorIiEaSEOS0_", scope: !1073, file: !502, line: 146, type: !1104, scopeLine: 146, flags: DIFlagPublic | DIFlagPrototyped, spFlags: DISPFlagOptimized)
!1104 = !DISubroutineType(types: !1105)
!1105 = !{!1102, !1079, !1098}
!1106 = !DISubprogram(name: "assign", linkageName: "_ZN6VectorIiE6assignEii", scope: !1073, file: !502, line: 148, type: !1107, scopeLine: 148, flags: DIFlagPublic | DIFlagPrototyped, spFlags: DISPFlagOptimized)
!1107 = !DISubroutineType(types: !1108)
!1108 = !{!1102, !1079, !596, !1083}
!1109 = !DISubprogram(name: "begin", linkageName: "_ZN6VectorIiE5beginEv", scope: !1073, file: !502, line: 150, type: !1110, scopeLine: 150, flags: DIFlagPublic | DIFlagPrototyped, spFlags: DISPFlagOptimized)
!1110 = !DISubroutineType(types: !1111)
!1111 = !{!1112, !1079}
!1112 = !DIDerivedType(tag: DW_TAG_typedef, name: "iterator", scope: !1073, file: !502, line: 130, baseType: !1113)
!1113 = !DIDerivedType(tag: DW_TAG_pointer_type, baseType: !23, size: 64)
!1114 = !DISubprogram(name: "end", linkageName: "_ZN6VectorIiE3endEv", scope: !1073, file: !502, line: 151, type: !1110, scopeLine: 151, flags: DIFlagPublic | DIFlagPrototyped, spFlags: DISPFlagOptimized)
!1115 = !DISubprogram(name: "begin", linkageName: "_ZNK6VectorIiE5beginEv", scope: !1073, file: !502, line: 152, type: !1116, scopeLine: 152, flags: DIFlagPublic | DIFlagPrototyped, spFlags: DISPFlagOptimized)
!1116 = !DISubroutineType(types: !1117)
!1117 = !{!1118, !1121}
!1118 = !DIDerivedType(tag: DW_TAG_typedef, name: "const_iterator", scope: !1073, file: !502, line: 131, baseType: !1119)
!1119 = !DIDerivedType(tag: DW_TAG_pointer_type, baseType: !1120, size: 64)
!1120 = !DIDerivedType(tag: DW_TAG_const_type, baseType: !23)
!1121 = !DIDerivedType(tag: DW_TAG_pointer_type, baseType: !1094, size: 64, flags: DIFlagArtificial | DIFlagObjectPointer)
!1122 = !DISubprogram(name: "end", linkageName: "_ZNK6VectorIiE3endEv", scope: !1073, file: !502, line: 153, type: !1116, scopeLine: 153, flags: DIFlagPublic | DIFlagPrototyped, spFlags: DISPFlagOptimized)
!1123 = !DISubprogram(name: "cbegin", linkageName: "_ZNK6VectorIiE6cbeginEv", scope: !1073, file: !502, line: 154, type: !1116, scopeLine: 154, flags: DIFlagPublic | DIFlagPrototyped, spFlags: DISPFlagOptimized)
!1124 = !DISubprogram(name: "cend", linkageName: "_ZNK6VectorIiE4cendEv", scope: !1073, file: !502, line: 155, type: !1116, scopeLine: 155, flags: DIFlagPublic | DIFlagPrototyped, spFlags: DISPFlagOptimized)
!1125 = !DISubprogram(name: "size", linkageName: "_ZNK6VectorIiE4sizeEv", scope: !1073, file: !502, line: 157, type: !1126, scopeLine: 157, flags: DIFlagPublic | DIFlagPrototyped, spFlags: DISPFlagOptimized)
!1126 = !DISubroutineType(types: !1127)
!1127 = !{!596, !1121}
!1128 = !DISubprogram(name: "capacity", linkageName: "_ZNK6VectorIiE8capacityEv", scope: !1073, file: !502, line: 158, type: !1126, scopeLine: 158, flags: DIFlagPublic | DIFlagPrototyped, spFlags: DISPFlagOptimized)
!1129 = !DISubprogram(name: "empty", linkageName: "_ZNK6VectorIiE5emptyEv", scope: !1073, file: !502, line: 159, type: !1130, scopeLine: 159, flags: DIFlagPublic | DIFlagPrototyped, spFlags: DISPFlagOptimized)
!1130 = !DISubroutineType(types: !1131)
!1131 = !{!87, !1121}
!1132 = !DISubprogram(name: "resize", linkageName: "_ZN6VectorIiE6resizeEii", scope: !1073, file: !502, line: 160, type: !1081, scopeLine: 160, flags: DIFlagPublic | DIFlagPrototyped, spFlags: DISPFlagOptimized)
!1133 = !DISubprogram(name: "reserve", linkageName: "_ZN6VectorIiE7reserveEi", scope: !1073, file: !502, line: 161, type: !1134, scopeLine: 161, flags: DIFlagPublic | DIFlagPrototyped, spFlags: DISPFlagOptimized)
!1134 = !DISubroutineType(types: !1135)
!1135 = !{!87, !1079, !596}
!1136 = !DISubprogram(name: "operator[]", linkageName: "_ZN6VectorIiEixEi", scope: !1073, file: !502, line: 163, type: !1137, scopeLine: 163, flags: DIFlagPublic | DIFlagPrototyped, spFlags: DISPFlagOptimized)
!1137 = !DISubroutineType(types: !1138)
!1138 = !{!1139, !1079, !596}
!1139 = !DIDerivedType(tag: DW_TAG_reference_type, baseType: !23, size: 64)
!1140 = !DISubprogram(name: "operator[]", linkageName: "_ZNK6VectorIiEixEi", scope: !1073, file: !502, line: 164, type: !1141, scopeLine: 164, flags: DIFlagPublic | DIFlagPrototyped, spFlags: DISPFlagOptimized)
!1141 = !DISubroutineType(types: !1142)
!1142 = !{!1143, !1121, !596}
!1143 = !DIDerivedType(tag: DW_TAG_reference_type, baseType: !1120, size: 64)
!1144 = !DISubprogram(name: "at", linkageName: "_ZN6VectorIiE2atEi", scope: !1073, file: !502, line: 165, type: !1137, scopeLine: 165, flags: DIFlagPublic | DIFlagPrototyped, spFlags: DISPFlagOptimized)
!1145 = !DISubprogram(name: "at", linkageName: "_ZNK6VectorIiE2atEi", scope: !1073, file: !502, line: 166, type: !1141, scopeLine: 166, flags: DIFlagPublic | DIFlagPrototyped, spFlags: DISPFlagOptimized)
!1146 = !DISubprogram(name: "front", linkageName: "_ZN6VectorIiE5frontEv", scope: !1073, file: !502, line: 167, type: !1147, scopeLine: 167, flags: DIFlagPublic | DIFlagPrototyped, spFlags: DISPFlagOptimized)
!1147 = !DISubroutineType(types: !1148)
!1148 = !{!1139, !1079}
!1149 = !DISubprogram(name: "front", linkageName: "_ZNK6VectorIiE5frontEv", scope: !1073, file: !502, line: 168, type: !1150, scopeLine: 168, flags: DIFlagPublic | DIFlagPrototyped, spFlags: DISPFlagOptimized)
!1150 = !DISubroutineType(types: !1151)
!1151 = !{!1143, !1121}
!1152 = !DISubprogram(name: "back", linkageName: "_ZN6VectorIiE4backEv", scope: !1073, file: !502, line: 169, type: !1147, scopeLine: 169, flags: DIFlagPublic | DIFlagPrototyped, spFlags: DISPFlagOptimized)
!1153 = !DISubprogram(name: "back", linkageName: "_ZNK6VectorIiE4backEv", scope: !1073, file: !502, line: 170, type: !1150, scopeLine: 170, flags: DIFlagPublic | DIFlagPrototyped, spFlags: DISPFlagOptimized)
!1154 = !DISubprogram(name: "unchecked_at", linkageName: "_ZN6VectorIiE12unchecked_atEi", scope: !1073, file: !502, line: 172, type: !1137, scopeLine: 172, flags: DIFlagPublic | DIFlagPrototyped, spFlags: DISPFlagOptimized)
!1155 = !DISubprogram(name: "unchecked_at", linkageName: "_ZNK6VectorIiE12unchecked_atEi", scope: !1073, file: !502, line: 173, type: !1141, scopeLine: 173, flags: DIFlagPublic | DIFlagPrototyped, spFlags: DISPFlagOptimized)
!1156 = !DISubprogram(name: "at_u", linkageName: "_ZN6VectorIiE4at_uEi", scope: !1073, file: !502, line: 174, type: !1137, scopeLine: 174, flags: DIFlagPublic | DIFlagPrototyped, spFlags: DISPFlagOptimized)
!1157 = !DISubprogram(name: "at_u", linkageName: "_ZNK6VectorIiE4at_uEi", scope: !1073, file: !502, line: 175, type: !1141, scopeLine: 175, flags: DIFlagPublic | DIFlagPrototyped, spFlags: DISPFlagOptimized)
!1158 = !DISubprogram(name: "data", linkageName: "_ZN6VectorIiE4dataEv", scope: !1073, file: !502, line: 177, type: !1159, scopeLine: 177, flags: DIFlagPublic | DIFlagPrototyped, spFlags: DISPFlagOptimized)
!1159 = !DISubroutineType(types: !1160)
!1160 = !{!1113, !1079}
!1161 = !DISubprogram(name: "data", linkageName: "_ZNK6VectorIiE4dataEv", scope: !1073, file: !502, line: 178, type: !1162, scopeLine: 178, flags: DIFlagPublic | DIFlagPrototyped, spFlags: DISPFlagOptimized)
!1162 = !DISubroutineType(types: !1163)
!1163 = !{!1119, !1121}
!1164 = !DISubprogram(name: "push_back", linkageName: "_ZN6VectorIiE9push_backEi", scope: !1073, file: !502, line: 180, type: !1165, scopeLine: 180, flags: DIFlagPublic | DIFlagPrototyped, spFlags: DISPFlagOptimized)
!1165 = !DISubroutineType(types: !1166)
!1166 = !{null, !1079, !1083}
!1167 = !DISubprogram(name: "pop_back", linkageName: "_ZN6VectorIiE8pop_backEv", scope: !1073, file: !502, line: 185, type: !1077, scopeLine: 185, flags: DIFlagPublic | DIFlagPrototyped, spFlags: DISPFlagOptimized)
!1168 = !DISubprogram(name: "push_front", linkageName: "_ZN6VectorIiE10push_frontEi", scope: !1073, file: !502, line: 186, type: !1165, scopeLine: 186, flags: DIFlagPublic | DIFlagPrototyped, spFlags: DISPFlagOptimized)
!1169 = !DISubprogram(name: "pop_front", linkageName: "_ZN6VectorIiE9pop_frontEv", scope: !1073, file: !502, line: 187, type: !1077, scopeLine: 187, flags: DIFlagPublic | DIFlagPrototyped, spFlags: DISPFlagOptimized)
!1170 = !DISubprogram(name: "insert", linkageName: "_ZN6VectorIiE6insertEPii", scope: !1073, file: !502, line: 189, type: !1171, scopeLine: 189, flags: DIFlagPublic | DIFlagPrototyped, spFlags: DISPFlagOptimized)
!1171 = !DISubroutineType(types: !1172)
!1172 = !{!1112, !1079, !1112, !1083}
!1173 = !DISubprogram(name: "erase", linkageName: "_ZN6VectorIiE5eraseEPi", scope: !1073, file: !502, line: 190, type: !1174, scopeLine: 190, flags: DIFlagPublic | DIFlagPrototyped, spFlags: DISPFlagOptimized)
!1174 = !DISubroutineType(types: !1175)
!1175 = !{!1112, !1079, !1112}
!1176 = !DISubprogram(name: "erase", linkageName: "_ZN6VectorIiE5eraseEPiS1_", scope: !1073, file: !502, line: 191, type: !1177, scopeLine: 191, flags: DIFlagPublic | DIFlagPrototyped, spFlags: DISPFlagOptimized)
!1177 = !DISubroutineType(types: !1178)
!1178 = !{!1112, !1079, !1112, !1112}
!1179 = !DISubprogram(name: "clear", linkageName: "_ZN6VectorIiE5clearEv", scope: !1073, file: !502, line: 193, type: !1077, scopeLine: 193, flags: DIFlagPublic | DIFlagPrototyped, spFlags: DISPFlagOptimized)
!1180 = !DISubprogram(name: "swap", linkageName: "_ZN6VectorIiE4swapERS0_", scope: !1073, file: !502, line: 195, type: !1181, scopeLine: 195, flags: DIFlagPublic | DIFlagPrototyped, spFlags: DISPFlagOptimized)
!1181 = !DISubroutineType(types: !1182)
!1182 = !{null, !1079, !1102}
!1183 = !{!1089}
!1184 = !DIDerivedType(tag: DW_TAG_member, name: "_element_landmarks", scope: !427, file: !426, line: 251, baseType: !1185, size: 128, offset: 896)
!1185 = distinct !DICompositeType(tag: DW_TAG_class_type, name: "Vector<Router::element_landmark_t>", file: !502, line: 111, size: 128, flags: DIFlagTypePassByReference | DIFlagNonTrivial, elements: !1186, templateParams: !1225, identifier: "_ZTS6VectorIN6Router18element_landmark_tEE")
!1186 = !{!1187, !1277, !1281, !1291, !1296, !1300, !1304, !1307, !1310, !1314, !1315, !1320, !1321, !1322, !1323, !1326, !1327, !1330, !1331, !1334, !1338, !1341, !1342, !1343, !1346, !1349, !1350, !1351, !1352, !1353, !1354, !1355, !1358, !1361, !1364, !1365, !1366, !1367, !1370, !1373, !1376, !1377}
!1187 = !DIDerivedType(tag: DW_TAG_member, name: "vm_", scope: !1185, file: !502, line: 114, baseType: !1188, size: 128)
!1188 = distinct !DICompositeType(tag: DW_TAG_class_type, name: "vector_memory<typed_array_memory<Router::element_landmark_t> >", file: !502, line: 11, size: 128, flags: DIFlagTypePassByReference | DIFlagNonTrivial, elements: !1189, templateParams: !1275, identifier: "_ZTS13vector_memoryI18typed_array_memoryIN6Router18element_landmark_tEEE")
!1189 = !{!1190, !1227, !1228, !1229, !1236, !1240, !1241, !1245, !1248, !1249, !1253, !1254, !1257, !1260, !1263, !1266, !1267, !1268, !1271}
!1190 = !DIDerivedType(tag: DW_TAG_member, name: "l_", scope: !1188, file: !502, line: 68, baseType: !1191, size: 64, flags: DIFlagPublic)
!1191 = !DIDerivedType(tag: DW_TAG_pointer_type, baseType: !1192, size: 64)
!1192 = !DIDerivedType(tag: DW_TAG_typedef, name: "type", scope: !1188, file: !502, line: 13, baseType: !1193)
!1193 = !DIDerivedType(tag: DW_TAG_typedef, name: "type", scope: !1194, file: !511, line: 58, baseType: !1200)
!1194 = distinct !DICompositeType(tag: DW_TAG_class_type, name: "typed_array_memory<Router::element_landmark_t>", file: !511, line: 57, size: 8, flags: DIFlagTypePassByValue, elements: !1195, templateParams: !1225, identifier: "_ZTS18typed_array_memoryIN6Router18element_landmark_tEE")
!1195 = !{!1196, !1204, !1209, !1212, !1215, !1218, !1219, !1220, !1223, !1224}
!1196 = !DISubprogram(name: "cast", linkageName: "_ZN18typed_array_memoryIN6Router18element_landmark_tEE4castEPS1_", scope: !1194, file: !511, line: 59, type: !1197, scopeLine: 59, flags: DIFlagPublic | DIFlagPrototyped | DIFlagStaticMember, spFlags: DISPFlagOptimized)
!1197 = !DISubroutineType(types: !1198)
!1198 = !{!1199, !1199}
!1199 = !DIDerivedType(tag: DW_TAG_pointer_type, baseType: !1200, size: 64)
!1200 = distinct !DICompositeType(tag: DW_TAG_structure_type, name: "element_landmark_t", scope: !427, file: !426, line: 247, size: 256, flags: DIFlagTypePassByReference | DIFlagNonTrivial, elements: !1201, identifier: "_ZTSN6Router18element_landmark_tE")
!1201 = !{!1202, !1203}
!1202 = !DIDerivedType(tag: DW_TAG_member, name: "first_landmarkid", scope: !1200, file: !426, line: 248, baseType: !30, size: 32)
!1203 = !DIDerivedType(tag: DW_TAG_member, name: "filename", scope: !1200, file: !426, line: 249, baseType: !8, size: 192, offset: 64)
!1204 = !DISubprogram(name: "cast", linkageName: "_ZN18typed_array_memoryIN6Router18element_landmark_tEE4castEPKS1_", scope: !1194, file: !511, line: 62, type: !1205, scopeLine: 62, flags: DIFlagPublic | DIFlagPrototyped | DIFlagStaticMember, spFlags: DISPFlagOptimized)
!1205 = !DISubroutineType(types: !1206)
!1206 = !{!1207, !1207}
!1207 = !DIDerivedType(tag: DW_TAG_pointer_type, baseType: !1208, size: 64)
!1208 = !DIDerivedType(tag: DW_TAG_const_type, baseType: !1200)
!1209 = !DISubprogram(name: "fill", linkageName: "_ZN18typed_array_memoryIN6Router18element_landmark_tEE4fillEPS1_mPKS1_", scope: !1194, file: !511, line: 65, type: !1210, scopeLine: 65, flags: DIFlagPublic | DIFlagPrototyped | DIFlagStaticMember, spFlags: DISPFlagOptimized)
!1210 = !DISubroutineType(types: !1211)
!1211 = !{null, !1199, !517, !1207}
!1212 = !DISubprogram(name: "move_construct", linkageName: "_ZN18typed_array_memoryIN6Router18element_landmark_tEE14move_constructEPS1_S3_", scope: !1194, file: !511, line: 69, type: !1213, scopeLine: 69, flags: DIFlagPublic | DIFlagPrototyped | DIFlagStaticMember, spFlags: DISPFlagOptimized)
!1213 = !DISubroutineType(types: !1214)
!1214 = !{null, !1199, !1199}
!1215 = !DISubprogram(name: "copy", linkageName: "_ZN18typed_array_memoryIN6Router18element_landmark_tEE4copyEPS1_PKS1_m", scope: !1194, file: !511, line: 76, type: !1216, scopeLine: 76, flags: DIFlagPublic | DIFlagPrototyped | DIFlagStaticMember, spFlags: DISPFlagOptimized)
!1216 = !DISubroutineType(types: !1217)
!1217 = !{null, !1199, !1207, !517}
!1218 = !DISubprogram(name: "move", linkageName: "_ZN18typed_array_memoryIN6Router18element_landmark_tEE4moveEPS1_PKS1_m", scope: !1194, file: !511, line: 80, type: !1216, scopeLine: 80, flags: DIFlagPublic | DIFlagPrototyped | DIFlagStaticMember, spFlags: DISPFlagOptimized)
!1219 = !DISubprogram(name: "move_onto", linkageName: "_ZN18typed_array_memoryIN6Router18element_landmark_tEE9move_ontoEPS1_PKS1_m", scope: !1194, file: !511, line: 93, type: !1216, scopeLine: 93, flags: DIFlagPublic | DIFlagPrototyped | DIFlagStaticMember, spFlags: DISPFlagOptimized)
!1220 = !DISubprogram(name: "destroy", linkageName: "_ZN18typed_array_memoryIN6Router18element_landmark_tEE7destroyEPS1_m", scope: !1194, file: !511, line: 106, type: !1221, scopeLine: 106, flags: DIFlagPublic | DIFlagPrototyped | DIFlagStaticMember, spFlags: DISPFlagOptimized)
!1221 = !DISubroutineType(types: !1222)
!1222 = !{null, !1199, !517}
!1223 = !DISubprogram(name: "mark_noaccess", linkageName: "_ZN18typed_array_memoryIN6Router18element_landmark_tEE13mark_noaccessEPS1_m", scope: !1194, file: !511, line: 110, type: !1221, scopeLine: 110, flags: DIFlagPublic | DIFlagPrototyped | DIFlagStaticMember, spFlags: DISPFlagOptimized)
!1224 = !DISubprogram(name: "mark_undefined", linkageName: "_ZN18typed_array_memoryIN6Router18element_landmark_tEE14mark_undefinedEPS1_m", scope: !1194, file: !511, line: 113, type: !1221, scopeLine: 113, flags: DIFlagPublic | DIFlagPrototyped | DIFlagStaticMember, spFlags: DISPFlagOptimized)
!1225 = !{!1226}
!1226 = !DITemplateTypeParameter(name: "T", type: !1200)
!1227 = !DIDerivedType(tag: DW_TAG_member, name: "n_", scope: !1188, file: !502, line: 69, baseType: !539, size: 32, offset: 64, flags: DIFlagPublic)
!1228 = !DIDerivedType(tag: DW_TAG_member, name: "capacity_", scope: !1188, file: !502, line: 70, baseType: !539, size: 32, offset: 96, flags: DIFlagPublic)
!1229 = !DISubprogram(name: "need_argument_copy", linkageName: "_ZNK13vector_memoryI18typed_array_memoryIN6Router18element_landmark_tEEE18need_argument_copyEPKS2_", scope: !1188, file: !502, line: 15, type: !1230, scopeLine: 15, flags: DIFlagPublic | DIFlagPrototyped, spFlags: DISPFlagOptimized)
!1230 = !DISubroutineType(types: !1231)
!1231 = !{!87, !1232, !1234}
!1232 = !DIDerivedType(tag: DW_TAG_pointer_type, baseType: !1233, size: 64, flags: DIFlagArtificial | DIFlagObjectPointer)
!1233 = !DIDerivedType(tag: DW_TAG_const_type, baseType: !1188)
!1234 = !DIDerivedType(tag: DW_TAG_pointer_type, baseType: !1235, size: 64)
!1235 = !DIDerivedType(tag: DW_TAG_const_type, baseType: !1192)
!1236 = !DISubprogram(name: "vector_memory", scope: !1188, file: !502, line: 20, type: !1237, scopeLine: 20, flags: DIFlagPublic | DIFlagPrototyped, spFlags: DISPFlagOptimized)
!1237 = !DISubroutineType(types: !1238)
!1238 = !{null, !1239}
!1239 = !DIDerivedType(tag: DW_TAG_pointer_type, baseType: !1188, size: 64, flags: DIFlagArtificial | DIFlagObjectPointer)
!1240 = !DISubprogram(name: "~vector_memory", scope: !1188, file: !502, line: 23, type: !1237, scopeLine: 23, flags: DIFlagPublic | DIFlagPrototyped, spFlags: DISPFlagOptimized)
!1241 = !DISubprogram(name: "assign", linkageName: "_ZN13vector_memoryI18typed_array_memoryIN6Router18element_landmark_tEEE6assignERKS4_", scope: !1188, file: !502, line: 25, type: !1242, scopeLine: 25, flags: DIFlagPublic | DIFlagPrototyped, spFlags: DISPFlagOptimized)
!1242 = !DISubroutineType(types: !1243)
!1243 = !{null, !1239, !1244}
!1244 = !DIDerivedType(tag: DW_TAG_reference_type, baseType: !1233, size: 64)
!1245 = !DISubprogram(name: "assign", linkageName: "_ZN13vector_memoryI18typed_array_memoryIN6Router18element_landmark_tEEE6assignEiPKS2_", scope: !1188, file: !502, line: 26, type: !1246, scopeLine: 26, flags: DIFlagPublic | DIFlagPrototyped, spFlags: DISPFlagOptimized)
!1246 = !DISubroutineType(types: !1247)
!1247 = !{null, !1239, !539, !1234}
!1248 = !DISubprogram(name: "resize", linkageName: "_ZN13vector_memoryI18typed_array_memoryIN6Router18element_landmark_tEEE6resizeEiPKS2_", scope: !1188, file: !502, line: 27, type: !1246, scopeLine: 27, flags: DIFlagPublic | DIFlagPrototyped, spFlags: DISPFlagOptimized)
!1249 = !DISubprogram(name: "begin", linkageName: "_ZN13vector_memoryI18typed_array_memoryIN6Router18element_landmark_tEEE5beginEv", scope: !1188, file: !502, line: 28, type: !1250, scopeLine: 28, flags: DIFlagPublic | DIFlagPrototyped, spFlags: DISPFlagOptimized)
!1250 = !DISubroutineType(types: !1251)
!1251 = !{!1252, !1239}
!1252 = !DIDerivedType(tag: DW_TAG_typedef, name: "iterator", scope: !1188, file: !502, line: 14, baseType: !1191)
!1253 = !DISubprogram(name: "end", linkageName: "_ZN13vector_memoryI18typed_array_memoryIN6Router18element_landmark_tEEE3endEv", scope: !1188, file: !502, line: 31, type: !1250, scopeLine: 31, flags: DIFlagPublic | DIFlagPrototyped, spFlags: DISPFlagOptimized)
!1254 = !DISubprogram(name: "insert", linkageName: "_ZN13vector_memoryI18typed_array_memoryIN6Router18element_landmark_tEEE6insertEPS2_PKS2_", scope: !1188, file: !502, line: 34, type: !1255, scopeLine: 34, flags: DIFlagPublic | DIFlagPrototyped, spFlags: DISPFlagOptimized)
!1255 = !DISubroutineType(types: !1256)
!1256 = !{!1252, !1239, !1252, !1234}
!1257 = !DISubprogram(name: "erase", linkageName: "_ZN13vector_memoryI18typed_array_memoryIN6Router18element_landmark_tEEE5eraseEPS2_S5_", scope: !1188, file: !502, line: 35, type: !1258, scopeLine: 35, flags: DIFlagPublic | DIFlagPrototyped, spFlags: DISPFlagOptimized)
!1258 = !DISubroutineType(types: !1259)
!1259 = !{!1252, !1239, !1252, !1252}
!1260 = !DISubprogram(name: "push_back", linkageName: "_ZN13vector_memoryI18typed_array_memoryIN6Router18element_landmark_tEEE9push_backEPKS2_", scope: !1188, file: !502, line: 36, type: !1261, scopeLine: 36, flags: DIFlagPublic | DIFlagPrototyped, spFlags: DISPFlagOptimized)
!1261 = !DISubroutineType(types: !1262)
!1262 = !{null, !1239, !1234}
!1263 = !DISubprogram(name: "move_construct_back", linkageName: "_ZN13vector_memoryI18typed_array_memoryIN6Router18element_landmark_tEEE19move_construct_backEPS2_", scope: !1188, file: !502, line: 45, type: !1264, scopeLine: 45, flags: DIFlagPublic | DIFlagPrototyped, spFlags: DISPFlagOptimized)
!1264 = !DISubroutineType(types: !1265)
!1265 = !{null, !1239, !1191}
!1266 = !DISubprogram(name: "pop_back", linkageName: "_ZN13vector_memoryI18typed_array_memoryIN6Router18element_landmark_tEEE8pop_backEv", scope: !1188, file: !502, line: 54, type: !1237, scopeLine: 54, flags: DIFlagPublic | DIFlagPrototyped, spFlags: DISPFlagOptimized)
!1267 = !DISubprogram(name: "clear", linkageName: "_ZN13vector_memoryI18typed_array_memoryIN6Router18element_landmark_tEEE5clearEv", scope: !1188, file: !502, line: 60, type: !1237, scopeLine: 60, flags: DIFlagPublic | DIFlagPrototyped, spFlags: DISPFlagOptimized)
!1268 = !DISubprogram(name: "reserve_and_push_back", linkageName: "_ZN13vector_memoryI18typed_array_memoryIN6Router18element_landmark_tEEE21reserve_and_push_backEiPKS2_", scope: !1188, file: !502, line: 65, type: !1269, scopeLine: 65, flags: DIFlagPublic | DIFlagPrototyped, spFlags: DISPFlagOptimized)
!1269 = !DISubroutineType(types: !1270)
!1270 = !{!87, !1239, !539, !1234}
!1271 = !DISubprogram(name: "swap", linkageName: "_ZN13vector_memoryI18typed_array_memoryIN6Router18element_landmark_tEEE4swapERS4_", scope: !1188, file: !502, line: 66, type: !1272, scopeLine: 66, flags: DIFlagPublic | DIFlagPrototyped, spFlags: DISPFlagOptimized)
!1272 = !DISubroutineType(types: !1273)
!1273 = !{null, !1239, !1274}
!1274 = !DIDerivedType(tag: DW_TAG_reference_type, baseType: !1188, size: 64)
!1275 = !{!1276}
!1276 = !DITemplateTypeParameter(name: "AM", type: !1194)
!1277 = !DISubprogram(name: "Vector", scope: !1185, file: !502, line: 137, type: !1278, scopeLine: 137, flags: DIFlagPublic | DIFlagExplicit | DIFlagPrototyped, spFlags: DISPFlagOptimized)
!1278 = !DISubroutineType(types: !1279)
!1279 = !{null, !1280}
!1280 = !DIDerivedType(tag: DW_TAG_pointer_type, baseType: !1185, size: 64, flags: DIFlagArtificial | DIFlagObjectPointer)
!1281 = !DISubprogram(name: "Vector", scope: !1185, file: !502, line: 138, type: !1282, scopeLine: 138, flags: DIFlagPublic | DIFlagExplicit | DIFlagPrototyped, spFlags: DISPFlagOptimized)
!1282 = !DISubroutineType(types: !1283)
!1283 = !{null, !1280, !596, !1284}
!1284 = !DIDerivedType(tag: DW_TAG_typedef, name: "value_argument_type", scope: !1185, file: !502, line: 125, baseType: !1285)
!1285 = !DIDerivedType(tag: DW_TAG_typedef, name: "type", scope: !1286, file: !537, line: 150, baseType: !1290)
!1286 = distinct !DICompositeType(tag: DW_TAG_structure_type, name: "fast_argument<Router::element_landmark_t, true>", file: !537, line: 148, size: 8, flags: DIFlagTypePassByValue, elements: !1287, templateParams: !1289, identifier: "_ZTS13fast_argumentIN6Router18element_landmark_tELb1EE")
!1287 = !{!1288}
!1288 = !DIDerivedType(tag: DW_TAG_member, name: "is_reference", scope: !1286, file: !537, line: 149, baseType: !602, flags: DIFlagStaticMember, extraData: i1 true)
!1289 = !{!1226, !801}
!1290 = !DIDerivedType(tag: DW_TAG_reference_type, baseType: !1208, size: 64)
!1291 = !DISubprogram(name: "Vector", scope: !1185, file: !502, line: 139, type: !1292, scopeLine: 139, flags: DIFlagPublic | DIFlagPrototyped, spFlags: DISPFlagOptimized)
!1292 = !DISubroutineType(types: !1293)
!1293 = !{null, !1280, !1294}
!1294 = !DIDerivedType(tag: DW_TAG_reference_type, baseType: !1295, size: 64)
!1295 = !DIDerivedType(tag: DW_TAG_const_type, baseType: !1185)
!1296 = !DISubprogram(name: "Vector", scope: !1185, file: !502, line: 141, type: !1297, scopeLine: 141, flags: DIFlagPublic | DIFlagPrototyped, spFlags: DISPFlagOptimized)
!1297 = !DISubroutineType(types: !1298)
!1298 = !{null, !1280, !1299}
!1299 = !DIDerivedType(tag: DW_TAG_rvalue_reference_type, baseType: !1185, size: 64)
!1300 = !DISubprogram(name: "operator=", linkageName: "_ZN6VectorIN6Router18element_landmark_tEEaSERKS2_", scope: !1185, file: !502, line: 144, type: !1301, scopeLine: 144, flags: DIFlagPublic | DIFlagPrototyped, spFlags: DISPFlagOptimized)
!1301 = !DISubroutineType(types: !1302)
!1302 = !{!1303, !1280, !1294}
!1303 = !DIDerivedType(tag: DW_TAG_reference_type, baseType: !1185, size: 64)
!1304 = !DISubprogram(name: "operator=", linkageName: "_ZN6VectorIN6Router18element_landmark_tEEaSEOS2_", scope: !1185, file: !502, line: 146, type: !1305, scopeLine: 146, flags: DIFlagPublic | DIFlagPrototyped, spFlags: DISPFlagOptimized)
!1305 = !DISubroutineType(types: !1306)
!1306 = !{!1303, !1280, !1299}
!1307 = !DISubprogram(name: "assign", linkageName: "_ZN6VectorIN6Router18element_landmark_tEE6assignEiRKS1_", scope: !1185, file: !502, line: 148, type: !1308, scopeLine: 148, flags: DIFlagPublic | DIFlagPrototyped, spFlags: DISPFlagOptimized)
!1308 = !DISubroutineType(types: !1309)
!1309 = !{!1303, !1280, !596, !1284}
!1310 = !DISubprogram(name: "begin", linkageName: "_ZN6VectorIN6Router18element_landmark_tEE5beginEv", scope: !1185, file: !502, line: 150, type: !1311, scopeLine: 150, flags: DIFlagPublic | DIFlagPrototyped, spFlags: DISPFlagOptimized)
!1311 = !DISubroutineType(types: !1312)
!1312 = !{!1313, !1280}
!1313 = !DIDerivedType(tag: DW_TAG_typedef, name: "iterator", scope: !1185, file: !502, line: 130, baseType: !1199)
!1314 = !DISubprogram(name: "end", linkageName: "_ZN6VectorIN6Router18element_landmark_tEE3endEv", scope: !1185, file: !502, line: 151, type: !1311, scopeLine: 151, flags: DIFlagPublic | DIFlagPrototyped, spFlags: DISPFlagOptimized)
!1315 = !DISubprogram(name: "begin", linkageName: "_ZNK6VectorIN6Router18element_landmark_tEE5beginEv", scope: !1185, file: !502, line: 152, type: !1316, scopeLine: 152, flags: DIFlagPublic | DIFlagPrototyped, spFlags: DISPFlagOptimized)
!1316 = !DISubroutineType(types: !1317)
!1317 = !{!1318, !1319}
!1318 = !DIDerivedType(tag: DW_TAG_typedef, name: "const_iterator", scope: !1185, file: !502, line: 131, baseType: !1207)
!1319 = !DIDerivedType(tag: DW_TAG_pointer_type, baseType: !1295, size: 64, flags: DIFlagArtificial | DIFlagObjectPointer)
!1320 = !DISubprogram(name: "end", linkageName: "_ZNK6VectorIN6Router18element_landmark_tEE3endEv", scope: !1185, file: !502, line: 153, type: !1316, scopeLine: 153, flags: DIFlagPublic | DIFlagPrototyped, spFlags: DISPFlagOptimized)
!1321 = !DISubprogram(name: "cbegin", linkageName: "_ZNK6VectorIN6Router18element_landmark_tEE6cbeginEv", scope: !1185, file: !502, line: 154, type: !1316, scopeLine: 154, flags: DIFlagPublic | DIFlagPrototyped, spFlags: DISPFlagOptimized)
!1322 = !DISubprogram(name: "cend", linkageName: "_ZNK6VectorIN6Router18element_landmark_tEE4cendEv", scope: !1185, file: !502, line: 155, type: !1316, scopeLine: 155, flags: DIFlagPublic | DIFlagPrototyped, spFlags: DISPFlagOptimized)
!1323 = !DISubprogram(name: "size", linkageName: "_ZNK6VectorIN6Router18element_landmark_tEE4sizeEv", scope: !1185, file: !502, line: 157, type: !1324, scopeLine: 157, flags: DIFlagPublic | DIFlagPrototyped, spFlags: DISPFlagOptimized)
!1324 = !DISubroutineType(types: !1325)
!1325 = !{!596, !1319}
!1326 = !DISubprogram(name: "capacity", linkageName: "_ZNK6VectorIN6Router18element_landmark_tEE8capacityEv", scope: !1185, file: !502, line: 158, type: !1324, scopeLine: 158, flags: DIFlagPublic | DIFlagPrototyped, spFlags: DISPFlagOptimized)
!1327 = !DISubprogram(name: "empty", linkageName: "_ZNK6VectorIN6Router18element_landmark_tEE5emptyEv", scope: !1185, file: !502, line: 159, type: !1328, scopeLine: 159, flags: DIFlagPublic | DIFlagPrototyped, spFlags: DISPFlagOptimized)
!1328 = !DISubroutineType(types: !1329)
!1329 = !{!87, !1319}
!1330 = !DISubprogram(name: "resize", linkageName: "_ZN6VectorIN6Router18element_landmark_tEE6resizeEiRKS1_", scope: !1185, file: !502, line: 160, type: !1282, scopeLine: 160, flags: DIFlagPublic | DIFlagPrototyped, spFlags: DISPFlagOptimized)
!1331 = !DISubprogram(name: "reserve", linkageName: "_ZN6VectorIN6Router18element_landmark_tEE7reserveEi", scope: !1185, file: !502, line: 161, type: !1332, scopeLine: 161, flags: DIFlagPublic | DIFlagPrototyped, spFlags: DISPFlagOptimized)
!1332 = !DISubroutineType(types: !1333)
!1333 = !{!87, !1280, !596}
!1334 = !DISubprogram(name: "operator[]", linkageName: "_ZN6VectorIN6Router18element_landmark_tEEixEi", scope: !1185, file: !502, line: 163, type: !1335, scopeLine: 163, flags: DIFlagPublic | DIFlagPrototyped, spFlags: DISPFlagOptimized)
!1335 = !DISubroutineType(types: !1336)
!1336 = !{!1337, !1280, !596}
!1337 = !DIDerivedType(tag: DW_TAG_reference_type, baseType: !1200, size: 64)
!1338 = !DISubprogram(name: "operator[]", linkageName: "_ZNK6VectorIN6Router18element_landmark_tEEixEi", scope: !1185, file: !502, line: 164, type: !1339, scopeLine: 164, flags: DIFlagPublic | DIFlagPrototyped, spFlags: DISPFlagOptimized)
!1339 = !DISubroutineType(types: !1340)
!1340 = !{!1290, !1319, !596}
!1341 = !DISubprogram(name: "at", linkageName: "_ZN6VectorIN6Router18element_landmark_tEE2atEi", scope: !1185, file: !502, line: 165, type: !1335, scopeLine: 165, flags: DIFlagPublic | DIFlagPrototyped, spFlags: DISPFlagOptimized)
!1342 = !DISubprogram(name: "at", linkageName: "_ZNK6VectorIN6Router18element_landmark_tEE2atEi", scope: !1185, file: !502, line: 166, type: !1339, scopeLine: 166, flags: DIFlagPublic | DIFlagPrototyped, spFlags: DISPFlagOptimized)
!1343 = !DISubprogram(name: "front", linkageName: "_ZN6VectorIN6Router18element_landmark_tEE5frontEv", scope: !1185, file: !502, line: 167, type: !1344, scopeLine: 167, flags: DIFlagPublic | DIFlagPrototyped, spFlags: DISPFlagOptimized)
!1344 = !DISubroutineType(types: !1345)
!1345 = !{!1337, !1280}
!1346 = !DISubprogram(name: "front", linkageName: "_ZNK6VectorIN6Router18element_landmark_tEE5frontEv", scope: !1185, file: !502, line: 168, type: !1347, scopeLine: 168, flags: DIFlagPublic | DIFlagPrototyped, spFlags: DISPFlagOptimized)
!1347 = !DISubroutineType(types: !1348)
!1348 = !{!1290, !1319}
!1349 = !DISubprogram(name: "back", linkageName: "_ZN6VectorIN6Router18element_landmark_tEE4backEv", scope: !1185, file: !502, line: 169, type: !1344, scopeLine: 169, flags: DIFlagPublic | DIFlagPrototyped, spFlags: DISPFlagOptimized)
!1350 = !DISubprogram(name: "back", linkageName: "_ZNK6VectorIN6Router18element_landmark_tEE4backEv", scope: !1185, file: !502, line: 170, type: !1347, scopeLine: 170, flags: DIFlagPublic | DIFlagPrototyped, spFlags: DISPFlagOptimized)
!1351 = !DISubprogram(name: "unchecked_at", linkageName: "_ZN6VectorIN6Router18element_landmark_tEE12unchecked_atEi", scope: !1185, file: !502, line: 172, type: !1335, scopeLine: 172, flags: DIFlagPublic | DIFlagPrototyped, spFlags: DISPFlagOptimized)
!1352 = !DISubprogram(name: "unchecked_at", linkageName: "_ZNK6VectorIN6Router18element_landmark_tEE12unchecked_atEi", scope: !1185, file: !502, line: 173, type: !1339, scopeLine: 173, flags: DIFlagPublic | DIFlagPrototyped, spFlags: DISPFlagOptimized)
!1353 = !DISubprogram(name: "at_u", linkageName: "_ZN6VectorIN6Router18element_landmark_tEE4at_uEi", scope: !1185, file: !502, line: 174, type: !1335, scopeLine: 174, flags: DIFlagPublic | DIFlagPrototyped, spFlags: DISPFlagOptimized)
!1354 = !DISubprogram(name: "at_u", linkageName: "_ZNK6VectorIN6Router18element_landmark_tEE4at_uEi", scope: !1185, file: !502, line: 175, type: !1339, scopeLine: 175, flags: DIFlagPublic | DIFlagPrototyped, spFlags: DISPFlagOptimized)
!1355 = !DISubprogram(name: "data", linkageName: "_ZN6VectorIN6Router18element_landmark_tEE4dataEv", scope: !1185, file: !502, line: 177, type: !1356, scopeLine: 177, flags: DIFlagPublic | DIFlagPrototyped, spFlags: DISPFlagOptimized)
!1356 = !DISubroutineType(types: !1357)
!1357 = !{!1199, !1280}
!1358 = !DISubprogram(name: "data", linkageName: "_ZNK6VectorIN6Router18element_landmark_tEE4dataEv", scope: !1185, file: !502, line: 178, type: !1359, scopeLine: 178, flags: DIFlagPublic | DIFlagPrototyped, spFlags: DISPFlagOptimized)
!1359 = !DISubroutineType(types: !1360)
!1360 = !{!1207, !1319}
!1361 = !DISubprogram(name: "push_back", linkageName: "_ZN6VectorIN6Router18element_landmark_tEE9push_backERKS1_", scope: !1185, file: !502, line: 180, type: !1362, scopeLine: 180, flags: DIFlagPublic | DIFlagPrototyped, spFlags: DISPFlagOptimized)
!1362 = !DISubroutineType(types: !1363)
!1363 = !{null, !1280, !1284}
!1364 = !DISubprogram(name: "pop_back", linkageName: "_ZN6VectorIN6Router18element_landmark_tEE8pop_backEv", scope: !1185, file: !502, line: 185, type: !1278, scopeLine: 185, flags: DIFlagPublic | DIFlagPrototyped, spFlags: DISPFlagOptimized)
!1365 = !DISubprogram(name: "push_front", linkageName: "_ZN6VectorIN6Router18element_landmark_tEE10push_frontERKS1_", scope: !1185, file: !502, line: 186, type: !1362, scopeLine: 186, flags: DIFlagPublic | DIFlagPrototyped, spFlags: DISPFlagOptimized)
!1366 = !DISubprogram(name: "pop_front", linkageName: "_ZN6VectorIN6Router18element_landmark_tEE9pop_frontEv", scope: !1185, file: !502, line: 187, type: !1278, scopeLine: 187, flags: DIFlagPublic | DIFlagPrototyped, spFlags: DISPFlagOptimized)
!1367 = !DISubprogram(name: "insert", linkageName: "_ZN6VectorIN6Router18element_landmark_tEE6insertEPS1_RKS1_", scope: !1185, file: !502, line: 189, type: !1368, scopeLine: 189, flags: DIFlagPublic | DIFlagPrototyped, spFlags: DISPFlagOptimized)
!1368 = !DISubroutineType(types: !1369)
!1369 = !{!1313, !1280, !1313, !1284}
!1370 = !DISubprogram(name: "erase", linkageName: "_ZN6VectorIN6Router18element_landmark_tEE5eraseEPS1_", scope: !1185, file: !502, line: 190, type: !1371, scopeLine: 190, flags: DIFlagPublic | DIFlagPrototyped, spFlags: DISPFlagOptimized)
!1371 = !DISubroutineType(types: !1372)
!1372 = !{!1313, !1280, !1313}
!1373 = !DISubprogram(name: "erase", linkageName: "_ZN6VectorIN6Router18element_landmark_tEE5eraseEPS1_S3_", scope: !1185, file: !502, line: 191, type: !1374, scopeLine: 191, flags: DIFlagPublic | DIFlagPrototyped, spFlags: DISPFlagOptimized)
!1374 = !DISubroutineType(types: !1375)
!1375 = !{!1313, !1280, !1313, !1313}
!1376 = !DISubprogram(name: "clear", linkageName: "_ZN6VectorIN6Router18element_landmark_tEE5clearEv", scope: !1185, file: !502, line: 193, type: !1278, scopeLine: 193, flags: DIFlagPublic | DIFlagPrototyped, spFlags: DISPFlagOptimized)
!1377 = !DISubprogram(name: "swap", linkageName: "_ZN6VectorIN6Router18element_landmark_tEE4swapERS2_", scope: !1185, file: !502, line: 195, type: !1378, scopeLine: 195, flags: DIFlagPublic | DIFlagPrototyped, spFlags: DISPFlagOptimized)
!1378 = !DISubroutineType(types: !1379)
!1379 = !{null, !1280, !1303}
!1380 = !DIDerivedType(tag: DW_TAG_member, name: "_last_landmarkid", scope: !427, file: !426, line: 252, baseType: !30, size: 32, offset: 1024)
!1381 = !DIDerivedType(tag: DW_TAG_member, name: "_element_name_sorter", scope: !427, file: !426, line: 254, baseType: !1073, size: 128, offset: 1088)
!1382 = !DIDerivedType(tag: DW_TAG_member, name: "_element_gport_offset", scope: !427, file: !426, line: 255, baseType: !1383, size: 256, offset: 1216)
!1383 = !DICompositeType(tag: DW_TAG_array_type, baseType: !1073, size: 256, elements: !1384)
!1384 = !{!1385}
!1385 = !DISubrange(count: 2)
!1386 = !DIDerivedType(tag: DW_TAG_member, name: "_element_configure_order", scope: !427, file: !426, line: 256, baseType: !1073, size: 128, offset: 1472)
!1387 = !DIDerivedType(tag: DW_TAG_member, name: "_conn", scope: !427, file: !426, line: 258, baseType: !1388, size: 128, offset: 1600)
!1388 = distinct !DICompositeType(tag: DW_TAG_class_type, name: "Vector<Router::Connection>", file: !502, line: 111, size: 128, flags: DIFlagTypePassByReference | DIFlagNonTrivial, elements: !1389, templateParams: !1617, identifier: "_ZTS6VectorIN6Router10ConnectionEE")
!1389 = !{!1390, !1467, !1471, !1526, !1531, !1535, !1539, !1542, !1545, !1550, !1551, !1557, !1558, !1559, !1560, !1563, !1564, !1567, !1568, !1571, !1575, !1578, !1579, !1580, !1583, !1586, !1587, !1588, !1589, !1590, !1591, !1592, !1595, !1598, !1601, !1602, !1603, !1604, !1607, !1610, !1613, !1614}
!1390 = !DIDerivedType(tag: DW_TAG_member, name: "vm_", scope: !1388, file: !502, line: 114, baseType: !1391, size: 128)
!1391 = distinct !DICompositeType(tag: DW_TAG_class_type, name: "vector_memory<sized_array_memory<16> >", file: !502, line: 11, size: 128, flags: DIFlagTypePassByReference | DIFlagNonTrivial, elements: !1392, templateParams: !1465, identifier: "_ZTS13vector_memoryI18sized_array_memoryILm16EEE")
!1392 = !{!1393, !1417, !1418, !1419, !1426, !1430, !1431, !1435, !1438, !1439, !1443, !1444, !1447, !1450, !1453, !1456, !1457, !1458, !1461}
!1393 = !DIDerivedType(tag: DW_TAG_member, name: "l_", scope: !1391, file: !502, line: 68, baseType: !1394, size: 64, flags: DIFlagPublic)
!1394 = !DIDerivedType(tag: DW_TAG_pointer_type, baseType: !1395, size: 64)
!1395 = !DIDerivedType(tag: DW_TAG_typedef, name: "type", scope: !1391, file: !502, line: 13, baseType: !1396)
!1396 = !DIDerivedType(tag: DW_TAG_typedef, name: "type", scope: !1397, file: !511, line: 11, baseType: !1409)
!1397 = distinct !DICompositeType(tag: DW_TAG_class_type, name: "sized_array_memory<16>", file: !511, line: 10, size: 8, flags: DIFlagTypePassByValue, elements: !1398, templateParams: !1407, identifier: "_ZTS18sized_array_memoryILm16EE")
!1398 = !{!1399, !1400, !1401, !1402, !1403, !1404, !1405, !1406}
!1399 = !DISubprogram(name: "fill", linkageName: "_ZN18sized_array_memoryILm16EE4fillEPvmPKv", scope: !1397, file: !511, line: 19, type: !515, scopeLine: 19, flags: DIFlagPublic | DIFlagPrototyped | DIFlagStaticMember, spFlags: DISPFlagOptimized)
!1400 = !DISubprogram(name: "move_construct", linkageName: "_ZN18sized_array_memoryILm16EE14move_constructEPvS1_", scope: !1397, file: !511, line: 23, type: !522, scopeLine: 23, flags: DIFlagPublic | DIFlagPrototyped | DIFlagStaticMember, spFlags: DISPFlagOptimized)
!1401 = !DISubprogram(name: "copy", linkageName: "_ZN18sized_array_memoryILm16EE4copyEPvPKvm", scope: !1397, file: !511, line: 26, type: !525, scopeLine: 26, flags: DIFlagPublic | DIFlagPrototyped | DIFlagStaticMember, spFlags: DISPFlagOptimized)
!1402 = !DISubprogram(name: "move", linkageName: "_ZN18sized_array_memoryILm16EE4moveEPvPKvm", scope: !1397, file: !511, line: 30, type: !525, scopeLine: 30, flags: DIFlagPublic | DIFlagPrototyped | DIFlagStaticMember, spFlags: DISPFlagOptimized)
!1403 = !DISubprogram(name: "move_onto", linkageName: "_ZN18sized_array_memoryILm16EE9move_ontoEPvPKvm", scope: !1397, file: !511, line: 34, type: !525, scopeLine: 34, flags: DIFlagPublic | DIFlagPrototyped | DIFlagStaticMember, spFlags: DISPFlagOptimized)
!1404 = !DISubprogram(name: "destroy", linkageName: "_ZN18sized_array_memoryILm16EE7destroyEPvm", scope: !1397, file: !511, line: 38, type: !530, scopeLine: 38, flags: DIFlagPublic | DIFlagPrototyped | DIFlagStaticMember, spFlags: DISPFlagOptimized)
!1405 = !DISubprogram(name: "mark_noaccess", linkageName: "_ZN18sized_array_memoryILm16EE13mark_noaccessEPvm", scope: !1397, file: !511, line: 41, type: !530, scopeLine: 41, flags: DIFlagPublic | DIFlagPrototyped | DIFlagStaticMember, spFlags: DISPFlagOptimized)
!1406 = !DISubprogram(name: "mark_undefined", linkageName: "_ZN18sized_array_memoryILm16EE14mark_undefinedEPvm", scope: !1397, file: !511, line: 48, type: !530, scopeLine: 48, flags: DIFlagPublic | DIFlagPrototyped | DIFlagStaticMember, spFlags: DISPFlagOptimized)
!1407 = !{!1408}
!1408 = !DITemplateValueParameter(name: "s", type: !107, value: i64 16)
!1409 = distinct !DICompositeType(tag: DW_TAG_structure_type, name: "char_array<16>", file: !537, line: 165, size: 128, flags: DIFlagTypePassByValue, elements: !1410, templateParams: !1415, identifier: "_ZTS10char_arrayILm16EE")
!1410 = !{!1411}
!1411 = !DIDerivedType(tag: DW_TAG_member, name: "x", scope: !1409, file: !537, line: 166, baseType: !1412, size: 128)
!1412 = !DICompositeType(tag: DW_TAG_array_type, baseType: !14, size: 128, elements: !1413)
!1413 = !{!1414}
!1414 = !DISubrange(count: 16)
!1415 = !{!1416}
!1416 = !DITemplateValueParameter(name: "S", type: !107, value: i64 16)
!1417 = !DIDerivedType(tag: DW_TAG_member, name: "n_", scope: !1391, file: !502, line: 69, baseType: !539, size: 32, offset: 64, flags: DIFlagPublic)
!1418 = !DIDerivedType(tag: DW_TAG_member, name: "capacity_", scope: !1391, file: !502, line: 70, baseType: !539, size: 32, offset: 96, flags: DIFlagPublic)
!1419 = !DISubprogram(name: "need_argument_copy", linkageName: "_ZNK13vector_memoryI18sized_array_memoryILm16EEE18need_argument_copyEPK10char_arrayILm16EE", scope: !1391, file: !502, line: 15, type: !1420, scopeLine: 15, flags: DIFlagPublic | DIFlagPrototyped, spFlags: DISPFlagOptimized)
!1420 = !DISubroutineType(types: !1421)
!1421 = !{!87, !1422, !1424}
!1422 = !DIDerivedType(tag: DW_TAG_pointer_type, baseType: !1423, size: 64, flags: DIFlagArtificial | DIFlagObjectPointer)
!1423 = !DIDerivedType(tag: DW_TAG_const_type, baseType: !1391)
!1424 = !DIDerivedType(tag: DW_TAG_pointer_type, baseType: !1425, size: 64)
!1425 = !DIDerivedType(tag: DW_TAG_const_type, baseType: !1395)
!1426 = !DISubprogram(name: "vector_memory", scope: !1391, file: !502, line: 20, type: !1427, scopeLine: 20, flags: DIFlagPublic | DIFlagPrototyped, spFlags: DISPFlagOptimized)
!1427 = !DISubroutineType(types: !1428)
!1428 = !{null, !1429}
!1429 = !DIDerivedType(tag: DW_TAG_pointer_type, baseType: !1391, size: 64, flags: DIFlagArtificial | DIFlagObjectPointer)
!1430 = !DISubprogram(name: "~vector_memory", scope: !1391, file: !502, line: 23, type: !1427, scopeLine: 23, flags: DIFlagPublic | DIFlagPrototyped, spFlags: DISPFlagOptimized)
!1431 = !DISubprogram(name: "assign", linkageName: "_ZN13vector_memoryI18sized_array_memoryILm16EEE6assignERKS2_", scope: !1391, file: !502, line: 25, type: !1432, scopeLine: 25, flags: DIFlagPublic | DIFlagPrototyped, spFlags: DISPFlagOptimized)
!1432 = !DISubroutineType(types: !1433)
!1433 = !{null, !1429, !1434}
!1434 = !DIDerivedType(tag: DW_TAG_reference_type, baseType: !1423, size: 64)
!1435 = !DISubprogram(name: "assign", linkageName: "_ZN13vector_memoryI18sized_array_memoryILm16EEE6assignEiPK10char_arrayILm16EE", scope: !1391, file: !502, line: 26, type: !1436, scopeLine: 26, flags: DIFlagPublic | DIFlagPrototyped, spFlags: DISPFlagOptimized)
!1436 = !DISubroutineType(types: !1437)
!1437 = !{null, !1429, !539, !1424}
!1438 = !DISubprogram(name: "resize", linkageName: "_ZN13vector_memoryI18sized_array_memoryILm16EEE6resizeEiPK10char_arrayILm16EE", scope: !1391, file: !502, line: 27, type: !1436, scopeLine: 27, flags: DIFlagPublic | DIFlagPrototyped, spFlags: DISPFlagOptimized)
!1439 = !DISubprogram(name: "begin", linkageName: "_ZN13vector_memoryI18sized_array_memoryILm16EEE5beginEv", scope: !1391, file: !502, line: 28, type: !1440, scopeLine: 28, flags: DIFlagPublic | DIFlagPrototyped, spFlags: DISPFlagOptimized)
!1440 = !DISubroutineType(types: !1441)
!1441 = !{!1442, !1429}
!1442 = !DIDerivedType(tag: DW_TAG_typedef, name: "iterator", scope: !1391, file: !502, line: 14, baseType: !1394)
!1443 = !DISubprogram(name: "end", linkageName: "_ZN13vector_memoryI18sized_array_memoryILm16EEE3endEv", scope: !1391, file: !502, line: 31, type: !1440, scopeLine: 31, flags: DIFlagPublic | DIFlagPrototyped, spFlags: DISPFlagOptimized)
!1444 = !DISubprogram(name: "insert", linkageName: "_ZN13vector_memoryI18sized_array_memoryILm16EEE6insertEP10char_arrayILm16EEPKS4_", scope: !1391, file: !502, line: 34, type: !1445, scopeLine: 34, flags: DIFlagPublic | DIFlagPrototyped, spFlags: DISPFlagOptimized)
!1445 = !DISubroutineType(types: !1446)
!1446 = !{!1442, !1429, !1442, !1424}
!1447 = !DISubprogram(name: "erase", linkageName: "_ZN13vector_memoryI18sized_array_memoryILm16EEE5eraseEP10char_arrayILm16EES5_", scope: !1391, file: !502, line: 35, type: !1448, scopeLine: 35, flags: DIFlagPublic | DIFlagPrototyped, spFlags: DISPFlagOptimized)
!1448 = !DISubroutineType(types: !1449)
!1449 = !{!1442, !1429, !1442, !1442}
!1450 = !DISubprogram(name: "push_back", linkageName: "_ZN13vector_memoryI18sized_array_memoryILm16EEE9push_backEPK10char_arrayILm16EE", scope: !1391, file: !502, line: 36, type: !1451, scopeLine: 36, flags: DIFlagPublic | DIFlagPrototyped, spFlags: DISPFlagOptimized)
!1451 = !DISubroutineType(types: !1452)
!1452 = !{null, !1429, !1424}
!1453 = !DISubprogram(name: "move_construct_back", linkageName: "_ZN13vector_memoryI18sized_array_memoryILm16EEE19move_construct_backEP10char_arrayILm16EE", scope: !1391, file: !502, line: 45, type: !1454, scopeLine: 45, flags: DIFlagPublic | DIFlagPrototyped, spFlags: DISPFlagOptimized)
!1454 = !DISubroutineType(types: !1455)
!1455 = !{null, !1429, !1394}
!1456 = !DISubprogram(name: "pop_back", linkageName: "_ZN13vector_memoryI18sized_array_memoryILm16EEE8pop_backEv", scope: !1391, file: !502, line: 54, type: !1427, scopeLine: 54, flags: DIFlagPublic | DIFlagPrototyped, spFlags: DISPFlagOptimized)
!1457 = !DISubprogram(name: "clear", linkageName: "_ZN13vector_memoryI18sized_array_memoryILm16EEE5clearEv", scope: !1391, file: !502, line: 60, type: !1427, scopeLine: 60, flags: DIFlagPublic | DIFlagPrototyped, spFlags: DISPFlagOptimized)
!1458 = !DISubprogram(name: "reserve_and_push_back", linkageName: "_ZN13vector_memoryI18sized_array_memoryILm16EEE21reserve_and_push_backEiPK10char_arrayILm16EE", scope: !1391, file: !502, line: 65, type: !1459, scopeLine: 65, flags: DIFlagPublic | DIFlagPrototyped, spFlags: DISPFlagOptimized)
!1459 = !DISubroutineType(types: !1460)
!1460 = !{!87, !1429, !539, !1424}
!1461 = !DISubprogram(name: "swap", linkageName: "_ZN13vector_memoryI18sized_array_memoryILm16EEE4swapERS2_", scope: !1391, file: !502, line: 66, type: !1462, scopeLine: 66, flags: DIFlagPublic | DIFlagPrototyped, spFlags: DISPFlagOptimized)
!1462 = !DISubroutineType(types: !1463)
!1463 = !{null, !1429, !1464}
!1464 = !DIDerivedType(tag: DW_TAG_reference_type, baseType: !1391, size: 64)
!1465 = !{!1466}
!1466 = !DITemplateTypeParameter(name: "AM", type: !1397)
!1467 = !DISubprogram(name: "Vector", scope: !1388, file: !502, line: 137, type: !1468, scopeLine: 137, flags: DIFlagPublic | DIFlagExplicit | DIFlagPrototyped, spFlags: DISPFlagOptimized)
!1468 = !DISubroutineType(types: !1469)
!1469 = !{null, !1470}
!1470 = !DIDerivedType(tag: DW_TAG_pointer_type, baseType: !1388, size: 64, flags: DIFlagArtificial | DIFlagObjectPointer)
!1471 = !DISubprogram(name: "Vector", scope: !1388, file: !502, line: 138, type: !1472, scopeLine: 138, flags: DIFlagPublic | DIFlagExplicit | DIFlagPrototyped, spFlags: DISPFlagOptimized)
!1472 = !DISubroutineType(types: !1473)
!1473 = !{null, !1470, !596, !1474}
!1474 = !DIDerivedType(tag: DW_TAG_typedef, name: "value_argument_type", scope: !1388, file: !502, line: 125, baseType: !1475)
!1475 = !DIDerivedType(tag: DW_TAG_typedef, name: "type", scope: !1476, file: !537, line: 150, baseType: !1524)
!1476 = distinct !DICompositeType(tag: DW_TAG_structure_type, name: "fast_argument<Router::Connection, true>", file: !537, line: 148, size: 8, flags: DIFlagTypePassByValue, elements: !1477, templateParams: !1479, identifier: "_ZTS13fast_argumentIN6Router10ConnectionELb1EE")
!1477 = !{!1478}
!1478 = !DIDerivedType(tag: DW_TAG_member, name: "is_reference", scope: !1476, file: !537, line: 149, baseType: !602, flags: DIFlagStaticMember, extraData: i1 true)
!1479 = !{!1480, !801}
!1480 = !DITemplateTypeParameter(name: "T", type: !1481)
!1481 = distinct !DICompositeType(tag: DW_TAG_structure_type, name: "Connection", scope: !427, file: !426, line: 169, size: 128, flags: DIFlagTypePassByValue | DIFlagNonTrivial, elements: !1482, identifier: "_ZTSN6Router10ConnectionE")
!1482 = !{!1483, !1505, !1509, !1512, !1517, !1521, !1525}
!1483 = !DIDerivedType(tag: DW_TAG_member, name: "p", scope: !1481, file: !426, line: 170, baseType: !1484, size: 128)
!1484 = !DICompositeType(tag: DW_TAG_array_type, baseType: !1485, size: 128, elements: !1384)
!1485 = distinct !DICompositeType(tag: DW_TAG_structure_type, name: "Port", scope: !427, file: !426, line: 145, size: 64, flags: DIFlagTypePassByValue | DIFlagNonTrivial, elements: !1486, identifier: "_ZTSN6Router4PortE")
!1486 = !{!1487, !1488, !1489, !1493, !1496, !1502, !1503, !1504}
!1487 = !DIDerivedType(tag: DW_TAG_member, name: "idx", scope: !1485, file: !426, line: 146, baseType: !23, size: 32)
!1488 = !DIDerivedType(tag: DW_TAG_member, name: "port", scope: !1485, file: !426, line: 147, baseType: !23, size: 32, offset: 32)
!1489 = !DISubprogram(name: "Port", scope: !1485, file: !426, line: 149, type: !1490, scopeLine: 149, flags: DIFlagPrototyped, spFlags: DISPFlagOptimized)
!1490 = !DISubroutineType(types: !1491)
!1491 = !{null, !1492}
!1492 = !DIDerivedType(tag: DW_TAG_pointer_type, baseType: !1485, size: 64, flags: DIFlagArtificial | DIFlagObjectPointer)
!1493 = !DISubprogram(name: "Port", scope: !1485, file: !426, line: 151, type: !1494, scopeLine: 151, flags: DIFlagPrototyped, spFlags: DISPFlagOptimized)
!1494 = !DISubroutineType(types: !1495)
!1495 = !{null, !1492, !23, !23}
!1496 = !DISubprogram(name: "operator==", linkageName: "_ZNK6Router4PorteqERKS0_", scope: !1485, file: !426, line: 155, type: !1497, scopeLine: 155, flags: DIFlagPrototyped, spFlags: DISPFlagOptimized)
!1497 = !DISubroutineType(types: !1498)
!1498 = !{!87, !1499, !1501}
!1499 = !DIDerivedType(tag: DW_TAG_pointer_type, baseType: !1500, size: 64, flags: DIFlagArtificial | DIFlagObjectPointer)
!1500 = !DIDerivedType(tag: DW_TAG_const_type, baseType: !1485)
!1501 = !DIDerivedType(tag: DW_TAG_reference_type, baseType: !1500, size: 64)
!1502 = !DISubprogram(name: "operator!=", linkageName: "_ZNK6Router4PortneERKS0_", scope: !1485, file: !426, line: 158, type: !1497, scopeLine: 158, flags: DIFlagPrototyped, spFlags: DISPFlagOptimized)
!1503 = !DISubprogram(name: "operator<", linkageName: "_ZNK6Router4PortltERKS0_", scope: !1485, file: !426, line: 161, type: !1497, scopeLine: 161, flags: DIFlagPrototyped, spFlags: DISPFlagOptimized)
!1504 = !DISubprogram(name: "operator<=", linkageName: "_ZNK6Router4PortleERKS0_", scope: !1485, file: !426, line: 164, type: !1497, scopeLine: 164, flags: DIFlagPrototyped, spFlags: DISPFlagOptimized)
!1505 = !DISubprogram(name: "Connection", scope: !1481, file: !426, line: 172, type: !1506, scopeLine: 172, flags: DIFlagPrototyped, spFlags: DISPFlagOptimized)
!1506 = !DISubroutineType(types: !1507)
!1507 = !{null, !1508}
!1508 = !DIDerivedType(tag: DW_TAG_pointer_type, baseType: !1481, size: 64, flags: DIFlagArtificial | DIFlagObjectPointer)
!1509 = !DISubprogram(name: "Connection", scope: !1481, file: !426, line: 174, type: !1510, scopeLine: 174, flags: DIFlagPrototyped, spFlags: DISPFlagOptimized)
!1510 = !DISubroutineType(types: !1511)
!1511 = !{null, !1508, !23, !23, !23, !23}
!1512 = !DISubprogram(name: "operator[]", linkageName: "_ZNK6Router10ConnectionixEi", scope: !1481, file: !426, line: 179, type: !1513, scopeLine: 179, flags: DIFlagPrototyped, spFlags: DISPFlagOptimized)
!1513 = !DISubroutineType(types: !1514)
!1514 = !{!1501, !1515, !23}
!1515 = !DIDerivedType(tag: DW_TAG_pointer_type, baseType: !1516, size: 64, flags: DIFlagArtificial | DIFlagObjectPointer)
!1516 = !DIDerivedType(tag: DW_TAG_const_type, baseType: !1481)
!1517 = !DISubprogram(name: "operator[]", linkageName: "_ZN6Router10ConnectionixEi", scope: !1481, file: !426, line: 183, type: !1518, scopeLine: 183, flags: DIFlagPrototyped, spFlags: DISPFlagOptimized)
!1518 = !DISubroutineType(types: !1519)
!1519 = !{!1520, !1508, !23}
!1520 = !DIDerivedType(tag: DW_TAG_reference_type, baseType: !1485, size: 64)
!1521 = !DISubprogram(name: "operator==", linkageName: "_ZNK6Router10ConnectioneqERKS0_", scope: !1481, file: !426, line: 188, type: !1522, scopeLine: 188, flags: DIFlagPrototyped, spFlags: DISPFlagOptimized)
!1522 = !DISubroutineType(types: !1523)
!1523 = !{!87, !1515, !1524}
!1524 = !DIDerivedType(tag: DW_TAG_reference_type, baseType: !1516, size: 64)
!1525 = !DISubprogram(name: "operator<", linkageName: "_ZNK6Router10ConnectionltERKS0_", scope: !1481, file: !426, line: 191, type: !1522, scopeLine: 191, flags: DIFlagPrototyped, spFlags: DISPFlagOptimized)
!1526 = !DISubprogram(name: "Vector", scope: !1388, file: !502, line: 139, type: !1527, scopeLine: 139, flags: DIFlagPublic | DIFlagPrototyped, spFlags: DISPFlagOptimized)
!1527 = !DISubroutineType(types: !1528)
!1528 = !{null, !1470, !1529}
!1529 = !DIDerivedType(tag: DW_TAG_reference_type, baseType: !1530, size: 64)
!1530 = !DIDerivedType(tag: DW_TAG_const_type, baseType: !1388)
!1531 = !DISubprogram(name: "Vector", scope: !1388, file: !502, line: 141, type: !1532, scopeLine: 141, flags: DIFlagPublic | DIFlagPrototyped, spFlags: DISPFlagOptimized)
!1532 = !DISubroutineType(types: !1533)
!1533 = !{null, !1470, !1534}
!1534 = !DIDerivedType(tag: DW_TAG_rvalue_reference_type, baseType: !1388, size: 64)
!1535 = !DISubprogram(name: "operator=", linkageName: "_ZN6VectorIN6Router10ConnectionEEaSERKS2_", scope: !1388, file: !502, line: 144, type: !1536, scopeLine: 144, flags: DIFlagPublic | DIFlagPrototyped, spFlags: DISPFlagOptimized)
!1536 = !DISubroutineType(types: !1537)
!1537 = !{!1538, !1470, !1529}
!1538 = !DIDerivedType(tag: DW_TAG_reference_type, baseType: !1388, size: 64)
!1539 = !DISubprogram(name: "operator=", linkageName: "_ZN6VectorIN6Router10ConnectionEEaSEOS2_", scope: !1388, file: !502, line: 146, type: !1540, scopeLine: 146, flags: DIFlagPublic | DIFlagPrototyped, spFlags: DISPFlagOptimized)
!1540 = !DISubroutineType(types: !1541)
!1541 = !{!1538, !1470, !1534}
!1542 = !DISubprogram(name: "assign", linkageName: "_ZN6VectorIN6Router10ConnectionEE6assignEiRKS1_", scope: !1388, file: !502, line: 148, type: !1543, scopeLine: 148, flags: DIFlagPublic | DIFlagPrototyped, spFlags: DISPFlagOptimized)
!1543 = !DISubroutineType(types: !1544)
!1544 = !{!1538, !1470, !596, !1474}
!1545 = !DISubprogram(name: "begin", linkageName: "_ZN6VectorIN6Router10ConnectionEE5beginEv", scope: !1388, file: !502, line: 150, type: !1546, scopeLine: 150, flags: DIFlagPublic | DIFlagPrototyped, spFlags: DISPFlagOptimized)
!1546 = !DISubroutineType(types: !1547)
!1547 = !{!1548, !1470}
!1548 = !DIDerivedType(tag: DW_TAG_typedef, name: "iterator", scope: !1388, file: !502, line: 130, baseType: !1549)
!1549 = !DIDerivedType(tag: DW_TAG_pointer_type, baseType: !1481, size: 64)
!1550 = !DISubprogram(name: "end", linkageName: "_ZN6VectorIN6Router10ConnectionEE3endEv", scope: !1388, file: !502, line: 151, type: !1546, scopeLine: 151, flags: DIFlagPublic | DIFlagPrototyped, spFlags: DISPFlagOptimized)
!1551 = !DISubprogram(name: "begin", linkageName: "_ZNK6VectorIN6Router10ConnectionEE5beginEv", scope: !1388, file: !502, line: 152, type: !1552, scopeLine: 152, flags: DIFlagPublic | DIFlagPrototyped, spFlags: DISPFlagOptimized)
!1552 = !DISubroutineType(types: !1553)
!1553 = !{!1554, !1556}
!1554 = !DIDerivedType(tag: DW_TAG_typedef, name: "const_iterator", scope: !1388, file: !502, line: 131, baseType: !1555)
!1555 = !DIDerivedType(tag: DW_TAG_pointer_type, baseType: !1516, size: 64)
!1556 = !DIDerivedType(tag: DW_TAG_pointer_type, baseType: !1530, size: 64, flags: DIFlagArtificial | DIFlagObjectPointer)
!1557 = !DISubprogram(name: "end", linkageName: "_ZNK6VectorIN6Router10ConnectionEE3endEv", scope: !1388, file: !502, line: 153, type: !1552, scopeLine: 153, flags: DIFlagPublic | DIFlagPrototyped, spFlags: DISPFlagOptimized)
!1558 = !DISubprogram(name: "cbegin", linkageName: "_ZNK6VectorIN6Router10ConnectionEE6cbeginEv", scope: !1388, file: !502, line: 154, type: !1552, scopeLine: 154, flags: DIFlagPublic | DIFlagPrototyped, spFlags: DISPFlagOptimized)
!1559 = !DISubprogram(name: "cend", linkageName: "_ZNK6VectorIN6Router10ConnectionEE4cendEv", scope: !1388, file: !502, line: 155, type: !1552, scopeLine: 155, flags: DIFlagPublic | DIFlagPrototyped, spFlags: DISPFlagOptimized)
!1560 = !DISubprogram(name: "size", linkageName: "_ZNK6VectorIN6Router10ConnectionEE4sizeEv", scope: !1388, file: !502, line: 157, type: !1561, scopeLine: 157, flags: DIFlagPublic | DIFlagPrototyped, spFlags: DISPFlagOptimized)
!1561 = !DISubroutineType(types: !1562)
!1562 = !{!596, !1556}
!1563 = !DISubprogram(name: "capacity", linkageName: "_ZNK6VectorIN6Router10ConnectionEE8capacityEv", scope: !1388, file: !502, line: 158, type: !1561, scopeLine: 158, flags: DIFlagPublic | DIFlagPrototyped, spFlags: DISPFlagOptimized)
!1564 = !DISubprogram(name: "empty", linkageName: "_ZNK6VectorIN6Router10ConnectionEE5emptyEv", scope: !1388, file: !502, line: 159, type: !1565, scopeLine: 159, flags: DIFlagPublic | DIFlagPrototyped, spFlags: DISPFlagOptimized)
!1565 = !DISubroutineType(types: !1566)
!1566 = !{!87, !1556}
!1567 = !DISubprogram(name: "resize", linkageName: "_ZN6VectorIN6Router10ConnectionEE6resizeEiRKS1_", scope: !1388, file: !502, line: 160, type: !1472, scopeLine: 160, flags: DIFlagPublic | DIFlagPrototyped, spFlags: DISPFlagOptimized)
!1568 = !DISubprogram(name: "reserve", linkageName: "_ZN6VectorIN6Router10ConnectionEE7reserveEi", scope: !1388, file: !502, line: 161, type: !1569, scopeLine: 161, flags: DIFlagPublic | DIFlagPrototyped, spFlags: DISPFlagOptimized)
!1569 = !DISubroutineType(types: !1570)
!1570 = !{!87, !1470, !596}
!1571 = !DISubprogram(name: "operator[]", linkageName: "_ZN6VectorIN6Router10ConnectionEEixEi", scope: !1388, file: !502, line: 163, type: !1572, scopeLine: 163, flags: DIFlagPublic | DIFlagPrototyped, spFlags: DISPFlagOptimized)
!1572 = !DISubroutineType(types: !1573)
!1573 = !{!1574, !1470, !596}
!1574 = !DIDerivedType(tag: DW_TAG_reference_type, baseType: !1481, size: 64)
!1575 = !DISubprogram(name: "operator[]", linkageName: "_ZNK6VectorIN6Router10ConnectionEEixEi", scope: !1388, file: !502, line: 164, type: !1576, scopeLine: 164, flags: DIFlagPublic | DIFlagPrototyped, spFlags: DISPFlagOptimized)
!1576 = !DISubroutineType(types: !1577)
!1577 = !{!1524, !1556, !596}
!1578 = !DISubprogram(name: "at", linkageName: "_ZN6VectorIN6Router10ConnectionEE2atEi", scope: !1388, file: !502, line: 165, type: !1572, scopeLine: 165, flags: DIFlagPublic | DIFlagPrototyped, spFlags: DISPFlagOptimized)
!1579 = !DISubprogram(name: "at", linkageName: "_ZNK6VectorIN6Router10ConnectionEE2atEi", scope: !1388, file: !502, line: 166, type: !1576, scopeLine: 166, flags: DIFlagPublic | DIFlagPrototyped, spFlags: DISPFlagOptimized)
!1580 = !DISubprogram(name: "front", linkageName: "_ZN6VectorIN6Router10ConnectionEE5frontEv", scope: !1388, file: !502, line: 167, type: !1581, scopeLine: 167, flags: DIFlagPublic | DIFlagPrototyped, spFlags: DISPFlagOptimized)
!1581 = !DISubroutineType(types: !1582)
!1582 = !{!1574, !1470}
!1583 = !DISubprogram(name: "front", linkageName: "_ZNK6VectorIN6Router10ConnectionEE5frontEv", scope: !1388, file: !502, line: 168, type: !1584, scopeLine: 168, flags: DIFlagPublic | DIFlagPrototyped, spFlags: DISPFlagOptimized)
!1584 = !DISubroutineType(types: !1585)
!1585 = !{!1524, !1556}
!1586 = !DISubprogram(name: "back", linkageName: "_ZN6VectorIN6Router10ConnectionEE4backEv", scope: !1388, file: !502, line: 169, type: !1581, scopeLine: 169, flags: DIFlagPublic | DIFlagPrototyped, spFlags: DISPFlagOptimized)
!1587 = !DISubprogram(name: "back", linkageName: "_ZNK6VectorIN6Router10ConnectionEE4backEv", scope: !1388, file: !502, line: 170, type: !1584, scopeLine: 170, flags: DIFlagPublic | DIFlagPrototyped, spFlags: DISPFlagOptimized)
!1588 = !DISubprogram(name: "unchecked_at", linkageName: "_ZN6VectorIN6Router10ConnectionEE12unchecked_atEi", scope: !1388, file: !502, line: 172, type: !1572, scopeLine: 172, flags: DIFlagPublic | DIFlagPrototyped, spFlags: DISPFlagOptimized)
!1589 = !DISubprogram(name: "unchecked_at", linkageName: "_ZNK6VectorIN6Router10ConnectionEE12unchecked_atEi", scope: !1388, file: !502, line: 173, type: !1576, scopeLine: 173, flags: DIFlagPublic | DIFlagPrototyped, spFlags: DISPFlagOptimized)
!1590 = !DISubprogram(name: "at_u", linkageName: "_ZN6VectorIN6Router10ConnectionEE4at_uEi", scope: !1388, file: !502, line: 174, type: !1572, scopeLine: 174, flags: DIFlagPublic | DIFlagPrototyped, spFlags: DISPFlagOptimized)
!1591 = !DISubprogram(name: "at_u", linkageName: "_ZNK6VectorIN6Router10ConnectionEE4at_uEi", scope: !1388, file: !502, line: 175, type: !1576, scopeLine: 175, flags: DIFlagPublic | DIFlagPrototyped, spFlags: DISPFlagOptimized)
!1592 = !DISubprogram(name: "data", linkageName: "_ZN6VectorIN6Router10ConnectionEE4dataEv", scope: !1388, file: !502, line: 177, type: !1593, scopeLine: 177, flags: DIFlagPublic | DIFlagPrototyped, spFlags: DISPFlagOptimized)
!1593 = !DISubroutineType(types: !1594)
!1594 = !{!1549, !1470}
!1595 = !DISubprogram(name: "data", linkageName: "_ZNK6VectorIN6Router10ConnectionEE4dataEv", scope: !1388, file: !502, line: 178, type: !1596, scopeLine: 178, flags: DIFlagPublic | DIFlagPrototyped, spFlags: DISPFlagOptimized)
!1596 = !DISubroutineType(types: !1597)
!1597 = !{!1555, !1556}
!1598 = !DISubprogram(name: "push_back", linkageName: "_ZN6VectorIN6Router10ConnectionEE9push_backERKS1_", scope: !1388, file: !502, line: 180, type: !1599, scopeLine: 180, flags: DIFlagPublic | DIFlagPrototyped, spFlags: DISPFlagOptimized)
!1599 = !DISubroutineType(types: !1600)
!1600 = !{null, !1470, !1474}
!1601 = !DISubprogram(name: "pop_back", linkageName: "_ZN6VectorIN6Router10ConnectionEE8pop_backEv", scope: !1388, file: !502, line: 185, type: !1468, scopeLine: 185, flags: DIFlagPublic | DIFlagPrototyped, spFlags: DISPFlagOptimized)
!1602 = !DISubprogram(name: "push_front", linkageName: "_ZN6VectorIN6Router10ConnectionEE10push_frontERKS1_", scope: !1388, file: !502, line: 186, type: !1599, scopeLine: 186, flags: DIFlagPublic | DIFlagPrototyped, spFlags: DISPFlagOptimized)
!1603 = !DISubprogram(name: "pop_front", linkageName: "_ZN6VectorIN6Router10ConnectionEE9pop_frontEv", scope: !1388, file: !502, line: 187, type: !1468, scopeLine: 187, flags: DIFlagPublic | DIFlagPrototyped, spFlags: DISPFlagOptimized)
!1604 = !DISubprogram(name: "insert", linkageName: "_ZN6VectorIN6Router10ConnectionEE6insertEPS1_RKS1_", scope: !1388, file: !502, line: 189, type: !1605, scopeLine: 189, flags: DIFlagPublic | DIFlagPrototyped, spFlags: DISPFlagOptimized)
!1605 = !DISubroutineType(types: !1606)
!1606 = !{!1548, !1470, !1548, !1474}
!1607 = !DISubprogram(name: "erase", linkageName: "_ZN6VectorIN6Router10ConnectionEE5eraseEPS1_", scope: !1388, file: !502, line: 190, type: !1608, scopeLine: 190, flags: DIFlagPublic | DIFlagPrototyped, spFlags: DISPFlagOptimized)
!1608 = !DISubroutineType(types: !1609)
!1609 = !{!1548, !1470, !1548}
!1610 = !DISubprogram(name: "erase", linkageName: "_ZN6VectorIN6Router10ConnectionEE5eraseEPS1_S3_", scope: !1388, file: !502, line: 191, type: !1611, scopeLine: 191, flags: DIFlagPublic | DIFlagPrototyped, spFlags: DISPFlagOptimized)
!1611 = !DISubroutineType(types: !1612)
!1612 = !{!1548, !1470, !1548, !1548}
!1613 = !DISubprogram(name: "clear", linkageName: "_ZN6VectorIN6Router10ConnectionEE5clearEv", scope: !1388, file: !502, line: 193, type: !1468, scopeLine: 193, flags: DIFlagPublic | DIFlagPrototyped, spFlags: DISPFlagOptimized)
!1614 = !DISubprogram(name: "swap", linkageName: "_ZN6VectorIN6Router10ConnectionEE4swapERS2_", scope: !1388, file: !502, line: 195, type: !1615, scopeLine: 195, flags: DIFlagPublic | DIFlagPrototyped, spFlags: DISPFlagOptimized)
!1615 = !DISubroutineType(types: !1616)
!1616 = !{null, !1470, !1538}
!1617 = !{!1480}
!1618 = !DIDerivedType(tag: DW_TAG_member, name: "_conn_output_sorter", scope: !427, file: !426, line: 259, baseType: !1073, size: 128, offset: 1728)
!1619 = !DIDerivedType(tag: DW_TAG_member, name: "_requirements", scope: !427, file: !426, line: 261, baseType: !701, size: 128, offset: 1856)
!1620 = !DIDerivedType(tag: DW_TAG_member, name: "_ehandler_first_by_element", scope: !427, file: !426, line: 263, baseType: !1073, size: 128, offset: 1984)
!1621 = !DIDerivedType(tag: DW_TAG_member, name: "_ehandler_to_handler", scope: !427, file: !426, line: 264, baseType: !1073, size: 128, offset: 2112)
!1622 = !DIDerivedType(tag: DW_TAG_member, name: "_ehandler_next", scope: !427, file: !426, line: 265, baseType: !1073, size: 128, offset: 2240)
!1623 = !DIDerivedType(tag: DW_TAG_member, name: "_handler_first_by_name", scope: !427, file: !426, line: 267, baseType: !1073, size: 128, offset: 2368)
!1624 = !DIDerivedType(tag: DW_TAG_member, name: "_handler_bufs", scope: !427, file: !426, line: 270, baseType: !1625, size: 64, offset: 2496)
!1625 = !DIDerivedType(tag: DW_TAG_pointer_type, baseType: !1626, size: 64)
!1626 = !DIDerivedType(tag: DW_TAG_pointer_type, baseType: !5, size: 64)
!1627 = !DIDerivedType(tag: DW_TAG_member, name: "_nhandlers_bufs", scope: !427, file: !426, line: 271, baseType: !23, size: 32, offset: 2560)
!1628 = !DIDerivedType(tag: DW_TAG_member, name: "_free_handler", scope: !427, file: !426, line: 272, baseType: !23, size: 32, offset: 2592)
!1629 = !DIDerivedType(tag: DW_TAG_member, name: "_attachment_names", scope: !427, file: !426, line: 274, baseType: !701, size: 128, offset: 2624)
!1630 = !DIDerivedType(tag: DW_TAG_member, name: "_attachments", scope: !427, file: !426, line: 275, baseType: !1631, size: 128, offset: 2752)
!1631 = distinct !DICompositeType(tag: DW_TAG_class_type, name: "Vector<void *>", file: !502, line: 111, size: 128, flags: DIFlagTypePassByReference | DIFlagNonTrivial, elements: !1632, templateParams: !1741, identifier: "_ZTS6VectorIPvE")
!1632 = !{!1633, !1634, !1638, !1648, !1653, !1657, !1661, !1664, !1667, !1672, !1673, !1680, !1681, !1682, !1683, !1686, !1687, !1690, !1691, !1694, !1698, !1702, !1703, !1704, !1707, !1710, !1711, !1712, !1713, !1714, !1715, !1716, !1719, !1722, !1725, !1726, !1727, !1728, !1731, !1734, !1737, !1738}
!1633 = !DIDerivedType(tag: DW_TAG_member, name: "vm_", scope: !1631, file: !502, line: 114, baseType: !505, size: 128)
!1634 = !DISubprogram(name: "Vector", scope: !1631, file: !502, line: 137, type: !1635, scopeLine: 137, flags: DIFlagPublic | DIFlagExplicit | DIFlagPrototyped, spFlags: DISPFlagOptimized)
!1635 = !DISubroutineType(types: !1636)
!1636 = !{null, !1637}
!1637 = !DIDerivedType(tag: DW_TAG_pointer_type, baseType: !1631, size: 64, flags: DIFlagArtificial | DIFlagObjectPointer)
!1638 = !DISubprogram(name: "Vector", scope: !1631, file: !502, line: 138, type: !1639, scopeLine: 138, flags: DIFlagPublic | DIFlagExplicit | DIFlagPrototyped, spFlags: DISPFlagOptimized)
!1639 = !DISubroutineType(types: !1640)
!1640 = !{null, !1637, !596, !1641}
!1641 = !DIDerivedType(tag: DW_TAG_typedef, name: "value_argument_type", scope: !1631, file: !502, line: 125, baseType: !1642)
!1642 = !DIDerivedType(tag: DW_TAG_typedef, name: "type", scope: !1643, file: !537, line: 157, baseType: !339)
!1643 = distinct !DICompositeType(tag: DW_TAG_structure_type, name: "fast_argument<void *, false>", file: !537, line: 155, size: 8, flags: DIFlagTypePassByValue, elements: !1644, templateParams: !1646, identifier: "_ZTS13fast_argumentIPvLb0EE")
!1644 = !{!1645}
!1645 = !DIDerivedType(tag: DW_TAG_member, name: "is_reference", scope: !1643, file: !537, line: 156, baseType: !602, flags: DIFlagStaticMember, extraData: i1 false)
!1646 = !{!1647, !605}
!1647 = !DITemplateTypeParameter(name: "T", type: !339)
!1648 = !DISubprogram(name: "Vector", scope: !1631, file: !502, line: 139, type: !1649, scopeLine: 139, flags: DIFlagPublic | DIFlagPrototyped, spFlags: DISPFlagOptimized)
!1649 = !DISubroutineType(types: !1650)
!1650 = !{null, !1637, !1651}
!1651 = !DIDerivedType(tag: DW_TAG_reference_type, baseType: !1652, size: 64)
!1652 = !DIDerivedType(tag: DW_TAG_const_type, baseType: !1631)
!1653 = !DISubprogram(name: "Vector", scope: !1631, file: !502, line: 141, type: !1654, scopeLine: 141, flags: DIFlagPublic | DIFlagPrototyped, spFlags: DISPFlagOptimized)
!1654 = !DISubroutineType(types: !1655)
!1655 = !{null, !1637, !1656}
!1656 = !DIDerivedType(tag: DW_TAG_rvalue_reference_type, baseType: !1631, size: 64)
!1657 = !DISubprogram(name: "operator=", linkageName: "_ZN6VectorIPvEaSERKS1_", scope: !1631, file: !502, line: 144, type: !1658, scopeLine: 144, flags: DIFlagPublic | DIFlagPrototyped, spFlags: DISPFlagOptimized)
!1658 = !DISubroutineType(types: !1659)
!1659 = !{!1660, !1637, !1651}
!1660 = !DIDerivedType(tag: DW_TAG_reference_type, baseType: !1631, size: 64)
!1661 = !DISubprogram(name: "operator=", linkageName: "_ZN6VectorIPvEaSEOS1_", scope: !1631, file: !502, line: 146, type: !1662, scopeLine: 146, flags: DIFlagPublic | DIFlagPrototyped, spFlags: DISPFlagOptimized)
!1662 = !DISubroutineType(types: !1663)
!1663 = !{!1660, !1637, !1656}
!1664 = !DISubprogram(name: "assign", linkageName: "_ZN6VectorIPvE6assignEiS0_", scope: !1631, file: !502, line: 148, type: !1665, scopeLine: 148, flags: DIFlagPublic | DIFlagPrototyped, spFlags: DISPFlagOptimized)
!1665 = !DISubroutineType(types: !1666)
!1666 = !{!1660, !1637, !596, !1641}
!1667 = !DISubprogram(name: "begin", linkageName: "_ZN6VectorIPvE5beginEv", scope: !1631, file: !502, line: 150, type: !1668, scopeLine: 150, flags: DIFlagPublic | DIFlagPrototyped, spFlags: DISPFlagOptimized)
!1668 = !DISubroutineType(types: !1669)
!1669 = !{!1670, !1637}
!1670 = !DIDerivedType(tag: DW_TAG_typedef, name: "iterator", scope: !1631, file: !502, line: 130, baseType: !1671)
!1671 = !DIDerivedType(tag: DW_TAG_pointer_type, baseType: !339, size: 64)
!1672 = !DISubprogram(name: "end", linkageName: "_ZN6VectorIPvE3endEv", scope: !1631, file: !502, line: 151, type: !1668, scopeLine: 151, flags: DIFlagPublic | DIFlagPrototyped, spFlags: DISPFlagOptimized)
!1673 = !DISubprogram(name: "begin", linkageName: "_ZNK6VectorIPvE5beginEv", scope: !1631, file: !502, line: 152, type: !1674, scopeLine: 152, flags: DIFlagPublic | DIFlagPrototyped, spFlags: DISPFlagOptimized)
!1674 = !DISubroutineType(types: !1675)
!1675 = !{!1676, !1679}
!1676 = !DIDerivedType(tag: DW_TAG_typedef, name: "const_iterator", scope: !1631, file: !502, line: 131, baseType: !1677)
!1677 = !DIDerivedType(tag: DW_TAG_pointer_type, baseType: !1678, size: 64)
!1678 = !DIDerivedType(tag: DW_TAG_const_type, baseType: !339)
!1679 = !DIDerivedType(tag: DW_TAG_pointer_type, baseType: !1652, size: 64, flags: DIFlagArtificial | DIFlagObjectPointer)
!1680 = !DISubprogram(name: "end", linkageName: "_ZNK6VectorIPvE3endEv", scope: !1631, file: !502, line: 153, type: !1674, scopeLine: 153, flags: DIFlagPublic | DIFlagPrototyped, spFlags: DISPFlagOptimized)
!1681 = !DISubprogram(name: "cbegin", linkageName: "_ZNK6VectorIPvE6cbeginEv", scope: !1631, file: !502, line: 154, type: !1674, scopeLine: 154, flags: DIFlagPublic | DIFlagPrototyped, spFlags: DISPFlagOptimized)
!1682 = !DISubprogram(name: "cend", linkageName: "_ZNK6VectorIPvE4cendEv", scope: !1631, file: !502, line: 155, type: !1674, scopeLine: 155, flags: DIFlagPublic | DIFlagPrototyped, spFlags: DISPFlagOptimized)
!1683 = !DISubprogram(name: "size", linkageName: "_ZNK6VectorIPvE4sizeEv", scope: !1631, file: !502, line: 157, type: !1684, scopeLine: 157, flags: DIFlagPublic | DIFlagPrototyped, spFlags: DISPFlagOptimized)
!1684 = !DISubroutineType(types: !1685)
!1685 = !{!596, !1679}
!1686 = !DISubprogram(name: "capacity", linkageName: "_ZNK6VectorIPvE8capacityEv", scope: !1631, file: !502, line: 158, type: !1684, scopeLine: 158, flags: DIFlagPublic | DIFlagPrototyped, spFlags: DISPFlagOptimized)
!1687 = !DISubprogram(name: "empty", linkageName: "_ZNK6VectorIPvE5emptyEv", scope: !1631, file: !502, line: 159, type: !1688, scopeLine: 159, flags: DIFlagPublic | DIFlagPrototyped, spFlags: DISPFlagOptimized)
!1688 = !DISubroutineType(types: !1689)
!1689 = !{!87, !1679}
!1690 = !DISubprogram(name: "resize", linkageName: "_ZN6VectorIPvE6resizeEiS0_", scope: !1631, file: !502, line: 160, type: !1639, scopeLine: 160, flags: DIFlagPublic | DIFlagPrototyped, spFlags: DISPFlagOptimized)
!1691 = !DISubprogram(name: "reserve", linkageName: "_ZN6VectorIPvE7reserveEi", scope: !1631, file: !502, line: 161, type: !1692, scopeLine: 161, flags: DIFlagPublic | DIFlagPrototyped, spFlags: DISPFlagOptimized)
!1692 = !DISubroutineType(types: !1693)
!1693 = !{!87, !1637, !596}
!1694 = !DISubprogram(name: "operator[]", linkageName: "_ZN6VectorIPvEixEi", scope: !1631, file: !502, line: 163, type: !1695, scopeLine: 163, flags: DIFlagPublic | DIFlagPrototyped, spFlags: DISPFlagOptimized)
!1695 = !DISubroutineType(types: !1696)
!1696 = !{!1697, !1637, !596}
!1697 = !DIDerivedType(tag: DW_TAG_reference_type, baseType: !339, size: 64)
!1698 = !DISubprogram(name: "operator[]", linkageName: "_ZNK6VectorIPvEixEi", scope: !1631, file: !502, line: 164, type: !1699, scopeLine: 164, flags: DIFlagPublic | DIFlagPrototyped, spFlags: DISPFlagOptimized)
!1699 = !DISubroutineType(types: !1700)
!1700 = !{!1701, !1679, !596}
!1701 = !DIDerivedType(tag: DW_TAG_reference_type, baseType: !1678, size: 64)
!1702 = !DISubprogram(name: "at", linkageName: "_ZN6VectorIPvE2atEi", scope: !1631, file: !502, line: 165, type: !1695, scopeLine: 165, flags: DIFlagPublic | DIFlagPrototyped, spFlags: DISPFlagOptimized)
!1703 = !DISubprogram(name: "at", linkageName: "_ZNK6VectorIPvE2atEi", scope: !1631, file: !502, line: 166, type: !1699, scopeLine: 166, flags: DIFlagPublic | DIFlagPrototyped, spFlags: DISPFlagOptimized)
!1704 = !DISubprogram(name: "front", linkageName: "_ZN6VectorIPvE5frontEv", scope: !1631, file: !502, line: 167, type: !1705, scopeLine: 167, flags: DIFlagPublic | DIFlagPrototyped, spFlags: DISPFlagOptimized)
!1705 = !DISubroutineType(types: !1706)
!1706 = !{!1697, !1637}
!1707 = !DISubprogram(name: "front", linkageName: "_ZNK6VectorIPvE5frontEv", scope: !1631, file: !502, line: 168, type: !1708, scopeLine: 168, flags: DIFlagPublic | DIFlagPrototyped, spFlags: DISPFlagOptimized)
!1708 = !DISubroutineType(types: !1709)
!1709 = !{!1701, !1679}
!1710 = !DISubprogram(name: "back", linkageName: "_ZN6VectorIPvE4backEv", scope: !1631, file: !502, line: 169, type: !1705, scopeLine: 169, flags: DIFlagPublic | DIFlagPrototyped, spFlags: DISPFlagOptimized)
!1711 = !DISubprogram(name: "back", linkageName: "_ZNK6VectorIPvE4backEv", scope: !1631, file: !502, line: 170, type: !1708, scopeLine: 170, flags: DIFlagPublic | DIFlagPrototyped, spFlags: DISPFlagOptimized)
!1712 = !DISubprogram(name: "unchecked_at", linkageName: "_ZN6VectorIPvE12unchecked_atEi", scope: !1631, file: !502, line: 172, type: !1695, scopeLine: 172, flags: DIFlagPublic | DIFlagPrototyped, spFlags: DISPFlagOptimized)
!1713 = !DISubprogram(name: "unchecked_at", linkageName: "_ZNK6VectorIPvE12unchecked_atEi", scope: !1631, file: !502, line: 173, type: !1699, scopeLine: 173, flags: DIFlagPublic | DIFlagPrototyped, spFlags: DISPFlagOptimized)
!1714 = !DISubprogram(name: "at_u", linkageName: "_ZN6VectorIPvE4at_uEi", scope: !1631, file: !502, line: 174, type: !1695, scopeLine: 174, flags: DIFlagPublic | DIFlagPrototyped, spFlags: DISPFlagOptimized)
!1715 = !DISubprogram(name: "at_u", linkageName: "_ZNK6VectorIPvE4at_uEi", scope: !1631, file: !502, line: 175, type: !1699, scopeLine: 175, flags: DIFlagPublic | DIFlagPrototyped, spFlags: DISPFlagOptimized)
!1716 = !DISubprogram(name: "data", linkageName: "_ZN6VectorIPvE4dataEv", scope: !1631, file: !502, line: 177, type: !1717, scopeLine: 177, flags: DIFlagPublic | DIFlagPrototyped, spFlags: DISPFlagOptimized)
!1717 = !DISubroutineType(types: !1718)
!1718 = !{!1671, !1637}
!1719 = !DISubprogram(name: "data", linkageName: "_ZNK6VectorIPvE4dataEv", scope: !1631, file: !502, line: 178, type: !1720, scopeLine: 178, flags: DIFlagPublic | DIFlagPrototyped, spFlags: DISPFlagOptimized)
!1720 = !DISubroutineType(types: !1721)
!1721 = !{!1677, !1679}
!1722 = !DISubprogram(name: "push_back", linkageName: "_ZN6VectorIPvE9push_backES0_", scope: !1631, file: !502, line: 180, type: !1723, scopeLine: 180, flags: DIFlagPublic | DIFlagPrototyped, spFlags: DISPFlagOptimized)
!1723 = !DISubroutineType(types: !1724)
!1724 = !{null, !1637, !1641}
!1725 = !DISubprogram(name: "pop_back", linkageName: "_ZN6VectorIPvE8pop_backEv", scope: !1631, file: !502, line: 185, type: !1635, scopeLine: 185, flags: DIFlagPublic | DIFlagPrototyped, spFlags: DISPFlagOptimized)
!1726 = !DISubprogram(name: "push_front", linkageName: "_ZN6VectorIPvE10push_frontES0_", scope: !1631, file: !502, line: 186, type: !1723, scopeLine: 186, flags: DIFlagPublic | DIFlagPrototyped, spFlags: DISPFlagOptimized)
!1727 = !DISubprogram(name: "pop_front", linkageName: "_ZN6VectorIPvE9pop_frontEv", scope: !1631, file: !502, line: 187, type: !1635, scopeLine: 187, flags: DIFlagPublic | DIFlagPrototyped, spFlags: DISPFlagOptimized)
!1728 = !DISubprogram(name: "insert", linkageName: "_ZN6VectorIPvE6insertEPS0_S0_", scope: !1631, file: !502, line: 189, type: !1729, scopeLine: 189, flags: DIFlagPublic | DIFlagPrototyped, spFlags: DISPFlagOptimized)
!1729 = !DISubroutineType(types: !1730)
!1730 = !{!1670, !1637, !1670, !1641}
!1731 = !DISubprogram(name: "erase", linkageName: "_ZN6VectorIPvE5eraseEPS0_", scope: !1631, file: !502, line: 190, type: !1732, scopeLine: 190, flags: DIFlagPublic | DIFlagPrototyped, spFlags: DISPFlagOptimized)
!1732 = !DISubroutineType(types: !1733)
!1733 = !{!1670, !1637, !1670}
!1734 = !DISubprogram(name: "erase", linkageName: "_ZN6VectorIPvE5eraseEPS0_S2_", scope: !1631, file: !502, line: 191, type: !1735, scopeLine: 191, flags: DIFlagPublic | DIFlagPrototyped, spFlags: DISPFlagOptimized)
!1735 = !DISubroutineType(types: !1736)
!1736 = !{!1670, !1637, !1670, !1670}
!1737 = !DISubprogram(name: "clear", linkageName: "_ZN6VectorIPvE5clearEv", scope: !1631, file: !502, line: 193, type: !1635, scopeLine: 193, flags: DIFlagPublic | DIFlagPrototyped, spFlags: DISPFlagOptimized)
!1738 = !DISubprogram(name: "swap", linkageName: "_ZN6VectorIPvE4swapERS1_", scope: !1631, file: !502, line: 195, type: !1739, scopeLine: 195, flags: DIFlagPublic | DIFlagPrototyped, spFlags: DISPFlagOptimized)
!1739 = !DISubroutineType(types: !1740)
!1740 = !{null, !1637, !1660}
!1741 = !{!1647}
!1742 = !DIDerivedType(tag: DW_TAG_member, name: "_root_element", scope: !427, file: !426, line: 277, baseType: !326, size: 64, offset: 2880)
!1743 = !DIDerivedType(tag: DW_TAG_member, name: "_configuration", scope: !427, file: !426, line: 278, baseType: !8, size: 192, offset: 2944)
!1744 = !DIDerivedType(tag: DW_TAG_member, name: "_notifier_signals", scope: !427, file: !426, line: 291, baseType: !1745, size: 64, offset: 3136)
!1745 = !DIDerivedType(tag: DW_TAG_pointer_type, baseType: !1746, size: 64)
!1746 = !DICompositeType(tag: DW_TAG_structure_type, name: "notifier_signals_t", scope: !427, file: !426, line: 280, flags: DIFlagFwdDecl, identifier: "_ZTSN6Router18notifier_signals_tE")
!1747 = !DIDerivedType(tag: DW_TAG_member, name: "_arena_factory", scope: !427, file: !426, line: 292, baseType: !1748, size: 64, offset: 3200)
!1748 = !DIDerivedType(tag: DW_TAG_pointer_type, baseType: !1749, size: 64)
!1749 = !DICompositeType(tag: DW_TAG_class_type, name: "HashMap_ArenaFactory", file: !426, line: 17, flags: DIFlagFwdDecl, identifier: "_ZTS20HashMap_ArenaFactory")
!1750 = !DIDerivedType(tag: DW_TAG_member, name: "_hotswap_router", scope: !427, file: !426, line: 293, baseType: !1751, size: 64, offset: 3264)
!1751 = !DIDerivedType(tag: DW_TAG_pointer_type, baseType: !427, size: 64)
!1752 = !DIDerivedType(tag: DW_TAG_member, name: "_thread_sched", scope: !427, file: !426, line: 294, baseType: !1753, size: 64, offset: 3328)
!1753 = !DIDerivedType(tag: DW_TAG_pointer_type, baseType: !1754, size: 64)
!1754 = !DICompositeType(tag: DW_TAG_class_type, name: "ThreadSched", file: !1755, line: 6, flags: DIFlagFwdDecl, identifier: "_ZTS11ThreadSched")
!1755 = !DIFile(filename: "../dummy_inc/click/standard/threadsched.hh", directory: "/home/john/projects/click/ir-dir")
!1756 = !DIDerivedType(tag: DW_TAG_member, name: "_name_info", scope: !427, file: !426, line: 295, baseType: !1757, size: 64, offset: 3392)
!1757 = !DIDerivedType(tag: DW_TAG_pointer_type, baseType: !1758, size: 64)
!1758 = !DICompositeType(tag: DW_TAG_class_type, name: "NameInfo", file: !426, line: 21, flags: DIFlagFwdDecl, identifier: "_ZTS8NameInfo")
!1759 = !DIDerivedType(tag: DW_TAG_member, name: "_flow_code_override_eindex", scope: !427, file: !426, line: 296, baseType: !1073, size: 128, offset: 3456)
!1760 = !DIDerivedType(tag: DW_TAG_member, name: "_flow_code_override", scope: !427, file: !426, line: 297, baseType: !701, size: 128, offset: 3584)
!1761 = !DIDerivedType(tag: DW_TAG_member, name: "_next_router", scope: !427, file: !426, line: 299, baseType: !1751, size: 64, offset: 3712)
!1762 = !DISubprogram(name: "master", linkageName: "_ZNK6Router6masterEv", scope: !427, file: !426, line: 28, type: !1763, scopeLine: 28, flags: DIFlagPublic | DIFlagPrototyped, spFlags: DISPFlagOptimized)
!1763 = !DISubroutineType(types: !1764)
!1764 = !{!430, !1765}
!1765 = !DIDerivedType(tag: DW_TAG_pointer_type, baseType: !1766, size: 64, flags: DIFlagArtificial | DIFlagObjectPointer)
!1766 = !DIDerivedType(tag: DW_TAG_const_type, baseType: !427)
!1767 = !DISubprogram(name: "initialized", linkageName: "_ZNK6Router11initializedEv", scope: !427, file: !426, line: 31, type: !1768, scopeLine: 31, flags: DIFlagPublic | DIFlagPrototyped, spFlags: DISPFlagOptimized)
!1768 = !DISubroutineType(types: !1769)
!1769 = !{!87, !1765}
!1770 = !DISubprogram(name: "handlers_ready", linkageName: "_ZNK6Router14handlers_readyEv", scope: !427, file: !426, line: 32, type: !1768, scopeLine: 32, flags: DIFlagPublic | DIFlagPrototyped, spFlags: DISPFlagOptimized)
!1771 = !DISubprogram(name: "running", linkageName: "_ZNK6Router7runningEv", scope: !427, file: !426, line: 33, type: !1768, scopeLine: 33, flags: DIFlagPublic | DIFlagPrototyped, spFlags: DISPFlagOptimized)
!1772 = !DISubprogram(name: "dying", linkageName: "_ZNK6Router5dyingEv", scope: !427, file: !426, line: 34, type: !1768, scopeLine: 34, flags: DIFlagPublic | DIFlagPrototyped, spFlags: DISPFlagOptimized)
!1773 = !DISubprogram(name: "runcount", linkageName: "_ZNK6Router8runcountEv", scope: !427, file: !426, line: 38, type: !1774, scopeLine: 38, flags: DIFlagPublic | DIFlagPrototyped, spFlags: DISPFlagOptimized)
!1774 = !DISubroutineType(types: !1775)
!1775 = !{!451, !1765}
!1776 = !DISubprogram(name: "adjust_runcount", linkageName: "_ZN6Router15adjust_runcountEi", scope: !427, file: !426, line: 39, type: !1777, scopeLine: 39, flags: DIFlagPublic | DIFlagPrototyped, spFlags: DISPFlagOptimized)
!1777 = !DISubroutineType(types: !1778)
!1778 = !{null, !1779, !451}
!1779 = !DIDerivedType(tag: DW_TAG_pointer_type, baseType: !427, size: 64, flags: DIFlagArtificial | DIFlagObjectPointer)
!1780 = !DISubprogram(name: "set_runcount", linkageName: "_ZN6Router12set_runcountEi", scope: !427, file: !426, line: 40, type: !1777, scopeLine: 40, flags: DIFlagPublic | DIFlagPrototyped, spFlags: DISPFlagOptimized)
!1781 = !DISubprogram(name: "please_stop_driver", linkageName: "_ZN6Router18please_stop_driverEv", scope: !427, file: !426, line: 41, type: !1782, scopeLine: 41, flags: DIFlagPublic | DIFlagPrototyped, spFlags: DISPFlagOptimized)
!1782 = !DISubroutineType(types: !1783)
!1783 = !{null, !1779}
!1784 = !DISubprogram(name: "elements", linkageName: "_ZNK6Router8elementsEv", scope: !427, file: !426, line: 44, type: !1785, scopeLine: 44, flags: DIFlagPublic | DIFlagPrototyped, spFlags: DISPFlagOptimized)
!1785 = !DISubroutineType(types: !1786)
!1786 = !{!609, !1765}
!1787 = !DISubprogram(name: "nelements", linkageName: "_ZNK6Router9nelementsEv", scope: !427, file: !426, line: 45, type: !1788, scopeLine: 45, flags: DIFlagPublic | DIFlagPrototyped, spFlags: DISPFlagOptimized)
!1788 = !DISubroutineType(types: !1789)
!1789 = !{!23, !1765}
!1790 = !DISubprogram(name: "element", linkageName: "_ZNK6Router7elementEi", scope: !427, file: !426, line: 46, type: !1791, scopeLine: 46, flags: DIFlagPublic | DIFlagPrototyped, spFlags: DISPFlagOptimized)
!1791 = !DISubroutineType(types: !1792)
!1792 = !{!326, !1765, !23}
!1793 = !DISubprogram(name: "root_element", linkageName: "_ZNK6Router12root_elementEv", scope: !427, file: !426, line: 47, type: !1794, scopeLine: 47, flags: DIFlagPublic | DIFlagPrototyped, spFlags: DISPFlagOptimized)
!1794 = !DISubroutineType(types: !1795)
!1795 = !{!326, !1765}
!1796 = !DISubprogram(name: "element", linkageName: "_ZN6Router7elementEPKS_i", scope: !427, file: !426, line: 48, type: !1797, scopeLine: 48, flags: DIFlagPublic | DIFlagPrototyped | DIFlagStaticMember, spFlags: DISPFlagOptimized)
!1797 = !DISubroutineType(types: !1798)
!1798 = !{!326, !1799, !23}
!1799 = !DIDerivedType(tag: DW_TAG_pointer_type, baseType: !1766, size: 64)
!1800 = !DISubprogram(name: "ename", linkageName: "_ZNK6Router5enameEi", scope: !427, file: !426, line: 50, type: !1801, scopeLine: 50, flags: DIFlagPublic | DIFlagPrototyped, spFlags: DISPFlagOptimized)
!1801 = !DISubroutineType(types: !1802)
!1802 = !{!60, !1765, !23}
!1803 = !DISubprogram(name: "ename_context", linkageName: "_ZNK6Router13ename_contextEi", scope: !427, file: !426, line: 51, type: !1804, scopeLine: 51, flags: DIFlagPublic | DIFlagPrototyped, spFlags: DISPFlagOptimized)
!1804 = !DISubroutineType(types: !1805)
!1805 = !{!8, !1765, !23}
!1806 = !DISubprogram(name: "elandmark", linkageName: "_ZNK6Router9elandmarkEi", scope: !427, file: !426, line: 52, type: !1804, scopeLine: 52, flags: DIFlagPublic | DIFlagPrototyped, spFlags: DISPFlagOptimized)
!1807 = !DISubprogram(name: "econfiguration", linkageName: "_ZNK6Router14econfigurationEi", scope: !427, file: !426, line: 53, type: !1801, scopeLine: 53, flags: DIFlagPublic | DIFlagPrototyped, spFlags: DISPFlagOptimized)
!1808 = !DISubprogram(name: "set_econfiguration", linkageName: "_ZN6Router18set_econfigurationEiRK6String", scope: !427, file: !426, line: 54, type: !1809, scopeLine: 54, flags: DIFlagPublic | DIFlagPrototyped, spFlags: DISPFlagOptimized)
!1809 = !DISubroutineType(types: !1810)
!1810 = !{null, !1779, !23, !60}
!1811 = !DISubprogram(name: "find", linkageName: "_ZNK6Router4findERK6StringP12ErrorHandler", scope: !427, file: !426, line: 56, type: !1812, scopeLine: 56, flags: DIFlagPublic | DIFlagPrototyped, spFlags: DISPFlagOptimized)
!1812 = !DISubroutineType(types: !1813)
!1813 = !{!326, !1765, !60, !331}
!1814 = !DISubprogram(name: "find", linkageName: "_ZNK6Router4findERK6StringS0_P12ErrorHandler", scope: !427, file: !426, line: 57, type: !1815, scopeLine: 57, flags: DIFlagPublic | DIFlagPrototyped, spFlags: DISPFlagOptimized)
!1815 = !DISubroutineType(types: !1816)
!1816 = !{!326, !1765, !60, !8, !331}
!1817 = !DISubprogram(name: "find", linkageName: "_ZNK6Router4findERK6StringPK7ElementP12ErrorHandler", scope: !427, file: !426, line: 58, type: !1818, scopeLine: 58, flags: DIFlagPublic | DIFlagPrototyped, spFlags: DISPFlagOptimized)
!1818 = !DISubroutineType(types: !1819)
!1819 = !{!326, !1765, !60, !1820, !331}
!1820 = !DIDerivedType(tag: DW_TAG_pointer_type, baseType: !1821, size: 64)
!1821 = !DIDerivedType(tag: DW_TAG_const_type, baseType: !327)
!1822 = !DISubprogram(name: "visit", linkageName: "_ZNK6Router5visitEP7ElementbiP13RouterVisitor", scope: !427, file: !426, line: 60, type: !1823, scopeLine: 60, flags: DIFlagPublic | DIFlagPrototyped, spFlags: DISPFlagOptimized)
!1823 = !DISubroutineType(types: !1824)
!1824 = !{!23, !1765, !326, !87, !23, !1825}
!1825 = !DIDerivedType(tag: DW_TAG_pointer_type, baseType: !1826, size: 64)
!1826 = !DICompositeType(tag: DW_TAG_class_type, name: "RouterVisitor", file: !426, line: 15, flags: DIFlagFwdDecl, identifier: "_ZTS13RouterVisitor")
!1827 = !DISubprogram(name: "visit_downstream", linkageName: "_ZNK6Router16visit_downstreamEP7ElementiP13RouterVisitor", scope: !427, file: !426, line: 61, type: !1828, scopeLine: 61, flags: DIFlagPublic | DIFlagPrototyped, spFlags: DISPFlagOptimized)
!1828 = !DISubroutineType(types: !1829)
!1829 = !{!23, !1765, !326, !23, !1825}
!1830 = !DISubprogram(name: "visit_upstream", linkageName: "_ZNK6Router14visit_upstreamEP7ElementiP13RouterVisitor", scope: !427, file: !426, line: 62, type: !1828, scopeLine: 62, flags: DIFlagPublic | DIFlagPrototyped, spFlags: DISPFlagOptimized)
!1831 = !DISubprogram(name: "downstream_elements", linkageName: "_ZN6Router19downstream_elementsEP7ElementiP13ElementFilterR6VectorIS1_E", scope: !427, file: !426, line: 64, type: !1832, scopeLine: 64, flags: DIFlagPublic | DIFlagPrototyped, spFlags: DISPFlagOptimized)
!1832 = !DISubroutineType(types: !1833)
!1833 = !{!23, !1779, !326, !23, !1834, !618}
!1834 = !DIDerivedType(tag: DW_TAG_pointer_type, baseType: !1835, size: 64)
!1835 = !DICompositeType(tag: DW_TAG_class_type, name: "ElementFilter", file: !426, line: 14, flags: DIFlagFwdDecl, identifier: "_ZTS13ElementFilter")
!1836 = !DISubprogram(name: "upstream_elements", linkageName: "_ZN6Router17upstream_elementsEP7ElementiP13ElementFilterR6VectorIS1_E", scope: !427, file: !426, line: 65, type: !1832, scopeLine: 65, flags: DIFlagPublic | DIFlagPrototyped, spFlags: DISPFlagOptimized)
!1837 = !DISubprogram(name: "flow_code_override", linkageName: "_ZNK6Router18flow_code_overrideEi", scope: !427, file: !426, line: 67, type: !1838, scopeLine: 67, flags: DIFlagPublic | DIFlagPrototyped, spFlags: DISPFlagOptimized)
!1838 = !DISubroutineType(types: !1839)
!1839 = !{!21, !1765, !23}
!1840 = !DISubprogram(name: "set_flow_code_override", linkageName: "_ZN6Router22set_flow_code_overrideEiRK6String", scope: !427, file: !426, line: 68, type: !1809, scopeLine: 68, flags: DIFlagPublic | DIFlagPrototyped, spFlags: DISPFlagOptimized)
!1841 = !DISubprogram(name: "handler", linkageName: "_ZN6Router7handlerEPK7ElementRK6String", scope: !427, file: !426, line: 72, type: !1842, scopeLine: 72, flags: DIFlagPublic | DIFlagPrototyped | DIFlagStaticMember, spFlags: DISPFlagOptimized)
!1842 = !DISubroutineType(types: !1843)
!1843 = !{!329, !1820, !60}
!1844 = !DISubprogram(name: "add_read_handler", linkageName: "_ZN6Router16add_read_handlerEPK7ElementRK6StringPFS3_PS0_PvES7_j", scope: !427, file: !426, line: 73, type: !1845, scopeLine: 73, flags: DIFlagPublic | DIFlagPrototyped | DIFlagStaticMember, spFlags: DISPFlagOptimized)
!1845 = !DISubroutineType(types: !1846)
!1846 = !{null, !1820, !60, !335, !339, !30}
!1847 = !DISubprogram(name: "add_write_handler", linkageName: "_ZN6Router17add_write_handlerEPK7ElementRK6StringPFiS5_PS0_PvP12ErrorHandlerES7_j", scope: !427, file: !426, line: 74, type: !1848, scopeLine: 74, flags: DIFlagPublic | DIFlagPrototyped | DIFlagStaticMember, spFlags: DISPFlagOptimized)
!1848 = !DISubroutineType(types: !1849)
!1849 = !{null, !1820, !60, !345, !339, !30}
!1850 = !DISubprogram(name: "set_handler", linkageName: "_ZN6Router11set_handlerEPK7ElementRK6StringjPFiiRS3_PS0_PK7HandlerP12ErrorHandlerEPvSF_", scope: !427, file: !426, line: 75, type: !1851, scopeLine: 75, flags: DIFlagPublic | DIFlagPrototyped | DIFlagStaticMember, spFlags: DISPFlagOptimized)
!1851 = !DISubroutineType(types: !1852)
!1852 = !{null, !1820, !60, !30, !322, !339, !339}
!1853 = !DISubprogram(name: "set_handler_flags", linkageName: "_ZN6Router17set_handler_flagsEPK7ElementRK6Stringjj", scope: !427, file: !426, line: 76, type: !1854, scopeLine: 76, flags: DIFlagPublic | DIFlagPrototyped | DIFlagStaticMember, spFlags: DISPFlagOptimized)
!1854 = !DISubroutineType(types: !1855)
!1855 = !{!23, !1820, !60, !30, !30}
!1856 = !DISubprogram(name: "hindex", linkageName: "_ZN6Router6hindexEPK7ElementRK6String", scope: !427, file: !426, line: 79, type: !1857, scopeLine: 79, flags: DIFlagPublic | DIFlagPrototyped | DIFlagStaticMember, spFlags: DISPFlagOptimized)
!1857 = !DISubroutineType(types: !1858)
!1858 = !{!23, !1820, !60}
!1859 = !DISubprogram(name: "handler", linkageName: "_ZN6Router7handlerEPKS_i", scope: !427, file: !426, line: 80, type: !1860, scopeLine: 80, flags: DIFlagPublic | DIFlagPrototyped | DIFlagStaticMember, spFlags: DISPFlagOptimized)
!1860 = !DISubroutineType(types: !1861)
!1861 = !{!329, !1799, !23}
!1862 = !DISubprogram(name: "element_hindexes", linkageName: "_ZN6Router16element_hindexesEPK7ElementR6VectorIiE", scope: !427, file: !426, line: 81, type: !1863, scopeLine: 81, flags: DIFlagPublic | DIFlagPrototyped | DIFlagStaticMember, spFlags: DISPFlagOptimized)
!1863 = !DISubroutineType(types: !1864)
!1864 = !{null, !1820, !1102}
!1865 = !DISubprogram(name: "attachment", linkageName: "_ZNK6Router10attachmentERK6String", scope: !427, file: !426, line: 84, type: !1866, scopeLine: 84, flags: DIFlagPublic | DIFlagPrototyped, spFlags: DISPFlagOptimized)
!1866 = !DISubroutineType(types: !1867)
!1867 = !{!339, !1765, !60}
!1868 = !DISubprogram(name: "force_attachment", linkageName: "_ZN6Router16force_attachmentERK6String", scope: !427, file: !426, line: 85, type: !1869, scopeLine: 85, flags: DIFlagPublic | DIFlagPrototyped, spFlags: DISPFlagOptimized)
!1869 = !DISubroutineType(types: !1870)
!1870 = !{!1697, !1779, !60}
!1871 = !DISubprogram(name: "set_attachment", linkageName: "_ZN6Router14set_attachmentERK6StringPv", scope: !427, file: !426, line: 86, type: !1872, scopeLine: 86, flags: DIFlagPublic | DIFlagPrototyped, spFlags: DISPFlagOptimized)
!1872 = !DISubroutineType(types: !1873)
!1873 = !{!339, !1779, !60, !339}
!1874 = !DISubprogram(name: "chatter_channel", linkageName: "_ZNK6Router15chatter_channelERK6String", scope: !427, file: !426, line: 88, type: !1875, scopeLine: 88, flags: DIFlagPublic | DIFlagPrototyped, spFlags: DISPFlagOptimized)
!1875 = !DISubroutineType(types: !1876)
!1876 = !{!331, !1765, !60}
!1877 = !DISubprogram(name: "arena_factory", linkageName: "_ZNK6Router13arena_factoryEv", scope: !427, file: !426, line: 89, type: !1878, scopeLine: 89, flags: DIFlagPublic | DIFlagPrototyped, spFlags: DISPFlagOptimized)
!1878 = !DISubroutineType(types: !1879)
!1879 = !{!1748, !1765}
!1880 = !DISubprogram(name: "thread_sched", linkageName: "_ZNK6Router12thread_schedEv", scope: !427, file: !426, line: 91, type: !1881, scopeLine: 91, flags: DIFlagPublic | DIFlagPrototyped, spFlags: DISPFlagOptimized)
!1881 = !DISubroutineType(types: !1882)
!1882 = !{!1753, !1765}
!1883 = !DISubprogram(name: "set_thread_sched", linkageName: "_ZN6Router16set_thread_schedEP11ThreadSched", scope: !427, file: !426, line: 92, type: !1884, scopeLine: 92, flags: DIFlagPublic | DIFlagPrototyped, spFlags: DISPFlagOptimized)
!1884 = !DISubroutineType(types: !1885)
!1885 = !{null, !1779, !1753}
!1886 = !DISubprogram(name: "home_thread_id", linkageName: "_ZNK6Router14home_thread_idEPK7Element", scope: !427, file: !426, line: 93, type: !1887, scopeLine: 93, flags: DIFlagPublic | DIFlagPrototyped, spFlags: DISPFlagOptimized)
!1887 = !DISubroutineType(types: !1888)
!1888 = !{!23, !1765, !1820}
!1889 = !DISubprogram(name: "set_home_thread_id", linkageName: "_ZN6Router18set_home_thread_idEPK7Elementi", scope: !427, file: !426, line: 94, type: !1890, scopeLine: 94, flags: DIFlagPublic | DIFlagPrototyped, spFlags: DISPFlagOptimized)
!1890 = !DISubroutineType(types: !1891)
!1891 = !{null, !1779, !1820, !23}
!1892 = !DISubprogram(name: "name_info", linkageName: "_ZNK6Router9name_infoEv", scope: !427, file: !426, line: 98, type: !1893, scopeLine: 98, flags: DIFlagPublic | DIFlagPrototyped, spFlags: DISPFlagOptimized)
!1893 = !DISubroutineType(types: !1894)
!1894 = !{!1757, !1765}
!1895 = !DISubprogram(name: "force_name_info", linkageName: "_ZN6Router15force_name_infoEv", scope: !427, file: !426, line: 99, type: !1896, scopeLine: 99, flags: DIFlagPublic | DIFlagPrototyped, spFlags: DISPFlagOptimized)
!1896 = !DISubroutineType(types: !1897)
!1897 = !{!1757, !1779}
!1898 = !DISubprogram(name: "configuration_string", linkageName: "_ZNK6Router20configuration_stringEv", scope: !427, file: !426, line: 103, type: !1899, scopeLine: 103, flags: DIFlagPublic | DIFlagPrototyped, spFlags: DISPFlagOptimized)
!1899 = !DISubroutineType(types: !1900)
!1900 = !{!8, !1765}
!1901 = !DISubprogram(name: "unparse", linkageName: "_ZNK6Router7unparseER11StringAccumRK6String", scope: !427, file: !426, line: 104, type: !1902, scopeLine: 104, flags: DIFlagPublic | DIFlagPrototyped, spFlags: DISPFlagOptimized)
!1902 = !DISubroutineType(types: !1903)
!1903 = !{null, !1765, !1904, !60}
!1904 = !DIDerivedType(tag: DW_TAG_reference_type, baseType: !1905, size: 64)
!1905 = distinct !DICompositeType(tag: DW_TAG_class_type, name: "StringAccum", file: !1906, line: 28, size: 128, flags: DIFlagTypePassByReference | DIFlagNonTrivial, elements: !1907, identifier: "_ZTS11StringAccum")
!1906 = !DIFile(filename: "../dummy_inc/click/straccum.hh", directory: "/home/john/projects/click/ir-dir")
!1907 = !{!1908, !1925, !1929, !1932, !1935, !1940, !1944, !1945, !1948, !1951, !1955, !1958, !1961, !1962, !1965, !1970, !1973, !1974, !1978, !1982, !1983, !1984, !1987, !1991, !1994, !1997, !1998, !1999, !2000, !2001, !2002, !2005, !2006, !2009, !2010, !2013, !2014, !2017, !2020, !2023, !2026, !2029, !2032, !2035, !2038, !2041, !2044, !2047, !2050, !2053, !2056, !2057, !2058, !2059, !2060, !2061}
!1908 = !DIDerivedType(tag: DW_TAG_member, name: "r_", scope: !1905, file: !1906, line: 124, baseType: !1909, size: 128)
!1909 = distinct !DICompositeType(tag: DW_TAG_structure_type, name: "rep_t", scope: !1905, file: !1906, line: 112, size: 128, flags: DIFlagTypePassByValue | DIFlagNonTrivial, elements: !1910, identifier: "_ZTSN11StringAccum5rep_tE")
!1910 = !{!1911, !1913, !1914, !1915, !1919}
!1911 = !DIDerivedType(tag: DW_TAG_member, name: "s", scope: !1909, file: !1906, line: 113, baseType: !1912, size: 64)
!1912 = !DIDerivedType(tag: DW_TAG_pointer_type, baseType: !77, size: 64)
!1913 = !DIDerivedType(tag: DW_TAG_member, name: "len", scope: !1909, file: !1906, line: 114, baseType: !23, size: 32, offset: 64)
!1914 = !DIDerivedType(tag: DW_TAG_member, name: "cap", scope: !1909, file: !1906, line: 115, baseType: !23, size: 32, offset: 96)
!1915 = !DISubprogram(name: "rep_t", scope: !1909, file: !1906, line: 116, type: !1916, scopeLine: 116, flags: DIFlagPrototyped, spFlags: DISPFlagOptimized)
!1916 = !DISubroutineType(types: !1917)
!1917 = !{null, !1918}
!1918 = !DIDerivedType(tag: DW_TAG_pointer_type, baseType: !1909, size: 64, flags: DIFlagArtificial | DIFlagObjectPointer)
!1919 = !DISubprogram(name: "rep_t", scope: !1909, file: !1906, line: 120, type: !1920, scopeLine: 120, flags: DIFlagExplicit | DIFlagPrototyped, spFlags: DISPFlagOptimized)
!1920 = !DISubroutineType(types: !1921)
!1921 = !{null, !1918, !1922}
!1922 = distinct !DICompositeType(tag: DW_TAG_structure_type, name: "uninitialized_type", file: !1923, line: 317, size: 8, flags: DIFlagTypePassByValue, elements: !1924, identifier: "_ZTS18uninitialized_type")
!1923 = !DIFile(filename: "../dummy_inc/click/config.h", directory: "/home/john/projects/click/ir-dir")
!1924 = !{}
