; ModuleID = '../elements/ip/rfc2507c.cc'
source_filename = "../elements/ip/rfc2507c.cc"
target datalayout = "e-m:e-p270:32:32-p271:32:32-p272:64:64-i64:64-f80:128-n8:16:32:64-S128"
target triple = "x86_64-pc-linux-gnu"

%class.RFC2507c = type { %class.Element.base, [15 x %"struct.RFC2507c::ccb"], [4 x i8], %class.HashTable }
%class.Element.base = type <{ i32 (...)**, [2 x %"class.Element::Port"*], [4 x %"class.Element::Port"], [2 x i32], %class.Router*, i32 }>
%"class.Element::Port" = type <{ %class.Element*, i32, [4 x i8] }>
%class.Element = type <{ i32 (...)**, [2 x %"class.Element::Port"*], [4 x %"class.Element::Port"], [2 x i32], %class.Router*, i32, [4 x i8] }>
%class.Router = type opaque
%"struct.RFC2507c::ccb" = type { %"struct.RFC2507c::tcpip" }
%"struct.RFC2507c::tcpip" = type { %struct.click_ip, %struct.click_tcp }
%struct.click_ip = type { i8, i8, i16, i16, i16, i8, i8, i16, %struct.in_addr, %struct.in_addr }
%struct.in_addr = type { i32 }
%struct.click_tcp = type { i16, i16, i32, i32, i8, i8, i16, i16, i16 }
%class.HashTable = type <{ %class.HashTable.0, i32, [4 x i8] }>
%class.HashTable.0 = type { %class.HashContainer, %class.SizedHashAllocator }
%class.HashContainer = type { %class.HashContainer_rep }
%class.HashContainer_rep = type { %"struct.HashTable<Pair<const IPFlowID, int>, void>::elt"**, i32, i32, i64, %struct.libdivide_u32_t }
%"struct.HashTable<Pair<const IPFlowID, int>, void>::elt" = type { %struct.Pair, %"struct.HashTable<Pair<const IPFlowID, int>, void>::elt"* }
%struct.Pair = type { %class.IPFlowID, i32 }
%class.IPFlowID = type { %class.IPAddress, %class.IPAddress, i16, i16 }
%class.IPAddress = type { i32 }
%struct.libdivide_u32_t = type { i32, i8 }
%class.SizedHashAllocator = type { %class.HashAllocator }
%class.HashAllocator = type { %"struct.HashAllocator::link"*, %"struct.HashAllocator::buffer"*, i64 }
%"struct.HashAllocator::link" = type { %"struct.HashAllocator::link"* }
%"struct.HashAllocator::buffer" = type { %"struct.HashAllocator::buffer"*, i64, i64 }
%class.WritablePacket = type { %class.Packet }
%class.Packet = type { %class.atomic_uint32_t, %class.Packet*, i8*, i8*, i8*, i8*, %"struct.Packet::AllAnno", void (i8*, i64, i8*)*, i8* }
%class.atomic_uint32_t = type { i32 }
%"struct.Packet::AllAnno" = type { %"union.Packet::Anno", i8*, i8*, i8*, i32, [8 x i8], %class.Packet*, %class.Packet* }
%"union.Packet::Anno" = type { [6 x i64] }
%class.HashContainer_iterator = type { %class.HashContainer_const_iterator }
%class.HashContainer_const_iterator = type { %"struct.HashTable<Pair<const IPFlowID, int>, void>::elt"*, %"struct.HashTable<Pair<const IPFlowID, int>, void>::elt"**, i32, %class.HashContainer* }
%class.HashTable_const_iterator = type { %class.HashContainer_const_iterator }
%class.HashTable_iterator = type { %class.HashTable_const_iterator }
%class.Task = type opaque
%class.Timer = type opaque
%class.Vector = type opaque
%class.ErrorHandler = type opaque
%class.String = type { %"struct.String::rep_t" }
%"struct.String::rep_t" = type { i8*, i32, %"struct.String::memo_t"* }
%"struct.String::memo_t" = type { i32, i32, i32, [8 x i8] }

$_ZNK8RFC2507c10class_nameEv = comdat any

$_ZNK8RFC2507c10port_countEv = comdat any

$_ZN9HashTableI4PairIK8IPFlowIDiEvEC2Ev = comdat any

$_ZN9HashTableI4PairIK8IPFlowIDiEvED2Ev = comdat any

$_ZNK28HashContainer_const_iteratorIN9HashTableI4PairIK8IPFlowIDiEvE3eltE21HashContainer_adapterIS6_EE3getEv = comdat any

$_ZN13HashContainerIN9HashTableI4PairIK8IPFlowIDiEvE3eltE21HashContainer_adapterIS6_EE3setER22HashContainer_iteratorIS6_S8_EPS6_b = comdat any

$_ZN13HashContainerIN9HashTableI4PairIK8IPFlowIDiEvE3eltE21HashContainer_adapterIS6_EE6rehashEj = comdat any

$_ZNK24HashTable_const_iteratorI4PairIK8IPFlowIDiEE4liveEv = comdat any

@_ZTV8RFC2507c = dso_local unnamed_addr constant { [29 x i8*] } { [29 x i8*] [i8* null, i8* bitcast ({ i8*, i8*, i8* }* @_ZTI8RFC2507c to i8*), i8* bitcast (void (%class.RFC2507c*)* @_ZN8RFC2507cD2Ev to i8*), i8* bitcast (void (%class.RFC2507c*)* @_ZN8RFC2507cD0Ev to i8*), i8* bitcast (void (%class.Element*, i32, %class.Packet*)* @_ZN7Element4pushEiP6Packet to i8*), i8* bitcast (%class.Packet* (%class.Element*, i32)* @_ZN7Element4pullEi to i8*), i8* bitcast (%class.Packet* (%class.RFC2507c*, %class.Packet*)* @_ZN8RFC2507c13simple_actionEP6Packet to i8*), i8* bitcast (i1 (%class.Element*, %class.Task*)* @_ZN7Element8run_taskEP4Task to i8*), i8* bitcast (void (%class.Element*, %class.Timer*)* @_ZN7Element9run_timerEP5Timer to i8*), i8* bitcast (void (%class.Element*, i32, i32)* @_ZN7Element8selectedEii to i8*), i8* bitcast (void (%class.Element*, i32)* @_ZN7Element8selectedEi to i8*), i8* bitcast (i8* (%class.RFC2507c*)* @_ZNK8RFC2507c10class_nameEv to i8*), i8* bitcast (i8* (%class.RFC2507c*)* @_ZNK8RFC2507c10port_countEv to i8*), i8* bitcast (i8* (%class.Element*)* @_ZNK7Element10processingEv to i8*), i8* bitcast (i8* (%class.Element*)* @_ZNK7Element9flow_codeEv to i8*), i8* bitcast (i8* (%class.Element*)* @_ZNK7Element5flagsEv to i8*), i8* bitcast (i8* (%class.Element*, i8*)* @_ZN7Element4castEPKc to i8*), i8* bitcast (i8* (%class.Element*, i1, i32, i8*)* @_ZN7Element9port_castEbiPKc to i8*), i8* bitcast (i32 (%class.Element*)* @_ZNK7Element15configure_phaseEv to i8*), i8* bitcast (i32 (%class.Element*, %class.Vector*, %class.ErrorHandler*)* @_ZN7Element9configureER6VectorI6StringEP12ErrorHandler to i8*), i8* bitcast (void (%class.Element*)* @_ZN7Element12add_handlersEv to i8*), i8* bitcast (i32 (%class.Element*, %class.ErrorHandler*)* @_ZN7Element10initializeEP12ErrorHandler to i8*), i8* bitcast (void (%class.Element*, %class.Element*, %class.ErrorHandler*)* @_ZN7Element10take_stateEPS_P12ErrorHandler to i8*), i8* bitcast (%class.Element* (%class.Element*)* @_ZNK7Element15hotswap_elementEv to i8*), i8* bitcast (void (%class.Element*, i32)* @_ZN7Element7cleanupENS_12CleanupStageE to i8*), i8* bitcast (void (%class.String*, %class.Element*)* @_ZNK7Element11declarationEv to i8*), i8* bitcast (i1 (%class.Element*)* @_ZNK7Element20can_live_reconfigureEv to i8*), i8* bitcast (i32 (%class.Element*, %class.Vector*, %class.ErrorHandler*)* @_ZN7Element16live_reconfigureER6VectorI6StringEP12ErrorHandler to i8*), i8* bitcast (i32 (%class.Element*, i32, i8*)* @_ZN7Element5llrpcEjPv to i8*)] }, align 8
@.str = private unnamed_addr constant [6 x i8] c"full1\00", align 1
@.str.1 = private unnamed_addr constant [9 x i8] c"full urp\00", align 1
@.str.2 = private unnamed_addr constant [9 x i8] c"full win\00", align 1
@.str.3 = private unnamed_addr constant [9 x i8] c"full ack\00", align 1
@.str.4 = private unnamed_addr constant [9 x i8] c"full seq\00", align 1
@.str.5 = private unnamed_addr constant [8 x i8] c"full id\00", align 1
@.str.6 = private unnamed_addr constant [59 x i8] c"p->has_network_header() && p->network_header_offset() == 0\00", align 1
@.str.7 = private unnamed_addr constant [27 x i8] c"../elements/ip/rfc2507c.cc\00", align 1
@__PRETTY_FUNCTION__._ZN8RFC2507c13simple_actionEP6Packet = private unnamed_addr constant [50 x i8] c"virtual Packet *RFC2507c::simple_action(Packet *)\00", align 1
@.str.8 = private unnamed_addr constant [23 x i8] c"cannot compress packet\00", align 1
@.str.9 = private unnamed_addr constant [31 x i8] c"sport %d dport %d added cid %d\00", align 1
@_ZTVN10__cxxabiv120__si_class_type_infoE = external global i8*
@_ZTS8RFC2507c = dso_local constant [10 x i8] c"8RFC2507c\00", align 1
@_ZTI7Element = external constant i8*
@_ZTI8RFC2507c = dso_local constant { i8*, i8*, i8* } { i8* bitcast (i8** getelementptr inbounds (i8*, i8** @_ZTVN10__cxxabiv120__si_class_type_infoE, i64 2) to i8*), i8* getelementptr inbounds ([10 x i8], [10 x i8]* @_ZTS8RFC2507c, i32 0, i32 0), i8* bitcast (i8** @_ZTI7Element to i8*) }, align 8
@.str.10 = private unnamed_addr constant [12 x i8] c"RFC2507Comp\00", align 1
@_ZN7Element9PORTS_1_1E = external constant [0 x i8], align 1
@.str.12 = private unnamed_addr constant [31 x i8] c"../dummy_inc/click/libdivide.h\00", align 1
@__PRETTY_FUNCTION__._ZL26libdivide_internal_u32_genji = private unnamed_addr constant [65 x i8] c"struct libdivide_u32_t libdivide_internal_u32_gen(uint32_t, int)\00", align 1
@.str.13 = private unnamed_addr constant [19 x i8] c"rem > 0 && rem < d\00", align 1

@_ZN8RFC2507cC1Ev = dso_local unnamed_addr alias void (%class.RFC2507c*), void (%class.RFC2507c*)* @_ZN8RFC2507cC2Ev
@_ZN8RFC2507cD1Ev = dso_local unnamed_addr alias void (%class.RFC2507c*), void (%class.RFC2507c*)* @_ZN8RFC2507cD2Ev

; Function Attrs: sspstrong uwtable
define dso_local void @_ZN8RFC2507cC2Ev(%class.RFC2507c* %0) unnamed_addr #0 align 2 personality i8* bitcast (i32 (...)* @__gxx_personality_v0 to i8*) !dbg !2595 {
  call void @llvm.dbg.value(metadata %class.RFC2507c* %0, metadata !2597, metadata !DIExpression()), !dbg !2599
  %2 = bitcast %class.RFC2507c* %0 to %class.Element*, !dbg !2600
  tail call void @_ZN7ElementC2Ev(%class.Element* %2), !dbg !2601
  %3 = getelementptr %class.RFC2507c, %class.RFC2507c* %0, i64 0, i32 0, i32 0, !dbg !2600
  store i32 (...)** bitcast (i8** getelementptr inbounds ({ [29 x i8*] }, { [29 x i8*] }* @_ZTV8RFC2507c, i64 0, inrange i32 0, i64 2) to i32 (...)**), i32 (...)*** %3, align 8, !dbg !2600, !tbaa !2602
  call void @llvm.dbg.value(metadata %class.RFC2507c* %0, metadata !2605, metadata !DIExpression(DW_OP_plus_uconst, 108, DW_OP_stack_value)), !dbg !2613
  call void @llvm.dbg.value(metadata %class.RFC2507c* %0, metadata !2615, metadata !DIExpression(DW_OP_plus_uconst, 108, DW_OP_stack_value)), !dbg !2619
  %4 = getelementptr inbounds %class.RFC2507c, %class.RFC2507c* %0, i64 0, i32 1, i64 0, i32 0, i32 0, i32 8, i32 0, !dbg !2621
  store i32 0, i32* %4, align 4, !dbg !2623, !tbaa !2624
  call void @llvm.dbg.value(metadata %class.RFC2507c* %0, metadata !2605, metadata !DIExpression(DW_OP_plus_uconst, 148, DW_OP_stack_value)), !dbg !2613
  call void @llvm.dbg.value(metadata %class.RFC2507c* %0, metadata !2615, metadata !DIExpression(DW_OP_plus_uconst, 148, DW_OP_stack_value)), !dbg !2619
  %5 = getelementptr inbounds %class.RFC2507c, %class.RFC2507c* %0, i64 0, i32 1, i64 1, i32 0, i32 0, i32 8, i32 0, !dbg !2621
  store i32 0, i32* %5, align 4, !dbg !2623, !tbaa !2624
  call void @llvm.dbg.value(metadata %class.RFC2507c* %0, metadata !2605, metadata !DIExpression(DW_OP_plus_uconst, 188, DW_OP_stack_value)), !dbg !2613
  call void @llvm.dbg.value(metadata %class.RFC2507c* %0, metadata !2615, metadata !DIExpression(DW_OP_plus_uconst, 188, DW_OP_stack_value)), !dbg !2619
  %6 = getelementptr inbounds %class.RFC2507c, %class.RFC2507c* %0, i64 0, i32 1, i64 2, i32 0, i32 0, i32 8, i32 0, !dbg !2621
  store i32 0, i32* %6, align 4, !dbg !2623, !tbaa !2624
  call void @llvm.dbg.value(metadata %class.RFC2507c* %0, metadata !2605, metadata !DIExpression(DW_OP_plus_uconst, 228, DW_OP_stack_value)), !dbg !2613
  call void @llvm.dbg.value(metadata %class.RFC2507c* %0, metadata !2615, metadata !DIExpression(DW_OP_plus_uconst, 228, DW_OP_stack_value)), !dbg !2619
  %7 = getelementptr inbounds %class.RFC2507c, %class.RFC2507c* %0, i64 0, i32 1, i64 3, i32 0, i32 0, i32 8, i32 0, !dbg !2621
  store i32 0, i32* %7, align 4, !dbg !2623, !tbaa !2624
  call void @llvm.dbg.value(metadata %class.RFC2507c* %0, metadata !2605, metadata !DIExpression(DW_OP_plus_uconst, 268, DW_OP_stack_value)), !dbg !2613
  call void @llvm.dbg.value(metadata %class.RFC2507c* %0, metadata !2615, metadata !DIExpression(DW_OP_plus_uconst, 268, DW_OP_stack_value)), !dbg !2619
  %8 = getelementptr inbounds %class.RFC2507c, %class.RFC2507c* %0, i64 0, i32 1, i64 4, i32 0, i32 0, i32 8, i32 0, !dbg !2621
  store i32 0, i32* %8, align 4, !dbg !2623, !tbaa !2624
  call void @llvm.dbg.value(metadata %class.RFC2507c* %0, metadata !2605, metadata !DIExpression(DW_OP_plus_uconst, 308, DW_OP_stack_value)), !dbg !2613
  call void @llvm.dbg.value(metadata %class.RFC2507c* %0, metadata !2615, metadata !DIExpression(DW_OP_plus_uconst, 308, DW_OP_stack_value)), !dbg !2619
  %9 = getelementptr inbounds %class.RFC2507c, %class.RFC2507c* %0, i64 0, i32 1, i64 5, i32 0, i32 0, i32 8, i32 0, !dbg !2621
  store i32 0, i32* %9, align 4, !dbg !2623, !tbaa !2624
  call void @llvm.dbg.value(metadata %class.RFC2507c* %0, metadata !2605, metadata !DIExpression(DW_OP_plus_uconst, 348, DW_OP_stack_value)), !dbg !2613
  call void @llvm.dbg.value(metadata %class.RFC2507c* %0, metadata !2615, metadata !DIExpression(DW_OP_plus_uconst, 348, DW_OP_stack_value)), !dbg !2619
  %10 = getelementptr inbounds %class.RFC2507c, %class.RFC2507c* %0, i64 0, i32 1, i64 6, i32 0, i32 0, i32 8, i32 0, !dbg !2621
  store i32 0, i32* %10, align 4, !dbg !2623, !tbaa !2624
  call void @llvm.dbg.value(metadata %class.RFC2507c* %0, metadata !2605, metadata !DIExpression(DW_OP_plus_uconst, 388, DW_OP_stack_value)), !dbg !2613
  call void @llvm.dbg.value(metadata %class.RFC2507c* %0, metadata !2615, metadata !DIExpression(DW_OP_plus_uconst, 388, DW_OP_stack_value)), !dbg !2619
  %11 = getelementptr inbounds %class.RFC2507c, %class.RFC2507c* %0, i64 0, i32 1, i64 7, i32 0, i32 0, i32 8, i32 0, !dbg !2621
  store i32 0, i32* %11, align 4, !dbg !2623, !tbaa !2624
  call void @llvm.dbg.value(metadata %class.RFC2507c* %0, metadata !2605, metadata !DIExpression(DW_OP_plus_uconst, 428, DW_OP_stack_value)), !dbg !2613
  call void @llvm.dbg.value(metadata %class.RFC2507c* %0, metadata !2615, metadata !DIExpression(DW_OP_plus_uconst, 428, DW_OP_stack_value)), !dbg !2619
  %12 = getelementptr inbounds %class.RFC2507c, %class.RFC2507c* %0, i64 0, i32 1, i64 8, i32 0, i32 0, i32 8, i32 0, !dbg !2621
  store i32 0, i32* %12, align 4, !dbg !2623, !tbaa !2624
  call void @llvm.dbg.value(metadata %class.RFC2507c* %0, metadata !2605, metadata !DIExpression(DW_OP_plus_uconst, 468, DW_OP_stack_value)), !dbg !2613
  call void @llvm.dbg.value(metadata %class.RFC2507c* %0, metadata !2615, metadata !DIExpression(DW_OP_plus_uconst, 468, DW_OP_stack_value)), !dbg !2619
  %13 = getelementptr inbounds %class.RFC2507c, %class.RFC2507c* %0, i64 0, i32 1, i64 9, i32 0, i32 0, i32 8, i32 0, !dbg !2621
  store i32 0, i32* %13, align 4, !dbg !2623, !tbaa !2624
  call void @llvm.dbg.value(metadata %class.RFC2507c* %0, metadata !2605, metadata !DIExpression(DW_OP_plus_uconst, 508, DW_OP_stack_value)), !dbg !2613
  call void @llvm.dbg.value(metadata %class.RFC2507c* %0, metadata !2615, metadata !DIExpression(DW_OP_plus_uconst, 508, DW_OP_stack_value)), !dbg !2619
  %14 = getelementptr inbounds %class.RFC2507c, %class.RFC2507c* %0, i64 0, i32 1, i64 10, i32 0, i32 0, i32 8, i32 0, !dbg !2621
  store i32 0, i32* %14, align 4, !dbg !2623, !tbaa !2624
  call void @llvm.dbg.value(metadata %class.RFC2507c* %0, metadata !2605, metadata !DIExpression(DW_OP_plus_uconst, 548, DW_OP_stack_value)), !dbg !2613
  call void @llvm.dbg.value(metadata %class.RFC2507c* %0, metadata !2615, metadata !DIExpression(DW_OP_plus_uconst, 548, DW_OP_stack_value)), !dbg !2619
  %15 = getelementptr inbounds %class.RFC2507c, %class.RFC2507c* %0, i64 0, i32 1, i64 11, i32 0, i32 0, i32 8, i32 0, !dbg !2621
  store i32 0, i32* %15, align 4, !dbg !2623, !tbaa !2624
  call void @llvm.dbg.value(metadata %class.RFC2507c* %0, metadata !2605, metadata !DIExpression(DW_OP_plus_uconst, 588, DW_OP_stack_value)), !dbg !2613
  call void @llvm.dbg.value(metadata %class.RFC2507c* %0, metadata !2615, metadata !DIExpression(DW_OP_plus_uconst, 588, DW_OP_stack_value)), !dbg !2619
  %16 = getelementptr inbounds %class.RFC2507c, %class.RFC2507c* %0, i64 0, i32 1, i64 12, i32 0, i32 0, i32 8, i32 0, !dbg !2621
  store i32 0, i32* %16, align 4, !dbg !2623, !tbaa !2624
  call void @llvm.dbg.value(metadata %class.RFC2507c* %0, metadata !2605, metadata !DIExpression(DW_OP_plus_uconst, 628, DW_OP_stack_value)), !dbg !2613
  call void @llvm.dbg.value(metadata %class.RFC2507c* %0, metadata !2615, metadata !DIExpression(DW_OP_plus_uconst, 628, DW_OP_stack_value)), !dbg !2619
  %17 = getelementptr inbounds %class.RFC2507c, %class.RFC2507c* %0, i64 0, i32 1, i64 13, i32 0, i32 0, i32 8, i32 0, !dbg !2621
  store i32 0, i32* %17, align 4, !dbg !2623, !tbaa !2624
  call void @llvm.dbg.value(metadata %class.RFC2507c* %0, metadata !2605, metadata !DIExpression(DW_OP_plus_uconst, 668, DW_OP_stack_value)), !dbg !2613
  call void @llvm.dbg.value(metadata %class.RFC2507c* %0, metadata !2615, metadata !DIExpression(DW_OP_plus_uconst, 668, DW_OP_stack_value)), !dbg !2619
  %18 = getelementptr inbounds %class.RFC2507c, %class.RFC2507c* %0, i64 0, i32 1, i64 14, i32 0, i32 0, i32 8, i32 0, !dbg !2621
  store i32 0, i32* %18, align 4, !dbg !2623, !tbaa !2624
  call void @llvm.dbg.value(metadata %class.RFC2507c* %0, metadata !2632, metadata !DIExpression(DW_OP_plus_uconst, 712, DW_OP_stack_value)), !dbg !2636
  %19 = getelementptr inbounds %class.RFC2507c, %class.RFC2507c* %0, i64 0, i32 3, i32 0, !dbg !2638
  invoke void @_ZN9HashTableI4PairIK8IPFlowIDiEvEC2Ev(%class.HashTable.0* nonnull %19)
          to label %20 unwind label %22, !dbg !2638

20:                                               ; preds = %1
  %21 = getelementptr inbounds %class.RFC2507c, %class.RFC2507c* %0, i64 0, i32 3, i32 1, !dbg !2639
  store i32 0, i32* %21, align 8, !dbg !2639, !tbaa !2640
  ret void, !dbg !2649

22:                                               ; preds = %1
  %23 = landingpad { i8*, i32 }
          cleanup, !dbg !2649
  tail call void @_ZN7ElementD2Ev(%class.Element* %2) #11, !dbg !2650
  resume { i8*, i32 } %23, !dbg !2650
}

; Function Attrs: nounwind readnone speculatable willreturn
declare void @llvm.dbg.declare(metadata, metadata, metadata) #1

declare void @_ZN7ElementC2Ev(%class.Element*) unnamed_addr #2

declare i32 @__gxx_personality_v0(...)

; Function Attrs: nounwind
declare void @_ZN7ElementD2Ev(%class.Element*) unnamed_addr #3

; Function Attrs: nounwind sspstrong uwtable
define dso_local void @_ZN8RFC2507cD2Ev(%class.RFC2507c* %0) unnamed_addr #4 align 2 !dbg !2652 {
  call void @llvm.dbg.value(metadata %class.RFC2507c* %0, metadata !2654, metadata !DIExpression()), !dbg !2655
  %2 = getelementptr %class.RFC2507c, %class.RFC2507c* %0, i64 0, i32 0, i32 0, !dbg !2656
  store i32 (...)** bitcast (i8** getelementptr inbounds ({ [29 x i8*] }, { [29 x i8*] }* @_ZTV8RFC2507c, i64 0, inrange i32 0, i64 2) to i32 (...)**), i32 (...)*** %2, align 8, !dbg !2656, !tbaa !2602
  call void @llvm.dbg.value(metadata %class.RFC2507c* %0, metadata !2657, metadata !DIExpression(DW_OP_plus_uconst, 712, DW_OP_stack_value)) #11, !dbg !2660
  %3 = getelementptr inbounds %class.RFC2507c, %class.RFC2507c* %0, i64 0, i32 3, i32 0, !dbg !2663
  tail call void @_ZN9HashTableI4PairIK8IPFlowIDiEvED2Ev(%class.HashTable.0* nonnull %3) #11, !dbg !2663
  %4 = bitcast %class.RFC2507c* %0 to %class.Element*, !dbg !2665
  tail call void @_ZN7ElementD2Ev(%class.Element* %4) #11, !dbg !2665
  ret void, !dbg !2666
}

; Function Attrs: nounwind sspstrong uwtable
define dso_local void @_ZN8RFC2507cD0Ev(%class.RFC2507c* %0) unnamed_addr #4 align 2 !dbg !2667 {
  call void @llvm.dbg.value(metadata %class.RFC2507c* %0, metadata !2669, metadata !DIExpression()), !dbg !2670
  call void @llvm.dbg.value(metadata %class.RFC2507c* %0, metadata !2654, metadata !DIExpression()) #11, !dbg !2671
  %2 = getelementptr %class.RFC2507c, %class.RFC2507c* %0, i64 0, i32 0, i32 0, !dbg !2673
  store i32 (...)** bitcast (i8** getelementptr inbounds ({ [29 x i8*] }, { [29 x i8*] }* @_ZTV8RFC2507c, i64 0, inrange i32 0, i64 2) to i32 (...)**), i32 (...)*** %2, align 8, !dbg !2673, !tbaa !2602
  call void @llvm.dbg.value(metadata %class.RFC2507c* %0, metadata !2657, metadata !DIExpression(DW_OP_plus_uconst, 712, DW_OP_stack_value)) #11, !dbg !2674
  %3 = getelementptr inbounds %class.RFC2507c, %class.RFC2507c* %0, i64 0, i32 3, i32 0, !dbg !2676
  tail call void @_ZN9HashTableI4PairIK8IPFlowIDiEvED2Ev(%class.HashTable.0* nonnull %3) #11, !dbg !2676
  %4 = bitcast %class.RFC2507c* %0 to %class.Element*, !dbg !2677
  tail call void @_ZN7ElementD2Ev(%class.Element* %4) #11, !dbg !2677
  %5 = bitcast %class.RFC2507c* %0 to i8*, !dbg !2678
  tail call void @_ZdlPv(i8* %5) #12, !dbg !2678
  ret void, !dbg !2679
}

; Function Attrs: nobuiltin nounwind
declare void @_ZdlPv(i8*) local_unnamed_addr #5

; Function Attrs: sspstrong uwtable
define dso_local %class.WritablePacket* @_ZN8RFC2507c10make_otherEP6Packet(%class.RFC2507c* nocapture readnone %0, %class.Packet* %1) local_unnamed_addr #0 align 2 !dbg !2680 {
  call void @llvm.dbg.value(metadata %class.RFC2507c* undef, metadata !2682, metadata !DIExpression()), !dbg !2685
  call void @llvm.dbg.value(metadata %class.Packet* %1, metadata !2683, metadata !DIExpression()), !dbg !2685
  %3 = tail call i32 @_ZNK6Packet6lengthEv(%class.Packet* %1), !dbg !2686
  %4 = add i32 %3, 1, !dbg !2687
  call void @llvm.dbg.value(metadata i32 %4, metadata !2688, metadata !DIExpression()), !dbg !2691
  %5 = tail call %class.WritablePacket* @_ZN6Packet4makeEjPKvjj(i32 28, i8* null, i32 %4, i32 0), !dbg !2693
  call void @llvm.dbg.value(metadata %class.WritablePacket* %5, metadata !2684, metadata !DIExpression()), !dbg !2685
  %6 = tail call i8* @_ZNK14WritablePacket4dataEv(%class.WritablePacket* %5), !dbg !2694
  store i8 0, i8* %6, align 1, !dbg !2695, !tbaa !2696
  %7 = tail call i8* @_ZNK14WritablePacket4dataEv(%class.WritablePacket* %5), !dbg !2697
  %8 = getelementptr inbounds i8, i8* %7, i64 1, !dbg !2698
  %9 = tail call i8* @_ZNK6Packet4dataEv(%class.Packet* %1), !dbg !2699
  %10 = tail call i32 @_ZNK6Packet6lengthEv(%class.Packet* %1), !dbg !2700
  %11 = zext i32 %10 to i64, !dbg !2701
  tail call void @llvm.memcpy.p0i8.p0i8.i64(i8* nonnull align 1 %8, i8* align 1 %9, i64 %11, i1 false), !dbg !2702
  ret %class.WritablePacket* %5, !dbg !2703
}

; Function Attrs: argmemonly nounwind willreturn
declare void @llvm.lifetime.start.p0i8(i64 immarg, i8* nocapture) #6

declare i32 @_ZNK6Packet6lengthEv(%class.Packet*) local_unnamed_addr #2

declare i8* @_ZNK14WritablePacket4dataEv(%class.WritablePacket*) local_unnamed_addr #2

declare i8* @_ZNK6Packet4dataEv(%class.Packet*) local_unnamed_addr #2

; Function Attrs: argmemonly nounwind willreturn
declare void @llvm.memcpy.p0i8.p0i8.i64(i8* noalias nocapture writeonly, i8* noalias nocapture readonly, i64, i1 immarg) #6

; Function Attrs: argmemonly nounwind willreturn
declare void @llvm.lifetime.end.p0i8(i64 immarg, i8* nocapture) #6

; Function Attrs: sspstrong uwtable
define dso_local %class.WritablePacket* @_ZN8RFC2507c9make_fullEiP6Packet(%class.RFC2507c* nocapture readnone %0, i32 %1, %class.Packet* %2) local_unnamed_addr #0 align 2 !dbg !2704 {
  call void @llvm.dbg.value(metadata %class.RFC2507c* undef, metadata !2706, metadata !DIExpression()), !dbg !2710
  call void @llvm.dbg.value(metadata i32 %1, metadata !2707, metadata !DIExpression()), !dbg !2710
  call void @llvm.dbg.value(metadata %class.Packet* %2, metadata !2708, metadata !DIExpression()), !dbg !2710
  %4 = tail call i32 @_ZNK6Packet6lengthEv(%class.Packet* %2), !dbg !2711
  %5 = add i32 %4, 2, !dbg !2712
  call void @llvm.dbg.value(metadata i32 %5, metadata !2688, metadata !DIExpression()), !dbg !2713
  %6 = tail call %class.WritablePacket* @_ZN6Packet4makeEjPKvjj(i32 28, i8* null, i32 %5, i32 0), !dbg !2715
  call void @llvm.dbg.value(metadata %class.WritablePacket* %6, metadata !2709, metadata !DIExpression()), !dbg !2710
  %7 = tail call i8* @_ZNK14WritablePacket4dataEv(%class.WritablePacket* %6), !dbg !2716
  store i8 1, i8* %7, align 1, !dbg !2717, !tbaa !2696
  %8 = trunc i32 %1 to i8, !dbg !2718
  %9 = tail call i8* @_ZNK14WritablePacket4dataEv(%class.WritablePacket* %6), !dbg !2719
  %10 = getelementptr inbounds i8, i8* %9, i64 1, !dbg !2719
  store i8 %8, i8* %10, align 1, !dbg !2720, !tbaa !2696
  %11 = tail call i8* @_ZNK14WritablePacket4dataEv(%class.WritablePacket* %6), !dbg !2721
  %12 = getelementptr inbounds i8, i8* %11, i64 2, !dbg !2722
  %13 = tail call i8* @_ZNK6Packet4dataEv(%class.Packet* %2), !dbg !2723
  %14 = tail call i32 @_ZNK6Packet6lengthEv(%class.Packet* %2), !dbg !2724
  %15 = zext i32 %14 to i64, !dbg !2725
  tail call void @llvm.memcpy.p0i8.p0i8.i64(i8* nonnull align 1 %12, i8* align 1 %13, i64 %15, i1 false), !dbg !2726
  ret %class.WritablePacket* %6, !dbg !2727
}

; Function Attrs: nofree nounwind sspstrong uwtable
define dso_local i32 @_ZN8RFC2507c8encode16EiiPcRi(%class.RFC2507c* nocapture readnone %0, i32 %1, i32 %2, i8* nocapture %3, i32* nocapture dereferenceable(4) %4) local_unnamed_addr #7 align 2 !dbg !2728 {
  call void @llvm.dbg.value(metadata %class.RFC2507c* %0, metadata !2730, metadata !DIExpression()), !dbg !2735
  call void @llvm.dbg.value(metadata i32 %1, metadata !2731, metadata !DIExpression()), !dbg !2735
  call void @llvm.dbg.value(metadata i32 %2, metadata !2732, metadata !DIExpression()), !dbg !2735
  call void @llvm.dbg.value(metadata i8* %3, metadata !2733, metadata !DIExpression()), !dbg !2735
  call void @llvm.dbg.value(metadata i32* %4, metadata !2734, metadata !DIExpression()), !dbg !2735
  %6 = trunc i32 %1 to i16, !dbg !2736
  %7 = tail call i16 @llvm.bswap.i16(i16 %6) #11
  %8 = zext i16 %7 to i32, !dbg !2736
  %9 = trunc i32 %2 to i16, !dbg !2737
  %10 = tail call i16 @llvm.bswap.i16(i16 %9) #11
  %11 = zext i16 %10 to i32, !dbg !2737
  call void @llvm.dbg.value(metadata %class.RFC2507c* undef, metadata !2738, metadata !DIExpression()), !dbg !2745
  call void @llvm.dbg.value(metadata i32 %8, metadata !2741, metadata !DIExpression()), !dbg !2745
  call void @llvm.dbg.value(metadata i32 %11, metadata !2742, metadata !DIExpression()), !dbg !2745
  call void @llvm.dbg.value(metadata i8* %3, metadata !2743, metadata !DIExpression()), !dbg !2745
  call void @llvm.dbg.value(metadata i32* %4, metadata !2744, metadata !DIExpression()), !dbg !2745
  %12 = icmp eq i16 %9, %6, !dbg !2747
  br i1 %12, label %40, label %13, !dbg !2749

13:                                               ; preds = %5
  %14 = icmp ult i16 %10, %7, !dbg !2750
  br i1 %14, label %40, label %15, !dbg !2752

15:                                               ; preds = %13
  %16 = sub nsw i32 %11, %8, !dbg !2753
  %17 = icmp slt i32 %16, 256, !dbg !2755
  br i1 %17, label %18, label %24, !dbg !2756

18:                                               ; preds = %15
  %19 = trunc i32 %16 to i8, !dbg !2757
  %20 = load i32, i32* %4, align 4, !dbg !2759, !tbaa !2760
  %21 = add nsw i32 %20, 1, !dbg !2759
  store i32 %21, i32* %4, align 4, !dbg !2759, !tbaa !2760
  %22 = sext i32 %20 to i64, !dbg !2761
  %23 = getelementptr inbounds i8, i8* %3, i64 %22, !dbg !2761
  store i8 %19, i8* %23, align 1, !dbg !2762, !tbaa !2696
  br label %40, !dbg !2763

24:                                               ; preds = %15
  %25 = load i32, i32* %4, align 4, !dbg !2764, !tbaa !2760
  %26 = add nsw i32 %25, 1, !dbg !2764
  store i32 %26, i32* %4, align 4, !dbg !2764, !tbaa !2760
  %27 = sext i32 %25 to i64, !dbg !2767
  %28 = getelementptr inbounds i8, i8* %3, i64 %27, !dbg !2767
  store i8 0, i8* %28, align 1, !dbg !2768, !tbaa !2696
  %29 = lshr i32 %16, 8, !dbg !2769
  %30 = trunc i32 %29 to i8, !dbg !2770
  %31 = load i32, i32* %4, align 4, !dbg !2771, !tbaa !2760
  %32 = add nsw i32 %31, 1, !dbg !2771
  store i32 %32, i32* %4, align 4, !dbg !2771, !tbaa !2760
  %33 = sext i32 %31 to i64, !dbg !2772
  %34 = getelementptr inbounds i8, i8* %3, i64 %33, !dbg !2772
  store i8 %30, i8* %34, align 1, !dbg !2773, !tbaa !2696
  %35 = trunc i32 %16 to i8, !dbg !2774
  %36 = load i32, i32* %4, align 4, !dbg !2775, !tbaa !2760
  %37 = add nsw i32 %36, 1, !dbg !2775
  store i32 %37, i32* %4, align 4, !dbg !2775, !tbaa !2760
  %38 = sext i32 %36 to i64, !dbg !2776
  %39 = getelementptr inbounds i8, i8* %3, i64 %38, !dbg !2776
  store i8 %35, i8* %39, align 1, !dbg !2777, !tbaa !2696
  br label %40, !dbg !2778

40:                                               ; preds = %5, %13, %18, %24
  %41 = phi i32 [ 1, %18 ], [ 1, %24 ], [ 0, %5 ], [ -1, %13 ], !dbg !2745
  ret i32 %41, !dbg !2779
}

; Function Attrs: nofree norecurse nounwind sspstrong uwtable
define dso_local i32 @_ZN8RFC2507c7encodeXEiiPcRi(%class.RFC2507c* nocapture readnone %0, i32 %1, i32 %2, i8* nocapture %3, i32* nocapture dereferenceable(4) %4) local_unnamed_addr #8 align 2 !dbg !2739 {
  call void @llvm.dbg.value(metadata %class.RFC2507c* undef, metadata !2738, metadata !DIExpression()), !dbg !2780
  call void @llvm.dbg.value(metadata i32 %1, metadata !2741, metadata !DIExpression()), !dbg !2780
  call void @llvm.dbg.value(metadata i32 %2, metadata !2742, metadata !DIExpression()), !dbg !2780
  call void @llvm.dbg.value(metadata i8* %3, metadata !2743, metadata !DIExpression()), !dbg !2780
  call void @llvm.dbg.value(metadata i32* %4, metadata !2744, metadata !DIExpression()), !dbg !2780
  %6 = icmp eq i32 %2, %1, !dbg !2781
  br i1 %6, label %36, label %7, !dbg !2782

7:                                                ; preds = %5
  %8 = icmp slt i32 %2, %1, !dbg !2783
  br i1 %8, label %36, label %9, !dbg !2784

9:                                                ; preds = %7
  %10 = sub nsw i32 %2, %1, !dbg !2785
  %11 = icmp slt i32 %10, 256, !dbg !2786
  br i1 %11, label %12, label %18, !dbg !2787

12:                                               ; preds = %9
  %13 = trunc i32 %10 to i8, !dbg !2788
  %14 = load i32, i32* %4, align 4, !dbg !2789, !tbaa !2760
  %15 = add nsw i32 %14, 1, !dbg !2789
  store i32 %15, i32* %4, align 4, !dbg !2789, !tbaa !2760
  %16 = sext i32 %14 to i64, !dbg !2790
  %17 = getelementptr inbounds i8, i8* %3, i64 %16, !dbg !2790
  store i8 %13, i8* %17, align 1, !dbg !2791, !tbaa !2696
  br label %36, !dbg !2792

18:                                               ; preds = %9
  %19 = icmp slt i32 %10, 65536, !dbg !2793
  br i1 %19, label %20, label %36, !dbg !2794

20:                                               ; preds = %18
  %21 = load i32, i32* %4, align 4, !dbg !2795, !tbaa !2760
  %22 = add nsw i32 %21, 1, !dbg !2795
  store i32 %22, i32* %4, align 4, !dbg !2795, !tbaa !2760
  %23 = sext i32 %21 to i64, !dbg !2796
  %24 = getelementptr inbounds i8, i8* %3, i64 %23, !dbg !2796
  store i8 0, i8* %24, align 1, !dbg !2797, !tbaa !2696
  %25 = lshr i32 %10, 8, !dbg !2798
  %26 = trunc i32 %25 to i8, !dbg !2799
  %27 = load i32, i32* %4, align 4, !dbg !2800, !tbaa !2760
  %28 = add nsw i32 %27, 1, !dbg !2800
  store i32 %28, i32* %4, align 4, !dbg !2800, !tbaa !2760
  %29 = sext i32 %27 to i64, !dbg !2801
  %30 = getelementptr inbounds i8, i8* %3, i64 %29, !dbg !2801
  store i8 %26, i8* %30, align 1, !dbg !2802, !tbaa !2696
  %31 = trunc i32 %10 to i8, !dbg !2803
  %32 = load i32, i32* %4, align 4, !dbg !2804, !tbaa !2760
  %33 = add nsw i32 %32, 1, !dbg !2804
  store i32 %33, i32* %4, align 4, !dbg !2804, !tbaa !2760
  %34 = sext i32 %32 to i64, !dbg !2805
  %35 = getelementptr inbounds i8, i8* %3, i64 %34, !dbg !2805
  store i8 %31, i8* %35, align 1, !dbg !2806, !tbaa !2696
  br label %36, !dbg !2807

36:                                               ; preds = %18, %7, %5, %20, %12
  %37 = phi i32 [ 1, %12 ], [ 1, %20 ], [ 0, %5 ], [ -1, %7 ], [ -1, %18 ], !dbg !2780
  ret i32 %37, !dbg !2808
}

; Function Attrs: nofree nounwind sspstrong uwtable
define dso_local i32 @_ZN8RFC2507c8encode32EiiPcRi(%class.RFC2507c* nocapture readnone %0, i32 %1, i32 %2, i8* nocapture %3, i32* nocapture dereferenceable(4) %4) local_unnamed_addr #7 align 2 !dbg !2809 {
  call void @llvm.dbg.value(metadata %class.RFC2507c* undef, metadata !2811, metadata !DIExpression()), !dbg !2816
  call void @llvm.dbg.value(metadata i32 %1, metadata !2812, metadata !DIExpression()), !dbg !2816
  call void @llvm.dbg.value(metadata i32 %2, metadata !2813, metadata !DIExpression()), !dbg !2816
  call void @llvm.dbg.value(metadata i8* %3, metadata !2814, metadata !DIExpression()), !dbg !2816
  call void @llvm.dbg.value(metadata i32* %4, metadata !2815, metadata !DIExpression()), !dbg !2816
  call void @llvm.dbg.value(metadata i32 %1, metadata !2817, metadata !DIExpression()) #11, !dbg !2823
  %6 = tail call i32 @llvm.bswap.i32(i32 %1) #11, !dbg !2825
  call void @llvm.dbg.value(metadata i32 %2, metadata !2817, metadata !DIExpression()) #11, !dbg !2826
  %7 = tail call i32 @llvm.bswap.i32(i32 %2) #11, !dbg !2828
  call void @llvm.dbg.value(metadata %class.RFC2507c* undef, metadata !2738, metadata !DIExpression()), !dbg !2829
  call void @llvm.dbg.value(metadata i32 %6, metadata !2741, metadata !DIExpression()), !dbg !2829
  call void @llvm.dbg.value(metadata i32 %7, metadata !2742, metadata !DIExpression()), !dbg !2829
  call void @llvm.dbg.value(metadata i8* %3, metadata !2743, metadata !DIExpression()), !dbg !2829
  call void @llvm.dbg.value(metadata i32* %4, metadata !2744, metadata !DIExpression()), !dbg !2829
  %8 = icmp eq i32 %2, %1, !dbg !2831
  br i1 %8, label %38, label %9, !dbg !2832

9:                                                ; preds = %5
  %10 = icmp slt i32 %7, %6, !dbg !2833
  br i1 %10, label %38, label %11, !dbg !2834

11:                                               ; preds = %9
  %12 = sub nsw i32 %7, %6, !dbg !2835
  %13 = icmp slt i32 %12, 256, !dbg !2836
  br i1 %13, label %14, label %20, !dbg !2837

14:                                               ; preds = %11
  %15 = trunc i32 %12 to i8, !dbg !2838
  %16 = load i32, i32* %4, align 4, !dbg !2839, !tbaa !2760
  %17 = add nsw i32 %16, 1, !dbg !2839
  store i32 %17, i32* %4, align 4, !dbg !2839, !tbaa !2760
  %18 = sext i32 %16 to i64, !dbg !2840
  %19 = getelementptr inbounds i8, i8* %3, i64 %18, !dbg !2840
  store i8 %15, i8* %19, align 1, !dbg !2841, !tbaa !2696
  br label %38, !dbg !2842

20:                                               ; preds = %11
  %21 = icmp slt i32 %12, 65536, !dbg !2843
  br i1 %21, label %22, label %38, !dbg !2844

22:                                               ; preds = %20
  %23 = load i32, i32* %4, align 4, !dbg !2845, !tbaa !2760
  %24 = add nsw i32 %23, 1, !dbg !2845
  store i32 %24, i32* %4, align 4, !dbg !2845, !tbaa !2760
  %25 = sext i32 %23 to i64, !dbg !2846
  %26 = getelementptr inbounds i8, i8* %3, i64 %25, !dbg !2846
  store i8 0, i8* %26, align 1, !dbg !2847, !tbaa !2696
  %27 = lshr i32 %12, 8, !dbg !2848
  %28 = trunc i32 %27 to i8, !dbg !2849
  %29 = load i32, i32* %4, align 4, !dbg !2850, !tbaa !2760
  %30 = add nsw i32 %29, 1, !dbg !2850
  store i32 %30, i32* %4, align 4, !dbg !2850, !tbaa !2760
  %31 = sext i32 %29 to i64, !dbg !2851
  %32 = getelementptr inbounds i8, i8* %3, i64 %31, !dbg !2851
  store i8 %28, i8* %32, align 1, !dbg !2852, !tbaa !2696
  %33 = trunc i32 %12 to i8, !dbg !2853
  %34 = load i32, i32* %4, align 4, !dbg !2854, !tbaa !2760
  %35 = add nsw i32 %34, 1, !dbg !2854
  store i32 %35, i32* %4, align 4, !dbg !2854, !tbaa !2760
  %36 = sext i32 %34 to i64, !dbg !2855
  %37 = getelementptr inbounds i8, i8* %3, i64 %36, !dbg !2855
  store i8 %33, i8* %37, align 1, !dbg !2856, !tbaa !2696
  br label %38, !dbg !2857

38:                                               ; preds = %5, %9, %14, %20, %22
  %39 = phi i32 [ 1, %14 ], [ 1, %22 ], [ 0, %5 ], [ -1, %9 ], [ -1, %20 ], !dbg !2829
  ret i32 %39, !dbg !2858
}

; Function Attrs: sspstrong uwtable
define dso_local %class.Packet* @_ZN8RFC2507c15make_compressedEiP6Packet(%class.RFC2507c* nocapture readonly %0, i32 %1, %class.Packet* %2) local_unnamed_addr #0 align 2 !dbg !2859 {
  %4 = alloca [512 x i8], align 16
  call void @llvm.dbg.value(metadata %class.RFC2507c* %0, metadata !2861, metadata !DIExpression()), !dbg !2875
  call void @llvm.dbg.value(metadata i32 %1, metadata !2862, metadata !DIExpression()), !dbg !2875
  call void @llvm.dbg.value(metadata %class.Packet* %2, metadata !2863, metadata !DIExpression()), !dbg !2875
  call void @llvm.dbg.value(metadata i32 0, metadata !2864, metadata !DIExpression()), !dbg !2875
  call void @llvm.dbg.value(metadata i32 0, metadata !2865, metadata !DIExpression()), !dbg !2875
  %5 = getelementptr inbounds [512 x i8], [512 x i8]* %4, i64 0, i64 0, !dbg !2876
  call void @llvm.lifetime.start.p0i8(i64 512, i8* nonnull %5) #11, !dbg !2876
  call void @llvm.dbg.declare(metadata [512 x i8]* %4, metadata !2866, metadata !DIExpression()), !dbg !2877
  %6 = tail call %struct.click_ip* @_ZNK6Packet9ip_headerEv(%class.Packet* %2), !dbg !2878
  call void @llvm.dbg.value(metadata %struct.click_ip* %6, metadata !2870, metadata !DIExpression()), !dbg !2875
  call void @llvm.dbg.value(metadata %class.Packet* %2, metadata !2879, metadata !DIExpression()), !dbg !2882
  %7 = tail call i8* @_ZNK6Packet16transport_headerEv(%class.Packet* %2), !dbg !2884
  call void @llvm.dbg.value(metadata i8* %7, metadata !2871, metadata !DIExpression()), !dbg !2875
  %8 = sext i32 %1 to i64, !dbg !2885
  call void @llvm.dbg.value(metadata %"struct.RFC2507c::tcpip"* undef, metadata !2873, metadata !DIExpression()), !dbg !2875
  %9 = getelementptr %struct.click_ip, %struct.click_ip* %6, i64 0, i32 0, !dbg !2886
  %10 = load i8, i8* %9, align 4, !dbg !2886
  %11 = getelementptr inbounds %class.RFC2507c, %class.RFC2507c* %0, i64 0, i32 1, i64 %8, i32 0, i32 0, i32 0, !dbg !2888
  %12 = load i8, i8* %11, align 4, !dbg !2888
  %13 = icmp eq i8 %10, %12, !dbg !2889
  br i1 %13, label %14, label %41, !dbg !2890

14:                                               ; preds = %3
  %15 = getelementptr inbounds %struct.click_ip, %struct.click_ip* %6, i64 0, i32 1, !dbg !2891
  %16 = load i8, i8* %15, align 1, !dbg !2891, !tbaa !2892
  %17 = getelementptr inbounds %class.RFC2507c, %class.RFC2507c* %0, i64 0, i32 1, i64 %8, i32 0, i32 0, i32 1, !dbg !2893
  %18 = load i8, i8* %17, align 1, !dbg !2893, !tbaa !2894
  %19 = icmp eq i8 %16, %18, !dbg !2895
  br i1 %19, label %20, label %41, !dbg !2896

20:                                               ; preds = %14
  %21 = getelementptr inbounds %struct.click_ip, %struct.click_ip* %6, i64 0, i32 4, !dbg !2897
  %22 = load i16, i16* %21, align 2, !dbg !2897, !tbaa !2898
  %23 = getelementptr inbounds %class.RFC2507c, %class.RFC2507c* %0, i64 0, i32 1, i64 %8, i32 0, i32 0, i32 4, !dbg !2899
  %24 = load i16, i16* %23, align 2, !dbg !2899, !tbaa !2900
  %25 = xor i16 %24, %22, !dbg !2901
  %26 = and i16 %25, 64, !dbg !2901
  %27 = icmp eq i16 %26, 0, !dbg !2901
  br i1 %27, label %28, label %41, !dbg !2902

28:                                               ; preds = %20
  %29 = getelementptr inbounds %struct.click_ip, %struct.click_ip* %6, i64 0, i32 5, !dbg !2903
  %30 = load i8, i8* %29, align 4, !dbg !2903, !tbaa !2904
  %31 = getelementptr inbounds %class.RFC2507c, %class.RFC2507c* %0, i64 0, i32 1, i64 %8, i32 0, i32 0, i32 5, !dbg !2905
  %32 = load i8, i8* %31, align 4, !dbg !2905, !tbaa !2906
  %33 = icmp eq i8 %30, %32, !dbg !2907
  br i1 %33, label %34, label %41, !dbg !2908

34:                                               ; preds = %28
  %35 = getelementptr inbounds i8, i8* %7, i64 12, !dbg !2909
  %36 = load i8, i8* %35, align 4, !dbg !2909
  %37 = getelementptr inbounds %class.RFC2507c, %class.RFC2507c* %0, i64 0, i32 1, i64 %8, i32 0, i32 1, i32 4, !dbg !2910
  %38 = load i8, i8* %37, align 4, !dbg !2910
  %39 = xor i8 %38, %36, !dbg !2911
  %40 = icmp ugt i8 %39, 15, !dbg !2911
  br i1 %40, label %41, label %54, !dbg !2912

41:                                               ; preds = %3, %28, %20, %14, %34
  tail call void (i8*, ...) @click_chatter(i8* getelementptr inbounds ([6 x i8], [6 x i8]* @.str, i64 0, i64 0)), !dbg !2913
  call void @llvm.dbg.value(metadata %class.RFC2507c* undef, metadata !2706, metadata !DIExpression()), !dbg !2915
  call void @llvm.dbg.value(metadata i32 %1, metadata !2707, metadata !DIExpression()), !dbg !2915
  call void @llvm.dbg.value(metadata %class.Packet* %2, metadata !2708, metadata !DIExpression()), !dbg !2915
  %42 = tail call i32 @_ZNK6Packet6lengthEv(%class.Packet* %2), !dbg !2917
  %43 = add i32 %42, 2, !dbg !2918
  call void @llvm.dbg.value(metadata i32 %43, metadata !2688, metadata !DIExpression()), !dbg !2919
  %44 = tail call %class.WritablePacket* @_ZN6Packet4makeEjPKvjj(i32 28, i8* null, i32 %43, i32 0), !dbg !2921
  call void @llvm.dbg.value(metadata %class.WritablePacket* %44, metadata !2709, metadata !DIExpression()), !dbg !2915
  %45 = tail call i8* @_ZNK14WritablePacket4dataEv(%class.WritablePacket* %44), !dbg !2922
  store i8 1, i8* %45, align 1, !dbg !2923, !tbaa !2696
  %46 = trunc i32 %1 to i8, !dbg !2924
  %47 = tail call i8* @_ZNK14WritablePacket4dataEv(%class.WritablePacket* %44), !dbg !2925
  %48 = getelementptr inbounds i8, i8* %47, i64 1, !dbg !2925
  store i8 %46, i8* %48, align 1, !dbg !2926, !tbaa !2696
  %49 = tail call i8* @_ZNK14WritablePacket4dataEv(%class.WritablePacket* %44), !dbg !2927
  %50 = getelementptr inbounds i8, i8* %49, i64 2, !dbg !2928
  %51 = tail call i8* @_ZNK6Packet4dataEv(%class.Packet* %2), !dbg !2929
  %52 = tail call i32 @_ZNK6Packet6lengthEv(%class.Packet* %2), !dbg !2930
  %53 = zext i32 %52 to i64, !dbg !2931
  tail call void @llvm.memcpy.p0i8.p0i8.i64(i8* nonnull align 1 %50, i8* align 1 %51, i64 %53, i1 false), !dbg !2932
  br label %327, !dbg !2933

54:                                               ; preds = %34
  %55 = getelementptr inbounds %class.RFC2507c, %class.RFC2507c* %0, i64 0, i32 1, i64 %8, i32 0, i32 1, i32 8, !dbg !2934
  %56 = load i16, i16* %55, align 2, !dbg !2934, !tbaa !2935
  %57 = getelementptr inbounds i8, i8* %7, i64 18, !dbg !2936
  %58 = bitcast i8* %57 to i16*, !dbg !2936
  %59 = load i16, i16* %58, align 2, !dbg !2936, !tbaa !2937
  call void @llvm.dbg.value(metadata %class.RFC2507c* %0, metadata !2730, metadata !DIExpression()) #11, !dbg !2938
  call void @llvm.dbg.value(metadata i16 %56, metadata !2731, metadata !DIExpression()) #11, !dbg !2938
  call void @llvm.dbg.value(metadata i16 %59, metadata !2732, metadata !DIExpression()) #11, !dbg !2938
  call void @llvm.dbg.value(metadata i8* %5, metadata !2733, metadata !DIExpression()) #11, !dbg !2938
  %60 = tail call i16 @llvm.bswap.i16(i16 %56) #11
  %61 = zext i16 %60 to i32, !dbg !2940
  %62 = tail call i16 @llvm.bswap.i16(i16 %59) #11
  %63 = zext i16 %62 to i32, !dbg !2941
  call void @llvm.dbg.value(metadata %class.RFC2507c* undef, metadata !2738, metadata !DIExpression()) #11, !dbg !2942
  call void @llvm.dbg.value(metadata i32 %61, metadata !2741, metadata !DIExpression()) #11, !dbg !2942
  call void @llvm.dbg.value(metadata i32 %63, metadata !2742, metadata !DIExpression()) #11, !dbg !2942
  call void @llvm.dbg.value(metadata i8* %5, metadata !2743, metadata !DIExpression()) #11, !dbg !2942
  %64 = icmp eq i16 %59, %56, !dbg !2944
  br i1 %64, label %91, label %65, !dbg !2945

65:                                               ; preds = %54
  %66 = icmp ult i16 %62, %60, !dbg !2946
  br i1 %66, label %78, label %67, !dbg !2947

67:                                               ; preds = %65
  %68 = sub nsw i32 %63, %61, !dbg !2948
  %69 = icmp slt i32 %68, 256, !dbg !2949
  br i1 %69, label %70, label %72, !dbg !2950

70:                                               ; preds = %67
  %71 = trunc i32 %68 to i8, !dbg !2951
  store i8 %71, i8* %5, align 16, !dbg !2952, !tbaa !2696
  br label %91, !dbg !2953

72:                                               ; preds = %67
  store i8 0, i8* %5, align 16, !dbg !2954, !tbaa !2696
  %73 = lshr i32 %68, 8, !dbg !2955
  %74 = trunc i32 %73 to i8, !dbg !2956
  %75 = getelementptr inbounds [512 x i8], [512 x i8]* %4, i64 0, i64 1, !dbg !2957
  store i8 %74, i8* %75, align 1, !dbg !2958, !tbaa !2696
  %76 = trunc i32 %68 to i8, !dbg !2959
  %77 = getelementptr inbounds [512 x i8], [512 x i8]* %4, i64 0, i64 2, !dbg !2960
  store i8 %76, i8* %77, align 2, !dbg !2961, !tbaa !2696
  br label %91, !dbg !2962

78:                                               ; preds = %65
  call void @llvm.dbg.value(metadata i32 -1, metadata !2872, metadata !DIExpression()), !dbg !2875
  tail call void (i8*, ...) @click_chatter(i8* getelementptr inbounds ([9 x i8], [9 x i8]* @.str.1, i64 0, i64 0)), !dbg !2963
  call void @llvm.dbg.value(metadata %class.RFC2507c* undef, metadata !2706, metadata !DIExpression()), !dbg !2966
  call void @llvm.dbg.value(metadata i32 %1, metadata !2707, metadata !DIExpression()), !dbg !2966
  call void @llvm.dbg.value(metadata %class.Packet* %2, metadata !2708, metadata !DIExpression()), !dbg !2966
  %79 = tail call i32 @_ZNK6Packet6lengthEv(%class.Packet* %2), !dbg !2968
  %80 = add i32 %79, 2, !dbg !2969
  call void @llvm.dbg.value(metadata i32 %80, metadata !2688, metadata !DIExpression()), !dbg !2970
  %81 = tail call %class.WritablePacket* @_ZN6Packet4makeEjPKvjj(i32 28, i8* null, i32 %80, i32 0), !dbg !2972
  call void @llvm.dbg.value(metadata %class.WritablePacket* %81, metadata !2709, metadata !DIExpression()), !dbg !2966
  %82 = tail call i8* @_ZNK14WritablePacket4dataEv(%class.WritablePacket* %81), !dbg !2973
  store i8 1, i8* %82, align 1, !dbg !2974, !tbaa !2696
  %83 = trunc i32 %1 to i8, !dbg !2975
  %84 = tail call i8* @_ZNK14WritablePacket4dataEv(%class.WritablePacket* %81), !dbg !2976
  %85 = getelementptr inbounds i8, i8* %84, i64 1, !dbg !2976
  store i8 %83, i8* %85, align 1, !dbg !2977, !tbaa !2696
  %86 = tail call i8* @_ZNK14WritablePacket4dataEv(%class.WritablePacket* %81), !dbg !2978
  %87 = getelementptr inbounds i8, i8* %86, i64 2, !dbg !2979
  %88 = tail call i8* @_ZNK6Packet4dataEv(%class.Packet* %2), !dbg !2980
  %89 = tail call i32 @_ZNK6Packet6lengthEv(%class.Packet* %2), !dbg !2981
  %90 = zext i32 %89 to i64, !dbg !2982
  tail call void @llvm.memcpy.p0i8.p0i8.i64(i8* nonnull align 1 %87, i8* align 1 %88, i64 %90, i1 false), !dbg !2983
  br label %327, !dbg !2984

91:                                               ; preds = %70, %72, %54
  %92 = phi i32 [ 0, %54 ], [ 1, %70 ], [ 3, %72 ]
  %93 = phi i32 [ 0, %54 ], [ 1, %70 ], [ 1, %72 ]
  call void @llvm.dbg.value(metadata i32 %93, metadata !2864, metadata !DIExpression()), !dbg !2875
  %94 = getelementptr inbounds %class.RFC2507c, %class.RFC2507c* %0, i64 0, i32 1, i64 %8, i32 0, i32 1, i32 6, !dbg !2985
  %95 = load i16, i16* %94, align 2, !dbg !2985, !tbaa !2986
  %96 = getelementptr inbounds i8, i8* %7, i64 14, !dbg !2987
  %97 = bitcast i8* %96 to i16*, !dbg !2987
  %98 = load i16, i16* %97, align 2, !dbg !2987, !tbaa !2988
  call void @llvm.dbg.value(metadata %class.RFC2507c* %0, metadata !2730, metadata !DIExpression()) #11, !dbg !2989
  call void @llvm.dbg.value(metadata i16 %95, metadata !2731, metadata !DIExpression()) #11, !dbg !2989
  call void @llvm.dbg.value(metadata i16 %98, metadata !2732, metadata !DIExpression()) #11, !dbg !2989
  call void @llvm.dbg.value(metadata i8* %5, metadata !2733, metadata !DIExpression()) #11, !dbg !2989
  %99 = tail call i16 @llvm.bswap.i16(i16 %95) #11
  %100 = zext i16 %99 to i32, !dbg !2991
  %101 = tail call i16 @llvm.bswap.i16(i16 %98) #11
  %102 = zext i16 %101 to i32, !dbg !2992
  call void @llvm.dbg.value(metadata %class.RFC2507c* undef, metadata !2738, metadata !DIExpression()) #11, !dbg !2993
  call void @llvm.dbg.value(metadata i32 %100, metadata !2741, metadata !DIExpression()) #11, !dbg !2993
  call void @llvm.dbg.value(metadata i32 %102, metadata !2742, metadata !DIExpression()) #11, !dbg !2993
  call void @llvm.dbg.value(metadata i8* %5, metadata !2743, metadata !DIExpression()) #11, !dbg !2993
  %103 = icmp eq i16 %98, %95, !dbg !2995
  br i1 %103, label %139, label %104, !dbg !2996

104:                                              ; preds = %91
  %105 = icmp ult i16 %101, %99, !dbg !2997
  br i1 %105, label %118, label %106, !dbg !2998

106:                                              ; preds = %104
  %107 = sub nsw i32 %102, %100, !dbg !2999
  %108 = icmp slt i32 %107, 256, !dbg !3000
  br i1 %108, label %131, label %109, !dbg !3001

109:                                              ; preds = %106
  %110 = add nuw nsw i32 %92, 1, !dbg !3002
  %111 = zext i32 %92 to i64, !dbg !3003
  %112 = getelementptr inbounds [512 x i8], [512 x i8]* %4, i64 0, i64 %111, !dbg !3003
  store i8 0, i8* %112, align 1, !dbg !3004, !tbaa !2696
  %113 = lshr i32 %107, 8, !dbg !3005
  %114 = trunc i32 %113 to i8, !dbg !3006
  %115 = add nuw nsw i32 %92, 2, !dbg !3007
  %116 = zext i32 %110 to i64, !dbg !3008
  %117 = getelementptr inbounds [512 x i8], [512 x i8]* %4, i64 0, i64 %116, !dbg !3008
  store i8 %114, i8* %117, align 1, !dbg !3009, !tbaa !2696
  br label %131, !dbg !3010

118:                                              ; preds = %104
  call void @llvm.dbg.value(metadata i32 -1, metadata !2872, metadata !DIExpression()), !dbg !2875
  tail call void (i8*, ...) @click_chatter(i8* getelementptr inbounds ([9 x i8], [9 x i8]* @.str.2, i64 0, i64 0)), !dbg !3011
  call void @llvm.dbg.value(metadata %class.RFC2507c* undef, metadata !2706, metadata !DIExpression()), !dbg !3014
  call void @llvm.dbg.value(metadata i32 %1, metadata !2707, metadata !DIExpression()), !dbg !3014
  call void @llvm.dbg.value(metadata %class.Packet* %2, metadata !2708, metadata !DIExpression()), !dbg !3014
  %119 = tail call i32 @_ZNK6Packet6lengthEv(%class.Packet* %2), !dbg !3016
  %120 = add i32 %119, 2, !dbg !3017
  call void @llvm.dbg.value(metadata i32 %120, metadata !2688, metadata !DIExpression()), !dbg !3018
  %121 = tail call %class.WritablePacket* @_ZN6Packet4makeEjPKvjj(i32 28, i8* null, i32 %120, i32 0), !dbg !3020
  call void @llvm.dbg.value(metadata %class.WritablePacket* %121, metadata !2709, metadata !DIExpression()), !dbg !3014
  %122 = tail call i8* @_ZNK14WritablePacket4dataEv(%class.WritablePacket* %121), !dbg !3021
  store i8 1, i8* %122, align 1, !dbg !3022, !tbaa !2696
  %123 = trunc i32 %1 to i8, !dbg !3023
  %124 = tail call i8* @_ZNK14WritablePacket4dataEv(%class.WritablePacket* %121), !dbg !3024
  %125 = getelementptr inbounds i8, i8* %124, i64 1, !dbg !3024
  store i8 %123, i8* %125, align 1, !dbg !3025, !tbaa !2696
  %126 = tail call i8* @_ZNK14WritablePacket4dataEv(%class.WritablePacket* %121), !dbg !3026
  %127 = getelementptr inbounds i8, i8* %126, i64 2, !dbg !3027
  %128 = tail call i8* @_ZNK6Packet4dataEv(%class.Packet* %2), !dbg !3028
  %129 = tail call i32 @_ZNK6Packet6lengthEv(%class.Packet* %2), !dbg !3029
  %130 = zext i32 %129 to i64, !dbg !3030
  tail call void @llvm.memcpy.p0i8.p0i8.i64(i8* nonnull align 1 %127, i8* align 1 %128, i64 %130, i1 false), !dbg !3031
  br label %327, !dbg !3032

131:                                              ; preds = %106, %109
  %132 = phi i32 [ 3, %109 ], [ 1, %106 ]
  %133 = phi i32 [ %115, %109 ], [ %92, %106 ]
  %134 = trunc i32 %107 to i8, !dbg !2993
  %135 = add nuw nsw i32 %92, %132, !dbg !2993
  %136 = zext i32 %133 to i64, !dbg !2993
  %137 = getelementptr inbounds [512 x i8], [512 x i8]* %4, i64 0, i64 %136, !dbg !2993
  store i8 %134, i8* %137, align 1, !dbg !2993, !tbaa !2696
  call void @llvm.dbg.value(metadata i32 -1, metadata !2872, metadata !DIExpression()), !dbg !2875
  %138 = or i32 %93, 2, !dbg !3033
  br label %139, !dbg !3035

139:                                              ; preds = %91, %131
  %140 = phi i32 [ %135, %131 ], [ %92, %91 ]
  %141 = phi i32 [ %138, %131 ], [ %93, %91 ]
  call void @llvm.dbg.value(metadata i32 %141, metadata !2864, metadata !DIExpression()), !dbg !2875
  %142 = getelementptr inbounds %class.RFC2507c, %class.RFC2507c* %0, i64 0, i32 1, i64 %8, i32 0, i32 1, i32 3, !dbg !3036
  %143 = load i32, i32* %142, align 4, !dbg !3036, !tbaa !3037
  %144 = getelementptr inbounds i8, i8* %7, i64 8, !dbg !3038
  %145 = bitcast i8* %144 to i32*, !dbg !3038
  %146 = load i32, i32* %145, align 4, !dbg !3038, !tbaa !3039
  call void @llvm.dbg.value(metadata %class.RFC2507c* undef, metadata !2811, metadata !DIExpression()) #11, !dbg !3040
  call void @llvm.dbg.value(metadata i32 %143, metadata !2812, metadata !DIExpression()) #11, !dbg !3040
  call void @llvm.dbg.value(metadata i32 %146, metadata !2813, metadata !DIExpression()) #11, !dbg !3040
  call void @llvm.dbg.value(metadata i8* %5, metadata !2814, metadata !DIExpression()) #11, !dbg !3040
  call void @llvm.dbg.value(metadata i32 %143, metadata !2817, metadata !DIExpression()) #11, !dbg !3042
  %147 = tail call i32 @llvm.bswap.i32(i32 %143) #11, !dbg !3044
  call void @llvm.dbg.value(metadata i32 %146, metadata !2817, metadata !DIExpression()) #11, !dbg !3045
  %148 = tail call i32 @llvm.bswap.i32(i32 %146) #11, !dbg !3047
  call void @llvm.dbg.value(metadata %class.RFC2507c* undef, metadata !2738, metadata !DIExpression()) #11, !dbg !3048
  call void @llvm.dbg.value(metadata i32 %147, metadata !2741, metadata !DIExpression()) #11, !dbg !3048
  call void @llvm.dbg.value(metadata i32 %148, metadata !2742, metadata !DIExpression()) #11, !dbg !3048
  call void @llvm.dbg.value(metadata i8* %5, metadata !2743, metadata !DIExpression()) #11, !dbg !3048
  %149 = icmp eq i32 %146, %143, !dbg !3050
  br i1 %149, label %190, label %150, !dbg !3051

150:                                              ; preds = %139
  %151 = icmp slt i32 %148, %147, !dbg !3052
  br i1 %151, label %171, label %152, !dbg !3053

152:                                              ; preds = %150
  %153 = sub nsw i32 %148, %147, !dbg !3054
  %154 = icmp slt i32 %153, 256, !dbg !3055
  br i1 %154, label %155, label %158, !dbg !3056

155:                                              ; preds = %152
  %156 = add nuw nsw i32 %140, 1, !dbg !3057
  %157 = zext i32 %140 to i64, !dbg !3058
  br label %184, !dbg !3059

158:                                              ; preds = %152
  %159 = icmp slt i32 %153, 65536, !dbg !3060
  br i1 %159, label %160, label %171, !dbg !3061

160:                                              ; preds = %158
  %161 = add nuw nsw i32 %140, 1, !dbg !3062
  %162 = zext i32 %140 to i64, !dbg !3063
  %163 = getelementptr inbounds [512 x i8], [512 x i8]* %4, i64 0, i64 %162, !dbg !3063
  store i8 0, i8* %163, align 1, !dbg !3064, !tbaa !2696
  %164 = lshr i32 %153, 8, !dbg !3065
  %165 = trunc i32 %164 to i8, !dbg !3066
  %166 = add nuw nsw i32 %140, 2, !dbg !3067
  %167 = sext i32 %161 to i64, !dbg !3068
  %168 = getelementptr inbounds [512 x i8], [512 x i8]* %4, i64 0, i64 %167, !dbg !3068
  store i8 %165, i8* %168, align 1, !dbg !3069, !tbaa !2696
  %169 = add nuw nsw i32 %140, 3, !dbg !3070
  %170 = sext i32 %166 to i64, !dbg !3071
  br label %184, !dbg !3072

171:                                              ; preds = %158, %150
  call void @llvm.dbg.value(metadata i32 -1, metadata !2872, metadata !DIExpression()), !dbg !2875
  tail call void (i8*, ...) @click_chatter(i8* getelementptr inbounds ([9 x i8], [9 x i8]* @.str.3, i64 0, i64 0)), !dbg !3073
  call void @llvm.dbg.value(metadata %class.RFC2507c* undef, metadata !2706, metadata !DIExpression()), !dbg !3076
  call void @llvm.dbg.value(metadata i32 %1, metadata !2707, metadata !DIExpression()), !dbg !3076
  call void @llvm.dbg.value(metadata %class.Packet* %2, metadata !2708, metadata !DIExpression()), !dbg !3076
  %172 = tail call i32 @_ZNK6Packet6lengthEv(%class.Packet* %2), !dbg !3078
  %173 = add i32 %172, 2, !dbg !3079
  call void @llvm.dbg.value(metadata i32 %173, metadata !2688, metadata !DIExpression()), !dbg !3080
  %174 = tail call %class.WritablePacket* @_ZN6Packet4makeEjPKvjj(i32 28, i8* null, i32 %173, i32 0), !dbg !3082
  call void @llvm.dbg.value(metadata %class.WritablePacket* %174, metadata !2709, metadata !DIExpression()), !dbg !3076
  %175 = tail call i8* @_ZNK14WritablePacket4dataEv(%class.WritablePacket* %174), !dbg !3083
  store i8 1, i8* %175, align 1, !dbg !3084, !tbaa !2696
  %176 = trunc i32 %1 to i8, !dbg !3085
  %177 = tail call i8* @_ZNK14WritablePacket4dataEv(%class.WritablePacket* %174), !dbg !3086
  %178 = getelementptr inbounds i8, i8* %177, i64 1, !dbg !3086
  store i8 %176, i8* %178, align 1, !dbg !3087, !tbaa !2696
  %179 = tail call i8* @_ZNK14WritablePacket4dataEv(%class.WritablePacket* %174), !dbg !3088
  %180 = getelementptr inbounds i8, i8* %179, i64 2, !dbg !3089
  %181 = tail call i8* @_ZNK6Packet4dataEv(%class.Packet* %2), !dbg !3090
  %182 = tail call i32 @_ZNK6Packet6lengthEv(%class.Packet* %2), !dbg !3091
  %183 = zext i32 %182 to i64, !dbg !3092
  tail call void @llvm.memcpy.p0i8.p0i8.i64(i8* nonnull align 1 %180, i8* align 1 %181, i64 %183, i1 false), !dbg !3093
  br label %327, !dbg !3094

184:                                              ; preds = %160, %155
  %185 = phi i64 [ %170, %160 ], [ %157, %155 ]
  %186 = phi i32 [ %169, %160 ], [ %156, %155 ]
  %187 = trunc i32 %153 to i8, !dbg !3048
  %188 = getelementptr inbounds [512 x i8], [512 x i8]* %4, i64 0, i64 %185, !dbg !3048
  store i8 %187, i8* %188, align 1, !dbg !3048, !tbaa !2696
  call void @llvm.dbg.value(metadata i32 -1, metadata !2872, metadata !DIExpression()), !dbg !2875
  %189 = or i32 %141, 4, !dbg !3095
  br label %190, !dbg !3097

190:                                              ; preds = %139, %184
  %191 = phi i32 [ %186, %184 ], [ %140, %139 ]
  %192 = phi i32 [ %189, %184 ], [ %141, %139 ]
  call void @llvm.dbg.value(metadata i32 %192, metadata !2864, metadata !DIExpression()), !dbg !2875
  %193 = getelementptr inbounds %class.RFC2507c, %class.RFC2507c* %0, i64 0, i32 1, i64 %8, i32 0, i32 1, i32 2, !dbg !3098
  %194 = load i32, i32* %193, align 4, !dbg !3098, !tbaa !3099
  %195 = getelementptr inbounds i8, i8* %7, i64 4, !dbg !3100
  %196 = bitcast i8* %195 to i32*, !dbg !3100
  %197 = load i32, i32* %196, align 4, !dbg !3100, !tbaa !3101
  call void @llvm.dbg.value(metadata %class.RFC2507c* undef, metadata !2811, metadata !DIExpression()) #11, !dbg !3102
  call void @llvm.dbg.value(metadata i32 %194, metadata !2812, metadata !DIExpression()) #11, !dbg !3102
  call void @llvm.dbg.value(metadata i32 %197, metadata !2813, metadata !DIExpression()) #11, !dbg !3102
  call void @llvm.dbg.value(metadata i8* %5, metadata !2814, metadata !DIExpression()) #11, !dbg !3102
  call void @llvm.dbg.value(metadata i32 %194, metadata !2817, metadata !DIExpression()) #11, !dbg !3104
  %198 = tail call i32 @llvm.bswap.i32(i32 %194) #11, !dbg !3106
  call void @llvm.dbg.value(metadata i32 %197, metadata !2817, metadata !DIExpression()) #11, !dbg !3107
  %199 = tail call i32 @llvm.bswap.i32(i32 %197) #11, !dbg !3109
  call void @llvm.dbg.value(metadata %class.RFC2507c* undef, metadata !2738, metadata !DIExpression()) #11, !dbg !3110
  call void @llvm.dbg.value(metadata i32 %198, metadata !2741, metadata !DIExpression()) #11, !dbg !3110
  call void @llvm.dbg.value(metadata i32 %199, metadata !2742, metadata !DIExpression()) #11, !dbg !3110
  call void @llvm.dbg.value(metadata i8* %5, metadata !2743, metadata !DIExpression()) #11, !dbg !3110
  %200 = icmp eq i32 %197, %194, !dbg !3112
  br i1 %200, label %241, label %201, !dbg !3113

201:                                              ; preds = %190
  %202 = icmp slt i32 %199, %198, !dbg !3114
  br i1 %202, label %222, label %203, !dbg !3115

203:                                              ; preds = %201
  %204 = sub nsw i32 %199, %198, !dbg !3116
  %205 = icmp slt i32 %204, 256, !dbg !3117
  br i1 %205, label %206, label %209, !dbg !3118

206:                                              ; preds = %203
  %207 = add nuw nsw i32 %191, 1, !dbg !3119
  %208 = zext i32 %191 to i64, !dbg !3120
  br label %235, !dbg !3121

209:                                              ; preds = %203
  %210 = icmp slt i32 %204, 65536, !dbg !3122
  br i1 %210, label %211, label %222, !dbg !3123

211:                                              ; preds = %209
  %212 = add nuw nsw i32 %191, 1, !dbg !3124
  %213 = zext i32 %191 to i64, !dbg !3125
  %214 = getelementptr inbounds [512 x i8], [512 x i8]* %4, i64 0, i64 %213, !dbg !3125
  store i8 0, i8* %214, align 1, !dbg !3126, !tbaa !2696
  %215 = lshr i32 %204, 8, !dbg !3127
  %216 = trunc i32 %215 to i8, !dbg !3128
  %217 = add nuw nsw i32 %191, 2, !dbg !3129
  %218 = sext i32 %212 to i64, !dbg !3130
  %219 = getelementptr inbounds [512 x i8], [512 x i8]* %4, i64 0, i64 %218, !dbg !3130
  store i8 %216, i8* %219, align 1, !dbg !3131, !tbaa !2696
  %220 = add nuw nsw i32 %191, 3, !dbg !3132
  %221 = sext i32 %217 to i64, !dbg !3133
  br label %235, !dbg !3134

222:                                              ; preds = %209, %201
  call void @llvm.dbg.value(metadata i32 -1, metadata !2872, metadata !DIExpression()), !dbg !2875
  tail call void (i8*, ...) @click_chatter(i8* getelementptr inbounds ([9 x i8], [9 x i8]* @.str.4, i64 0, i64 0)), !dbg !3135
  call void @llvm.dbg.value(metadata %class.RFC2507c* undef, metadata !2706, metadata !DIExpression()), !dbg !3138
  call void @llvm.dbg.value(metadata i32 %1, metadata !2707, metadata !DIExpression()), !dbg !3138
  call void @llvm.dbg.value(metadata %class.Packet* %2, metadata !2708, metadata !DIExpression()), !dbg !3138
  %223 = tail call i32 @_ZNK6Packet6lengthEv(%class.Packet* %2), !dbg !3140
  %224 = add i32 %223, 2, !dbg !3141
  call void @llvm.dbg.value(metadata i32 %224, metadata !2688, metadata !DIExpression()), !dbg !3142
  %225 = tail call %class.WritablePacket* @_ZN6Packet4makeEjPKvjj(i32 28, i8* null, i32 %224, i32 0), !dbg !3144
  call void @llvm.dbg.value(metadata %class.WritablePacket* %225, metadata !2709, metadata !DIExpression()), !dbg !3138
  %226 = tail call i8* @_ZNK14WritablePacket4dataEv(%class.WritablePacket* %225), !dbg !3145
  store i8 1, i8* %226, align 1, !dbg !3146, !tbaa !2696
  %227 = trunc i32 %1 to i8, !dbg !3147
  %228 = tail call i8* @_ZNK14WritablePacket4dataEv(%class.WritablePacket* %225), !dbg !3148
  %229 = getelementptr inbounds i8, i8* %228, i64 1, !dbg !3148
  store i8 %227, i8* %229, align 1, !dbg !3149, !tbaa !2696
  %230 = tail call i8* @_ZNK14WritablePacket4dataEv(%class.WritablePacket* %225), !dbg !3150
  %231 = getelementptr inbounds i8, i8* %230, i64 2, !dbg !3151
  %232 = tail call i8* @_ZNK6Packet4dataEv(%class.Packet* %2), !dbg !3152
  %233 = tail call i32 @_ZNK6Packet6lengthEv(%class.Packet* %2), !dbg !3153
  %234 = zext i32 %233 to i64, !dbg !3154
  tail call void @llvm.memcpy.p0i8.p0i8.i64(i8* nonnull align 1 %231, i8* align 1 %232, i64 %234, i1 false), !dbg !3155
  br label %327, !dbg !3156

235:                                              ; preds = %211, %206
  %236 = phi i64 [ %221, %211 ], [ %208, %206 ]
  %237 = phi i32 [ %220, %211 ], [ %207, %206 ]
  %238 = trunc i32 %204 to i8, !dbg !3110
  %239 = getelementptr inbounds [512 x i8], [512 x i8]* %4, i64 0, i64 %236, !dbg !3110
  store i8 %238, i8* %239, align 1, !dbg !3110, !tbaa !2696
  call void @llvm.dbg.value(metadata i32 -1, metadata !2872, metadata !DIExpression()), !dbg !2875
  %240 = or i32 %192, 8, !dbg !3157
  br label %241, !dbg !3159

241:                                              ; preds = %190, %235
  %242 = phi i32 [ %237, %235 ], [ %191, %190 ]
  %243 = phi i32 [ %240, %235 ], [ %192, %190 ]
  call void @llvm.dbg.value(metadata i32 %243, metadata !2864, metadata !DIExpression()), !dbg !2875
  %244 = getelementptr inbounds %struct.click_ip, %struct.click_ip* %6, i64 0, i32 3, !dbg !3160
  %245 = load i16, i16* %244, align 4, !dbg !3160, !tbaa !3162
  %246 = tail call i16 @llvm.bswap.i16(i16 %245) #11
  %247 = zext i16 %246 to i32, !dbg !3160
  %248 = getelementptr inbounds %class.RFC2507c, %class.RFC2507c* %0, i64 0, i32 1, i64 %8, i32 0, i32 0, i32 3, !dbg !3163
  %249 = load i16, i16* %248, align 4, !dbg !3163, !tbaa !3164
  %250 = tail call i16 @llvm.bswap.i16(i16 %249) #11
  %251 = zext i16 %250 to i32, !dbg !3163
  %252 = add nuw nsw i32 %251, 1, !dbg !3165
  %253 = icmp eq i32 %252, %247, !dbg !3166
  %254 = icmp eq i16 %245, %249, !dbg !3167
  %255 = or i1 %254, %253, !dbg !3171
  call void @llvm.dbg.value(metadata %class.RFC2507c* %0, metadata !2730, metadata !DIExpression()) #11, !dbg !3172
  call void @llvm.dbg.value(metadata i16 %249, metadata !2731, metadata !DIExpression()) #11, !dbg !3172
  call void @llvm.dbg.value(metadata i16 %245, metadata !2732, metadata !DIExpression()) #11, !dbg !3172
  call void @llvm.dbg.value(metadata i8* %5, metadata !2733, metadata !DIExpression()) #11, !dbg !3172
  call void @llvm.dbg.value(metadata %class.RFC2507c* undef, metadata !2738, metadata !DIExpression()) #11, !dbg !3173
  call void @llvm.dbg.value(metadata i32 %251, metadata !2741, metadata !DIExpression()) #11, !dbg !3173
  call void @llvm.dbg.value(metadata i32 %247, metadata !2742, metadata !DIExpression()) #11, !dbg !3173
  call void @llvm.dbg.value(metadata i8* %5, metadata !2743, metadata !DIExpression()) #11, !dbg !3173
  br i1 %255, label %291, label %256, !dbg !3171

256:                                              ; preds = %241
  %257 = icmp ult i16 %246, %250, !dbg !3174
  br i1 %257, label %272, label %258, !dbg !3175

258:                                              ; preds = %256
  %259 = sub nsw i32 %247, %251, !dbg !3176
  %260 = icmp slt i32 %259, 256, !dbg !3177
  %261 = add nuw nsw i32 %242, 1, !dbg !3173
  %262 = zext i32 %242 to i64, !dbg !3173
  br i1 %260, label %285, label %263, !dbg !3178

263:                                              ; preds = %258
  %264 = getelementptr inbounds [512 x i8], [512 x i8]* %4, i64 0, i64 %262, !dbg !3179
  store i8 0, i8* %264, align 1, !dbg !3180, !tbaa !2696
  %265 = lshr i32 %259, 8, !dbg !3181
  %266 = trunc i32 %265 to i8, !dbg !3182
  %267 = add nuw nsw i32 %242, 2, !dbg !3183
  %268 = sext i32 %261 to i64, !dbg !3184
  %269 = getelementptr inbounds [512 x i8], [512 x i8]* %4, i64 0, i64 %268, !dbg !3184
  store i8 %266, i8* %269, align 1, !dbg !3185, !tbaa !2696
  %270 = add nuw nsw i32 %242, 3, !dbg !3186
  %271 = sext i32 %267 to i64, !dbg !3187
  br label %285, !dbg !3188

272:                                              ; preds = %256
  call void @llvm.dbg.value(metadata i32 -1, metadata !2872, metadata !DIExpression()), !dbg !2875
  tail call void (i8*, ...) @click_chatter(i8* getelementptr inbounds ([8 x i8], [8 x i8]* @.str.5, i64 0, i64 0)), !dbg !3189
  call void @llvm.dbg.value(metadata %class.RFC2507c* undef, metadata !2706, metadata !DIExpression()), !dbg !3192
  call void @llvm.dbg.value(metadata i32 %1, metadata !2707, metadata !DIExpression()), !dbg !3192
  call void @llvm.dbg.value(metadata %class.Packet* %2, metadata !2708, metadata !DIExpression()), !dbg !3192
  %273 = tail call i32 @_ZNK6Packet6lengthEv(%class.Packet* %2), !dbg !3194
  %274 = add i32 %273, 2, !dbg !3195
  call void @llvm.dbg.value(metadata i32 %274, metadata !2688, metadata !DIExpression()), !dbg !3196
  %275 = tail call %class.WritablePacket* @_ZN6Packet4makeEjPKvjj(i32 28, i8* null, i32 %274, i32 0), !dbg !3198
  call void @llvm.dbg.value(metadata %class.WritablePacket* %275, metadata !2709, metadata !DIExpression()), !dbg !3192
  %276 = tail call i8* @_ZNK14WritablePacket4dataEv(%class.WritablePacket* %275), !dbg !3199
  store i8 1, i8* %276, align 1, !dbg !3200, !tbaa !2696
  %277 = trunc i32 %1 to i8, !dbg !3201
  %278 = tail call i8* @_ZNK14WritablePacket4dataEv(%class.WritablePacket* %275), !dbg !3202
  %279 = getelementptr inbounds i8, i8* %278, i64 1, !dbg !3202
  store i8 %277, i8* %279, align 1, !dbg !3203, !tbaa !2696
  %280 = tail call i8* @_ZNK14WritablePacket4dataEv(%class.WritablePacket* %275), !dbg !3204
  %281 = getelementptr inbounds i8, i8* %280, i64 2, !dbg !3205
  %282 = tail call i8* @_ZNK6Packet4dataEv(%class.Packet* %2), !dbg !3206
  %283 = tail call i32 @_ZNK6Packet6lengthEv(%class.Packet* %2), !dbg !3207
  %284 = zext i32 %283 to i64, !dbg !3208
  tail call void @llvm.memcpy.p0i8.p0i8.i64(i8* nonnull align 1 %281, i8* align 1 %282, i64 %284, i1 false), !dbg !3209
  br label %327, !dbg !3210

285:                                              ; preds = %258, %263
  %286 = phi i64 [ %271, %263 ], [ %262, %258 ]
  %287 = phi i32 [ %270, %263 ], [ %261, %258 ]
  %288 = trunc i32 %259 to i8, !dbg !3173
  %289 = getelementptr inbounds [512 x i8], [512 x i8]* %4, i64 0, i64 %286, !dbg !3173
  store i8 %288, i8* %289, align 1, !dbg !3173, !tbaa !2696
  call void @llvm.dbg.value(metadata i32 -1, metadata !2872, metadata !DIExpression()), !dbg !2875
  %290 = or i32 %243, 32, !dbg !3211
  br label %291, !dbg !3213

291:                                              ; preds = %285, %241
  %292 = phi i32 [ %242, %241 ], [ %287, %285 ], !dbg !3214
  %293 = phi i32 [ %243, %241 ], [ %290, %285 ], !dbg !2875
  call void @llvm.dbg.value(metadata i32 %293, metadata !2864, metadata !DIExpression()), !dbg !2875
  %294 = getelementptr inbounds i8, i8* %7, i64 13, !dbg !3215
  %295 = load i8, i8* %294, align 1, !dbg !3215, !tbaa !3217
  %296 = shl i8 %295, 1, !dbg !3218
  %297 = and i8 %296, 16, !dbg !3218
  call void @llvm.dbg.value(metadata i32 undef, metadata !2864, metadata !DIExpression()), !dbg !2875
  %298 = tail call i32 @_ZNK6Packet6lengthEv(%class.Packet* %2), !dbg !3219
  call void @llvm.dbg.value(metadata i32 %292, metadata !2865, metadata !DIExpression()), !dbg !2875
  %299 = add nuw nsw i32 %292, -35, !dbg !3220
  %300 = add i32 %299, %298, !dbg !3221
  call void @llvm.dbg.value(metadata i32 %300, metadata !2688, metadata !DIExpression()), !dbg !3222
  %301 = tail call %class.WritablePacket* @_ZN6Packet4makeEjPKvjj(i32 28, i8* null, i32 %300, i32 0), !dbg !3224
  call void @llvm.dbg.value(metadata %class.WritablePacket* %301, metadata !2874, metadata !DIExpression()), !dbg !2875
  %302 = tail call i8* @_ZNK14WritablePacket4dataEv(%class.WritablePacket* %301), !dbg !3225
  store i8 2, i8* %302, align 1, !dbg !3226, !tbaa !2696
  %303 = trunc i32 %1 to i8, !dbg !3227
  %304 = tail call i8* @_ZNK14WritablePacket4dataEv(%class.WritablePacket* %301), !dbg !3228
  %305 = getelementptr inbounds i8, i8* %304, i64 1, !dbg !3228
  store i8 %303, i8* %305, align 1, !dbg !3229, !tbaa !2696
  %306 = trunc i32 %293 to i8, !dbg !3230
  %307 = or i8 %297, %306, !dbg !3230
  %308 = tail call i8* @_ZNK14WritablePacket4dataEv(%class.WritablePacket* %301), !dbg !3231
  %309 = getelementptr inbounds i8, i8* %308, i64 2, !dbg !3231
  store i8 %307, i8* %309, align 1, !dbg !3232, !tbaa !2696
  %310 = tail call i8* @_ZNK14WritablePacket4dataEv(%class.WritablePacket* %301), !dbg !3233
  %311 = getelementptr inbounds i8, i8* %310, i64 3, !dbg !3234
  %312 = getelementptr inbounds i8, i8* %7, i64 16, !dbg !3235
  %313 = bitcast i8* %312 to i16*, !dbg !3235
  %314 = bitcast i8* %311 to i16*, !dbg !3236
  %315 = load i16, i16* %313, align 4, !dbg !3236
  store i16 %315, i16* %314, align 1, !dbg !3236
  %316 = tail call i8* @_ZNK14WritablePacket4dataEv(%class.WritablePacket* %301), !dbg !3237
  %317 = getelementptr inbounds i8, i8* %316, i64 5, !dbg !3238
  call void @llvm.dbg.value(metadata i32 %292, metadata !2865, metadata !DIExpression()), !dbg !2875
  %318 = zext i32 %292 to i64, !dbg !3239
  call void @llvm.memcpy.p0i8.p0i8.i64(i8* nonnull align 1 %317, i8* nonnull align 16 %5, i64 %318, i1 false), !dbg !3240
  %319 = tail call i8* @_ZNK14WritablePacket4dataEv(%class.WritablePacket* %301), !dbg !3241
  %320 = getelementptr inbounds i8, i8* %319, i64 5, !dbg !3242
  call void @llvm.dbg.value(metadata i32 %292, metadata !2865, metadata !DIExpression()), !dbg !2875
  %321 = getelementptr inbounds i8, i8* %320, i64 %318, !dbg !3243
  %322 = tail call i8* @_ZNK6Packet4dataEv(%class.Packet* %2), !dbg !3244
  %323 = getelementptr inbounds i8, i8* %322, i64 40, !dbg !3245
  %324 = tail call i32 @_ZNK6Packet6lengthEv(%class.Packet* %2), !dbg !3246
  %325 = zext i32 %324 to i64, !dbg !3247
  %326 = add nsw i64 %325, -40, !dbg !3248
  tail call void @llvm.memcpy.p0i8.p0i8.i64(i8* nonnull align 1 %321, i8* nonnull align 1 %323, i64 %326, i1 false), !dbg !3249
  br label %327

327:                                              ; preds = %291, %272, %222, %171, %118, %78, %41
  %328 = phi %class.WritablePacket* [ %301, %291 ], [ %275, %272 ], [ %225, %222 ], [ %174, %171 ], [ %121, %118 ], [ %81, %78 ], [ %44, %41 ]
  %329 = getelementptr %class.WritablePacket, %class.WritablePacket* %328, i64 0, i32 0, !dbg !2875
  call void @llvm.lifetime.end.p0i8(i64 512, i8* nonnull %5) #11, !dbg !3250
  ret %class.Packet* %329, !dbg !3250
}

declare %struct.click_ip* @_ZNK6Packet9ip_headerEv(%class.Packet*) local_unnamed_addr #2

declare !dbg !1960 void @click_chatter(i8*, ...) local_unnamed_addr #2

; Function Attrs: nounwind sspstrong uwtable
define dso_local void @_ZN8RFC2507c8make_keyERKNS_5tcpipERS0_(%class.RFC2507c* nocapture readnone %0, %"struct.RFC2507c::tcpip"* nocapture readonly dereferenceable(40) %1, %"struct.RFC2507c::tcpip"* nocapture dereferenceable(40) %2) local_unnamed_addr #4 align 2 !dbg !3251 {
  call void @llvm.dbg.value(metadata %class.RFC2507c* %0, metadata !3253, metadata !DIExpression()), !dbg !3256
  call void @llvm.dbg.value(metadata %"struct.RFC2507c::tcpip"* %1, metadata !3254, metadata !DIExpression()), !dbg !3256
  call void @llvm.dbg.value(metadata %"struct.RFC2507c::tcpip"* %2, metadata !3255, metadata !DIExpression()), !dbg !3256
  %4 = getelementptr inbounds %"struct.RFC2507c::tcpip", %"struct.RFC2507c::tcpip"* %2, i64 0, i32 0, i32 0, !dbg !3257
  %5 = getelementptr inbounds %"struct.RFC2507c::tcpip", %"struct.RFC2507c::tcpip"* %1, i64 0, i32 0, i32 0, !dbg !3257
  tail call void @llvm.memcpy.p0i8.p0i8.i64(i8* nonnull align 4 dereferenceable(40) %4, i8* nonnull align 4 dereferenceable(40) %5, i64 24, i1 false), !dbg !3257, !tbaa.struct !3258
  %6 = getelementptr inbounds %"struct.RFC2507c::tcpip", %"struct.RFC2507c::tcpip"* %2, i64 0, i32 0, i32 1, !dbg !3260
  %7 = getelementptr inbounds %"struct.RFC2507c::tcpip", %"struct.RFC2507c::tcpip"* %2, i64 0, i32 0, i32 7, !dbg !3261
  store i16 0, i16* %7, align 2, !dbg !3262, !tbaa !3263
  %8 = getelementptr inbounds %"struct.RFC2507c::tcpip", %"struct.RFC2507c::tcpip"* %2, i64 0, i32 1, i32 2, !dbg !3264
  %9 = bitcast i8* %6 to i64*, !dbg !3265
  store i64 0, i64* %9, align 1, !dbg !3265
  %10 = bitcast i32* %8 to i8*, !dbg !3266
  call void @llvm.memset.p0i8.i64(i8* nonnull align 4 dereferenceable(16) %10, i8 0, i64 16, i1 false), !dbg !3267
  ret void, !dbg !3266
}

; Function Attrs: sspstrong uwtable
define dso_local %class.Packet* @_ZN8RFC2507c13simple_actionEP6Packet(%class.RFC2507c* %0, %class.Packet* %1) unnamed_addr #0 align 2 !dbg !3268 {
  %3 = alloca %class.HashContainer_iterator, align 8
  call void @llvm.dbg.declare(metadata %class.HashContainer_iterator* %3, metadata !3284, metadata !DIExpression()), !dbg !3293
  %4 = alloca %class.IPFlowID, align 4
  %5 = alloca { i8, i8, i16, i16, i16, i8, i8, i16 }, align 4
  %6 = alloca [24 x i8], align 4
  call void @llvm.dbg.declare(metadata { i8, i8, i16, i16, i16, i8, i8, i16 }* %5, metadata !3279, metadata !DIExpression(DW_OP_LLVM_fragment, 0, 96)), !dbg !3295
  call void @llvm.dbg.declare(metadata [24 x i8]* %6, metadata !3279, metadata !DIExpression(DW_OP_LLVM_fragment, 128, 192)), !dbg !3295
  call void @llvm.dbg.value(metadata %class.RFC2507c* %0, metadata !3270, metadata !DIExpression()), !dbg !3296
  call void @llvm.dbg.value(metadata %class.Packet* %1, metadata !3271, metadata !DIExpression()), !dbg !3296
  %7 = tail call zeroext i1 @_ZNK6Packet18has_network_headerEv(%class.Packet* %1), !dbg !3297
  br i1 %7, label %8, label %16, !dbg !3297

8:                                                ; preds = %2
  call void @llvm.dbg.value(metadata %class.Packet* %1, metadata !3298, metadata !DIExpression()), !dbg !3301
  %9 = tail call i8* @_ZNK6Packet14network_headerEv(%class.Packet* %1), !dbg !3303
  %10 = tail call i8* @_ZNK6Packet4dataEv(%class.Packet* %1), !dbg !3304
  %11 = ptrtoint i8* %9 to i64, !dbg !3305
  %12 = ptrtoint i8* %10 to i64, !dbg !3305
  %13 = sub i64 %11, %12, !dbg !3305
  %14 = trunc i64 %13 to i32, !dbg !3303
  %15 = icmp eq i32 %14, 0, !dbg !3297
  br i1 %15, label %17, label %16, !dbg !3297

16:                                               ; preds = %2, %8
  tail call void @__assert_fail(i8* getelementptr inbounds ([59 x i8], [59 x i8]* @.str.6, i64 0, i64 0), i8* getelementptr inbounds ([27 x i8], [27 x i8]* @.str.7, i64 0, i64 0), i32 210, i8* getelementptr inbounds ([50 x i8], [50 x i8]* @__PRETTY_FUNCTION__._ZN8RFC2507c13simple_actionEP6Packet, i64 0, i64 0)) #13, !dbg !3297
  unreachable, !dbg !3297

17:                                               ; preds = %8
  %18 = tail call %struct.click_ip* @_ZNK6Packet9ip_headerEv(%class.Packet* %1), !dbg !3306
  call void @llvm.dbg.value(metadata %struct.click_ip* %18, metadata !3272, metadata !DIExpression()), !dbg !3296
  call void @llvm.dbg.value(metadata %class.Packet* %1, metadata !2879, metadata !DIExpression()), !dbg !3307
  %19 = tail call i8* @_ZNK6Packet16transport_headerEv(%class.Packet* %1), !dbg !3309
  call void @llvm.dbg.value(metadata i8* %19, metadata !3273, metadata !DIExpression()), !dbg !3296
  call void @llvm.dbg.value(metadata %class.Packet* null, metadata !3275, metadata !DIExpression()), !dbg !3296
  %20 = getelementptr %struct.click_ip, %struct.click_ip* %18, i64 0, i32 0, !dbg !3310
  %21 = load i8, i8* %20, align 4, !dbg !3310
  %22 = icmp eq i8 %21, 69, !dbg !3311
  br i1 %22, label %23, label %37, !dbg !3311

23:                                               ; preds = %17
  %24 = getelementptr inbounds %struct.click_ip, %struct.click_ip* %18, i64 0, i32 4, !dbg !3312
  %25 = load i16, i16* %24, align 2, !dbg !3312, !tbaa !2898
  %26 = and i16 %25, -193, !dbg !3313
  %27 = icmp eq i16 %26, 0, !dbg !3314
  br i1 %27, label %28, label %37, !dbg !3315

28:                                               ; preds = %23
  %29 = getelementptr inbounds %struct.click_ip, %struct.click_ip* %18, i64 0, i32 6, !dbg !3316
  %30 = load i8, i8* %29, align 1, !dbg !3316, !tbaa !3317
  %31 = icmp eq i8 %30, 6, !dbg !3318
  br i1 %31, label %32, label %37, !dbg !3319

32:                                               ; preds = %28
  %33 = getelementptr inbounds i8, i8* %19, i64 13, !dbg !3320
  %34 = load i8, i8* %33, align 1, !dbg !3320, !tbaa !3217
  %35 = and i8 %34, 23, !dbg !3321
  %36 = icmp eq i8 %35, 16, !dbg !3322
  br i1 %36, label %48, label %37, !dbg !3323

37:                                               ; preds = %32, %28, %23, %17
  tail call void (i8*, ...) @click_chatter(i8* getelementptr inbounds ([23 x i8], [23 x i8]* @.str.8, i64 0, i64 0)), !dbg !3324
  call void @llvm.dbg.value(metadata %class.RFC2507c* undef, metadata !2682, metadata !DIExpression()), !dbg !3326
  call void @llvm.dbg.value(metadata %class.Packet* %1, metadata !2683, metadata !DIExpression()), !dbg !3326
  %38 = tail call i32 @_ZNK6Packet6lengthEv(%class.Packet* %1), !dbg !3328
  %39 = add i32 %38, 1, !dbg !3329
  call void @llvm.dbg.value(metadata i32 %39, metadata !2688, metadata !DIExpression()), !dbg !3330
  %40 = tail call %class.WritablePacket* @_ZN6Packet4makeEjPKvjj(i32 28, i8* null, i32 %39, i32 0), !dbg !3332
  call void @llvm.dbg.value(metadata %class.WritablePacket* %40, metadata !2684, metadata !DIExpression()), !dbg !3326
  %41 = tail call i8* @_ZNK14WritablePacket4dataEv(%class.WritablePacket* %40), !dbg !3333
  store i8 0, i8* %41, align 1, !dbg !3334, !tbaa !2696
  %42 = tail call i8* @_ZNK14WritablePacket4dataEv(%class.WritablePacket* %40), !dbg !3335
  %43 = getelementptr inbounds i8, i8* %42, i64 1, !dbg !3336
  %44 = tail call i8* @_ZNK6Packet4dataEv(%class.Packet* %1), !dbg !3337
  %45 = tail call i32 @_ZNK6Packet6lengthEv(%class.Packet* %1), !dbg !3338
  %46 = zext i32 %45 to i64, !dbg !3339
  tail call void @llvm.memcpy.p0i8.p0i8.i64(i8* nonnull align 1 %43, i8* align 1 %44, i64 %46, i1 false), !dbg !3340
  %47 = getelementptr %class.WritablePacket, %class.WritablePacket* %40, i64 0, i32 0, !dbg !3341
  call void @llvm.dbg.value(metadata %class.Packet* %47, metadata !3275, metadata !DIExpression()), !dbg !3296
  br label %435, !dbg !3342

48:                                               ; preds = %32
  %49 = bitcast %class.IPFlowID* %4 to i8*, !dbg !3343
  call void @llvm.lifetime.start.p0i8(i64 12, i8* nonnull %49) #11, !dbg !3343
  call void @llvm.dbg.declare(metadata %class.IPFlowID* %4, metadata !3276, metadata !DIExpression()), !dbg !3344
  call void @_ZN8IPFlowIDC1EPK6Packetb(%class.IPFlowID* nonnull %4, %class.Packet* %1, i1 zeroext false), !dbg !3344
  %50 = getelementptr inbounds { i8, i8, i16, i16, i16, i8, i8, i16 }, { i8, i8, i16, i16, i16, i8, i8, i16 }* %5, i64 0, i32 0, !dbg !3345
  call void @llvm.lifetime.start.p0i8(i64 12, i8* nonnull %50), !dbg !3345
  %51 = getelementptr inbounds [24 x i8], [24 x i8]* %6, i64 0, i64 0, !dbg !3345
  call void @llvm.lifetime.start.p0i8(i64 24, i8* nonnull %51), !dbg !3345
  call void @llvm.dbg.value(metadata i32 0, metadata !3279, metadata !DIExpression(DW_OP_LLVM_fragment, 96, 32)), !dbg !3346
  call void @llvm.memcpy.p0i8.p0i8.i64(i8* nonnull align 4 dereferenceable(12) %50, i8* nonnull align 4 dereferenceable(12) %20, i64 12, i1 false), !dbg !3347, !tbaa.struct !3348
  %52 = getelementptr inbounds %struct.click_ip, %struct.click_ip* %18, i64 0, i32 8, i32 0, !dbg !3347
  %53 = load i32, i32* %52, align 4, !dbg !3347, !tbaa.struct !3348
  call void @llvm.dbg.value(metadata i32 %53, metadata !3279, metadata !DIExpression(DW_OP_LLVM_fragment, 96, 32)), !dbg !3346
  %54 = getelementptr inbounds %struct.click_ip, %struct.click_ip* %18, i64 0, i32 9, i32 0, !dbg !3347
  %55 = bitcast [24 x i8]* %6 to i32*, !dbg !3347
  %56 = load i32, i32* %54, align 4, !dbg !3347
  store i32 %56, i32* %55, align 4, !dbg !3347
  %57 = getelementptr inbounds [24 x i8], [24 x i8]* %6, i64 0, i64 4, !dbg !3349
  call void @llvm.memcpy.p0i8.p0i8.i64(i8* nonnull align 4 dereferenceable(20) %57, i8* nonnull align 4 dereferenceable(20) %19, i64 20, i1 false), !dbg !3349, !tbaa.struct !3350
  %58 = getelementptr inbounds %class.RFC2507c, %class.RFC2507c* %0, i64 0, i32 3, !dbg !3351
  call void @llvm.dbg.value(metadata %class.HashTable* %58, metadata !3352, metadata !DIExpression()), !dbg !3359
  call void @llvm.dbg.value(metadata %class.IPFlowID* %4, metadata !3355, metadata !DIExpression()), !dbg !3359
  call void @llvm.dbg.value(metadata %class.HashTable* %58, metadata !3361, metadata !DIExpression()), !dbg !3365
  call void @llvm.dbg.value(metadata %class.IPFlowID* %4, metadata !3364, metadata !DIExpression()), !dbg !3365
  call void @llvm.dbg.value(metadata %class.HashTable* %58, metadata !3367, metadata !DIExpression()), !dbg !3372
  call void @llvm.dbg.value(metadata %class.IPFlowID* %4, metadata !3370, metadata !DIExpression()), !dbg !3372
  call void @llvm.dbg.value(metadata %class.HashTable* %58, metadata !3374, metadata !DIExpression()), !dbg !3378
  call void @llvm.dbg.value(metadata %class.IPFlowID* %4, metadata !3377, metadata !DIExpression()), !dbg !3378
  call void @llvm.dbg.value(metadata %class.HashTable* %58, metadata !3380, metadata !DIExpression()), !dbg !3386
  call void @llvm.dbg.value(metadata %class.IPFlowID* %4, metadata !3383, metadata !DIExpression()), !dbg !3386
  call void @llvm.dbg.value(metadata %class.HashTable* %58, metadata !3388, metadata !DIExpression()), !dbg !3395
  call void @llvm.dbg.value(metadata %class.IPFlowID* %4, metadata !3391, metadata !DIExpression()), !dbg !3395
  call void @llvm.dbg.value(metadata %class.IPFlowID* %4, metadata !3397, metadata !DIExpression()), !dbg !3404
  call void @llvm.dbg.value(metadata %class.IPFlowID* %4, metadata !3406, metadata !DIExpression()), !dbg !3414
  call void @llvm.dbg.value(metadata %class.IPFlowID* %4, metadata !3416, metadata !DIExpression()), !dbg !3419
  %59 = getelementptr inbounds %class.IPFlowID, %class.IPFlowID* %4, i64 0, i32 2, !dbg !3421
  %60 = load i16, i16* %59, align 4, !dbg !3421, !tbaa !3422, !noalias !3425
  %61 = call i16 @llvm.bswap.i16(i16 %60) #11
  call void @llvm.dbg.value(metadata i16 %61, metadata !3409, metadata !DIExpression()), !dbg !3414
  call void @llvm.dbg.value(metadata %class.IPFlowID* %4, metadata !3434, metadata !DIExpression()), !dbg !3437
  %62 = getelementptr inbounds %class.IPFlowID, %class.IPFlowID* %4, i64 0, i32 3, !dbg !3439
  %63 = load i16, i16* %62, align 2, !dbg !3439, !tbaa !3440, !noalias !3425
  %64 = call i16 @llvm.bswap.i16(i16 %63) #11
  call void @llvm.dbg.value(metadata i16 %64, metadata !3410, metadata !DIExpression()), !dbg !3414
  call void @llvm.dbg.value(metadata %class.IPFlowID* %4, metadata !3441, metadata !DIExpression()), !dbg !3444
  %65 = getelementptr inbounds %class.IPFlowID, %class.IPFlowID* %4, i64 0, i32 0, i32 0, !dbg !3446
  %66 = load i32, i32* %65, align 4, !dbg !3446, !tbaa.struct !3447, !noalias !3425
  call void @llvm.dbg.value(metadata %class.IPAddress* undef, metadata !3448, metadata !DIExpression()), !dbg !3456
  %67 = zext i32 %66 to i64, !dbg !3458
  call void @llvm.dbg.value(metadata i64 %67, metadata !3411, metadata !DIExpression()), !dbg !3414
  call void @llvm.dbg.value(metadata %class.IPFlowID* %4, metadata !3459, metadata !DIExpression()), !dbg !3462
  %68 = getelementptr inbounds %class.IPFlowID, %class.IPFlowID* %4, i64 0, i32 1, i32 0, !dbg !3464
  %69 = load i32, i32* %68, align 4, !dbg !3464, !tbaa.struct !3447, !noalias !3425
  call void @llvm.dbg.value(metadata %class.IPAddress* undef, metadata !3448, metadata !DIExpression()), !dbg !3465
  %70 = zext i32 %69 to i64, !dbg !3467
  call void @llvm.dbg.value(metadata i64 %70, metadata !3412, metadata !DIExpression()), !dbg !3414
  %71 = zext i16 %61 to i32, !dbg !3468
  %72 = and i32 %71, 15, !dbg !3468
  %73 = add nuw nsw i32 %72, 1, !dbg !3468
  %74 = zext i32 %73 to i64, !dbg !3468
  %75 = shl nuw nsw i64 %67, %74, !dbg !3468
  %76 = xor i32 %72, 31, !dbg !3468
  %77 = lshr i32 %66, %76, !dbg !3468
  %78 = zext i32 %77 to i64, !dbg !3468
  %79 = or i64 %75, %78, !dbg !3468
  %80 = zext i16 %64 to i32, !dbg !3469
  %81 = and i32 %80, 15, !dbg !3469
  %82 = xor i32 %81, 31, !dbg !3469
  %83 = zext i32 %82 to i64, !dbg !3469
  %84 = shl i64 %70, %83, !dbg !3469
  %85 = sub nuw nsw i32 32, %82, !dbg !3469
  %86 = lshr i32 %69, %85, !dbg !3469
  %87 = zext i32 %86 to i64, !dbg !3469
  %88 = or i64 %84, %87, !dbg !3469
  %89 = shl nuw i32 %80, 16, !dbg !3470
  %90 = or i32 %89, %71, !dbg !3471
  %91 = zext i32 %90 to i64, !dbg !3472
  %92 = xor i64 %79, %91, !dbg !3473
  %93 = xor i64 %92, %88, !dbg !3474
  %94 = trunc i64 %93 to i32, !dbg !3475
  call void @llvm.dbg.value(metadata i32 %94, metadata !3392, metadata !DIExpression()), !dbg !3395
  call void @llvm.dbg.value(metadata i32 %94, metadata !3476, metadata !DIExpression()), !dbg !3491
  call void @llvm.dbg.value(metadata %class.HashTable* %58, metadata !3483, metadata !DIExpression(DW_OP_plus_uconst, 24, DW_OP_stack_value)), !dbg !3491
  %95 = getelementptr inbounds %class.RFC2507c, %class.RFC2507c* %0, i64 0, i32 3, i32 0, i32 0, i32 0, i32 4, i32 1, !dbg !3493
  %96 = load i8, i8* %95, align 4, !dbg !3493, !tbaa !3494, !noalias !3425
  call void @llvm.dbg.value(metadata i8 %96, metadata !3484, metadata !DIExpression()), !dbg !3491
  %97 = zext i8 %96 to i32, !dbg !3495
  %98 = icmp slt i8 %96, 0, !dbg !3495
  br i1 %98, label %99, label %102, !dbg !3496

99:                                               ; preds = %48
  %100 = and i32 %97, 31, !dbg !3497
  %101 = lshr i32 %94, %100, !dbg !3499
  br label %120, !dbg !3500

102:                                              ; preds = %48
  call void @llvm.dbg.value(metadata %class.HashTable* %58, metadata !3483, metadata !DIExpression(DW_OP_plus_uconst, 24, DW_OP_stack_value)), !dbg !3491
  %103 = getelementptr inbounds %class.RFC2507c, %class.RFC2507c* %0, i64 0, i32 3, i32 0, i32 0, i32 0, i32 4, i32 0, !dbg !3501
  %104 = load i32, i32* %103, align 4, !dbg !3501, !tbaa !3502, !noalias !3425
  call void @llvm.dbg.value(metadata i32 %104, metadata !3503, metadata !DIExpression()), !dbg !3512
  call void @llvm.dbg.value(metadata i32 %94, metadata !3508, metadata !DIExpression()), !dbg !3512
  %105 = zext i32 %104 to i64, !dbg !3514
  call void @llvm.dbg.value(metadata i64 %105, metadata !3509, metadata !DIExpression()), !dbg !3512
  %106 = and i64 %93, 4294967295, !dbg !3515
  call void @llvm.dbg.value(metadata i64 %106, metadata !3510, metadata !DIExpression()), !dbg !3512
  %107 = mul nuw i64 %106, %105, !dbg !3516
  call void @llvm.dbg.value(metadata i64 %107, metadata !3511, metadata !DIExpression()), !dbg !3512
  %108 = lshr i64 %107, 32, !dbg !3517
  %109 = trunc i64 %108 to i32, !dbg !3518
  call void @llvm.dbg.value(metadata i32 %109, metadata !3485, metadata !DIExpression()), !dbg !3519
  %110 = and i32 %97, 64, !dbg !3520
  %111 = icmp eq i32 %110, 0, !dbg !3521
  br i1 %111, label %118, label %112, !dbg !3522

112:                                              ; preds = %102
  %113 = sub i32 %94, %109, !dbg !3523
  %114 = lshr i32 %113, 1, !dbg !3524
  %115 = add i32 %114, %109, !dbg !3525
  call void @llvm.dbg.value(metadata i32 %115, metadata !3488, metadata !DIExpression()), !dbg !3526
  %116 = and i32 %97, 31, !dbg !3527
  %117 = lshr i32 %115, %116, !dbg !3528
  br label %120

118:                                              ; preds = %102
  %119 = lshr i32 %109, %97, !dbg !3529
  br label %120, !dbg !3531

120:                                              ; preds = %118, %112, %99
  %121 = phi i32 [ %101, %99 ], [ %117, %112 ], [ %119, %118 ], !dbg !3532
  call void @llvm.dbg.value(metadata i32 %121, metadata !3393, metadata !DIExpression()), !dbg !3395
  %122 = getelementptr inbounds %class.RFC2507c, %class.RFC2507c* %0, i64 0, i32 3, i32 0, i32 0, i32 0, i32 1, !dbg !3533
  %123 = load i32, i32* %122, align 8, !dbg !3533, !tbaa !3534, !noalias !3425
  %124 = mul i32 %123, %121, !dbg !3535
  %125 = sub i32 %94, %124, !dbg !3536
  call void @llvm.dbg.value(metadata i32 %125, metadata !3394, metadata !DIExpression()), !dbg !3395
  call void @llvm.dbg.value(metadata i32 %125, metadata !3384, metadata !DIExpression()), !dbg !3386
  %126 = getelementptr inbounds %class.HashTable, %class.HashTable* %58, i64 0, i32 0, i32 0, i32 0, i32 0, !dbg !3537
  %127 = load %"struct.HashTable<Pair<const IPFlowID, int>, void>::elt"**, %"struct.HashTable<Pair<const IPFlowID, int>, void>::elt"*** %126, align 8, !dbg !3537, !tbaa !3539, !noalias !3425
  %128 = zext i32 %125 to i64, !dbg !3540
  %129 = getelementptr inbounds %"struct.HashTable<Pair<const IPFlowID, int>, void>::elt"*, %"struct.HashTable<Pair<const IPFlowID, int>, void>::elt"** %127, i64 %128, !dbg !3540
  call void @llvm.dbg.value(metadata %"struct.HashTable<Pair<const IPFlowID, int>, void>::elt"** %129, metadata !3385, metadata !DIExpression()), !dbg !3386
  %130 = load %"struct.HashTable<Pair<const IPFlowID, int>, void>::elt"*, %"struct.HashTable<Pair<const IPFlowID, int>, void>::elt"** %129, align 8, !dbg !3541, !tbaa !3543, !noalias !3425
  %131 = icmp eq %"struct.HashTable<Pair<const IPFlowID, int>, void>::elt"* %130, null, !dbg !3541
  br i1 %131, label %153, label %132, !dbg !3544

132:                                              ; preds = %120, %149
  %133 = phi %"struct.HashTable<Pair<const IPFlowID, int>, void>::elt"* [ %151, %149 ], [ %130, %120 ]
  call void @llvm.dbg.value(metadata %"struct.HashTable<Pair<const IPFlowID, int>, void>::elt"** undef, metadata !3385, metadata !DIExpression()), !dbg !3386
  call void @llvm.dbg.value(metadata %"struct.HashTable<Pair<const IPFlowID, int>, void>::elt"* %133, metadata !3545, metadata !DIExpression()), !dbg !3549
  call void @llvm.dbg.value(metadata %class.IPFlowID* %4, metadata !3548, metadata !DIExpression()), !dbg !3549
  call void @llvm.dbg.value(metadata %"struct.HashTable<Pair<const IPFlowID, int>, void>::elt"* %133, metadata !3552, metadata !DIExpression()), !dbg !3558
  call void @llvm.dbg.value(metadata %class.IPFlowID* %4, metadata !3557, metadata !DIExpression()), !dbg !3558
  call void @llvm.dbg.value(metadata %"struct.HashTable<Pair<const IPFlowID, int>, void>::elt"* %133, metadata !3416, metadata !DIExpression()), !dbg !3560
  %134 = getelementptr inbounds %"struct.HashTable<Pair<const IPFlowID, int>, void>::elt", %"struct.HashTable<Pair<const IPFlowID, int>, void>::elt"* %133, i64 0, i32 0, i32 0, i32 2, !dbg !3562
  %135 = load i16, i16* %134, align 4, !dbg !3562, !tbaa !3422, !noalias !3425
  call void @llvm.dbg.value(metadata %class.IPFlowID* %4, metadata !3416, metadata !DIExpression()), !dbg !3563
  %136 = icmp eq i16 %135, %60, !dbg !3565
  br i1 %136, label %137, label %149, !dbg !3566

137:                                              ; preds = %132
  call void @llvm.dbg.value(metadata %"struct.HashTable<Pair<const IPFlowID, int>, void>::elt"* %133, metadata !3434, metadata !DIExpression()), !dbg !3567
  %138 = getelementptr inbounds %"struct.HashTable<Pair<const IPFlowID, int>, void>::elt", %"struct.HashTable<Pair<const IPFlowID, int>, void>::elt"* %133, i64 0, i32 0, i32 0, i32 3, !dbg !3569
  %139 = load i16, i16* %138, align 2, !dbg !3569, !tbaa !3440, !noalias !3425
  call void @llvm.dbg.value(metadata %class.IPFlowID* %4, metadata !3434, metadata !DIExpression()), !dbg !3570
  %140 = icmp eq i16 %139, %63, !dbg !3572
  br i1 %140, label %141, label %149, !dbg !3573

141:                                              ; preds = %137
  call void @llvm.dbg.value(metadata %"struct.HashTable<Pair<const IPFlowID, int>, void>::elt"* %133, metadata !3441, metadata !DIExpression()), !dbg !3574
  %142 = getelementptr inbounds %"struct.HashTable<Pair<const IPFlowID, int>, void>::elt", %"struct.HashTable<Pair<const IPFlowID, int>, void>::elt"* %133, i64 0, i32 0, i32 0, i32 0, i32 0, !dbg !3576
  %143 = load i32, i32* %142, align 4, !dbg !3576, !tbaa.struct !3447, !noalias !3425
  call void @llvm.dbg.value(metadata %class.IPFlowID* %4, metadata !3441, metadata !DIExpression()), !dbg !3577
  call void @llvm.dbg.value(metadata i32 %143, metadata !3579, metadata !DIExpression()), !dbg !3585
  call void @llvm.dbg.value(metadata i32 %66, metadata !3584, metadata !DIExpression()), !dbg !3585
  %144 = icmp eq i32 %143, %66, !dbg !3587
  br i1 %144, label %145, label %149, !dbg !3588

145:                                              ; preds = %141
  call void @llvm.dbg.value(metadata %"struct.HashTable<Pair<const IPFlowID, int>, void>::elt"* %133, metadata !3459, metadata !DIExpression()), !dbg !3589
  %146 = getelementptr inbounds %"struct.HashTable<Pair<const IPFlowID, int>, void>::elt", %"struct.HashTable<Pair<const IPFlowID, int>, void>::elt"* %133, i64 0, i32 0, i32 0, i32 1, i32 0, !dbg !3591
  %147 = load i32, i32* %146, align 4, !dbg !3591, !tbaa.struct !3447, !noalias !3425
  call void @llvm.dbg.value(metadata %class.IPFlowID* %4, metadata !3459, metadata !DIExpression()), !dbg !3592
  call void @llvm.dbg.value(metadata i32 %147, metadata !3579, metadata !DIExpression()), !dbg !3594
  call void @llvm.dbg.value(metadata i32 %69, metadata !3584, metadata !DIExpression()), !dbg !3594
  %148 = icmp eq i32 %147, %69, !dbg !3596
  br i1 %148, label %153, label %149, !dbg !3597

149:                                              ; preds = %145, %141, %137, %132
  call void @llvm.dbg.value(metadata %"struct.HashTable<Pair<const IPFlowID, int>, void>::elt"* %133, metadata !3598, metadata !DIExpression()), !dbg !3601
  %150 = getelementptr inbounds %"struct.HashTable<Pair<const IPFlowID, int>, void>::elt", %"struct.HashTable<Pair<const IPFlowID, int>, void>::elt"* %133, i64 0, i32 1, !dbg !3603
  call void @llvm.dbg.value(metadata %"struct.HashTable<Pair<const IPFlowID, int>, void>::elt"** %150, metadata !3385, metadata !DIExpression()), !dbg !3386
  %151 = load %"struct.HashTable<Pair<const IPFlowID, int>, void>::elt"*, %"struct.HashTable<Pair<const IPFlowID, int>, void>::elt"** %150, align 8, !dbg !3541, !tbaa !3543, !noalias !3425
  %152 = icmp eq %"struct.HashTable<Pair<const IPFlowID, int>, void>::elt"* %151, null, !dbg !3541
  br i1 %152, label %153, label %132, !dbg !3544, !llvm.loop !3604

153:                                              ; preds = %145, %149, %120
  %154 = phi %"struct.HashTable<Pair<const IPFlowID, int>, void>::elt"* [ null, %120 ], [ %133, %145 ], [ null, %149 ], !dbg !3386
  call void @llvm.dbg.value(metadata %"struct.HashTable<Pair<const IPFlowID, int>, void>::elt"* %154, metadata !3356, metadata !DIExpression(DW_OP_LLVM_fragment, 0, 64)), !dbg !3606
  call void @llvm.dbg.value(metadata %"struct.HashTable<Pair<const IPFlowID, int>, void>::elt"** undef, metadata !3356, metadata !DIExpression(DW_OP_LLVM_fragment, 64, 64)), !dbg !3606
  call void @llvm.dbg.value(metadata i32 %125, metadata !3356, metadata !DIExpression(DW_OP_LLVM_fragment, 128, 32)), !dbg !3606
  call void @llvm.dbg.value(metadata %class.HashTable* %58, metadata !3356, metadata !DIExpression(DW_OP_LLVM_fragment, 192, 64)), !dbg !3606
  call void @llvm.dbg.value(metadata %class.HashTable_const_iterator* undef, metadata !3607, metadata !DIExpression()), !dbg !3611
  call void @llvm.dbg.value(metadata %class.HashTable_const_iterator* undef, metadata !3613, metadata !DIExpression()), !dbg !3617
  %155 = icmp eq %"struct.HashTable<Pair<const IPFlowID, int>, void>::elt"* %154, null, !dbg !3619
  %156 = select i1 %155, { i64, i64 } zeroinitializer, { i64, i64 } { i64 ptrtoint (%"struct.HashTable<Pair<const IPFlowID, int>, void>::elt"* (%class.HashContainer_const_iterator*)* @_ZNK28HashContainer_const_iteratorIN9HashTableI4PairIK8IPFlowIDiEvE3eltE21HashContainer_adapterIS6_EE3getEv to i64), i64 0 }, !dbg !3619
  %157 = extractvalue { i64, i64 } %156, 0, !dbg !3620
  %158 = icmp eq i64 %157, 0, !dbg !3620
  %159 = select i1 %158, { i64, i64 } zeroinitializer, { i64, i64 } { i64 ptrtoint (i1 (%class.HashTable_const_iterator*)* @_ZNK24HashTable_const_iteratorI4PairIK8IPFlowIDiEE4liveEv to i64), i64 0 }, !dbg !3620
  %160 = extractvalue { i64, i64 } %159, 0, !dbg !3621
  %161 = icmp eq i64 %160, 0, !dbg !3621
  %162 = getelementptr inbounds %"struct.HashTable<Pair<const IPFlowID, int>, void>::elt", %"struct.HashTable<Pair<const IPFlowID, int>, void>::elt"* %154, i64 0, i32 0, i32 1, !dbg !3622
  %163 = getelementptr inbounds %class.RFC2507c, %class.RFC2507c* %0, i64 0, i32 3, i32 1, !dbg !3622
  %164 = select i1 %161, i32* %163, i32* %162, !dbg !3622
  %165 = load i32, i32* %164, align 4, !dbg !3623, !tbaa !2760
  call void @llvm.dbg.value(metadata i32 %165, metadata !3274, metadata !DIExpression()), !dbg !3296
  %166 = icmp eq i32 %165, 0, !dbg !3624
  br i1 %166, label %170, label %167, !dbg !3625

167:                                              ; preds = %153
  %168 = call %class.Packet* @_ZN8RFC2507c15make_compressedEiP6Packet(%class.RFC2507c* %0, i32 %165, %class.Packet* %1), !dbg !3626
  call void @llvm.dbg.value(metadata %class.Packet* %168, metadata !3275, metadata !DIExpression()), !dbg !3296
  call void @llvm.dbg.value(metadata i32 %165, metadata !3274, metadata !DIExpression()), !dbg !3296
  %169 = sext i32 %165 to i64, !dbg !3628
  br label %428, !dbg !3629

170:                                              ; preds = %153
  %171 = call i32 @_Z12click_randomjj(i32 1, i32 14), !dbg !3630
  call void @llvm.dbg.value(metadata i32 %171, metadata !3274, metadata !DIExpression()), !dbg !3296
  call void @llvm.dbg.value(metadata i32 %171, metadata !3274, metadata !DIExpression()), !dbg !3296
  %172 = sext i32 %171 to i64, !dbg !3631
  call void @llvm.dbg.value(metadata %"struct.RFC2507c::tcpip"* undef, metadata !3632, metadata !DIExpression()), !dbg !3636
  %173 = getelementptr inbounds %class.RFC2507c, %class.RFC2507c* %0, i64 0, i32 1, i64 %172, i32 0, i32 0, i32 8, i32 0, !dbg !3638
  %174 = load i32, i32* %173, align 4, !dbg !3638, !tbaa.struct !3447
  %175 = getelementptr inbounds %class.RFC2507c, %class.RFC2507c* %0, i64 0, i32 1, i64 %172, i32 0, i32 1, i32 0, !dbg !3639
  %176 = load i16, i16* %175, align 4, !dbg !3639, !tbaa !3640
  %177 = getelementptr inbounds %class.RFC2507c, %class.RFC2507c* %0, i64 0, i32 1, i64 %172, i32 0, i32 0, i32 9, i32 0, !dbg !3641
  %178 = load i32, i32* %177, align 4, !dbg !3641, !tbaa.struct !3447
  %179 = getelementptr inbounds %class.RFC2507c, %class.RFC2507c* %0, i64 0, i32 1, i64 %172, i32 0, i32 1, i32 1, !dbg !3642
  %180 = load i16, i16* %179, align 2, !dbg !3642, !tbaa !3643
  %181 = zext i32 %178 to i64, !dbg !3644
  call void @llvm.dbg.value(metadata i32 %174, metadata !3280, metadata !DIExpression(DW_OP_LLVM_fragment, 0, 32)), !dbg !3645
  call void @llvm.dbg.value(metadata i32 %178, metadata !3280, metadata !DIExpression(DW_OP_LLVM_fragment, 32, 32)), !dbg !3645
  call void @llvm.dbg.value(metadata i32 undef, metadata !3280, metadata !DIExpression(DW_OP_LLVM_fragment, 64, 32)), !dbg !3645
  call void @llvm.dbg.value(metadata %class.HashTable* %58, metadata !3646, metadata !DIExpression()), !dbg !3650
  call void @llvm.dbg.value(metadata %class.IPFlowID* undef, metadata !3649, metadata !DIExpression()), !dbg !3650
  call void @llvm.dbg.value(metadata %class.HashTable* %58, metadata !3652, metadata !DIExpression()), !dbg !3657
  call void @llvm.dbg.value(metadata %class.IPFlowID* undef, metadata !3655, metadata !DIExpression()), !dbg !3657
  call void @llvm.dbg.value(metadata %class.HashTable* %58, metadata !3380, metadata !DIExpression()), !dbg !3659
  call void @llvm.dbg.value(metadata %class.IPFlowID* undef, metadata !3383, metadata !DIExpression()), !dbg !3659
  call void @llvm.dbg.value(metadata %class.HashTable* %58, metadata !3388, metadata !DIExpression()), !dbg !3661
  call void @llvm.dbg.value(metadata %class.IPFlowID* undef, metadata !3391, metadata !DIExpression()), !dbg !3661
  call void @llvm.dbg.value(metadata %class.IPFlowID* undef, metadata !3397, metadata !DIExpression()), !dbg !3663
  call void @llvm.dbg.value(metadata %class.IPFlowID* undef, metadata !3406, metadata !DIExpression()), !dbg !3665
  call void @llvm.dbg.value(metadata %class.IPFlowID* undef, metadata !3416, metadata !DIExpression()), !dbg !3667
  %182 = call i16 @llvm.bswap.i16(i16 %176) #11
  call void @llvm.dbg.value(metadata i16 %182, metadata !3409, metadata !DIExpression()), !dbg !3665
  call void @llvm.dbg.value(metadata %class.IPFlowID* undef, metadata !3434, metadata !DIExpression()), !dbg !3669
  %183 = call i16 @llvm.bswap.i16(i16 %180) #11
  call void @llvm.dbg.value(metadata i16 %183, metadata !3410, metadata !DIExpression()), !dbg !3665
  call void @llvm.dbg.value(metadata %class.IPFlowID* undef, metadata !3441, metadata !DIExpression()), !dbg !3671
  call void @llvm.dbg.value(metadata %class.IPAddress* undef, metadata !3448, metadata !DIExpression()), !dbg !3673
  %184 = zext i32 %174 to i64, !dbg !3675
  call void @llvm.dbg.value(metadata i64 %184, metadata !3411, metadata !DIExpression()), !dbg !3665
  call void @llvm.dbg.value(metadata %class.IPFlowID* undef, metadata !3459, metadata !DIExpression()), !dbg !3676
  call void @llvm.dbg.value(metadata %class.IPAddress* undef, metadata !3448, metadata !DIExpression()), !dbg !3678
  call void @llvm.dbg.value(metadata i64 %181, metadata !3412, metadata !DIExpression()), !dbg !3665
  %185 = zext i16 %182 to i32, !dbg !3680
  %186 = and i32 %185, 15, !dbg !3680
  %187 = add nuw nsw i32 %186, 1, !dbg !3680
  %188 = zext i32 %187 to i64, !dbg !3680
  %189 = shl nuw nsw i64 %184, %188, !dbg !3680
  %190 = xor i32 %186, 31, !dbg !3680
  %191 = lshr i32 %174, %190, !dbg !3680
  %192 = zext i32 %191 to i64, !dbg !3680
  %193 = or i64 %189, %192, !dbg !3680
  %194 = zext i16 %183 to i32, !dbg !3681
  %195 = and i32 %194, 15, !dbg !3681
  %196 = xor i32 %195, 31, !dbg !3681
  %197 = zext i32 %196 to i64, !dbg !3681
  %198 = shl i64 %181, %197, !dbg !3681
  %199 = sub nuw nsw i32 32, %196, !dbg !3681
  %200 = lshr i32 %178, %199, !dbg !3681
  %201 = zext i32 %200 to i64, !dbg !3681
  %202 = or i64 %198, %201, !dbg !3681
  %203 = shl nuw i32 %194, 16, !dbg !3682
  %204 = or i32 %203, %185, !dbg !3683
  %205 = zext i32 %204 to i64, !dbg !3684
  %206 = xor i64 %193, %205, !dbg !3685
  %207 = xor i64 %206, %202, !dbg !3686
  %208 = trunc i64 %207 to i32, !dbg !3687
  call void @llvm.dbg.value(metadata i32 %208, metadata !3392, metadata !DIExpression()), !dbg !3661
  call void @llvm.dbg.value(metadata i32 %208, metadata !3476, metadata !DIExpression()), !dbg !3688
  call void @llvm.dbg.value(metadata %class.HashTable* %58, metadata !3483, metadata !DIExpression(DW_OP_plus_uconst, 24, DW_OP_stack_value)), !dbg !3688
  %209 = load i8, i8* %95, align 4, !dbg !3690, !tbaa !3494, !noalias !3691
  call void @llvm.dbg.value(metadata i8 %209, metadata !3484, metadata !DIExpression()), !dbg !3688
  %210 = zext i8 %209 to i32, !dbg !3698
  %211 = icmp slt i8 %209, 0, !dbg !3698
  br i1 %211, label %212, label %215, !dbg !3699

212:                                              ; preds = %170
  %213 = and i32 %210, 31, !dbg !3700
  %214 = lshr i32 %208, %213, !dbg !3701
  br label %233, !dbg !3702

215:                                              ; preds = %170
  call void @llvm.dbg.value(metadata %class.HashTable* %58, metadata !3483, metadata !DIExpression(DW_OP_plus_uconst, 24, DW_OP_stack_value)), !dbg !3688
  %216 = getelementptr inbounds %class.RFC2507c, %class.RFC2507c* %0, i64 0, i32 3, i32 0, i32 0, i32 0, i32 4, i32 0, !dbg !3703
  %217 = load i32, i32* %216, align 4, !dbg !3703, !tbaa !3502, !noalias !3691
  call void @llvm.dbg.value(metadata i32 %217, metadata !3503, metadata !DIExpression()), !dbg !3704
  call void @llvm.dbg.value(metadata i32 %208, metadata !3508, metadata !DIExpression()), !dbg !3704
  %218 = zext i32 %217 to i64, !dbg !3706
  call void @llvm.dbg.value(metadata i64 %218, metadata !3509, metadata !DIExpression()), !dbg !3704
  %219 = and i64 %207, 4294967295, !dbg !3707
  call void @llvm.dbg.value(metadata i64 %219, metadata !3510, metadata !DIExpression()), !dbg !3704
  %220 = mul nuw i64 %219, %218, !dbg !3708
  call void @llvm.dbg.value(metadata i64 %220, metadata !3511, metadata !DIExpression()), !dbg !3704
  %221 = lshr i64 %220, 32, !dbg !3709
  %222 = trunc i64 %221 to i32, !dbg !3710
  call void @llvm.dbg.value(metadata i32 %222, metadata !3485, metadata !DIExpression()), !dbg !3711
  %223 = and i32 %210, 64, !dbg !3712
  %224 = icmp eq i32 %223, 0, !dbg !3713
  br i1 %224, label %231, label %225, !dbg !3714

225:                                              ; preds = %215
  %226 = sub i32 %208, %222, !dbg !3715
  %227 = lshr i32 %226, 1, !dbg !3716
  %228 = add i32 %227, %222, !dbg !3717
  call void @llvm.dbg.value(metadata i32 %228, metadata !3488, metadata !DIExpression()), !dbg !3718
  %229 = and i32 %210, 31, !dbg !3719
  %230 = lshr i32 %228, %229, !dbg !3720
  br label %233

231:                                              ; preds = %215
  %232 = lshr i32 %222, %210, !dbg !3721
  br label %233, !dbg !3722

233:                                              ; preds = %231, %225, %212
  %234 = phi i32 [ %214, %212 ], [ %230, %225 ], [ %232, %231 ], !dbg !3723
  call void @llvm.dbg.value(metadata i32 %234, metadata !3393, metadata !DIExpression()), !dbg !3661
  %235 = load i32, i32* %122, align 8, !dbg !3724, !tbaa !3534, !noalias !3691
  %236 = mul i32 %235, %234, !dbg !3725
  %237 = sub i32 %208, %236, !dbg !3726
  call void @llvm.dbg.value(metadata i32 %237, metadata !3394, metadata !DIExpression()), !dbg !3661
  call void @llvm.dbg.value(metadata i32 %237, metadata !3384, metadata !DIExpression()), !dbg !3659
  %238 = load %"struct.HashTable<Pair<const IPFlowID, int>, void>::elt"**, %"struct.HashTable<Pair<const IPFlowID, int>, void>::elt"*** %126, align 8, !dbg !3727, !tbaa !3539, !noalias !3691
  %239 = zext i32 %237 to i64, !dbg !3728
  %240 = getelementptr inbounds %"struct.HashTable<Pair<const IPFlowID, int>, void>::elt"*, %"struct.HashTable<Pair<const IPFlowID, int>, void>::elt"** %238, i64 %239, !dbg !3728
  call void @llvm.dbg.value(metadata %"struct.HashTable<Pair<const IPFlowID, int>, void>::elt"** %240, metadata !3385, metadata !DIExpression()), !dbg !3659
  %241 = load %"struct.HashTable<Pair<const IPFlowID, int>, void>::elt"*, %"struct.HashTable<Pair<const IPFlowID, int>, void>::elt"** %240, align 8, !dbg !3729, !tbaa !3543, !noalias !3691
  %242 = icmp eq %"struct.HashTable<Pair<const IPFlowID, int>, void>::elt"* %241, null, !dbg !3729
  br i1 %242, label %269, label %243, !dbg !3730

243:                                              ; preds = %233, %260
  %244 = phi %"struct.HashTable<Pair<const IPFlowID, int>, void>::elt"* [ %262, %260 ], [ %241, %233 ]
  call void @llvm.dbg.value(metadata %"struct.HashTable<Pair<const IPFlowID, int>, void>::elt"** undef, metadata !3385, metadata !DIExpression()), !dbg !3659
  call void @llvm.dbg.value(metadata %"struct.HashTable<Pair<const IPFlowID, int>, void>::elt"* %244, metadata !3545, metadata !DIExpression()), !dbg !3731
  call void @llvm.dbg.value(metadata %class.IPFlowID* undef, metadata !3548, metadata !DIExpression()), !dbg !3731
  call void @llvm.dbg.value(metadata %"struct.HashTable<Pair<const IPFlowID, int>, void>::elt"* %244, metadata !3552, metadata !DIExpression()), !dbg !3733
  call void @llvm.dbg.value(metadata %class.IPFlowID* undef, metadata !3557, metadata !DIExpression()), !dbg !3733
  call void @llvm.dbg.value(metadata %"struct.HashTable<Pair<const IPFlowID, int>, void>::elt"* %244, metadata !3416, metadata !DIExpression()), !dbg !3735
  %245 = getelementptr inbounds %"struct.HashTable<Pair<const IPFlowID, int>, void>::elt", %"struct.HashTable<Pair<const IPFlowID, int>, void>::elt"* %244, i64 0, i32 0, i32 0, i32 2, !dbg !3737
  %246 = load i16, i16* %245, align 4, !dbg !3737, !tbaa !3422, !noalias !3691
  call void @llvm.dbg.value(metadata %class.IPFlowID* undef, metadata !3416, metadata !DIExpression()), !dbg !3738
  %247 = icmp eq i16 %246, %176, !dbg !3740
  br i1 %247, label %248, label %260, !dbg !3741

248:                                              ; preds = %243
  call void @llvm.dbg.value(metadata %"struct.HashTable<Pair<const IPFlowID, int>, void>::elt"* %244, metadata !3434, metadata !DIExpression()), !dbg !3742
  %249 = getelementptr inbounds %"struct.HashTable<Pair<const IPFlowID, int>, void>::elt", %"struct.HashTable<Pair<const IPFlowID, int>, void>::elt"* %244, i64 0, i32 0, i32 0, i32 3, !dbg !3744
  %250 = load i16, i16* %249, align 2, !dbg !3744, !tbaa !3440, !noalias !3691
  call void @llvm.dbg.value(metadata %class.IPFlowID* undef, metadata !3434, metadata !DIExpression()), !dbg !3745
  %251 = icmp eq i16 %250, %180, !dbg !3747
  br i1 %251, label %252, label %260, !dbg !3748

252:                                              ; preds = %248
  call void @llvm.dbg.value(metadata %"struct.HashTable<Pair<const IPFlowID, int>, void>::elt"* %244, metadata !3441, metadata !DIExpression()), !dbg !3749
  %253 = getelementptr inbounds %"struct.HashTable<Pair<const IPFlowID, int>, void>::elt", %"struct.HashTable<Pair<const IPFlowID, int>, void>::elt"* %244, i64 0, i32 0, i32 0, i32 0, i32 0, !dbg !3751
  %254 = load i32, i32* %253, align 4, !dbg !3751, !tbaa.struct !3447, !noalias !3691
  call void @llvm.dbg.value(metadata %class.IPFlowID* undef, metadata !3441, metadata !DIExpression()), !dbg !3752
  call void @llvm.dbg.value(metadata i32 %254, metadata !3579, metadata !DIExpression()), !dbg !3754
  call void @llvm.dbg.value(metadata i32 %174, metadata !3584, metadata !DIExpression()), !dbg !3754
  %255 = icmp eq i32 %254, %174, !dbg !3756
  br i1 %255, label %256, label %260, !dbg !3757

256:                                              ; preds = %252
  call void @llvm.dbg.value(metadata %"struct.HashTable<Pair<const IPFlowID, int>, void>::elt"* %244, metadata !3459, metadata !DIExpression()), !dbg !3758
  %257 = getelementptr inbounds %"struct.HashTable<Pair<const IPFlowID, int>, void>::elt", %"struct.HashTable<Pair<const IPFlowID, int>, void>::elt"* %244, i64 0, i32 0, i32 0, i32 1, i32 0, !dbg !3760
  %258 = load i32, i32* %257, align 4, !dbg !3760, !tbaa.struct !3447, !noalias !3691
  call void @llvm.dbg.value(metadata %class.IPFlowID* undef, metadata !3459, metadata !DIExpression()), !dbg !3761
  call void @llvm.dbg.value(metadata i32 %258, metadata !3579, metadata !DIExpression()), !dbg !3763
  call void @llvm.dbg.value(metadata i32 %178, metadata !3584, metadata !DIExpression()), !dbg !3763
  %259 = icmp eq i32 %258, %178, !dbg !3765
  br i1 %259, label %264, label %260, !dbg !3766

260:                                              ; preds = %256, %252, %248, %243
  call void @llvm.dbg.value(metadata %"struct.HashTable<Pair<const IPFlowID, int>, void>::elt"* %244, metadata !3598, metadata !DIExpression()), !dbg !3767
  %261 = getelementptr inbounds %"struct.HashTable<Pair<const IPFlowID, int>, void>::elt", %"struct.HashTable<Pair<const IPFlowID, int>, void>::elt"* %244, i64 0, i32 1, !dbg !3769
  call void @llvm.dbg.value(metadata %"struct.HashTable<Pair<const IPFlowID, int>, void>::elt"** %261, metadata !3385, metadata !DIExpression()), !dbg !3659
  %262 = load %"struct.HashTable<Pair<const IPFlowID, int>, void>::elt"*, %"struct.HashTable<Pair<const IPFlowID, int>, void>::elt"** %261, align 8, !dbg !3729, !tbaa !3543, !noalias !3691
  %263 = icmp eq %"struct.HashTable<Pair<const IPFlowID, int>, void>::elt"* %262, null, !dbg !3729
  br i1 %263, label %269, label %243, !dbg !3730, !llvm.loop !3770

264:                                              ; preds = %256
  call void @llvm.dbg.value(metadata %"struct.HashTable<Pair<const IPFlowID, int>, void>::elt"* %244, metadata !3545, metadata !DIExpression()), !dbg !3731
  call void @llvm.dbg.value(metadata %"struct.HashTable<Pair<const IPFlowID, int>, void>::elt"* %244, metadata !3545, metadata !DIExpression()), !dbg !3731
  call void @llvm.dbg.value(metadata %"struct.HashTable<Pair<const IPFlowID, int>, void>::elt"* %244, metadata !3545, metadata !DIExpression()), !dbg !3731
  call void @llvm.dbg.value(metadata %"struct.HashTable<Pair<const IPFlowID, int>, void>::elt"* %244, metadata !3545, metadata !DIExpression()), !dbg !3731
  call void @llvm.dbg.value(metadata %"struct.HashTable<Pair<const IPFlowID, int>, void>::elt"* %244, metadata !3283, metadata !DIExpression(DW_OP_LLVM_fragment, 0, 64)), !dbg !3645
  call void @llvm.dbg.value(metadata %"struct.HashTable<Pair<const IPFlowID, int>, void>::elt"** undef, metadata !3283, metadata !DIExpression(DW_OP_LLVM_fragment, 64, 64)), !dbg !3645
  call void @llvm.dbg.value(metadata i32 %237, metadata !3283, metadata !DIExpression(DW_OP_LLVM_fragment, 128, 32)), !dbg !3645
  call void @llvm.dbg.value(metadata %class.HashTable* %58, metadata !3283, metadata !DIExpression(DW_OP_LLVM_fragment, 192, 64)), !dbg !3645
  call void @llvm.dbg.value(metadata %class.HashContainer_iterator* undef, metadata !3772, metadata !DIExpression()), !dbg !3780
  call void @llvm.dbg.value(metadata %class.HashTable* %58, metadata !3775, metadata !DIExpression()), !dbg !3780
  call void @llvm.dbg.value(metadata i32 -1, metadata !3776, metadata !DIExpression()), !dbg !3780
  call void @llvm.dbg.value(metadata %"struct.HashTable<Pair<const IPFlowID, int>, void>::elt"** null, metadata !3777, metadata !DIExpression()), !dbg !3780
  call void @llvm.dbg.value(metadata %"struct.HashTable<Pair<const IPFlowID, int>, void>::elt"* null, metadata !3778, metadata !DIExpression()), !dbg !3780
  call void @llvm.dbg.value(metadata %class.HashContainer_iterator* undef, metadata !3795, metadata !DIExpression()), !dbg !3803
  call void @llvm.dbg.value(metadata %class.HashTable* %58, metadata !3798, metadata !DIExpression()), !dbg !3803
  call void @llvm.dbg.value(metadata i32 -1, metadata !3799, metadata !DIExpression()), !dbg !3803
  call void @llvm.dbg.value(metadata %"struct.HashTable<Pair<const IPFlowID, int>, void>::elt"** null, metadata !3800, metadata !DIExpression()), !dbg !3803
  call void @llvm.dbg.value(metadata %"struct.HashTable<Pair<const IPFlowID, int>, void>::elt"* null, metadata !3801, metadata !DIExpression()), !dbg !3803
  call void @llvm.dbg.value(metadata %class.HashTable_const_iterator* undef, metadata !3805, metadata !DIExpression()), !dbg !3812
  call void @llvm.dbg.value(metadata %class.HashTable_const_iterator* undef, metadata !3811, metadata !DIExpression()), !dbg !3812
  call void @llvm.dbg.value(metadata %class.HashTable_const_iterator* undef, metadata !3814, metadata !DIExpression()), !dbg !3817
  call void @llvm.dbg.value(metadata %class.HashTable_const_iterator* undef, metadata !3613, metadata !DIExpression()), !dbg !3819
  call void @llvm.dbg.value(metadata %class.HashTable_const_iterator* undef, metadata !3814, metadata !DIExpression()), !dbg !3822
  call void @llvm.dbg.value(metadata %class.HashTable_const_iterator* undef, metadata !3613, metadata !DIExpression()), !dbg !3824
  call void @llvm.dbg.value(metadata %class.HashTable_iterator* undef, metadata !3826, metadata !DIExpression()), !dbg !3830
  %265 = getelementptr inbounds %"struct.HashTable<Pair<const IPFlowID, int>, void>::elt", %"struct.HashTable<Pair<const IPFlowID, int>, void>::elt"* %244, i64 0, i32 0, i32 1, !dbg !3832
  %266 = load i32, i32* %265, align 4, !dbg !3833, !tbaa !2760
  %267 = icmp eq i32 %266, 0, !dbg !3834
  br i1 %267, label %269, label %268, !dbg !3835

268:                                              ; preds = %264
  call void @llvm.dbg.value(metadata %class.HashTable_iterator* undef, metadata !3826, metadata !DIExpression()), !dbg !3836
  store i32 0, i32* %265, align 4, !dbg !3839, !tbaa !2760
  br label %269, !dbg !3840

269:                                              ; preds = %260, %233, %264, %268
  call void @llvm.dbg.value(metadata %class.HashTable* %58, metadata !3287, metadata !DIExpression()), !dbg !3841
  call void @llvm.dbg.value(metadata %class.IPFlowID* %4, metadata !3288, metadata !DIExpression()), !dbg !3841
  %270 = bitcast %class.HashContainer_iterator* %3 to i8*, !dbg !3842
  call void @llvm.lifetime.start.p0i8(i64 32, i8* nonnull %270) #11, !dbg !3842
  %271 = getelementptr inbounds %class.HashTable, %class.HashTable* %58, i64 0, i32 0, i32 0, !dbg !3843
  call void @llvm.dbg.value(metadata %class.HashContainer* %271, metadata !3380, metadata !DIExpression()), !dbg !3844
  call void @llvm.dbg.value(metadata %class.IPFlowID* %4, metadata !3383, metadata !DIExpression()), !dbg !3844
  call void @llvm.dbg.value(metadata %class.HashContainer* %271, metadata !3388, metadata !DIExpression()), !dbg !3846
  call void @llvm.dbg.value(metadata %class.IPFlowID* %4, metadata !3391, metadata !DIExpression()), !dbg !3846
  call void @llvm.dbg.value(metadata %class.IPFlowID* %4, metadata !3397, metadata !DIExpression()), !dbg !3848
  call void @llvm.dbg.value(metadata %class.IPFlowID* %4, metadata !3406, metadata !DIExpression()), !dbg !3850
  call void @llvm.dbg.value(metadata %class.IPFlowID* %4, metadata !3416, metadata !DIExpression()), !dbg !3852
  %272 = load i16, i16* %59, align 4, !dbg !3854, !tbaa !3422, !noalias !3855
  %273 = call i16 @llvm.bswap.i16(i16 %272) #11
  call void @llvm.dbg.value(metadata i16 %273, metadata !3409, metadata !DIExpression()), !dbg !3850
  call void @llvm.dbg.value(metadata %class.IPFlowID* %4, metadata !3434, metadata !DIExpression()), !dbg !3858
  %274 = load i16, i16* %62, align 2, !dbg !3860, !tbaa !3440, !noalias !3855
  %275 = call i16 @llvm.bswap.i16(i16 %274) #11
  call void @llvm.dbg.value(metadata i16 %275, metadata !3410, metadata !DIExpression()), !dbg !3850
  call void @llvm.dbg.value(metadata %class.IPFlowID* %4, metadata !3441, metadata !DIExpression()), !dbg !3861
  %276 = load i32, i32* %65, align 4, !dbg !3863, !tbaa.struct !3447, !noalias !3855
  call void @llvm.dbg.value(metadata %class.IPAddress* undef, metadata !3448, metadata !DIExpression()), !dbg !3864
  %277 = zext i32 %276 to i64, !dbg !3866
  call void @llvm.dbg.value(metadata i64 %277, metadata !3411, metadata !DIExpression()), !dbg !3850
  call void @llvm.dbg.value(metadata %class.IPFlowID* %4, metadata !3459, metadata !DIExpression()), !dbg !3867
  %278 = load i32, i32* %68, align 4, !dbg !3869, !tbaa.struct !3447, !noalias !3855
  call void @llvm.dbg.value(metadata %class.IPAddress* undef, metadata !3448, metadata !DIExpression()), !dbg !3870
  %279 = zext i32 %278 to i64, !dbg !3872
  call void @llvm.dbg.value(metadata i64 %279, metadata !3412, metadata !DIExpression()), !dbg !3850
  %280 = zext i16 %273 to i32, !dbg !3873
  %281 = and i32 %280, 15, !dbg !3873
  %282 = add nuw nsw i32 %281, 1, !dbg !3873
  %283 = zext i32 %282 to i64, !dbg !3873
  %284 = shl nuw nsw i64 %277, %283, !dbg !3873
  %285 = xor i32 %281, 31, !dbg !3873
  %286 = lshr i32 %276, %285, !dbg !3873
  %287 = zext i32 %286 to i64, !dbg !3873
  %288 = or i64 %284, %287, !dbg !3873
  %289 = zext i16 %275 to i32, !dbg !3874
  %290 = and i32 %289, 15, !dbg !3874
  %291 = xor i32 %290, 31, !dbg !3874
  %292 = zext i32 %291 to i64, !dbg !3874
  %293 = shl i64 %279, %292, !dbg !3874
  %294 = sub nuw nsw i32 32, %291, !dbg !3874
  %295 = lshr i32 %278, %294, !dbg !3874
  %296 = zext i32 %295 to i64, !dbg !3874
  %297 = or i64 %293, %296, !dbg !3874
  %298 = shl nuw i32 %289, 16, !dbg !3875
  %299 = or i32 %298, %280, !dbg !3876
  %300 = zext i32 %299 to i64, !dbg !3877
  %301 = xor i64 %288, %300, !dbg !3878
  %302 = xor i64 %301, %297, !dbg !3879
  %303 = trunc i64 %302 to i32, !dbg !3880
  call void @llvm.dbg.value(metadata i32 %303, metadata !3392, metadata !DIExpression()), !dbg !3846
  call void @llvm.dbg.value(metadata i32 %303, metadata !3476, metadata !DIExpression()), !dbg !3881
  call void @llvm.dbg.value(metadata %class.HashContainer* %271, metadata !3483, metadata !DIExpression(DW_OP_plus_uconst, 24, DW_OP_stack_value)), !dbg !3881
  call void @llvm.dbg.value(metadata i8 %209, metadata !3484, metadata !DIExpression()), !dbg !3881
  br i1 %211, label %304, label %307, !dbg !3883

304:                                              ; preds = %269
  %305 = and i32 %210, 31, !dbg !3884
  %306 = lshr i32 %303, %305, !dbg !3885
  br label %325, !dbg !3886

307:                                              ; preds = %269
  call void @llvm.dbg.value(metadata %class.HashContainer* %271, metadata !3483, metadata !DIExpression(DW_OP_plus_uconst, 24, DW_OP_stack_value)), !dbg !3881
  %308 = getelementptr inbounds %class.RFC2507c, %class.RFC2507c* %0, i64 0, i32 3, i32 0, i32 0, i32 0, i32 4, i32 0, !dbg !3887
  %309 = load i32, i32* %308, align 4, !dbg !3887, !tbaa !3502, !noalias !3855
  call void @llvm.dbg.value(metadata i32 %309, metadata !3503, metadata !DIExpression()), !dbg !3888
  call void @llvm.dbg.value(metadata i32 %303, metadata !3508, metadata !DIExpression()), !dbg !3888
  %310 = zext i32 %309 to i64, !dbg !3890
  call void @llvm.dbg.value(metadata i64 %310, metadata !3509, metadata !DIExpression()), !dbg !3888
  %311 = and i64 %302, 4294967295, !dbg !3891
  call void @llvm.dbg.value(metadata i64 %311, metadata !3510, metadata !DIExpression()), !dbg !3888
  %312 = mul nuw i64 %311, %310, !dbg !3892
  call void @llvm.dbg.value(metadata i64 %312, metadata !3511, metadata !DIExpression()), !dbg !3888
  %313 = lshr i64 %312, 32, !dbg !3893
  %314 = trunc i64 %313 to i32, !dbg !3894
  call void @llvm.dbg.value(metadata i32 %314, metadata !3485, metadata !DIExpression()), !dbg !3895
  %315 = and i32 %210, 64, !dbg !3896
  %316 = icmp eq i32 %315, 0, !dbg !3897
  br i1 %316, label %323, label %317, !dbg !3898

317:                                              ; preds = %307
  %318 = sub i32 %303, %314, !dbg !3899
  %319 = lshr i32 %318, 1, !dbg !3900
  %320 = add i32 %319, %314, !dbg !3901
  call void @llvm.dbg.value(metadata i32 %320, metadata !3488, metadata !DIExpression()), !dbg !3902
  %321 = and i32 %210, 31, !dbg !3903
  %322 = lshr i32 %320, %321, !dbg !3904
  br label %325

323:                                              ; preds = %307
  %324 = lshr i32 %314, %210, !dbg !3905
  br label %325, !dbg !3906

325:                                              ; preds = %323, %317, %304
  %326 = phi i32 [ %306, %304 ], [ %322, %317 ], [ %324, %323 ], !dbg !3907
  call void @llvm.dbg.value(metadata i32 %326, metadata !3393, metadata !DIExpression()), !dbg !3846
  %327 = load i32, i32* %122, align 8, !dbg !3908, !tbaa !3534, !noalias !3855
  %328 = mul i32 %327, %326, !dbg !3909
  %329 = sub i32 %303, %328, !dbg !3910
  call void @llvm.dbg.value(metadata i32 %329, metadata !3394, metadata !DIExpression()), !dbg !3846
  call void @llvm.dbg.value(metadata i32 %329, metadata !3384, metadata !DIExpression()), !dbg !3844
  %330 = zext i32 %329 to i64, !dbg !3911
  %331 = getelementptr inbounds %"struct.HashTable<Pair<const IPFlowID, int>, void>::elt"*, %"struct.HashTable<Pair<const IPFlowID, int>, void>::elt"** %238, i64 %330, !dbg !3911
  call void @llvm.dbg.value(metadata %"struct.HashTable<Pair<const IPFlowID, int>, void>::elt"** %331, metadata !3385, metadata !DIExpression()), !dbg !3844
  %332 = load %"struct.HashTable<Pair<const IPFlowID, int>, void>::elt"*, %"struct.HashTable<Pair<const IPFlowID, int>, void>::elt"** %331, align 8, !dbg !3912, !tbaa !3543, !noalias !3855
  %333 = icmp eq %"struct.HashTable<Pair<const IPFlowID, int>, void>::elt"* %332, null, !dbg !3912
  br i1 %333, label %358, label %334, !dbg !3913

334:                                              ; preds = %325, %354
  %335 = phi %"struct.HashTable<Pair<const IPFlowID, int>, void>::elt"* [ %356, %354 ], [ %332, %325 ]
  %336 = phi %"struct.HashTable<Pair<const IPFlowID, int>, void>::elt"** [ %355, %354 ], [ %331, %325 ]
  call void @llvm.dbg.value(metadata %"struct.HashTable<Pair<const IPFlowID, int>, void>::elt"** %336, metadata !3385, metadata !DIExpression()), !dbg !3844
  call void @llvm.dbg.value(metadata %"struct.HashTable<Pair<const IPFlowID, int>, void>::elt"* %335, metadata !3545, metadata !DIExpression()), !dbg !3914
  call void @llvm.dbg.value(metadata %class.IPFlowID* %4, metadata !3548, metadata !DIExpression()), !dbg !3914
  call void @llvm.dbg.value(metadata %"struct.HashTable<Pair<const IPFlowID, int>, void>::elt"* %335, metadata !3552, metadata !DIExpression()), !dbg !3916
  call void @llvm.dbg.value(metadata %class.IPFlowID* %4, metadata !3557, metadata !DIExpression()), !dbg !3916
  call void @llvm.dbg.value(metadata %"struct.HashTable<Pair<const IPFlowID, int>, void>::elt"* %335, metadata !3416, metadata !DIExpression()), !dbg !3918
  %337 = getelementptr inbounds %"struct.HashTable<Pair<const IPFlowID, int>, void>::elt", %"struct.HashTable<Pair<const IPFlowID, int>, void>::elt"* %335, i64 0, i32 0, i32 0, i32 2, !dbg !3920
  %338 = load i16, i16* %337, align 4, !dbg !3920, !tbaa !3422, !noalias !3855
  call void @llvm.dbg.value(metadata %class.IPFlowID* %4, metadata !3416, metadata !DIExpression()), !dbg !3921
  %339 = icmp eq i16 %338, %272, !dbg !3923
  br i1 %339, label %340, label %354, !dbg !3924

340:                                              ; preds = %334
  call void @llvm.dbg.value(metadata %"struct.HashTable<Pair<const IPFlowID, int>, void>::elt"* %335, metadata !3434, metadata !DIExpression()), !dbg !3925
  %341 = getelementptr inbounds %"struct.HashTable<Pair<const IPFlowID, int>, void>::elt", %"struct.HashTable<Pair<const IPFlowID, int>, void>::elt"* %335, i64 0, i32 0, i32 0, i32 3, !dbg !3927
  %342 = load i16, i16* %341, align 2, !dbg !3927, !tbaa !3440, !noalias !3855
  call void @llvm.dbg.value(metadata %class.IPFlowID* %4, metadata !3434, metadata !DIExpression()), !dbg !3928
  %343 = icmp eq i16 %342, %274, !dbg !3930
  br i1 %343, label %344, label %354, !dbg !3931

344:                                              ; preds = %340
  call void @llvm.dbg.value(metadata %"struct.HashTable<Pair<const IPFlowID, int>, void>::elt"* %335, metadata !3441, metadata !DIExpression()), !dbg !3932
  %345 = getelementptr inbounds %"struct.HashTable<Pair<const IPFlowID, int>, void>::elt", %"struct.HashTable<Pair<const IPFlowID, int>, void>::elt"* %335, i64 0, i32 0, i32 0, i32 0, i32 0, !dbg !3934
  %346 = load i32, i32* %345, align 4, !dbg !3934, !tbaa.struct !3447, !noalias !3855
  call void @llvm.dbg.value(metadata %class.IPFlowID* %4, metadata !3441, metadata !DIExpression()), !dbg !3935
  call void @llvm.dbg.value(metadata i32 %346, metadata !3579, metadata !DIExpression()), !dbg !3937
  call void @llvm.dbg.value(metadata i32 %276, metadata !3584, metadata !DIExpression()), !dbg !3937
  %347 = icmp eq i32 %346, %276, !dbg !3939
  br i1 %347, label %348, label %354, !dbg !3940

348:                                              ; preds = %344
  call void @llvm.dbg.value(metadata %"struct.HashTable<Pair<const IPFlowID, int>, void>::elt"* %335, metadata !3459, metadata !DIExpression()), !dbg !3941
  %349 = getelementptr inbounds %"struct.HashTable<Pair<const IPFlowID, int>, void>::elt", %"struct.HashTable<Pair<const IPFlowID, int>, void>::elt"* %335, i64 0, i32 0, i32 0, i32 1, i32 0, !dbg !3943
  %350 = load i32, i32* %349, align 4, !dbg !3943, !tbaa.struct !3447, !noalias !3855
  call void @llvm.dbg.value(metadata %class.IPFlowID* %4, metadata !3459, metadata !DIExpression()), !dbg !3944
  call void @llvm.dbg.value(metadata i32 %350, metadata !3579, metadata !DIExpression()), !dbg !3946
  call void @llvm.dbg.value(metadata i32 %278, metadata !3584, metadata !DIExpression()), !dbg !3946
  %351 = icmp eq i32 %350, %278, !dbg !3948
  br i1 %351, label %352, label %354, !dbg !3949

352:                                              ; preds = %348
  call void @llvm.dbg.value(metadata %"struct.HashTable<Pair<const IPFlowID, int>, void>::elt"* %335, metadata !3545, metadata !DIExpression()), !dbg !3914
  call void @llvm.dbg.value(metadata %"struct.HashTable<Pair<const IPFlowID, int>, void>::elt"** %336, metadata !3385, metadata !DIExpression()), !dbg !3844
  call void @llvm.dbg.value(metadata %"struct.HashTable<Pair<const IPFlowID, int>, void>::elt"* %335, metadata !3545, metadata !DIExpression()), !dbg !3914
  call void @llvm.dbg.value(metadata %"struct.HashTable<Pair<const IPFlowID, int>, void>::elt"** %336, metadata !3385, metadata !DIExpression()), !dbg !3844
  call void @llvm.dbg.value(metadata %"struct.HashTable<Pair<const IPFlowID, int>, void>::elt"* %335, metadata !3545, metadata !DIExpression()), !dbg !3914
  call void @llvm.dbg.value(metadata %"struct.HashTable<Pair<const IPFlowID, int>, void>::elt"** %336, metadata !3385, metadata !DIExpression()), !dbg !3844
  call void @llvm.dbg.value(metadata %"struct.HashTable<Pair<const IPFlowID, int>, void>::elt"* %335, metadata !3545, metadata !DIExpression()), !dbg !3914
  call void @llvm.dbg.value(metadata %"struct.HashTable<Pair<const IPFlowID, int>, void>::elt"** %336, metadata !3385, metadata !DIExpression()), !dbg !3844
  call void @llvm.dbg.value(metadata %"struct.HashTable<Pair<const IPFlowID, int>, void>::elt"* %335, metadata !3545, metadata !DIExpression()), !dbg !3914
  call void @llvm.dbg.value(metadata %"struct.HashTable<Pair<const IPFlowID, int>, void>::elt"** %336, metadata !3385, metadata !DIExpression()), !dbg !3844
  call void @llvm.dbg.value(metadata %"struct.HashTable<Pair<const IPFlowID, int>, void>::elt"* %335, metadata !3545, metadata !DIExpression()), !dbg !3914
  call void @llvm.dbg.value(metadata %"struct.HashTable<Pair<const IPFlowID, int>, void>::elt"** %336, metadata !3385, metadata !DIExpression()), !dbg !3844
  call void @llvm.dbg.value(metadata %"struct.HashTable<Pair<const IPFlowID, int>, void>::elt"** %336, metadata !3385, metadata !DIExpression()), !dbg !3844
  call void @llvm.dbg.value(metadata %"struct.HashTable<Pair<const IPFlowID, int>, void>::elt"** %336, metadata !3385, metadata !DIExpression()), !dbg !3844
  call void @llvm.dbg.value(metadata %"struct.HashTable<Pair<const IPFlowID, int>, void>::elt"** %336, metadata !3385, metadata !DIExpression()), !dbg !3844
  call void @llvm.dbg.value(metadata %class.HashContainer_iterator* %3, metadata !3772, metadata !DIExpression()), !dbg !3950
  call void @llvm.dbg.value(metadata %class.HashContainer* %271, metadata !3775, metadata !DIExpression()), !dbg !3950
  call void @llvm.dbg.value(metadata i32 %329, metadata !3776, metadata !DIExpression()), !dbg !3950
  call void @llvm.dbg.value(metadata %"struct.HashTable<Pair<const IPFlowID, int>, void>::elt"** %336, metadata !3777, metadata !DIExpression()), !dbg !3950
  call void @llvm.dbg.value(metadata %"struct.HashTable<Pair<const IPFlowID, int>, void>::elt"* %335, metadata !3778, metadata !DIExpression()), !dbg !3950
  call void @llvm.dbg.value(metadata %class.HashContainer_iterator* %3, metadata !3795, metadata !DIExpression()), !dbg !3952
  call void @llvm.dbg.value(metadata %class.HashContainer* %271, metadata !3798, metadata !DIExpression()), !dbg !3952
  call void @llvm.dbg.value(metadata i32 %329, metadata !3799, metadata !DIExpression()), !dbg !3952
  call void @llvm.dbg.value(metadata %"struct.HashTable<Pair<const IPFlowID, int>, void>::elt"** %336, metadata !3800, metadata !DIExpression()), !dbg !3952
  call void @llvm.dbg.value(metadata %"struct.HashTable<Pair<const IPFlowID, int>, void>::elt"* %335, metadata !3801, metadata !DIExpression()), !dbg !3952
  %353 = getelementptr inbounds %class.HashContainer_iterator, %class.HashContainer_iterator* %3, i64 0, i32 0, i32 0, !dbg !3954
  store %"struct.HashTable<Pair<const IPFlowID, int>, void>::elt"* %335, %"struct.HashTable<Pair<const IPFlowID, int>, void>::elt"** %353, align 8, !dbg !3954, !tbaa !3955, !alias.scope !3855
  br label %360, !dbg !3957

354:                                              ; preds = %348, %344, %340, %334
  call void @llvm.dbg.value(metadata %"struct.HashTable<Pair<const IPFlowID, int>, void>::elt"* %335, metadata !3598, metadata !DIExpression()), !dbg !3958
  %355 = getelementptr inbounds %"struct.HashTable<Pair<const IPFlowID, int>, void>::elt", %"struct.HashTable<Pair<const IPFlowID, int>, void>::elt"* %335, i64 0, i32 1, !dbg !3960
  call void @llvm.dbg.value(metadata %"struct.HashTable<Pair<const IPFlowID, int>, void>::elt"** %355, metadata !3385, metadata !DIExpression()), !dbg !3844
  %356 = load %"struct.HashTable<Pair<const IPFlowID, int>, void>::elt"*, %"struct.HashTable<Pair<const IPFlowID, int>, void>::elt"** %355, align 8, !dbg !3912, !tbaa !3543, !noalias !3855
  %357 = icmp eq %"struct.HashTable<Pair<const IPFlowID, int>, void>::elt"* %356, null, !dbg !3912
  br i1 %357, label %358, label %334, !dbg !3913, !llvm.loop !3961

358:                                              ; preds = %354, %325
  call void @llvm.dbg.value(metadata %class.HashContainer_iterator* %3, metadata !3772, metadata !DIExpression()), !dbg !3963
  call void @llvm.dbg.value(metadata %class.HashContainer* %271, metadata !3775, metadata !DIExpression()), !dbg !3963
  call void @llvm.dbg.value(metadata i32 %329, metadata !3776, metadata !DIExpression()), !dbg !3963
  call void @llvm.dbg.value(metadata %"struct.HashTable<Pair<const IPFlowID, int>, void>::elt"** %331, metadata !3777, metadata !DIExpression()), !dbg !3963
  call void @llvm.dbg.value(metadata %"struct.HashTable<Pair<const IPFlowID, int>, void>::elt"* null, metadata !3778, metadata !DIExpression()), !dbg !3963
  call void @llvm.dbg.value(metadata %class.HashContainer_iterator* %3, metadata !3795, metadata !DIExpression()), !dbg !3965
  call void @llvm.dbg.value(metadata %class.HashContainer* %271, metadata !3798, metadata !DIExpression()), !dbg !3965
  call void @llvm.dbg.value(metadata i32 %329, metadata !3799, metadata !DIExpression()), !dbg !3965
  call void @llvm.dbg.value(metadata %"struct.HashTable<Pair<const IPFlowID, int>, void>::elt"** %331, metadata !3800, metadata !DIExpression()), !dbg !3965
  call void @llvm.dbg.value(metadata %"struct.HashTable<Pair<const IPFlowID, int>, void>::elt"* null, metadata !3801, metadata !DIExpression()), !dbg !3965
  %359 = getelementptr inbounds %class.HashContainer_iterator, %class.HashContainer_iterator* %3, i64 0, i32 0, i32 0, !dbg !3967
  store %"struct.HashTable<Pair<const IPFlowID, int>, void>::elt"* null, %"struct.HashTable<Pair<const IPFlowID, int>, void>::elt"** %359, align 8, !dbg !3967, !tbaa !3955, !alias.scope !3855
  br label %360, !dbg !3968

360:                                              ; preds = %352, %358
  %361 = phi %"struct.HashTable<Pair<const IPFlowID, int>, void>::elt"** [ %336, %352 ], [ %331, %358 ]
  %362 = phi %"struct.HashTable<Pair<const IPFlowID, int>, void>::elt"* [ %335, %352 ], [ null, %358 ], !dbg !3969
  %363 = getelementptr inbounds %class.HashContainer_iterator, %class.HashContainer_iterator* %3, i64 0, i32 0, i32 1, !dbg !3844
  store %"struct.HashTable<Pair<const IPFlowID, int>, void>::elt"** %361, %"struct.HashTable<Pair<const IPFlowID, int>, void>::elt"*** %363, align 8, !dbg !3844, !tbaa !3971, !alias.scope !3855
  %364 = getelementptr inbounds %class.HashContainer_iterator, %class.HashContainer_iterator* %3, i64 0, i32 0, i32 2, !dbg !3844
  store i32 %329, i32* %364, align 8, !dbg !3844, !tbaa !3972, !alias.scope !3855
  %365 = getelementptr inbounds %class.HashContainer_iterator, %class.HashContainer_iterator* %3, i64 0, i32 0, i32 3, !dbg !3844
  store %class.HashContainer* %271, %class.HashContainer** %365, align 8, !dbg !3844, !tbaa !3973, !alias.scope !3855
  call void @llvm.dbg.value(metadata %class.HashContainer_iterator* %3, metadata !3613, metadata !DIExpression()), !dbg !3974
  %366 = icmp eq %"struct.HashTable<Pair<const IPFlowID, int>, void>::elt"* %362, null, !dbg !3969
  %367 = select i1 %366, { i64, i64 } zeroinitializer, { i64, i64 } { i64 ptrtoint (%"struct.HashTable<Pair<const IPFlowID, int>, void>::elt"* (%class.HashContainer_const_iterator*)* @_ZNK28HashContainer_const_iteratorIN9HashTableI4PairIK8IPFlowIDiEvE3eltE21HashContainer_adapterIS6_EE3getEv to i64), i64 0 }, !dbg !3969
  %368 = extractvalue { i64, i64 } %367, 0, !dbg !3975
  %369 = icmp eq i64 %368, 0, !dbg !3975
  br i1 %369, label %372, label %370, !dbg !3976

370:                                              ; preds = %360
  %371 = getelementptr inbounds %"struct.HashTable<Pair<const IPFlowID, int>, void>::elt", %"struct.HashTable<Pair<const IPFlowID, int>, void>::elt"* %362, i64 0, i32 0, i32 1, !dbg !3977
  store i32 %171, i32* %371, align 4, !dbg !3978, !tbaa !3979
  br label %408, !dbg !3982

372:                                              ; preds = %360
  %373 = getelementptr inbounds %class.RFC2507c, %class.RFC2507c* %0, i64 0, i32 3, i32 0, i32 1, i32 0, !dbg !3983
  call void @llvm.dbg.value(metadata %class.HashAllocator* %373, metadata !3984, metadata !DIExpression()), !dbg !3993
  %374 = getelementptr inbounds %class.HashAllocator, %class.HashAllocator* %373, i64 0, i32 0, !dbg !3995
  %375 = load %"struct.HashAllocator::link"*, %"struct.HashAllocator::link"** %374, align 8, !dbg !3995, !tbaa !3996
  call void @llvm.dbg.value(metadata %"struct.HashAllocator::link"* %375, metadata !3987, metadata !DIExpression()), !dbg !3998
  %376 = icmp eq %"struct.HashAllocator::link"* %375, null, !dbg !3999
  br i1 %376, label %382, label %377, !dbg !4000

377:                                              ; preds = %372
  %378 = bitcast %"struct.HashAllocator::link"* %375 to i64*, !dbg !4001
  %379 = load i64, i64* %378, align 8, !dbg !4001, !tbaa !4003
  %380 = bitcast %class.HashAllocator* %373 to i64*, !dbg !4005
  store i64 %379, i64* %380, align 8, !dbg !4005, !tbaa !3996
  %381 = bitcast %"struct.HashAllocator::link"* %375 to i8*, !dbg !4006
  br label %400, !dbg !4007

382:                                              ; preds = %372
  %383 = getelementptr inbounds %class.RFC2507c, %class.RFC2507c* %0, i64 0, i32 3, i32 0, i32 1, i32 0, i32 1, !dbg !4008
  %384 = load %"struct.HashAllocator::buffer"*, %"struct.HashAllocator::buffer"** %383, align 8, !dbg !4008, !tbaa !4009
  %385 = icmp eq %"struct.HashAllocator::buffer"* %384, null, !dbg !4008
  br i1 %385, label %398, label %386, !dbg !4010

386:                                              ; preds = %382
  %387 = getelementptr inbounds %"struct.HashAllocator::buffer", %"struct.HashAllocator::buffer"* %384, i64 0, i32 1, !dbg !4011
  %388 = load i64, i64* %387, align 8, !dbg !4011, !tbaa !4012
  %389 = getelementptr inbounds %"struct.HashAllocator::buffer", %"struct.HashAllocator::buffer"* %384, i64 0, i32 2, !dbg !4014
  %390 = load i64, i64* %389, align 8, !dbg !4014, !tbaa !4015
  %391 = icmp ult i64 %388, %390, !dbg !4016
  br i1 %391, label %392, label %398, !dbg !4017

392:                                              ; preds = %386
  %393 = bitcast %"struct.HashAllocator::buffer"* %384 to i8*, !dbg !4018
  %394 = getelementptr inbounds i8, i8* %393, i64 %388, !dbg !4019
  call void @llvm.dbg.value(metadata i8* %394, metadata !3989, metadata !DIExpression()), !dbg !4020
  %395 = getelementptr inbounds %class.RFC2507c, %class.RFC2507c* %0, i64 0, i32 3, i32 0, i32 1, i32 0, i32 2, !dbg !4021
  %396 = load i64, i64* %395, align 8, !dbg !4021, !tbaa !4022
  %397 = add i64 %396, %388, !dbg !4023
  store i64 %397, i64* %387, align 8, !dbg !4023, !tbaa !4012
  br label %400

398:                                              ; preds = %386, %382
  %399 = call i8* @_ZN13HashAllocator13hard_allocateEv(%class.HashAllocator* nonnull %373), !dbg !4024
  br label %400, !dbg !4025

400:                                              ; preds = %398, %392, %377
  %401 = phi i8* [ %381, %377 ], [ %394, %392 ], [ %399, %398 ], !dbg !3998
  call void @llvm.dbg.value(metadata i8* %401, metadata !3290, metadata !DIExpression()), !dbg !4026
  %402 = icmp eq i8* %401, null, !dbg !4027
  br i1 %402, label %408, label %403, !dbg !4028

403:                                              ; preds = %400
  %404 = bitcast i8* %401 to %"struct.HashTable<Pair<const IPFlowID, int>, void>::elt"*, !dbg !4029
  call void @llvm.dbg.value(metadata %"struct.HashTable<Pair<const IPFlowID, int>, void>::elt"* %404, metadata !3290, metadata !DIExpression()), !dbg !4026
  call void @llvm.dbg.value(metadata i8* %401, metadata !4030, metadata !DIExpression()) #11, !dbg !4035
  call void @llvm.dbg.value(metadata %class.IPFlowID* %4, metadata !4033, metadata !DIExpression()) #11, !dbg !4035
  call void @llvm.dbg.value(metadata i32 %171, metadata !4034, metadata !DIExpression()) #11, !dbg !4035
  call void @llvm.memcpy.p0i8.p0i8.i64(i8* nonnull align 4 dereferenceable(12) %401, i8* nonnull align 4 dereferenceable(12) %49, i64 12, i1 false) #11, !dbg !4038, !tbaa.struct !4039
  %405 = getelementptr inbounds i8, i8* %401, i64 12, !dbg !4040
  %406 = bitcast i8* %405 to i32*, !dbg !4040
  store i32 %171, i32* %406, align 4, !dbg !4040, !tbaa !4041
  %407 = call %"struct.HashTable<Pair<const IPFlowID, int>, void>::elt"* @_ZN13HashContainerIN9HashTableI4PairIK8IPFlowIDiEvE3eltE21HashContainer_adapterIS6_EE3setER22HashContainer_iteratorIS6_S8_EPS6_b(%class.HashContainer* nonnull %271, %class.HashContainer_iterator* nonnull dereferenceable(32) %3, %"struct.HashTable<Pair<const IPFlowID, int>, void>::elt"* nonnull %404, i1 zeroext true), !dbg !4042
  br label %408

408:                                              ; preds = %370, %400, %403
  call void @llvm.lifetime.end.p0i8(i64 32, i8* nonnull %270) #11, !dbg !4043
  call void @llvm.dbg.value(metadata %class.IPFlowID* %4, metadata !3416, metadata !DIExpression()), !dbg !4044
  %409 = load i16, i16* %59, align 4, !dbg !4046, !tbaa !3422
  %410 = call i16 @llvm.bswap.i16(i16 %409) #11
  %411 = zext i16 %410 to i32, !dbg !4047
  call void @llvm.dbg.value(metadata %class.IPFlowID* %4, metadata !3434, metadata !DIExpression()), !dbg !4048
  %412 = load i16, i16* %62, align 2, !dbg !4050, !tbaa !3440
  %413 = call i16 @llvm.bswap.i16(i16 %412) #11
  %414 = zext i16 %413 to i32, !dbg !4051
  call void @llvm.dbg.value(metadata i32 %171, metadata !3274, metadata !DIExpression()), !dbg !3296
  call void (i8*, ...) @click_chatter(i8* getelementptr inbounds ([31 x i8], [31 x i8]* @.str.9, i64 0, i64 0), i32 %411, i32 %414, i32 %171), !dbg !4052
  call void @llvm.dbg.value(metadata i32 %171, metadata !3274, metadata !DIExpression()), !dbg !3296
  call void @llvm.dbg.value(metadata %class.RFC2507c* undef, metadata !2706, metadata !DIExpression()), !dbg !4053
  call void @llvm.dbg.value(metadata i32 %171, metadata !2707, metadata !DIExpression()), !dbg !4053
  call void @llvm.dbg.value(metadata %class.Packet* %1, metadata !2708, metadata !DIExpression()), !dbg !4053
  %415 = call i32 @_ZNK6Packet6lengthEv(%class.Packet* %1), !dbg !4055
  %416 = add i32 %415, 2, !dbg !4056
  call void @llvm.dbg.value(metadata i32 %416, metadata !2688, metadata !DIExpression()), !dbg !4057
  %417 = call %class.WritablePacket* @_ZN6Packet4makeEjPKvjj(i32 28, i8* null, i32 %416, i32 0), !dbg !4059
  call void @llvm.dbg.value(metadata %class.WritablePacket* %417, metadata !2709, metadata !DIExpression()), !dbg !4053
  %418 = call i8* @_ZNK14WritablePacket4dataEv(%class.WritablePacket* %417), !dbg !4060
  store i8 1, i8* %418, align 1, !dbg !4061, !tbaa !2696
  %419 = trunc i32 %171 to i8, !dbg !4062
  %420 = call i8* @_ZNK14WritablePacket4dataEv(%class.WritablePacket* %417), !dbg !4063
  %421 = getelementptr inbounds i8, i8* %420, i64 1, !dbg !4063
  store i8 %419, i8* %421, align 1, !dbg !4064, !tbaa !2696
  %422 = call i8* @_ZNK14WritablePacket4dataEv(%class.WritablePacket* %417), !dbg !4065
  %423 = getelementptr inbounds i8, i8* %422, i64 2, !dbg !4066
  %424 = call i8* @_ZNK6Packet4dataEv(%class.Packet* %1), !dbg !4067
  %425 = call i32 @_ZNK6Packet6lengthEv(%class.Packet* %1), !dbg !4068
  %426 = zext i32 %425 to i64, !dbg !4069
  call void @llvm.memcpy.p0i8.p0i8.i64(i8* nonnull align 1 %423, i8* align 1 %424, i64 %426, i1 false), !dbg !4070
  %427 = getelementptr %class.WritablePacket, %class.WritablePacket* %417, i64 0, i32 0, !dbg !4071
  call void @llvm.dbg.value(metadata %class.Packet* %427, metadata !3275, metadata !DIExpression()), !dbg !3296
  call void @llvm.dbg.value(metadata i32 %171, metadata !3274, metadata !DIExpression()), !dbg !3296
  br label %428

428:                                              ; preds = %408, %167
  %429 = phi i64 [ %172, %408 ], [ %169, %167 ]
  %430 = phi %class.Packet* [ %427, %408 ], [ %168, %167 ], !dbg !4072
  %431 = getelementptr inbounds %class.RFC2507c, %class.RFC2507c* %0, i64 0, i32 1, i64 %429, i32 0, i32 0, i32 0, !dbg !4072
  call void @llvm.memcpy.p0i8.p0i8.i64(i8* nonnull align 4 dereferenceable(12) %431, i8* nonnull align 4 dereferenceable(12) %50, i64 12, i1 false), !dbg !4072
  %432 = getelementptr inbounds i8, i8* %431, i64 12, !dbg !4072
  %433 = bitcast i8* %432 to i32*, !dbg !4072
  store i32 %53, i32* %433, align 4, !dbg !4072
  %434 = getelementptr inbounds i8, i8* %431, i64 16, !dbg !4072
  call void @llvm.memcpy.p0i8.p0i8.i64(i8* nonnull align 4 dereferenceable(24) %434, i8* nonnull align 4 dereferenceable(24) %51, i64 24, i1 false), !dbg !4072
  call void @llvm.dbg.value(metadata %class.Packet* %430, metadata !3275, metadata !DIExpression()), !dbg !3296
  call void @llvm.lifetime.end.p0i8(i64 12, i8* nonnull %50), !dbg !4073
  call void @llvm.lifetime.end.p0i8(i64 24, i8* nonnull %51), !dbg !4073
  call void @llvm.lifetime.end.p0i8(i64 12, i8* nonnull %49) #11, !dbg !4073
  br label %435

435:                                              ; preds = %428, %37
  %436 = phi %class.Packet* [ %47, %37 ], [ %430, %428 ], !dbg !4074
  call void @llvm.dbg.value(metadata %class.Packet* %436, metadata !3275, metadata !DIExpression()), !dbg !3296
  call void @_ZN6Packet4killEv(%class.Packet* %1), !dbg !4075
  ret %class.Packet* %436, !dbg !4076
}

declare zeroext i1 @_ZNK6Packet18has_network_headerEv(%class.Packet*) local_unnamed_addr #2

; Function Attrs: noreturn nounwind
declare void @__assert_fail(i8*, i8*, i32, i8*) local_unnamed_addr #9

declare void @_ZN8IPFlowIDC1EPK6Packetb(%class.IPFlowID*, %class.Packet*, i1 zeroext) unnamed_addr #2

declare !dbg !1963 i32 @_Z12click_randomjj(i32, i32) local_unnamed_addr #2

declare void @_ZN6Packet4killEv(%class.Packet*) local_unnamed_addr #2

declare void @_ZN7Element4pushEiP6Packet(%class.Element*, i32, %class.Packet*) unnamed_addr #2

declare %class.Packet* @_ZN7Element4pullEi(%class.Element*, i32) unnamed_addr #2

declare zeroext i1 @_ZN7Element8run_taskEP4Task(%class.Element*, %class.Task*) unnamed_addr #2

declare void @_ZN7Element9run_timerEP5Timer(%class.Element*, %class.Timer*) unnamed_addr #2

declare void @_ZN7Element8selectedEii(%class.Element*, i32, i32) unnamed_addr #2

declare void @_ZN7Element8selectedEi(%class.Element*, i32) unnamed_addr #2

; Function Attrs: nounwind sspstrong uwtable
define linkonce_odr dso_local i8* @_ZNK8RFC2507c10class_nameEv(%class.RFC2507c* %0) unnamed_addr #4 comdat align 2 !dbg !4077 {
  call void @llvm.dbg.value(metadata %class.RFC2507c* %0, metadata !4079, metadata !DIExpression()), !dbg !4081
  ret i8* getelementptr inbounds ([12 x i8], [12 x i8]* @.str.10, i64 0, i64 0), !dbg !4082
}

; Function Attrs: nounwind sspstrong uwtable
define linkonce_odr dso_local i8* @_ZNK8RFC2507c10port_countEv(%class.RFC2507c* %0) unnamed_addr #4 comdat align 2 !dbg !4083 {
  call void @llvm.dbg.value(metadata %class.RFC2507c* %0, metadata !4085, metadata !DIExpression()), !dbg !4086
  ret i8* getelementptr inbounds ([0 x i8], [0 x i8]* @_ZN7Element9PORTS_1_1E, i64 0, i64 0), !dbg !4087
}

declare i8* @_ZNK7Element10processingEv(%class.Element*) unnamed_addr #2

declare i8* @_ZNK7Element9flow_codeEv(%class.Element*) unnamed_addr #2

declare i8* @_ZNK7Element5flagsEv(%class.Element*) unnamed_addr #2

declare i8* @_ZN7Element4castEPKc(%class.Element*, i8*) unnamed_addr #2

declare i8* @_ZN7Element9port_castEbiPKc(%class.Element*, i1 zeroext, i32, i8*) unnamed_addr #2

declare i32 @_ZNK7Element15configure_phaseEv(%class.Element*) unnamed_addr #2

declare i32 @_ZN7Element9configureER6VectorI6StringEP12ErrorHandler(%class.Element*, %class.Vector* nonnull, %class.ErrorHandler*) unnamed_addr #2

declare void @_ZN7Element12add_handlersEv(%class.Element*) unnamed_addr #2

declare i32 @_ZN7Element10initializeEP12ErrorHandler(%class.Element*, %class.ErrorHandler*) unnamed_addr #2

declare void @_ZN7Element10take_stateEPS_P12ErrorHandler(%class.Element*, %class.Element*, %class.ErrorHandler*) unnamed_addr #2

declare %class.Element* @_ZNK7Element15hotswap_elementEv(%class.Element*) unnamed_addr #2

declare void @_ZN7Element7cleanupENS_12CleanupStageE(%class.Element*, i32) unnamed_addr #2

declare void @_ZNK7Element11declarationEv(%class.String* sret, %class.Element*) unnamed_addr #2

declare zeroext i1 @_ZNK7Element20can_live_reconfigureEv(%class.Element*) unnamed_addr #2

declare i32 @_ZN7Element16live_reconfigureER6VectorI6StringEP12ErrorHandler(%class.Element*, %class.Vector* nonnull, %class.ErrorHandler*) unnamed_addr #2

declare i32 @_ZN7Element5llrpcEjPv(%class.Element*, i32, i8*) unnamed_addr #2

declare %class.WritablePacket* @_ZN6Packet4makeEjPKvjj(i32, i8*, i32, i32) local_unnamed_addr #2

declare i8* @_ZNK6Packet16transport_headerEv(%class.Packet*) local_unnamed_addr #2

declare i8* @_ZNK6Packet14network_headerEv(%class.Packet*) local_unnamed_addr #2

; Function Attrs: sspstrong uwtable
define linkonce_odr dso_local void @_ZN9HashTableI4PairIK8IPFlowIDiEvEC2Ev(%class.HashTable.0* %0) unnamed_addr #0 comdat align 2 personality i8* bitcast (i32 (...)* @__gxx_personality_v0 to i8*) !dbg !4088 {
  call void @llvm.dbg.value(metadata %class.HashTable.0* %0, metadata !4090, metadata !DIExpression()), !dbg !4091
  call void @llvm.dbg.value(metadata %class.HashTable.0* %0, metadata !4092, metadata !DIExpression()), !dbg !4098
  %2 = getelementptr inbounds %class.HashTable.0, %class.HashTable.0* %0, i64 0, i32 0, i32 0, i32 3, !dbg !4100
  store i64 0, i64* %2, align 8, !dbg !4101, !tbaa !4102
  %3 = getelementptr inbounds %class.HashTable.0, %class.HashTable.0* %0, i64 0, i32 0, i32 0, i32 1, !dbg !4103
  store i32 63, i32* %3, align 8, !dbg !4104, !tbaa !3534
  %4 = tail call dereferenceable(504) i8* @_Znam(i64 504) #14, !dbg !4105
  %5 = getelementptr inbounds %class.HashTable.0, %class.HashTable.0* %0, i64 0, i32 0, i32 0, i32 0, !dbg !4106
  %6 = bitcast %class.HashTable.0* %0 to i8**, !dbg !4107
  store i8* %4, i8** %6, align 8, !dbg !4107, !tbaa !3539
  %7 = getelementptr inbounds %class.HashTable.0, %class.HashTable.0* %0, i64 0, i32 0, i32 0, i32 2, !dbg !4108
  store i32 63, i32* %7, align 4, !dbg !4109, !tbaa !4110
  call void @llvm.dbg.value(metadata i32 63, metadata !4111, metadata !DIExpression()) #11, !dbg !4116
  call void @llvm.dbg.value(metadata i32 63, metadata !4118, metadata !DIExpression()) #11, !dbg !4135
  call void @llvm.dbg.value(metadata i32 0, metadata !4123, metadata !DIExpression()) #11, !dbg !4135
  call void @llvm.dbg.value(metadata i32 5, metadata !4125, metadata !DIExpression()) #11, !dbg !4135
  call void @llvm.dbg.value(metadata i32 32, metadata !4137, metadata !DIExpression()) #11, !dbg !4146
  call void @llvm.dbg.value(metadata i32 0, metadata !4142, metadata !DIExpression()) #11, !dbg !4146
  call void @llvm.dbg.value(metadata i32 63, metadata !4143, metadata !DIExpression()) #11, !dbg !4146
  %8 = tail call { i32, i32 } asm "divl $2", "={ax},={dx},r,{ax},{dx},~{dirflag},~{fpsr},~{flags}"(i32 63, i32 0, i32 32) #15, !dbg !4148, !srcloc !4149
  %9 = extractvalue { i32, i32 } %8, 0, !dbg !4148
  %10 = extractvalue { i32, i32 } %8, 1, !dbg !4148
  call void @llvm.dbg.value(metadata i32 %9, metadata !4145, metadata !DIExpression()) #11, !dbg !4146
  call void @llvm.dbg.value(metadata i32 %9, metadata !4130, metadata !DIExpression()) #11, !dbg !4150
  call void @llvm.dbg.value(metadata i32 %10, metadata !4129, metadata !DIExpression()) #11, !dbg !4150
  %11 = add i32 %10, -1, !dbg !4151
  %12 = icmp ult i32 %11, 62, !dbg !4151
  br i1 %12, label %14, label %13, !dbg !4151

13:                                               ; preds = %1
  tail call void @__assert_fail(i8* getelementptr inbounds ([19 x i8], [19 x i8]* @.str.13, i64 0, i64 0), i8* getelementptr inbounds ([31 x i8], [31 x i8]* @.str.12, i64 0, i64 0), i32 209, i8* getelementptr inbounds ([65 x i8], [65 x i8]* @__PRETTY_FUNCTION__._ZL26libdivide_internal_u32_genji, i64 0, i64 0)) #13, !dbg !4151
  unreachable, !dbg !4151

14:                                               ; preds = %1
  call void @llvm.dbg.value(metadata i32 undef, metadata !4131, metadata !DIExpression()) #11, !dbg !4150
  call void @llvm.dbg.value(metadata i32 undef, metadata !4131, metadata !DIExpression()) #11, !dbg !4150
  %15 = icmp ugt i32 %10, 31, !dbg !4152
  br i1 %15, label %22, label %16, !dbg !4153

16:                                               ; preds = %14
  %17 = shl i32 %9, 1, !dbg !4154
  call void @llvm.dbg.value(metadata i32 %17, metadata !4130, metadata !DIExpression()) #11, !dbg !4150
  call void @llvm.dbg.value(metadata i32 %10, metadata !4129, metadata !DIExpression()) #11, !dbg !4150
  %18 = shl nuw nsw i32 %10, 1, !dbg !4155
  call void @llvm.dbg.value(metadata i32 %18, metadata !4132, metadata !DIExpression()) #11, !dbg !4156
  %19 = icmp ult i32 %18, %10, !dbg !4157
  %20 = zext i1 %19 to i32, !dbg !4159
  %21 = or i32 %17, %20, !dbg !4159
  call void @llvm.dbg.value(metadata i32 %21, metadata !4130, metadata !DIExpression()) #11, !dbg !4150
  call void @llvm.dbg.value(metadata i32 5, metadata !4126, metadata !DIExpression(DW_OP_LLVM_convert, 32, DW_ATE_unsigned, DW_OP_LLVM_convert, 8, DW_ATE_unsigned, DW_OP_constu, 64, DW_OP_or, DW_OP_stack_value)) #11, !dbg !4150
  br label %22

22:                                               ; preds = %16, %14
  %23 = phi i64 [ 296352743424, %16 ], [ 21474836480, %14 ]
  %24 = phi i32 [ %21, %16 ], [ %9, %14 ], !dbg !4150
  call void @llvm.dbg.value(metadata i32 %24, metadata !4130, metadata !DIExpression()) #11, !dbg !4150
  call void @llvm.dbg.value(metadata i8 undef, metadata !4126, metadata !DIExpression()) #11, !dbg !4150
  %25 = add i32 %24, 1, !dbg !4160
  call void @llvm.dbg.value(metadata i32 %25, metadata !4124, metadata !DIExpression(DW_OP_LLVM_fragment, 0, 32)) #11, !dbg !4135
  call void @llvm.dbg.value(metadata i8 undef, metadata !4124, metadata !DIExpression(DW_OP_LLVM_fragment, 32, 8)) #11, !dbg !4135
  %26 = zext i32 %25 to i64
  call void @llvm.dbg.value(metadata i32 undef, metadata !4124, metadata !DIExpression(DW_OP_LLVM_fragment, 0, 32)) #11, !dbg !4135
  call void @llvm.dbg.value(metadata i32 undef, metadata !4124, metadata !DIExpression(DW_OP_LLVM_fragment, 32, 8)) #11, !dbg !4135
  %27 = or i64 %23, %26, !dbg !4161
  %28 = getelementptr inbounds %class.HashTable.0, %class.HashTable.0* %0, i64 0, i32 0, i32 0, i32 4, !dbg !4162
  %29 = bitcast %struct.libdivide_u32_t* %28 to i64*, !dbg !4162
  store i64 %27, i64* %29, align 8, !dbg !4162, !tbaa.struct !4163
  call void @llvm.dbg.value(metadata i64 0, metadata !4095, metadata !DIExpression()), !dbg !4164
  call void @llvm.dbg.value(metadata i64 1, metadata !4095, metadata !DIExpression()), !dbg !4164
  call void @llvm.dbg.value(metadata i64 2, metadata !4095, metadata !DIExpression()), !dbg !4164
  call void @llvm.dbg.value(metadata i64 3, metadata !4095, metadata !DIExpression()), !dbg !4164
  call void @llvm.dbg.value(metadata i64 4, metadata !4095, metadata !DIExpression()), !dbg !4164
  call void @llvm.dbg.value(metadata i64 5, metadata !4095, metadata !DIExpression()), !dbg !4164
  call void @llvm.dbg.value(metadata i64 6, metadata !4095, metadata !DIExpression()), !dbg !4164
  call void @llvm.dbg.value(metadata i64 7, metadata !4095, metadata !DIExpression()), !dbg !4164
  call void @llvm.dbg.value(metadata i64 8, metadata !4095, metadata !DIExpression()), !dbg !4164
  call void @llvm.dbg.value(metadata i64 9, metadata !4095, metadata !DIExpression()), !dbg !4164
  call void @llvm.dbg.value(metadata i64 10, metadata !4095, metadata !DIExpression()), !dbg !4164
  call void @llvm.dbg.value(metadata i64 11, metadata !4095, metadata !DIExpression()), !dbg !4164
  call void @llvm.dbg.value(metadata i64 12, metadata !4095, metadata !DIExpression()), !dbg !4164
  call void @llvm.dbg.value(metadata i64 13, metadata !4095, metadata !DIExpression()), !dbg !4164
  call void @llvm.dbg.value(metadata i64 14, metadata !4095, metadata !DIExpression()), !dbg !4164
  call void @llvm.dbg.value(metadata i64 15, metadata !4095, metadata !DIExpression()), !dbg !4164
  call void @llvm.dbg.value(metadata i64 16, metadata !4095, metadata !DIExpression()), !dbg !4164
  call void @llvm.dbg.value(metadata i64 17, metadata !4095, metadata !DIExpression()), !dbg !4164
  call void @llvm.dbg.value(metadata i64 18, metadata !4095, metadata !DIExpression()), !dbg !4164
  call void @llvm.dbg.value(metadata i64 19, metadata !4095, metadata !DIExpression()), !dbg !4164
  call void @llvm.dbg.value(metadata i64 20, metadata !4095, metadata !DIExpression()), !dbg !4164
  call void @llvm.dbg.value(metadata i64 21, metadata !4095, metadata !DIExpression()), !dbg !4164
  call void @llvm.dbg.value(metadata i64 22, metadata !4095, metadata !DIExpression()), !dbg !4164
  call void @llvm.dbg.value(metadata i64 23, metadata !4095, metadata !DIExpression()), !dbg !4164
  call void @llvm.dbg.value(metadata i64 24, metadata !4095, metadata !DIExpression()), !dbg !4164
  call void @llvm.dbg.value(metadata i64 25, metadata !4095, metadata !DIExpression()), !dbg !4164
  call void @llvm.dbg.value(metadata i64 26, metadata !4095, metadata !DIExpression()), !dbg !4164
  call void @llvm.dbg.value(metadata i64 27, metadata !4095, metadata !DIExpression()), !dbg !4164
  call void @llvm.dbg.value(metadata i64 28, metadata !4095, metadata !DIExpression()), !dbg !4164
  call void @llvm.dbg.value(metadata i64 29, metadata !4095, metadata !DIExpression()), !dbg !4164
  call void @llvm.dbg.value(metadata i64 30, metadata !4095, metadata !DIExpression()), !dbg !4164
  call void @llvm.dbg.value(metadata i64 31, metadata !4095, metadata !DIExpression()), !dbg !4164
  call void @llvm.dbg.value(metadata i64 32, metadata !4095, metadata !DIExpression()), !dbg !4164
  call void @llvm.dbg.value(metadata i64 33, metadata !4095, metadata !DIExpression()), !dbg !4164
  call void @llvm.dbg.value(metadata i64 34, metadata !4095, metadata !DIExpression()), !dbg !4164
  call void @llvm.dbg.value(metadata i64 35, metadata !4095, metadata !DIExpression()), !dbg !4164
  call void @llvm.dbg.value(metadata i64 36, metadata !4095, metadata !DIExpression()), !dbg !4164
  call void @llvm.dbg.value(metadata i64 37, metadata !4095, metadata !DIExpression()), !dbg !4164
  call void @llvm.dbg.value(metadata i64 38, metadata !4095, metadata !DIExpression()), !dbg !4164
  call void @llvm.dbg.value(metadata i64 39, metadata !4095, metadata !DIExpression()), !dbg !4164
  call void @llvm.dbg.value(metadata i64 40, metadata !4095, metadata !DIExpression()), !dbg !4164
  call void @llvm.dbg.value(metadata i64 41, metadata !4095, metadata !DIExpression()), !dbg !4164
  call void @llvm.dbg.value(metadata i64 42, metadata !4095, metadata !DIExpression()), !dbg !4164
  call void @llvm.dbg.value(metadata i64 43, metadata !4095, metadata !DIExpression()), !dbg !4164
  call void @llvm.dbg.value(metadata i64 44, metadata !4095, metadata !DIExpression()), !dbg !4164
  call void @llvm.dbg.value(metadata i64 45, metadata !4095, metadata !DIExpression()), !dbg !4164
  call void @llvm.dbg.value(metadata i64 46, metadata !4095, metadata !DIExpression()), !dbg !4164
  call void @llvm.dbg.value(metadata i64 47, metadata !4095, metadata !DIExpression()), !dbg !4164
  call void @llvm.memset.p0i8.i64(i8* nonnull align 8 dereferenceable(376) %4, i8 0, i64 376, i1 false), !dbg !4165
  %30 = load %"struct.HashTable<Pair<const IPFlowID, int>, void>::elt"**, %"struct.HashTable<Pair<const IPFlowID, int>, void>::elt"*** %5, align 8, !dbg !4167, !tbaa !3539
  %31 = getelementptr inbounds %"struct.HashTable<Pair<const IPFlowID, int>, void>::elt"*, %"struct.HashTable<Pair<const IPFlowID, int>, void>::elt"** %30, i64 47, !dbg !4168
  store %"struct.HashTable<Pair<const IPFlowID, int>, void>::elt"* null, %"struct.HashTable<Pair<const IPFlowID, int>, void>::elt"** %31, align 8, !dbg !4165, !tbaa !3543
  call void @llvm.dbg.value(metadata i64 48, metadata !4095, metadata !DIExpression()), !dbg !4164
  %32 = load %"struct.HashTable<Pair<const IPFlowID, int>, void>::elt"**, %"struct.HashTable<Pair<const IPFlowID, int>, void>::elt"*** %5, align 8, !dbg !4167, !tbaa !3539
  %33 = getelementptr inbounds %"struct.HashTable<Pair<const IPFlowID, int>, void>::elt"*, %"struct.HashTable<Pair<const IPFlowID, int>, void>::elt"** %32, i64 48, !dbg !4168
  store %"struct.HashTable<Pair<const IPFlowID, int>, void>::elt"* null, %"struct.HashTable<Pair<const IPFlowID, int>, void>::elt"** %33, align 8, !dbg !4165, !tbaa !3543
  call void @llvm.dbg.value(metadata i64 49, metadata !4095, metadata !DIExpression()), !dbg !4164
  %34 = load %"struct.HashTable<Pair<const IPFlowID, int>, void>::elt"**, %"struct.HashTable<Pair<const IPFlowID, int>, void>::elt"*** %5, align 8, !dbg !4167, !tbaa !3539
  %35 = getelementptr inbounds %"struct.HashTable<Pair<const IPFlowID, int>, void>::elt"*, %"struct.HashTable<Pair<const IPFlowID, int>, void>::elt"** %34, i64 49, !dbg !4168
  store %"struct.HashTable<Pair<const IPFlowID, int>, void>::elt"* null, %"struct.HashTable<Pair<const IPFlowID, int>, void>::elt"** %35, align 8, !dbg !4165, !tbaa !3543
  call void @llvm.dbg.value(metadata i64 50, metadata !4095, metadata !DIExpression()), !dbg !4164
  %36 = load %"struct.HashTable<Pair<const IPFlowID, int>, void>::elt"**, %"struct.HashTable<Pair<const IPFlowID, int>, void>::elt"*** %5, align 8, !dbg !4167, !tbaa !3539
  %37 = getelementptr inbounds %"struct.HashTable<Pair<const IPFlowID, int>, void>::elt"*, %"struct.HashTable<Pair<const IPFlowID, int>, void>::elt"** %36, i64 50, !dbg !4168
  store %"struct.HashTable<Pair<const IPFlowID, int>, void>::elt"* null, %"struct.HashTable<Pair<const IPFlowID, int>, void>::elt"** %37, align 8, !dbg !4165, !tbaa !3543
  call void @llvm.dbg.value(metadata i64 51, metadata !4095, metadata !DIExpression()), !dbg !4164
  %38 = load %"struct.HashTable<Pair<const IPFlowID, int>, void>::elt"**, %"struct.HashTable<Pair<const IPFlowID, int>, void>::elt"*** %5, align 8, !dbg !4167, !tbaa !3539
  %39 = getelementptr inbounds %"struct.HashTable<Pair<const IPFlowID, int>, void>::elt"*, %"struct.HashTable<Pair<const IPFlowID, int>, void>::elt"** %38, i64 51, !dbg !4168
  store %"struct.HashTable<Pair<const IPFlowID, int>, void>::elt"* null, %"struct.HashTable<Pair<const IPFlowID, int>, void>::elt"** %39, align 8, !dbg !4165, !tbaa !3543
  call void @llvm.dbg.value(metadata i64 52, metadata !4095, metadata !DIExpression()), !dbg !4164
  %40 = load %"struct.HashTable<Pair<const IPFlowID, int>, void>::elt"**, %"struct.HashTable<Pair<const IPFlowID, int>, void>::elt"*** %5, align 8, !dbg !4167, !tbaa !3539
  %41 = getelementptr inbounds %"struct.HashTable<Pair<const IPFlowID, int>, void>::elt"*, %"struct.HashTable<Pair<const IPFlowID, int>, void>::elt"** %40, i64 52, !dbg !4168
  store %"struct.HashTable<Pair<const IPFlowID, int>, void>::elt"* null, %"struct.HashTable<Pair<const IPFlowID, int>, void>::elt"** %41, align 8, !dbg !4165, !tbaa !3543
  call void @llvm.dbg.value(metadata i64 53, metadata !4095, metadata !DIExpression()), !dbg !4164
  %42 = load %"struct.HashTable<Pair<const IPFlowID, int>, void>::elt"**, %"struct.HashTable<Pair<const IPFlowID, int>, void>::elt"*** %5, align 8, !dbg !4167, !tbaa !3539
  %43 = getelementptr inbounds %"struct.HashTable<Pair<const IPFlowID, int>, void>::elt"*, %"struct.HashTable<Pair<const IPFlowID, int>, void>::elt"** %42, i64 53, !dbg !4168
  store %"struct.HashTable<Pair<const IPFlowID, int>, void>::elt"* null, %"struct.HashTable<Pair<const IPFlowID, int>, void>::elt"** %43, align 8, !dbg !4165, !tbaa !3543
  call void @llvm.dbg.value(metadata i64 54, metadata !4095, metadata !DIExpression()), !dbg !4164
  %44 = load %"struct.HashTable<Pair<const IPFlowID, int>, void>::elt"**, %"struct.HashTable<Pair<const IPFlowID, int>, void>::elt"*** %5, align 8, !dbg !4167, !tbaa !3539
  %45 = getelementptr inbounds %"struct.HashTable<Pair<const IPFlowID, int>, void>::elt"*, %"struct.HashTable<Pair<const IPFlowID, int>, void>::elt"** %44, i64 54, !dbg !4168
  store %"struct.HashTable<Pair<const IPFlowID, int>, void>::elt"* null, %"struct.HashTable<Pair<const IPFlowID, int>, void>::elt"** %45, align 8, !dbg !4165, !tbaa !3543
  call void @llvm.dbg.value(metadata i64 55, metadata !4095, metadata !DIExpression()), !dbg !4164
  %46 = load %"struct.HashTable<Pair<const IPFlowID, int>, void>::elt"**, %"struct.HashTable<Pair<const IPFlowID, int>, void>::elt"*** %5, align 8, !dbg !4167, !tbaa !3539
  %47 = getelementptr inbounds %"struct.HashTable<Pair<const IPFlowID, int>, void>::elt"*, %"struct.HashTable<Pair<const IPFlowID, int>, void>::elt"** %46, i64 55, !dbg !4168
  store %"struct.HashTable<Pair<const IPFlowID, int>, void>::elt"* null, %"struct.HashTable<Pair<const IPFlowID, int>, void>::elt"** %47, align 8, !dbg !4165, !tbaa !3543
  call void @llvm.dbg.value(metadata i64 56, metadata !4095, metadata !DIExpression()), !dbg !4164
  %48 = load %"struct.HashTable<Pair<const IPFlowID, int>, void>::elt"**, %"struct.HashTable<Pair<const IPFlowID, int>, void>::elt"*** %5, align 8, !dbg !4167, !tbaa !3539
  %49 = getelementptr inbounds %"struct.HashTable<Pair<const IPFlowID, int>, void>::elt"*, %"struct.HashTable<Pair<const IPFlowID, int>, void>::elt"** %48, i64 56, !dbg !4168
  store %"struct.HashTable<Pair<const IPFlowID, int>, void>::elt"* null, %"struct.HashTable<Pair<const IPFlowID, int>, void>::elt"** %49, align 8, !dbg !4165, !tbaa !3543
  call void @llvm.dbg.value(metadata i64 57, metadata !4095, metadata !DIExpression()), !dbg !4164
  %50 = load %"struct.HashTable<Pair<const IPFlowID, int>, void>::elt"**, %"struct.HashTable<Pair<const IPFlowID, int>, void>::elt"*** %5, align 8, !dbg !4167, !tbaa !3539
  %51 = getelementptr inbounds %"struct.HashTable<Pair<const IPFlowID, int>, void>::elt"*, %"struct.HashTable<Pair<const IPFlowID, int>, void>::elt"** %50, i64 57, !dbg !4168
  store %"struct.HashTable<Pair<const IPFlowID, int>, void>::elt"* null, %"struct.HashTable<Pair<const IPFlowID, int>, void>::elt"** %51, align 8, !dbg !4165, !tbaa !3543
  call void @llvm.dbg.value(metadata i64 58, metadata !4095, metadata !DIExpression()), !dbg !4164
  %52 = load %"struct.HashTable<Pair<const IPFlowID, int>, void>::elt"**, %"struct.HashTable<Pair<const IPFlowID, int>, void>::elt"*** %5, align 8, !dbg !4167, !tbaa !3539
  %53 = getelementptr inbounds %"struct.HashTable<Pair<const IPFlowID, int>, void>::elt"*, %"struct.HashTable<Pair<const IPFlowID, int>, void>::elt"** %52, i64 58, !dbg !4168
  store %"struct.HashTable<Pair<const IPFlowID, int>, void>::elt"* null, %"struct.HashTable<Pair<const IPFlowID, int>, void>::elt"** %53, align 8, !dbg !4165, !tbaa !3543
  call void @llvm.dbg.value(metadata i64 59, metadata !4095, metadata !DIExpression()), !dbg !4164
  %54 = load %"struct.HashTable<Pair<const IPFlowID, int>, void>::elt"**, %"struct.HashTable<Pair<const IPFlowID, int>, void>::elt"*** %5, align 8, !dbg !4167, !tbaa !3539
  %55 = getelementptr inbounds %"struct.HashTable<Pair<const IPFlowID, int>, void>::elt"*, %"struct.HashTable<Pair<const IPFlowID, int>, void>::elt"** %54, i64 59, !dbg !4168
  store %"struct.HashTable<Pair<const IPFlowID, int>, void>::elt"* null, %"struct.HashTable<Pair<const IPFlowID, int>, void>::elt"** %55, align 8, !dbg !4165, !tbaa !3543
  call void @llvm.dbg.value(metadata i64 60, metadata !4095, metadata !DIExpression()), !dbg !4164
  %56 = load %"struct.HashTable<Pair<const IPFlowID, int>, void>::elt"**, %"struct.HashTable<Pair<const IPFlowID, int>, void>::elt"*** %5, align 8, !dbg !4167, !tbaa !3539
  %57 = getelementptr inbounds %"struct.HashTable<Pair<const IPFlowID, int>, void>::elt"*, %"struct.HashTable<Pair<const IPFlowID, int>, void>::elt"** %56, i64 60, !dbg !4168
  store %"struct.HashTable<Pair<const IPFlowID, int>, void>::elt"* null, %"struct.HashTable<Pair<const IPFlowID, int>, void>::elt"** %57, align 8, !dbg !4165, !tbaa !3543
  call void @llvm.dbg.value(metadata i64 61, metadata !4095, metadata !DIExpression()), !dbg !4164
  %58 = load %"struct.HashTable<Pair<const IPFlowID, int>, void>::elt"**, %"struct.HashTable<Pair<const IPFlowID, int>, void>::elt"*** %5, align 8, !dbg !4167, !tbaa !3539
  %59 = getelementptr inbounds %"struct.HashTable<Pair<const IPFlowID, int>, void>::elt"*, %"struct.HashTable<Pair<const IPFlowID, int>, void>::elt"** %58, i64 61, !dbg !4168
  store %"struct.HashTable<Pair<const IPFlowID, int>, void>::elt"* null, %"struct.HashTable<Pair<const IPFlowID, int>, void>::elt"** %59, align 8, !dbg !4165, !tbaa !3543
  call void @llvm.dbg.value(metadata i64 62, metadata !4095, metadata !DIExpression()), !dbg !4164
  %60 = load %"struct.HashTable<Pair<const IPFlowID, int>, void>::elt"**, %"struct.HashTable<Pair<const IPFlowID, int>, void>::elt"*** %5, align 8, !dbg !4167, !tbaa !3539
  %61 = getelementptr inbounds %"struct.HashTable<Pair<const IPFlowID, int>, void>::elt"*, %"struct.HashTable<Pair<const IPFlowID, int>, void>::elt"** %60, i64 62, !dbg !4168
  store %"struct.HashTable<Pair<const IPFlowID, int>, void>::elt"* null, %"struct.HashTable<Pair<const IPFlowID, int>, void>::elt"** %61, align 8, !dbg !4165, !tbaa !3543
  call void @llvm.dbg.value(metadata i64 63, metadata !4095, metadata !DIExpression()), !dbg !4164
  call void @llvm.dbg.value(metadata %class.HashTable.0* %0, metadata !4169, metadata !DIExpression(DW_OP_plus_uconst, 32, DW_OP_stack_value)), !dbg !4173
  %62 = getelementptr inbounds %class.HashTable.0, %class.HashTable.0* %0, i64 0, i32 1, i32 0, !dbg !4175
  invoke void @_ZN13HashAllocatorC2Em(%class.HashAllocator* nonnull %62, i64 24)
          to label %63 unwind label %64, !dbg !4176

63:                                               ; preds = %22
  ret void, !dbg !4177

64:                                               ; preds = %22
  %65 = landingpad { i8*, i32 }
          cleanup, !dbg !4177
  call void @llvm.dbg.value(metadata %class.HashTable.0* %0, metadata !4178, metadata !DIExpression()) #11, !dbg !4181
  %66 = load i8*, i8** %6, align 8, !dbg !4184, !tbaa !3539
  %67 = icmp eq i8* %66, null, !dbg !4184
  br i1 %67, label %69, label %68, !dbg !4184

68:                                               ; preds = %64
  tail call void @_ZdaPv(i8* nonnull %66) #12, !dbg !4184
  br label %69, !dbg !4184

69:                                               ; preds = %64, %68
  resume { i8*, i32 } %65, !dbg !4186
}

; Function Attrs: nobuiltin nofree
declare noalias nonnull i8* @_Znam(i64) local_unnamed_addr #10

; Function Attrs: nounwind readnone speculatable willreturn
declare i32 @llvm.ctlz.i32(i32, i1 immarg) #1

declare void @_ZN13HashAllocatorC2Em(%class.HashAllocator*, i64) unnamed_addr #2

; Function Attrs: nobuiltin nounwind
declare void @_ZdaPv(i8*) local_unnamed_addr #5

; Function Attrs: nounwind sspstrong uwtable
define linkonce_odr dso_local void @_ZN9HashTableI4PairIK8IPFlowIDiEvED2Ev(%class.HashTable.0* %0) unnamed_addr #4 comdat align 2 personality i8* bitcast (i32 (...)* @__gxx_personality_v0 to i8*) !dbg !4187 {
  call void @llvm.dbg.value(metadata %class.HashTable.0* %0, metadata !4189, metadata !DIExpression()), !dbg !4196
  call void @llvm.dbg.value(metadata %class.HashTable.0* %0, metadata !4197, metadata !DIExpression()), !dbg !4200
  call void @llvm.dbg.value(metadata %class.HashContainer_iterator* undef, metadata !4202, metadata !DIExpression()), !dbg !4206
  call void @llvm.dbg.value(metadata %class.HashTable.0* %0, metadata !4205, metadata !DIExpression()), !dbg !4206
  call void @llvm.dbg.value(metadata %class.HashContainer_iterator* undef, metadata !4208, metadata !DIExpression()), !dbg !4212
  call void @llvm.dbg.value(metadata %class.HashTable.0* %0, metadata !4211, metadata !DIExpression()), !dbg !4212
  call void @llvm.dbg.value(metadata %class.HashTable.0* %0, metadata !4190, metadata !DIExpression(DW_OP_LLVM_fragment, 192, 64)), !dbg !4214
  %2 = getelementptr inbounds %class.HashTable.0, %class.HashTable.0* %0, i64 0, i32 0, i32 0, i32 2, !dbg !4215
  %3 = load i32, i32* %2, align 4, !dbg !4215, !tbaa !4110, !noalias !4217
  call void @llvm.dbg.value(metadata i32 %3, metadata !4190, metadata !DIExpression(DW_OP_LLVM_fragment, 128, 32)), !dbg !4214
  %4 = getelementptr inbounds %class.HashTable.0, %class.HashTable.0* %0, i64 0, i32 0, i32 0, i32 0, !dbg !4220
  %5 = load %"struct.HashTable<Pair<const IPFlowID, int>, void>::elt"**, %"struct.HashTable<Pair<const IPFlowID, int>, void>::elt"*** %4, align 8, !dbg !4220, !tbaa !3539, !noalias !4217
  %6 = zext i32 %3 to i64, !dbg !4221
  %7 = getelementptr inbounds %"struct.HashTable<Pair<const IPFlowID, int>, void>::elt"*, %"struct.HashTable<Pair<const IPFlowID, int>, void>::elt"** %5, i64 %6, !dbg !4221
  call void @llvm.dbg.value(metadata %"struct.HashTable<Pair<const IPFlowID, int>, void>::elt"** %7, metadata !4190, metadata !DIExpression(DW_OP_LLVM_fragment, 64, 64)), !dbg !4214
  %8 = getelementptr inbounds %class.HashTable.0, %class.HashTable.0* %0, i64 0, i32 0, i32 0, i32 1, !dbg !4222
  %9 = load i32, i32* %8, align 8, !dbg !4222, !tbaa !3534, !noalias !4217
  %10 = icmp eq i32 %3, %9, !dbg !4222
  br i1 %10, label %37, label %11, !dbg !4224, !prof !4225, !misexpect !4226

11:                                               ; preds = %1
  %12 = load %"struct.HashTable<Pair<const IPFlowID, int>, void>::elt"*, %"struct.HashTable<Pair<const IPFlowID, int>, void>::elt"** %7, align 8, !dbg !4227, !tbaa !3543, !noalias !4217
  %13 = ptrtoint %"struct.HashTable<Pair<const IPFlowID, int>, void>::elt"* %12 to i64, !dbg !4229
  call void @llvm.dbg.value(metadata i64 %13, metadata !4190, metadata !DIExpression(DW_OP_LLVM_fragment, 0, 64)), !dbg !4214
  %14 = icmp eq %"struct.HashTable<Pair<const IPFlowID, int>, void>::elt"* %12, null, !dbg !4230
  br i1 %14, label %15, label %37, !dbg !4231

15:                                               ; preds = %11
  call void @llvm.dbg.value(metadata %"struct.HashTable<Pair<const IPFlowID, int>, void>::elt"** %7, metadata !4190, metadata !DIExpression(DW_OP_LLVM_fragment, 64, 64)), !dbg !4214
  %16 = add i32 %3, 1, !dbg !4232
  %17 = icmp eq i32 %16, %9, !dbg !4247
  br i1 %17, label %32, label %21, !dbg !4249

18:                                               ; preds = %21
  call void @llvm.dbg.value(metadata %"struct.HashTable<Pair<const IPFlowID, int>, void>::elt"** %24, metadata !4190, metadata !DIExpression(DW_OP_LLVM_fragment, 64, 64)), !dbg !4214
  %19 = add i32 %22, 1, !dbg !4232
  %20 = icmp eq i32 %19, %9, !dbg !4247
  br i1 %20, label %27, label %21, !dbg !4249, !llvm.loop !4250

21:                                               ; preds = %15, %18
  %22 = phi i32 [ %19, %18 ], [ %16, %15 ]
  %23 = zext i32 %22 to i64, !dbg !4252
  %24 = getelementptr inbounds %"struct.HashTable<Pair<const IPFlowID, int>, void>::elt"*, %"struct.HashTable<Pair<const IPFlowID, int>, void>::elt"** %5, i64 %23, !dbg !4252
  call void @llvm.dbg.value(metadata %"struct.HashTable<Pair<const IPFlowID, int>, void>::elt"** %24, metadata !4190, metadata !DIExpression(DW_OP_LLVM_fragment, 64, 64)), !dbg !4214
  %25 = load %"struct.HashTable<Pair<const IPFlowID, int>, void>::elt"*, %"struct.HashTable<Pair<const IPFlowID, int>, void>::elt"** %24, align 8, !dbg !4254, !tbaa !3543, !noalias !4217
  %26 = icmp eq %"struct.HashTable<Pair<const IPFlowID, int>, void>::elt"* %25, null, !dbg !4254
  br i1 %26, label %18, label %27, !dbg !4255, !llvm.loop !4250

27:                                               ; preds = %21, %18
  %28 = phi i32 [ %22, %21 ], [ %9, %18 ]
  %29 = phi %"struct.HashTable<Pair<const IPFlowID, int>, void>::elt"* [ %25, %21 ], [ null, %18 ]
  %30 = zext i32 %22 to i64, !dbg !4252
  %31 = getelementptr inbounds %"struct.HashTable<Pair<const IPFlowID, int>, void>::elt"*, %"struct.HashTable<Pair<const IPFlowID, int>, void>::elt"** %5, i64 %30, !dbg !4252
  br label %32, !dbg !4256

32:                                               ; preds = %27, %15
  %33 = phi %"struct.HashTable<Pair<const IPFlowID, int>, void>::elt"** [ %7, %15 ], [ %31, %27 ], !dbg !4257
  %34 = phi i32 [ %9, %15 ], [ %28, %27 ], !dbg !4232
  %35 = phi %"struct.HashTable<Pair<const IPFlowID, int>, void>::elt"* [ null, %15 ], [ %29, %27 ], !dbg !4256
  call void @llvm.dbg.value(metadata %"struct.HashTable<Pair<const IPFlowID, int>, void>::elt"** %33, metadata !4190, metadata !DIExpression(DW_OP_LLVM_fragment, 64, 64)), !dbg !4214
  call void @llvm.dbg.value(metadata i32 %34, metadata !4190, metadata !DIExpression(DW_OP_LLVM_fragment, 128, 32)), !dbg !4214
  %36 = ptrtoint %"struct.HashTable<Pair<const IPFlowID, int>, void>::elt"* %35 to i64, !dbg !4256
  call void @llvm.dbg.value(metadata i64 %36, metadata !4190, metadata !DIExpression(DW_OP_LLVM_fragment, 0, 64)), !dbg !4214
  store i32 %34, i32* %2, align 4, !dbg !4258, !tbaa !4110, !noalias !4217
  br label %37, !dbg !4259

37:                                               ; preds = %1, %11, %32
  %38 = phi i32 [ %34, %32 ], [ %3, %11 ], [ %3, %1 ], !dbg !4257
  %39 = phi %"struct.HashTable<Pair<const IPFlowID, int>, void>::elt"** [ %33, %32 ], [ %7, %11 ], [ %7, %1 ], !dbg !4260
  %40 = phi i64 [ %36, %32 ], [ %13, %11 ], [ 0, %1 ], !dbg !4261
  call void @llvm.dbg.value(metadata i64 %40, metadata !4190, metadata !DIExpression(DW_OP_LLVM_fragment, 0, 64)), !dbg !4214
  call void @llvm.dbg.value(metadata %"struct.HashTable<Pair<const IPFlowID, int>, void>::elt"** %39, metadata !4190, metadata !DIExpression(DW_OP_LLVM_fragment, 64, 64)), !dbg !4214
  call void @llvm.dbg.value(metadata i32 %38, metadata !4190, metadata !DIExpression(DW_OP_LLVM_fragment, 128, 32)), !dbg !4214
  call void @llvm.dbg.value(metadata %class.HashContainer_const_iterator* undef, metadata !3613, metadata !DIExpression()), !dbg !4262
  %41 = icmp eq i64 %40, 0, !dbg !4264
  %42 = select i1 %41, { i64, i64 } zeroinitializer, { i64, i64 } { i64 ptrtoint (%"struct.HashTable<Pair<const IPFlowID, int>, void>::elt"* (%class.HashContainer_const_iterator*)* @_ZNK28HashContainer_const_iteratorIN9HashTableI4PairIK8IPFlowIDiEvE3eltE21HashContainer_adapterIS6_EE3getEv to i64), i64 0 }, !dbg !4264
  %43 = extractvalue { i64, i64 } %42, 0, !dbg !4265
  %44 = icmp eq i64 %43, 0, !dbg !4265
  br i1 %44, label %50, label %45, !dbg !4266

45:                                               ; preds = %37
  %46 = getelementptr inbounds %class.HashTable.0, %class.HashTable.0* %0, i64 0, i32 0, i32 0, i32 3, !dbg !4267
  %47 = getelementptr inbounds %class.HashTable.0, %class.HashTable.0* %0, i64 0, i32 1, i32 0, !dbg !4283
  %48 = bitcast %class.HashAllocator* %47 to i64*, !dbg !4284
  %49 = bitcast %class.HashAllocator* %47 to i8**, !dbg !4284
  br label %57, !dbg !4266

50:                                               ; preds = %102, %37
  %51 = getelementptr inbounds %class.HashTable.0, %class.HashTable.0* %0, i64 0, i32 1, i32 0, !dbg !4292
  tail call void @_ZN13HashAllocatorD2Ev(%class.HashAllocator* nonnull %51) #11, !dbg !4292
  call void @llvm.dbg.value(metadata %class.HashTable.0* %0, metadata !4178, metadata !DIExpression()) #11, !dbg !4293
  %52 = bitcast %class.HashTable.0* %0 to i8**, !dbg !4295
  %53 = load i8*, i8** %52, align 8, !dbg !4295, !tbaa !3539
  %54 = icmp eq i8* %53, null, !dbg !4295
  br i1 %54, label %56, label %55, !dbg !4295

55:                                               ; preds = %50
  tail call void @_ZdaPv(i8* nonnull %53) #12, !dbg !4295
  br label %56, !dbg !4295

56:                                               ; preds = %50, %55
  ret void, !dbg !4296

57:                                               ; preds = %45, %102
  %58 = phi i1 [ %41, %45 ], [ %103, %102 ]
  %59 = phi i64 [ %40, %45 ], [ %96, %102 ]
  %60 = phi %"struct.HashTable<Pair<const IPFlowID, int>, void>::elt"** [ %39, %45 ], [ %95, %102 ]
  %61 = phi i32 [ %38, %45 ], [ %94, %102 ]
  call void @llvm.dbg.value(metadata i64 %59, metadata !4190, metadata !DIExpression(DW_OP_LLVM_fragment, 0, 64)), !dbg !4214
  call void @llvm.dbg.value(metadata %"struct.HashTable<Pair<const IPFlowID, int>, void>::elt"** %60, metadata !4190, metadata !DIExpression(DW_OP_LLVM_fragment, 64, 64)), !dbg !4214
  call void @llvm.dbg.value(metadata i32 %61, metadata !4190, metadata !DIExpression(DW_OP_LLVM_fragment, 128, 32)), !dbg !4214
  call void @llvm.dbg.value(metadata %class.HashTable.0* %0, metadata !4280, metadata !DIExpression()), !dbg !4297
  call void @llvm.dbg.value(metadata %class.HashContainer_iterator* undef, metadata !4281, metadata !DIExpression()), !dbg !4297
  call void @llvm.dbg.value(metadata %class.HashTable.0* %0, metadata !4272, metadata !DIExpression()), !dbg !4298
  call void @llvm.dbg.value(metadata %class.HashContainer_iterator* undef, metadata !4273, metadata !DIExpression()), !dbg !4298
  call void @llvm.dbg.value(metadata %"struct.HashTable<Pair<const IPFlowID, int>, void>::elt"* null, metadata !4274, metadata !DIExpression()), !dbg !4298
  call void @llvm.dbg.value(metadata i1 false, metadata !4275, metadata !DIExpression()), !dbg !4298
  call void @llvm.dbg.value(metadata i64 %59, metadata !4276, metadata !DIExpression()), !dbg !4298
  br i1 %58, label %93, label %62, !dbg !4299, !prof !4225, !misexpect !4226

62:                                               ; preds = %57
  %63 = inttoptr i64 %59 to %"struct.HashTable<Pair<const IPFlowID, int>, void>::elt"*, !dbg !4264
  call void @llvm.dbg.value(metadata %"struct.HashTable<Pair<const IPFlowID, int>, void>::elt"* %63, metadata !4276, metadata !DIExpression()), !dbg !4298
  %64 = load i64, i64* %46, align 8, !dbg !4300, !tbaa !4102
  %65 = add i64 %64, -1, !dbg !4300
  store i64 %65, i64* %46, align 8, !dbg !4300, !tbaa !4102
  call void @llvm.dbg.value(metadata %"struct.HashTable<Pair<const IPFlowID, int>, void>::elt"* %63, metadata !3598, metadata !DIExpression()), !dbg !4301
  %66 = getelementptr inbounds %"struct.HashTable<Pair<const IPFlowID, int>, void>::elt", %"struct.HashTable<Pair<const IPFlowID, int>, void>::elt"* %63, i64 0, i32 1, !dbg !4304
  %67 = load %"struct.HashTable<Pair<const IPFlowID, int>, void>::elt"*, %"struct.HashTable<Pair<const IPFlowID, int>, void>::elt"** %66, align 8, !dbg !4305, !tbaa !3543
  %68 = ptrtoint %"struct.HashTable<Pair<const IPFlowID, int>, void>::elt"* %67 to i64, !dbg !4306
  call void @llvm.dbg.value(metadata i64 %68, metadata !4190, metadata !DIExpression(DW_OP_LLVM_fragment, 0, 64)), !dbg !4214
  store %"struct.HashTable<Pair<const IPFlowID, int>, void>::elt"* %67, %"struct.HashTable<Pair<const IPFlowID, int>, void>::elt"** %60, align 8, !dbg !4307, !tbaa !3543
  %69 = icmp ne %"struct.HashTable<Pair<const IPFlowID, int>, void>::elt"* %67, null, !dbg !4308
  %70 = icmp eq i32 %61, %9, !dbg !4309
  %71 = or i1 %70, %69, !dbg !4311
  br i1 %71, label %93, label %72, !dbg !4311

72:                                               ; preds = %62
  call void @llvm.dbg.value(metadata %"struct.HashTable<Pair<const IPFlowID, int>, void>::elt"** %60, metadata !4190, metadata !DIExpression(DW_OP_LLVM_fragment, 64, 64)), !dbg !4214
  %73 = add i32 %61, 1, !dbg !4312
  %74 = icmp eq i32 %73, %9, !dbg !4313
  br i1 %74, label %93, label %75, !dbg !4314

75:                                               ; preds = %72
  %76 = load %"struct.HashTable<Pair<const IPFlowID, int>, void>::elt"**, %"struct.HashTable<Pair<const IPFlowID, int>, void>::elt"*** %4, align 8, !dbg !4315, !tbaa !3539
  br label %80, !dbg !4314

77:                                               ; preds = %80
  call void @llvm.dbg.value(metadata %"struct.HashTable<Pair<const IPFlowID, int>, void>::elt"** %83, metadata !4190, metadata !DIExpression(DW_OP_LLVM_fragment, 64, 64)), !dbg !4214
  %78 = add i32 %81, 1, !dbg !4312
  %79 = icmp eq i32 %78, %9, !dbg !4313
  br i1 %79, label %90, label %80, !dbg !4314, !llvm.loop !4316

80:                                               ; preds = %75, %77
  %81 = phi i32 [ %73, %75 ], [ %78, %77 ]
  %82 = zext i32 %81 to i64, !dbg !4318
  %83 = getelementptr inbounds %"struct.HashTable<Pair<const IPFlowID, int>, void>::elt"*, %"struct.HashTable<Pair<const IPFlowID, int>, void>::elt"** %76, i64 %82, !dbg !4318
  call void @llvm.dbg.value(metadata %"struct.HashTable<Pair<const IPFlowID, int>, void>::elt"** %83, metadata !4190, metadata !DIExpression(DW_OP_LLVM_fragment, 64, 64)), !dbg !4214
  %84 = load %"struct.HashTable<Pair<const IPFlowID, int>, void>::elt"*, %"struct.HashTable<Pair<const IPFlowID, int>, void>::elt"** %83, align 8, !dbg !4319, !tbaa !3543
  %85 = icmp eq %"struct.HashTable<Pair<const IPFlowID, int>, void>::elt"* %84, null, !dbg !4319
  br i1 %85, label %77, label %86, !dbg !4320, !llvm.loop !4316

86:                                               ; preds = %80
  %87 = zext i32 %81 to i64, !dbg !4318
  %88 = getelementptr inbounds %"struct.HashTable<Pair<const IPFlowID, int>, void>::elt"*, %"struct.HashTable<Pair<const IPFlowID, int>, void>::elt"** %76, i64 %87, !dbg !4318
  call void @llvm.dbg.value(metadata i32 %81, metadata !4190, metadata !DIExpression(DW_OP_LLVM_fragment, 128, 32)), !dbg !4214
  %89 = ptrtoint %"struct.HashTable<Pair<const IPFlowID, int>, void>::elt"* %84 to i64, !dbg !4321
  call void @llvm.dbg.value(metadata i64 %89, metadata !4190, metadata !DIExpression(DW_OP_LLVM_fragment, 0, 64)), !dbg !4214
  br label %93, !dbg !4323

90:                                               ; preds = %77
  %91 = zext i32 %81 to i64, !dbg !4318
  %92 = getelementptr inbounds %"struct.HashTable<Pair<const IPFlowID, int>, void>::elt"*, %"struct.HashTable<Pair<const IPFlowID, int>, void>::elt"** %76, i64 %91, !dbg !4318
  br label %93, !dbg !4324

93:                                               ; preds = %90, %72, %62, %86, %57
  %94 = phi i32 [ %61, %57 ], [ %81, %86 ], [ %61, %62 ], [ %9, %72 ], [ %9, %90 ], !dbg !4214
  %95 = phi %"struct.HashTable<Pair<const IPFlowID, int>, void>::elt"** [ %60, %57 ], [ %88, %86 ], [ %60, %62 ], [ %60, %72 ], [ %92, %90 ], !dbg !4214
  %96 = phi i64 [ %59, %57 ], [ %89, %86 ], [ %68, %62 ], [ 0, %72 ], [ 0, %90 ], !dbg !4214
  call void @llvm.dbg.value(metadata i64 %96, metadata !4190, metadata !DIExpression(DW_OP_LLVM_fragment, 0, 64)), !dbg !4214
  call void @llvm.dbg.value(metadata %"struct.HashTable<Pair<const IPFlowID, int>, void>::elt"** %95, metadata !4190, metadata !DIExpression(DW_OP_LLVM_fragment, 64, 64)), !dbg !4214
  call void @llvm.dbg.value(metadata i32 %94, metadata !4190, metadata !DIExpression(DW_OP_LLVM_fragment, 128, 32)), !dbg !4214
  call void @llvm.dbg.value(metadata %"struct.HashTable<Pair<const IPFlowID, int>, void>::elt"* undef, metadata !4193, metadata !DIExpression()), !dbg !4283
  call void @llvm.dbg.value(metadata %class.HashAllocator* %47, metadata !4289, metadata !DIExpression()), !dbg !4325
  call void @llvm.dbg.value(metadata i64 %59, metadata !4290, metadata !DIExpression()), !dbg !4325
  %97 = icmp eq i64 %59, 0, !dbg !4324
  br i1 %97, label %102, label %98, !dbg !4326

98:                                               ; preds = %93
  %99 = inttoptr i64 %59 to i8*, !dbg !4327
  call void @llvm.dbg.value(metadata i8* %99, metadata !4290, metadata !DIExpression()), !dbg !4325
  %100 = load i64, i64* %48, align 8, !dbg !4328, !tbaa !3996
  %101 = inttoptr i64 %59 to i64*, !dbg !4329
  store i64 %100, i64* %101, align 8, !dbg !4329, !tbaa !4003
  store i8* %99, i8** %49, align 8, !dbg !4330, !tbaa !3996
  br label %102, !dbg !4331

102:                                              ; preds = %93, %98
  call void @llvm.dbg.value(metadata i64 %96, metadata !4190, metadata !DIExpression(DW_OP_LLVM_fragment, 0, 64)), !dbg !4214
  call void @llvm.dbg.value(metadata %"struct.HashTable<Pair<const IPFlowID, int>, void>::elt"** %95, metadata !4190, metadata !DIExpression(DW_OP_LLVM_fragment, 64, 64)), !dbg !4214
  call void @llvm.dbg.value(metadata i32 %94, metadata !4190, metadata !DIExpression(DW_OP_LLVM_fragment, 128, 32)), !dbg !4214
  call void @llvm.dbg.value(metadata %class.HashContainer_const_iterator* undef, metadata !3613, metadata !DIExpression()), !dbg !4262
  %103 = icmp eq i64 %96, 0, !dbg !4264
  %104 = select i1 %103, { i64, i64 } zeroinitializer, { i64, i64 } { i64 ptrtoint (%"struct.HashTable<Pair<const IPFlowID, int>, void>::elt"* (%class.HashContainer_const_iterator*)* @_ZNK28HashContainer_const_iteratorIN9HashTableI4PairIK8IPFlowIDiEvE3eltE21HashContainer_adapterIS6_EE3getEv to i64), i64 0 }, !dbg !4264
  %105 = extractvalue { i64, i64 } %104, 0, !dbg !4265
  %106 = icmp eq i64 %105, 0, !dbg !4265
  br i1 %106, label %50, label %57, !dbg !4266, !llvm.loop !4332
}

; Function Attrs: nounwind
declare void @_ZN13HashAllocatorD2Ev(%class.HashAllocator*) unnamed_addr #3

; Function Attrs: nounwind sspstrong uwtable
define linkonce_odr dso_local %"struct.HashTable<Pair<const IPFlowID, int>, void>::elt"* @_ZNK28HashContainer_const_iteratorIN9HashTableI4PairIK8IPFlowIDiEvE3eltE21HashContainer_adapterIS6_EE3getEv(%class.HashContainer_const_iterator* %0) #4 comdat align 2 !dbg !4334 {
  call void @llvm.dbg.value(metadata %class.HashContainer_const_iterator* %0, metadata !4336, metadata !DIExpression()), !dbg !4337
  %2 = getelementptr inbounds %class.HashContainer_const_iterator, %class.HashContainer_const_iterator* %0, i64 0, i32 0, !dbg !4338
  %3 = load %"struct.HashTable<Pair<const IPFlowID, int>, void>::elt"*, %"struct.HashTable<Pair<const IPFlowID, int>, void>::elt"** %2, align 8, !dbg !4338, !tbaa !3955
  ret %"struct.HashTable<Pair<const IPFlowID, int>, void>::elt"* %3, !dbg !4339
}

; Function Attrs: sspstrong uwtable
define linkonce_odr dso_local %"struct.HashTable<Pair<const IPFlowID, int>, void>::elt"* @_ZN13HashContainerIN9HashTableI4PairIK8IPFlowIDiEvE3eltE21HashContainer_adapterIS6_EE3setER22HashContainer_iteratorIS6_S8_EPS6_b(%class.HashContainer* %0, %class.HashContainer_iterator* dereferenceable(32) %1, %"struct.HashTable<Pair<const IPFlowID, int>, void>::elt"* %2, i1 zeroext %3) local_unnamed_addr #0 comdat align 2 !dbg !4270 {
  call void @llvm.dbg.value(metadata %class.HashContainer* %0, metadata !4272, metadata !DIExpression()), !dbg !4340
  call void @llvm.dbg.value(metadata %class.HashContainer_iterator* %1, metadata !4273, metadata !DIExpression()), !dbg !4340
  call void @llvm.dbg.value(metadata %"struct.HashTable<Pair<const IPFlowID, int>, void>::elt"* %2, metadata !4274, metadata !DIExpression()), !dbg !4340
  call void @llvm.dbg.value(metadata i1 %3, metadata !4275, metadata !DIExpression()), !dbg !4340
  call void @llvm.dbg.value(metadata %class.HashContainer_iterator* %1, metadata !4336, metadata !DIExpression()), !dbg !4341
  %5 = getelementptr inbounds %class.HashContainer_iterator, %class.HashContainer_iterator* %1, i64 0, i32 0, i32 0, !dbg !4343
  %6 = load %"struct.HashTable<Pair<const IPFlowID, int>, void>::elt"*, %"struct.HashTable<Pair<const IPFlowID, int>, void>::elt"** %5, align 8, !dbg !4343, !tbaa !3955
  call void @llvm.dbg.value(metadata %"struct.HashTable<Pair<const IPFlowID, int>, void>::elt"* %6, metadata !4276, metadata !DIExpression()), !dbg !4340
  %7 = icmp eq %"struct.HashTable<Pair<const IPFlowID, int>, void>::elt"* %6, %2, !dbg !4344
  br i1 %7, label %160, label %8, !dbg !4346, !prof !4225, !misexpect !4226

8:                                                ; preds = %4
  %9 = icmp eq %"struct.HashTable<Pair<const IPFlowID, int>, void>::elt"* %2, null, !dbg !4347
  br i1 %9, label %10, label %52, !dbg !4348

10:                                               ; preds = %8
  %11 = getelementptr inbounds %class.HashContainer, %class.HashContainer* %0, i64 0, i32 0, i32 3, !dbg !4349
  %12 = load i64, i64* %11, align 8, !dbg !4350, !tbaa !4102
  %13 = add i64 %12, -1, !dbg !4350
  store i64 %13, i64* %11, align 8, !dbg !4350, !tbaa !4102
  call void @llvm.dbg.value(metadata %"struct.HashTable<Pair<const IPFlowID, int>, void>::elt"* %6, metadata !3598, metadata !DIExpression()), !dbg !4351
  %14 = getelementptr inbounds %"struct.HashTable<Pair<const IPFlowID, int>, void>::elt", %"struct.HashTable<Pair<const IPFlowID, int>, void>::elt"* %6, i64 0, i32 1, !dbg !4353
  %15 = load %"struct.HashTable<Pair<const IPFlowID, int>, void>::elt"*, %"struct.HashTable<Pair<const IPFlowID, int>, void>::elt"** %14, align 8, !dbg !4354, !tbaa !3543
  store %"struct.HashTable<Pair<const IPFlowID, int>, void>::elt"* %15, %"struct.HashTable<Pair<const IPFlowID, int>, void>::elt"** %5, align 8, !dbg !4355, !tbaa !3955
  %16 = getelementptr inbounds %class.HashContainer_iterator, %class.HashContainer_iterator* %1, i64 0, i32 0, i32 1, !dbg !4356
  %17 = load %"struct.HashTable<Pair<const IPFlowID, int>, void>::elt"**, %"struct.HashTable<Pair<const IPFlowID, int>, void>::elt"*** %16, align 8, !dbg !4356, !tbaa !3971
  store %"struct.HashTable<Pair<const IPFlowID, int>, void>::elt"* %15, %"struct.HashTable<Pair<const IPFlowID, int>, void>::elt"** %17, align 8, !dbg !4357, !tbaa !3543
  %18 = icmp eq %"struct.HashTable<Pair<const IPFlowID, int>, void>::elt"* %15, null, !dbg !4358
  br i1 %18, label %19, label %160, !dbg !4359

19:                                               ; preds = %10
  call void @llvm.dbg.value(metadata %class.HashContainer_iterator* %1, metadata !4239, metadata !DIExpression()), !dbg !4360
  %20 = load %"struct.HashTable<Pair<const IPFlowID, int>, void>::elt"*, %"struct.HashTable<Pair<const IPFlowID, int>, void>::elt"** %5, align 8, !dbg !4362, !tbaa !3955
  %21 = icmp eq %"struct.HashTable<Pair<const IPFlowID, int>, void>::elt"* %20, null, !dbg !4362
  br i1 %21, label %30, label %22, !dbg !4363

22:                                               ; preds = %19
  call void @llvm.dbg.value(metadata %"struct.HashTable<Pair<const IPFlowID, int>, void>::elt"* %20, metadata !3598, metadata !DIExpression()), !dbg !4364
  %23 = getelementptr inbounds %"struct.HashTable<Pair<const IPFlowID, int>, void>::elt", %"struct.HashTable<Pair<const IPFlowID, int>, void>::elt"* %20, i64 0, i32 1, !dbg !4366
  %24 = load %"struct.HashTable<Pair<const IPFlowID, int>, void>::elt"*, %"struct.HashTable<Pair<const IPFlowID, int>, void>::elt"** %23, align 8, !dbg !4367, !tbaa !3543
  %25 = icmp eq %"struct.HashTable<Pair<const IPFlowID, int>, void>::elt"* %24, null, !dbg !4367
  br i1 %25, label %30, label %26, !dbg !4368

26:                                               ; preds = %22
  call void @llvm.dbg.value(metadata %"struct.HashTable<Pair<const IPFlowID, int>, void>::elt"* %20, metadata !3598, metadata !DIExpression()), !dbg !4369
  store %"struct.HashTable<Pair<const IPFlowID, int>, void>::elt"** %23, %"struct.HashTable<Pair<const IPFlowID, int>, void>::elt"*** %16, align 8, !dbg !4372, !tbaa !3971
  %27 = bitcast %"struct.HashTable<Pair<const IPFlowID, int>, void>::elt"** %23 to i64*, !dbg !4373
  %28 = load i64, i64* %27, align 8, !dbg !4373, !tbaa !3543
  %29 = bitcast %class.HashContainer_iterator* %1 to i64*, !dbg !4374
  store i64 %28, i64* %29, align 8, !dbg !4374, !tbaa !3955
  br label %160, !dbg !4375

30:                                               ; preds = %22, %19
  %31 = getelementptr inbounds %class.HashContainer_iterator, %class.HashContainer_iterator* %1, i64 0, i32 0, i32 2, !dbg !4376
  %32 = load i32, i32* %31, align 8, !dbg !4376, !tbaa !3972
  %33 = getelementptr inbounds %class.HashContainer_iterator, %class.HashContainer_iterator* %1, i64 0, i32 0, i32 3, !dbg !4377
  %34 = load %class.HashContainer*, %class.HashContainer** %33, align 8, !dbg !4377, !tbaa !3973
  %35 = getelementptr inbounds %class.HashContainer, %class.HashContainer* %34, i64 0, i32 0, i32 1, !dbg !4378
  %36 = load i32, i32* %35, align 8, !dbg !4378, !tbaa !3534
  %37 = icmp eq i32 %32, %36, !dbg !4379
  br i1 %37, label %160, label %38, !dbg !4380

38:                                               ; preds = %30
  %39 = getelementptr inbounds %class.HashContainer, %class.HashContainer* %34, i64 0, i32 0, i32 0, !dbg !4381
  br label %40, !dbg !4382

40:                                               ; preds = %44, %38
  %41 = phi i32 [ %42, %44 ], [ %32, %38 ]
  %42 = add i32 %41, 1, !dbg !4383
  %43 = icmp eq i32 %42, %36, !dbg !4384
  br i1 %43, label %51, label %44, !dbg !4382

44:                                               ; preds = %40
  %45 = load %"struct.HashTable<Pair<const IPFlowID, int>, void>::elt"**, %"struct.HashTable<Pair<const IPFlowID, int>, void>::elt"*** %39, align 8, !dbg !4385, !tbaa !3539
  %46 = zext i32 %42 to i64, !dbg !4386
  %47 = getelementptr inbounds %"struct.HashTable<Pair<const IPFlowID, int>, void>::elt"*, %"struct.HashTable<Pair<const IPFlowID, int>, void>::elt"** %45, i64 %46, !dbg !4386
  store %"struct.HashTable<Pair<const IPFlowID, int>, void>::elt"** %47, %"struct.HashTable<Pair<const IPFlowID, int>, void>::elt"*** %16, align 8, !dbg !4387, !tbaa !3971
  %48 = load %"struct.HashTable<Pair<const IPFlowID, int>, void>::elt"*, %"struct.HashTable<Pair<const IPFlowID, int>, void>::elt"** %47, align 8, !dbg !4388, !tbaa !3543
  %49 = icmp eq %"struct.HashTable<Pair<const IPFlowID, int>, void>::elt"* %48, null, !dbg !4388
  br i1 %49, label %40, label %50, !dbg !4389, !llvm.loop !4390

50:                                               ; preds = %44
  store i32 %42, i32* %31, align 8, !dbg !4383, !tbaa !3972
  store %"struct.HashTable<Pair<const IPFlowID, int>, void>::elt"* %48, %"struct.HashTable<Pair<const IPFlowID, int>, void>::elt"** %5, align 8, !dbg !4392, !tbaa !3955
  br label %160, !dbg !4393

51:                                               ; preds = %40
  store i32 %36, i32* %31, align 8, !dbg !4383, !tbaa !3972
  store %"struct.HashTable<Pair<const IPFlowID, int>, void>::elt"* null, %"struct.HashTable<Pair<const IPFlowID, int>, void>::elt"** %5, align 8, !dbg !4394, !tbaa !3955
  br label %160, !dbg !4395

52:                                               ; preds = %8
  %53 = icmp eq %"struct.HashTable<Pair<const IPFlowID, int>, void>::elt"* %6, null, !dbg !4396
  br i1 %53, label %60, label %54, !dbg !4398

54:                                               ; preds = %52
  call void @llvm.dbg.value(metadata %"struct.HashTable<Pair<const IPFlowID, int>, void>::elt"* %6, metadata !3598, metadata !DIExpression()), !dbg !4399
  %55 = getelementptr inbounds %"struct.HashTable<Pair<const IPFlowID, int>, void>::elt", %"struct.HashTable<Pair<const IPFlowID, int>, void>::elt"* %6, i64 0, i32 1, !dbg !4401
  %56 = bitcast %"struct.HashTable<Pair<const IPFlowID, int>, void>::elt"** %55 to i64*, !dbg !4402
  %57 = load i64, i64* %56, align 8, !dbg !4402, !tbaa !3543
  call void @llvm.dbg.value(metadata %"struct.HashTable<Pair<const IPFlowID, int>, void>::elt"* %2, metadata !3598, metadata !DIExpression()), !dbg !4403
  %58 = getelementptr inbounds %"struct.HashTable<Pair<const IPFlowID, int>, void>::elt", %"struct.HashTable<Pair<const IPFlowID, int>, void>::elt"* %2, i64 0, i32 1, !dbg !4405
  %59 = bitcast %"struct.HashTable<Pair<const IPFlowID, int>, void>::elt"** %58 to i64*, !dbg !4406
  store i64 %57, i64* %59, align 8, !dbg !4406, !tbaa !3543
  br label %157, !dbg !4407

60:                                               ; preds = %52
  %61 = getelementptr inbounds %class.HashContainer, %class.HashContainer* %0, i64 0, i32 0, i32 3, !dbg !4408
  %62 = load i64, i64* %61, align 8, !dbg !4410, !tbaa !4102
  %63 = add i64 %62, 1, !dbg !4410
  store i64 %63, i64* %61, align 8, !dbg !4410, !tbaa !4102
  call void @llvm.dbg.value(metadata %class.HashContainer* %0, metadata !4411, metadata !DIExpression()), !dbg !4414
  %64 = getelementptr inbounds %class.HashContainer, %class.HashContainer* %0, i64 0, i32 0, i32 1, !dbg !4417
  %65 = load i32, i32* %64, align 8, !dbg !4417, !tbaa !3534
  %66 = shl i32 %65, 1, !dbg !4418
  %67 = zext i32 %66 to i64, !dbg !4419
  %68 = icmp ule i64 %63, %67, !dbg !4420
  %69 = icmp eq i32 %65, -1, !dbg !4421
  %70 = or i1 %69, %68, !dbg !4422
  %71 = xor i1 %3, true, !dbg !4422
  %72 = or i1 %70, %71, !dbg !4422
  br i1 %72, label %73, label %76, !dbg !4422, !prof !4423, !misexpect !4226

73:                                               ; preds = %60
  %74 = getelementptr inbounds %class.HashContainer_iterator, %class.HashContainer_iterator* %1, i64 0, i32 0, i32 1, !dbg !4424
  %75 = load %"struct.HashTable<Pair<const IPFlowID, int>, void>::elt"**, %"struct.HashTable<Pair<const IPFlowID, int>, void>::elt"*** %74, align 8, !dbg !4426, !tbaa !3971
  br label %150, !dbg !4422

76:                                               ; preds = %60
  %77 = add nuw i32 %65, 1, !dbg !4427
  tail call void @_ZN13HashContainerIN9HashTableI4PairIK8IPFlowIDiEvE3eltE21HashContainer_adapterIS6_EE6rehashEj(%class.HashContainer* nonnull %0, i32 %77), !dbg !4429
  call void @llvm.dbg.value(metadata %class.HashContainer* %0, metadata !3388, metadata !DIExpression()), !dbg !4430
  call void @llvm.dbg.value(metadata %"struct.HashTable<Pair<const IPFlowID, int>, void>::elt"* %2, metadata !3391, metadata !DIExpression()), !dbg !4430
  call void @llvm.dbg.value(metadata %"struct.HashTable<Pair<const IPFlowID, int>, void>::elt"* %2, metadata !3397, metadata !DIExpression()), !dbg !4432
  call void @llvm.dbg.value(metadata %"struct.HashTable<Pair<const IPFlowID, int>, void>::elt"* %2, metadata !3406, metadata !DIExpression()), !dbg !4434
  call void @llvm.dbg.value(metadata %"struct.HashTable<Pair<const IPFlowID, int>, void>::elt"* %2, metadata !3416, metadata !DIExpression()), !dbg !4436
  %78 = getelementptr inbounds %"struct.HashTable<Pair<const IPFlowID, int>, void>::elt", %"struct.HashTable<Pair<const IPFlowID, int>, void>::elt"* %2, i64 0, i32 0, i32 0, i32 2, !dbg !4438
  %79 = load i16, i16* %78, align 4, !dbg !4438, !tbaa !3422
  %80 = tail call i16 @llvm.bswap.i16(i16 %79) #11
  call void @llvm.dbg.value(metadata i16 %80, metadata !3409, metadata !DIExpression()), !dbg !4434
  call void @llvm.dbg.value(metadata %"struct.HashTable<Pair<const IPFlowID, int>, void>::elt"* %2, metadata !3434, metadata !DIExpression()), !dbg !4439
  %81 = getelementptr inbounds %"struct.HashTable<Pair<const IPFlowID, int>, void>::elt", %"struct.HashTable<Pair<const IPFlowID, int>, void>::elt"* %2, i64 0, i32 0, i32 0, i32 3, !dbg !4441
  %82 = load i16, i16* %81, align 2, !dbg !4441, !tbaa !3440
  %83 = tail call i16 @llvm.bswap.i16(i16 %82) #11
  call void @llvm.dbg.value(metadata i16 %83, metadata !3410, metadata !DIExpression()), !dbg !4434
  call void @llvm.dbg.value(metadata %"struct.HashTable<Pair<const IPFlowID, int>, void>::elt"* %2, metadata !3441, metadata !DIExpression()), !dbg !4442
  %84 = getelementptr inbounds %"struct.HashTable<Pair<const IPFlowID, int>, void>::elt", %"struct.HashTable<Pair<const IPFlowID, int>, void>::elt"* %2, i64 0, i32 0, i32 0, i32 0, i32 0, !dbg !4444
  %85 = load i32, i32* %84, align 4, !dbg !4444, !tbaa.struct !3447
  call void @llvm.dbg.value(metadata %class.IPAddress* undef, metadata !3448, metadata !DIExpression()), !dbg !4445
  %86 = zext i32 %85 to i64, !dbg !4447
  call void @llvm.dbg.value(metadata i64 %86, metadata !3411, metadata !DIExpression()), !dbg !4434
  call void @llvm.dbg.value(metadata %"struct.HashTable<Pair<const IPFlowID, int>, void>::elt"* %2, metadata !3459, metadata !DIExpression()), !dbg !4448
  %87 = getelementptr inbounds %"struct.HashTable<Pair<const IPFlowID, int>, void>::elt", %"struct.HashTable<Pair<const IPFlowID, int>, void>::elt"* %2, i64 0, i32 0, i32 0, i32 1, i32 0, !dbg !4450
  %88 = load i32, i32* %87, align 4, !dbg !4450, !tbaa.struct !3447
  call void @llvm.dbg.value(metadata %class.IPAddress* undef, metadata !3448, metadata !DIExpression()), !dbg !4451
  %89 = zext i32 %88 to i64, !dbg !4453
  call void @llvm.dbg.value(metadata i64 %89, metadata !3412, metadata !DIExpression()), !dbg !4434
  %90 = zext i16 %80 to i32, !dbg !4454
  %91 = and i32 %90, 15, !dbg !4454
  %92 = add nuw nsw i32 %91, 1, !dbg !4454
  %93 = zext i32 %92 to i64, !dbg !4454
  %94 = shl nuw nsw i64 %86, %93, !dbg !4454
  %95 = xor i32 %91, 31, !dbg !4454
  %96 = lshr i32 %85, %95, !dbg !4454
  %97 = zext i32 %96 to i64, !dbg !4454
  %98 = or i64 %94, %97, !dbg !4454
  %99 = zext i16 %83 to i32, !dbg !4455
  %100 = and i32 %99, 15, !dbg !4455
  %101 = xor i32 %100, 31, !dbg !4455
  %102 = zext i32 %101 to i64, !dbg !4455
  %103 = shl i64 %89, %102, !dbg !4455
  %104 = sub nuw nsw i32 32, %101, !dbg !4455
  %105 = lshr i32 %88, %104, !dbg !4455
  %106 = zext i32 %105 to i64, !dbg !4455
  %107 = or i64 %103, %106, !dbg !4455
  %108 = shl nuw i32 %99, 16, !dbg !4456
  %109 = or i32 %108, %90, !dbg !4457
  %110 = zext i32 %109 to i64, !dbg !4458
  %111 = xor i64 %98, %110, !dbg !4459
  %112 = xor i64 %111, %107, !dbg !4460
  %113 = trunc i64 %112 to i32, !dbg !4461
  call void @llvm.dbg.value(metadata i32 %113, metadata !3392, metadata !DIExpression()), !dbg !4430
  call void @llvm.dbg.value(metadata i32 %113, metadata !3476, metadata !DIExpression()), !dbg !4462
  call void @llvm.dbg.value(metadata %class.HashContainer* %0, metadata !3483, metadata !DIExpression(DW_OP_plus_uconst, 24, DW_OP_stack_value)), !dbg !4462
  %114 = getelementptr inbounds %class.HashContainer, %class.HashContainer* %0, i64 0, i32 0, i32 4, i32 1, !dbg !4464
  %115 = load i8, i8* %114, align 4, !dbg !4464, !tbaa !3494
  call void @llvm.dbg.value(metadata i8 %115, metadata !3484, metadata !DIExpression()), !dbg !4462
  %116 = zext i8 %115 to i32, !dbg !4465
  %117 = icmp slt i8 %115, 0, !dbg !4465
  br i1 %117, label %118, label %121, !dbg !4466

118:                                              ; preds = %76
  %119 = and i32 %116, 31, !dbg !4467
  %120 = lshr i32 %113, %119, !dbg !4468
  br label %139, !dbg !4469

121:                                              ; preds = %76
  call void @llvm.dbg.value(metadata %class.HashContainer* %0, metadata !3483, metadata !DIExpression(DW_OP_plus_uconst, 24, DW_OP_stack_value)), !dbg !4462
  %122 = getelementptr inbounds %class.HashContainer, %class.HashContainer* %0, i64 0, i32 0, i32 4, i32 0, !dbg !4470
  %123 = load i32, i32* %122, align 4, !dbg !4470, !tbaa !3502
  call void @llvm.dbg.value(metadata i32 %123, metadata !3503, metadata !DIExpression()), !dbg !4471
  call void @llvm.dbg.value(metadata i32 %113, metadata !3508, metadata !DIExpression()), !dbg !4471
  %124 = zext i32 %123 to i64, !dbg !4473
  call void @llvm.dbg.value(metadata i64 %124, metadata !3509, metadata !DIExpression()), !dbg !4471
  %125 = and i64 %112, 4294967295, !dbg !4474
  call void @llvm.dbg.value(metadata i64 %125, metadata !3510, metadata !DIExpression()), !dbg !4471
  %126 = mul nuw i64 %125, %124, !dbg !4475
  call void @llvm.dbg.value(metadata i64 %126, metadata !3511, metadata !DIExpression()), !dbg !4471
  %127 = lshr i64 %126, 32, !dbg !4476
  %128 = trunc i64 %127 to i32, !dbg !4477
  call void @llvm.dbg.value(metadata i32 %128, metadata !3485, metadata !DIExpression()), !dbg !4478
  %129 = and i32 %116, 64, !dbg !4479
  %130 = icmp eq i32 %129, 0, !dbg !4480
  br i1 %130, label %137, label %131, !dbg !4481

131:                                              ; preds = %121
  %132 = sub i32 %113, %128, !dbg !4482
  %133 = lshr i32 %132, 1, !dbg !4483
  %134 = add i32 %133, %128, !dbg !4484
  call void @llvm.dbg.value(metadata i32 %134, metadata !3488, metadata !DIExpression()), !dbg !4485
  %135 = and i32 %116, 31, !dbg !4486
  %136 = lshr i32 %134, %135, !dbg !4487
  br label %139

137:                                              ; preds = %121
  %138 = lshr i32 %128, %116, !dbg !4488
  br label %139, !dbg !4489

139:                                              ; preds = %118, %131, %137
  %140 = phi i32 [ %120, %118 ], [ %136, %131 ], [ %138, %137 ], !dbg !4490
  call void @llvm.dbg.value(metadata i32 %140, metadata !3393, metadata !DIExpression()), !dbg !4430
  %141 = load i32, i32* %64, align 8, !dbg !4491, !tbaa !3534
  %142 = mul i32 %141, %140, !dbg !4492
  %143 = sub i32 %113, %142, !dbg !4493
  call void @llvm.dbg.value(metadata i32 %143, metadata !3394, metadata !DIExpression()), !dbg !4430
  %144 = getelementptr inbounds %class.HashContainer_iterator, %class.HashContainer_iterator* %1, i64 0, i32 0, i32 2, !dbg !4494
  store i32 %143, i32* %144, align 8, !dbg !4495, !tbaa !3972
  %145 = getelementptr inbounds %class.HashContainer, %class.HashContainer* %0, i64 0, i32 0, i32 0, !dbg !4496
  %146 = load %"struct.HashTable<Pair<const IPFlowID, int>, void>::elt"**, %"struct.HashTable<Pair<const IPFlowID, int>, void>::elt"*** %145, align 8, !dbg !4496, !tbaa !3539
  %147 = zext i32 %143 to i64, !dbg !4497
  %148 = getelementptr inbounds %"struct.HashTable<Pair<const IPFlowID, int>, void>::elt"*, %"struct.HashTable<Pair<const IPFlowID, int>, void>::elt"** %146, i64 %147, !dbg !4497
  %149 = getelementptr inbounds %class.HashContainer_iterator, %class.HashContainer_iterator* %1, i64 0, i32 0, i32 1, !dbg !4498
  store %"struct.HashTable<Pair<const IPFlowID, int>, void>::elt"** %148, %"struct.HashTable<Pair<const IPFlowID, int>, void>::elt"*** %149, align 8, !dbg !4499, !tbaa !3971
  br label %150, !dbg !4500

150:                                              ; preds = %73, %139
  %151 = phi %"struct.HashTable<Pair<const IPFlowID, int>, void>::elt"** [ %75, %73 ], [ %148, %139 ], !dbg !4426
  %152 = load %"struct.HashTable<Pair<const IPFlowID, int>, void>::elt"*, %"struct.HashTable<Pair<const IPFlowID, int>, void>::elt"** %151, align 8, !dbg !4501, !tbaa !3543
  call void @llvm.dbg.value(metadata %"struct.HashTable<Pair<const IPFlowID, int>, void>::elt"* %2, metadata !3598, metadata !DIExpression()), !dbg !4502
  %153 = getelementptr inbounds %"struct.HashTable<Pair<const IPFlowID, int>, void>::elt", %"struct.HashTable<Pair<const IPFlowID, int>, void>::elt"* %2, i64 0, i32 1, !dbg !4504
  store %"struct.HashTable<Pair<const IPFlowID, int>, void>::elt"* %152, %"struct.HashTable<Pair<const IPFlowID, int>, void>::elt"** %153, align 8, !dbg !4505, !tbaa !3543
  %154 = icmp eq %"struct.HashTable<Pair<const IPFlowID, int>, void>::elt"* %152, null, !dbg !4506
  br i1 %154, label %155, label %157, !dbg !4507

155:                                              ; preds = %150
  %156 = getelementptr inbounds %class.HashContainer, %class.HashContainer* %0, i64 0, i32 0, i32 2, !dbg !4508
  store i32 0, i32* %156, align 4, !dbg !4509, !tbaa !4110
  br label %157, !dbg !4510

157:                                              ; preds = %150, %155, %54
  store %"struct.HashTable<Pair<const IPFlowID, int>, void>::elt"* %2, %"struct.HashTable<Pair<const IPFlowID, int>, void>::elt"** %5, align 8, !dbg !4511, !tbaa !3955
  %158 = getelementptr inbounds %class.HashContainer_iterator, %class.HashContainer_iterator* %1, i64 0, i32 0, i32 1, !dbg !4512
  %159 = load %"struct.HashTable<Pair<const IPFlowID, int>, void>::elt"**, %"struct.HashTable<Pair<const IPFlowID, int>, void>::elt"*** %158, align 8, !dbg !4512, !tbaa !3971
  store %"struct.HashTable<Pair<const IPFlowID, int>, void>::elt"* %2, %"struct.HashTable<Pair<const IPFlowID, int>, void>::elt"** %159, align 8, !dbg !4513, !tbaa !3543
  br label %160, !dbg !4514

160:                                              ; preds = %51, %50, %30, %26, %10, %4, %157
  ret %"struct.HashTable<Pair<const IPFlowID, int>, void>::elt"* %6, !dbg !4515
}

; Function Attrs: sspstrong uwtable
define linkonce_odr dso_local void @_ZN13HashContainerIN9HashTableI4PairIK8IPFlowIDiEvE3eltE21HashContainer_adapterIS6_EE6rehashEj(%class.HashContainer* %0, i32 %1) local_unnamed_addr #0 comdat align 2 !dbg !4516 {
  call void @llvm.dbg.value(metadata %class.HashContainer* %0, metadata !4518, metadata !DIExpression()), !dbg !4535
  call void @llvm.dbg.value(metadata i32 %1, metadata !4519, metadata !DIExpression()), !dbg !4535
  call void @llvm.dbg.value(metadata i32 1, metadata !4520, metadata !DIExpression()), !dbg !4535
  %3 = icmp ugt i32 %1, 1, !dbg !4536
  br i1 %3, label %4, label %11, !dbg !4537

4:                                                ; preds = %2, %4
  %5 = phi i32 [ %7, %4 ], [ 1, %2 ]
  call void @llvm.dbg.value(metadata i32 %5, metadata !4520, metadata !DIExpression()), !dbg !4535
  %6 = shl i32 %5, 1, !dbg !4538
  %7 = or i32 %6, 1, !dbg !4539
  call void @llvm.dbg.value(metadata i32 %7, metadata !4520, metadata !DIExpression()), !dbg !4535
  %8 = icmp ult i32 %7, %1, !dbg !4536
  %9 = icmp ne i32 %7, -1, !dbg !4540
  %10 = and i1 %8, %9, !dbg !4540
  br i1 %10, label %4, label %11, !dbg !4537, !llvm.loop !4541

11:                                               ; preds = %4, %2
  %12 = phi i32 [ 1, %2 ], [ %7, %4 ], !dbg !4535
  call void @llvm.dbg.value(metadata i32 %12, metadata !4520, metadata !DIExpression()), !dbg !4535
  %13 = getelementptr inbounds %class.HashContainer, %class.HashContainer* %0, i64 0, i32 0, i32 1, !dbg !4543
  %14 = load i32, i32* %13, align 8, !dbg !4543, !tbaa !3534
  %15 = icmp eq i32 %14, %12, !dbg !4545
  br i1 %15, label %247, label %16, !dbg !4546

16:                                               ; preds = %11
  %17 = zext i32 %12 to i64, !dbg !4547
  %18 = shl nuw nsw i64 %17, 3, !dbg !4547
  %19 = tail call i8* @_Znam(i64 %18) #14, !dbg !4547
  %20 = bitcast i8* %19 to %"struct.HashTable<Pair<const IPFlowID, int>, void>::elt"**, !dbg !4548
  call void @llvm.dbg.value(metadata %"struct.HashTable<Pair<const IPFlowID, int>, void>::elt"** %20, metadata !4521, metadata !DIExpression()), !dbg !4535
  call void @llvm.dbg.value(metadata i32 0, metadata !4522, metadata !DIExpression()), !dbg !4549
  call void @llvm.memset.p0i8.i64(i8* nonnull align 8 %19, i8 0, i64 %18, i1 false), !dbg !4550
  call void @llvm.dbg.value(metadata i32 undef, metadata !4522, metadata !DIExpression()), !dbg !4549
  call void @llvm.dbg.value(metadata i32 %14, metadata !4524, metadata !DIExpression()), !dbg !4535
  %21 = getelementptr inbounds %class.HashContainer, %class.HashContainer* %0, i64 0, i32 0, i32 0, !dbg !4552
  %22 = load %"struct.HashTable<Pair<const IPFlowID, int>, void>::elt"**, %"struct.HashTable<Pair<const IPFlowID, int>, void>::elt"*** %21, align 8, !dbg !4552, !tbaa !3539
  call void @llvm.dbg.value(metadata %"struct.HashTable<Pair<const IPFlowID, int>, void>::elt"** %22, metadata !4525, metadata !DIExpression()), !dbg !4535
  store i32 %12, i32* %13, align 8, !dbg !4553, !tbaa !3534
  %23 = bitcast %class.HashContainer* %0 to i8**, !dbg !4554
  store i8* %19, i8** %23, align 8, !dbg !4554, !tbaa !3539
  %24 = getelementptr inbounds %class.HashContainer, %class.HashContainer* %0, i64 0, i32 0, i32 2, !dbg !4555
  store i32 0, i32* %24, align 4, !dbg !4556, !tbaa !4110
  call void @llvm.dbg.value(metadata i32 %12, metadata !4111, metadata !DIExpression()) #11, !dbg !4557
  call void @llvm.dbg.value(metadata i32 %12, metadata !4118, metadata !DIExpression()) #11, !dbg !4559
  call void @llvm.dbg.value(metadata i32 0, metadata !4123, metadata !DIExpression()) #11, !dbg !4559
  call void @llvm.dbg.value(metadata i32 %12, metadata !4561, metadata !DIExpression()) #11, !dbg !4566
  %25 = tail call i32 @llvm.ctlz.i32(i32 %12, i1 true) #11, !dbg !4568, !range !4569
  %26 = xor i32 %25, 31, !dbg !4570
  call void @llvm.dbg.value(metadata i32 %26, metadata !4125, metadata !DIExpression()) #11, !dbg !4559
  %27 = tail call i32 @llvm.ctpop.i32(i32 %12) #11, !dbg !4571, !range !4569
  %28 = icmp ult i32 %27, 2, !dbg !4571
  br i1 %28, label %29, label %31, !dbg !4572

29:                                               ; preds = %16
  call void @llvm.dbg.value(metadata i32 0, metadata !4124, metadata !DIExpression(DW_OP_LLVM_fragment, 0, 32)) #11, !dbg !4559
  %30 = or i32 %26, 128, !dbg !4573
  call void @llvm.dbg.value(metadata i32 %30, metadata !4124, metadata !DIExpression(DW_OP_LLVM_convert, 32, DW_ATE_unsigned, DW_OP_LLVM_convert, 8, DW_ATE_unsigned, DW_OP_stack_value, DW_OP_LLVM_fragment, 32, 8)) #11, !dbg !4559
  br label %57, !dbg !4577

31:                                               ; preds = %16
  %32 = lshr i32 -2147483648, %25, !dbg !4578
  call void @llvm.dbg.value(metadata i32 %32, metadata !4137, metadata !DIExpression()) #11, !dbg !4579
  call void @llvm.dbg.value(metadata i32 0, metadata !4142, metadata !DIExpression()) #11, !dbg !4579
  call void @llvm.dbg.value(metadata i32 %12, metadata !4143, metadata !DIExpression()) #11, !dbg !4579
  %33 = tail call { i32, i32 } asm "divl $2", "={ax},={dx},r,{ax},{dx},~{dirflag},~{fpsr},~{flags}"(i32 %12, i32 0, i32 %32) #15, !dbg !4581, !srcloc !4149
  %34 = extractvalue { i32, i32 } %33, 0, !dbg !4581
  %35 = extractvalue { i32, i32 } %33, 1, !dbg !4581
  call void @llvm.dbg.value(metadata i32 %34, metadata !4145, metadata !DIExpression()) #11, !dbg !4579
  call void @llvm.dbg.value(metadata i32 %34, metadata !4130, metadata !DIExpression()) #11, !dbg !4582
  call void @llvm.dbg.value(metadata i32 %35, metadata !4129, metadata !DIExpression()) #11, !dbg !4582
  %36 = icmp ne i32 %35, 0, !dbg !4583
  %37 = icmp ugt i32 %12, %35, !dbg !4583
  %38 = and i1 %37, %36, !dbg !4583
  br i1 %38, label %40, label %39, !dbg !4583

39:                                               ; preds = %31
  tail call void @__assert_fail(i8* getelementptr inbounds ([19 x i8], [19 x i8]* @.str.13, i64 0, i64 0), i8* getelementptr inbounds ([31 x i8], [31 x i8]* @.str.12, i64 0, i64 0), i32 209, i8* getelementptr inbounds ([65 x i8], [65 x i8]* @__PRETTY_FUNCTION__._ZL26libdivide_internal_u32_genji, i64 0, i64 0)) #13, !dbg !4583
  unreachable, !dbg !4583

40:                                               ; preds = %31
  call void @llvm.dbg.value(metadata i32 undef, metadata !4131, metadata !DIExpression()) #11, !dbg !4582
  %41 = sub i32 %12, %35, !dbg !4584
  call void @llvm.dbg.value(metadata i32 %41, metadata !4131, metadata !DIExpression()) #11, !dbg !4582
  %42 = icmp ult i32 %41, %32, !dbg !4585
  br i1 %42, label %52, label %43, !dbg !4586

43:                                               ; preds = %40
  %44 = shl i32 %34, 1, !dbg !4587
  call void @llvm.dbg.value(metadata i32 %44, metadata !4130, metadata !DIExpression()) #11, !dbg !4582
  call void @llvm.dbg.value(metadata i32 %35, metadata !4129, metadata !DIExpression()) #11, !dbg !4582
  %45 = shl i32 %35, 1, !dbg !4588
  call void @llvm.dbg.value(metadata i32 %45, metadata !4132, metadata !DIExpression()) #11, !dbg !4589
  %46 = icmp uge i32 %45, %12, !dbg !4590
  %47 = icmp ult i32 %45, %35, !dbg !4591
  %48 = or i1 %46, %47, !dbg !4592
  %49 = zext i1 %48 to i32, !dbg !4592
  %50 = or i32 %44, %49, !dbg !4592
  call void @llvm.dbg.value(metadata i32 %50, metadata !4130, metadata !DIExpression()) #11, !dbg !4582
  %51 = or i32 %26, 64, !dbg !4593
  call void @llvm.dbg.value(metadata i32 %26, metadata !4126, metadata !DIExpression(DW_OP_LLVM_convert, 32, DW_ATE_unsigned, DW_OP_LLVM_convert, 8, DW_ATE_unsigned, DW_OP_constu, 64, DW_OP_or, DW_OP_stack_value)) #11, !dbg !4582
  br label %52

52:                                               ; preds = %43, %40
  %53 = phi i32 [ %51, %43 ], [ %26, %40 ]
  %54 = phi i32 [ %50, %43 ], [ %34, %40 ], !dbg !4582
  call void @llvm.dbg.value(metadata i32 %54, metadata !4130, metadata !DIExpression()) #11, !dbg !4582
  call void @llvm.dbg.value(metadata i8 undef, metadata !4126, metadata !DIExpression()) #11, !dbg !4582
  %55 = add i32 %54, 1, !dbg !4594
  call void @llvm.dbg.value(metadata i32 %55, metadata !4124, metadata !DIExpression(DW_OP_LLVM_fragment, 0, 32)) #11, !dbg !4559
  call void @llvm.dbg.value(metadata i8 undef, metadata !4124, metadata !DIExpression(DW_OP_LLVM_fragment, 32, 8)) #11, !dbg !4559
  %56 = zext i32 %55 to i64
  br label %57

57:                                               ; preds = %29, %52
  %58 = phi i64 [ 0, %29 ], [ %56, %52 ]
  %59 = phi i32 [ %30, %29 ], [ %53, %52 ]
  call void @llvm.dbg.value(metadata i32 undef, metadata !4124, metadata !DIExpression(DW_OP_LLVM_fragment, 0, 32)) #11, !dbg !4559
  %60 = and i32 %59, 255, !dbg !4595
  %61 = zext i32 %60 to i64, !dbg !4595
  call void @llvm.dbg.value(metadata i32 %59, metadata !4124, metadata !DIExpression(DW_OP_LLVM_fragment, 32, 8)) #11, !dbg !4559
  %62 = shl nuw nsw i64 %61, 32, !dbg !4595
  %63 = or i64 %62, %58, !dbg !4595
  %64 = getelementptr inbounds %class.HashContainer, %class.HashContainer* %0, i64 0, i32 0, i32 4, !dbg !4596
  %65 = bitcast %struct.libdivide_u32_t* %64 to i64*, !dbg !4596
  store i64 %63, i64* %65, align 8, !dbg !4596, !tbaa.struct !4163
  call void @llvm.dbg.value(metadata i64 0, metadata !4526, metadata !DIExpression()), !dbg !4597
  %66 = zext i32 %14 to i64, !dbg !4598
  %67 = icmp eq i32 %14, 0, !dbg !4599
  br i1 %67, label %75, label %68, !dbg !4600

68:                                               ; preds = %57
  %69 = trunc i32 %59 to i8, !dbg !4600
  %70 = and i32 %59, 255, !dbg !4601
  %71 = icmp slt i8 %69, 0, !dbg !4601
  %72 = and i32 %59, 31, !dbg !4604
  %73 = and i32 %59, 64, !dbg !4605
  %74 = icmp eq i32 %73, 0, !dbg !4605
  br label %77, !dbg !4600

75:                                               ; preds = %186, %57
  %76 = icmp eq %"struct.HashTable<Pair<const IPFlowID, int>, void>::elt"** %22, null, !dbg !4606
  br i1 %76, label %247, label %245, !dbg !4606

77:                                               ; preds = %186, %68
  %78 = phi i64 [ 0, %68 ], [ %187, %186 ]
  call void @llvm.dbg.value(metadata i64 %78, metadata !4526, metadata !DIExpression()), !dbg !4597
  %79 = getelementptr inbounds %"struct.HashTable<Pair<const IPFlowID, int>, void>::elt"*, %"struct.HashTable<Pair<const IPFlowID, int>, void>::elt"** %22, i64 %78, !dbg !4607
  %80 = load %"struct.HashTable<Pair<const IPFlowID, int>, void>::elt"*, %"struct.HashTable<Pair<const IPFlowID, int>, void>::elt"** %79, align 8, !dbg !4607, !tbaa !3543
  call void @llvm.dbg.value(metadata %"struct.HashTable<Pair<const IPFlowID, int>, void>::elt"* %80, metadata !4528, metadata !DIExpression()), !dbg !4608
  %81 = icmp eq %"struct.HashTable<Pair<const IPFlowID, int>, void>::elt"* %80, null, !dbg !4609
  br i1 %81, label %186, label %82, !dbg !4610

82:                                               ; preds = %77
  br i1 %71, label %83, label %132, !dbg !4610

83:                                               ; preds = %82, %83
  %84 = phi %"struct.HashTable<Pair<const IPFlowID, int>, void>::elt"* [ %86, %83 ], [ %80, %82 ]
  call void @llvm.dbg.value(metadata %"struct.HashTable<Pair<const IPFlowID, int>, void>::elt"* %84, metadata !4528, metadata !DIExpression()), !dbg !4608
  call void @llvm.dbg.value(metadata %"struct.HashTable<Pair<const IPFlowID, int>, void>::elt"* %84, metadata !3598, metadata !DIExpression()), !dbg !4611
  %85 = getelementptr inbounds %"struct.HashTable<Pair<const IPFlowID, int>, void>::elt", %"struct.HashTable<Pair<const IPFlowID, int>, void>::elt"* %84, i64 0, i32 1, !dbg !4613
  %86 = load %"struct.HashTable<Pair<const IPFlowID, int>, void>::elt"*, %"struct.HashTable<Pair<const IPFlowID, int>, void>::elt"** %85, align 8, !dbg !4614, !tbaa !3543
  call void @llvm.dbg.value(metadata %"struct.HashTable<Pair<const IPFlowID, int>, void>::elt"* %86, metadata !4531, metadata !DIExpression()), !dbg !4615
  call void @llvm.dbg.value(metadata %class.HashContainer* %0, metadata !3388, metadata !DIExpression()), !dbg !4616
  call void @llvm.dbg.value(metadata %"struct.HashTable<Pair<const IPFlowID, int>, void>::elt"* %84, metadata !3391, metadata !DIExpression()), !dbg !4616
  call void @llvm.dbg.value(metadata %"struct.HashTable<Pair<const IPFlowID, int>, void>::elt"* %84, metadata !3397, metadata !DIExpression()), !dbg !4617
  call void @llvm.dbg.value(metadata %"struct.HashTable<Pair<const IPFlowID, int>, void>::elt"* %84, metadata !3406, metadata !DIExpression()), !dbg !4619
  call void @llvm.dbg.value(metadata %"struct.HashTable<Pair<const IPFlowID, int>, void>::elt"* %84, metadata !3416, metadata !DIExpression()), !dbg !4621
  %87 = getelementptr inbounds %"struct.HashTable<Pair<const IPFlowID, int>, void>::elt", %"struct.HashTable<Pair<const IPFlowID, int>, void>::elt"* %84, i64 0, i32 0, i32 0, i32 2, !dbg !4623
  %88 = load i16, i16* %87, align 4, !dbg !4623, !tbaa !3422
  %89 = tail call i16 @llvm.bswap.i16(i16 %88) #11
  call void @llvm.dbg.value(metadata i16 %89, metadata !3409, metadata !DIExpression()), !dbg !4619
  call void @llvm.dbg.value(metadata %"struct.HashTable<Pair<const IPFlowID, int>, void>::elt"* %84, metadata !3434, metadata !DIExpression()), !dbg !4624
  %90 = getelementptr inbounds %"struct.HashTable<Pair<const IPFlowID, int>, void>::elt", %"struct.HashTable<Pair<const IPFlowID, int>, void>::elt"* %84, i64 0, i32 0, i32 0, i32 3, !dbg !4626
  %91 = load i16, i16* %90, align 2, !dbg !4626, !tbaa !3440
  %92 = tail call i16 @llvm.bswap.i16(i16 %91) #11
  call void @llvm.dbg.value(metadata i16 %92, metadata !3410, metadata !DIExpression()), !dbg !4619
  call void @llvm.dbg.value(metadata %"struct.HashTable<Pair<const IPFlowID, int>, void>::elt"* %84, metadata !3441, metadata !DIExpression()), !dbg !4627
  %93 = getelementptr inbounds %"struct.HashTable<Pair<const IPFlowID, int>, void>::elt", %"struct.HashTable<Pair<const IPFlowID, int>, void>::elt"* %84, i64 0, i32 0, i32 0, i32 0, i32 0, !dbg !4629
  %94 = load i32, i32* %93, align 4, !dbg !4629, !tbaa.struct !3447
  call void @llvm.dbg.value(metadata %class.IPAddress* undef, metadata !3448, metadata !DIExpression()), !dbg !4630
  %95 = zext i32 %94 to i64, !dbg !4632
  call void @llvm.dbg.value(metadata i64 %95, metadata !3411, metadata !DIExpression()), !dbg !4619
  call void @llvm.dbg.value(metadata %"struct.HashTable<Pair<const IPFlowID, int>, void>::elt"* %84, metadata !3459, metadata !DIExpression()), !dbg !4633
  %96 = getelementptr inbounds %"struct.HashTable<Pair<const IPFlowID, int>, void>::elt", %"struct.HashTable<Pair<const IPFlowID, int>, void>::elt"* %84, i64 0, i32 0, i32 0, i32 1, i32 0, !dbg !4635
  %97 = load i32, i32* %96, align 4, !dbg !4635, !tbaa.struct !3447
  call void @llvm.dbg.value(metadata %class.IPAddress* undef, metadata !3448, metadata !DIExpression()), !dbg !4636
  %98 = zext i32 %97 to i64, !dbg !4638
  call void @llvm.dbg.value(metadata i64 %98, metadata !3412, metadata !DIExpression()), !dbg !4619
  %99 = zext i16 %89 to i32, !dbg !4639
  %100 = and i32 %99, 15, !dbg !4639
  %101 = add nuw nsw i32 %100, 1, !dbg !4639
  %102 = zext i32 %101 to i64, !dbg !4639
  %103 = shl nuw nsw i64 %95, %102, !dbg !4639
  %104 = xor i32 %100, 31, !dbg !4639
  %105 = lshr i32 %94, %104, !dbg !4639
  %106 = zext i32 %105 to i64, !dbg !4639
  %107 = or i64 %103, %106, !dbg !4639
  %108 = zext i16 %92 to i32, !dbg !4640
  %109 = and i32 %108, 15, !dbg !4640
  %110 = xor i32 %109, 31, !dbg !4640
  %111 = zext i32 %110 to i64, !dbg !4640
  %112 = shl i64 %98, %111, !dbg !4640
  %113 = sub nuw nsw i32 32, %110, !dbg !4640
  %114 = lshr i32 %97, %113, !dbg !4640
  %115 = zext i32 %114 to i64, !dbg !4640
  %116 = or i64 %112, %115, !dbg !4640
  %117 = shl nuw i32 %108, 16, !dbg !4641
  %118 = or i32 %117, %99, !dbg !4642
  %119 = zext i32 %118 to i64, !dbg !4643
  %120 = xor i64 %107, %119, !dbg !4644
  %121 = xor i64 %120, %116, !dbg !4645
  %122 = trunc i64 %121 to i32, !dbg !4646
  call void @llvm.dbg.value(metadata i32 %122, metadata !3392, metadata !DIExpression()), !dbg !4616
  call void @llvm.dbg.value(metadata i32 %122, metadata !3476, metadata !DIExpression()), !dbg !4647
  call void @llvm.dbg.value(metadata %class.HashContainer* %0, metadata !3483, metadata !DIExpression(DW_OP_plus_uconst, 24, DW_OP_stack_value)), !dbg !4647
  call void @llvm.dbg.value(metadata i8 %69, metadata !3484, metadata !DIExpression()), !dbg !4647
  %123 = lshr i32 %122, %72, !dbg !4648
  call void @llvm.dbg.value(metadata i32 %123, metadata !3393, metadata !DIExpression()), !dbg !4616
  %124 = mul i32 %123, %12, !dbg !4649
  %125 = sub i32 %122, %124, !dbg !4650
  call void @llvm.dbg.value(metadata i32 %125, metadata !3394, metadata !DIExpression()), !dbg !4616
  call void @llvm.dbg.value(metadata i32 %125, metadata !4534, metadata !DIExpression()), !dbg !4615
  %126 = zext i32 %125 to i64, !dbg !4651
  %127 = getelementptr inbounds %"struct.HashTable<Pair<const IPFlowID, int>, void>::elt"*, %"struct.HashTable<Pair<const IPFlowID, int>, void>::elt"** %20, i64 %126, !dbg !4651
  %128 = bitcast %"struct.HashTable<Pair<const IPFlowID, int>, void>::elt"** %127 to i64*, !dbg !4651
  %129 = load i64, i64* %128, align 8, !dbg !4651, !tbaa !3543
  call void @llvm.dbg.value(metadata %"struct.HashTable<Pair<const IPFlowID, int>, void>::elt"* %84, metadata !3598, metadata !DIExpression()), !dbg !4652
  %130 = bitcast %"struct.HashTable<Pair<const IPFlowID, int>, void>::elt"** %85 to i64*, !dbg !4654
  store i64 %129, i64* %130, align 8, !dbg !4654, !tbaa !3543
  store %"struct.HashTable<Pair<const IPFlowID, int>, void>::elt"* %84, %"struct.HashTable<Pair<const IPFlowID, int>, void>::elt"** %127, align 8, !dbg !4655, !tbaa !3543
  call void @llvm.dbg.value(metadata %"struct.HashTable<Pair<const IPFlowID, int>, void>::elt"* %86, metadata !4528, metadata !DIExpression()), !dbg !4608
  %131 = icmp eq %"struct.HashTable<Pair<const IPFlowID, int>, void>::elt"* %86, null, !dbg !4609
  br i1 %131, label %186, label %83, !dbg !4610, !llvm.loop !4656

132:                                              ; preds = %82
  br i1 %74, label %133, label %189, !dbg !4610

133:                                              ; preds = %132, %133
  %134 = phi %"struct.HashTable<Pair<const IPFlowID, int>, void>::elt"* [ %136, %133 ], [ %80, %132 ]
  call void @llvm.dbg.value(metadata %"struct.HashTable<Pair<const IPFlowID, int>, void>::elt"* %134, metadata !4528, metadata !DIExpression()), !dbg !4608
  call void @llvm.dbg.value(metadata %"struct.HashTable<Pair<const IPFlowID, int>, void>::elt"* %134, metadata !3598, metadata !DIExpression()), !dbg !4611
  %135 = getelementptr inbounds %"struct.HashTable<Pair<const IPFlowID, int>, void>::elt", %"struct.HashTable<Pair<const IPFlowID, int>, void>::elt"* %134, i64 0, i32 1, !dbg !4613
  %136 = load %"struct.HashTable<Pair<const IPFlowID, int>, void>::elt"*, %"struct.HashTable<Pair<const IPFlowID, int>, void>::elt"** %135, align 8, !dbg !4614, !tbaa !3543
  call void @llvm.dbg.value(metadata %"struct.HashTable<Pair<const IPFlowID, int>, void>::elt"* %136, metadata !4531, metadata !DIExpression()), !dbg !4615
  call void @llvm.dbg.value(metadata %class.HashContainer* %0, metadata !3388, metadata !DIExpression()), !dbg !4616
  call void @llvm.dbg.value(metadata %"struct.HashTable<Pair<const IPFlowID, int>, void>::elt"* %134, metadata !3391, metadata !DIExpression()), !dbg !4616
  call void @llvm.dbg.value(metadata %"struct.HashTable<Pair<const IPFlowID, int>, void>::elt"* %134, metadata !3397, metadata !DIExpression()), !dbg !4617
  call void @llvm.dbg.value(metadata %"struct.HashTable<Pair<const IPFlowID, int>, void>::elt"* %134, metadata !3406, metadata !DIExpression()), !dbg !4619
  call void @llvm.dbg.value(metadata %"struct.HashTable<Pair<const IPFlowID, int>, void>::elt"* %134, metadata !3416, metadata !DIExpression()), !dbg !4621
  %137 = getelementptr inbounds %"struct.HashTable<Pair<const IPFlowID, int>, void>::elt", %"struct.HashTable<Pair<const IPFlowID, int>, void>::elt"* %134, i64 0, i32 0, i32 0, i32 2, !dbg !4623
  %138 = load i16, i16* %137, align 4, !dbg !4623, !tbaa !3422
  %139 = tail call i16 @llvm.bswap.i16(i16 %138) #11
  call void @llvm.dbg.value(metadata i16 %139, metadata !3409, metadata !DIExpression()), !dbg !4619
  call void @llvm.dbg.value(metadata %"struct.HashTable<Pair<const IPFlowID, int>, void>::elt"* %134, metadata !3434, metadata !DIExpression()), !dbg !4624
  %140 = getelementptr inbounds %"struct.HashTable<Pair<const IPFlowID, int>, void>::elt", %"struct.HashTable<Pair<const IPFlowID, int>, void>::elt"* %134, i64 0, i32 0, i32 0, i32 3, !dbg !4626
  %141 = load i16, i16* %140, align 2, !dbg !4626, !tbaa !3440
  %142 = tail call i16 @llvm.bswap.i16(i16 %141) #11
  call void @llvm.dbg.value(metadata i16 %142, metadata !3410, metadata !DIExpression()), !dbg !4619
  call void @llvm.dbg.value(metadata %"struct.HashTable<Pair<const IPFlowID, int>, void>::elt"* %134, metadata !3441, metadata !DIExpression()), !dbg !4627
  %143 = getelementptr inbounds %"struct.HashTable<Pair<const IPFlowID, int>, void>::elt", %"struct.HashTable<Pair<const IPFlowID, int>, void>::elt"* %134, i64 0, i32 0, i32 0, i32 0, i32 0, !dbg !4629
  %144 = load i32, i32* %143, align 4, !dbg !4629, !tbaa.struct !3447
  call void @llvm.dbg.value(metadata %class.IPAddress* undef, metadata !3448, metadata !DIExpression()), !dbg !4630
  %145 = zext i32 %144 to i64, !dbg !4632
  call void @llvm.dbg.value(metadata i64 %145, metadata !3411, metadata !DIExpression()), !dbg !4619
  call void @llvm.dbg.value(metadata %"struct.HashTable<Pair<const IPFlowID, int>, void>::elt"* %134, metadata !3459, metadata !DIExpression()), !dbg !4633
  %146 = getelementptr inbounds %"struct.HashTable<Pair<const IPFlowID, int>, void>::elt", %"struct.HashTable<Pair<const IPFlowID, int>, void>::elt"* %134, i64 0, i32 0, i32 0, i32 1, i32 0, !dbg !4635
  %147 = load i32, i32* %146, align 4, !dbg !4635, !tbaa.struct !3447
  call void @llvm.dbg.value(metadata %class.IPAddress* undef, metadata !3448, metadata !DIExpression()), !dbg !4636
  %148 = zext i32 %147 to i64, !dbg !4638
  call void @llvm.dbg.value(metadata i64 %148, metadata !3412, metadata !DIExpression()), !dbg !4619
  %149 = zext i16 %139 to i32, !dbg !4639
  %150 = and i32 %149, 15, !dbg !4639
  %151 = add nuw nsw i32 %150, 1, !dbg !4639
  %152 = zext i32 %151 to i64, !dbg !4639
  %153 = shl nuw nsw i64 %145, %152, !dbg !4639
  %154 = xor i32 %150, 31, !dbg !4639
  %155 = lshr i32 %144, %154, !dbg !4639
  %156 = zext i32 %155 to i64, !dbg !4639
  %157 = or i64 %153, %156, !dbg !4639
  %158 = zext i16 %142 to i32, !dbg !4640
  %159 = and i32 %158, 15, !dbg !4640
  %160 = xor i32 %159, 31, !dbg !4640
  %161 = zext i32 %160 to i64, !dbg !4640
  %162 = shl i64 %148, %161, !dbg !4640
  %163 = sub nuw nsw i32 32, %160, !dbg !4640
  %164 = lshr i32 %147, %163, !dbg !4640
  %165 = zext i32 %164 to i64, !dbg !4640
  %166 = or i64 %162, %165, !dbg !4640
  %167 = shl nuw i32 %158, 16, !dbg !4641
  %168 = or i32 %167, %149, !dbg !4642
  %169 = zext i32 %168 to i64, !dbg !4643
  %170 = xor i64 %157, %169, !dbg !4644
  %171 = xor i64 %170, %166, !dbg !4645
  %172 = trunc i64 %171 to i32, !dbg !4646
  call void @llvm.dbg.value(metadata i32 %172, metadata !3392, metadata !DIExpression()), !dbg !4616
  call void @llvm.dbg.value(metadata i32 %172, metadata !3476, metadata !DIExpression()), !dbg !4647
  call void @llvm.dbg.value(metadata i8 %69, metadata !3484, metadata !DIExpression()), !dbg !4647
  call void @llvm.dbg.value(metadata %class.HashContainer* %0, metadata !3483, metadata !DIExpression(DW_OP_plus_uconst, 24, DW_OP_stack_value)), !dbg !4647
  call void @llvm.dbg.value(metadata i64 %58, metadata !3503, metadata !DIExpression(DW_OP_LLVM_convert, 64, DW_ATE_unsigned, DW_OP_LLVM_convert, 32, DW_ATE_unsigned, DW_OP_stack_value)), !dbg !4658
  call void @llvm.dbg.value(metadata i32 %172, metadata !3508, metadata !DIExpression()), !dbg !4658
  call void @llvm.dbg.value(metadata i64 %58, metadata !3509, metadata !DIExpression()), !dbg !4658
  %173 = and i64 %171, 4294967295, !dbg !4660
  call void @llvm.dbg.value(metadata i64 %173, metadata !3510, metadata !DIExpression()), !dbg !4658
  %174 = mul nuw i64 %173, %58, !dbg !4661
  call void @llvm.dbg.value(metadata i64 %174, metadata !3511, metadata !DIExpression()), !dbg !4658
  %175 = lshr i64 %174, 32, !dbg !4662
  %176 = trunc i64 %175 to i32, !dbg !4663
  call void @llvm.dbg.value(metadata i32 %176, metadata !3485, metadata !DIExpression()), !dbg !4664
  %177 = lshr i32 %176, %70, !dbg !4665
  call void @llvm.dbg.value(metadata i32 %177, metadata !3393, metadata !DIExpression()), !dbg !4616
  %178 = mul i32 %177, %12, !dbg !4649
  %179 = sub i32 %172, %178, !dbg !4650
  call void @llvm.dbg.value(metadata i32 %179, metadata !3394, metadata !DIExpression()), !dbg !4616
  call void @llvm.dbg.value(metadata i32 %179, metadata !4534, metadata !DIExpression()), !dbg !4615
  %180 = zext i32 %179 to i64, !dbg !4651
  %181 = getelementptr inbounds %"struct.HashTable<Pair<const IPFlowID, int>, void>::elt"*, %"struct.HashTable<Pair<const IPFlowID, int>, void>::elt"** %20, i64 %180, !dbg !4651
  %182 = bitcast %"struct.HashTable<Pair<const IPFlowID, int>, void>::elt"** %181 to i64*, !dbg !4651
  %183 = load i64, i64* %182, align 8, !dbg !4651, !tbaa !3543
  call void @llvm.dbg.value(metadata %"struct.HashTable<Pair<const IPFlowID, int>, void>::elt"* %134, metadata !3598, metadata !DIExpression()), !dbg !4652
  %184 = bitcast %"struct.HashTable<Pair<const IPFlowID, int>, void>::elt"** %135 to i64*, !dbg !4654
  store i64 %183, i64* %184, align 8, !dbg !4654, !tbaa !3543
  store %"struct.HashTable<Pair<const IPFlowID, int>, void>::elt"* %134, %"struct.HashTable<Pair<const IPFlowID, int>, void>::elt"** %181, align 8, !dbg !4655, !tbaa !3543
  call void @llvm.dbg.value(metadata %"struct.HashTable<Pair<const IPFlowID, int>, void>::elt"* %136, metadata !4528, metadata !DIExpression()), !dbg !4608
  %185 = icmp eq %"struct.HashTable<Pair<const IPFlowID, int>, void>::elt"* %136, null, !dbg !4609
  br i1 %185, label %186, label %133, !dbg !4610, !llvm.loop !4656

186:                                              ; preds = %189, %133, %83, %77
  %187 = add nuw nsw i64 %78, 1, !dbg !4666
  call void @llvm.dbg.value(metadata i64 %187, metadata !4526, metadata !DIExpression()), !dbg !4597
  %188 = icmp eq i64 %187, %66, !dbg !4599
  br i1 %188, label %75, label %77, !dbg !4600, !llvm.loop !4667

189:                                              ; preds = %132, %189
  %190 = phi %"struct.HashTable<Pair<const IPFlowID, int>, void>::elt"* [ %192, %189 ], [ %80, %132 ]
  call void @llvm.dbg.value(metadata %"struct.HashTable<Pair<const IPFlowID, int>, void>::elt"* %190, metadata !4528, metadata !DIExpression()), !dbg !4608
  call void @llvm.dbg.value(metadata %"struct.HashTable<Pair<const IPFlowID, int>, void>::elt"* %190, metadata !3598, metadata !DIExpression()), !dbg !4611
  %191 = getelementptr inbounds %"struct.HashTable<Pair<const IPFlowID, int>, void>::elt", %"struct.HashTable<Pair<const IPFlowID, int>, void>::elt"* %190, i64 0, i32 1, !dbg !4613
  %192 = load %"struct.HashTable<Pair<const IPFlowID, int>, void>::elt"*, %"struct.HashTable<Pair<const IPFlowID, int>, void>::elt"** %191, align 8, !dbg !4614, !tbaa !3543
  call void @llvm.dbg.value(metadata %"struct.HashTable<Pair<const IPFlowID, int>, void>::elt"* %192, metadata !4531, metadata !DIExpression()), !dbg !4615
  call void @llvm.dbg.value(metadata %class.HashContainer* %0, metadata !3388, metadata !DIExpression()), !dbg !4616
  call void @llvm.dbg.value(metadata %"struct.HashTable<Pair<const IPFlowID, int>, void>::elt"* %190, metadata !3391, metadata !DIExpression()), !dbg !4616
  call void @llvm.dbg.value(metadata %"struct.HashTable<Pair<const IPFlowID, int>, void>::elt"* %190, metadata !3397, metadata !DIExpression()), !dbg !4617
  call void @llvm.dbg.value(metadata %"struct.HashTable<Pair<const IPFlowID, int>, void>::elt"* %190, metadata !3406, metadata !DIExpression()), !dbg !4619
  call void @llvm.dbg.value(metadata %"struct.HashTable<Pair<const IPFlowID, int>, void>::elt"* %190, metadata !3416, metadata !DIExpression()), !dbg !4621
  %193 = getelementptr inbounds %"struct.HashTable<Pair<const IPFlowID, int>, void>::elt", %"struct.HashTable<Pair<const IPFlowID, int>, void>::elt"* %190, i64 0, i32 0, i32 0, i32 2, !dbg !4623
  %194 = load i16, i16* %193, align 4, !dbg !4623, !tbaa !3422
  %195 = tail call i16 @llvm.bswap.i16(i16 %194) #11
  call void @llvm.dbg.value(metadata i16 %195, metadata !3409, metadata !DIExpression()), !dbg !4619
  call void @llvm.dbg.value(metadata %"struct.HashTable<Pair<const IPFlowID, int>, void>::elt"* %190, metadata !3434, metadata !DIExpression()), !dbg !4624
  %196 = getelementptr inbounds %"struct.HashTable<Pair<const IPFlowID, int>, void>::elt", %"struct.HashTable<Pair<const IPFlowID, int>, void>::elt"* %190, i64 0, i32 0, i32 0, i32 3, !dbg !4626
  %197 = load i16, i16* %196, align 2, !dbg !4626, !tbaa !3440
  %198 = tail call i16 @llvm.bswap.i16(i16 %197) #11
  call void @llvm.dbg.value(metadata i16 %198, metadata !3410, metadata !DIExpression()), !dbg !4619
  call void @llvm.dbg.value(metadata %"struct.HashTable<Pair<const IPFlowID, int>, void>::elt"* %190, metadata !3441, metadata !DIExpression()), !dbg !4627
  %199 = getelementptr inbounds %"struct.HashTable<Pair<const IPFlowID, int>, void>::elt", %"struct.HashTable<Pair<const IPFlowID, int>, void>::elt"* %190, i64 0, i32 0, i32 0, i32 0, i32 0, !dbg !4629
  %200 = load i32, i32* %199, align 4, !dbg !4629, !tbaa.struct !3447
  call void @llvm.dbg.value(metadata %class.IPAddress* undef, metadata !3448, metadata !DIExpression()), !dbg !4630
  %201 = zext i32 %200 to i64, !dbg !4632
  call void @llvm.dbg.value(metadata i64 %201, metadata !3411, metadata !DIExpression()), !dbg !4619
  call void @llvm.dbg.value(metadata %"struct.HashTable<Pair<const IPFlowID, int>, void>::elt"* %190, metadata !3459, metadata !DIExpression()), !dbg !4633
  %202 = getelementptr inbounds %"struct.HashTable<Pair<const IPFlowID, int>, void>::elt", %"struct.HashTable<Pair<const IPFlowID, int>, void>::elt"* %190, i64 0, i32 0, i32 0, i32 1, i32 0, !dbg !4635
  %203 = load i32, i32* %202, align 4, !dbg !4635, !tbaa.struct !3447
  call void @llvm.dbg.value(metadata %class.IPAddress* undef, metadata !3448, metadata !DIExpression()), !dbg !4636
  %204 = zext i32 %203 to i64, !dbg !4638
  call void @llvm.dbg.value(metadata i64 %204, metadata !3412, metadata !DIExpression()), !dbg !4619
  %205 = zext i16 %195 to i32, !dbg !4639
  %206 = and i32 %205, 15, !dbg !4639
  %207 = add nuw nsw i32 %206, 1, !dbg !4639
  %208 = zext i32 %207 to i64, !dbg !4639
  %209 = shl nuw nsw i64 %201, %208, !dbg !4639
  %210 = xor i32 %206, 31, !dbg !4639
  %211 = lshr i32 %200, %210, !dbg !4639
  %212 = zext i32 %211 to i64, !dbg !4639
  %213 = or i64 %209, %212, !dbg !4639
  %214 = zext i16 %198 to i32, !dbg !4640
  %215 = and i32 %214, 15, !dbg !4640
  %216 = xor i32 %215, 31, !dbg !4640
  %217 = zext i32 %216 to i64, !dbg !4640
  %218 = shl i64 %204, %217, !dbg !4640
  %219 = sub nuw nsw i32 32, %216, !dbg !4640
  %220 = lshr i32 %203, %219, !dbg !4640
  %221 = zext i32 %220 to i64, !dbg !4640
  %222 = or i64 %218, %221, !dbg !4640
  %223 = shl nuw i32 %214, 16, !dbg !4641
  %224 = or i32 %223, %205, !dbg !4642
  %225 = zext i32 %224 to i64, !dbg !4643
  %226 = xor i64 %213, %225, !dbg !4644
  %227 = xor i64 %226, %222, !dbg !4645
  %228 = trunc i64 %227 to i32, !dbg !4646
  call void @llvm.dbg.value(metadata i32 %228, metadata !3392, metadata !DIExpression()), !dbg !4616
  call void @llvm.dbg.value(metadata i32 %228, metadata !3476, metadata !DIExpression()), !dbg !4647
  call void @llvm.dbg.value(metadata i8 %69, metadata !3484, metadata !DIExpression()), !dbg !4647
  call void @llvm.dbg.value(metadata %class.HashContainer* %0, metadata !3483, metadata !DIExpression(DW_OP_plus_uconst, 24, DW_OP_stack_value)), !dbg !4647
  call void @llvm.dbg.value(metadata i64 %58, metadata !3503, metadata !DIExpression(DW_OP_LLVM_convert, 64, DW_ATE_unsigned, DW_OP_LLVM_convert, 32, DW_ATE_unsigned, DW_OP_stack_value)), !dbg !4658
  call void @llvm.dbg.value(metadata i32 %228, metadata !3508, metadata !DIExpression()), !dbg !4658
  call void @llvm.dbg.value(metadata i64 %58, metadata !3509, metadata !DIExpression()), !dbg !4658
  %229 = and i64 %227, 4294967295, !dbg !4660
  call void @llvm.dbg.value(metadata i64 %229, metadata !3510, metadata !DIExpression()), !dbg !4658
  %230 = mul nuw i64 %229, %58, !dbg !4661
  call void @llvm.dbg.value(metadata i64 %230, metadata !3511, metadata !DIExpression()), !dbg !4658
  %231 = lshr i64 %230, 32, !dbg !4662
  %232 = trunc i64 %231 to i32, !dbg !4663
  call void @llvm.dbg.value(metadata i32 %232, metadata !3485, metadata !DIExpression()), !dbg !4664
  %233 = sub i32 %228, %232, !dbg !4669
  %234 = lshr i32 %233, 1, !dbg !4670
  %235 = add i32 %234, %232, !dbg !4671
  call void @llvm.dbg.value(metadata i32 %235, metadata !3488, metadata !DIExpression()), !dbg !4604
  %236 = lshr i32 %235, %72, !dbg !4672
  call void @llvm.dbg.value(metadata i32 %236, metadata !3393, metadata !DIExpression()), !dbg !4616
  %237 = mul i32 %236, %12, !dbg !4649
  %238 = sub i32 %228, %237, !dbg !4650
  call void @llvm.dbg.value(metadata i32 %238, metadata !3394, metadata !DIExpression()), !dbg !4616
  call void @llvm.dbg.value(metadata i32 %238, metadata !4534, metadata !DIExpression()), !dbg !4615
  %239 = zext i32 %238 to i64, !dbg !4651
  %240 = getelementptr inbounds %"struct.HashTable<Pair<const IPFlowID, int>, void>::elt"*, %"struct.HashTable<Pair<const IPFlowID, int>, void>::elt"** %20, i64 %239, !dbg !4651
  %241 = bitcast %"struct.HashTable<Pair<const IPFlowID, int>, void>::elt"** %240 to i64*, !dbg !4651
  %242 = load i64, i64* %241, align 8, !dbg !4651, !tbaa !3543
  call void @llvm.dbg.value(metadata %"struct.HashTable<Pair<const IPFlowID, int>, void>::elt"* %190, metadata !3598, metadata !DIExpression()), !dbg !4652
  %243 = bitcast %"struct.HashTable<Pair<const IPFlowID, int>, void>::elt"** %191 to i64*, !dbg !4654
  store i64 %242, i64* %243, align 8, !dbg !4654, !tbaa !3543
  store %"struct.HashTable<Pair<const IPFlowID, int>, void>::elt"* %190, %"struct.HashTable<Pair<const IPFlowID, int>, void>::elt"** %240, align 8, !dbg !4655, !tbaa !3543
  call void @llvm.dbg.value(metadata %"struct.HashTable<Pair<const IPFlowID, int>, void>::elt"* %192, metadata !4528, metadata !DIExpression()), !dbg !4608
  %244 = icmp eq %"struct.HashTable<Pair<const IPFlowID, int>, void>::elt"* %192, null, !dbg !4609
  br i1 %244, label %186, label %189, !dbg !4610, !llvm.loop !4656

245:                                              ; preds = %75
  %246 = bitcast %"struct.HashTable<Pair<const IPFlowID, int>, void>::elt"** %22 to i8*, !dbg !4606
  tail call void @_ZdaPv(i8* %246) #12, !dbg !4606
  br label %247, !dbg !4606

247:                                              ; preds = %75, %245, %11
  ret void, !dbg !4673
}

; Function Attrs: nounwind sspstrong uwtable
define linkonce_odr dso_local zeroext i1 @_ZNK24HashTable_const_iteratorI4PairIK8IPFlowIDiEE4liveEv(%class.HashTable_const_iterator* %0) #4 comdat align 2 !dbg !4674 {
  call void @llvm.dbg.value(metadata %class.HashTable_const_iterator* %0, metadata !4676, metadata !DIExpression()), !dbg !4677
  call void @llvm.dbg.value(metadata %class.HashTable_const_iterator* %0, metadata !3613, metadata !DIExpression()), !dbg !4678
  %2 = getelementptr inbounds %class.HashTable_const_iterator, %class.HashTable_const_iterator* %0, i64 0, i32 0, i32 0, !dbg !4680
  %3 = load %"struct.HashTable<Pair<const IPFlowID, int>, void>::elt"*, %"struct.HashTable<Pair<const IPFlowID, int>, void>::elt"** %2, align 8, !dbg !4680, !tbaa !3955
  %4 = icmp eq %"struct.HashTable<Pair<const IPFlowID, int>, void>::elt"* %3, null, !dbg !4680
  %5 = select i1 %4, { i64, i64 } zeroinitializer, { i64, i64 } { i64 ptrtoint (%"struct.HashTable<Pair<const IPFlowID, int>, void>::elt"* (%class.HashContainer_const_iterator*)* @_ZNK28HashContainer_const_iteratorIN9HashTableI4PairIK8IPFlowIDiEvE3eltE21HashContainer_adapterIS6_EE3getEv to i64), i64 0 }, !dbg !4680
  %6 = extractvalue { i64, i64 } %5, 0, !dbg !4681
  %7 = icmp ne i64 %6, 0, !dbg !4681
  ret i1 %7, !dbg !4682
}

declare i8* @_ZN13HashAllocator13hard_allocateEv(%class.HashAllocator*) local_unnamed_addr #2

; Function Attrs: nounwind readnone speculatable willreturn
declare void @llvm.dbg.value(metadata, metadata, metadata) #1

