; ModuleID = '../elements/ip/storeipaddress.cc'
source_filename = "../elements/ip/storeipaddress.cc"
target datalayout = "e-m:e-p270:32:32-p271:32:32-p272:64:64-i64:64-f80:128-n8:16:32:64-S128"
target triple = "x86_64-pc-linux-gnu"

%class.ArgContext = type <{ %class.Element*, %class.ErrorHandler*, i8*, i8, [7 x i8] }>
%class.Element = type <{ i32 (...)**, [2 x %"class.Element::Port"*], [4 x %"class.Element::Port"], [2 x i32], %class.Router*, i32, [4 x i8] }>
%"class.Element::Port" = type <{ %class.Element*, i32, [4 x i8] }>
%class.Router = type opaque
%class.ErrorHandler = type <{ i32 (...)**, i32, [4 x i8] }>
%class.StoreIPAddress = type <{ %class.Element.base, i32, %class.IPAddress, i8, [3 x i8] }>
%class.Element.base = type <{ i32 (...)**, [2 x %"class.Element::Port"*], [4 x %"class.Element::Port"], [2 x i32], %class.Router*, i32 }>
%class.IPAddress = type { i32 }
%class.Vector = type { %class.vector_memory }
%class.vector_memory = type { %class.String*, i32, i32 }
%class.String = type { %"struct.String::rep_t" }
%"struct.String::rep_t" = type { i8*, i32, %"struct.String::memo_t"* }
%"struct.String::memo_t" = type { i32, i32, i32, [8 x i8] }
%class.Args = type { %class.ArgContext.base, i8, i8, i8, %class.Vector*, %class.Vector.0, %"struct.Args::Slot"*, [48 x i8] }
%class.ArgContext.base = type <{ %class.Element*, %class.ErrorHandler*, i8*, i8 }>
%class.Vector.0 = type { %class.vector_memory.1 }
%class.vector_memory.1 = type { %struct.char_array*, i32, i32 }
%struct.char_array = type opaque
%"struct.Args::Slot" = type { i32 (...)**, %"struct.Args::Slot"* }
%class.IntArg = type { i32, i32 }
%class.Packet = type { %class.atomic_uint32_t, %class.Packet*, i8*, i8*, i8*, i8*, %"struct.Packet::AllAnno", void (i8*, i64, i8*)*, i8* }
%class.atomic_uint32_t = type { i32 }
%"struct.Packet::AllAnno" = type { %"union.Packet::Anno", i8*, i8*, i8*, i32, [8 x i8], %class.Packet*, %class.Packet* }
%"union.Packet::Anno" = type { [6 x i64] }
%class.WritablePacket = type { %class.Packet }
%struct.click_ip = type { i8, i8, i16, i16, i16, i8, i8, i16, %struct.in_addr, %struct.in_addr }
%struct.in_addr = type { i32 }
%class.Task = type opaque
%class.Timer = type opaque
%class.WordArg = type { i8 }
%"struct.Args::SlotT" = type { %"struct.Args::Slot", %class.String*, %class.String }

$_ZNK7Element19checked_output_pushEiP6Packet = comdat any

$_ZNK14StoreIPAddress10class_nameEv = comdat any

$_ZNK14StoreIPAddress10port_countEv = comdat any

$_ZNK14StoreIPAddress10processingEv = comdat any

$_ZNK6String6lengthEv = comdat any

$__clang_call_terminate = comdat any

$_ZNK7Element8noutputsEv = comdat any

$_ZNK7Element4Port4pushEP6Packet = comdat any

$_Z14args_base_readI7WordArg6StringEvP4ArgsPKciT_RT0_ = comdat any

$_ZN4Args9base_readI7WordArg6StringEEvPKciT_RT0_ = comdat any

$_ZN4Args5SlotTI6StringED2Ev = comdat any

$_ZN4Args5SlotTI6StringED0Ev = comdat any

$_ZN4Args5SlotTI6StringE5storeEv = comdat any

$_Z14args_base_readI9IPAddressEvP4ArgsPKciRT_ = comdat any

$_ZN4Args9base_readI9IPAddressEEvPKciRT_ = comdat any

$_ZTVN4Args5SlotTI6StringEE = comdat any

$_ZTSN4Args5SlotTI6StringEE = comdat any

$_ZTSN4Args4SlotE = comdat any

$_ZTIN4Args4SlotE = comdat any

$_ZTIN4Args5SlotTI6StringEE = comdat any

@_ZTV14StoreIPAddress = dso_local unnamed_addr constant { [29 x i8*] } { [29 x i8*] [i8* null, i8* bitcast ({ i8*, i8*, i8* }* @_ZTI14StoreIPAddress to i8*), i8* bitcast (void (%class.StoreIPAddress*)* @_ZN14StoreIPAddressD2Ev to i8*), i8* bitcast (void (%class.StoreIPAddress*)* @_ZN14StoreIPAddressD0Ev to i8*), i8* bitcast (void (%class.Element*, i32, %class.Packet*)* @_ZN7Element4pushEiP6Packet to i8*), i8* bitcast (%class.Packet* (%class.Element*, i32)* @_ZN7Element4pullEi to i8*), i8* bitcast (%class.Packet* (%class.StoreIPAddress*, %class.Packet*)* @_ZN14StoreIPAddress13simple_actionEP6Packet to i8*), i8* bitcast (i1 (%class.Element*, %class.Task*)* @_ZN7Element8run_taskEP4Task to i8*), i8* bitcast (void (%class.Element*, %class.Timer*)* @_ZN7Element9run_timerEP5Timer to i8*), i8* bitcast (void (%class.Element*, i32, i32)* @_ZN7Element8selectedEii to i8*), i8* bitcast (void (%class.Element*, i32)* @_ZN7Element8selectedEi to i8*), i8* bitcast (i8* (%class.StoreIPAddress*)* @_ZNK14StoreIPAddress10class_nameEv to i8*), i8* bitcast (i8* (%class.StoreIPAddress*)* @_ZNK14StoreIPAddress10port_countEv to i8*), i8* bitcast (i8* (%class.StoreIPAddress*)* @_ZNK14StoreIPAddress10processingEv to i8*), i8* bitcast (i8* (%class.Element*)* @_ZNK7Element9flow_codeEv to i8*), i8* bitcast (i8* (%class.Element*)* @_ZNK7Element5flagsEv to i8*), i8* bitcast (i8* (%class.Element*, i8*)* @_ZN7Element4castEPKc to i8*), i8* bitcast (i8* (%class.Element*, i1, i32, i8*)* @_ZN7Element9port_castEbiPKc to i8*), i8* bitcast (i32 (%class.Element*)* @_ZNK7Element15configure_phaseEv to i8*), i8* bitcast (i32 (%class.StoreIPAddress*, %class.Vector*, %class.ErrorHandler*)* @_ZN14StoreIPAddress9configureER6VectorI6StringEP12ErrorHandler to i8*), i8* bitcast (void (%class.Element*)* @_ZN7Element12add_handlersEv to i8*), i8* bitcast (i32 (%class.Element*, %class.ErrorHandler*)* @_ZN7Element10initializeEP12ErrorHandler to i8*), i8* bitcast (void (%class.Element*, %class.Element*, %class.ErrorHandler*)* @_ZN7Element10take_stateEPS_P12ErrorHandler to i8*), i8* bitcast (%class.Element* (%class.Element*)* @_ZNK7Element15hotswap_elementEv to i8*), i8* bitcast (void (%class.Element*, i32)* @_ZN7Element7cleanupENS_12CleanupStageE to i8*), i8* bitcast (void (%class.String*, %class.Element*)* @_ZNK7Element11declarationEv to i8*), i8* bitcast (i1 (%class.Element*)* @_ZNK7Element20can_live_reconfigureEv to i8*), i8* bitcast (i32 (%class.Element*, %class.Vector*, %class.ErrorHandler*)* @_ZN7Element16live_reconfigureER6VectorI6StringEP12ErrorHandler to i8*), i8* bitcast (i32 (%class.Element*, i32, i8*)* @_ZN7Element5llrpcEjPv to i8*)] }, align 8
@.str = private unnamed_addr constant [7 x i8] c"OFFSET\00", align 1
@.str.1 = private unnamed_addr constant [5 x i8] c"ADDR\00", align 1
@.str.2 = private unnamed_addr constant [4 x i8] c"src\00", align 1
@.str.3 = private unnamed_addr constant [4 x i8] c"dst\00", align 1
@blank_args = external global %class.ArgContext, align 8
@.str.4 = private unnamed_addr constant [39 x i8] c"type mismatch: OFFSET requires integer\00", align 1
@_ZTVN10__cxxabiv120__si_class_type_infoE = external global i8*
@_ZTS14StoreIPAddress = dso_local constant [17 x i8] c"14StoreIPAddress\00", align 1
@_ZTI7Element = external constant i8*
@_ZTI14StoreIPAddress = dso_local constant { i8*, i8*, i8* } { i8* bitcast (i8** getelementptr inbounds (i8*, i8** @_ZTVN10__cxxabiv120__si_class_type_infoE, i64 2) to i8*), i8* getelementptr inbounds ([17 x i8], [17 x i8]* @_ZTS14StoreIPAddress, i32 0, i32 0), i8* bitcast (i8** @_ZTI7Element to i8*) }, align 8
@_ZN6String9null_dataE = external constant i8, align 1
@.str.5 = private unnamed_addr constant [18 x i8] c"_r.memo->refcount\00", align 1
@.str.6 = private unnamed_addr constant [29 x i8] c"../dummy_inc/click/string.hh\00", align 1
@__PRETTY_FUNCTION__._ZNK6String5derefEv = private unnamed_addr constant [27 x i8] c"void String::deref() const\00", align 1
@.str.7 = private unnamed_addr constant [8 x i8] c"_e && p\00", align 1
@.str.8 = private unnamed_addr constant [30 x i8] c"../dummy_inc/click/element.hh\00", align 1
@__PRETTY_FUNCTION__._ZNK7Element4Port4pushEP6Packet = private unnamed_addr constant [41 x i8] c"void Element::Port::push(Packet *) const\00", align 1
@.str.9 = private unnamed_addr constant [15 x i8] c"StoreIPAddress\00", align 1
@_ZN7Element11PORTS_1_1X2E = external constant [0 x i8], align 1
@_ZN7Element15PROCESSING_A_AHE = external constant [0 x i8], align 1
@_ZTVN4Args5SlotTI6StringEE = linkonce_odr dso_local unnamed_addr constant { [5 x i8*] } { [5 x i8*] [i8* null, i8* bitcast ({ i8*, i8*, i8* }* @_ZTIN4Args5SlotTI6StringEE to i8*), i8* bitcast (void (%"struct.Args::SlotT"*)* @_ZN4Args5SlotTI6StringED2Ev to i8*), i8* bitcast (void (%"struct.Args::SlotT"*)* @_ZN4Args5SlotTI6StringED0Ev to i8*), i8* bitcast (void (%"struct.Args::SlotT"*)* @_ZN4Args5SlotTI6StringE5storeEv to i8*)] }, comdat, align 8
@_ZTSN4Args5SlotTI6StringEE = linkonce_odr dso_local constant [23 x i8] c"N4Args5SlotTI6StringEE\00", comdat, align 1
@_ZTVN10__cxxabiv117__class_type_infoE = external global i8*
@_ZTSN4Args4SlotE = linkonce_odr dso_local constant [13 x i8] c"N4Args4SlotE\00", comdat, align 1
@_ZTIN4Args4SlotE = linkonce_odr dso_local constant { i8*, i8* } { i8* bitcast (i8** getelementptr inbounds (i8*, i8** @_ZTVN10__cxxabiv117__class_type_infoE, i64 2) to i8*), i8* getelementptr inbounds ([13 x i8], [13 x i8]* @_ZTSN4Args4SlotE, i32 0, i32 0) }, comdat, align 8
@_ZTIN4Args5SlotTI6StringEE = linkonce_odr dso_local constant { i8*, i8*, i8* } { i8* bitcast (i8** getelementptr inbounds (i8*, i8** @_ZTVN10__cxxabiv120__si_class_type_infoE, i64 2) to i8*), i8* getelementptr inbounds ([23 x i8], [23 x i8]* @_ZTSN4Args5SlotTI6StringEE, i32 0, i32 0), i8* bitcast ({ i8*, i8* }* @_ZTIN4Args4SlotE to i8*) }, comdat, align 8
@.str.11 = private unnamed_addr constant [15 x i8] c"invalid number\00", align 1

@_ZN14StoreIPAddressC1Ev = dso_local unnamed_addr alias void (%class.StoreIPAddress*), void (%class.StoreIPAddress*)* @_ZN14StoreIPAddressC2Ev
@_ZN14StoreIPAddressD1Ev = dso_local unnamed_addr alias void (%class.StoreIPAddress*), void (%class.StoreIPAddress*)* @_ZN14StoreIPAddressD2Ev

; Function Attrs: sspstrong uwtable
define dso_local void @_ZN14StoreIPAddressC2Ev(%class.StoreIPAddress* %0) unnamed_addr #0 align 2 personality i8* bitcast (i32 (...)* @__gxx_personality_v0 to i8*) !dbg !2442 {
  call void @llvm.dbg.value(metadata %class.StoreIPAddress* %0, metadata !2469, metadata !DIExpression()), !dbg !2471
  %2 = bitcast %class.StoreIPAddress* %0 to %class.Element*, !dbg !2472
  tail call void @_ZN7ElementC2Ev(%class.Element* %2), !dbg !2473
  %3 = getelementptr %class.StoreIPAddress, %class.StoreIPAddress* %0, i64 0, i32 0, i32 0, !dbg !2472
  store i32 (...)** bitcast (i8** getelementptr inbounds ({ [29 x i8*] }, { [29 x i8*] }* @_ZTV14StoreIPAddress, i64 0, inrange i32 0, i64 2) to i32 (...)**), i32 (...)*** %3, align 8, !dbg !2472, !tbaa !2474
  call void @llvm.dbg.value(metadata %class.StoreIPAddress* %0, metadata !2477, metadata !DIExpression(DW_OP_plus_uconst, 112, DW_OP_stack_value)), !dbg !2480
  %4 = getelementptr inbounds %class.StoreIPAddress, %class.StoreIPAddress* %0, i64 0, i32 2, i32 0, !dbg !2482
  store i32 0, i32* %4, align 4, !dbg !2482, !tbaa !2483
  ret void, !dbg !2487
}

; Function Attrs: nounwind readnone speculatable willreturn
declare void @llvm.dbg.declare(metadata, metadata, metadata) #1

declare void @_ZN7ElementC2Ev(%class.Element*) unnamed_addr #2

declare i32 @__gxx_personality_v0(...)

; Function Attrs: nounwind
declare void @_ZN7ElementD2Ev(%class.Element*) unnamed_addr #3

; Function Attrs: nounwind sspstrong uwtable
define dso_local void @_ZN14StoreIPAddressD2Ev(%class.StoreIPAddress* %0) unnamed_addr #4 align 2 !dbg !2488 {
  call void @llvm.dbg.value(metadata %class.StoreIPAddress* %0, metadata !2490, metadata !DIExpression()), !dbg !2491
  %2 = bitcast %class.StoreIPAddress* %0 to %class.Element*, !dbg !2492
  tail call void @_ZN7ElementD2Ev(%class.Element* %2) #13, !dbg !2492
  ret void, !dbg !2494
}

; Function Attrs: nounwind sspstrong uwtable
define dso_local void @_ZN14StoreIPAddressD0Ev(%class.StoreIPAddress* %0) unnamed_addr #4 align 2 !dbg !2495 {
  call void @llvm.dbg.value(metadata %class.StoreIPAddress* %0, metadata !2497, metadata !DIExpression()), !dbg !2498
  call void @llvm.dbg.value(metadata %class.StoreIPAddress* %0, metadata !2490, metadata !DIExpression()) #13, !dbg !2499
  %2 = bitcast %class.StoreIPAddress* %0 to %class.Element*, !dbg !2501
  tail call void @_ZN7ElementD2Ev(%class.Element* %2) #13, !dbg !2501
  %3 = bitcast %class.StoreIPAddress* %0 to i8*, !dbg !2502
  tail call void @_ZdlPv(i8* %3) #14, !dbg !2502
  ret void, !dbg !2503
}

; Function Attrs: nobuiltin nounwind
declare void @_ZdlPv(i8*) local_unnamed_addr #5

; Function Attrs: sspstrong uwtable
define dso_local i32 @_ZN14StoreIPAddress9configureER6VectorI6StringEP12ErrorHandler(%class.StoreIPAddress* %0, %class.Vector* dereferenceable(16) %1, %class.ErrorHandler* %2) unnamed_addr #0 align 2 personality i8* bitcast (i32 (...)* @__gxx_personality_v0 to i8*) !dbg !2504 {
  %4 = alloca [1 x i32], align 4
  call void @llvm.dbg.declare(metadata [1 x i32]* %4, metadata !1798, metadata !DIExpression()), !dbg !2511
  %5 = alloca %class.String, align 8
  %6 = alloca %class.Args, align 8
  %7 = alloca %class.Args, align 8
  %8 = alloca %class.String, align 8
  %9 = alloca %class.String, align 8
  %10 = alloca %class.IntArg, align 4
  call void @llvm.dbg.value(metadata %class.StoreIPAddress* %0, metadata !2506, metadata !DIExpression()), !dbg !2526
  call void @llvm.dbg.value(metadata %class.Vector* %1, metadata !2507, metadata !DIExpression()), !dbg !2526
  call void @llvm.dbg.value(metadata %class.ErrorHandler* %2, metadata !2508, metadata !DIExpression()), !dbg !2526
  %11 = bitcast %class.String* %5 to i8*, !dbg !2527
  call void @llvm.lifetime.start.p0i8(i64 24, i8* nonnull %11) #13, !dbg !2527
  call void @llvm.dbg.declare(metadata %class.String* %5, metadata !2509, metadata !DIExpression()), !dbg !2528
  call void @llvm.dbg.value(metadata %class.String* %5, metadata !2529, metadata !DIExpression()), !dbg !2532
  call void @llvm.dbg.value(metadata %class.String* %5, metadata !2534, metadata !DIExpression()), !dbg !2540
  call void @llvm.dbg.value(metadata i8* @_ZN6String9null_dataE, metadata !2537, metadata !DIExpression()), !dbg !2540
  call void @llvm.dbg.value(metadata i32 0, metadata !2538, metadata !DIExpression()), !dbg !2540
  call void @llvm.dbg.value(metadata %"struct.String::memo_t"* null, metadata !2539, metadata !DIExpression()), !dbg !2540
  %12 = getelementptr inbounds %class.String, %class.String* %5, i64 0, i32 0, i32 0, !dbg !2543
  store i8* @_ZN6String9null_dataE, i8** %12, align 8, !dbg !2544, !tbaa !2545
  %13 = getelementptr inbounds %class.String, %class.String* %5, i64 0, i32 0, i32 1, !dbg !2549
  store i32 0, i32* %13, align 8, !dbg !2550, !tbaa !2551
  %14 = getelementptr inbounds %class.String, %class.String* %5, i64 0, i32 0, i32 2, !dbg !2552
  store %"struct.String::memo_t"* null, %"struct.String::memo_t"** %14, align 8, !dbg !2554, !tbaa !2555
  call void @llvm.dbg.value(metadata %class.Vector* %1, metadata !2556, metadata !DIExpression()), !dbg !2559
  %15 = getelementptr inbounds %class.Vector, %class.Vector* %1, i64 0, i32 0, i32 1, !dbg !2561
  %16 = load i32, i32* %15, align 8, !dbg !2561, !tbaa !2562
  %17 = icmp sgt i32 %16, 1, !dbg !2565
  %18 = getelementptr inbounds %class.StoreIPAddress, %class.StoreIPAddress* %0, i64 0, i32 3, !dbg !2566
  %19 = zext i1 %17 to i8, !dbg !2567
  store i8 %19, i8* %18, align 4, !dbg !2567, !tbaa !2568
  br i1 %17, label %42, label %20, !dbg !2571

20:                                               ; preds = %3
  %21 = bitcast %class.Args* %6 to i8*, !dbg !2572
  call void @llvm.lifetime.start.p0i8(i64 112, i8* nonnull %21) #13, !dbg !2572
  %22 = bitcast %class.StoreIPAddress* %0 to %class.Element*, !dbg !2574
  invoke void @_ZN4ArgsC1ERK6VectorI6StringEPK7ElementP12ErrorHandler(%class.Args* nonnull %6, %class.Vector* nonnull dereferenceable(16) %1, %class.Element* %22, %class.ErrorHandler* %2)
          to label %23 unwind label %31, !dbg !2572

23:                                               ; preds = %20
  call void @llvm.dbg.value(metadata %class.Args* %6, metadata !2575, metadata !DIExpression()), !dbg !2584
  call void @llvm.dbg.value(metadata i8* getelementptr inbounds ([7 x i8], [7 x i8]* @.str, i64 0, i64 0), metadata !2581, metadata !DIExpression()), !dbg !2584
  call void @llvm.dbg.value(metadata %class.String* %5, metadata !2583, metadata !DIExpression()), !dbg !2584
  call void @llvm.dbg.value(metadata %class.Args* %6, metadata !2586, metadata !DIExpression()), !dbg !2596
  call void @llvm.dbg.value(metadata i8* getelementptr inbounds ([7 x i8], [7 x i8]* @.str, i64 0, i64 0), metadata !2592, metadata !DIExpression()), !dbg !2596
  call void @llvm.dbg.value(metadata i32 3, metadata !2593, metadata !DIExpression()), !dbg !2596
  call void @llvm.dbg.value(metadata %class.String* %5, metadata !2595, metadata !DIExpression()), !dbg !2596
  invoke void @_Z14args_base_readI7WordArg6StringEvP4ArgsPKciT_RT0_(%class.Args* nonnull %6, i8* getelementptr inbounds ([7 x i8], [7 x i8]* @.str, i64 0, i64 0), i32 3, %class.String* nonnull dereferenceable(24) %5)
          to label %24 unwind label %35, !dbg !2598

24:                                               ; preds = %23
  %25 = invoke i32 @_ZN4Args8completeEv(%class.Args* nonnull %6)
          to label %26 unwind label %35, !dbg !2599

26:                                               ; preds = %24
  call void @llvm.dbg.value(metadata i32 %25, metadata !2510, metadata !DIExpression()), !dbg !2526
  call void @_ZN4ArgsD1Ev(%class.Args* nonnull %6) #13, !dbg !2600
  call void @llvm.lifetime.end.p0i8(i64 112, i8* nonnull %21) #13, !dbg !2600
  br label %62, !dbg !2600

27:                                               ; preds = %169
  %28 = landingpad { i8*, i32 }
          cleanup, !dbg !2601
  %29 = extractvalue { i8*, i32 } %28, 0, !dbg !2601
  %30 = extractvalue { i8*, i32 } %28, 1, !dbg !2601
  br label %194, !dbg !2601

31:                                               ; preds = %20
  %32 = landingpad { i8*, i32 }
          cleanup, !dbg !2602
  %33 = extractvalue { i8*, i32 } %32, 0, !dbg !2602
  %34 = extractvalue { i8*, i32 } %32, 1, !dbg !2602
  br label %39, !dbg !2602

35:                                               ; preds = %23, %24
  %36 = landingpad { i8*, i32 }
          cleanup, !dbg !2602
  %37 = extractvalue { i8*, i32 } %36, 0, !dbg !2602
  %38 = extractvalue { i8*, i32 } %36, 1, !dbg !2602
  call void @_ZN4ArgsD1Ev(%class.Args* nonnull %6) #13, !dbg !2600
  br label %39, !dbg !2600

39:                                               ; preds = %35, %31
  %40 = phi i8* [ %37, %35 ], [ %33, %31 ], !dbg !2602
  %41 = phi i32 [ %38, %35 ], [ %34, %31 ], !dbg !2602
  call void @llvm.lifetime.end.p0i8(i64 112, i8* nonnull %21) #13, !dbg !2600
  br label %194, !dbg !2600

42:                                               ; preds = %3
  %43 = bitcast %class.Args* %7 to i8*, !dbg !2603
  call void @llvm.lifetime.start.p0i8(i64 112, i8* nonnull %43) #13, !dbg !2603
  %44 = bitcast %class.StoreIPAddress* %0 to %class.Element*, !dbg !2604
  invoke void @_ZN4ArgsC1ERK6VectorI6StringEPK7ElementP12ErrorHandler(%class.Args* nonnull %7, %class.Vector* nonnull dereferenceable(16) %1, %class.Element* %44, %class.ErrorHandler* %2)
          to label %45 unwind label %51, !dbg !2603

45:                                               ; preds = %42
  %46 = getelementptr inbounds %class.StoreIPAddress, %class.StoreIPAddress* %0, i64 0, i32 2, !dbg !2605
  call void @llvm.dbg.value(metadata %class.Args* %7, metadata !2606, metadata !DIExpression()), !dbg !2614
  call void @llvm.dbg.value(metadata i8* getelementptr inbounds ([5 x i8], [5 x i8]* @.str.1, i64 0, i64 0), metadata !2612, metadata !DIExpression()), !dbg !2614
  call void @llvm.dbg.value(metadata %class.IPAddress* %46, metadata !2613, metadata !DIExpression()), !dbg !2614
  call void @llvm.dbg.value(metadata %class.Args* %7, metadata !2616, metadata !DIExpression()), !dbg !2625
  call void @llvm.dbg.value(metadata i8* getelementptr inbounds ([5 x i8], [5 x i8]* @.str.1, i64 0, i64 0), metadata !2622, metadata !DIExpression()), !dbg !2625
  call void @llvm.dbg.value(metadata i32 3, metadata !2623, metadata !DIExpression()), !dbg !2625
  call void @llvm.dbg.value(metadata %class.IPAddress* %46, metadata !2624, metadata !DIExpression()), !dbg !2625
  invoke void @_Z14args_base_readI9IPAddressEvP4ArgsPKciRT_(%class.Args* nonnull %7, i8* getelementptr inbounds ([5 x i8], [5 x i8]* @.str.1, i64 0, i64 0), i32 3, %class.IPAddress* nonnull dereferenceable(4) %46)
          to label %47 unwind label %55, !dbg !2627

47:                                               ; preds = %45
  call void @llvm.dbg.value(metadata %class.Args* %7, metadata !2575, metadata !DIExpression()), !dbg !2628
  call void @llvm.dbg.value(metadata i8* getelementptr inbounds ([7 x i8], [7 x i8]* @.str, i64 0, i64 0), metadata !2581, metadata !DIExpression()), !dbg !2628
  call void @llvm.dbg.value(metadata %class.String* %5, metadata !2583, metadata !DIExpression()), !dbg !2628
  call void @llvm.dbg.value(metadata %class.Args* %7, metadata !2586, metadata !DIExpression()), !dbg !2630
  call void @llvm.dbg.value(metadata i8* getelementptr inbounds ([7 x i8], [7 x i8]* @.str, i64 0, i64 0), metadata !2592, metadata !DIExpression()), !dbg !2630
  call void @llvm.dbg.value(metadata i32 3, metadata !2593, metadata !DIExpression()), !dbg !2630
  call void @llvm.dbg.value(metadata %class.String* %5, metadata !2595, metadata !DIExpression()), !dbg !2630
  invoke void @_Z14args_base_readI7WordArg6StringEvP4ArgsPKciT_RT0_(%class.Args* nonnull %7, i8* getelementptr inbounds ([7 x i8], [7 x i8]* @.str, i64 0, i64 0), i32 3, %class.String* nonnull dereferenceable(24) %5)
          to label %48 unwind label %55, !dbg !2632

48:                                               ; preds = %47
  %49 = invoke i32 @_ZN4Args8completeEv(%class.Args* nonnull %7)
          to label %50 unwind label %55, !dbg !2633

50:                                               ; preds = %48
  call void @llvm.dbg.value(metadata i32 %49, metadata !2510, metadata !DIExpression()), !dbg !2526
  call void @_ZN4ArgsD1Ev(%class.Args* nonnull %7) #13, !dbg !2634
  call void @llvm.lifetime.end.p0i8(i64 112, i8* nonnull %43) #13, !dbg !2634
  br label %62

51:                                               ; preds = %42
  %52 = landingpad { i8*, i32 }
          cleanup, !dbg !2602
  %53 = extractvalue { i8*, i32 } %52, 0, !dbg !2602
  %54 = extractvalue { i8*, i32 } %52, 1, !dbg !2602
  br label %59, !dbg !2602

55:                                               ; preds = %47, %45, %48
  %56 = landingpad { i8*, i32 }
          cleanup, !dbg !2602
  %57 = extractvalue { i8*, i32 } %56, 0, !dbg !2602
  %58 = extractvalue { i8*, i32 } %56, 1, !dbg !2602
  call void @_ZN4ArgsD1Ev(%class.Args* nonnull %7) #13, !dbg !2634
  br label %59, !dbg !2634

59:                                               ; preds = %55, %51
  %60 = phi i8* [ %57, %55 ], [ %53, %51 ], !dbg !2602
  %61 = phi i32 [ %58, %55 ], [ %54, %51 ], !dbg !2602
  call void @llvm.lifetime.end.p0i8(i64 112, i8* nonnull %43) #13, !dbg !2634
  br label %194, !dbg !2634

62:                                               ; preds = %50, %26
  %63 = phi i32 [ %49, %50 ], [ %25, %26 ], !dbg !2635
  call void @llvm.dbg.value(metadata i32 %63, metadata !2510, metadata !DIExpression()), !dbg !2526
  %64 = icmp slt i32 %63, 0, !dbg !2636
  br i1 %64, label %175, label %65, !dbg !2638

65:                                               ; preds = %62
  %66 = bitcast %class.String* %8 to i8*, !dbg !2639
  call void @llvm.lifetime.start.p0i8(i64 24, i8* nonnull %66) #13, !dbg !2639
  invoke void @_ZNK6String5lowerEv(%class.String* nonnull sret %8, %class.String* nonnull %5)
          to label %67 unwind label %98, !dbg !2640

67:                                               ; preds = %65
  call void @llvm.dbg.value(metadata %class.String* %8, metadata !2641, metadata !DIExpression()), !dbg !2647
  call void @llvm.dbg.value(metadata i8* getelementptr inbounds ([4 x i8], [4 x i8]* @.str.2, i64 0, i64 0), metadata !2646, metadata !DIExpression()), !dbg !2647
  call void @llvm.dbg.value(metadata %class.String* %8, metadata !2649, metadata !DIExpression()), !dbg !2654
  call void @llvm.dbg.value(metadata i8* getelementptr inbounds ([4 x i8], [4 x i8]* @.str.2, i64 0, i64 0), metadata !2652, metadata !DIExpression()), !dbg !2654
  call void @llvm.dbg.value(metadata i32 3, metadata !2653, metadata !DIExpression()), !dbg !2654
  call void @llvm.dbg.value(metadata %class.String* %8, metadata !2657, metadata !DIExpression()), !dbg !2660
  %68 = getelementptr inbounds %class.String, %class.String* %8, i64 0, i32 0, i32 1, !dbg !2663
  %69 = load i32, i32* %68, align 8, !dbg !2663, !tbaa !2551
  %70 = icmp eq i32 %69, 3, !dbg !2664
  br i1 %70, label %71, label %76, !dbg !2665

71:                                               ; preds = %67
  call void @llvm.dbg.value(metadata %class.String* %8, metadata !2666, metadata !DIExpression()), !dbg !2669
  %72 = getelementptr inbounds %class.String, %class.String* %8, i64 0, i32 0, i32 0, !dbg !2671
  %73 = load i8*, i8** %72, align 8, !dbg !2671, !tbaa !2545
  %74 = call i32 @bcmp(i8* nonnull dereferenceable(3) %73, i8* nonnull dereferenceable(3) getelementptr inbounds ([4 x i8], [4 x i8]* @.str.2, i64 0, i64 0), i64 3), !dbg !2672
  %75 = icmp eq i32 %74, 0, !dbg !2673
  br label %76

76:                                               ; preds = %71, %67
  %77 = phi i1 [ false, %67 ], [ %75, %71 ], !dbg !2674
  call void @llvm.dbg.value(metadata %class.String* %8, metadata !2675, metadata !DIExpression()) #13, !dbg !2678
  call void @llvm.dbg.value(metadata %class.String* %8, metadata !2680, metadata !DIExpression()) #13, !dbg !2683
  %78 = getelementptr inbounds %class.String, %class.String* %8, i64 0, i32 0, i32 2, !dbg !2686
  %79 = load %"struct.String::memo_t"*, %"struct.String::memo_t"** %78, align 8, !dbg !2686, !tbaa !2555
  %80 = icmp eq %"struct.String::memo_t"* %79, null, !dbg !2688
  br i1 %80, label %95, label %81, !dbg !2689

81:                                               ; preds = %76
  %82 = getelementptr inbounds %"struct.String::memo_t", %"struct.String::memo_t"* %79, i64 0, i32 0, !dbg !2690
  %83 = load volatile i32, i32* %82, align 4, !dbg !2690, !tbaa !2692
  %84 = icmp eq i32 %83, 0, !dbg !2690
  br i1 %84, label %85, label %86, !dbg !2690

85:                                               ; preds = %81
  call void @__assert_fail(i8* getelementptr inbounds ([18 x i8], [18 x i8]* @.str.5, i64 0, i64 0), i8* getelementptr inbounds ([29 x i8], [29 x i8]* @.str.6, i64 0, i64 0), i32 273, i8* getelementptr inbounds ([27 x i8], [27 x i8]* @__PRETTY_FUNCTION__._ZNK6String5derefEv, i64 0, i64 0)) #15, !dbg !2690
  unreachable, !dbg !2690

86:                                               ; preds = %81
  call void @llvm.dbg.value(metadata i32* %82, metadata !2694, metadata !DIExpression()) #13, !dbg !2697
  %87 = load volatile i32, i32* %82, align 4, !dbg !2700, !tbaa !2701
  %88 = add i32 %87, -1, !dbg !2700
  store volatile i32 %88, i32* %82, align 4, !dbg !2700, !tbaa !2701
  %89 = icmp eq i32 %88, 0, !dbg !2702
  br i1 %89, label %90, label %91, !dbg !2703

90:                                               ; preds = %86
  invoke void @_ZN6String11delete_memoEPNS_6memo_tE(%"struct.String::memo_t"* nonnull %79)
          to label %91 unwind label %92, !dbg !2704

91:                                               ; preds = %90, %86
  store %"struct.String::memo_t"* null, %"struct.String::memo_t"** %78, align 8, !dbg !2705, !tbaa !2555
  br label %95, !dbg !2706

92:                                               ; preds = %90
  %93 = landingpad { i8*, i32 }
          catch i8* null, !dbg !2707
  %94 = extractvalue { i8*, i32 } %93, 0, !dbg !2707
  call void @__clang_call_terminate(i8* %94) #15, !dbg !2707
  unreachable, !dbg !2707

95:                                               ; preds = %76, %91
  call void @llvm.lifetime.end.p0i8(i64 24, i8* nonnull %66) #13, !dbg !2639
  br i1 %77, label %96, label %102, !dbg !2708

96:                                               ; preds = %95
  %97 = getelementptr inbounds %class.StoreIPAddress, %class.StoreIPAddress* %0, i64 0, i32 1, !dbg !2709
  store i32 -12, i32* %97, align 4, !dbg !2710, !tbaa !2711
  br label %175, !dbg !2709

98:                                               ; preds = %65
  %99 = landingpad { i8*, i32 }
          cleanup, !dbg !2712
  %100 = extractvalue { i8*, i32 } %99, 0, !dbg !2712
  %101 = extractvalue { i8*, i32 } %99, 1, !dbg !2712
  call void @llvm.lifetime.end.p0i8(i64 24, i8* nonnull %66) #13, !dbg !2639
  br label %194, !dbg !2639

102:                                              ; preds = %95
  %103 = bitcast %class.String* %9 to i8*, !dbg !2713
  call void @llvm.lifetime.start.p0i8(i64 24, i8* nonnull %103) #13, !dbg !2713
  invoke void @_ZNK6String5lowerEv(%class.String* nonnull sret %9, %class.String* nonnull %5)
          to label %104 unwind label %135, !dbg !2714

104:                                              ; preds = %102
  call void @llvm.dbg.value(metadata %class.String* %9, metadata !2641, metadata !DIExpression()), !dbg !2715
  call void @llvm.dbg.value(metadata i8* getelementptr inbounds ([4 x i8], [4 x i8]* @.str.3, i64 0, i64 0), metadata !2646, metadata !DIExpression()), !dbg !2715
  call void @llvm.dbg.value(metadata %class.String* %9, metadata !2649, metadata !DIExpression()), !dbg !2717
  call void @llvm.dbg.value(metadata i8* getelementptr inbounds ([4 x i8], [4 x i8]* @.str.3, i64 0, i64 0), metadata !2652, metadata !DIExpression()), !dbg !2717
  call void @llvm.dbg.value(metadata i32 3, metadata !2653, metadata !DIExpression()), !dbg !2717
  call void @llvm.dbg.value(metadata %class.String* %9, metadata !2657, metadata !DIExpression()), !dbg !2719
  %105 = getelementptr inbounds %class.String, %class.String* %9, i64 0, i32 0, i32 1, !dbg !2721
  %106 = load i32, i32* %105, align 8, !dbg !2721, !tbaa !2551
  %107 = icmp eq i32 %106, 3, !dbg !2722
  br i1 %107, label %108, label %113, !dbg !2723

108:                                              ; preds = %104
  call void @llvm.dbg.value(metadata %class.String* %9, metadata !2666, metadata !DIExpression()), !dbg !2724
  %109 = getelementptr inbounds %class.String, %class.String* %9, i64 0, i32 0, i32 0, !dbg !2726
  %110 = load i8*, i8** %109, align 8, !dbg !2726, !tbaa !2545
  %111 = call i32 @bcmp(i8* nonnull dereferenceable(3) %110, i8* nonnull dereferenceable(3) getelementptr inbounds ([4 x i8], [4 x i8]* @.str.3, i64 0, i64 0), i64 3), !dbg !2727
  %112 = icmp eq i32 %111, 0, !dbg !2728
  br label %113

113:                                              ; preds = %108, %104
  %114 = phi i1 [ false, %104 ], [ %112, %108 ], !dbg !2729
  call void @llvm.dbg.value(metadata %class.String* %9, metadata !2675, metadata !DIExpression()) #13, !dbg !2730
  call void @llvm.dbg.value(metadata %class.String* %9, metadata !2680, metadata !DIExpression()) #13, !dbg !2732
  %115 = getelementptr inbounds %class.String, %class.String* %9, i64 0, i32 0, i32 2, !dbg !2734
  %116 = load %"struct.String::memo_t"*, %"struct.String::memo_t"** %115, align 8, !dbg !2734, !tbaa !2555
  %117 = icmp eq %"struct.String::memo_t"* %116, null, !dbg !2735
  br i1 %117, label %132, label %118, !dbg !2736

118:                                              ; preds = %113
  %119 = getelementptr inbounds %"struct.String::memo_t", %"struct.String::memo_t"* %116, i64 0, i32 0, !dbg !2737
  %120 = load volatile i32, i32* %119, align 4, !dbg !2737, !tbaa !2692
  %121 = icmp eq i32 %120, 0, !dbg !2737
  br i1 %121, label %122, label %123, !dbg !2737

122:                                              ; preds = %118
  call void @__assert_fail(i8* getelementptr inbounds ([18 x i8], [18 x i8]* @.str.5, i64 0, i64 0), i8* getelementptr inbounds ([29 x i8], [29 x i8]* @.str.6, i64 0, i64 0), i32 273, i8* getelementptr inbounds ([27 x i8], [27 x i8]* @__PRETTY_FUNCTION__._ZNK6String5derefEv, i64 0, i64 0)) #15, !dbg !2737
  unreachable, !dbg !2737

123:                                              ; preds = %118
  call void @llvm.dbg.value(metadata i32* %119, metadata !2694, metadata !DIExpression()) #13, !dbg !2738
  %124 = load volatile i32, i32* %119, align 4, !dbg !2740, !tbaa !2701
  %125 = add i32 %124, -1, !dbg !2740
  store volatile i32 %125, i32* %119, align 4, !dbg !2740, !tbaa !2701
  %126 = icmp eq i32 %125, 0, !dbg !2741
  br i1 %126, label %127, label %128, !dbg !2742

127:                                              ; preds = %123
  invoke void @_ZN6String11delete_memoEPNS_6memo_tE(%"struct.String::memo_t"* nonnull %116)
          to label %128 unwind label %129, !dbg !2743

128:                                              ; preds = %127, %123
  store %"struct.String::memo_t"* null, %"struct.String::memo_t"** %115, align 8, !dbg !2744, !tbaa !2555
  br label %132, !dbg !2745

129:                                              ; preds = %127
  %130 = landingpad { i8*, i32 }
          catch i8* null, !dbg !2746
  %131 = extractvalue { i8*, i32 } %130, 0, !dbg !2746
  call void @__clang_call_terminate(i8* %131) #15, !dbg !2746
  unreachable, !dbg !2746

132:                                              ; preds = %113, %128
  call void @llvm.lifetime.end.p0i8(i64 24, i8* nonnull %103) #13, !dbg !2713
  br i1 %114, label %133, label %139, !dbg !2747

133:                                              ; preds = %132
  %134 = getelementptr inbounds %class.StoreIPAddress, %class.StoreIPAddress* %0, i64 0, i32 1, !dbg !2748
  store i32 -16, i32* %134, align 4, !dbg !2749, !tbaa !2711
  br label %175, !dbg !2748

135:                                              ; preds = %102
  %136 = landingpad { i8*, i32 }
          cleanup, !dbg !2750
  %137 = extractvalue { i8*, i32 } %136, 0, !dbg !2750
  %138 = extractvalue { i8*, i32 } %136, 1, !dbg !2750
  call void @llvm.lifetime.end.p0i8(i64 24, i8* nonnull %103) #13, !dbg !2713
  br label %194, !dbg !2713

139:                                              ; preds = %132
  %140 = bitcast %class.IntArg* %10 to i8*, !dbg !2751
  call void @llvm.lifetime.start.p0i8(i64 8, i8* nonnull %140) #13, !dbg !2751
  call void @llvm.dbg.value(metadata %class.IntArg* %10, metadata !2752, metadata !DIExpression()), !dbg !2756
  call void @llvm.dbg.value(metadata i32 0, metadata !2755, metadata !DIExpression()), !dbg !2756
  %141 = getelementptr inbounds %class.IntArg, %class.IntArg* %10, i64 0, i32 0, !dbg !2758
  store i32 0, i32* %141, align 4, !dbg !2758, !tbaa !2759
  %142 = getelementptr inbounds %class.StoreIPAddress, %class.StoreIPAddress* %0, i64 0, i32 1, !dbg !2761
  call void @llvm.dbg.value(metadata %class.IntArg* %10, metadata !2517, metadata !DIExpression()), !dbg !2762
  call void @llvm.dbg.value(metadata %class.String* %5, metadata !2518, metadata !DIExpression()), !dbg !2762
  call void @llvm.dbg.value(metadata i32* %142, metadata !2519, metadata !DIExpression()), !dbg !2762
  call void @llvm.dbg.value(metadata %class.ArgContext* @blank_args, metadata !2520, metadata !DIExpression()), !dbg !2762
  call void @llvm.dbg.value(metadata %class.IntArg* %10, metadata !1791, metadata !DIExpression()), !dbg !2763
  call void @llvm.dbg.value(metadata %class.String* %5, metadata !1793, metadata !DIExpression()), !dbg !2763
  call void @llvm.dbg.value(metadata %class.ArgContext* @blank_args, metadata !1795, metadata !DIExpression()), !dbg !2763
  call void @llvm.dbg.value(metadata i8 1, metadata !1796, metadata !DIExpression()), !dbg !2763
  call void @llvm.dbg.value(metadata i32 1, metadata !1797, metadata !DIExpression()), !dbg !2763
  %143 = bitcast [1 x i32]* %4 to i8*, !dbg !2764
  call void @llvm.lifetime.start.p0i8(i64 4, i8* nonnull %143) #13, !dbg !2764
  call void @llvm.dbg.value(metadata %class.String* %5, metadata !2765, metadata !DIExpression()), !dbg !2768
  %144 = load i8*, i8** %12, align 8, !dbg !2771, !tbaa !2545
  call void @llvm.dbg.value(metadata %class.String* %5, metadata !2772, metadata !DIExpression()), !dbg !2775
  %145 = load i32, i32* %13, align 8, !dbg !2777, !tbaa !2551
  %146 = sext i32 %145 to i64, !dbg !2778
  %147 = getelementptr inbounds i8, i8* %144, i64 %146, !dbg !2778
  %148 = getelementptr inbounds [1 x i32], [1 x i32]* %4, i64 0, i64 0, !dbg !2779
  %149 = invoke i8* @_ZN6IntArg5parseEPKcS1_biPji(%class.IntArg* nonnull %10, i8* %144, i8* %147, i1 zeroext true, i32 4, i32* nonnull %148, i32 1)
          to label %150 unwind label %171, !dbg !2780

150:                                              ; preds = %139
  call void @llvm.dbg.value(metadata %class.String* %5, metadata !2772, metadata !DIExpression()), !dbg !2781
  %151 = load i8*, i8** %12, align 8, !dbg !2783, !tbaa !2545
  %152 = load i32, i32* %13, align 8, !dbg !2784, !tbaa !2551
  %153 = sext i32 %152 to i64, !dbg !2785
  %154 = getelementptr inbounds i8, i8* %151, i64 %153, !dbg !2785
  %155 = icmp eq i8* %149, %154, !dbg !2786
  %156 = getelementptr inbounds %class.IntArg, %class.IntArg* %10, i64 0, i32 1, !dbg !2763
  br i1 %155, label %158, label %157, !dbg !2787

157:                                              ; preds = %150
  store i32 22, i32* %156, align 4, !dbg !2788, !tbaa !2789
  br label %160, !dbg !2790

158:                                              ; preds = %150
  %159 = load i32, i32* %156, align 4, !dbg !2792, !tbaa !2789
  switch i32 %159, label %160 [
    i32 0, label %162
    i32 34, label %162
  ], !dbg !2790

160:                                              ; preds = %158, %157
  invoke void (%class.ArgContext*, i8*, ...) @_ZNK10ArgContext5errorEPKcz(%class.ArgContext* nonnull @blank_args, i8* getelementptr inbounds ([15 x i8], [15 x i8]* @.str.11, i64 0, i64 0))
          to label %161 unwind label %171, !dbg !2793

161:                                              ; preds = %160
  call void @llvm.lifetime.end.p0i8(i64 4, i8* nonnull %143) #13, !dbg !2795
  br label %168, !dbg !2796

162:                                              ; preds = %158, %158
  call void @llvm.dbg.value(metadata i32* %148, metadata !2797, metadata !DIExpression()), !dbg !2809
  call void @llvm.dbg.value(metadata i32* %148, metadata !2811, metadata !DIExpression()), !dbg !2820
  %163 = load i32, i32* %148, align 4, !dbg !2822, !tbaa !2701
  call void @llvm.lifetime.end.p0i8(i64 4, i8* nonnull %143) #13, !dbg !2795
  switch i32 %159, label %168 [
    i32 34, label %164
    i32 0, label %166
  ], !dbg !2823

164:                                              ; preds = %162
  %165 = sext i32 %163 to i64, !dbg !2824
  invoke void @_ZN6IntArg11range_errorERK10ArgContextbx(%class.IntArg* nonnull %10, %class.ArgContext* nonnull dereferenceable(32) @blank_args, i1 zeroext true, i64 %165)
          to label %168 unwind label %171, !dbg !2827

166:                                              ; preds = %162
  store i32 %163, i32* %142, align 4, !dbg !2828, !tbaa !2701
  %167 = icmp slt i32 %163, 0, !dbg !2830
  call void @llvm.lifetime.end.p0i8(i64 8, i8* nonnull %140) #13, !dbg !2831
  br i1 %167, label %169, label %175, !dbg !2832

168:                                              ; preds = %162, %161, %164
  call void @llvm.lifetime.end.p0i8(i64 8, i8* nonnull %140) #13, !dbg !2831
  br label %169, !dbg !2832

169:                                              ; preds = %168, %166
  %170 = invoke i32 (%class.ErrorHandler*, i8*, ...) @_ZN12ErrorHandler5errorEPKcz(%class.ErrorHandler* %2, i8* getelementptr inbounds ([39 x i8], [39 x i8]* @.str.4, i64 0, i64 0))
          to label %175 unwind label %27, !dbg !2833

171:                                              ; preds = %164, %160, %139
  %172 = landingpad { i8*, i32 }
          cleanup, !dbg !2834
  %173 = extractvalue { i8*, i32 } %172, 0, !dbg !2834
  %174 = extractvalue { i8*, i32 } %172, 1, !dbg !2834
  call void @llvm.lifetime.end.p0i8(i64 8, i8* nonnull %140) #13, !dbg !2831
  br label %194, !dbg !2831

175:                                              ; preds = %96, %166, %133, %169, %62
  %176 = phi i32 [ %63, %62 ], [ %170, %169 ], [ 0, %133 ], [ 0, %166 ], [ 0, %96 ], !dbg !2526
  call void @llvm.dbg.value(metadata %class.String* %5, metadata !2675, metadata !DIExpression()) #13, !dbg !2835
  call void @llvm.dbg.value(metadata %class.String* %5, metadata !2680, metadata !DIExpression()) #13, !dbg !2837
  %177 = load %"struct.String::memo_t"*, %"struct.String::memo_t"** %14, align 8, !dbg !2839, !tbaa !2555
  %178 = icmp eq %"struct.String::memo_t"* %177, null, !dbg !2840
  br i1 %178, label %193, label %179, !dbg !2841

179:                                              ; preds = %175
  %180 = getelementptr inbounds %"struct.String::memo_t", %"struct.String::memo_t"* %177, i64 0, i32 0, !dbg !2842
  %181 = load volatile i32, i32* %180, align 4, !dbg !2842, !tbaa !2692
  %182 = icmp eq i32 %181, 0, !dbg !2842
  br i1 %182, label %183, label %184, !dbg !2842

183:                                              ; preds = %179
  call void @__assert_fail(i8* getelementptr inbounds ([18 x i8], [18 x i8]* @.str.5, i64 0, i64 0), i8* getelementptr inbounds ([29 x i8], [29 x i8]* @.str.6, i64 0, i64 0), i32 273, i8* getelementptr inbounds ([27 x i8], [27 x i8]* @__PRETTY_FUNCTION__._ZNK6String5derefEv, i64 0, i64 0)) #15, !dbg !2842
  unreachable, !dbg !2842

184:                                              ; preds = %179
  call void @llvm.dbg.value(metadata i32* %180, metadata !2694, metadata !DIExpression()) #13, !dbg !2843
  %185 = load volatile i32, i32* %180, align 4, !dbg !2845, !tbaa !2701
  %186 = add i32 %185, -1, !dbg !2845
  store volatile i32 %186, i32* %180, align 4, !dbg !2845, !tbaa !2701
  %187 = icmp eq i32 %186, 0, !dbg !2846
  br i1 %187, label %188, label %189, !dbg !2847

188:                                              ; preds = %184
  invoke void @_ZN6String11delete_memoEPNS_6memo_tE(%"struct.String::memo_t"* nonnull %177)
          to label %189 unwind label %190, !dbg !2848

189:                                              ; preds = %188, %184
  store %"struct.String::memo_t"* null, %"struct.String::memo_t"** %14, align 8, !dbg !2849, !tbaa !2555
  br label %193, !dbg !2850

190:                                              ; preds = %188
  %191 = landingpad { i8*, i32 }
          catch i8* null, !dbg !2851
  %192 = extractvalue { i8*, i32 } %191, 0, !dbg !2851
  call void @__clang_call_terminate(i8* %192) #15, !dbg !2851
  unreachable, !dbg !2851

193:                                              ; preds = %175, %189
  call void @llvm.lifetime.end.p0i8(i64 24, i8* nonnull %11) #13, !dbg !2601
  ret i32 %176, !dbg !2601

194:                                              ; preds = %171, %135, %98, %59, %39, %27
  %195 = phi i8* [ %29, %27 ], [ %173, %171 ], [ %137, %135 ], [ %100, %98 ], [ %60, %59 ], [ %40, %39 ], !dbg !2526
  %196 = phi i32 [ %30, %27 ], [ %174, %171 ], [ %138, %135 ], [ %101, %98 ], [ %61, %59 ], [ %41, %39 ], !dbg !2526
  call void @llvm.dbg.value(metadata %class.String* %5, metadata !2675, metadata !DIExpression()) #13, !dbg !2852
  call void @llvm.dbg.value(metadata %class.String* %5, metadata !2680, metadata !DIExpression()) #13, !dbg !2854
  %197 = load %"struct.String::memo_t"*, %"struct.String::memo_t"** %14, align 8, !dbg !2856, !tbaa !2555
  %198 = icmp eq %"struct.String::memo_t"* %197, null, !dbg !2857
  br i1 %198, label %213, label %199, !dbg !2858

199:                                              ; preds = %194
  %200 = getelementptr inbounds %"struct.String::memo_t", %"struct.String::memo_t"* %197, i64 0, i32 0, !dbg !2859
  %201 = load volatile i32, i32* %200, align 4, !dbg !2859, !tbaa !2692
  %202 = icmp eq i32 %201, 0, !dbg !2859
  br i1 %202, label %203, label %204, !dbg !2859

203:                                              ; preds = %199
  call void @__assert_fail(i8* getelementptr inbounds ([18 x i8], [18 x i8]* @.str.5, i64 0, i64 0), i8* getelementptr inbounds ([29 x i8], [29 x i8]* @.str.6, i64 0, i64 0), i32 273, i8* getelementptr inbounds ([27 x i8], [27 x i8]* @__PRETTY_FUNCTION__._ZNK6String5derefEv, i64 0, i64 0)) #15, !dbg !2859
  unreachable, !dbg !2859

204:                                              ; preds = %199
  call void @llvm.dbg.value(metadata i32* %200, metadata !2694, metadata !DIExpression()) #13, !dbg !2860
  %205 = load volatile i32, i32* %200, align 4, !dbg !2862, !tbaa !2701
  %206 = add i32 %205, -1, !dbg !2862
  store volatile i32 %206, i32* %200, align 4, !dbg !2862, !tbaa !2701
  %207 = icmp eq i32 %206, 0, !dbg !2863
  br i1 %207, label %208, label %209, !dbg !2864

208:                                              ; preds = %204
  invoke void @_ZN6String11delete_memoEPNS_6memo_tE(%"struct.String::memo_t"* nonnull %197)
          to label %209 unwind label %210, !dbg !2865

209:                                              ; preds = %208, %204
  store %"struct.String::memo_t"* null, %"struct.String::memo_t"** %14, align 8, !dbg !2866, !tbaa !2555
  br label %213, !dbg !2867

210:                                              ; preds = %208
  %211 = landingpad { i8*, i32 }
          catch i8* null, !dbg !2868
  %212 = extractvalue { i8*, i32 } %211, 0, !dbg !2868
  call void @__clang_call_terminate(i8* %212) #15, !dbg !2868
  unreachable, !dbg !2868

213:                                              ; preds = %194, %209
  call void @llvm.lifetime.end.p0i8(i64 24, i8* nonnull %11) #13, !dbg !2601
  %214 = insertvalue { i8*, i32 } undef, i8* %195, 0, !dbg !2601
  %215 = insertvalue { i8*, i32 } %214, i32 %196, 1, !dbg !2601
  resume { i8*, i32 } %215, !dbg !2601
}

; Function Attrs: argmemonly nounwind willreturn
declare void @llvm.lifetime.start.p0i8(i64 immarg, i8* nocapture) #6

declare void @_ZN4ArgsC1ERK6VectorI6StringEPK7ElementP12ErrorHandler(%class.Args*, %class.Vector* dereferenceable(16), %class.Element*, %class.ErrorHandler*) unnamed_addr #2

declare i32 @_ZN4Args8completeEv(%class.Args*) local_unnamed_addr #2

; Function Attrs: nounwind
declare void @_ZN4ArgsD1Ev(%class.Args*) unnamed_addr #3

; Function Attrs: argmemonly nounwind willreturn
declare void @llvm.lifetime.end.p0i8(i64 immarg, i8* nocapture) #6

declare void @_ZNK6String5lowerEv(%class.String* sret, %class.String*) local_unnamed_addr #2

declare i32 @_ZN12ErrorHandler5errorEPKcz(%class.ErrorHandler*, i8*, ...) local_unnamed_addr #2

; Function Attrs: sspstrong uwtable
define dso_local %class.Packet* @_ZN14StoreIPAddress13simple_actionEP6Packet(%class.StoreIPAddress* %0, %class.Packet* %1) unnamed_addr #0 align 2 !dbg !2869 {
  call void @llvm.dbg.value(metadata %class.StoreIPAddress* %0, metadata !2871, metadata !DIExpression()), !dbg !2887
  call void @llvm.dbg.value(metadata %class.Packet* %1, metadata !2872, metadata !DIExpression()), !dbg !2887
  %3 = getelementptr inbounds %class.StoreIPAddress, %class.StoreIPAddress* %0, i64 0, i32 3, !dbg !2888
  %4 = load i8, i8* %3, align 4, !dbg !2888, !tbaa !2568, !range !2889
  %5 = icmp eq i8 %4, 0, !dbg !2888
  br i1 %5, label %8, label %6, !dbg !2888

6:                                                ; preds = %2
  %7 = getelementptr inbounds %class.StoreIPAddress, %class.StoreIPAddress* %0, i64 0, i32 2, i32 0, !dbg !2890
  call void @llvm.dbg.value(metadata i32 undef, metadata !2873, metadata !DIExpression()), !dbg !2887
  br label %11, !dbg !2888

8:                                                ; preds = %2
  call void @llvm.dbg.value(metadata %class.Packet* %1, metadata !2891, metadata !DIExpression()), !dbg !2894
  %9 = tail call %"union.Packet::Anno"* @_ZNK6Packet5xannoEv(%class.Packet* %1), !dbg !2896
  %10 = bitcast %"union.Packet::Anno"* %9 to i32*, !dbg !2896
  call void @llvm.dbg.value(metadata i32 undef, metadata !2873, metadata !DIExpression()), !dbg !2887
  br label %11, !dbg !2888

11:                                               ; preds = %8, %6
  %12 = phi i32* [ %10, %8 ], [ %7, %6 ]
  %13 = load i32, i32* %12, align 8, !dbg !2887, !tbaa !2897
  call void @llvm.dbg.value(metadata i32 %13, metadata !2873, metadata !DIExpression()), !dbg !2887
  %14 = icmp eq i32 %13, 0, !dbg !2898
  br i1 %14, label %15, label %18, !dbg !2899

15:                                               ; preds = %11
  %16 = load i8, i8* %3, align 4, !dbg !2900, !tbaa !2568, !range !2889
  %17 = icmp eq i8 %16, 0, !dbg !2900
  br i1 %17, label %34, label %18, !dbg !2901

18:                                               ; preds = %15, %11
  %19 = getelementptr inbounds %class.StoreIPAddress, %class.StoreIPAddress* %0, i64 0, i32 1, !dbg !2902
  %20 = load i32, i32* %19, align 4, !dbg !2902, !tbaa !2711
  %21 = add i32 %20, 4, !dbg !2903
  %22 = tail call i32 @_ZNK6Packet6lengthEv(%class.Packet* %1), !dbg !2904
  %23 = icmp ugt i32 %21, %22, !dbg !2905
  br i1 %23, label %34, label %24, !dbg !2906

24:                                               ; preds = %18
  %25 = tail call %class.WritablePacket* @_ZN6Packet9uniqueifyEv(%class.Packet* %1), !dbg !2907
  call void @llvm.dbg.value(metadata %class.WritablePacket* %25, metadata !2874, metadata !DIExpression()), !dbg !2908
  %26 = icmp eq %class.WritablePacket* %25, null, !dbg !2909
  br i1 %26, label %156, label %27, !dbg !2910

27:                                               ; preds = %24
  %28 = tail call i8* @_ZNK14WritablePacket4dataEv(%class.WritablePacket* nonnull %25), !dbg !2911
  %29 = load i32, i32* %19, align 4, !dbg !2913, !tbaa !2711
  %30 = sext i32 %29 to i64, !dbg !2914
  %31 = getelementptr inbounds i8, i8* %28, i64 %30, !dbg !2914
  %32 = bitcast i8* %31 to i32*, !dbg !2915
  store i32 %13, i32* %32, align 1, !dbg !2915
  %33 = getelementptr %class.WritablePacket, %class.WritablePacket* %25, i64 0, i32 0, !dbg !2916
  br label %156, !dbg !2917

34:                                               ; preds = %18, %15
  %35 = getelementptr inbounds %class.StoreIPAddress, %class.StoreIPAddress* %0, i64 0, i32 1, !dbg !2918
  %36 = load i32, i32* %35, align 4, !dbg !2918, !tbaa !2711
  %37 = icmp sgt i32 %36, -17, !dbg !2919
  br i1 %37, label %38, label %154, !dbg !2920

38:                                               ; preds = %34
  %39 = tail call zeroext i1 @_ZNK6Packet18has_network_headerEv(%class.Packet* %1), !dbg !2921
  br i1 %39, label %40, label %154, !dbg !2922

40:                                               ; preds = %38
  call void @llvm.dbg.value(metadata %class.Packet* %1, metadata !2923, metadata !DIExpression()), !dbg !2926
  call void @llvm.dbg.value(metadata %class.Packet* %1, metadata !2928, metadata !DIExpression()), !dbg !2931
  %41 = tail call i8* @_ZNK6Packet16transport_headerEv(%class.Packet* %1), !dbg !2933
  %42 = tail call i8* @_ZNK6Packet14network_headerEv(%class.Packet* %1), !dbg !2934
  %43 = ptrtoint i8* %41 to i64, !dbg !2935
  %44 = ptrtoint i8* %42 to i64, !dbg !2935
  %45 = sub i64 %43, %44, !dbg !2935
  %46 = trunc i64 %45 to i32, !dbg !2933
  %47 = icmp ugt i32 %46, 19, !dbg !2936
  br i1 %47, label %48, label %154, !dbg !2937

48:                                               ; preds = %40
  %49 = tail call %class.WritablePacket* @_ZN6Packet9uniqueifyEv(%class.Packet* %1), !dbg !2938
  call void @llvm.dbg.value(metadata %class.WritablePacket* %49, metadata !2878, metadata !DIExpression()), !dbg !2939
  %50 = icmp eq %class.WritablePacket* %49, null, !dbg !2940
  br i1 %50, label %156, label %51, !dbg !2941

51:                                               ; preds = %48
  %52 = tail call i8* @_ZNK14WritablePacket14network_headerEv(%class.WritablePacket* nonnull %49), !dbg !2942
  %53 = load i32, i32* %35, align 4, !dbg !2943, !tbaa !2711
  %54 = sext i32 %53 to i64, !dbg !2944
  %55 = sub nsw i64 0, %54, !dbg !2944
  %56 = getelementptr inbounds i8, i8* %52, i64 %55, !dbg !2944
  %57 = bitcast i8* %56 to i16*, !dbg !2945
  call void @llvm.dbg.value(metadata i16* %57, metadata !2882, metadata !DIExpression()), !dbg !2946
  %58 = load i16, i16* %57, align 2, !dbg !2947, !tbaa !2948
  %59 = zext i16 %58 to i32, !dbg !2947
  %60 = getelementptr inbounds i8, i8* %56, i64 2, !dbg !2950
  %61 = bitcast i8* %60 to i16*, !dbg !2950
  %62 = load i16, i16* %61, align 2, !dbg !2950, !tbaa !2948
  %63 = zext i16 %62 to i32, !dbg !2950
  %64 = add nuw nsw i32 %63, %59, !dbg !2951
  call void @llvm.dbg.value(metadata i32 %64, metadata !2884, metadata !DIExpression()), !dbg !2946
  %65 = lshr i32 %64, 16, !dbg !2952
  %66 = add nuw nsw i32 %65, %64, !dbg !2953
  call void @llvm.dbg.value(metadata i32 %66, metadata !2884, metadata !DIExpression()), !dbg !2946
  %67 = bitcast i8* %56 to i32*, !dbg !2954
  store i32 %13, i32* %67, align 2, !dbg !2954
  %68 = and i32 %13, 65535, !dbg !2955
  %69 = lshr i32 %13, 16, !dbg !2956
  %70 = add nuw nsw i32 %69, %68, !dbg !2957
  call void @llvm.dbg.value(metadata i32 %70, metadata !2885, metadata !DIExpression()), !dbg !2946
  %71 = lshr i32 %70, 16, !dbg !2958
  %72 = add nuw nsw i32 %71, %70, !dbg !2959
  call void @llvm.dbg.value(metadata i32 %72, metadata !2885, metadata !DIExpression()), !dbg !2946
  %73 = tail call %struct.click_ip* @_ZNK14WritablePacket9ip_headerEv(%class.WritablePacket* nonnull %49), !dbg !2960
  call void @llvm.dbg.value(metadata %struct.click_ip* %73, metadata !2886, metadata !DIExpression()), !dbg !2946
  %74 = getelementptr inbounds %struct.click_ip, %struct.click_ip* %73, i64 0, i32 7, !dbg !2961
  call void @llvm.dbg.value(metadata i16* %74, metadata !2962, metadata !DIExpression()), !dbg !2970
  call void @llvm.dbg.value(metadata i32 %66, metadata !2967, metadata !DIExpression(DW_OP_LLVM_convert, 32, DW_ATE_unsigned, DW_OP_LLVM_convert, 16, DW_ATE_unsigned, DW_OP_stack_value)), !dbg !2970
  call void @llvm.dbg.value(metadata i32 %72, metadata !2968, metadata !DIExpression(DW_OP_LLVM_convert, 32, DW_ATE_unsigned, DW_OP_LLVM_convert, 16, DW_ATE_unsigned, DW_OP_stack_value)), !dbg !2970
  %75 = load i16, i16* %74, align 2, !dbg !2972, !tbaa !2948
  %76 = xor i16 %75, -1, !dbg !2973
  %77 = zext i16 %76 to i32, !dbg !2973
  %78 = and i32 %66, 65535, !dbg !2974
  %79 = xor i32 %78, 65535, !dbg !2974
  %80 = and i32 %72, 65535, !dbg !2975
  %81 = add nuw nsw i32 %80, %79, !dbg !2976
  %82 = add nuw nsw i32 %81, %77, !dbg !2977
  call void @llvm.dbg.value(metadata i32 %82, metadata !2969, metadata !DIExpression()), !dbg !2970
  %83 = and i32 %82, 65535, !dbg !2978
  %84 = lshr i32 %82, 16, !dbg !2979
  %85 = add nuw nsw i32 %83, %84, !dbg !2980
  call void @llvm.dbg.value(metadata i32 %85, metadata !2969, metadata !DIExpression()), !dbg !2970
  %86 = lshr i32 %85, 16, !dbg !2981
  %87 = add nuw nsw i32 %86, %85, !dbg !2982
  %88 = trunc i32 %87 to i16, !dbg !2983
  %89 = xor i16 %88, -1, !dbg !2983
  store i16 %89, i16* %74, align 2, !dbg !2984, !tbaa !2948
  %90 = getelementptr inbounds %struct.click_ip, %struct.click_ip* %73, i64 0, i32 6, !dbg !2985
  %91 = load i8, i8* %90, align 1, !dbg !2985, !tbaa !2987
  %92 = icmp eq i8 %91, 6, !dbg !2990
  br i1 %92, label %93, label %119, !dbg !2991

93:                                               ; preds = %51
  %94 = getelementptr inbounds %struct.click_ip, %struct.click_ip* %73, i64 0, i32 4, !dbg !2992
  %95 = load i16, i16* %94, align 2, !dbg !2992, !tbaa !2993
  %96 = and i16 %95, -225, !dbg !2992
  %97 = icmp eq i16 %96, 0, !dbg !2992
  br i1 %97, label %98, label %117, !dbg !2994

98:                                               ; preds = %93
  %99 = getelementptr %class.WritablePacket, %class.WritablePacket* %49, i64 0, i32 0, !dbg !2995
  %100 = tail call i32 @_ZNK6Packet16transport_lengthEv(%class.Packet* %99), !dbg !2995
  %101 = icmp sgt i32 %100, 19, !dbg !2996
  br i1 %101, label %102, label %117, !dbg !2997

102:                                              ; preds = %98
  call void @llvm.dbg.value(metadata %class.WritablePacket* %49, metadata !2998, metadata !DIExpression()), !dbg !3002
  call void @llvm.dbg.value(metadata %class.Packet* %99, metadata !3004, metadata !DIExpression()), !dbg !3007
  %103 = tail call i8* @_ZNK6Packet16transport_headerEv(%class.Packet* %99), !dbg !3009
  %104 = getelementptr inbounds i8, i8* %103, i64 16, !dbg !3010
  %105 = bitcast i8* %104 to i16*, !dbg !3010
  call void @llvm.dbg.value(metadata i16* %105, metadata !2962, metadata !DIExpression()), !dbg !3011
  call void @llvm.dbg.value(metadata i32 %66, metadata !2967, metadata !DIExpression(DW_OP_LLVM_convert, 32, DW_ATE_unsigned, DW_OP_LLVM_convert, 16, DW_ATE_unsigned, DW_OP_stack_value)), !dbg !3011
  call void @llvm.dbg.value(metadata i32 %72, metadata !2968, metadata !DIExpression()), !dbg !3011
  %106 = load i16, i16* %105, align 2, !dbg !3013, !tbaa !2948
  %107 = xor i16 %106, -1, !dbg !3014
  %108 = zext i16 %107 to i32, !dbg !3014
  %109 = add nuw nsw i32 %81, %108, !dbg !3015
  call void @llvm.dbg.value(metadata i32 %109, metadata !2969, metadata !DIExpression()), !dbg !3011
  %110 = and i32 %109, 65535, !dbg !3016
  %111 = lshr i32 %109, 16, !dbg !3017
  %112 = add nuw nsw i32 %110, %111, !dbg !3018
  call void @llvm.dbg.value(metadata i32 %112, metadata !2969, metadata !DIExpression()), !dbg !3011
  %113 = lshr i32 %112, 16, !dbg !3019
  %114 = add nuw nsw i32 %113, %112, !dbg !3020
  %115 = trunc i32 %114 to i16, !dbg !3021
  %116 = xor i16 %115, -1, !dbg !3021
  store i16 %116, i16* %105, align 2, !dbg !3022, !tbaa !2948
  br label %117, !dbg !3023

117:                                              ; preds = %93, %98, %102
  %118 = load i8, i8* %90, align 1, !dbg !3024, !tbaa !2987
  br label %119, !dbg !3024

119:                                              ; preds = %117, %51
  %120 = phi i8 [ %118, %117 ], [ %91, %51 ], !dbg !3024
  %121 = icmp eq i8 %120, 17, !dbg !3026
  br i1 %121, label %122, label %152, !dbg !3027

122:                                              ; preds = %119
  %123 = getelementptr inbounds %struct.click_ip, %struct.click_ip* %73, i64 0, i32 4, !dbg !3028
  %124 = load i16, i16* %123, align 2, !dbg !3028, !tbaa !2993
  %125 = and i16 %124, -225, !dbg !3028
  %126 = icmp eq i16 %125, 0, !dbg !3028
  br i1 %126, label %127, label %152, !dbg !3029

127:                                              ; preds = %122
  %128 = getelementptr %class.WritablePacket, %class.WritablePacket* %49, i64 0, i32 0, !dbg !3030
  %129 = tail call i32 @_ZNK6Packet16transport_lengthEv(%class.Packet* %128), !dbg !3030
  %130 = icmp sgt i32 %129, 7, !dbg !3031
  br i1 %130, label %131, label %152, !dbg !3032

131:                                              ; preds = %127
  call void @llvm.dbg.value(metadata %class.WritablePacket* %49, metadata !3033, metadata !DIExpression()), !dbg !3036
  call void @llvm.dbg.value(metadata %class.Packet* %128, metadata !3038, metadata !DIExpression()), !dbg !3041
  %132 = tail call i8* @_ZNK6Packet16transport_headerEv(%class.Packet* %128), !dbg !3043
  %133 = getelementptr inbounds i8, i8* %132, i64 6, !dbg !3044
  %134 = bitcast i8* %133 to i16*, !dbg !3044
  %135 = load i16, i16* %134, align 2, !dbg !3044, !tbaa !3045
  %136 = icmp eq i16 %135, 0, !dbg !3047
  br i1 %136, label %152, label %137, !dbg !3048

137:                                              ; preds = %131
  call void @llvm.dbg.value(metadata %class.WritablePacket* %49, metadata !3033, metadata !DIExpression()), !dbg !3049
  call void @llvm.dbg.value(metadata %class.Packet* %128, metadata !3038, metadata !DIExpression()), !dbg !3051
  %138 = tail call i8* @_ZNK6Packet16transport_headerEv(%class.Packet* %128), !dbg !3053
  %139 = getelementptr inbounds i8, i8* %138, i64 6, !dbg !3054
  %140 = bitcast i8* %139 to i16*, !dbg !3054
  call void @llvm.dbg.value(metadata i16* %140, metadata !2962, metadata !DIExpression()), !dbg !3055
  call void @llvm.dbg.value(metadata i32 %66, metadata !2967, metadata !DIExpression(DW_OP_LLVM_convert, 32, DW_ATE_unsigned, DW_OP_LLVM_convert, 16, DW_ATE_unsigned, DW_OP_stack_value)), !dbg !3055
  call void @llvm.dbg.value(metadata i32 %72, metadata !2968, metadata !DIExpression()), !dbg !3055
  %141 = load i16, i16* %140, align 2, !dbg !3057, !tbaa !2948
  %142 = xor i16 %141, -1, !dbg !3058
  %143 = zext i16 %142 to i32, !dbg !3058
  %144 = add nuw nsw i32 %81, %143, !dbg !3059
  call void @llvm.dbg.value(metadata i32 %144, metadata !2969, metadata !DIExpression()), !dbg !3055
  %145 = and i32 %144, 65535, !dbg !3060
  %146 = lshr i32 %144, 16, !dbg !3061
  %147 = add nuw nsw i32 %145, %146, !dbg !3062
  call void @llvm.dbg.value(metadata i32 %147, metadata !2969, metadata !DIExpression()), !dbg !3055
  %148 = lshr i32 %147, 16, !dbg !3063
  %149 = add nuw nsw i32 %148, %147, !dbg !3064
  %150 = trunc i32 %149 to i16, !dbg !3065
  %151 = xor i16 %150, -1, !dbg !3065
  store i16 %151, i16* %140, align 2, !dbg !3066, !tbaa !2948
  br label %152, !dbg !3067

152:                                              ; preds = %131, %137, %127, %122, %119
  %153 = getelementptr %class.WritablePacket, %class.WritablePacket* %49, i64 0, i32 0, !dbg !3068
  br label %156

154:                                              ; preds = %40, %38, %34
  %155 = bitcast %class.StoreIPAddress* %0 to %class.Element*, !dbg !3069
  tail call void @_ZNK7Element19checked_output_pushEiP6Packet(%class.Element* %155, i32 1, %class.Packet* %1), !dbg !3069
  br label %156, !dbg !3071

156:                                              ; preds = %152, %48, %27, %24, %154
  %157 = phi %class.Packet* [ null, %154 ], [ %33, %27 ], [ null, %24 ], [ %153, %152 ], [ null, %48 ], !dbg !3072
  ret %class.Packet* %157, !dbg !3073
}

declare i32 @_ZNK6Packet6lengthEv(%class.Packet*) local_unnamed_addr #2

declare %class.WritablePacket* @_ZN6Packet9uniqueifyEv(%class.Packet*) local_unnamed_addr #2

declare i8* @_ZNK14WritablePacket4dataEv(%class.WritablePacket*) local_unnamed_addr #2

declare zeroext i1 @_ZNK6Packet18has_network_headerEv(%class.Packet*) local_unnamed_addr #2

declare i8* @_ZNK14WritablePacket14network_headerEv(%class.WritablePacket*) local_unnamed_addr #2

declare %struct.click_ip* @_ZNK14WritablePacket9ip_headerEv(%class.WritablePacket*) local_unnamed_addr #2

declare i32 @_ZNK6Packet16transport_lengthEv(%class.Packet*) local_unnamed_addr #2

; Function Attrs: noinline optnone sspstrong uwtable
define linkonce_odr dso_local void @_ZNK7Element19checked_output_pushEiP6Packet(%class.Element* %0, i32 %1, %class.Packet* %2) local_unnamed_addr #7 comdat align 2 !dbg !3074 {
  %4 = alloca %class.Element*, align 8
  %5 = alloca i32, align 4
  %6 = alloca %class.Packet*, align 8
  store %class.Element* %0, %class.Element** %4, align 8, !tbaa !3083
  call void @llvm.dbg.declare(metadata %class.Element** %4, metadata !3080, metadata !DIExpression()), !dbg !3084
  store i32 %1, i32* %5, align 4, !tbaa !2701
  call void @llvm.dbg.declare(metadata i32* %5, metadata !3081, metadata !DIExpression()), !dbg !3085
  store %class.Packet* %2, %class.Packet** %6, align 8, !tbaa !3083
  call void @llvm.dbg.declare(metadata %class.Packet** %6, metadata !3082, metadata !DIExpression()), !dbg !3086
  %7 = load %class.Element*, %class.Element** %4, align 8
  %8 = load i32, i32* %5, align 4, !dbg !3087, !tbaa !2701
  %9 = call i32 @_ZNK7Element8noutputsEv(%class.Element* %7), !dbg !3089
  %10 = icmp ult i32 %8, %9, !dbg !3090
  br i1 %10, label %11, label %19, !dbg !3091

11:                                               ; preds = %3
  %12 = getelementptr inbounds %class.Element, %class.Element* %7, i32 0, i32 1, !dbg !3092
  %13 = getelementptr inbounds [2 x %"class.Element::Port"*], [2 x %"class.Element::Port"*]* %12, i64 0, i64 1, !dbg !3092
  %14 = load %"class.Element::Port"*, %"class.Element::Port"** %13, align 8, !dbg !3092, !tbaa !3083
  %15 = load i32, i32* %5, align 4, !dbg !3093, !tbaa !2701
  %16 = sext i32 %15 to i64, !dbg !3092
  %17 = getelementptr inbounds %"class.Element::Port", %"class.Element::Port"* %14, i64 %16, !dbg !3092
  %18 = load %class.Packet*, %class.Packet** %6, align 8, !dbg !3094, !tbaa !3083
  call void @_ZNK7Element4Port4pushEP6Packet(%"class.Element::Port"* %17, %class.Packet* %18), !dbg !3095
  br label %21, !dbg !3092

19:                                               ; preds = %3
  %20 = load %class.Packet*, %class.Packet** %6, align 8, !dbg !3096, !tbaa !3083
  call void @_ZN6Packet4killEv(%class.Packet* %20), !dbg !3097
  br label %21

21:                                               ; preds = %19, %11
  ret void, !dbg !3098
}

declare void @_ZN7Element4pushEiP6Packet(%class.Element*, i32, %class.Packet*) unnamed_addr #2

declare %class.Packet* @_ZN7Element4pullEi(%class.Element*, i32) unnamed_addr #2

declare zeroext i1 @_ZN7Element8run_taskEP4Task(%class.Element*, %class.Task*) unnamed_addr #2

declare void @_ZN7Element9run_timerEP5Timer(%class.Element*, %class.Timer*) unnamed_addr #2

declare void @_ZN7Element8selectedEii(%class.Element*, i32, i32) unnamed_addr #2

declare void @_ZN7Element8selectedEi(%class.Element*, i32) unnamed_addr #2

; Function Attrs: nounwind sspstrong uwtable
define linkonce_odr dso_local i8* @_ZNK14StoreIPAddress10class_nameEv(%class.StoreIPAddress* %0) unnamed_addr #4 comdat align 2 !dbg !3099 {
  call void @llvm.dbg.value(metadata %class.StoreIPAddress* %0, metadata !3101, metadata !DIExpression()), !dbg !3103
  ret i8* getelementptr inbounds ([15 x i8], [15 x i8]* @.str.9, i64 0, i64 0), !dbg !3104
}

; Function Attrs: nounwind sspstrong uwtable
define linkonce_odr dso_local i8* @_ZNK14StoreIPAddress10port_countEv(%class.StoreIPAddress* %0) unnamed_addr #4 comdat align 2 !dbg !3105 {
  call void @llvm.dbg.value(metadata %class.StoreIPAddress* %0, metadata !3107, metadata !DIExpression()), !dbg !3108
  ret i8* getelementptr inbounds ([0 x i8], [0 x i8]* @_ZN7Element11PORTS_1_1X2E, i64 0, i64 0), !dbg !3109
}

; Function Attrs: nounwind sspstrong uwtable
define linkonce_odr dso_local i8* @_ZNK14StoreIPAddress10processingEv(%class.StoreIPAddress* %0) unnamed_addr #4 comdat align 2 !dbg !3110 {
  call void @llvm.dbg.value(metadata %class.StoreIPAddress* %0, metadata !3112, metadata !DIExpression()), !dbg !3113
  ret i8* getelementptr inbounds ([0 x i8], [0 x i8]* @_ZN7Element15PROCESSING_A_AHE, i64 0, i64 0), !dbg !3114
}

declare i8* @_ZNK7Element9flow_codeEv(%class.Element*) unnamed_addr #2

declare i8* @_ZNK7Element5flagsEv(%class.Element*) unnamed_addr #2

declare i8* @_ZN7Element4castEPKc(%class.Element*, i8*) unnamed_addr #2

declare i8* @_ZN7Element9port_castEbiPKc(%class.Element*, i1 zeroext, i32, i8*) unnamed_addr #2

declare i32 @_ZNK7Element15configure_phaseEv(%class.Element*) unnamed_addr #2

declare void @_ZN7Element12add_handlersEv(%class.Element*) unnamed_addr #2

declare i32 @_ZN7Element10initializeEP12ErrorHandler(%class.Element*, %class.ErrorHandler*) unnamed_addr #2

declare void @_ZN7Element10take_stateEPS_P12ErrorHandler(%class.Element*, %class.Element*, %class.ErrorHandler*) unnamed_addr #2

declare %class.Element* @_ZNK7Element15hotswap_elementEv(%class.Element*) unnamed_addr #2

declare void @_ZN7Element7cleanupENS_12CleanupStageE(%class.Element*, i32) unnamed_addr #2

declare void @_ZNK7Element11declarationEv(%class.String* sret, %class.Element*) unnamed_addr #2

declare zeroext i1 @_ZNK7Element20can_live_reconfigureEv(%class.Element*) unnamed_addr #2

declare i32 @_ZN7Element16live_reconfigureER6VectorI6StringEP12ErrorHandler(%class.Element*, %class.Vector* dereferenceable(16), %class.ErrorHandler*) unnamed_addr #2

declare i32 @_ZN7Element5llrpcEjPv(%class.Element*, i32, i8*) unnamed_addr #2

; Function Attrs: inlinehint nounwind sspstrong uwtable
define linkonce_odr dso_local i32 @_ZNK6String6lengthEv(%class.String* %0) #8 comdat align 2 !dbg !2658 {
  call void @llvm.dbg.value(metadata %class.String* %0, metadata !2657, metadata !DIExpression()), !dbg !3115
  %2 = getelementptr inbounds %class.String, %class.String* %0, i64 0, i32 0, i32 1, !dbg !3116
  %3 = load i32, i32* %2, align 8, !dbg !3116, !tbaa !2551
  ret i32 %3, !dbg !3117
}

; Function Attrs: noinline noreturn nounwind
define linkonce_odr hidden void @__clang_call_terminate(i8* %0) local_unnamed_addr #9 comdat {
  %2 = tail call i8* @__cxa_begin_catch(i8* %0) #13
  tail call void @_ZSt9terminatev() #15
  unreachable
}

declare i8* @__cxa_begin_catch(i8*) local_unnamed_addr

declare void @_ZSt9terminatev() local_unnamed_addr

; Function Attrs: noreturn nounwind
declare void @__assert_fail(i8*, i8*, i32, i8*) local_unnamed_addr #10

declare void @_ZN6String11delete_memoEPNS_6memo_tE(%"struct.String::memo_t"*) local_unnamed_addr #2

declare %"union.Packet::Anno"* @_ZNK6Packet5xannoEv(%class.Packet*) local_unnamed_addr #2

declare i8* @_ZNK6Packet16transport_headerEv(%class.Packet*) local_unnamed_addr #2

declare i8* @_ZNK6Packet14network_headerEv(%class.Packet*) local_unnamed_addr #2

; Function Attrs: inlinehint nounwind sspstrong uwtable
define linkonce_odr dso_local i32 @_ZNK7Element8noutputsEv(%class.Element* %0) local_unnamed_addr #8 comdat align 2 !dbg !3118 {
  call void @llvm.dbg.value(metadata %class.Element* %0, metadata !3123, metadata !DIExpression()), !dbg !3124
  %2 = getelementptr inbounds %class.Element, %class.Element* %0, i64 0, i32 3, i64 1, !dbg !3125
  %3 = load i32, i32* %2, align 4, !dbg !3125, !tbaa !2701
  ret i32 %3, !dbg !3126
}

; Function Attrs: noinline optnone sspstrong uwtable
define linkonce_odr dso_local void @_ZNK7Element4Port4pushEP6Packet(%"class.Element::Port"* %0, %class.Packet* %1) local_unnamed_addr #7 comdat align 2 !dbg !3127 {
  %3 = alloca %"class.Element::Port"*, align 8
  %4 = alloca %class.Packet*, align 8
  store %"class.Element::Port"* %0, %"class.Element::Port"** %3, align 8, !tbaa !3083
  call void @llvm.dbg.declare(metadata %"class.Element::Port"** %3, metadata !3161, metadata !DIExpression()), !dbg !3164
  store %class.Packet* %1, %class.Packet** %4, align 8, !tbaa !3083
  call void @llvm.dbg.declare(metadata %class.Packet** %4, metadata !3163, metadata !DIExpression()), !dbg !3165
  %5 = load %"class.Element::Port"*, %"class.Element::Port"** %3, align 8
  %6 = getelementptr inbounds %"class.Element::Port", %"class.Element::Port"* %5, i32 0, i32 0, !dbg !3166
  %7 = load %class.Element*, %class.Element** %6, align 8, !dbg !3166, !tbaa !3167
  %8 = icmp ne %class.Element* %7, null, !dbg !3166
  br i1 %8, label %9, label %12, !dbg !3166

9:                                                ; preds = %2
  %10 = load %class.Packet*, %class.Packet** %4, align 8, !dbg !3166, !tbaa !3083
  %11 = icmp ne %class.Packet* %10, null, !dbg !3166
  br label %12

12:                                               ; preds = %9, %2
  %13 = phi i1 [ false, %2 ], [ %11, %9 ], !dbg !3164
  br i1 %13, label %14, label %15, !dbg !3166

14:                                               ; preds = %12
  br label %16, !dbg !3166

15:                                               ; preds = %12
  call void @__assert_fail(i8* getelementptr inbounds ([8 x i8], [8 x i8]* @.str.7, i64 0, i64 0), i8* getelementptr inbounds ([30 x i8], [30 x i8]* @.str.8, i64 0, i64 0), i32 611, i8* getelementptr inbounds ([41 x i8], [41 x i8]* @__PRETTY_FUNCTION__._ZNK7Element4Port4pushEP6Packet, i64 0, i64 0)) #15, !dbg !3166
  unreachable, !dbg !3166

16:                                               ; preds = %14
  %17 = getelementptr inbounds %"class.Element::Port", %"class.Element::Port"* %5, i32 0, i32 0, !dbg !3169
  %18 = load %class.Element*, %class.Element** %17, align 8, !dbg !3169, !tbaa !3167
  %19 = getelementptr inbounds %"class.Element::Port", %"class.Element::Port"* %5, i32 0, i32 1, !dbg !3170
  %20 = load i32, i32* %19, align 8, !dbg !3170, !tbaa !3171
  %21 = load %class.Packet*, %class.Packet** %4, align 8, !dbg !3172, !tbaa !3083
  %22 = bitcast %class.Element* %18 to void (%class.Element*, i32, %class.Packet*)***, !dbg !3173
  %23 = load void (%class.Element*, i32, %class.Packet*)**, void (%class.Element*, i32, %class.Packet*)*** %22, align 8, !dbg !3173, !tbaa !2474
  %24 = getelementptr inbounds void (%class.Element*, i32, %class.Packet*)*, void (%class.Element*, i32, %class.Packet*)** %23, i64 2, !dbg !3173
  %25 = load void (%class.Element*, i32, %class.Packet*)*, void (%class.Element*, i32, %class.Packet*)** %24, align 8, !dbg !3173
  call void %25(%class.Element* %18, i32 %20, %class.Packet* %21), !dbg !3173
  ret void, !dbg !3174
}

declare void @_ZN6Packet4killEv(%class.Packet*) local_unnamed_addr #2

; Function Attrs: noinline optnone sspstrong uwtable
define linkonce_odr dso_local void @_Z14args_base_readI7WordArg6StringEvP4ArgsPKciT_RT0_(%class.Args* %0, i8* %1, i32 %2, %class.String* dereferenceable(24) %3) local_unnamed_addr #7 comdat !dbg !3175 {
  %5 = alloca %class.WordArg, align 1
  %6 = alloca %class.Args*, align 8
  %7 = alloca i8*, align 8
  %8 = alloca i32, align 4
  %9 = alloca %class.String*, align 8
  %10 = alloca %class.WordArg, align 1
  store %class.Args* %0, %class.Args** %6, align 8, !tbaa !3083
  call void @llvm.dbg.declare(metadata %class.Args** %6, metadata !3177, metadata !DIExpression()), !dbg !3182
  store i8* %1, i8** %7, align 8, !tbaa !3083
  call void @llvm.dbg.declare(metadata i8** %7, metadata !3178, metadata !DIExpression()), !dbg !3183
  store i32 %2, i32* %8, align 4, !tbaa !2701
  call void @llvm.dbg.declare(metadata i32* %8, metadata !3179, metadata !DIExpression()), !dbg !3184
  call void @llvm.dbg.declare(metadata %class.WordArg* %5, metadata !3180, metadata !DIExpression()), !dbg !3185
  store %class.String* %3, %class.String** %9, align 8, !tbaa !3083
  call void @llvm.dbg.declare(metadata %class.String** %9, metadata !3181, metadata !DIExpression()), !dbg !3186
  %11 = load %class.Args*, %class.Args** %6, align 8, !dbg !3187, !tbaa !3083
  %12 = load i8*, i8** %7, align 8, !dbg !3188, !tbaa !3083
  %13 = load i32, i32* %8, align 4, !dbg !3189, !tbaa !2701
  %14 = load %class.String*, %class.String** %9, align 8, !dbg !3190, !tbaa !3083
  call void @_ZN4Args9base_readI7WordArg6StringEEvPKciT_RT0_(%class.Args* %11, i8* %12, i32 %13, %class.String* dereferenceable(24) %14), !dbg !3191
  ret void, !dbg !3192
}

; Function Attrs: sspstrong uwtable
define linkonce_odr dso_local void @_ZN4Args9base_readI7WordArg6StringEEvPKciT_RT0_(%class.Args* %0, i8* %1, i32 %2, %class.String* dereferenceable(24) %3) local_unnamed_addr #0 comdat align 2 personality i8* bitcast (i32 (...)* @__gxx_personality_v0 to i8*) !dbg !3193 {
  %5 = alloca %"struct.Args::Slot"*, align 8
  %6 = alloca %class.String, align 8
  call void @llvm.dbg.value(metadata %class.Args* %0, metadata !3198, metadata !DIExpression()), !dbg !3208
  call void @llvm.dbg.value(metadata i8* %1, metadata !3199, metadata !DIExpression()), !dbg !3208
  call void @llvm.dbg.value(metadata i32 %2, metadata !3200, metadata !DIExpression()), !dbg !3208
  call void @llvm.dbg.value(metadata %class.String* %3, metadata !3202, metadata !DIExpression()), !dbg !3208
  %7 = bitcast %"struct.Args::Slot"** %5 to i8*, !dbg !3209
  call void @llvm.lifetime.start.p0i8(i64 8, i8* nonnull %7) #13, !dbg !3209
  %8 = bitcast %class.String* %6 to i8*, !dbg !3210
  call void @llvm.lifetime.start.p0i8(i64 24, i8* nonnull %8) #13, !dbg !3210
  call void @llvm.dbg.declare(metadata %class.String* %6, metadata !3204, metadata !DIExpression()), !dbg !3211
  call void @llvm.dbg.value(metadata %"struct.Args::Slot"** %5, metadata !3203, metadata !DIExpression(DW_OP_deref)), !dbg !3208
  call void @_ZN4Args4findEPKciRPNS_4SlotE(%class.String* nonnull sret %6, %class.Args* %0, i8* %1, i32 %2, %"struct.Args::Slot"** nonnull dereferenceable(8) %5), !dbg !3212
  call void @llvm.dbg.value(metadata %class.String* %6, metadata !3213, metadata !DIExpression()), !dbg !3216
  %9 = getelementptr inbounds %class.String, %class.String* %6, i64 0, i32 0, i32 1, !dbg !3218
  %10 = load i32, i32* %9, align 8, !dbg !3218, !tbaa !2551
  %11 = icmp eq i32 %10, 0, !dbg !3219
  %12 = select i1 %11, { i64, i64 } zeroinitializer, { i64, i64 } { i64 ptrtoint (i32 (%class.String*)* @_ZNK6String6lengthEv to i64), i64 0 }, !dbg !3220
  %13 = extractvalue { i64, i64 } %12, 0, !dbg !3211
  %14 = icmp eq i64 %13, 0, !dbg !3211
  br i1 %14, label %57, label %15, !dbg !3210

15:                                               ; preds = %4
  call void @llvm.dbg.value(metadata %class.String* %3, metadata !3221, metadata !DIExpression()), !dbg !3233
  call void @llvm.dbg.value(metadata %class.Args* %0, metadata !3232, metadata !DIExpression()), !dbg !3233
  call void @llvm.dbg.value(metadata %class.Args* %0, metadata !3235, metadata !DIExpression()), !dbg !3242
  call void @llvm.dbg.value(metadata %class.String* %3, metadata !3241, metadata !DIExpression()), !dbg !3242
  call void @llvm.dbg.value(metadata %class.Args* %0, metadata !3244, metadata !DIExpression()), !dbg !3264
  call void @llvm.dbg.value(metadata %class.String* %3, metadata !3248, metadata !DIExpression()), !dbg !3264
  %16 = invoke dereferenceable(48) i8* @_Znwm(i64 48) #16
          to label %17 unwind label %37, !dbg !3267

17:                                               ; preds = %15
  call void @llvm.dbg.value(metadata i8* %16, metadata !3268, metadata !DIExpression()), !dbg !3272
  call void @llvm.dbg.value(metadata %class.String* %3, metadata !3271, metadata !DIExpression()), !dbg !3272
  %18 = bitcast i8* %16 to i32 (...)***, !dbg !3274
  store i32 (...)** bitcast (i8** getelementptr inbounds ({ [5 x i8*] }, { [5 x i8*] }* @_ZTVN4Args5SlotTI6StringEE, i64 0, inrange i32 0, i64 2) to i32 (...)**), i32 (...)*** %18, align 8, !dbg !3274, !tbaa !2474
  %19 = getelementptr inbounds i8, i8* %16, i64 16, !dbg !3275
  %20 = bitcast i8* %19 to %class.String**, !dbg !3275
  store %class.String* %3, %class.String** %20, align 8, !dbg !3275, !tbaa !3276
  call void @llvm.dbg.value(metadata i8* %16, metadata !2529, metadata !DIExpression(DW_OP_plus_uconst, 24, DW_OP_stack_value)), !dbg !3278
  call void @llvm.dbg.value(metadata i8* %16, metadata !2534, metadata !DIExpression(DW_OP_plus_uconst, 24, DW_OP_stack_value)), !dbg !3280
  call void @llvm.dbg.value(metadata i8* @_ZN6String9null_dataE, metadata !2537, metadata !DIExpression()), !dbg !3280
  call void @llvm.dbg.value(metadata i32 0, metadata !2538, metadata !DIExpression()), !dbg !3280
  call void @llvm.dbg.value(metadata %"struct.String::memo_t"* null, metadata !2539, metadata !DIExpression()), !dbg !3280
  %21 = getelementptr inbounds i8, i8* %16, i64 24, !dbg !3282
  %22 = bitcast i8* %21 to i8**, !dbg !3282
  store i8* @_ZN6String9null_dataE, i8** %22, align 8, !dbg !3283, !tbaa !2545
  %23 = getelementptr inbounds i8, i8* %16, i64 32, !dbg !3284
  %24 = bitcast i8* %23 to i32*, !dbg !3284
  store i32 0, i32* %24, align 8, !dbg !3285, !tbaa !2551
  %25 = getelementptr inbounds i8, i8* %16, i64 40, !dbg !3286
  %26 = bitcast i8* %25 to %"struct.String::memo_t"**, !dbg !3286
  store %"struct.String::memo_t"* null, %"struct.String::memo_t"** %26, align 8, !dbg !3287, !tbaa !2555
  call void @llvm.dbg.value(metadata i8* %16, metadata !3249, metadata !DIExpression()), !dbg !3288
  %27 = getelementptr inbounds %class.Args, %class.Args* %0, i64 0, i32 6, !dbg !3289
  %28 = bitcast %"struct.Args::Slot"** %27 to i64*, !dbg !3289
  %29 = load i64, i64* %28, align 8, !dbg !3289, !tbaa !3291
  %30 = getelementptr inbounds i8, i8* %16, i64 8, !dbg !3295
  %31 = bitcast i8* %30 to i64*, !dbg !3296
  store i64 %29, i64* %31, align 8, !dbg !3296, !tbaa !3297
  %32 = bitcast %"struct.Args::Slot"** %27 to i8**, !dbg !3299
  store i8* %16, i8** %32, align 8, !dbg !3299, !tbaa !3291
  %33 = bitcast i8* %21 to %class.String*, !dbg !3300
  call void @llvm.dbg.value(metadata %class.String* %33, metadata !3206, metadata !DIExpression()), !dbg !3301
  call void @llvm.dbg.value(metadata %class.String* %6, metadata !3302, metadata !DIExpression()), !dbg !3311
  call void @llvm.dbg.value(metadata %class.String* %33, metadata !3309, metadata !DIExpression()), !dbg !3311
  call void @llvm.dbg.value(metadata %class.Args* %0, metadata !3310, metadata !DIExpression()), !dbg !3311
  call void @llvm.dbg.value(metadata %class.String* %6, metadata !3313, metadata !DIExpression()), !dbg !3318
  call void @llvm.dbg.value(metadata %class.String* %33, metadata !3316, metadata !DIExpression()), !dbg !3318
  call void @llvm.dbg.value(metadata %class.Args* %0, metadata !3317, metadata !DIExpression()), !dbg !3318
  %34 = invoke zeroext i1 @_Z7cp_wordRK6StringPS_S2_(%class.String* nonnull dereferenceable(24) %6, %class.String* nonnull %33, %class.String* null)
          to label %35 unwind label %37, !dbg !3320

35:                                               ; preds = %17
  %36 = load %"struct.Args::Slot"*, %"struct.Args::Slot"** %5, align 8, !dbg !3321, !tbaa !3083
  call void @llvm.dbg.value(metadata %"struct.Args::Slot"* %36, metadata !3203, metadata !DIExpression()), !dbg !3208
  invoke void @_ZN4Args9postparseEbPNS_4SlotE(%class.Args* nonnull %0, i1 zeroext %34, %"struct.Args::Slot"* %36)
          to label %57 unwind label %37, !dbg !3322

37:                                               ; preds = %17, %15, %35
  %38 = landingpad { i8*, i32 }
          cleanup, !dbg !3323
  call void @llvm.dbg.value(metadata %class.String* %6, metadata !2675, metadata !DIExpression()) #13, !dbg !3324
  call void @llvm.dbg.value(metadata %class.String* %6, metadata !2680, metadata !DIExpression()) #13, !dbg !3326
  %39 = getelementptr inbounds %class.String, %class.String* %6, i64 0, i32 0, i32 2, !dbg !3328
  %40 = load %"struct.String::memo_t"*, %"struct.String::memo_t"** %39, align 8, !dbg !3328, !tbaa !2555
  %41 = icmp eq %"struct.String::memo_t"* %40, null, !dbg !3329
  br i1 %41, label %56, label %42, !dbg !3330

42:                                               ; preds = %37
  %43 = getelementptr inbounds %"struct.String::memo_t", %"struct.String::memo_t"* %40, i64 0, i32 0, !dbg !3331
  %44 = load volatile i32, i32* %43, align 4, !dbg !3331, !tbaa !2692
  %45 = icmp eq i32 %44, 0, !dbg !3331
  br i1 %45, label %46, label %47, !dbg !3331

46:                                               ; preds = %42
  call void @__assert_fail(i8* getelementptr inbounds ([18 x i8], [18 x i8]* @.str.5, i64 0, i64 0), i8* getelementptr inbounds ([29 x i8], [29 x i8]* @.str.6, i64 0, i64 0), i32 273, i8* getelementptr inbounds ([27 x i8], [27 x i8]* @__PRETTY_FUNCTION__._ZNK6String5derefEv, i64 0, i64 0)) #15, !dbg !3331
  unreachable, !dbg !3331

47:                                               ; preds = %42
  call void @llvm.dbg.value(metadata i32* %43, metadata !2694, metadata !DIExpression()) #13, !dbg !3332
  %48 = load volatile i32, i32* %43, align 4, !dbg !3334, !tbaa !2701
  %49 = add i32 %48, -1, !dbg !3334
  store volatile i32 %49, i32* %43, align 4, !dbg !3334, !tbaa !2701
  %50 = icmp eq i32 %49, 0, !dbg !3335
  br i1 %50, label %51, label %52, !dbg !3336

51:                                               ; preds = %47
  invoke void @_ZN6String11delete_memoEPNS_6memo_tE(%"struct.String::memo_t"* nonnull %40)
          to label %52 unwind label %53, !dbg !3337

52:                                               ; preds = %51, %47
  store %"struct.String::memo_t"* null, %"struct.String::memo_t"** %39, align 8, !dbg !3338, !tbaa !2555
  br label %56, !dbg !3339

53:                                               ; preds = %51
  %54 = landingpad { i8*, i32 }
          catch i8* null, !dbg !3340
  %55 = extractvalue { i8*, i32 } %54, 0, !dbg !3340
  call void @__clang_call_terminate(i8* %55) #15, !dbg !3340
  unreachable, !dbg !3340

56:                                               ; preds = %37, %52
  call void @llvm.lifetime.end.p0i8(i64 24, i8* nonnull %8) #13, !dbg !3210
  call void @llvm.lifetime.end.p0i8(i64 8, i8* nonnull %7) #13, !dbg !3341
  resume { i8*, i32 } %38, !dbg !3341

57:                                               ; preds = %35, %4
  call void @llvm.dbg.value(metadata %class.String* %6, metadata !2675, metadata !DIExpression()) #13, !dbg !3342
  call void @llvm.dbg.value(metadata %class.String* %6, metadata !2680, metadata !DIExpression()) #13, !dbg !3344
  %58 = getelementptr inbounds %class.String, %class.String* %6, i64 0, i32 0, i32 2, !dbg !3346
  %59 = load %"struct.String::memo_t"*, %"struct.String::memo_t"** %58, align 8, !dbg !3346, !tbaa !2555
  %60 = icmp eq %"struct.String::memo_t"* %59, null, !dbg !3347
  br i1 %60, label %75, label %61, !dbg !3348

61:                                               ; preds = %57
  %62 = getelementptr inbounds %"struct.String::memo_t", %"struct.String::memo_t"* %59, i64 0, i32 0, !dbg !3349
  %63 = load volatile i32, i32* %62, align 4, !dbg !3349, !tbaa !2692
  %64 = icmp eq i32 %63, 0, !dbg !3349
  br i1 %64, label %65, label %66, !dbg !3349

65:                                               ; preds = %61
  call void @__assert_fail(i8* getelementptr inbounds ([18 x i8], [18 x i8]* @.str.5, i64 0, i64 0), i8* getelementptr inbounds ([29 x i8], [29 x i8]* @.str.6, i64 0, i64 0), i32 273, i8* getelementptr inbounds ([27 x i8], [27 x i8]* @__PRETTY_FUNCTION__._ZNK6String5derefEv, i64 0, i64 0)) #15, !dbg !3349
  unreachable, !dbg !3349

66:                                               ; preds = %61
  call void @llvm.dbg.value(metadata i32* %62, metadata !2694, metadata !DIExpression()) #13, !dbg !3350
  %67 = load volatile i32, i32* %62, align 4, !dbg !3352, !tbaa !2701
  %68 = add i32 %67, -1, !dbg !3352
  store volatile i32 %68, i32* %62, align 4, !dbg !3352, !tbaa !2701
  %69 = icmp eq i32 %68, 0, !dbg !3353
  br i1 %69, label %70, label %71, !dbg !3354

70:                                               ; preds = %66
  invoke void @_ZN6String11delete_memoEPNS_6memo_tE(%"struct.String::memo_t"* nonnull %59)
          to label %71 unwind label %72, !dbg !3355

71:                                               ; preds = %70, %66
  store %"struct.String::memo_t"* null, %"struct.String::memo_t"** %58, align 8, !dbg !3356, !tbaa !2555
  br label %75, !dbg !3357

72:                                               ; preds = %70
  %73 = landingpad { i8*, i32 }
          catch i8* null, !dbg !3358
  %74 = extractvalue { i8*, i32 } %73, 0, !dbg !3358
  call void @__clang_call_terminate(i8* %74) #15, !dbg !3358
  unreachable, !dbg !3358

75:                                               ; preds = %57, %71
  call void @llvm.lifetime.end.p0i8(i64 24, i8* nonnull %8) #13, !dbg !3210
  call void @llvm.lifetime.end.p0i8(i64 8, i8* nonnull %7) #13, !dbg !3341
  ret void, !dbg !3341
}

declare void @_ZN4Args4findEPKciRPNS_4SlotE(%class.String* sret, %class.Args*, i8*, i32, %"struct.Args::Slot"** dereferenceable(8)) local_unnamed_addr #2

declare void @_ZN4Args9postparseEbPNS_4SlotE(%class.Args*, i1 zeroext, %"struct.Args::Slot"*) local_unnamed_addr #2

; Function Attrs: nobuiltin nofree
declare noalias nonnull i8* @_Znwm(i64) local_unnamed_addr #11

declare void @_ZNK10ArgContext5errorEPKcz(%class.ArgContext*, i8*, ...) local_unnamed_addr #2

; Function Attrs: inlinehint nounwind sspstrong uwtable
define linkonce_odr dso_local void @_ZN4Args5SlotTI6StringED2Ev(%"struct.Args::SlotT"* %0) unnamed_addr #8 comdat align 2 personality i32 (...)* @__gxx_personality_v0 !dbg !3359 {
  call void @llvm.dbg.value(metadata %"struct.Args::SlotT"* %0, metadata !3362, metadata !DIExpression()), !dbg !3363
  %2 = getelementptr %"struct.Args::SlotT", %"struct.Args::SlotT"* %0, i64 0, i32 0, i32 0, !dbg !3364
  store i32 (...)** bitcast (i8** getelementptr inbounds ({ [5 x i8*] }, { [5 x i8*] }* @_ZTVN4Args5SlotTI6StringEE, i64 0, inrange i32 0, i64 2) to i32 (...)**), i32 (...)*** %2, align 8, !dbg !3364, !tbaa !2474
  call void @llvm.dbg.value(metadata %"struct.Args::SlotT"* %0, metadata !2675, metadata !DIExpression(DW_OP_plus_uconst, 24, DW_OP_stack_value)) #13, !dbg !3365
  call void @llvm.dbg.value(metadata %"struct.Args::SlotT"* %0, metadata !2680, metadata !DIExpression(DW_OP_plus_uconst, 24, DW_OP_stack_value)) #13, !dbg !3368
  %3 = getelementptr inbounds %"struct.Args::SlotT", %"struct.Args::SlotT"* %0, i64 0, i32 2, i32 0, i32 2, !dbg !3370
  %4 = load %"struct.String::memo_t"*, %"struct.String::memo_t"** %3, align 8, !dbg !3370, !tbaa !2555
  %5 = icmp eq %"struct.String::memo_t"* %4, null, !dbg !3371
  br i1 %5, label %20, label %6, !dbg !3372

6:                                                ; preds = %1
  %7 = getelementptr inbounds %"struct.String::memo_t", %"struct.String::memo_t"* %4, i64 0, i32 0, !dbg !3373
  %8 = load volatile i32, i32* %7, align 4, !dbg !3373, !tbaa !2692
  %9 = icmp eq i32 %8, 0, !dbg !3373
  br i1 %9, label %10, label %11, !dbg !3373

10:                                               ; preds = %6
  tail call void @__assert_fail(i8* getelementptr inbounds ([18 x i8], [18 x i8]* @.str.5, i64 0, i64 0), i8* getelementptr inbounds ([29 x i8], [29 x i8]* @.str.6, i64 0, i64 0), i32 273, i8* getelementptr inbounds ([27 x i8], [27 x i8]* @__PRETTY_FUNCTION__._ZNK6String5derefEv, i64 0, i64 0)) #15, !dbg !3373
  unreachable, !dbg !3373

11:                                               ; preds = %6
  call void @llvm.dbg.value(metadata i32* %7, metadata !2694, metadata !DIExpression()) #13, !dbg !3374
  %12 = load volatile i32, i32* %7, align 4, !dbg !3376, !tbaa !2701
  %13 = add i32 %12, -1, !dbg !3376
  store volatile i32 %13, i32* %7, align 4, !dbg !3376, !tbaa !2701
  %14 = icmp eq i32 %13, 0, !dbg !3377
  br i1 %14, label %15, label %16, !dbg !3378

15:                                               ; preds = %11
  invoke void @_ZN6String11delete_memoEPNS_6memo_tE(%"struct.String::memo_t"* nonnull %4)
          to label %16 unwind label %17, !dbg !3379

16:                                               ; preds = %15, %11
  store %"struct.String::memo_t"* null, %"struct.String::memo_t"** %3, align 8, !dbg !3380, !tbaa !2555
  br label %20, !dbg !3381

17:                                               ; preds = %15
  %18 = landingpad { i8*, i32 }
          catch i8* null, !dbg !3382
  %19 = extractvalue { i8*, i32 } %18, 0, !dbg !3382
  tail call void @__clang_call_terminate(i8* %19) #15, !dbg !3382
  unreachable, !dbg !3382

20:                                               ; preds = %1, %16
  ret void, !dbg !3364
}

; Function Attrs: inlinehint nounwind sspstrong uwtable
define linkonce_odr dso_local void @_ZN4Args5SlotTI6StringED0Ev(%"struct.Args::SlotT"* %0) unnamed_addr #8 comdat align 2 personality i32 (...)* @__gxx_personality_v0 !dbg !3383 {
  call void @llvm.dbg.value(metadata %"struct.Args::SlotT"* %0, metadata !3385, metadata !DIExpression()), !dbg !3386
  call void @llvm.dbg.value(metadata %"struct.Args::SlotT"* %0, metadata !3362, metadata !DIExpression()) #13, !dbg !3387
  %2 = getelementptr %"struct.Args::SlotT", %"struct.Args::SlotT"* %0, i64 0, i32 0, i32 0, !dbg !3389
  store i32 (...)** bitcast (i8** getelementptr inbounds ({ [5 x i8*] }, { [5 x i8*] }* @_ZTVN4Args5SlotTI6StringEE, i64 0, inrange i32 0, i64 2) to i32 (...)**), i32 (...)*** %2, align 8, !dbg !3389, !tbaa !2474
  call void @llvm.dbg.value(metadata %"struct.Args::SlotT"* %0, metadata !2675, metadata !DIExpression(DW_OP_plus_uconst, 24, DW_OP_stack_value)) #13, !dbg !3390
  call void @llvm.dbg.value(metadata %"struct.Args::SlotT"* %0, metadata !2680, metadata !DIExpression(DW_OP_plus_uconst, 24, DW_OP_stack_value)) #13, !dbg !3392
  %3 = getelementptr inbounds %"struct.Args::SlotT", %"struct.Args::SlotT"* %0, i64 0, i32 2, i32 0, i32 2, !dbg !3394
  %4 = load %"struct.String::memo_t"*, %"struct.String::memo_t"** %3, align 8, !dbg !3394, !tbaa !2555
  %5 = icmp eq %"struct.String::memo_t"* %4, null, !dbg !3395
  br i1 %5, label %19, label %6, !dbg !3396

6:                                                ; preds = %1
  %7 = getelementptr inbounds %"struct.String::memo_t", %"struct.String::memo_t"* %4, i64 0, i32 0, !dbg !3397
  %8 = load volatile i32, i32* %7, align 4, !dbg !3397, !tbaa !2692
  %9 = icmp eq i32 %8, 0, !dbg !3397
  br i1 %9, label %10, label %11, !dbg !3397

10:                                               ; preds = %6
  tail call void @__assert_fail(i8* getelementptr inbounds ([18 x i8], [18 x i8]* @.str.5, i64 0, i64 0), i8* getelementptr inbounds ([29 x i8], [29 x i8]* @.str.6, i64 0, i64 0), i32 273, i8* getelementptr inbounds ([27 x i8], [27 x i8]* @__PRETTY_FUNCTION__._ZNK6String5derefEv, i64 0, i64 0)) #15, !dbg !3397
  unreachable, !dbg !3397

11:                                               ; preds = %6
  call void @llvm.dbg.value(metadata i32* %7, metadata !2694, metadata !DIExpression()) #13, !dbg !3398
  %12 = load volatile i32, i32* %7, align 4, !dbg !3400, !tbaa !2701
  %13 = add i32 %12, -1, !dbg !3400
  store volatile i32 %13, i32* %7, align 4, !dbg !3400, !tbaa !2701
  %14 = icmp eq i32 %13, 0, !dbg !3401
  br i1 %14, label %15, label %19, !dbg !3402

15:                                               ; preds = %11
  invoke void @_ZN6String11delete_memoEPNS_6memo_tE(%"struct.String::memo_t"* nonnull %4)
          to label %19 unwind label %16, !dbg !3403

16:                                               ; preds = %15
  %17 = landingpad { i8*, i32 }
          catch i8* null, !dbg !3404
  %18 = extractvalue { i8*, i32 } %17, 0, !dbg !3404
  tail call void @__clang_call_terminate(i8* %18) #15, !dbg !3404
  unreachable, !dbg !3404

19:                                               ; preds = %11, %15, %1
  %20 = bitcast %"struct.Args::SlotT"* %0 to i8*, !dbg !3405
  tail call void @_ZdlPv(i8* %20) #14, !dbg !3405
  ret void, !dbg !3405
}

; Function Attrs: sspstrong uwtable
define linkonce_odr dso_local void @_ZN4Args5SlotTI6StringE5storeEv(%"struct.Args::SlotT"* %0) unnamed_addr #0 comdat align 2 !dbg !3406 {
  call void @llvm.dbg.value(metadata %"struct.Args::SlotT"* %0, metadata !3408, metadata !DIExpression()), !dbg !3409
  %2 = getelementptr inbounds %"struct.Args::SlotT", %"struct.Args::SlotT"* %0, i64 0, i32 1, !dbg !3410
  %3 = load %class.String*, %class.String** %2, align 8, !dbg !3410, !tbaa !3276
  %4 = getelementptr inbounds %"struct.Args::SlotT", %"struct.Args::SlotT"* %0, i64 0, i32 2, !dbg !3411
  call void @llvm.dbg.value(metadata %class.String* %3, metadata !3412, metadata !DIExpression()), !dbg !3421
  call void @llvm.dbg.value(metadata %class.String* %4, metadata !3418, metadata !DIExpression()), !dbg !3421
  call void @llvm.dbg.value(metadata %class.String* %3, metadata !3423, metadata !DIExpression()), !dbg !3427
  call void @llvm.dbg.value(metadata %class.String* %4, metadata !3426, metadata !DIExpression()), !dbg !3427
  %5 = icmp eq %class.String* %4, %3, !dbg !3429
  br i1 %5, label %35, label %6, !dbg !3431, !prof !3432, !misexpect !3433

6:                                                ; preds = %1
  call void @llvm.dbg.value(metadata %class.String* %3, metadata !2680, metadata !DIExpression()), !dbg !3434
  %7 = getelementptr inbounds %class.String, %class.String* %3, i64 0, i32 0, i32 2, !dbg !3437
  %8 = load %"struct.String::memo_t"*, %"struct.String::memo_t"** %7, align 8, !dbg !3437, !tbaa !2555
  %9 = icmp eq %"struct.String::memo_t"* %8, null, !dbg !3438
  br i1 %9, label %21, label %10, !dbg !3439

10:                                               ; preds = %6
  %11 = getelementptr inbounds %"struct.String::memo_t", %"struct.String::memo_t"* %8, i64 0, i32 0, !dbg !3440
  %12 = load volatile i32, i32* %11, align 4, !dbg !3440, !tbaa !2692
  %13 = icmp eq i32 %12, 0, !dbg !3440
  br i1 %13, label %14, label %15, !dbg !3440

14:                                               ; preds = %10
  tail call void @__assert_fail(i8* getelementptr inbounds ([18 x i8], [18 x i8]* @.str.5, i64 0, i64 0), i8* getelementptr inbounds ([29 x i8], [29 x i8]* @.str.6, i64 0, i64 0), i32 273, i8* getelementptr inbounds ([27 x i8], [27 x i8]* @__PRETTY_FUNCTION__._ZNK6String5derefEv, i64 0, i64 0)) #15, !dbg !3440
  unreachable, !dbg !3440

15:                                               ; preds = %10
  call void @llvm.dbg.value(metadata i32* %11, metadata !2694, metadata !DIExpression()), !dbg !3441
  %16 = load volatile i32, i32* %11, align 4, !dbg !3443, !tbaa !2701
  %17 = add i32 %16, -1, !dbg !3443
  store volatile i32 %17, i32* %11, align 4, !dbg !3443, !tbaa !2701
  %18 = icmp eq i32 %17, 0, !dbg !3444
  br i1 %18, label %19, label %20, !dbg !3445

19:                                               ; preds = %15
  tail call void @_ZN6String11delete_memoEPNS_6memo_tE(%"struct.String::memo_t"* nonnull %8), !dbg !3446
  br label %20, !dbg !3446

20:                                               ; preds = %19, %15
  store %"struct.String::memo_t"* null, %"struct.String::memo_t"** %7, align 8, !dbg !3447, !tbaa !2555
  br label %21, !dbg !3448

21:                                               ; preds = %20, %6
  call void @llvm.dbg.value(metadata %class.String* %3, metadata !3449, metadata !DIExpression()), !dbg !3453
  call void @llvm.dbg.value(metadata %class.String* %4, metadata !3452, metadata !DIExpression()), !dbg !3453
  %22 = bitcast %class.String* %4 to i64*, !dbg !3455
  %23 = load i64, i64* %22, align 8, !dbg !3455, !tbaa !2545
  %24 = getelementptr inbounds %"struct.Args::SlotT", %"struct.Args::SlotT"* %0, i64 0, i32 2, i32 0, i32 1, !dbg !3456
  %25 = load i32, i32* %24, align 8, !dbg !3456, !tbaa !2551
  %26 = getelementptr inbounds %"struct.Args::SlotT", %"struct.Args::SlotT"* %0, i64 0, i32 2, i32 0, i32 2, !dbg !3457
  %27 = load %"struct.String::memo_t"*, %"struct.String::memo_t"** %26, align 8, !dbg !3457, !tbaa !2555
  call void @llvm.dbg.value(metadata %class.String* %3, metadata !2534, metadata !DIExpression()), !dbg !3458
  call void @llvm.dbg.value(metadata i8* undef, metadata !2537, metadata !DIExpression()), !dbg !3458
  call void @llvm.dbg.value(metadata i32 %25, metadata !2538, metadata !DIExpression()), !dbg !3458
  call void @llvm.dbg.value(metadata %"struct.String::memo_t"* %27, metadata !2539, metadata !DIExpression()), !dbg !3458
  %28 = bitcast %class.String* %3 to i64*, !dbg !3460
  store i64 %23, i64* %28, align 8, !dbg !3460, !tbaa !2545
  %29 = getelementptr inbounds %class.String, %class.String* %3, i64 0, i32 0, i32 1, !dbg !3461
  store i32 %25, i32* %29, align 8, !dbg !3462, !tbaa !2551
  store %"struct.String::memo_t"* %27, %"struct.String::memo_t"** %7, align 8, !dbg !3463, !tbaa !2555
  %30 = icmp eq %"struct.String::memo_t"* %27, null, !dbg !3464
  br i1 %30, label %35, label %31, !dbg !3465

31:                                               ; preds = %21
  %32 = getelementptr inbounds %"struct.String::memo_t", %"struct.String::memo_t"* %27, i64 0, i32 0, !dbg !3466
  call void @llvm.dbg.value(metadata i32* %32, metadata !3467, metadata !DIExpression()), !dbg !3470
  %33 = load volatile i32, i32* %32, align 4, !dbg !3472, !tbaa !2701
  %34 = add i32 %33, 1, !dbg !3472
  store volatile i32 %34, i32* %32, align 4, !dbg !3472, !tbaa !2701
  br label %35, !dbg !3473

35:                                               ; preds = %1, %21, %31
  ret void, !dbg !3474
}

declare !dbg !1752 zeroext i1 @_Z7cp_wordRK6StringPS_S2_(%class.String* dereferenceable(24), %class.String*, %class.String*) local_unnamed_addr #2

; Function Attrs: noinline optnone sspstrong uwtable
define linkonce_odr dso_local void @_Z14args_base_readI9IPAddressEvP4ArgsPKciRT_(%class.Args* %0, i8* %1, i32 %2, %class.IPAddress* dereferenceable(4) %3) local_unnamed_addr #7 comdat !dbg !3475 {
  %5 = alloca %class.Args*, align 8
  %6 = alloca i8*, align 8
  %7 = alloca i32, align 4
  %8 = alloca %class.IPAddress*, align 8
  store %class.Args* %0, %class.Args** %5, align 8, !tbaa !3083
  call void @llvm.dbg.declare(metadata %class.Args** %5, metadata !3477, metadata !DIExpression()), !dbg !3481
  store i8* %1, i8** %6, align 8, !tbaa !3083
  call void @llvm.dbg.declare(metadata i8** %6, metadata !3478, metadata !DIExpression()), !dbg !3482
  store i32 %2, i32* %7, align 4, !tbaa !2701
  call void @llvm.dbg.declare(metadata i32* %7, metadata !3479, metadata !DIExpression()), !dbg !3483
  store %class.IPAddress* %3, %class.IPAddress** %8, align 8, !tbaa !3083
  call void @llvm.dbg.declare(metadata %class.IPAddress** %8, metadata !3480, metadata !DIExpression()), !dbg !3484
  %9 = load %class.Args*, %class.Args** %5, align 8, !dbg !3485, !tbaa !3083
  %10 = load i8*, i8** %6, align 8, !dbg !3486, !tbaa !3083
  %11 = load i32, i32* %7, align 4, !dbg !3487, !tbaa !2701
  %12 = load %class.IPAddress*, %class.IPAddress** %8, align 8, !dbg !3488, !tbaa !3083
  call void @_ZN4Args9base_readI9IPAddressEEvPKciRT_(%class.Args* %9, i8* %10, i32 %11, %class.IPAddress* dereferenceable(4) %12), !dbg !3489
  ret void, !dbg !3490
}

; Function Attrs: sspstrong uwtable
define linkonce_odr dso_local void @_ZN4Args9base_readI9IPAddressEEvPKciRT_(%class.Args* %0, i8* %1, i32 %2, %class.IPAddress* dereferenceable(4) %3) local_unnamed_addr #0 comdat align 2 personality i8* bitcast (i32 (...)* @__gxx_personality_v0 to i8*) !dbg !3491 {
  %5 = alloca %"struct.Args::Slot"*, align 8
  %6 = alloca %class.String, align 8
  call void @llvm.dbg.value(metadata %class.Args* %0, metadata !3496, metadata !DIExpression()), !dbg !3505
  call void @llvm.dbg.value(metadata i8* %1, metadata !3497, metadata !DIExpression()), !dbg !3505
  call void @llvm.dbg.value(metadata i32 %2, metadata !3498, metadata !DIExpression()), !dbg !3505
  call void @llvm.dbg.value(metadata %class.IPAddress* %3, metadata !3499, metadata !DIExpression()), !dbg !3505
  %7 = bitcast %"struct.Args::Slot"** %5 to i8*, !dbg !3506
  call void @llvm.lifetime.start.p0i8(i64 8, i8* nonnull %7) #13, !dbg !3506
  %8 = bitcast %class.String* %6 to i8*, !dbg !3507
  call void @llvm.lifetime.start.p0i8(i64 24, i8* nonnull %8) #13, !dbg !3507
  call void @llvm.dbg.declare(metadata %class.String* %6, metadata !3501, metadata !DIExpression()), !dbg !3508
  call void @llvm.dbg.value(metadata %"struct.Args::Slot"** %5, metadata !3500, metadata !DIExpression(DW_OP_deref)), !dbg !3505
  call void @_ZN4Args4findEPKciRPNS_4SlotE(%class.String* nonnull sret %6, %class.Args* %0, i8* %1, i32 %2, %"struct.Args::Slot"** nonnull dereferenceable(8) %5), !dbg !3509
  call void @llvm.dbg.value(metadata %class.String* %6, metadata !3213, metadata !DIExpression()), !dbg !3510
  %9 = getelementptr inbounds %class.String, %class.String* %6, i64 0, i32 0, i32 1, !dbg !3512
  %10 = load i32, i32* %9, align 8, !dbg !3512, !tbaa !2551
  %11 = icmp eq i32 %10, 0, !dbg !3513
  %12 = select i1 %11, { i64, i64 } zeroinitializer, { i64, i64 } { i64 ptrtoint (i32 (%class.String*)* @_ZNK6String6lengthEv to i64), i64 0 }, !dbg !3514
  %13 = extractvalue { i64, i64 } %12, 0, !dbg !3508
  %14 = icmp eq i64 %13, 0, !dbg !3508
  br i1 %14, label %47, label %15, !dbg !3507

15:                                               ; preds = %4
  call void @llvm.dbg.value(metadata %class.IPAddress* %3, metadata !3515, metadata !DIExpression()), !dbg !3546
  call void @llvm.dbg.value(metadata %class.Args* %0, metadata !3545, metadata !DIExpression()), !dbg !3546
  call void @llvm.dbg.value(metadata %class.Args* %0, metadata !3548, metadata !DIExpression()), !dbg !3555
  call void @llvm.dbg.value(metadata %class.IPAddress* %3, metadata !3554, metadata !DIExpression()), !dbg !3555
  %16 = bitcast %class.IPAddress* %3 to i8*, !dbg !3557
  %17 = invoke i8* @_ZN4Args11simple_slotEPvm(%class.Args* nonnull %0, i8* nonnull %16, i64 4)
          to label %18 unwind label %27, !dbg !3559

18:                                               ; preds = %15
  call void @llvm.dbg.value(metadata i8* %17, metadata !3503, metadata !DIExpression()), !dbg !3560
  %19 = icmp eq i8* %17, null, !dbg !3561
  br i1 %19, label %24, label %20, !dbg !3562

20:                                               ; preds = %18
  %21 = bitcast i8* %17 to %class.IPAddress*, !dbg !3563
  call void @llvm.dbg.value(metadata %class.IPAddress* %21, metadata !3503, metadata !DIExpression()), !dbg !3560
  call void @llvm.dbg.value(metadata %class.String* %6, metadata !3564, metadata !DIExpression()), !dbg !3573
  call void @llvm.dbg.value(metadata %class.IPAddress* %21, metadata !3571, metadata !DIExpression()), !dbg !3573
  call void @llvm.dbg.value(metadata %class.Args* %0, metadata !3572, metadata !DIExpression()), !dbg !3573
  %22 = bitcast %class.Args* %0 to %class.ArgContext*, !dbg !3575
  %23 = invoke zeroext i1 @_ZN12IPAddressArg5parseERK6StringR9IPAddressRK10ArgContext(%class.String* nonnull dereferenceable(24) %6, %class.IPAddress* nonnull dereferenceable(4) %21, %class.ArgContext* nonnull dereferenceable(32) %22)
          to label %24 unwind label %27, !dbg !3576

24:                                               ; preds = %20, %18
  %25 = phi i1 [ false, %18 ], [ %23, %20 ], !dbg !3560
  %26 = load %"struct.Args::Slot"*, %"struct.Args::Slot"** %5, align 8, !dbg !3577, !tbaa !3083
  call void @llvm.dbg.value(metadata %"struct.Args::Slot"* %26, metadata !3500, metadata !DIExpression()), !dbg !3505
  invoke void @_ZN4Args9postparseEbPNS_4SlotE(%class.Args* nonnull %0, i1 zeroext %25, %"struct.Args::Slot"* %26)
          to label %47 unwind label %27, !dbg !3578

27:                                               ; preds = %20, %15, %24
  %28 = landingpad { i8*, i32 }
          cleanup, !dbg !3579
  call void @llvm.dbg.value(metadata %class.String* %6, metadata !2675, metadata !DIExpression()) #13, !dbg !3580
  call void @llvm.dbg.value(metadata %class.String* %6, metadata !2680, metadata !DIExpression()) #13, !dbg !3582
  %29 = getelementptr inbounds %class.String, %class.String* %6, i64 0, i32 0, i32 2, !dbg !3584
  %30 = load %"struct.String::memo_t"*, %"struct.String::memo_t"** %29, align 8, !dbg !3584, !tbaa !2555
  %31 = icmp eq %"struct.String::memo_t"* %30, null, !dbg !3585
  br i1 %31, label %46, label %32, !dbg !3586

32:                                               ; preds = %27
  %33 = getelementptr inbounds %"struct.String::memo_t", %"struct.String::memo_t"* %30, i64 0, i32 0, !dbg !3587
  %34 = load volatile i32, i32* %33, align 4, !dbg !3587, !tbaa !2692
  %35 = icmp eq i32 %34, 0, !dbg !3587
  br i1 %35, label %36, label %37, !dbg !3587

36:                                               ; preds = %32
  call void @__assert_fail(i8* getelementptr inbounds ([18 x i8], [18 x i8]* @.str.5, i64 0, i64 0), i8* getelementptr inbounds ([29 x i8], [29 x i8]* @.str.6, i64 0, i64 0), i32 273, i8* getelementptr inbounds ([27 x i8], [27 x i8]* @__PRETTY_FUNCTION__._ZNK6String5derefEv, i64 0, i64 0)) #15, !dbg !3587
  unreachable, !dbg !3587

37:                                               ; preds = %32
  call void @llvm.dbg.value(metadata i32* %33, metadata !2694, metadata !DIExpression()) #13, !dbg !3588
  %38 = load volatile i32, i32* %33, align 4, !dbg !3590, !tbaa !2701
  %39 = add i32 %38, -1, !dbg !3590
  store volatile i32 %39, i32* %33, align 4, !dbg !3590, !tbaa !2701
  %40 = icmp eq i32 %39, 0, !dbg !3591
  br i1 %40, label %41, label %42, !dbg !3592

41:                                               ; preds = %37
  invoke void @_ZN6String11delete_memoEPNS_6memo_tE(%"struct.String::memo_t"* nonnull %30)
          to label %42 unwind label %43, !dbg !3593

42:                                               ; preds = %41, %37
  store %"struct.String::memo_t"* null, %"struct.String::memo_t"** %29, align 8, !dbg !3594, !tbaa !2555
  br label %46, !dbg !3595

43:                                               ; preds = %41
  %44 = landingpad { i8*, i32 }
          catch i8* null, !dbg !3596
  %45 = extractvalue { i8*, i32 } %44, 0, !dbg !3596
  call void @__clang_call_terminate(i8* %45) #15, !dbg !3596
  unreachable, !dbg !3596

46:                                               ; preds = %27, %42
  call void @llvm.lifetime.end.p0i8(i64 24, i8* nonnull %8) #13, !dbg !3507
  call void @llvm.lifetime.end.p0i8(i64 8, i8* nonnull %7) #13, !dbg !3597
  resume { i8*, i32 } %28, !dbg !3597

47:                                               ; preds = %24, %4
  call void @llvm.dbg.value(metadata %class.String* %6, metadata !2675, metadata !DIExpression()) #13, !dbg !3598
  call void @llvm.dbg.value(metadata %class.String* %6, metadata !2680, metadata !DIExpression()) #13, !dbg !3600
  %48 = getelementptr inbounds %class.String, %class.String* %6, i64 0, i32 0, i32 2, !dbg !3602
  %49 = load %"struct.String::memo_t"*, %"struct.String::memo_t"** %48, align 8, !dbg !3602, !tbaa !2555
  %50 = icmp eq %"struct.String::memo_t"* %49, null, !dbg !3603
  br i1 %50, label %65, label %51, !dbg !3604

51:                                               ; preds = %47
  %52 = getelementptr inbounds %"struct.String::memo_t", %"struct.String::memo_t"* %49, i64 0, i32 0, !dbg !3605
  %53 = load volatile i32, i32* %52, align 4, !dbg !3605, !tbaa !2692
  %54 = icmp eq i32 %53, 0, !dbg !3605
  br i1 %54, label %55, label %56, !dbg !3605

55:                                               ; preds = %51
  call void @__assert_fail(i8* getelementptr inbounds ([18 x i8], [18 x i8]* @.str.5, i64 0, i64 0), i8* getelementptr inbounds ([29 x i8], [29 x i8]* @.str.6, i64 0, i64 0), i32 273, i8* getelementptr inbounds ([27 x i8], [27 x i8]* @__PRETTY_FUNCTION__._ZNK6String5derefEv, i64 0, i64 0)) #15, !dbg !3605
  unreachable, !dbg !3605

56:                                               ; preds = %51
  call void @llvm.dbg.value(metadata i32* %52, metadata !2694, metadata !DIExpression()) #13, !dbg !3606
  %57 = load volatile i32, i32* %52, align 4, !dbg !3608, !tbaa !2701
  %58 = add i32 %57, -1, !dbg !3608
  store volatile i32 %58, i32* %52, align 4, !dbg !3608, !tbaa !2701
  %59 = icmp eq i32 %58, 0, !dbg !3609
  br i1 %59, label %60, label %61, !dbg !3610

60:                                               ; preds = %56
  invoke void @_ZN6String11delete_memoEPNS_6memo_tE(%"struct.String::memo_t"* nonnull %49)
          to label %61 unwind label %62, !dbg !3611

61:                                               ; preds = %60, %56
  store %"struct.String::memo_t"* null, %"struct.String::memo_t"** %48, align 8, !dbg !3612, !tbaa !2555
  br label %65, !dbg !3613

62:                                               ; preds = %60
  %63 = landingpad { i8*, i32 }
          catch i8* null, !dbg !3614
  %64 = extractvalue { i8*, i32 } %63, 0, !dbg !3614
  call void @__clang_call_terminate(i8* %64) #15, !dbg !3614
  unreachable, !dbg !3614

65:                                               ; preds = %47, %61
  call void @llvm.lifetime.end.p0i8(i64 24, i8* nonnull %8) #13, !dbg !3507
  call void @llvm.lifetime.end.p0i8(i64 8, i8* nonnull %7) #13, !dbg !3597
  ret void, !dbg !3597
}

declare i8* @_ZN4Args11simple_slotEPvm(%class.Args*, i8*, i64) local_unnamed_addr #2

declare zeroext i1 @_ZN12IPAddressArg5parseERK6StringR9IPAddressRK10ArgContext(%class.String* dereferenceable(24), %class.IPAddress* dereferenceable(4), %class.ArgContext* dereferenceable(32)) local_unnamed_addr #2

declare void @_ZN6IntArg11range_errorERK10ArgContextbx(%class.IntArg*, %class.ArgContext* dereferenceable(32), i1 zeroext, i64) local_unnamed_addr #2

declare i8* @_ZN6IntArg5parseEPKcS1_biPji(%class.IntArg*, i8*, i8*, i1 zeroext, i32, i32*, i32) local_unnamed_addr #2

; Function Attrs: nounwind readnone speculatable willreturn
declare void @llvm.dbg.value(metadata, metadata, metadata) #1

; Function Attrs: nofree nounwind readonly
declare i32 @bcmp(i8* nocapture, i8* nocapture, i64) local_unnamed_addr #12

attributes #0 = { sspstrong uwtable "correctly-rounded-divide-sqrt-fp-math"="false" "disable-tail-calls"="false" "frame-pointer"="none" "less-precise-fpmad"="false" "min-legal-vector-width"="0" "no-infs-fp-math"="false" "no-jump-tables"="false" "no-nans-fp-math"="false" "no-signed-zeros-fp-math"="false" "no-trapping-math"="false" "stack-protector-buffer-size"="8" "target-cpu"="x86-64" "target-features"="+cx8,+fxsr,+mmx,+sse,+sse2,+x87" "unsafe-fp-math"="false" "use-soft-float"="false" }
attributes #1 = { nounwind readnone speculatable willreturn }
attributes #2 = { "correctly-rounded-divide-sqrt-fp-math"="false" "disable-tail-calls"="false" "frame-pointer"="none" "less-precise-fpmad"="false" "no-infs-fp-math"="false" "no-nans-fp-math"="false" "no-signed-zeros-fp-math"="false" "no-trapping-math"="false" "stack-protector-buffer-size"="8" "target-cpu"="x86-64" "target-features"="+cx8,+fxsr,+mmx,+sse,+sse2,+x87" "unsafe-fp-math"="false" "use-soft-float"="false" }
attributes #3 = { nounwind "correctly-rounded-divide-sqrt-fp-math"="false" "disable-tail-calls"="false" "frame-pointer"="none" "less-precise-fpmad"="false" "no-infs-fp-math"="false" "no-nans-fp-math"="false" "no-signed-zeros-fp-math"="false" "no-trapping-math"="false" "stack-protector-buffer-size"="8" "target-cpu"="x86-64" "target-features"="+cx8,+fxsr,+mmx,+sse,+sse2,+x87" "unsafe-fp-math"="false" "use-soft-float"="false" }
attributes #4 = { nounwind sspstrong uwtable "correctly-rounded-divide-sqrt-fp-math"="false" "disable-tail-calls"="false" "frame-pointer"="none" "less-precise-fpmad"="false" "min-legal-vector-width"="0" "no-infs-fp-math"="false" "no-jump-tables"="false" "no-nans-fp-math"="false" "no-signed-zeros-fp-math"="false" "no-trapping-math"="false" "stack-protector-buffer-size"="8" "target-cpu"="x86-64" "target-features"="+cx8,+fxsr,+mmx,+sse,+sse2,+x87" "unsafe-fp-math"="false" "use-soft-float"="false" }
attributes #5 = { nobuiltin nounwind "correctly-rounded-divide-sqrt-fp-math"="false" "disable-tail-calls"="false" "frame-pointer"="none" "less-precise-fpmad"="false" "no-infs-fp-math"="false" "no-nans-fp-math"="false" "no-signed-zeros-fp-math"="false" "no-trapping-math"="false" "stack-protector-buffer-size"="8" "target-cpu"="x86-64" "target-features"="+cx8,+fxsr,+mmx,+sse,+sse2,+x87" "unsafe-fp-math"="false" "use-soft-float"="false" }
attributes #6 = { argmemonly nounwind willreturn }
attributes #7 = { noinline optnone sspstrong uwtable "correctly-rounded-divide-sqrt-fp-math"="false" "disable-tail-calls"="false" "frame-pointer"="none" "less-precise-fpmad"="false" "min-legal-vector-width"="0" "no-infs-fp-math"="false" "no-jump-tables"="false" "no-nans-fp-math"="false" "no-signed-zeros-fp-math"="false" "no-trapping-math"="false" "stack-protector-buffer-size"="8" "target-cpu"="x86-64" "target-features"="+cx8,+fxsr,+mmx,+sse,+sse2,+x87" "unsafe-fp-math"="false" "use-soft-float"="false" }
attributes #8 = { inlinehint nounwind sspstrong uwtable "correctly-rounded-divide-sqrt-fp-math"="false" "disable-tail-calls"="false" "frame-pointer"="none" "less-precise-fpmad"="false" "min-legal-vector-width"="0" "no-infs-fp-math"="false" "no-jump-tables"="false" "no-nans-fp-math"="false" "no-signed-zeros-fp-math"="false" "no-trapping-math"="false" "stack-protector-buffer-size"="8" "target-cpu"="x86-64" "target-features"="+cx8,+fxsr,+mmx,+sse,+sse2,+x87" "unsafe-fp-math"="false" "use-soft-float"="false" }
attributes #9 = { noinline noreturn nounwind }
attributes #10 = { noreturn nounwind "correctly-rounded-divide-sqrt-fp-math"="false" "disable-tail-calls"="false" "frame-pointer"="none" "less-precise-fpmad"="false" "no-infs-fp-math"="false" "no-nans-fp-math"="false" "no-signed-zeros-fp-math"="false" "no-trapping-math"="false" "stack-protector-buffer-size"="8" "target-cpu"="x86-64" "target-features"="+cx8,+fxsr,+mmx,+sse,+sse2,+x87" "unsafe-fp-math"="false" "use-soft-float"="false" }
attributes #11 = { nobuiltin nofree "correctly-rounded-divide-sqrt-fp-math"="false" "disable-tail-calls"="false" "frame-pointer"="none" "less-precise-fpmad"="false" "no-infs-fp-math"="false" "no-nans-fp-math"="false" "no-signed-zeros-fp-math"="false" "no-trapping-math"="false" "stack-protector-buffer-size"="8" "target-cpu"="x86-64" "target-features"="+cx8,+fxsr,+mmx,+sse,+sse2,+x87" "unsafe-fp-math"="false" "use-soft-float"="false" }
attributes #12 = { nofree nounwind readonly }
attributes #13 = { nounwind }
attributes #14 = { builtin nounwind }
attributes #15 = { noreturn nounwind }
attributes #16 = { builtin }

!llvm.dbg.cu = !{!0}
!llvm.module.flags = !{!2436, !2437, !2438, !2439, !2440}
!llvm.ident = !{!2441}

!0 = distinct !DICompileUnit(language: DW_LANG_C_plus_plus_14, file: !1, producer: "clang version 10.0.0 ", isOptimized: true, runtimeVersion: 0, emissionKind: FullDebug, enums: !2, retainedTypes: !1196, imports: !1816, splitDebugInlining: false, nameTableKind: None)
!1 = !DIFile(filename: "../elements/ip/storeipaddress.cc", directory: "/home/john/projects/click/ir-dir")
!2 = !{!3, !876, !1181, !1187}
!3 = !DICompositeType(tag: DW_TAG_enumeration_type, name: "PacketType", scope: !5, file: !4, line: 368, baseType: !16, size: 32, elements: !1173, identifier: "_ZTSN6Packet10PacketTypeE")
!4 = !DIFile(filename: "../dummy_inc/click/packet.hh", directory: "/home/john/projects/click/ir-dir")
!5 = distinct !DICompositeType(tag: DW_TAG_class_type, name: "Packet", file: !4, line: 35, size: 1344, flags: DIFlagTypePassByReference | DIFlagNonTrivial, elements: !6, identifier: "_ZTS6Packet")
!6 = !{!7, !77, !79, !82, !83, !84, !85, !128, !136, !137, !245, !248, !251, !254, !257, !261, !265, !268, !271, !276, !277, !280, !281, !282, !283, !284, !285, !288, !291, !294, !295, !298, !299, !302, !305, !306, !307, !308, !311, !314, !317, !320, !321, !322, !325, !326, !327, !330, !331, !332, !333, !334, !335, !336, !337, !338, !339, !340, !341, !342, !343, !344, !345, !350, !353, !358, !359, !360, !363, !368, !369, !370, !373, !376, !381, !386, !391, !396, !400, !917, !921, !924, !930, !933, !936, !939, !942, !946, !949, !950, !951, !952, !1042, !1045, !1046, !1049, !1053, !1058, !1062, !1067, !1070, !1073, !1076, !1079, !1085, !1088, !1091, !1094, !1097, !1100, !1103, !1106, !1109, !1112, !1113, !1116, !1120, !1121, !1122, !1123, !1124, !1125, !1126, !1127, !1128, !1129, !1130, !1131, !1132, !1133, !1134, !1135, !1136, !1137, !1138, !1139, !1140, !1141, !1142, !1143, !1144, !1145, !1146, !1147, !1148, !1149, !1150, !1151, !1152, !1153, !1154, !1157, !1158, !1162, !1165, !1168, !1171, !1172}
!7 = !DIDerivedType(tag: DW_TAG_member, name: "_use_count", scope: !5, file: !4, line: 731, baseType: !8, size: 32)
!8 = distinct !DICompositeType(tag: DW_TAG_class_type, name: "atomic_uint32_t", file: !9, line: 52, size: 32, flags: DIFlagTypePassByValue, elements: !10, identifier: "_ZTS15atomic_uint32_t")
!9 = !DIFile(filename: "../dummy_inc/click/atomic.hh", directory: "/home/john/projects/click/ir-dir")
!10 = !{!11, !17, !22, !23, !28, !35, !36, !37, !38, !41, !44, !45, !46, !49, !50, !54, !57, !60, !65, !68, !71, !74}
!11 = !DIDerivedType(tag: DW_TAG_member, name: "_val", scope: !8, file: !9, line: 91, baseType: !12, size: 32)
!12 = !DIDerivedType(tag: DW_TAG_typedef, name: "uint32_t", file: !13, line: 26, baseType: !14)
!13 = !DIFile(filename: "/usr/include/bits/stdint-uintn.h", directory: "")
!14 = !DIDerivedType(tag: DW_TAG_typedef, name: "__uint32_t", file: !15, line: 42, baseType: !16)
!15 = !DIFile(filename: "/usr/include/bits/types.h", directory: "")
!16 = !DIBasicType(name: "unsigned int", size: 32, encoding: DW_ATE_unsigned)
!17 = !DISubprogram(name: "value", linkageName: "_ZNK15atomic_uint32_t5valueEv", scope: !8, file: !9, line: 57, type: !18, scopeLine: 57, flags: DIFlagPublic | DIFlagPrototyped, spFlags: DISPFlagOptimized)
!18 = !DISubroutineType(types: !19)
!19 = !{!12, !20}
!20 = !DIDerivedType(tag: DW_TAG_pointer_type, baseType: !21, size: 64, flags: DIFlagArtificial | DIFlagObjectPointer)
!21 = !DIDerivedType(tag: DW_TAG_const_type, baseType: !8)
!22 = !DISubprogram(name: "operator unsigned int", linkageName: "_ZNK15atomic_uint32_tcvjEv", scope: !8, file: !9, line: 58, type: !18, scopeLine: 58, flags: DIFlagPublic | DIFlagPrototyped, spFlags: DISPFlagOptimized)
!23 = !DISubprogram(name: "operator=", linkageName: "_ZN15atomic_uint32_taSEj", scope: !8, file: !9, line: 60, type: !24, scopeLine: 60, flags: DIFlagPublic | DIFlagPrototyped, spFlags: DISPFlagOptimized)
!24 = !DISubroutineType(types: !25)
!25 = !{!26, !27, !12}
!26 = !DIDerivedType(tag: DW_TAG_reference_type, baseType: !8, size: 64)
!27 = !DIDerivedType(tag: DW_TAG_pointer_type, baseType: !8, size: 64, flags: DIFlagArtificial | DIFlagObjectPointer)
!28 = !DISubprogram(name: "operator+=", linkageName: "_ZN15atomic_uint32_tpLEi", scope: !8, file: !9, line: 62, type: !29, scopeLine: 62, flags: DIFlagPublic | DIFlagPrototyped, spFlags: DISPFlagOptimized)
!29 = !DISubroutineType(types: !30)
!30 = !{!26, !27, !31}
!31 = !DIDerivedType(tag: DW_TAG_typedef, name: "int32_t", file: !32, line: 26, baseType: !33)
!32 = !DIFile(filename: "/usr/include/bits/stdint-intn.h", directory: "")
!33 = !DIDerivedType(tag: DW_TAG_typedef, name: "__int32_t", file: !15, line: 41, baseType: !34)
!34 = !DIBasicType(name: "int", size: 32, encoding: DW_ATE_signed)
!35 = !DISubprogram(name: "operator-=", linkageName: "_ZN15atomic_uint32_tmIEi", scope: !8, file: !9, line: 63, type: !29, scopeLine: 63, flags: DIFlagPublic | DIFlagPrototyped, spFlags: DISPFlagOptimized)
!36 = !DISubprogram(name: "operator|=", linkageName: "_ZN15atomic_uint32_toREj", scope: !8, file: !9, line: 64, type: !24, scopeLine: 64, flags: DIFlagPublic | DIFlagPrototyped, spFlags: DISPFlagOptimized)
!37 = !DISubprogram(name: "operator&=", linkageName: "_ZN15atomic_uint32_taNEj", scope: !8, file: !9, line: 65, type: !24, scopeLine: 65, flags: DIFlagPublic | DIFlagPrototyped, spFlags: DISPFlagOptimized)
!38 = !DISubprogram(name: "operator++", linkageName: "_ZN15atomic_uint32_tppEv", scope: !8, file: !9, line: 67, type: !39, scopeLine: 67, flags: DIFlagPublic | DIFlagPrototyped, spFlags: DISPFlagOptimized)
!39 = !DISubroutineType(types: !40)
!40 = !{null, !27}
!41 = !DISubprogram(name: "operator++", linkageName: "_ZN15atomic_uint32_tppEi", scope: !8, file: !9, line: 68, type: !42, scopeLine: 68, flags: DIFlagPublic | DIFlagPrototyped, spFlags: DISPFlagOptimized)
!42 = !DISubroutineType(types: !43)
!43 = !{null, !27, !34}
!44 = !DISubprogram(name: "operator--", linkageName: "_ZN15atomic_uint32_tmmEv", scope: !8, file: !9, line: 69, type: !39, scopeLine: 69, flags: DIFlagPublic | DIFlagPrototyped, spFlags: DISPFlagOptimized)
!45 = !DISubprogram(name: "operator--", linkageName: "_ZN15atomic_uint32_tmmEi", scope: !8, file: !9, line: 70, type: !42, scopeLine: 70, flags: DIFlagPublic | DIFlagPrototyped, spFlags: DISPFlagOptimized)
!46 = !DISubprogram(name: "swap", linkageName: "_ZN15atomic_uint32_t4swapEj", scope: !8, file: !9, line: 72, type: !47, scopeLine: 72, flags: DIFlagPublic | DIFlagPrototyped, spFlags: DISPFlagOptimized)
!47 = !DISubroutineType(types: !48)
!48 = !{!12, !27, !12}
!49 = !DISubprogram(name: "fetch_and_add", linkageName: "_ZN15atomic_uint32_t13fetch_and_addEj", scope: !8, file: !9, line: 73, type: !47, scopeLine: 73, flags: DIFlagPublic | DIFlagPrototyped, spFlags: DISPFlagOptimized)
!50 = !DISubprogram(name: "dec_and_test", linkageName: "_ZN15atomic_uint32_t12dec_and_testEv", scope: !8, file: !9, line: 74, type: !51, scopeLine: 74, flags: DIFlagPublic | DIFlagPrototyped, spFlags: DISPFlagOptimized)
!51 = !DISubroutineType(types: !52)
!52 = !{!53, !27}
!53 = !DIBasicType(name: "bool", size: 8, encoding: DW_ATE_boolean)
!54 = !DISubprogram(name: "compare_swap", linkageName: "_ZN15atomic_uint32_t12compare_swapEjj", scope: !8, file: !9, line: 75, type: !55, scopeLine: 75, flags: DIFlagPublic | DIFlagPrototyped, spFlags: DISPFlagOptimized)
!55 = !DISubroutineType(types: !56)
!56 = !{!12, !27, !12, !12}
!57 = !DISubprogram(name: "compare_and_swap", linkageName: "_ZN15atomic_uint32_t16compare_and_swapEjj", scope: !8, file: !9, line: 76, type: !58, scopeLine: 76, flags: DIFlagPublic | DIFlagPrototyped, spFlags: DISPFlagOptimized)
!58 = !DISubroutineType(types: !59)
!59 = !{!53, !27, !12, !12}
!60 = !DISubprogram(name: "swap", linkageName: "_ZN15atomic_uint32_t4swapERVjj", scope: !8, file: !9, line: 78, type: !61, scopeLine: 78, flags: DIFlagPublic | DIFlagPrototyped | DIFlagStaticMember, spFlags: DISPFlagOptimized)
!61 = !DISubroutineType(types: !62)
!62 = !{!12, !63, !12}
!63 = !DIDerivedType(tag: DW_TAG_reference_type, baseType: !64, size: 64)
!64 = !DIDerivedType(tag: DW_TAG_volatile_type, baseType: !12)
!65 = !DISubprogram(name: "inc", linkageName: "_ZN15atomic_uint32_t3incERVj", scope: !8, file: !9, line: 79, type: !66, scopeLine: 79, flags: DIFlagPublic | DIFlagPrototyped | DIFlagStaticMember, spFlags: DISPFlagOptimized)
!66 = !DISubroutineType(types: !67)
!67 = !{null, !63}
!68 = !DISubprogram(name: "dec_and_test", linkageName: "_ZN15atomic_uint32_t12dec_and_testERVj", scope: !8, file: !9, line: 80, type: !69, scopeLine: 80, flags: DIFlagPublic | DIFlagPrototyped | DIFlagStaticMember, spFlags: DISPFlagOptimized)
!69 = !DISubroutineType(types: !70)
!70 = !{!53, !63}
!71 = !DISubprogram(name: "compare_swap", linkageName: "_ZN15atomic_uint32_t12compare_swapERVjjj", scope: !8, file: !9, line: 81, type: !72, scopeLine: 81, flags: DIFlagPublic | DIFlagPrototyped | DIFlagStaticMember, spFlags: DISPFlagOptimized)
!72 = !DISubroutineType(types: !73)
!73 = !{!12, !63, !12, !12}
!74 = !DISubprogram(name: "compare_and_swap", linkageName: "_ZN15atomic_uint32_t16compare_and_swapERVjjj", scope: !8, file: !9, line: 82, type: !75, scopeLine: 82, flags: DIFlagPublic | DIFlagPrototyped | DIFlagStaticMember, spFlags: DISPFlagOptimized)
!75 = !DISubroutineType(types: !76)
!76 = !{!53, !63, !12, !12}
!77 = !DIDerivedType(tag: DW_TAG_member, name: "_data_packet", scope: !5, file: !4, line: 732, baseType: !78, size: 64, offset: 64)
!78 = !DIDerivedType(tag: DW_TAG_pointer_type, baseType: !5, size: 64)
!79 = !DIDerivedType(tag: DW_TAG_member, name: "_head", scope: !5, file: !4, line: 734, baseType: !80, size: 64, offset: 128)
!80 = !DIDerivedType(tag: DW_TAG_pointer_type, baseType: !81, size: 64)
!81 = !DIBasicType(name: "unsigned char", size: 8, encoding: DW_ATE_unsigned_char)
!82 = !DIDerivedType(tag: DW_TAG_member, name: "_data", scope: !5, file: !4, line: 735, baseType: !80, size: 64, offset: 192)
!83 = !DIDerivedType(tag: DW_TAG_member, name: "_tail", scope: !5, file: !4, line: 736, baseType: !80, size: 64, offset: 256)
!84 = !DIDerivedType(tag: DW_TAG_member, name: "_end", scope: !5, file: !4, line: 737, baseType: !80, size: 64, offset: 320)
!85 = !DIDerivedType(tag: DW_TAG_member, name: "_aa", scope: !5, file: !4, line: 741, baseType: !86, size: 832, offset: 384)
!86 = distinct !DICompositeType(tag: DW_TAG_structure_type, name: "AllAnno", scope: !5, file: !4, line: 716, size: 832, flags: DIFlagTypePassByValue, elements: !87, identifier: "_ZTSN6Packet7AllAnnoE")
!87 = !{!88, !118, !119, !120, !121, !122, !126, !127}
!88 = !DIDerivedType(tag: DW_TAG_member, name: "cb", scope: !86, file: !4, line: 717, baseType: !89, size: 384)
!89 = distinct !DICompositeType(tag: DW_TAG_union_type, name: "Anno", scope: !5, file: !4, line: 702, size: 384, flags: DIFlagTypePassByValue, elements: !90, identifier: "_ZTSN6Packet4AnnoE")
!90 = !{!91, !96, !100, !107, !111}
!91 = !DIDerivedType(tag: DW_TAG_member, name: "c", scope: !89, file: !4, line: 703, baseType: !92, size: 384)
!92 = !DICompositeType(tag: DW_TAG_array_type, baseType: !93, size: 384, elements: !94)
!93 = !DIBasicType(name: "char", size: 8, encoding: DW_ATE_signed_char)
!94 = !{!95}
!95 = !DISubrange(count: 48)
!96 = !DIDerivedType(tag: DW_TAG_member, name: "u8", scope: !89, file: !4, line: 704, baseType: !97, size: 384)
!97 = !DICompositeType(tag: DW_TAG_array_type, baseType: !98, size: 384, elements: !94)
!98 = !DIDerivedType(tag: DW_TAG_typedef, name: "uint8_t", file: !13, line: 24, baseType: !99)
!99 = !DIDerivedType(tag: DW_TAG_typedef, name: "__uint8_t", file: !15, line: 38, baseType: !81)
!100 = !DIDerivedType(tag: DW_TAG_member, name: "u16", scope: !89, file: !4, line: 705, baseType: !101, size: 384)
!101 = !DICompositeType(tag: DW_TAG_array_type, baseType: !102, size: 384, elements: !105)
!102 = !DIDerivedType(tag: DW_TAG_typedef, name: "uint16_t", file: !13, line: 25, baseType: !103)
!103 = !DIDerivedType(tag: DW_TAG_typedef, name: "__uint16_t", file: !15, line: 40, baseType: !104)
!104 = !DIBasicType(name: "unsigned short", size: 16, encoding: DW_ATE_unsigned)
!105 = !{!106}
!106 = !DISubrange(count: 24)
!107 = !DIDerivedType(tag: DW_TAG_member, name: "u32", scope: !89, file: !4, line: 706, baseType: !108, size: 384)
!108 = !DICompositeType(tag: DW_TAG_array_type, baseType: !12, size: 384, elements: !109)
!109 = !{!110}
!110 = !DISubrange(count: 12)
!111 = !DIDerivedType(tag: DW_TAG_member, name: "u64", scope: !89, file: !4, line: 708, baseType: !112, size: 384)
!112 = !DICompositeType(tag: DW_TAG_array_type, baseType: !113, size: 384, elements: !116)
!113 = !DIDerivedType(tag: DW_TAG_typedef, name: "uint64_t", file: !13, line: 27, baseType: !114)
!114 = !DIDerivedType(tag: DW_TAG_typedef, name: "__uint64_t", file: !15, line: 45, baseType: !115)
!115 = !DIBasicType(name: "long unsigned int", size: 64, encoding: DW_ATE_unsigned)
!116 = !{!117}
!117 = !DISubrange(count: 6)
!118 = !DIDerivedType(tag: DW_TAG_member, name: "mac", scope: !86, file: !4, line: 718, baseType: !80, size: 64, offset: 384)
!119 = !DIDerivedType(tag: DW_TAG_member, name: "nh", scope: !86, file: !4, line: 719, baseType: !80, size: 64, offset: 448)
!120 = !DIDerivedType(tag: DW_TAG_member, name: "h", scope: !86, file: !4, line: 720, baseType: !80, size: 64, offset: 512)
!121 = !DIDerivedType(tag: DW_TAG_member, name: "pkt_type", scope: !86, file: !4, line: 721, baseType: !3, size: 32, offset: 576)
!122 = !DIDerivedType(tag: DW_TAG_member, name: "timestamp", scope: !86, file: !4, line: 722, baseType: !123, size: 64, offset: 608)
!123 = !DICompositeType(tag: DW_TAG_array_type, baseType: !93, size: 64, elements: !124)
!124 = !{!125}
!125 = !DISubrange(count: 8)
!126 = !DIDerivedType(tag: DW_TAG_member, name: "next", scope: !86, file: !4, line: 723, baseType: !78, size: 64, offset: 704)
!127 = !DIDerivedType(tag: DW_TAG_member, name: "prev", scope: !86, file: !4, line: 724, baseType: !78, size: 64, offset: 768)
!128 = !DIDerivedType(tag: DW_TAG_member, name: "_destructor", scope: !5, file: !4, line: 746, baseType: !129, size: 64, offset: 1216)
!129 = !DIDerivedType(tag: DW_TAG_typedef, name: "buffer_destructor_type", scope: !5, file: !4, line: 65, baseType: !130)
!130 = !DIDerivedType(tag: DW_TAG_pointer_type, baseType: !131, size: 64)
!131 = !DISubroutineType(types: !132)
!132 = !{null, !80, !133, !135}
!133 = !DIDerivedType(tag: DW_TAG_typedef, name: "size_t", file: !134, line: 46, baseType: !115)
!134 = !DIFile(filename: "/usr/lib/clang/10.0.0/include/stddef.h", directory: "")
!135 = !DIDerivedType(tag: DW_TAG_pointer_type, baseType: null, size: 64)
!136 = !DIDerivedType(tag: DW_TAG_member, name: "_destructor_argument", scope: !5, file: !4, line: 747, baseType: !135, size: 64, offset: 1280)
!137 = !DISubprogram(name: "make", linkageName: "_ZN6Packet4makeEjPKvjj", scope: !5, file: !4, line: 52, type: !138, scopeLine: 52, flags: DIFlagPublic | DIFlagPrototyped | DIFlagStaticMember, spFlags: DISPFlagOptimized)
!138 = !DISubroutineType(types: !139)
!139 = !{!140, !12, !243, !12, !12}
!140 = !DIDerivedType(tag: DW_TAG_pointer_type, baseType: !141, size: 64)
!141 = distinct !DICompositeType(tag: DW_TAG_class_type, name: "WritablePacket", file: !4, line: 778, size: 1344, flags: DIFlagTypePassByReference | DIFlagNonTrivial, elements: !142, identifier: "_ZTS14WritablePacket")
!142 = !{!143, !144, !149, !150, !151, !152, !153, !158, !159, !182, !187, !188, !193, !211, !222, !223, !227, !228, !233, !234, !237, !240}
!143 = !DIDerivedType(tag: DW_TAG_inheritance, scope: !141, baseType: !5, flags: DIFlagPublic, extraData: i32 0)
!144 = !DISubprogram(name: "data", linkageName: "_ZNK14WritablePacket4dataEv", scope: !141, file: !4, line: 780, type: !145, scopeLine: 780, flags: DIFlagPublic | DIFlagPrototyped, spFlags: DISPFlagOptimized)
!145 = !DISubroutineType(types: !146)
!146 = !{!80, !147}
!147 = !DIDerivedType(tag: DW_TAG_pointer_type, baseType: !148, size: 64, flags: DIFlagArtificial | DIFlagObjectPointer)
!148 = !DIDerivedType(tag: DW_TAG_const_type, baseType: !141)
!149 = !DISubprogram(name: "end_data", linkageName: "_ZNK14WritablePacket8end_dataEv", scope: !141, file: !4, line: 781, type: !145, scopeLine: 781, flags: DIFlagPublic | DIFlagPrototyped, spFlags: DISPFlagOptimized)
!150 = !DISubprogram(name: "buffer", linkageName: "_ZNK14WritablePacket6bufferEv", scope: !141, file: !4, line: 782, type: !145, scopeLine: 782, flags: DIFlagPublic | DIFlagPrototyped, spFlags: DISPFlagOptimized)
!151 = !DISubprogram(name: "end_buffer", linkageName: "_ZNK14WritablePacket10end_bufferEv", scope: !141, file: !4, line: 783, type: !145, scopeLine: 783, flags: DIFlagPublic | DIFlagPrototyped, spFlags: DISPFlagOptimized)
!152 = !DISubprogram(name: "mac_header", linkageName: "_ZNK14WritablePacket10mac_headerEv", scope: !141, file: !4, line: 784, type: !145, scopeLine: 784, flags: DIFlagPublic | DIFlagPrototyped, spFlags: DISPFlagOptimized)
!153 = !DISubprogram(name: "ether_header", linkageName: "_ZNK14WritablePacket12ether_headerEv", scope: !141, file: !4, line: 785, type: !154, scopeLine: 785, flags: DIFlagPublic | DIFlagPrototyped, spFlags: DISPFlagOptimized)
!154 = !DISubroutineType(types: !155)
!155 = !{!156, !147}
!156 = !DIDerivedType(tag: DW_TAG_pointer_type, baseType: !157, size: 64)
!157 = !DICompositeType(tag: DW_TAG_structure_type, name: "click_ether", file: !4, line: 24, flags: DIFlagFwdDecl, identifier: "_ZTS11click_ether")
!158 = !DISubprogram(name: "network_header", linkageName: "_ZNK14WritablePacket14network_headerEv", scope: !141, file: !4, line: 786, type: !145, scopeLine: 786, flags: DIFlagPublic | DIFlagPrototyped, spFlags: DISPFlagOptimized)
!159 = !DISubprogram(name: "ip_header", linkageName: "_ZNK14WritablePacket9ip_headerEv", scope: !141, file: !4, line: 787, type: !160, scopeLine: 787, flags: DIFlagPublic | DIFlagPrototyped, spFlags: DISPFlagOptimized)
!160 = !DISubroutineType(types: !161)
!161 = !{!162, !147}
!162 = !DIDerivedType(tag: DW_TAG_pointer_type, baseType: !163, size: 64)
!163 = distinct !DICompositeType(tag: DW_TAG_structure_type, name: "click_ip", file: !164, line: 23, size: 160, flags: DIFlagTypePassByValue, elements: !165, identifier: "_ZTS8click_ip")
!164 = !DIFile(filename: "../dummy_inc/clicknet/ip.h", directory: "/home/john/projects/click/ir-dir")
!165 = !{!166, !167, !168, !169, !170, !171, !172, !173, !174, !175, !181}
!166 = !DIDerivedType(tag: DW_TAG_member, name: "ip_hl", scope: !163, file: !164, line: 28, baseType: !16, size: 4, flags: DIFlagBitField, extraData: i64 0)
!167 = !DIDerivedType(tag: DW_TAG_member, name: "ip_v", scope: !163, file: !164, line: 29, baseType: !16, size: 4, offset: 4, flags: DIFlagBitField, extraData: i64 0)
!168 = !DIDerivedType(tag: DW_TAG_member, name: "ip_tos", scope: !163, file: !164, line: 33, baseType: !98, size: 8, offset: 8)
!169 = !DIDerivedType(tag: DW_TAG_member, name: "ip_len", scope: !163, file: !164, line: 40, baseType: !102, size: 16, offset: 16)
!170 = !DIDerivedType(tag: DW_TAG_member, name: "ip_id", scope: !163, file: !164, line: 41, baseType: !102, size: 16, offset: 32)
!171 = !DIDerivedType(tag: DW_TAG_member, name: "ip_off", scope: !163, file: !164, line: 42, baseType: !102, size: 16, offset: 48)
!172 = !DIDerivedType(tag: DW_TAG_member, name: "ip_ttl", scope: !163, file: !164, line: 47, baseType: !98, size: 8, offset: 64)
!173 = !DIDerivedType(tag: DW_TAG_member, name: "ip_p", scope: !163, file: !164, line: 48, baseType: !98, size: 8, offset: 72)
!174 = !DIDerivedType(tag: DW_TAG_member, name: "ip_sum", scope: !163, file: !164, line: 49, baseType: !102, size: 16, offset: 80)
!175 = !DIDerivedType(tag: DW_TAG_member, name: "ip_src", scope: !163, file: !164, line: 50, baseType: !176, size: 32, offset: 96)
!176 = distinct !DICompositeType(tag: DW_TAG_structure_type, name: "in_addr", file: !177, line: 31, size: 32, flags: DIFlagTypePassByValue, elements: !178, identifier: "_ZTS7in_addr")
!177 = !DIFile(filename: "/usr/include/netinet/in.h", directory: "")
!178 = !{!179}
!179 = !DIDerivedType(tag: DW_TAG_member, name: "s_addr", scope: !176, file: !177, line: 33, baseType: !180, size: 32)
!180 = !DIDerivedType(tag: DW_TAG_typedef, name: "in_addr_t", file: !177, line: 30, baseType: !12)
!181 = !DIDerivedType(tag: DW_TAG_member, name: "ip_dst", scope: !163, file: !164, line: 51, baseType: !176, size: 32, offset: 128)
!182 = !DISubprogram(name: "ip6_header", linkageName: "_ZNK14WritablePacket10ip6_headerEv", scope: !141, file: !4, line: 788, type: !183, scopeLine: 788, flags: DIFlagPublic | DIFlagPrototyped, spFlags: DISPFlagOptimized)
!183 = !DISubroutineType(types: !184)
!184 = !{!185, !147}
!185 = !DIDerivedType(tag: DW_TAG_pointer_type, baseType: !186, size: 64)
!186 = !DICompositeType(tag: DW_TAG_structure_type, name: "click_ip6", file: !4, line: 27, flags: DIFlagFwdDecl, identifier: "_ZTS9click_ip6")
!187 = !DISubprogram(name: "transport_header", linkageName: "_ZNK14WritablePacket16transport_headerEv", scope: !141, file: !4, line: 789, type: !145, scopeLine: 789, flags: DIFlagPublic | DIFlagPrototyped, spFlags: DISPFlagOptimized)
!188 = !DISubprogram(name: "icmp_header", linkageName: "_ZNK14WritablePacket11icmp_headerEv", scope: !141, file: !4, line: 790, type: !189, scopeLine: 790, flags: DIFlagPublic | DIFlagPrototyped, spFlags: DISPFlagOptimized)
!189 = !DISubroutineType(types: !190)
!190 = !{!191, !147}
!191 = !DIDerivedType(tag: DW_TAG_pointer_type, baseType: !192, size: 64)
!192 = !DICompositeType(tag: DW_TAG_structure_type, name: "click_icmp", file: !4, line: 26, flags: DIFlagFwdDecl, identifier: "_ZTS10click_icmp")
!193 = !DISubprogram(name: "tcp_header", linkageName: "_ZNK14WritablePacket10tcp_headerEv", scope: !141, file: !4, line: 791, type: !194, scopeLine: 791, flags: DIFlagPublic | DIFlagPrototyped, spFlags: DISPFlagOptimized)
!194 = !DISubroutineType(types: !195)
!195 = !{!196, !147}
!196 = !DIDerivedType(tag: DW_TAG_pointer_type, baseType: !197, size: 64)
!197 = distinct !DICompositeType(tag: DW_TAG_structure_type, name: "click_tcp", file: !198, line: 24, size: 160, flags: DIFlagTypePassByValue, elements: !199, identifier: "_ZTS9click_tcp")
!198 = !DIFile(filename: "../dummy_inc/clicknet/tcp.h", directory: "/home/john/projects/click/ir-dir")
!199 = !{!200, !201, !202, !204, !205, !206, !207, !208, !209, !210}
!200 = !DIDerivedType(tag: DW_TAG_member, name: "th_sport", scope: !197, file: !198, line: 25, baseType: !102, size: 16)
!201 = !DIDerivedType(tag: DW_TAG_member, name: "th_dport", scope: !197, file: !198, line: 26, baseType: !102, size: 16, offset: 16)
!202 = !DIDerivedType(tag: DW_TAG_member, name: "th_seq", scope: !197, file: !198, line: 27, baseType: !203, size: 32, offset: 32)
!203 = !DIDerivedType(tag: DW_TAG_typedef, name: "tcp_seq_t", file: !198, line: 22, baseType: !12)
!204 = !DIDerivedType(tag: DW_TAG_member, name: "th_ack", scope: !197, file: !198, line: 28, baseType: !203, size: 32, offset: 64)
!205 = !DIDerivedType(tag: DW_TAG_member, name: "th_flags2", scope: !197, file: !198, line: 30, baseType: !16, size: 4, offset: 96, flags: DIFlagBitField, extraData: i64 96)
!206 = !DIDerivedType(tag: DW_TAG_member, name: "th_off", scope: !197, file: !198, line: 31, baseType: !16, size: 4, offset: 100, flags: DIFlagBitField, extraData: i64 96)
!207 = !DIDerivedType(tag: DW_TAG_member, name: "th_flags", scope: !197, file: !198, line: 39, baseType: !98, size: 8, offset: 104)
!208 = !DIDerivedType(tag: DW_TAG_member, name: "th_win", scope: !197, file: !198, line: 48, baseType: !102, size: 16, offset: 112)
!209 = !DIDerivedType(tag: DW_TAG_member, name: "th_sum", scope: !197, file: !198, line: 49, baseType: !102, size: 16, offset: 128)
!210 = !DIDerivedType(tag: DW_TAG_member, name: "th_urp", scope: !197, file: !198, line: 50, baseType: !102, size: 16, offset: 144)
!211 = !DISubprogram(name: "udp_header", linkageName: "_ZNK14WritablePacket10udp_headerEv", scope: !141, file: !4, line: 792, type: !212, scopeLine: 792, flags: DIFlagPublic | DIFlagPrototyped, spFlags: DISPFlagOptimized)
!212 = !DISubroutineType(types: !213)
!213 = !{!214, !147}
!214 = !DIDerivedType(tag: DW_TAG_pointer_type, baseType: !215, size: 64)
!215 = distinct !DICompositeType(tag: DW_TAG_structure_type, name: "click_udp", file: !216, line: 11, size: 64, flags: DIFlagTypePassByValue, elements: !217, identifier: "_ZTS9click_udp")
!216 = !DIFile(filename: "../dummy_inc/clicknet/udp.h", directory: "/home/john/projects/click/ir-dir")
!217 = !{!218, !219, !220, !221}
!218 = !DIDerivedType(tag: DW_TAG_member, name: "uh_sport", scope: !215, file: !216, line: 12, baseType: !102, size: 16)
!219 = !DIDerivedType(tag: DW_TAG_member, name: "uh_dport", scope: !215, file: !216, line: 13, baseType: !102, size: 16, offset: 16)
!220 = !DIDerivedType(tag: DW_TAG_member, name: "uh_ulen", scope: !215, file: !216, line: 14, baseType: !102, size: 16, offset: 32)
!221 = !DIDerivedType(tag: DW_TAG_member, name: "uh_sum", scope: !215, file: !216, line: 15, baseType: !102, size: 16, offset: 48)
!222 = !DISubprogram(name: "buffer_data", linkageName: "_ZNK14WritablePacket11buffer_dataEv", scope: !141, file: !4, line: 795, type: !145, scopeLine: 795, flags: DIFlagPublic | DIFlagPrototyped, spFlags: DISPFlagOptimized)
!223 = !DISubprogram(name: "WritablePacket", scope: !141, file: !4, line: 800, type: !224, scopeLine: 800, flags: DIFlagPrototyped, spFlags: DISPFlagOptimized)
!224 = !DISubroutineType(types: !225)
!225 = !{null, !226}
!226 = !DIDerivedType(tag: DW_TAG_pointer_type, baseType: !141, size: 64, flags: DIFlagArtificial | DIFlagObjectPointer)
!227 = !DISubprogram(name: "initialize", linkageName: "_ZN14WritablePacket10initializeEv", scope: !141, file: !4, line: 802, type: !224, scopeLine: 802, flags: DIFlagPrototyped, spFlags: DISPFlagOptimized)
!228 = !DISubprogram(name: "WritablePacket", scope: !141, file: !4, line: 804, type: !229, scopeLine: 804, flags: DIFlagPrototyped, spFlags: DISPFlagOptimized)
!229 = !DISubroutineType(types: !230)
!230 = !{null, !226, !231}
!231 = !DIDerivedType(tag: DW_TAG_reference_type, baseType: !232, size: 64)
!232 = !DIDerivedType(tag: DW_TAG_const_type, baseType: !5)
!233 = !DISubprogram(name: "~WritablePacket", scope: !141, file: !4, line: 805, type: !224, scopeLine: 805, flags: DIFlagPrototyped, spFlags: DISPFlagOptimized)
!234 = !DISubprogram(name: "pool_allocate", linkageName: "_ZN14WritablePacket13pool_allocateEb", scope: !141, file: !4, line: 808, type: !235, scopeLine: 808, flags: DIFlagPrototyped | DIFlagStaticMember, spFlags: DISPFlagOptimized)
!235 = !DISubroutineType(types: !236)
!236 = !{!140, !53}
!237 = !DISubprogram(name: "pool_allocate", linkageName: "_ZN14WritablePacket13pool_allocateEjjj", scope: !141, file: !4, line: 809, type: !238, scopeLine: 809, flags: DIFlagPrototyped | DIFlagStaticMember, spFlags: DISPFlagOptimized)
!238 = !DISubroutineType(types: !239)
!239 = !{!140, !12, !12, !12}
!240 = !DISubprogram(name: "recycle", linkageName: "_ZN14WritablePacket7recycleEPS_", scope: !141, file: !4, line: 811, type: !241, scopeLine: 811, flags: DIFlagPrototyped | DIFlagStaticMember, spFlags: DISPFlagOptimized)
!241 = !DISubroutineType(types: !242)
!242 = !{null, !140}
!243 = !DIDerivedType(tag: DW_TAG_pointer_type, baseType: !244, size: 64)
!244 = !DIDerivedType(tag: DW_TAG_const_type, baseType: null)
!245 = !DISubprogram(name: "make", linkageName: "_ZN6Packet4makeEPKvj", scope: !5, file: !4, line: 54, type: !246, scopeLine: 54, flags: DIFlagPublic | DIFlagPrototyped | DIFlagStaticMember, spFlags: DISPFlagOptimized)
!246 = !DISubroutineType(types: !247)
!247 = !{!140, !243, !12}
!248 = !DISubprogram(name: "make", linkageName: "_ZN6Packet4makeEj", scope: !5, file: !4, line: 55, type: !249, scopeLine: 55, flags: DIFlagPublic | DIFlagPrototyped | DIFlagStaticMember, spFlags: DISPFlagOptimized)
!249 = !DISubroutineType(types: !250)
!250 = !{!140, !12}
!251 = !DISubprogram(name: "make", linkageName: "_ZN6Packet4makeEPhjPFvS0_mPvES1_ii", scope: !5, file: !4, line: 66, type: !252, scopeLine: 66, flags: DIFlagPublic | DIFlagPrototyped | DIFlagStaticMember, spFlags: DISPFlagOptimized)
!252 = !DISubroutineType(types: !253)
!253 = !{!140, !80, !12, !129, !135, !34, !34}
!254 = !DISubprogram(name: "static_cleanup", linkageName: "_ZN6Packet14static_cleanupEv", scope: !5, file: !4, line: 71, type: !255, scopeLine: 71, flags: DIFlagPublic | DIFlagPrototyped | DIFlagStaticMember, spFlags: DISPFlagOptimized)
!255 = !DISubroutineType(types: !256)
!256 = !{null}
!257 = !DISubprogram(name: "kill", linkageName: "_ZN6Packet4killEv", scope: !5, file: !4, line: 73, type: !258, scopeLine: 73, flags: DIFlagPublic | DIFlagPrototyped, spFlags: DISPFlagOptimized)
!258 = !DISubroutineType(types: !259)
!259 = !{null, !260}
!260 = !DIDerivedType(tag: DW_TAG_pointer_type, baseType: !5, size: 64, flags: DIFlagArtificial | DIFlagObjectPointer)
!261 = !DISubprogram(name: "shared", linkageName: "_ZNK6Packet6sharedEv", scope: !5, file: !4, line: 75, type: !262, scopeLine: 75, flags: DIFlagPublic | DIFlagPrototyped, spFlags: DISPFlagOptimized)
!262 = !DISubroutineType(types: !263)
!263 = !{!53, !264}
!264 = !DIDerivedType(tag: DW_TAG_pointer_type, baseType: !232, size: 64, flags: DIFlagArtificial | DIFlagObjectPointer)
!265 = !DISubprogram(name: "clone", linkageName: "_ZN6Packet5cloneEv", scope: !5, file: !4, line: 76, type: !266, scopeLine: 76, flags: DIFlagPublic | DIFlagPrototyped, spFlags: DISPFlagOptimized)
!266 = !DISubroutineType(types: !267)
!267 = !{!78, !260}
!268 = !DISubprogram(name: "uniqueify", linkageName: "_ZN6Packet9uniqueifyEv", scope: !5, file: !4, line: 77, type: !269, scopeLine: 77, flags: DIFlagPublic | DIFlagPrototyped, spFlags: DISPFlagOptimized)
!269 = !DISubroutineType(types: !270)
!270 = !{!140, !260}
!271 = !DISubprogram(name: "data", linkageName: "_ZNK6Packet4dataEv", scope: !5, file: !4, line: 79, type: !272, scopeLine: 79, flags: DIFlagPublic | DIFlagPrototyped, spFlags: DISPFlagOptimized)
!272 = !DISubroutineType(types: !273)
!273 = !{!274, !264}
!274 = !DIDerivedType(tag: DW_TAG_pointer_type, baseType: !275, size: 64)
!275 = !DIDerivedType(tag: DW_TAG_const_type, baseType: !81)
!276 = !DISubprogram(name: "end_data", linkageName: "_ZNK6Packet8end_dataEv", scope: !5, file: !4, line: 80, type: !272, scopeLine: 80, flags: DIFlagPublic | DIFlagPrototyped, spFlags: DISPFlagOptimized)
!277 = !DISubprogram(name: "length", linkageName: "_ZNK6Packet6lengthEv", scope: !5, file: !4, line: 81, type: !278, scopeLine: 81, flags: DIFlagPublic | DIFlagPrototyped, spFlags: DISPFlagOptimized)
!278 = !DISubroutineType(types: !279)
!279 = !{!12, !264}
!280 = !DISubprogram(name: "headroom", linkageName: "_ZNK6Packet8headroomEv", scope: !5, file: !4, line: 82, type: !278, scopeLine: 82, flags: DIFlagPublic | DIFlagPrototyped, spFlags: DISPFlagOptimized)
!281 = !DISubprogram(name: "tailroom", linkageName: "_ZNK6Packet8tailroomEv", scope: !5, file: !4, line: 83, type: !278, scopeLine: 83, flags: DIFlagPublic | DIFlagPrototyped, spFlags: DISPFlagOptimized)
!282 = !DISubprogram(name: "buffer", linkageName: "_ZNK6Packet6bufferEv", scope: !5, file: !4, line: 84, type: !272, scopeLine: 84, flags: DIFlagPublic | DIFlagPrototyped, spFlags: DISPFlagOptimized)
!283 = !DISubprogram(name: "end_buffer", linkageName: "_ZNK6Packet10end_bufferEv", scope: !5, file: !4, line: 85, type: !272, scopeLine: 85, flags: DIFlagPublic | DIFlagPrototyped, spFlags: DISPFlagOptimized)
!284 = !DISubprogram(name: "buffer_length", linkageName: "_ZNK6Packet13buffer_lengthEv", scope: !5, file: !4, line: 86, type: !278, scopeLine: 86, flags: DIFlagPublic | DIFlagPrototyped, spFlags: DISPFlagOptimized)
!285 = !DISubprogram(name: "buffer_destructor", linkageName: "_ZNK6Packet17buffer_destructorEv", scope: !5, file: !4, line: 97, type: !286, scopeLine: 97, flags: DIFlagPublic | DIFlagPrototyped, spFlags: DISPFlagOptimized)
!286 = !DISubroutineType(types: !287)
!287 = !{!129, !264}
!288 = !DISubprogram(name: "set_buffer_destructor", linkageName: "_ZN6Packet21set_buffer_destructorEPFvPhmPvE", scope: !5, file: !4, line: 101, type: !289, scopeLine: 101, flags: DIFlagPublic | DIFlagPrototyped, spFlags: DISPFlagOptimized)
!289 = !DISubroutineType(types: !290)
!290 = !{null, !260, !129}
!291 = !DISubprogram(name: "destructor_argument", linkageName: "_ZN6Packet19destructor_argumentEv", scope: !5, file: !4, line: 105, type: !292, scopeLine: 105, flags: DIFlagPublic | DIFlagPrototyped, spFlags: DISPFlagOptimized)
!292 = !DISubroutineType(types: !293)
!293 = !{!135, !260}
!294 = !DISubprogram(name: "reset_buffer", linkageName: "_ZN6Packet12reset_bufferEv", scope: !5, file: !4, line: 109, type: !258, scopeLine: 109, flags: DIFlagPublic | DIFlagPrototyped, spFlags: DISPFlagOptimized)
!295 = !DISubprogram(name: "push", linkageName: "_ZN6Packet4pushEj", scope: !5, file: !4, line: 141, type: !296, scopeLine: 141, flags: DIFlagPublic | DIFlagPrototyped, spFlags: DISPFlagOptimized)
!296 = !DISubroutineType(types: !297)
!297 = !{!140, !260, !12}
!298 = !DISubprogram(name: "push_mac_header", linkageName: "_ZN6Packet15push_mac_headerEj", scope: !5, file: !4, line: 152, type: !296, scopeLine: 152, flags: DIFlagPublic | DIFlagPrototyped, spFlags: DISPFlagOptimized)
!299 = !DISubprogram(name: "nonunique_push", linkageName: "_ZN6Packet14nonunique_pushEj", scope: !5, file: !4, line: 171, type: !300, scopeLine: 171, flags: DIFlagPublic | DIFlagPrototyped, spFlags: DISPFlagOptimized)
!300 = !DISubroutineType(types: !301)
!301 = !{!78, !260, !12}
!302 = !DISubprogram(name: "pull", linkageName: "_ZN6Packet4pullEj", scope: !5, file: !4, line: 187, type: !303, scopeLine: 187, flags: DIFlagPublic | DIFlagPrototyped, spFlags: DISPFlagOptimized)
!303 = !DISubroutineType(types: !304)
!304 = !{null, !260, !12}
!305 = !DISubprogram(name: "put", linkageName: "_ZN6Packet3putEj", scope: !5, file: !4, line: 213, type: !296, scopeLine: 213, flags: DIFlagPublic | DIFlagPrototyped, spFlags: DISPFlagOptimized)
!306 = !DISubprogram(name: "nonunique_put", linkageName: "_ZN6Packet13nonunique_putEj", scope: !5, file: !4, line: 230, type: !300, scopeLine: 230, flags: DIFlagPublic | DIFlagPrototyped, spFlags: DISPFlagOptimized)
!307 = !DISubprogram(name: "take", linkageName: "_ZN6Packet4takeEj", scope: !5, file: !4, line: 245, type: !303, scopeLine: 245, flags: DIFlagPublic | DIFlagPrototyped, spFlags: DISPFlagOptimized)
!308 = !DISubprogram(name: "shift_data", linkageName: "_ZN6Packet10shift_dataEib", scope: !5, file: !4, line: 269, type: !309, scopeLine: 269, flags: DIFlagPublic | DIFlagPrototyped, spFlags: DISPFlagOptimized)
!309 = !DISubroutineType(types: !310)
!310 = !{!78, !260, !34, !53}
!311 = !DISubprogram(name: "shrink_data", linkageName: "_ZN6Packet11shrink_dataEPKhj", scope: !5, file: !4, line: 271, type: !312, scopeLine: 271, flags: DIFlagPublic | DIFlagPrototyped, spFlags: DISPFlagOptimized)
!312 = !DISubroutineType(types: !313)
!313 = !{null, !260, !274, !12}
!314 = !DISubprogram(name: "change_headroom_and_length", linkageName: "_ZN6Packet26change_headroom_and_lengthEjj", scope: !5, file: !4, line: 272, type: !315, scopeLine: 272, flags: DIFlagPublic | DIFlagPrototyped, spFlags: DISPFlagOptimized)
!315 = !DISubroutineType(types: !316)
!316 = !{null, !260, !12, !12}
!317 = !DISubprogram(name: "copy", linkageName: "_ZN6Packet4copyEPS_i", scope: !5, file: !4, line: 274, type: !318, scopeLine: 274, flags: DIFlagPublic | DIFlagPrototyped, spFlags: DISPFlagOptimized)
!318 = !DISubroutineType(types: !319)
!319 = !{!53, !260, !78, !34}
!320 = !DISubprogram(name: "has_mac_header", linkageName: "_ZNK6Packet14has_mac_headerEv", scope: !5, file: !4, line: 279, type: !262, scopeLine: 279, flags: DIFlagPublic | DIFlagPrototyped, spFlags: DISPFlagOptimized)
!321 = !DISubprogram(name: "mac_header", linkageName: "_ZNK6Packet10mac_headerEv", scope: !5, file: !4, line: 280, type: !272, scopeLine: 280, flags: DIFlagPublic | DIFlagPrototyped, spFlags: DISPFlagOptimized)
!322 = !DISubprogram(name: "mac_header_offset", linkageName: "_ZNK6Packet17mac_header_offsetEv", scope: !5, file: !4, line: 281, type: !323, scopeLine: 281, flags: DIFlagPublic | DIFlagPrototyped, spFlags: DISPFlagOptimized)
!323 = !DISubroutineType(types: !324)
!324 = !{!34, !264}
!325 = !DISubprogram(name: "mac_header_length", linkageName: "_ZNK6Packet17mac_header_lengthEv", scope: !5, file: !4, line: 282, type: !278, scopeLine: 282, flags: DIFlagPublic | DIFlagPrototyped, spFlags: DISPFlagOptimized)
!326 = !DISubprogram(name: "mac_length", linkageName: "_ZNK6Packet10mac_lengthEv", scope: !5, file: !4, line: 283, type: !323, scopeLine: 283, flags: DIFlagPublic | DIFlagPrototyped, spFlags: DISPFlagOptimized)
!327 = !DISubprogram(name: "set_mac_header", linkageName: "_ZN6Packet14set_mac_headerEPKh", scope: !5, file: !4, line: 284, type: !328, scopeLine: 284, flags: DIFlagPublic | DIFlagPrototyped, spFlags: DISPFlagOptimized)
!328 = !DISubroutineType(types: !329)
!329 = !{null, !260, !274}
!330 = !DISubprogram(name: "set_mac_header", linkageName: "_ZN6Packet14set_mac_headerEPKhj", scope: !5, file: !4, line: 285, type: !312, scopeLine: 285, flags: DIFlagPublic | DIFlagPrototyped, spFlags: DISPFlagOptimized)
!331 = !DISubprogram(name: "clear_mac_header", linkageName: "_ZN6Packet16clear_mac_headerEv", scope: !5, file: !4, line: 286, type: !258, scopeLine: 286, flags: DIFlagPublic | DIFlagPrototyped, spFlags: DISPFlagOptimized)
!332 = !DISubprogram(name: "has_network_header", linkageName: "_ZNK6Packet18has_network_headerEv", scope: !5, file: !4, line: 288, type: !262, scopeLine: 288, flags: DIFlagPublic | DIFlagPrototyped, spFlags: DISPFlagOptimized)
!333 = !DISubprogram(name: "network_header", linkageName: "_ZNK6Packet14network_headerEv", scope: !5, file: !4, line: 289, type: !272, scopeLine: 289, flags: DIFlagPublic | DIFlagPrototyped, spFlags: DISPFlagOptimized)
!334 = !DISubprogram(name: "network_header_offset", linkageName: "_ZNK6Packet21network_header_offsetEv", scope: !5, file: !4, line: 290, type: !323, scopeLine: 290, flags: DIFlagPublic | DIFlagPrototyped, spFlags: DISPFlagOptimized)
!335 = !DISubprogram(name: "network_header_length", linkageName: "_ZNK6Packet21network_header_lengthEv", scope: !5, file: !4, line: 291, type: !278, scopeLine: 291, flags: DIFlagPublic | DIFlagPrototyped, spFlags: DISPFlagOptimized)
!336 = !DISubprogram(name: "network_length", linkageName: "_ZNK6Packet14network_lengthEv", scope: !5, file: !4, line: 292, type: !323, scopeLine: 292, flags: DIFlagPublic | DIFlagPrototyped, spFlags: DISPFlagOptimized)
!337 = !DISubprogram(name: "set_network_header", linkageName: "_ZN6Packet18set_network_headerEPKhj", scope: !5, file: !4, line: 293, type: !312, scopeLine: 293, flags: DIFlagPublic | DIFlagPrototyped, spFlags: DISPFlagOptimized)
!338 = !DISubprogram(name: "set_network_header_length", linkageName: "_ZN6Packet25set_network_header_lengthEj", scope: !5, file: !4, line: 294, type: !303, scopeLine: 294, flags: DIFlagPublic | DIFlagPrototyped, spFlags: DISPFlagOptimized)
!339 = !DISubprogram(name: "clear_network_header", linkageName: "_ZN6Packet20clear_network_headerEv", scope: !5, file: !4, line: 295, type: !258, scopeLine: 295, flags: DIFlagPublic | DIFlagPrototyped, spFlags: DISPFlagOptimized)
!340 = !DISubprogram(name: "has_transport_header", linkageName: "_ZNK6Packet20has_transport_headerEv", scope: !5, file: !4, line: 297, type: !262, scopeLine: 297, flags: DIFlagPublic | DIFlagPrototyped, spFlags: DISPFlagOptimized)
!341 = !DISubprogram(name: "transport_header", linkageName: "_ZNK6Packet16transport_headerEv", scope: !5, file: !4, line: 298, type: !272, scopeLine: 298, flags: DIFlagPublic | DIFlagPrototyped, spFlags: DISPFlagOptimized)
!342 = !DISubprogram(name: "transport_header_offset", linkageName: "_ZNK6Packet23transport_header_offsetEv", scope: !5, file: !4, line: 299, type: !323, scopeLine: 299, flags: DIFlagPublic | DIFlagPrototyped, spFlags: DISPFlagOptimized)
!343 = !DISubprogram(name: "transport_length", linkageName: "_ZNK6Packet16transport_lengthEv", scope: !5, file: !4, line: 300, type: !323, scopeLine: 300, flags: DIFlagPublic | DIFlagPrototyped, spFlags: DISPFlagOptimized)
!344 = !DISubprogram(name: "clear_transport_header", linkageName: "_ZN6Packet22clear_transport_headerEv", scope: !5, file: !4, line: 301, type: !258, scopeLine: 301, flags: DIFlagPublic | DIFlagPrototyped, spFlags: DISPFlagOptimized)
!345 = !DISubprogram(name: "ether_header", linkageName: "_ZNK6Packet12ether_headerEv", scope: !5, file: !4, line: 304, type: !346, scopeLine: 304, flags: DIFlagPublic | DIFlagPrototyped, spFlags: DISPFlagOptimized)
!346 = !DISubroutineType(types: !347)
!347 = !{!348, !264}
!348 = !DIDerivedType(tag: DW_TAG_pointer_type, baseType: !349, size: 64)
!349 = !DIDerivedType(tag: DW_TAG_const_type, baseType: !157)
!350 = !DISubprogram(name: "set_ether_header", linkageName: "_ZN6Packet16set_ether_headerEPK11click_ether", scope: !5, file: !4, line: 305, type: !351, scopeLine: 305, flags: DIFlagPublic | DIFlagPrototyped, spFlags: DISPFlagOptimized)
!351 = !DISubroutineType(types: !352)
!352 = !{null, !260, !348}
!353 = !DISubprogram(name: "ip_header", linkageName: "_ZNK6Packet9ip_headerEv", scope: !5, file: !4, line: 307, type: !354, scopeLine: 307, flags: DIFlagPublic | DIFlagPrototyped, spFlags: DISPFlagOptimized)
!354 = !DISubroutineType(types: !355)
!355 = !{!356, !264}
!356 = !DIDerivedType(tag: DW_TAG_pointer_type, baseType: !357, size: 64)
!357 = !DIDerivedType(tag: DW_TAG_const_type, baseType: !163)
!358 = !DISubprogram(name: "ip_header_offset", linkageName: "_ZNK6Packet16ip_header_offsetEv", scope: !5, file: !4, line: 308, type: !323, scopeLine: 308, flags: DIFlagPublic | DIFlagPrototyped, spFlags: DISPFlagOptimized)
!359 = !DISubprogram(name: "ip_header_length", linkageName: "_ZNK6Packet16ip_header_lengthEv", scope: !5, file: !4, line: 309, type: !278, scopeLine: 309, flags: DIFlagPublic | DIFlagPrototyped, spFlags: DISPFlagOptimized)
!360 = !DISubprogram(name: "set_ip_header", linkageName: "_ZN6Packet13set_ip_headerEPK8click_ipj", scope: !5, file: !4, line: 310, type: !361, scopeLine: 310, flags: DIFlagPublic | DIFlagPrototyped, spFlags: DISPFlagOptimized)
!361 = !DISubroutineType(types: !362)
!362 = !{null, !260, !356, !12}
!363 = !DISubprogram(name: "ip6_header", linkageName: "_ZNK6Packet10ip6_headerEv", scope: !5, file: !4, line: 312, type: !364, scopeLine: 312, flags: DIFlagPublic | DIFlagPrototyped, spFlags: DISPFlagOptimized)
!364 = !DISubroutineType(types: !365)
!365 = !{!366, !264}
!366 = !DIDerivedType(tag: DW_TAG_pointer_type, baseType: !367, size: 64)
!367 = !DIDerivedType(tag: DW_TAG_const_type, baseType: !186)
!368 = !DISubprogram(name: "ip6_header_offset", linkageName: "_ZNK6Packet17ip6_header_offsetEv", scope: !5, file: !4, line: 313, type: !323, scopeLine: 313, flags: DIFlagPublic | DIFlagPrototyped, spFlags: DISPFlagOptimized)
!369 = !DISubprogram(name: "ip6_header_length", linkageName: "_ZNK6Packet17ip6_header_lengthEv", scope: !5, file: !4, line: 314, type: !278, scopeLine: 314, flags: DIFlagPublic | DIFlagPrototyped, spFlags: DISPFlagOptimized)
!370 = !DISubprogram(name: "set_ip6_header", linkageName: "_ZN6Packet14set_ip6_headerEPK9click_ip6", scope: !5, file: !4, line: 315, type: !371, scopeLine: 315, flags: DIFlagPublic | DIFlagPrototyped, spFlags: DISPFlagOptimized)
!371 = !DISubroutineType(types: !372)
!372 = !{null, !260, !366}
!373 = !DISubprogram(name: "set_ip6_header", linkageName: "_ZN6Packet14set_ip6_headerEPK9click_ip6j", scope: !5, file: !4, line: 316, type: !374, scopeLine: 316, flags: DIFlagPublic | DIFlagPrototyped, spFlags: DISPFlagOptimized)
!374 = !DISubroutineType(types: !375)
!375 = !{null, !260, !366, !12}
!376 = !DISubprogram(name: "icmp_header", linkageName: "_ZNK6Packet11icmp_headerEv", scope: !5, file: !4, line: 318, type: !377, scopeLine: 318, flags: DIFlagPublic | DIFlagPrototyped, spFlags: DISPFlagOptimized)
!377 = !DISubroutineType(types: !378)
!378 = !{!379, !264}
!379 = !DIDerivedType(tag: DW_TAG_pointer_type, baseType: !380, size: 64)
!380 = !DIDerivedType(tag: DW_TAG_const_type, baseType: !192)
!381 = !DISubprogram(name: "tcp_header", linkageName: "_ZNK6Packet10tcp_headerEv", scope: !5, file: !4, line: 319, type: !382, scopeLine: 319, flags: DIFlagPublic | DIFlagPrototyped, spFlags: DISPFlagOptimized)
!382 = !DISubroutineType(types: !383)
!383 = !{!384, !264}
!384 = !DIDerivedType(tag: DW_TAG_pointer_type, baseType: !385, size: 64)
!385 = !DIDerivedType(tag: DW_TAG_const_type, baseType: !197)
!386 = !DISubprogram(name: "udp_header", linkageName: "_ZNK6Packet10udp_headerEv", scope: !5, file: !4, line: 320, type: !387, scopeLine: 320, flags: DIFlagPublic | DIFlagPrototyped, spFlags: DISPFlagOptimized)
!387 = !DISubroutineType(types: !388)
!388 = !{!389, !264}
!389 = !DIDerivedType(tag: DW_TAG_pointer_type, baseType: !390, size: 64)
!390 = !DIDerivedType(tag: DW_TAG_const_type, baseType: !215)
!391 = !DISubprogram(name: "xanno", linkageName: "_ZNK6Packet5xannoEv", scope: !5, file: !4, line: 340, type: !392, scopeLine: 340, flags: DIFlagPrototyped, spFlags: DISPFlagOptimized)
!392 = !DISubroutineType(types: !393)
!393 = !{!394, !264}
!394 = !DIDerivedType(tag: DW_TAG_pointer_type, baseType: !395, size: 64)
!395 = !DIDerivedType(tag: DW_TAG_const_type, baseType: !89)
!396 = !DISubprogram(name: "xanno", linkageName: "_ZN6Packet5xannoEv", scope: !5, file: !4, line: 341, type: !397, scopeLine: 341, flags: DIFlagPrototyped, spFlags: DISPFlagOptimized)
!397 = !DISubroutineType(types: !398)
!398 = !{!399, !260}
!399 = !DIDerivedType(tag: DW_TAG_pointer_type, baseType: !89, size: 64)
!400 = !DISubprogram(name: "timestamp_anno", linkageName: "_ZNK6Packet14timestamp_annoEv", scope: !5, file: !4, line: 354, type: !401, scopeLine: 354, flags: DIFlagPublic | DIFlagPrototyped, spFlags: DISPFlagOptimized)
!401 = !DISubroutineType(types: !402)
!402 = !{!403, !264}
!403 = !DIDerivedType(tag: DW_TAG_reference_type, baseType: !404, size: 64)
!404 = !DIDerivedType(tag: DW_TAG_const_type, baseType: !405)
!405 = distinct !DICompositeType(tag: DW_TAG_class_type, name: "Timestamp", file: !406, line: 122, size: 64, flags: DIFlagTypePassByValue | DIFlagNonTrivial, elements: !407, identifier: "_ZTS9Timestamp")
!406 = !DIFile(filename: "../dummy_inc/click/timestamp.hh", directory: "/home/john/projects/click/ir-dir")
!407 = !{!408, !415, !419, !422, !425, !428, !431, !435, !447, !458, !463, !472, !481, !484, !485, !488, !489, !490, !491, !494, !497, !498, !499, !500, !503, !504, !507, !510, !514, !515, !516, !519, !520, !521, !526, !530, !533, !536, !539, !542, !543, !544, !545, !546, !549, !550, !553, !554, !555, !556, !557, !558, !559, !562, !563, !564, !565, !566, !567, !568, !569, !570, !860, !861, !864, !865, !866, !867, !868, !869, !870, !873, !882, !885, !886, !889, !892, !893, !894, !895, !896, !897, !898, !901, !905, !908, !911, !914}
!408 = !DIDerivedType(tag: DW_TAG_member, name: "_t", scope: !405, file: !406, line: 672, baseType: !409, size: 64)
!409 = distinct !DICompositeType(tag: DW_TAG_union_type, name: "rep_t", scope: !405, file: !406, line: 539, size: 64, flags: DIFlagTypePassByValue, elements: !410, identifier: "_ZTSN9Timestamp5rep_tE")
!410 = !{!411}
!411 = !DIDerivedType(tag: DW_TAG_member, name: "x", scope: !409, file: !406, line: 541, baseType: !412, size: 64)
!412 = !DIDerivedType(tag: DW_TAG_typedef, name: "int64_t", file: !32, line: 27, baseType: !413)
!413 = !DIDerivedType(tag: DW_TAG_typedef, name: "__int64_t", file: !15, line: 44, baseType: !414)
!414 = !DIBasicType(name: "long int", size: 64, encoding: DW_ATE_signed)
!415 = !DISubprogram(name: "Timestamp", scope: !405, file: !406, line: 174, type: !416, scopeLine: 174, flags: DIFlagPublic | DIFlagPrototyped, spFlags: DISPFlagOptimized)
!416 = !DISubroutineType(types: !417)
!417 = !{null, !418}
!418 = !DIDerivedType(tag: DW_TAG_pointer_type, baseType: !405, size: 64, flags: DIFlagArtificial | DIFlagObjectPointer)
!419 = !DISubprogram(name: "Timestamp", scope: !405, file: !406, line: 187, type: !420, scopeLine: 187, flags: DIFlagPublic | DIFlagExplicit | DIFlagPrototyped, spFlags: DISPFlagOptimized)
!420 = !DISubroutineType(types: !421)
!421 = !{null, !418, !414, !12}
!422 = !DISubprogram(name: "Timestamp", scope: !405, file: !406, line: 191, type: !423, scopeLine: 191, flags: DIFlagPublic | DIFlagExplicit | DIFlagPrototyped, spFlags: DISPFlagOptimized)
!423 = !DISubroutineType(types: !424)
!424 = !{null, !418, !34, !12}
!425 = !DISubprogram(name: "Timestamp", scope: !405, file: !406, line: 195, type: !426, scopeLine: 195, flags: DIFlagPublic | DIFlagExplicit | DIFlagPrototyped, spFlags: DISPFlagOptimized)
!426 = !DISubroutineType(types: !427)
!427 = !{null, !418, !115, !12}
!428 = !DISubprogram(name: "Timestamp", scope: !405, file: !406, line: 199, type: !429, scopeLine: 199, flags: DIFlagPublic | DIFlagExplicit | DIFlagPrototyped, spFlags: DISPFlagOptimized)
!429 = !DISubroutineType(types: !430)
!430 = !{null, !418, !16, !12}
!431 = !DISubprogram(name: "Timestamp", scope: !405, file: !406, line: 203, type: !432, scopeLine: 203, flags: DIFlagPublic | DIFlagExplicit | DIFlagPrototyped, spFlags: DISPFlagOptimized)
!432 = !DISubroutineType(types: !433)
!433 = !{null, !418, !434}
!434 = !DIBasicType(name: "double", size: 64, encoding: DW_ATE_float)
!435 = !DISubprogram(name: "Timestamp", scope: !405, file: !406, line: 206, type: !436, scopeLine: 206, flags: DIFlagPublic | DIFlagPrototyped, spFlags: DISPFlagOptimized)
!436 = !DISubroutineType(types: !437)
!437 = !{null, !418, !438}
!438 = !DIDerivedType(tag: DW_TAG_reference_type, baseType: !439, size: 64)
!439 = !DIDerivedType(tag: DW_TAG_const_type, baseType: !440)
!440 = distinct !DICompositeType(tag: DW_TAG_structure_type, name: "timeval", file: !441, line: 8, size: 128, flags: DIFlagTypePassByValue, elements: !442, identifier: "_ZTS7timeval")
!441 = !DIFile(filename: "/usr/include/bits/types/struct_timeval.h", directory: "")
!442 = !{!443, !445}
!443 = !DIDerivedType(tag: DW_TAG_member, name: "tv_sec", scope: !440, file: !441, line: 10, baseType: !444, size: 64)
!444 = !DIDerivedType(tag: DW_TAG_typedef, name: "__time_t", file: !15, line: 160, baseType: !414)
!445 = !DIDerivedType(tag: DW_TAG_member, name: "tv_usec", scope: !440, file: !441, line: 11, baseType: !446, size: 64, offset: 64)
!446 = !DIDerivedType(tag: DW_TAG_typedef, name: "__suseconds_t", file: !15, line: 162, baseType: !414)
!447 = !DISubprogram(name: "Timestamp", scope: !405, file: !406, line: 208, type: !448, scopeLine: 208, flags: DIFlagPublic | DIFlagPrototyped, spFlags: DISPFlagOptimized)
!448 = !DISubroutineType(types: !449)
!449 = !{null, !418, !450}
!450 = !DIDerivedType(tag: DW_TAG_reference_type, baseType: !451, size: 64)
!451 = !DIDerivedType(tag: DW_TAG_const_type, baseType: !452)
!452 = distinct !DICompositeType(tag: DW_TAG_structure_type, name: "timespec", file: !453, line: 10, size: 128, flags: DIFlagTypePassByValue, elements: !454, identifier: "_ZTS8timespec")
!453 = !DIFile(filename: "/usr/include/bits/types/struct_timespec.h", directory: "")
!454 = !{!455, !456}
!455 = !DIDerivedType(tag: DW_TAG_member, name: "tv_sec", scope: !452, file: !453, line: 12, baseType: !444, size: 64)
!456 = !DIDerivedType(tag: DW_TAG_member, name: "tv_nsec", scope: !452, file: !453, line: 16, baseType: !457, size: 64, offset: 64)
!457 = !DIDerivedType(tag: DW_TAG_typedef, name: "__syscall_slong_t", file: !15, line: 196, baseType: !414)
!458 = !DISubprogram(name: "Timestamp", scope: !405, file: !406, line: 212, type: !459, scopeLine: 212, flags: DIFlagPublic | DIFlagPrototyped, spFlags: DISPFlagOptimized)
!459 = !DISubroutineType(types: !460)
!460 = !{null, !418, !461}
!461 = !DIDerivedType(tag: DW_TAG_reference_type, baseType: !462, size: 64)
!462 = !DIDerivedType(tag: DW_TAG_const_type, baseType: !409)
!463 = !DISubprogram(name: "Timestamp", scope: !405, file: !406, line: 217, type: !464, scopeLine: 217, flags: DIFlagPublic | DIFlagPrototyped, spFlags: DISPFlagOptimized)
!464 = !DISubroutineType(types: !465)
!465 = !{null, !418, !466}
!466 = !DIDerivedType(tag: DW_TAG_reference_type, baseType: !467, size: 64)
!467 = !DIDerivedType(tag: DW_TAG_const_type, baseType: !468)
!468 = !DIDerivedType(tag: DW_TAG_typedef, name: "uninitialized_t", scope: !405, file: !406, line: 168, baseType: !469)
!469 = distinct !DICompositeType(tag: DW_TAG_structure_type, name: "uninitialized_type", file: !470, line: 317, size: 8, flags: DIFlagTypePassByValue, elements: !471, identifier: "_ZTS18uninitialized_type")
!470 = !DIFile(filename: "../dummy_inc/click/config.h", directory: "/home/john/projects/click/ir-dir")
!471 = !{}
!472 = !DISubprogram(name: "operator int (Timestamp::*)() const", linkageName: "_ZNK9TimestampcvMS_KFivEEv", scope: !405, file: !406, line: 222, type: !473, scopeLine: 222, flags: DIFlagPublic | DIFlagPrototyped, spFlags: DISPFlagOptimized)
!473 = !DISubroutineType(types: !474)
!474 = !{!475, !480}
!475 = !DIDerivedType(tag: DW_TAG_typedef, name: "unspecified_bool_type", scope: !405, file: !406, line: 221, baseType: !476)
!476 = !DIDerivedType(tag: DW_TAG_ptr_to_member_type, baseType: !477, size: 128, extraData: !405)
!477 = !DISubroutineType(types: !478)
!478 = !{!479, !480}
!479 = !DIDerivedType(tag: DW_TAG_typedef, name: "seconds_type", scope: !405, file: !406, line: 125, baseType: !31)
!480 = !DIDerivedType(tag: DW_TAG_pointer_type, baseType: !404, size: 64, flags: DIFlagArtificial | DIFlagObjectPointer)
!481 = !DISubprogram(name: "is_negative", linkageName: "_ZNK9Timestamp11is_negativeEv", scope: !405, file: !406, line: 225, type: !482, scopeLine: 225, flags: DIFlagPublic | DIFlagPrototyped, spFlags: DISPFlagOptimized)
!482 = !DISubroutineType(types: !483)
!483 = !{!53, !480}
!484 = !DISubprogram(name: "sec", linkageName: "_ZNK9Timestamp3secEv", scope: !405, file: !406, line: 233, type: !477, scopeLine: 233, flags: DIFlagPublic | DIFlagPrototyped, spFlags: DISPFlagOptimized)
!485 = !DISubprogram(name: "subsec", linkageName: "_ZNK9Timestamp6subsecEv", scope: !405, file: !406, line: 234, type: !486, scopeLine: 234, flags: DIFlagPublic | DIFlagPrototyped, spFlags: DISPFlagOptimized)
!486 = !DISubroutineType(types: !487)
!487 = !{!12, !480}
!488 = !DISubprogram(name: "msec", linkageName: "_ZNK9Timestamp4msecEv", scope: !405, file: !406, line: 235, type: !486, scopeLine: 235, flags: DIFlagPublic | DIFlagPrototyped, spFlags: DISPFlagOptimized)
!489 = !DISubprogram(name: "usec", linkageName: "_ZNK9Timestamp4usecEv", scope: !405, file: !406, line: 236, type: !486, scopeLine: 236, flags: DIFlagPublic | DIFlagPrototyped, spFlags: DISPFlagOptimized)
!490 = !DISubprogram(name: "nsec", linkageName: "_ZNK9Timestamp4nsecEv", scope: !405, file: !406, line: 237, type: !486, scopeLine: 237, flags: DIFlagPublic | DIFlagPrototyped, spFlags: DISPFlagOptimized)
!491 = !DISubprogram(name: "set_sec", linkageName: "_ZN9Timestamp7set_secEi", scope: !405, file: !406, line: 239, type: !492, scopeLine: 239, flags: DIFlagPublic | DIFlagPrototyped, spFlags: DISPFlagOptimized)
!492 = !DISubroutineType(types: !493)
!493 = !{null, !418, !479}
!494 = !DISubprogram(name: "set_subsec", linkageName: "_ZN9Timestamp10set_subsecEj", scope: !405, file: !406, line: 240, type: !495, scopeLine: 240, flags: DIFlagPublic | DIFlagPrototyped, spFlags: DISPFlagOptimized)
!495 = !DISubroutineType(types: !496)
!496 = !{null, !418, !12}
!497 = !DISubprogram(name: "msec1", linkageName: "_ZNK9Timestamp5msec1Ev", scope: !405, file: !406, line: 242, type: !477, scopeLine: 242, flags: DIFlagPublic | DIFlagPrototyped, spFlags: DISPFlagOptimized)
!498 = !DISubprogram(name: "usec1", linkageName: "_ZNK9Timestamp5usec1Ev", scope: !405, file: !406, line: 243, type: !477, scopeLine: 243, flags: DIFlagPublic | DIFlagPrototyped, spFlags: DISPFlagOptimized)
!499 = !DISubprogram(name: "nsec1", linkageName: "_ZNK9Timestamp5nsec1Ev", scope: !405, file: !406, line: 244, type: !477, scopeLine: 244, flags: DIFlagPublic | DIFlagPrototyped, spFlags: DISPFlagOptimized)
!500 = !DISubprogram(name: "timeval", linkageName: "_ZNK9Timestamp7timevalEv", scope: !405, file: !406, line: 250, type: !501, scopeLine: 250, flags: DIFlagPublic | DIFlagPrototyped, spFlags: DISPFlagOptimized)
!501 = !DISubroutineType(types: !502)
!502 = !{!440, !480}
!503 = !DISubprogram(name: "timeval_ceil", linkageName: "_ZNK9Timestamp12timeval_ceilEv", scope: !405, file: !406, line: 251, type: !501, scopeLine: 251, flags: DIFlagPublic | DIFlagPrototyped, spFlags: DISPFlagOptimized)
!504 = !DISubprogram(name: "timespec", linkageName: "_ZNK9Timestamp8timespecEv", scope: !405, file: !406, line: 257, type: !505, scopeLine: 257, flags: DIFlagPublic | DIFlagPrototyped, spFlags: DISPFlagOptimized)
!505 = !DISubroutineType(types: !506)
!506 = !{!452, !480}
!507 = !DISubprogram(name: "doubleval", linkageName: "_ZNK9Timestamp9doublevalEv", scope: !405, file: !406, line: 262, type: !508, scopeLine: 262, flags: DIFlagPublic | DIFlagPrototyped, spFlags: DISPFlagOptimized)
!508 = !DISubroutineType(types: !509)
!509 = !{!434, !480}
!510 = !DISubprogram(name: "msecval", linkageName: "_ZNK9Timestamp7msecvalEv", scope: !405, file: !406, line: 265, type: !511, scopeLine: 265, flags: DIFlagPublic | DIFlagPrototyped, spFlags: DISPFlagOptimized)
!511 = !DISubroutineType(types: !512)
!512 = !{!513, !480}
!513 = !DIDerivedType(tag: DW_TAG_typedef, name: "value_type", scope: !405, file: !406, line: 128, baseType: !412)
!514 = !DISubprogram(name: "usecval", linkageName: "_ZNK9Timestamp7usecvalEv", scope: !405, file: !406, line: 273, type: !511, scopeLine: 273, flags: DIFlagPublic | DIFlagPrototyped, spFlags: DISPFlagOptimized)
!515 = !DISubprogram(name: "nsecval", linkageName: "_ZNK9Timestamp7nsecvalEv", scope: !405, file: !406, line: 281, type: !511, scopeLine: 281, flags: DIFlagPublic | DIFlagPrototyped, spFlags: DISPFlagOptimized)
!516 = !DISubprogram(name: "msec_ceil", linkageName: "_ZNK9Timestamp9msec_ceilEv", scope: !405, file: !406, line: 290, type: !517, scopeLine: 290, flags: DIFlagPublic | DIFlagPrototyped, spFlags: DISPFlagOptimized)
!517 = !DISubroutineType(types: !518)
!518 = !{!405, !480}
!519 = !DISubprogram(name: "usec_ceil", linkageName: "_ZNK9Timestamp9usec_ceilEv", scope: !405, file: !406, line: 295, type: !517, scopeLine: 295, flags: DIFlagPublic | DIFlagPrototyped, spFlags: DISPFlagOptimized)
!520 = !DISubprogram(name: "nsec_ceil", linkageName: "_ZNK9Timestamp9nsec_ceilEv", scope: !405, file: !406, line: 304, type: !517, scopeLine: 304, flags: DIFlagPublic | DIFlagPrototyped, spFlags: DISPFlagOptimized)
!521 = !DISubprogram(name: "make_jiffies", linkageName: "_ZN9Timestamp12make_jiffiesEj", scope: !405, file: !406, line: 310, type: !522, scopeLine: 310, flags: DIFlagPublic | DIFlagPrototyped | DIFlagStaticMember, spFlags: DISPFlagOptimized)
!522 = !DISubroutineType(types: !523)
!523 = !{!405, !524}
!524 = !DIDerivedType(tag: DW_TAG_typedef, name: "click_jiffies_t", file: !525, line: 477, baseType: !16)
!525 = !DIFile(filename: "../dummy_inc/click/glue.hh", directory: "/home/john/projects/click/ir-dir")
!526 = !DISubprogram(name: "make_jiffies", linkageName: "_ZN9Timestamp12make_jiffiesEi", scope: !405, file: !406, line: 312, type: !527, scopeLine: 312, flags: DIFlagPublic | DIFlagPrototyped | DIFlagStaticMember, spFlags: DISPFlagOptimized)
!527 = !DISubroutineType(types: !528)
!528 = !{!405, !529}
!529 = !DIDerivedType(tag: DW_TAG_typedef, name: "click_jiffies_difference_t", file: !525, line: 478, baseType: !34)
!530 = !DISubprogram(name: "jiffies", linkageName: "_ZNK9Timestamp7jiffiesEv", scope: !405, file: !406, line: 314, type: !531, scopeLine: 314, flags: DIFlagPublic | DIFlagPrototyped, spFlags: DISPFlagOptimized)
!531 = !DISubroutineType(types: !532)
!532 = !{!524, !480}
!533 = !DISubprogram(name: "make_sec", linkageName: "_ZN9Timestamp8make_secEi", scope: !405, file: !406, line: 318, type: !534, scopeLine: 318, flags: DIFlagPublic | DIFlagPrototyped | DIFlagStaticMember, spFlags: DISPFlagOptimized)
!534 = !DISubroutineType(types: !535)
!535 = !{!405, !479}
!536 = !DISubprogram(name: "make_msec", linkageName: "_ZN9Timestamp9make_msecEij", scope: !405, file: !406, line: 324, type: !537, scopeLine: 324, flags: DIFlagPublic | DIFlagPrototyped | DIFlagStaticMember, spFlags: DISPFlagOptimized)
!537 = !DISubroutineType(types: !538)
!538 = !{!405, !479, !12}
!539 = !DISubprogram(name: "make_msec", linkageName: "_ZN9Timestamp9make_msecEl", scope: !405, file: !406, line: 328, type: !540, scopeLine: 328, flags: DIFlagPublic | DIFlagPrototyped | DIFlagStaticMember, spFlags: DISPFlagOptimized)
!540 = !DISubroutineType(types: !541)
!541 = !{!405, !513}
!542 = !DISubprogram(name: "make_usec", linkageName: "_ZN9Timestamp9make_usecEij", scope: !405, file: !406, line: 341, type: !537, scopeLine: 341, flags: DIFlagPublic | DIFlagPrototyped | DIFlagStaticMember, spFlags: DISPFlagOptimized)
!543 = !DISubprogram(name: "make_usec", linkageName: "_ZN9Timestamp9make_usecEl", scope: !405, file: !406, line: 345, type: !540, scopeLine: 345, flags: DIFlagPublic | DIFlagPrototyped | DIFlagStaticMember, spFlags: DISPFlagOptimized)
!544 = !DISubprogram(name: "make_nsec", linkageName: "_ZN9Timestamp9make_nsecEij", scope: !405, file: !406, line: 358, type: !537, scopeLine: 358, flags: DIFlagPublic | DIFlagPrototyped | DIFlagStaticMember, spFlags: DISPFlagOptimized)
!545 = !DISubprogram(name: "make_nsec", linkageName: "_ZN9Timestamp9make_nsecEl", scope: !405, file: !406, line: 362, type: !540, scopeLine: 362, flags: DIFlagPublic | DIFlagPrototyped | DIFlagStaticMember, spFlags: DISPFlagOptimized)
!546 = !DISubprogram(name: "epsilon", linkageName: "_ZN9Timestamp7epsilonEv", scope: !405, file: !406, line: 375, type: !547, scopeLine: 375, flags: DIFlagPublic | DIFlagPrototyped | DIFlagStaticMember, spFlags: DISPFlagOptimized)
!547 = !DISubroutineType(types: !548)
!548 = !{!405}
!549 = !DISubprogram(name: "clear", linkageName: "_ZN9Timestamp5clearEv", scope: !405, file: !406, line: 380, type: !416, scopeLine: 380, flags: DIFlagPublic | DIFlagPrototyped, spFlags: DISPFlagOptimized)
!550 = !DISubprogram(name: "assign", linkageName: "_ZN9Timestamp6assignEij", scope: !405, file: !406, line: 388, type: !551, scopeLine: 388, flags: DIFlagPublic | DIFlagPrototyped, spFlags: DISPFlagOptimized)
!551 = !DISubroutineType(types: !552)
!552 = !{null, !418, !479, !12}
!553 = !DISubprogram(name: "assign_usec", linkageName: "_ZN9Timestamp11assign_usecEij", scope: !405, file: !406, line: 397, type: !551, scopeLine: 397, flags: DIFlagPublic | DIFlagPrototyped, spFlags: DISPFlagOptimized)
!554 = !DISubprogram(name: "assign_nsec", linkageName: "_ZN9Timestamp11assign_nsecEij", scope: !405, file: !406, line: 401, type: !551, scopeLine: 401, flags: DIFlagPublic | DIFlagPrototyped, spFlags: DISPFlagOptimized)
!555 = !DISubprogram(name: "set", linkageName: "_ZN9Timestamp3setEij", scope: !405, file: !406, line: 408, type: !551, scopeLine: 408, flags: DIFlagPublic | DIFlagPrototyped, spFlags: DISPFlagOptimized)
!556 = !DISubprogram(name: "set_usec", linkageName: "_ZN9Timestamp8set_usecEij", scope: !405, file: !406, line: 411, type: !551, scopeLine: 411, flags: DIFlagPublic | DIFlagPrototyped, spFlags: DISPFlagOptimized)
!557 = !DISubprogram(name: "set_nsec", linkageName: "_ZN9Timestamp8set_nsecEij", scope: !405, file: !406, line: 414, type: !551, scopeLine: 414, flags: DIFlagPublic | DIFlagPrototyped, spFlags: DISPFlagOptimized)
!558 = !DISubprogram(name: "set_now", linkageName: "_ZN9Timestamp7set_nowEv", scope: !405, file: !406, line: 417, type: !416, scopeLine: 417, flags: DIFlagPublic | DIFlagPrototyped, spFlags: DISPFlagOptimized)
!559 = !DISubprogram(name: "set_timeval_ioctl", linkageName: "_ZN9Timestamp17set_timeval_ioctlEii", scope: !405, file: !406, line: 420, type: !560, scopeLine: 420, flags: DIFlagPublic | DIFlagPrototyped, spFlags: DISPFlagOptimized)
!560 = !DISubroutineType(types: !561)
!561 = !{!34, !418, !34, !34}
!562 = !DISubprogram(name: "now", linkageName: "_ZN9Timestamp3nowEv", scope: !405, file: !406, line: 432, type: !547, scopeLine: 432, flags: DIFlagPublic | DIFlagPrototyped | DIFlagStaticMember, spFlags: DISPFlagOptimized)
!563 = !DISubprogram(name: "assign_now", linkageName: "_ZN9Timestamp10assign_nowEv", scope: !405, file: !406, line: 438, type: !416, scopeLine: 438, flags: DIFlagPublic | DIFlagPrototyped, spFlags: DISPFlagOptimized)
!564 = !DISubprogram(name: "recent", linkageName: "_ZN9Timestamp6recentEv", scope: !405, file: !406, line: 446, type: !547, scopeLine: 446, flags: DIFlagPublic | DIFlagPrototyped | DIFlagStaticMember, spFlags: DISPFlagOptimized)
!565 = !DISubprogram(name: "assign_recent", linkageName: "_ZN9Timestamp13assign_recentEv", scope: !405, file: !406, line: 452, type: !416, scopeLine: 452, flags: DIFlagPublic | DIFlagPrototyped, spFlags: DISPFlagOptimized)
!566 = !DISubprogram(name: "now_steady", linkageName: "_ZN9Timestamp10now_steadyEv", scope: !405, file: !406, line: 466, type: !547, scopeLine: 466, flags: DIFlagPublic | DIFlagPrototyped | DIFlagStaticMember, spFlags: DISPFlagOptimized)
!567 = !DISubprogram(name: "assign_now_steady", linkageName: "_ZN9Timestamp17assign_now_steadyEv", scope: !405, file: !406, line: 472, type: !416, scopeLine: 472, flags: DIFlagPublic | DIFlagPrototyped, spFlags: DISPFlagOptimized)
!568 = !DISubprogram(name: "recent_steady", linkageName: "_ZN9Timestamp13recent_steadyEv", scope: !405, file: !406, line: 481, type: !547, scopeLine: 481, flags: DIFlagPublic | DIFlagPrototyped | DIFlagStaticMember, spFlags: DISPFlagOptimized)
!569 = !DISubprogram(name: "assign_recent_steady", linkageName: "_ZN9Timestamp20assign_recent_steadyEv", scope: !405, file: !406, line: 487, type: !416, scopeLine: 487, flags: DIFlagPublic | DIFlagPrototyped, spFlags: DISPFlagOptimized)
!570 = !DISubprogram(name: "unparse", linkageName: "_ZNK9Timestamp7unparseEv", scope: !405, file: !406, line: 496, type: !571, scopeLine: 496, flags: DIFlagPublic | DIFlagPrototyped, spFlags: DISPFlagOptimized)
!571 = !DISubroutineType(types: !572)
!572 = !{!573, !480}
!573 = distinct !DICompositeType(tag: DW_TAG_class_type, name: "String", file: !574, line: 19, size: 192, flags: DIFlagTypePassByReference | DIFlagNonTrivial, elements: !575, identifier: "_ZTS6String")
!574 = !DIFile(filename: "../dummy_inc/click/string.hh", directory: "/home/john/projects/click/ir-dir")
!575 = !{!576, !581, !595, !596, !600, !604, !606, !607, !611, !616, !620, !623, !626, !629, !632, !635, !638, !641, !644, !647, !650, !653, !656, !660, !664, !667, !668, !671, !674, !675, !678, !681, !684, !688, !692, !696, !699, !700, !705, !708, !709, !713, !714, !717, !718, !721, !722, !725, !728, !731, !734, !737, !740, !743, !746, !749, !752, !755, !758, !759, !760, !761, !764, !767, !768, !769, !770, !771, !772, !773, !777, !780, !783, !786, !787, !788, !789, !790, !791, !794, !798, !799, !800, !801, !804, !805, !806, !807, !808, !809, !812, !813, !814, !815, !818, !821, !822, !825, !828, !831, !834, !837, !840, !843, !844, !845, !846, !849, !852, !855, !856, !857}
!576 = !DIDerivedType(tag: DW_TAG_member, name: "bool_data", scope: !573, file: !574, line: 184, baseType: !577, flags: DIFlagPublic | DIFlagStaticMember)
!577 = !DICompositeType(tag: DW_TAG_array_type, baseType: !578, size: 88, elements: !579)
!578 = !DIDerivedType(tag: DW_TAG_const_type, baseType: !93)
!579 = !{!580}
!580 = !DISubrange(count: 11)
!581 = !DIDerivedType(tag: DW_TAG_member, name: "_r", scope: !573, file: !574, line: 211, baseType: !582, size: 192)
!582 = distinct !DICompositeType(tag: DW_TAG_structure_type, name: "rep_t", scope: !573, file: !574, line: 204, size: 192, flags: DIFlagTypePassByValue, elements: !583, identifier: "_ZTSN6String5rep_tE")
!583 = !{!584, !586, !587}
!584 = !DIDerivedType(tag: DW_TAG_member, name: "data", scope: !582, file: !574, line: 205, baseType: !585, size: 64)
!585 = !DIDerivedType(tag: DW_TAG_pointer_type, baseType: !578, size: 64)
!586 = !DIDerivedType(tag: DW_TAG_member, name: "length", scope: !582, file: !574, line: 206, baseType: !34, size: 32, offset: 64)
!587 = !DIDerivedType(tag: DW_TAG_member, name: "memo", scope: !582, file: !574, line: 207, baseType: !588, size: 64, offset: 128)
!588 = !DIDerivedType(tag: DW_TAG_pointer_type, baseType: !589, size: 64)
!589 = distinct !DICompositeType(tag: DW_TAG_structure_type, name: "memo_t", scope: !573, file: !574, line: 189, size: 160, flags: DIFlagTypePassByValue, elements: !590, identifier: "_ZTSN6String6memo_tE")
!590 = !{!591, !592, !593, !594}
!591 = !DIDerivedType(tag: DW_TAG_member, name: "refcount", scope: !589, file: !574, line: 190, baseType: !64, size: 32)
!592 = !DIDerivedType(tag: DW_TAG_member, name: "capacity", scope: !589, file: !574, line: 191, baseType: !12, size: 32, offset: 32)
!593 = !DIDerivedType(tag: DW_TAG_member, name: "dirty", scope: !589, file: !574, line: 192, baseType: !64, size: 32, offset: 64)
!594 = !DIDerivedType(tag: DW_TAG_member, name: "real_data", scope: !589, file: !574, line: 197, baseType: !123, size: 64, offset: 96)
!595 = !DIDerivedType(tag: DW_TAG_member, name: "null_data", scope: !573, file: !574, line: 292, baseType: !578, flags: DIFlagStaticMember)
!596 = !DIDerivedType(tag: DW_TAG_member, name: "oom_data", scope: !573, file: !574, line: 293, baseType: !597, flags: DIFlagStaticMember)
!597 = !DICompositeType(tag: DW_TAG_array_type, baseType: !578, size: 120, elements: !598)
!598 = !{!599}
!599 = !DISubrange(count: 15)
!600 = !DIDerivedType(tag: DW_TAG_member, name: "int_data", scope: !573, file: !574, line: 294, baseType: !601, flags: DIFlagStaticMember)
!601 = !DICompositeType(tag: DW_TAG_array_type, baseType: !578, size: 160, elements: !602)
!602 = !{!603}
!603 = !DISubrange(count: 20)
!604 = !DIDerivedType(tag: DW_TAG_member, name: "null_string_rep", scope: !573, file: !574, line: 295, baseType: !605, flags: DIFlagStaticMember)
!605 = !DIDerivedType(tag: DW_TAG_const_type, baseType: !582)
!606 = !DIDerivedType(tag: DW_TAG_member, name: "oom_string_rep", scope: !573, file: !574, line: 296, baseType: !605, flags: DIFlagStaticMember)
!607 = !DISubprogram(name: "String", scope: !573, file: !574, line: 39, type: !608, scopeLine: 39, flags: DIFlagPublic | DIFlagPrototyped, spFlags: DISPFlagOptimized)
!608 = !DISubroutineType(types: !609)
!609 = !{null, !610}
!610 = !DIDerivedType(tag: DW_TAG_pointer_type, baseType: !573, size: 64, flags: DIFlagArtificial | DIFlagObjectPointer)
!611 = !DISubprogram(name: "String", scope: !573, file: !574, line: 40, type: !612, scopeLine: 40, flags: DIFlagPublic | DIFlagPrototyped, spFlags: DISPFlagOptimized)
!612 = !DISubroutineType(types: !613)
!613 = !{null, !610, !614}
!614 = !DIDerivedType(tag: DW_TAG_reference_type, baseType: !615, size: 64)
!615 = !DIDerivedType(tag: DW_TAG_const_type, baseType: !573)
!616 = !DISubprogram(name: "String", scope: !573, file: !574, line: 42, type: !617, scopeLine: 42, flags: DIFlagPublic | DIFlagPrototyped, spFlags: DISPFlagOptimized)
!617 = !DISubroutineType(types: !618)
!618 = !{null, !610, !619}
!619 = !DIDerivedType(tag: DW_TAG_rvalue_reference_type, baseType: !573, size: 64)
!620 = !DISubprogram(name: "String", scope: !573, file: !574, line: 44, type: !621, scopeLine: 44, flags: DIFlagPublic | DIFlagPrototyped, spFlags: DISPFlagOptimized)
!621 = !DISubroutineType(types: !622)
!622 = !{null, !610, !585}
!623 = !DISubprogram(name: "String", scope: !573, file: !574, line: 45, type: !624, scopeLine: 45, flags: DIFlagPublic | DIFlagPrototyped, spFlags: DISPFlagOptimized)
!624 = !DISubroutineType(types: !625)
!625 = !{null, !610, !585, !34}
!626 = !DISubprogram(name: "String", scope: !573, file: !574, line: 46, type: !627, scopeLine: 46, flags: DIFlagPublic | DIFlagPrototyped, spFlags: DISPFlagOptimized)
!627 = !DISubroutineType(types: !628)
!628 = !{null, !610, !274, !34}
!629 = !DISubprogram(name: "String", scope: !573, file: !574, line: 47, type: !630, scopeLine: 47, flags: DIFlagPublic | DIFlagPrototyped, spFlags: DISPFlagOptimized)
!630 = !DISubroutineType(types: !631)
!631 = !{null, !610, !585, !585}
!632 = !DISubprogram(name: "String", scope: !573, file: !574, line: 48, type: !633, scopeLine: 48, flags: DIFlagPublic | DIFlagPrototyped, spFlags: DISPFlagOptimized)
!633 = !DISubroutineType(types: !634)
!634 = !{null, !610, !274, !274}
!635 = !DISubprogram(name: "String", scope: !573, file: !574, line: 49, type: !636, scopeLine: 49, flags: DIFlagPublic | DIFlagExplicit | DIFlagPrototyped, spFlags: DISPFlagOptimized)
!636 = !DISubroutineType(types: !637)
!637 = !{null, !610, !53}
!638 = !DISubprogram(name: "String", scope: !573, file: !574, line: 50, type: !639, scopeLine: 50, flags: DIFlagPublic | DIFlagExplicit | DIFlagPrototyped, spFlags: DISPFlagOptimized)
!639 = !DISubroutineType(types: !640)
!640 = !{null, !610, !93}
!641 = !DISubprogram(name: "String", scope: !573, file: !574, line: 51, type: !642, scopeLine: 51, flags: DIFlagPublic | DIFlagExplicit | DIFlagPrototyped, spFlags: DISPFlagOptimized)
!642 = !DISubroutineType(types: !643)
!643 = !{null, !610, !81}
!644 = !DISubprogram(name: "String", scope: !573, file: !574, line: 52, type: !645, scopeLine: 52, flags: DIFlagPublic | DIFlagExplicit | DIFlagPrototyped, spFlags: DISPFlagOptimized)
!645 = !DISubroutineType(types: !646)
!646 = !{null, !610, !34}
!647 = !DISubprogram(name: "String", scope: !573, file: !574, line: 53, type: !648, scopeLine: 53, flags: DIFlagPublic | DIFlagExplicit | DIFlagPrototyped, spFlags: DISPFlagOptimized)
!648 = !DISubroutineType(types: !649)
!649 = !{null, !610, !16}
!650 = !DISubprogram(name: "String", scope: !573, file: !574, line: 54, type: !651, scopeLine: 54, flags: DIFlagPublic | DIFlagExplicit | DIFlagPrototyped, spFlags: DISPFlagOptimized)
!651 = !DISubroutineType(types: !652)
!652 = !{null, !610, !414}
!653 = !DISubprogram(name: "String", scope: !573, file: !574, line: 55, type: !654, scopeLine: 55, flags: DIFlagPublic | DIFlagExplicit | DIFlagPrototyped, spFlags: DISPFlagOptimized)
!654 = !DISubroutineType(types: !655)
!655 = !{null, !610, !115}
!656 = !DISubprogram(name: "String", scope: !573, file: !574, line: 57, type: !657, scopeLine: 57, flags: DIFlagPublic | DIFlagExplicit | DIFlagPrototyped, spFlags: DISPFlagOptimized)
!657 = !DISubroutineType(types: !658)
!658 = !{null, !610, !659}
!659 = !DIBasicType(name: "long long int", size: 64, encoding: DW_ATE_signed)
!660 = !DISubprogram(name: "String", scope: !573, file: !574, line: 58, type: !661, scopeLine: 58, flags: DIFlagPublic | DIFlagExplicit | DIFlagPrototyped, spFlags: DISPFlagOptimized)
!661 = !DISubroutineType(types: !662)
!662 = !{null, !610, !663}
!663 = !DIBasicType(name: "long long unsigned int", size: 64, encoding: DW_ATE_unsigned)
!664 = !DISubprogram(name: "String", scope: !573, file: !574, line: 65, type: !665, scopeLine: 65, flags: DIFlagPublic | DIFlagExplicit | DIFlagPrototyped, spFlags: DISPFlagOptimized)
!665 = !DISubroutineType(types: !666)
!666 = !{null, !610, !434}
!667 = !DISubprogram(name: "~String", scope: !573, file: !574, line: 67, type: !608, scopeLine: 67, flags: DIFlagPublic | DIFlagPrototyped, spFlags: DISPFlagOptimized)
!668 = !DISubprogram(name: "make_empty", linkageName: "_ZN6String10make_emptyEv", scope: !573, file: !574, line: 69, type: !669, scopeLine: 69, flags: DIFlagPublic | DIFlagPrototyped | DIFlagStaticMember, spFlags: DISPFlagOptimized)
!669 = !DISubroutineType(types: !670)
!670 = !{!614}
!671 = !DISubprogram(name: "make_uninitialized", linkageName: "_ZN6String18make_uninitializedEi", scope: !573, file: !574, line: 70, type: !672, scopeLine: 70, flags: DIFlagPublic | DIFlagPrototyped | DIFlagStaticMember, spFlags: DISPFlagOptimized)
!672 = !DISubroutineType(types: !673)
!673 = !{!573, !34}
!674 = !DISubprogram(name: "make_garbage", linkageName: "_ZN6String12make_garbageEi", scope: !573, file: !574, line: 71, type: !672, scopeLine: 71, flags: DIFlagPublic | DIFlagPrototyped | DIFlagStaticMember, spFlags: DISPFlagOptimized)
!675 = !DISubprogram(name: "make_stable", linkageName: "_ZN6String11make_stableEPKc", scope: !573, file: !574, line: 72, type: !676, scopeLine: 72, flags: DIFlagPublic | DIFlagPrototyped | DIFlagStaticMember, spFlags: DISPFlagOptimized)
!676 = !DISubroutineType(types: !677)
!677 = !{!573, !585}
!678 = !DISubprogram(name: "make_stable", linkageName: "_ZN6String11make_stableEPKci", scope: !573, file: !574, line: 73, type: !679, scopeLine: 73, flags: DIFlagPublic | DIFlagPrototyped | DIFlagStaticMember, spFlags: DISPFlagOptimized)
!679 = !DISubroutineType(types: !680)
!680 = !{!573, !585, !34}
!681 = !DISubprogram(name: "make_stable", linkageName: "_ZN6String11make_stableEPKcS1_", scope: !573, file: !574, line: 74, type: !682, scopeLine: 74, flags: DIFlagPublic | DIFlagPrototyped | DIFlagStaticMember, spFlags: DISPFlagOptimized)
!682 = !DISubroutineType(types: !683)
!683 = !{!573, !585, !585}
!684 = !DISubprogram(name: "make_numeric", linkageName: "_ZN6String12make_numericElib", scope: !573, file: !574, line: 75, type: !685, scopeLine: 75, flags: DIFlagPublic | DIFlagPrototyped | DIFlagStaticMember, spFlags: DISPFlagOptimized)
!685 = !DISubroutineType(types: !686)
!686 = !{!573, !687, !34, !53}
!687 = !DIDerivedType(tag: DW_TAG_typedef, name: "intmax_t", scope: !573, file: !574, line: 27, baseType: !412)
!688 = !DISubprogram(name: "make_numeric", linkageName: "_ZN6String12make_numericEmib", scope: !573, file: !574, line: 76, type: !689, scopeLine: 76, flags: DIFlagPublic | DIFlagPrototyped | DIFlagStaticMember, spFlags: DISPFlagOptimized)
!689 = !DISubroutineType(types: !690)
!690 = !{!573, !691, !34, !53}
!691 = !DIDerivedType(tag: DW_TAG_typedef, name: "uintmax_t", scope: !573, file: !574, line: 28, baseType: !113)
!692 = !DISubprogram(name: "data", linkageName: "_ZNK6String4dataEv", scope: !573, file: !574, line: 78, type: !693, scopeLine: 78, flags: DIFlagPublic | DIFlagPrototyped, spFlags: DISPFlagOptimized)
!693 = !DISubroutineType(types: !694)
!694 = !{!585, !695}
!695 = !DIDerivedType(tag: DW_TAG_pointer_type, baseType: !615, size: 64, flags: DIFlagArtificial | DIFlagObjectPointer)
!696 = !DISubprogram(name: "length", linkageName: "_ZNK6String6lengthEv", scope: !573, file: !574, line: 79, type: !697, scopeLine: 79, flags: DIFlagPublic | DIFlagPrototyped, spFlags: DISPFlagOptimized)
!697 = !DISubroutineType(types: !698)
!698 = !{!34, !695}
!699 = !DISubprogram(name: "c_str", linkageName: "_ZNK6String5c_strEv", scope: !573, file: !574, line: 81, type: !693, scopeLine: 81, flags: DIFlagPublic | DIFlagPrototyped, spFlags: DISPFlagOptimized)
!700 = !DISubprogram(name: "operator int (String::*)() const", linkageName: "_ZNK6StringcvMS_KFivEEv", scope: !573, file: !574, line: 83, type: !701, scopeLine: 83, flags: DIFlagPublic | DIFlagPrototyped, spFlags: DISPFlagOptimized)
!701 = !DISubroutineType(types: !702)
!702 = !{!703, !695}
!703 = !DIDerivedType(tag: DW_TAG_typedef, name: "unspecified_bool_type", scope: !573, file: !574, line: 24, baseType: !704)
!704 = !DIDerivedType(tag: DW_TAG_ptr_to_member_type, baseType: !697, size: 128, extraData: !573)
!705 = !DISubprogram(name: "empty", linkageName: "_ZNK6String5emptyEv", scope: !573, file: !574, line: 84, type: !706, scopeLine: 84, flags: DIFlagPublic | DIFlagPrototyped, spFlags: DISPFlagOptimized)
!706 = !DISubroutineType(types: !707)
!707 = !{!53, !695}
!708 = !DISubprogram(name: "operator!", linkageName: "_ZNK6StringntEv", scope: !573, file: !574, line: 85, type: !706, scopeLine: 85, flags: DIFlagPublic | DIFlagPrototyped, spFlags: DISPFlagOptimized)
!709 = !DISubprogram(name: "begin", linkageName: "_ZNK6String5beginEv", scope: !573, file: !574, line: 87, type: !710, scopeLine: 87, flags: DIFlagPublic | DIFlagPrototyped, spFlags: DISPFlagOptimized)
!710 = !DISubroutineType(types: !711)
!711 = !{!712, !695}
!712 = !DIDerivedType(tag: DW_TAG_typedef, name: "const_iterator", scope: !573, file: !574, line: 21, baseType: !585)
!713 = !DISubprogram(name: "end", linkageName: "_ZNK6String3endEv", scope: !573, file: !574, line: 88, type: !710, scopeLine: 88, flags: DIFlagPublic | DIFlagPrototyped, spFlags: DISPFlagOptimized)
!714 = !DISubprogram(name: "operator[]", linkageName: "_ZNK6StringixEi", scope: !573, file: !574, line: 90, type: !715, scopeLine: 90, flags: DIFlagPublic | DIFlagPrototyped, spFlags: DISPFlagOptimized)
!715 = !DISubroutineType(types: !716)
!716 = !{!93, !695, !34}
!717 = !DISubprogram(name: "at", linkageName: "_ZNK6String2atEi", scope: !573, file: !574, line: 91, type: !715, scopeLine: 91, flags: DIFlagPublic | DIFlagPrototyped, spFlags: DISPFlagOptimized)
!718 = !DISubprogram(name: "front", linkageName: "_ZNK6String5frontEv", scope: !573, file: !574, line: 92, type: !719, scopeLine: 92, flags: DIFlagPublic | DIFlagPrototyped, spFlags: DISPFlagOptimized)
!719 = !DISubroutineType(types: !720)
!720 = !{!93, !695}
!721 = !DISubprogram(name: "back", linkageName: "_ZNK6String4backEv", scope: !573, file: !574, line: 93, type: !719, scopeLine: 93, flags: DIFlagPublic | DIFlagPrototyped, spFlags: DISPFlagOptimized)
!722 = !DISubprogram(name: "hashcode", linkageName: "_ZN6String8hashcodeEPKcS1_", scope: !573, file: !574, line: 95, type: !723, scopeLine: 95, flags: DIFlagPublic | DIFlagPrototyped | DIFlagStaticMember, spFlags: DISPFlagOptimized)
!723 = !DISubroutineType(types: !724)
!724 = !{!12, !585, !585}
!725 = !DISubprogram(name: "hashcode", linkageName: "_ZN6String8hashcodeEPKhS1_", scope: !573, file: !574, line: 96, type: !726, scopeLine: 96, flags: DIFlagPublic | DIFlagPrototyped | DIFlagStaticMember, spFlags: DISPFlagOptimized)
!726 = !DISubroutineType(types: !727)
!727 = !{!12, !274, !274}
!728 = !DISubprogram(name: "hashcode", linkageName: "_ZNK6String8hashcodeEv", scope: !573, file: !574, line: 98, type: !729, scopeLine: 98, flags: DIFlagPublic | DIFlagPrototyped, spFlags: DISPFlagOptimized)
!729 = !DISubroutineType(types: !730)
!730 = !{!12, !695}
!731 = !DISubprogram(name: "substring", linkageName: "_ZNK6String9substringEPKcS1_", scope: !573, file: !574, line: 100, type: !732, scopeLine: 100, flags: DIFlagPublic | DIFlagPrototyped, spFlags: DISPFlagOptimized)
!732 = !DISubroutineType(types: !733)
!733 = !{!573, !695, !585, !585}
!734 = !DISubprogram(name: "substring", linkageName: "_ZNK6String9substringEii", scope: !573, file: !574, line: 101, type: !735, scopeLine: 101, flags: DIFlagPublic | DIFlagPrototyped, spFlags: DISPFlagOptimized)
!735 = !DISubroutineType(types: !736)
!736 = !{!573, !695, !34, !34}
!737 = !DISubprogram(name: "substring", linkageName: "_ZNK6String9substringEi", scope: !573, file: !574, line: 102, type: !738, scopeLine: 102, flags: DIFlagPublic | DIFlagPrototyped, spFlags: DISPFlagOptimized)
!738 = !DISubroutineType(types: !739)
!739 = !{!573, !695, !34}
!740 = !DISubprogram(name: "trim_space", linkageName: "_ZNK6String10trim_spaceEv", scope: !573, file: !574, line: 103, type: !741, scopeLine: 103, flags: DIFlagPublic | DIFlagPrototyped, spFlags: DISPFlagOptimized)
!741 = !DISubroutineType(types: !742)
!742 = !{!573, !695}
!743 = !DISubprogram(name: "equals", linkageName: "_ZNK6String6equalsERKS_", scope: !573, file: !574, line: 105, type: !744, scopeLine: 105, flags: DIFlagPublic | DIFlagPrototyped, spFlags: DISPFlagOptimized)
!744 = !DISubroutineType(types: !745)
!745 = !{!53, !695, !614}
!746 = !DISubprogram(name: "equals", linkageName: "_ZNK6String6equalsEPKci", scope: !573, file: !574, line: 106, type: !747, scopeLine: 106, flags: DIFlagPublic | DIFlagPrototyped, spFlags: DISPFlagOptimized)
!747 = !DISubroutineType(types: !748)
!748 = !{!53, !695, !585, !34}
!749 = !DISubprogram(name: "compare", linkageName: "_ZN6String7compareERKS_S1_", scope: !573, file: !574, line: 107, type: !750, scopeLine: 107, flags: DIFlagPublic | DIFlagPrototyped | DIFlagStaticMember, spFlags: DISPFlagOptimized)
!750 = !DISubroutineType(types: !751)
!751 = !{!34, !614, !614}
!752 = !DISubprogram(name: "compare", linkageName: "_ZNK6String7compareERKS_", scope: !573, file: !574, line: 108, type: !753, scopeLine: 108, flags: DIFlagPublic | DIFlagPrototyped, spFlags: DISPFlagOptimized)
!753 = !DISubroutineType(types: !754)
!754 = !{!34, !695, !614}
!755 = !DISubprogram(name: "compare", linkageName: "_ZNK6String7compareEPKci", scope: !573, file: !574, line: 109, type: !756, scopeLine: 109, flags: DIFlagPublic | DIFlagPrototyped, spFlags: DISPFlagOptimized)
!756 = !DISubroutineType(types: !757)
!757 = !{!34, !695, !585, !34}
!758 = !DISubprogram(name: "starts_with", linkageName: "_ZNK6String11starts_withERKS_", scope: !573, file: !574, line: 110, type: !744, scopeLine: 110, flags: DIFlagPublic | DIFlagPrototyped, spFlags: DISPFlagOptimized)
!759 = !DISubprogram(name: "starts_with", linkageName: "_ZNK6String11starts_withEPKci", scope: !573, file: !574, line: 111, type: !747, scopeLine: 111, flags: DIFlagPublic | DIFlagPrototyped, spFlags: DISPFlagOptimized)
!760 = !DISubprogram(name: "glob_match", linkageName: "_ZNK6String10glob_matchERKS_", scope: !573, file: !574, line: 112, type: !744, scopeLine: 112, flags: DIFlagPublic | DIFlagPrototyped, spFlags: DISPFlagOptimized)
!761 = !DISubprogram(name: "find_left", linkageName: "_ZNK6String9find_leftEci", scope: !573, file: !574, line: 125, type: !762, scopeLine: 125, flags: DIFlagPublic | DIFlagPrototyped, spFlags: DISPFlagOptimized)
!762 = !DISubroutineType(types: !763)
!763 = !{!34, !695, !93, !34}
!764 = !DISubprogram(name: "find_left", linkageName: "_ZNK6String9find_leftERKS_i", scope: !573, file: !574, line: 126, type: !765, scopeLine: 126, flags: DIFlagPublic | DIFlagPrototyped, spFlags: DISPFlagOptimized)
!765 = !DISubroutineType(types: !766)
!766 = !{!34, !695, !614, !34}
!767 = !DISubprogram(name: "find_right", linkageName: "_ZNK6String10find_rightEci", scope: !573, file: !574, line: 127, type: !762, scopeLine: 127, flags: DIFlagPublic | DIFlagPrototyped, spFlags: DISPFlagOptimized)
!768 = !DISubprogram(name: "lower", linkageName: "_ZNK6String5lowerEv", scope: !573, file: !574, line: 129, type: !741, scopeLine: 129, flags: DIFlagPublic | DIFlagPrototyped, spFlags: DISPFlagOptimized)
!769 = !DISubprogram(name: "upper", linkageName: "_ZNK6String5upperEv", scope: !573, file: !574, line: 130, type: !741, scopeLine: 130, flags: DIFlagPublic | DIFlagPrototyped, spFlags: DISPFlagOptimized)
!770 = !DISubprogram(name: "printable", linkageName: "_ZNK6String9printableEv", scope: !573, file: !574, line: 131, type: !741, scopeLine: 131, flags: DIFlagPublic | DIFlagPrototyped, spFlags: DISPFlagOptimized)
!771 = !DISubprogram(name: "quoted_hex", linkageName: "_ZNK6String10quoted_hexEv", scope: !573, file: !574, line: 132, type: !741, scopeLine: 132, flags: DIFlagPublic | DIFlagPrototyped, spFlags: DISPFlagOptimized)
!772 = !DISubprogram(name: "encode_json", linkageName: "_ZNK6String11encode_jsonEv", scope: !573, file: !574, line: 133, type: !741, scopeLine: 133, flags: DIFlagPublic | DIFlagPrototyped, spFlags: DISPFlagOptimized)
!773 = !DISubprogram(name: "operator=", linkageName: "_ZN6StringaSERKS_", scope: !573, file: !574, line: 135, type: !774, scopeLine: 135, flags: DIFlagPublic | DIFlagPrototyped, spFlags: DISPFlagOptimized)
!774 = !DISubroutineType(types: !775)
!775 = !{!776, !610, !614}
!776 = !DIDerivedType(tag: DW_TAG_reference_type, baseType: !573, size: 64)
!777 = !DISubprogram(name: "operator=", linkageName: "_ZN6StringaSEOS_", scope: !573, file: !574, line: 137, type: !778, scopeLine: 137, flags: DIFlagPublic | DIFlagPrototyped, spFlags: DISPFlagOptimized)
!778 = !DISubroutineType(types: !779)
!779 = !{!776, !610, !619}
!780 = !DISubprogram(name: "operator=", linkageName: "_ZN6StringaSEPKc", scope: !573, file: !574, line: 139, type: !781, scopeLine: 139, flags: DIFlagPublic | DIFlagPrototyped, spFlags: DISPFlagOptimized)
!781 = !DISubroutineType(types: !782)
!782 = !{!776, !610, !585}
!783 = !DISubprogram(name: "swap", linkageName: "_ZN6String4swapERS_", scope: !573, file: !574, line: 141, type: !784, scopeLine: 141, flags: DIFlagPublic | DIFlagPrototyped, spFlags: DISPFlagOptimized)
!784 = !DISubroutineType(types: !785)
!785 = !{null, !610, !776}
!786 = !DISubprogram(name: "append", linkageName: "_ZN6String6appendERKS_", scope: !573, file: !574, line: 143, type: !612, scopeLine: 143, flags: DIFlagPublic | DIFlagPrototyped, spFlags: DISPFlagOptimized)
!787 = !DISubprogram(name: "append", linkageName: "_ZN6String6appendEPKc", scope: !573, file: !574, line: 144, type: !621, scopeLine: 144, flags: DIFlagPublic | DIFlagPrototyped, spFlags: DISPFlagOptimized)
!788 = !DISubprogram(name: "append", linkageName: "_ZN6String6appendEPKci", scope: !573, file: !574, line: 145, type: !624, scopeLine: 145, flags: DIFlagPublic | DIFlagPrototyped, spFlags: DISPFlagOptimized)
!789 = !DISubprogram(name: "append", linkageName: "_ZN6String6appendEPKcS1_", scope: !573, file: !574, line: 146, type: !630, scopeLine: 146, flags: DIFlagPublic | DIFlagPrototyped, spFlags: DISPFlagOptimized)
!790 = !DISubprogram(name: "append", linkageName: "_ZN6String6appendEc", scope: !573, file: !574, line: 147, type: !639, scopeLine: 147, flags: DIFlagPublic | DIFlagPrototyped, spFlags: DISPFlagOptimized)
!791 = !DISubprogram(name: "append_fill", linkageName: "_ZN6String11append_fillEii", scope: !573, file: !574, line: 148, type: !792, scopeLine: 148, flags: DIFlagPublic | DIFlagPrototyped, spFlags: DISPFlagOptimized)
!792 = !DISubroutineType(types: !793)
!793 = !{null, !610, !34, !34}
!794 = !DISubprogram(name: "append_uninitialized", linkageName: "_ZN6String20append_uninitializedEi", scope: !573, file: !574, line: 149, type: !795, scopeLine: 149, flags: DIFlagPublic | DIFlagPrototyped, spFlags: DISPFlagOptimized)
!795 = !DISubroutineType(types: !796)
!796 = !{!797, !610, !34}
!797 = !DIDerivedType(tag: DW_TAG_pointer_type, baseType: !93, size: 64)
!798 = !DISubprogram(name: "append_garbage", linkageName: "_ZN6String14append_garbageEi", scope: !573, file: !574, line: 150, type: !795, scopeLine: 150, flags: DIFlagPublic | DIFlagPrototyped, spFlags: DISPFlagOptimized)
!799 = !DISubprogram(name: "operator+=", linkageName: "_ZN6StringpLERKS_", scope: !573, file: !574, line: 152, type: !774, scopeLine: 152, flags: DIFlagPublic | DIFlagPrototyped, spFlags: DISPFlagOptimized)
!800 = !DISubprogram(name: "operator+=", linkageName: "_ZN6StringpLEPKc", scope: !573, file: !574, line: 153, type: !781, scopeLine: 153, flags: DIFlagPublic | DIFlagPrototyped, spFlags: DISPFlagOptimized)
!801 = !DISubprogram(name: "operator+=", linkageName: "_ZN6StringpLEc", scope: !573, file: !574, line: 154, type: !802, scopeLine: 154, flags: DIFlagPublic | DIFlagPrototyped, spFlags: DISPFlagOptimized)
!802 = !DISubroutineType(types: !803)
!803 = !{!776, !610, !93}
!804 = !DISubprogram(name: "is_shared", linkageName: "_ZNK6String9is_sharedEv", scope: !573, file: !574, line: 160, type: !706, scopeLine: 160, flags: DIFlagPublic | DIFlagPrototyped, spFlags: DISPFlagOptimized)
!805 = !DISubprogram(name: "is_stable", linkageName: "_ZNK6String9is_stableEv", scope: !573, file: !574, line: 161, type: !706, scopeLine: 161, flags: DIFlagPublic | DIFlagPrototyped, spFlags: DISPFlagOptimized)
!806 = !DISubprogram(name: "unique", linkageName: "_ZNK6String6uniqueEv", scope: !573, file: !574, line: 163, type: !741, scopeLine: 163, flags: DIFlagPublic | DIFlagPrototyped, spFlags: DISPFlagOptimized)
!807 = !DISubprogram(name: "unshared", linkageName: "_ZNK6String8unsharedEv", scope: !573, file: !574, line: 164, type: !741, scopeLine: 164, flags: DIFlagPublic | DIFlagPrototyped, spFlags: DISPFlagOptimized)
!808 = !DISubprogram(name: "compact", linkageName: "_ZNK6String7compactEv", scope: !573, file: !574, line: 165, type: !741, scopeLine: 165, flags: DIFlagPublic | DIFlagPrototyped, spFlags: DISPFlagOptimized)
!809 = !DISubprogram(name: "mutable_data", linkageName: "_ZN6String12mutable_dataEv", scope: !573, file: !574, line: 167, type: !810, scopeLine: 167, flags: DIFlagPublic | DIFlagPrototyped, spFlags: DISPFlagOptimized)
!810 = !DISubroutineType(types: !811)
!811 = !{!797, !610}
!812 = !DISubprogram(name: "mutable_c_str", linkageName: "_ZN6String13mutable_c_strEv", scope: !573, file: !574, line: 168, type: !810, scopeLine: 168, flags: DIFlagPublic | DIFlagPrototyped, spFlags: DISPFlagOptimized)
!813 = !DISubprogram(name: "make_out_of_memory", linkageName: "_ZN6String18make_out_of_memoryEv", scope: !573, file: !574, line: 170, type: !669, scopeLine: 170, flags: DIFlagPublic | DIFlagPrototyped | DIFlagStaticMember, spFlags: DISPFlagOptimized)
!814 = !DISubprogram(name: "out_of_memory", linkageName: "_ZNK6String13out_of_memoryEv", scope: !573, file: !574, line: 171, type: !706, scopeLine: 171, flags: DIFlagPublic | DIFlagPrototyped, spFlags: DISPFlagOptimized)
!815 = !DISubprogram(name: "out_of_memory_data", linkageName: "_ZN6String18out_of_memory_dataEv", scope: !573, file: !574, line: 172, type: !816, scopeLine: 172, flags: DIFlagPublic | DIFlagPrototyped | DIFlagStaticMember, spFlags: DISPFlagOptimized)
!816 = !DISubroutineType(types: !817)
!817 = !{!585}
!818 = !DISubprogram(name: "out_of_memory_length", linkageName: "_ZN6String20out_of_memory_lengthEv", scope: !573, file: !574, line: 173, type: !819, scopeLine: 173, flags: DIFlagPublic | DIFlagPrototyped | DIFlagStaticMember, spFlags: DISPFlagOptimized)
!819 = !DISubroutineType(types: !820)
!820 = !{!34}
!821 = !DISubprogram(name: "empty_data", linkageName: "_ZN6String10empty_dataEv", scope: !573, file: !574, line: 174, type: !816, scopeLine: 174, flags: DIFlagPublic | DIFlagPrototyped | DIFlagStaticMember, spFlags: DISPFlagOptimized)
!822 = !DISubprogram(name: "skip_utf8_char", linkageName: "_ZN6String14skip_utf8_charEPKcS1_", scope: !573, file: !574, line: 180, type: !823, scopeLine: 180, flags: DIFlagPublic | DIFlagPrototyped | DIFlagStaticMember, spFlags: DISPFlagOptimized)
!823 = !DISubroutineType(types: !824)
!824 = !{!585, !585, !585}
!825 = !DISubprogram(name: "skip_utf8_char", linkageName: "_ZN6String14skip_utf8_charEPKhS1_", scope: !573, file: !574, line: 181, type: !826, scopeLine: 181, flags: DIFlagPublic | DIFlagPrototyped | DIFlagStaticMember, spFlags: DISPFlagOptimized)
!826 = !DISubroutineType(types: !827)
!827 = !{!274, !274, !274}
!828 = !DISubprogram(name: "assign_memo", linkageName: "_ZNK6String11assign_memoEPKciPNS_6memo_tE", scope: !573, file: !574, line: 256, type: !829, scopeLine: 256, flags: DIFlagPrototyped, spFlags: DISPFlagOptimized)
!829 = !DISubroutineType(types: !830)
!830 = !{null, !695, !585, !34, !588}
!831 = !DISubprogram(name: "String", scope: !573, file: !574, line: 263, type: !832, scopeLine: 263, flags: DIFlagPrototyped, spFlags: DISPFlagOptimized)
!832 = !DISubroutineType(types: !833)
!833 = !{null, !610, !585, !34, !588}
!834 = !DISubprogram(name: "assign", linkageName: "_ZNK6String6assignERKS_", scope: !573, file: !574, line: 267, type: !835, scopeLine: 267, flags: DIFlagPrototyped, spFlags: DISPFlagOptimized)
!835 = !DISubroutineType(types: !836)
!836 = !{null, !695, !614}
!837 = !DISubprogram(name: "deref", linkageName: "_ZNK6String5derefEv", scope: !573, file: !574, line: 271, type: !838, scopeLine: 271, flags: DIFlagPrototyped, spFlags: DISPFlagOptimized)
!838 = !DISubroutineType(types: !839)
!839 = !{null, !695}
!840 = !DISubprogram(name: "assign", linkageName: "_ZN6String6assignEPKcib", scope: !573, file: !574, line: 280, type: !841, scopeLine: 280, flags: DIFlagPrototyped, spFlags: DISPFlagOptimized)
!841 = !DISubroutineType(types: !842)
!842 = !{null, !610, !585, !34, !53}
!843 = !DISubprogram(name: "assign_out_of_memory", linkageName: "_ZN6String20assign_out_of_memoryEv", scope: !573, file: !574, line: 281, type: !608, scopeLine: 281, flags: DIFlagPrototyped, spFlags: DISPFlagOptimized)
!844 = !DISubprogram(name: "append", linkageName: "_ZN6String6appendEPKciPNS_6memo_tE", scope: !573, file: !574, line: 282, type: !832, scopeLine: 282, flags: DIFlagPrototyped, spFlags: DISPFlagOptimized)
!845 = !DISubprogram(name: "hard_make_stable", linkageName: "_ZN6String16hard_make_stableEPKci", scope: !573, file: !574, line: 283, type: !679, scopeLine: 283, flags: DIFlagPrototyped | DIFlagStaticMember, spFlags: DISPFlagOptimized)
!846 = !DISubprogram(name: "absent_memo", linkageName: "_ZN6String11absent_memoEv", scope: !573, file: !574, line: 284, type: !847, scopeLine: 284, flags: DIFlagPrototyped | DIFlagStaticMember, spFlags: DISPFlagOptimized)
!847 = !DISubroutineType(types: !848)
!848 = !{!588}
!849 = !DISubprogram(name: "create_memo", linkageName: "_ZN6String11create_memoEPcii", scope: !573, file: !574, line: 287, type: !850, scopeLine: 287, flags: DIFlagPrototyped | DIFlagStaticMember, spFlags: DISPFlagOptimized)
!850 = !DISubroutineType(types: !851)
!851 = !{!588, !797, !34, !34}
!852 = !DISubprogram(name: "delete_memo", linkageName: "_ZN6String11delete_memoEPNS_6memo_tE", scope: !573, file: !574, line: 288, type: !853, scopeLine: 288, flags: DIFlagPrototyped | DIFlagStaticMember, spFlags: DISPFlagOptimized)
!853 = !DISubroutineType(types: !854)
!854 = !{null, !588}
!855 = !DISubprogram(name: "hard_c_str", linkageName: "_ZNK6String10hard_c_strEv", scope: !573, file: !574, line: 289, type: !693, scopeLine: 289, flags: DIFlagPrototyped, spFlags: DISPFlagOptimized)
!856 = !DISubprogram(name: "hard_equals", linkageName: "_ZNK6String11hard_equalsEPKci", scope: !573, file: !574, line: 290, type: !747, scopeLine: 290, flags: DIFlagPrototyped, spFlags: DISPFlagOptimized)
!857 = !DISubprogram(name: "make_claim", linkageName: "_ZN6String10make_claimEPcii", scope: !573, file: !574, line: 299, type: !858, scopeLine: 299, flags: DIFlagPrototyped | DIFlagStaticMember, spFlags: DISPFlagOptimized)
!858 = !DISubroutineType(types: !859)
!859 = !{!573, !797, !34, !34}
!860 = !DISubprogram(name: "unparse_interval", linkageName: "_ZNK9Timestamp16unparse_intervalEv", scope: !405, file: !406, line: 501, type: !571, scopeLine: 501, flags: DIFlagPublic | DIFlagPrototyped, spFlags: DISPFlagOptimized)
!861 = !DISubprogram(name: "msec_to_subsec", linkageName: "_ZN9Timestamp14msec_to_subsecEj", scope: !405, file: !406, line: 510, type: !862, scopeLine: 510, flags: DIFlagPublic | DIFlagPrototyped | DIFlagStaticMember, spFlags: DISPFlagOptimized)
!862 = !DISubroutineType(types: !863)
!863 = !{!12, !12}
!864 = !DISubprogram(name: "usec_to_subsec", linkageName: "_ZN9Timestamp14usec_to_subsecEj", scope: !405, file: !406, line: 514, type: !862, scopeLine: 514, flags: DIFlagPublic | DIFlagPrototyped | DIFlagStaticMember, spFlags: DISPFlagOptimized)
!865 = !DISubprogram(name: "nsec_to_subsec", linkageName: "_ZN9Timestamp14nsec_to_subsecEj", scope: !405, file: !406, line: 518, type: !862, scopeLine: 518, flags: DIFlagPublic | DIFlagPrototyped | DIFlagStaticMember, spFlags: DISPFlagOptimized)
!866 = !DISubprogram(name: "subsec_to_msec", linkageName: "_ZN9Timestamp14subsec_to_msecEj", scope: !405, file: !406, line: 522, type: !862, scopeLine: 522, flags: DIFlagPublic | DIFlagPrototyped | DIFlagStaticMember, spFlags: DISPFlagOptimized)
!867 = !DISubprogram(name: "subsec_to_usec", linkageName: "_ZN9Timestamp14subsec_to_usecEj", scope: !405, file: !406, line: 526, type: !862, scopeLine: 526, flags: DIFlagPublic | DIFlagPrototyped | DIFlagStaticMember, spFlags: DISPFlagOptimized)
!868 = !DISubprogram(name: "subsec_to_nsec", linkageName: "_ZN9Timestamp14subsec_to_nsecEj", scope: !405, file: !406, line: 530, type: !862, scopeLine: 530, flags: DIFlagPublic | DIFlagPrototyped | DIFlagStaticMember, spFlags: DISPFlagOptimized)
!869 = !DISubprogram(name: "warp_class", linkageName: "_ZN9Timestamp10warp_classEv", scope: !405, file: !406, line: 581, type: !819, scopeLine: 581, flags: DIFlagPublic | DIFlagPrototyped | DIFlagStaticMember, spFlags: DISPFlagOptimized)
!870 = !DISubprogram(name: "warp_speed", linkageName: "_ZN9Timestamp10warp_speedEv", scope: !405, file: !406, line: 588, type: !871, scopeLine: 588, flags: DIFlagPublic | DIFlagPrototyped | DIFlagStaticMember, spFlags: DISPFlagOptimized)
!871 = !DISubroutineType(types: !872)
!872 = !{!434}
!873 = !DISubprogram(name: "warp_set_class", linkageName: "_ZN9Timestamp14warp_set_classENS_15warp_class_typeEd", scope: !405, file: !406, line: 621, type: !874, scopeLine: 621, flags: DIFlagPublic | DIFlagPrototyped | DIFlagStaticMember, spFlags: DISPFlagOptimized)
!874 = !DISubroutineType(types: !875)
!875 = !{null, !876, !434}
!876 = !DICompositeType(tag: DW_TAG_enumeration_type, name: "warp_class_type", scope: !405, file: !406, line: 571, baseType: !16, size: 32, elements: !877, identifier: "_ZTSN9Timestamp15warp_class_typeE")
!877 = !{!878, !879, !880, !881}
!878 = !DIEnumerator(name: "warp_none", value: 0, isUnsigned: true)
!879 = !DIEnumerator(name: "warp_linear", value: 1, isUnsigned: true)
!880 = !DIEnumerator(name: "warp_nowait", value: 2, isUnsigned: true)
!881 = !DIEnumerator(name: "warp_simulation", value: 3, isUnsigned: true)
!882 = !DISubprogram(name: "warp_set_now", linkageName: "_ZN9Timestamp12warp_set_nowERKS_S1_", scope: !405, file: !406, line: 628, type: !883, scopeLine: 628, flags: DIFlagPublic | DIFlagPrototyped | DIFlagStaticMember, spFlags: DISPFlagOptimized)
!883 = !DISubroutineType(types: !884)
!884 = !{null, !403, !403}
!885 = !DISubprogram(name: "warp_real_delay", linkageName: "_ZNK9Timestamp15warp_real_delayEv", scope: !405, file: !406, line: 632, type: !517, scopeLine: 632, flags: DIFlagPublic | DIFlagPrototyped, spFlags: DISPFlagOptimized)
!886 = !DISubprogram(name: "warp_jumping", linkageName: "_ZN9Timestamp12warp_jumpingEv", scope: !405, file: !406, line: 635, type: !887, scopeLine: 635, flags: DIFlagPublic | DIFlagPrototyped | DIFlagStaticMember, spFlags: DISPFlagOptimized)
!887 = !DISubroutineType(types: !888)
!888 = !{!53}
!889 = !DISubprogram(name: "warp_jump_steady", linkageName: "_ZN9Timestamp16warp_jump_steadyERKS_", scope: !405, file: !406, line: 640, type: !890, scopeLine: 640, flags: DIFlagPublic | DIFlagPrototyped | DIFlagStaticMember, spFlags: DISPFlagOptimized)
!890 = !DISubroutineType(types: !891)
!891 = !{null, !403}
!892 = !DISubprogram(name: "now_unwarped", linkageName: "_ZN9Timestamp12now_unwarpedEv", scope: !405, file: !406, line: 647, type: !547, scopeLine: 647, flags: DIFlagPublic | DIFlagPrototyped | DIFlagStaticMember, spFlags: DISPFlagOptimized)
!893 = !DISubprogram(name: "assign_now_unwarped", linkageName: "_ZN9Timestamp19assign_now_unwarpedEv", scope: !405, file: !406, line: 653, type: !416, scopeLine: 653, flags: DIFlagPublic | DIFlagPrototyped, spFlags: DISPFlagOptimized)
!894 = !DISubprogram(name: "now_steady_unwarped", linkageName: "_ZN9Timestamp19now_steady_unwarpedEv", scope: !405, file: !406, line: 659, type: !547, scopeLine: 659, flags: DIFlagPublic | DIFlagPrototyped | DIFlagStaticMember, spFlags: DISPFlagOptimized)
!895 = !DISubprogram(name: "assign_now_steady_unwarped", linkageName: "_ZN9Timestamp26assign_now_steady_unwarpedEv", scope: !405, file: !406, line: 666, type: !416, scopeLine: 666, flags: DIFlagPublic | DIFlagPrototyped, spFlags: DISPFlagOptimized)
!896 = !DISubprogram(name: "add_fix", linkageName: "_ZN9Timestamp7add_fixEv", scope: !405, file: !406, line: 674, type: !416, scopeLine: 674, flags: DIFlagPrototyped, spFlags: DISPFlagOptimized)
!897 = !DISubprogram(name: "sub_fix", linkageName: "_ZN9Timestamp7sub_fixEv", scope: !405, file: !406, line: 686, type: !416, scopeLine: 686, flags: DIFlagPrototyped, spFlags: DISPFlagOptimized)
!898 = !DISubprogram(name: "value_div", linkageName: "_ZN9Timestamp9value_divElj", scope: !405, file: !406, line: 698, type: !899, scopeLine: 698, flags: DIFlagPrototyped | DIFlagStaticMember, spFlags: DISPFlagOptimized)
!899 = !DISubroutineType(types: !900)
!900 = !{!513, !513, !12}
!901 = !DISubprogram(name: "value_div_mod", linkageName: "_ZN9Timestamp13value_div_modERiS0_lj", scope: !405, file: !406, line: 702, type: !902, scopeLine: 702, flags: DIFlagPrototyped | DIFlagStaticMember, spFlags: DISPFlagOptimized)
!902 = !DISubroutineType(types: !903)
!903 = !{null, !904, !904, !513, !12}
!904 = !DIDerivedType(tag: DW_TAG_reference_type, baseType: !31, size: 64)
!905 = !DISubprogram(name: "assign_now", linkageName: "_ZN9Timestamp10assign_nowEbbb", scope: !405, file: !406, line: 709, type: !906, scopeLine: 709, flags: DIFlagPrototyped, spFlags: DISPFlagOptimized)
!906 = !DISubroutineType(types: !907)
!907 = !{null, !418, !53, !53, !53}
!908 = !DISubprogram(name: "warp_adjust", linkageName: "_ZN9Timestamp11warp_adjustEbRKS_S1_", scope: !405, file: !406, line: 712, type: !909, scopeLine: 712, flags: DIFlagPrototyped | DIFlagStaticMember, spFlags: DISPFlagOptimized)
!909 = !DISubroutineType(types: !910)
!910 = !{null, !53, !403, !403}
!911 = !DISubprogram(name: "warped", linkageName: "_ZNK9Timestamp6warpedEb", scope: !405, file: !406, line: 713, type: !912, scopeLine: 713, flags: DIFlagPrototyped, spFlags: DISPFlagOptimized)
!912 = !DISubroutineType(types: !913)
!913 = !{!405, !480, !53}
!914 = !DISubprogram(name: "warp", linkageName: "_ZN9Timestamp4warpEbb", scope: !405, file: !406, line: 714, type: !915, scopeLine: 714, flags: DIFlagPrototyped, spFlags: DISPFlagOptimized)
!915 = !DISubroutineType(types: !916)
!916 = !{null, !418, !53, !53}
!917 = !DISubprogram(name: "timestamp_anno", linkageName: "_ZN6Packet14timestamp_annoEv", scope: !5, file: !4, line: 356, type: !918, scopeLine: 356, flags: DIFlagPublic | DIFlagPrototyped, spFlags: DISPFlagOptimized)
!918 = !DISubroutineType(types: !919)
!919 = !{!920, !260}
!920 = !DIDerivedType(tag: DW_TAG_reference_type, baseType: !405, size: 64)
!921 = !DISubprogram(name: "set_timestamp_anno", linkageName: "_ZN6Packet18set_timestamp_annoERK9Timestamp", scope: !5, file: !4, line: 359, type: !922, scopeLine: 359, flags: DIFlagPublic | DIFlagPrototyped, spFlags: DISPFlagOptimized)
!922 = !DISubroutineType(types: !923)
!923 = !{null, !260, !403}
!924 = !DISubprogram(name: "device_anno", linkageName: "_ZNK6Packet11device_annoEv", scope: !5, file: !4, line: 362, type: !925, scopeLine: 362, flags: DIFlagPublic | DIFlagPrototyped, spFlags: DISPFlagOptimized)
!925 = !DISubroutineType(types: !926)
!926 = !{!927, !264}
!927 = !DIDerivedType(tag: DW_TAG_pointer_type, baseType: !928, size: 64)
!928 = !DIDerivedType(tag: DW_TAG_typedef, name: "net_device", file: !525, line: 326, baseType: !929)
!929 = !DICompositeType(tag: DW_TAG_structure_type, name: "device", file: !525, line: 326, flags: DIFlagFwdDecl, identifier: "_ZTS6device")
!930 = !DISubprogram(name: "set_device_anno", linkageName: "_ZN6Packet15set_device_annoEP6device", scope: !5, file: !4, line: 364, type: !931, scopeLine: 364, flags: DIFlagPublic | DIFlagPrototyped, spFlags: DISPFlagOptimized)
!931 = !DISubroutineType(types: !932)
!932 = !{null, !260, !927}
!933 = !DISubprogram(name: "packet_type_anno", linkageName: "_ZNK6Packet16packet_type_annoEv", scope: !5, file: !4, line: 383, type: !934, scopeLine: 383, flags: DIFlagPublic | DIFlagPrototyped, spFlags: DISPFlagOptimized)
!934 = !DISubroutineType(types: !935)
!935 = !{!3, !264}
!936 = !DISubprogram(name: "set_packet_type_anno", linkageName: "_ZN6Packet20set_packet_type_annoENS_10PacketTypeE", scope: !5, file: !4, line: 385, type: !937, scopeLine: 385, flags: DIFlagPublic | DIFlagPrototyped, spFlags: DISPFlagOptimized)
!937 = !DISubroutineType(types: !938)
!938 = !{null, !260, !3}
!939 = !DISubprogram(name: "next", linkageName: "_ZNK6Packet4nextEv", scope: !5, file: !4, line: 410, type: !940, scopeLine: 410, flags: DIFlagPublic | DIFlagPrototyped, spFlags: DISPFlagOptimized)
!940 = !DISubroutineType(types: !941)
!941 = !{!78, !264}
!942 = !DISubprogram(name: "next", linkageName: "_ZN6Packet4nextEv", scope: !5, file: !4, line: 412, type: !943, scopeLine: 412, flags: DIFlagPublic | DIFlagPrototyped, spFlags: DISPFlagOptimized)
!943 = !DISubroutineType(types: !944)
!944 = !{!945, !260}
!945 = !DIDerivedType(tag: DW_TAG_reference_type, baseType: !78, size: 64)
!946 = !DISubprogram(name: "set_next", linkageName: "_ZN6Packet8set_nextEPS_", scope: !5, file: !4, line: 414, type: !947, scopeLine: 414, flags: DIFlagPublic | DIFlagPrototyped, spFlags: DISPFlagOptimized)
!947 = !DISubroutineType(types: !948)
!948 = !{null, !260, !78}
!949 = !DISubprogram(name: "prev", linkageName: "_ZNK6Packet4prevEv", scope: !5, file: !4, line: 417, type: !940, scopeLine: 417, flags: DIFlagPublic | DIFlagPrototyped, spFlags: DISPFlagOptimized)
!950 = !DISubprogram(name: "prev", linkageName: "_ZN6Packet4prevEv", scope: !5, file: !4, line: 419, type: !943, scopeLine: 419, flags: DIFlagPublic | DIFlagPrototyped, spFlags: DISPFlagOptimized)
!951 = !DISubprogram(name: "set_prev", linkageName: "_ZN6Packet8set_prevEPS_", scope: !5, file: !4, line: 421, type: !947, scopeLine: 421, flags: DIFlagPublic | DIFlagPrototyped, spFlags: DISPFlagOptimized)
!952 = !DISubprogram(name: "dst_ip_anno", linkageName: "_ZNK6Packet11dst_ip_annoEv", scope: !5, file: !4, line: 431, type: !953, scopeLine: 431, flags: DIFlagPublic | DIFlagPrototyped, spFlags: DISPFlagOptimized)
!953 = !DISubroutineType(types: !954)
!954 = !{!955, !264}
!955 = distinct !DICompositeType(tag: DW_TAG_class_type, name: "IPAddress", file: !956, line: 15, size: 32, flags: DIFlagTypePassByValue | DIFlagNonTrivial, elements: !957, identifier: "_ZTS9IPAddress")
!956 = !DIFile(filename: "../dummy_inc/click/ipaddress.hh", directory: "/home/john/projects/click/ir-dir")
!957 = !{!958, !959, !963, !966, !969, !972, !975, !978, !981, !984, !989, !992, !995, !1000, !1003, !1004, !1005, !1006, !1009, !1010, !1013, !1016, !1017, !1020, !1023, !1026, !1027, !1031, !1032, !1033, !1036, !1037, !1040, !1041}
!958 = !DIDerivedType(tag: DW_TAG_member, name: "_addr", scope: !955, file: !956, line: 152, baseType: !12, size: 32)
!959 = !DISubprogram(name: "IPAddress", scope: !955, file: !956, line: 20, type: !960, scopeLine: 20, flags: DIFlagPublic | DIFlagPrototyped, spFlags: DISPFlagOptimized)
!960 = !DISubroutineType(types: !961)
!961 = !{null, !962}
!962 = !DIDerivedType(tag: DW_TAG_pointer_type, baseType: !955, size: 64, flags: DIFlagArtificial | DIFlagObjectPointer)
!963 = !DISubprogram(name: "IPAddress", scope: !955, file: !956, line: 25, type: !964, scopeLine: 25, flags: DIFlagPublic | DIFlagPrototyped, spFlags: DISPFlagOptimized)
!964 = !DISubroutineType(types: !965)
!965 = !{null, !962, !16}
!966 = !DISubprogram(name: "IPAddress", scope: !955, file: !956, line: 29, type: !967, scopeLine: 29, flags: DIFlagPublic | DIFlagExplicit | DIFlagPrototyped, spFlags: DISPFlagOptimized)
!967 = !DISubroutineType(types: !968)
!968 = !{null, !962, !34}
!969 = !DISubprogram(name: "IPAddress", scope: !955, file: !956, line: 33, type: !970, scopeLine: 33, flags: DIFlagPublic | DIFlagExplicit | DIFlagPrototyped, spFlags: DISPFlagOptimized)
!970 = !DISubroutineType(types: !971)
!971 = !{null, !962, !115}
!972 = !DISubprogram(name: "IPAddress", scope: !955, file: !956, line: 37, type: !973, scopeLine: 37, flags: DIFlagPublic | DIFlagExplicit | DIFlagPrototyped, spFlags: DISPFlagOptimized)
!973 = !DISubroutineType(types: !974)
!974 = !{null, !962, !414}
!975 = !DISubprogram(name: "IPAddress", scope: !955, file: !956, line: 42, type: !976, scopeLine: 42, flags: DIFlagPublic | DIFlagPrototyped, spFlags: DISPFlagOptimized)
!976 = !DISubroutineType(types: !977)
!977 = !{null, !962, !176}
!978 = !DISubprogram(name: "IPAddress", scope: !955, file: !956, line: 50, type: !979, scopeLine: 50, flags: DIFlagPublic | DIFlagExplicit | DIFlagPrototyped, spFlags: DISPFlagOptimized)
!979 = !DISubroutineType(types: !980)
!980 = !{null, !962, !274}
!981 = !DISubprogram(name: "IPAddress", scope: !955, file: !956, line: 63, type: !982, scopeLine: 63, flags: DIFlagPublic | DIFlagExplicit | DIFlagPrototyped, spFlags: DISPFlagOptimized)
!982 = !DISubroutineType(types: !983)
!983 = !{null, !962, !614}
!984 = !DISubprogram(name: "IPAddress", scope: !955, file: !956, line: 66, type: !985, scopeLine: 66, flags: DIFlagPublic | DIFlagPrototyped, spFlags: DISPFlagOptimized)
!985 = !DISubroutineType(types: !986)
!986 = !{null, !962, !987}
!987 = !DIDerivedType(tag: DW_TAG_reference_type, baseType: !988, size: 64)
!988 = !DIDerivedType(tag: DW_TAG_const_type, baseType: !469)
!989 = !DISubprogram(name: "make_prefix", linkageName: "_ZN9IPAddress11make_prefixEi", scope: !955, file: !956, line: 78, type: !990, scopeLine: 78, flags: DIFlagPublic | DIFlagPrototyped | DIFlagStaticMember, spFlags: DISPFlagOptimized)
!990 = !DISubroutineType(types: !991)
!991 = !{!955, !34}
!992 = !DISubprogram(name: "make_broadcast", linkageName: "_ZN9IPAddress14make_broadcastEv", scope: !955, file: !956, line: 81, type: !993, scopeLine: 81, flags: DIFlagPublic | DIFlagPrototyped | DIFlagStaticMember, spFlags: DISPFlagOptimized)
!993 = !DISubroutineType(types: !994)
!994 = !{!955}
!995 = !DISubprogram(name: "empty", linkageName: "_ZNK9IPAddress5emptyEv", scope: !955, file: !956, line: 86, type: !996, scopeLine: 86, flags: DIFlagPublic | DIFlagPrototyped, spFlags: DISPFlagOptimized)
!996 = !DISubroutineType(types: !997)
!997 = !{!53, !998}
!998 = !DIDerivedType(tag: DW_TAG_pointer_type, baseType: !999, size: 64, flags: DIFlagArtificial | DIFlagObjectPointer)
!999 = !DIDerivedType(tag: DW_TAG_const_type, baseType: !955)
!1000 = !DISubprogram(name: "addr", linkageName: "_ZNK9IPAddress4addrEv", scope: !955, file: !956, line: 91, type: !1001, scopeLine: 91, flags: DIFlagPublic | DIFlagPrototyped, spFlags: DISPFlagOptimized)
!1001 = !DISubroutineType(types: !1002)
!1002 = !{!12, !998}
!1003 = !DISubprogram(name: "operator unsigned int", linkageName: "_ZNK9IPAddresscvjEv", scope: !955, file: !956, line: 99, type: !1001, scopeLine: 99, flags: DIFlagPublic | DIFlagPrototyped, spFlags: DISPFlagOptimized)
!1004 = !DISubprogram(name: "is_multicast", linkageName: "_ZNK9IPAddress12is_multicastEv", scope: !955, file: !956, line: 106, type: !996, scopeLine: 106, flags: DIFlagPublic | DIFlagPrototyped, spFlags: DISPFlagOptimized)
!1005 = !DISubprogram(name: "is_link_local", linkageName: "_ZNK9IPAddress13is_link_localEv", scope: !955, file: !956, line: 110, type: !996, scopeLine: 110, flags: DIFlagPublic | DIFlagPrototyped, spFlags: DISPFlagOptimized)
!1006 = !DISubprogram(name: "in_addr", linkageName: "_ZNK9IPAddress7in_addrEv", scope: !955, file: !956, line: 114, type: !1007, scopeLine: 114, flags: DIFlagPublic | DIFlagPrototyped, spFlags: DISPFlagOptimized)
!1007 = !DISubroutineType(types: !1008)
!1008 = !{!176, !998}
!1009 = !DISubprogram(name: "operator in_addr", linkageName: "_ZNK9IPAddresscv7in_addrEv", scope: !955, file: !956, line: 115, type: !1007, scopeLine: 115, flags: DIFlagPublic | DIFlagPrototyped, spFlags: DISPFlagOptimized)
!1010 = !DISubprogram(name: "data", linkageName: "_ZN9IPAddress4dataEv", scope: !955, file: !956, line: 117, type: !1011, scopeLine: 117, flags: DIFlagPublic | DIFlagPrototyped, spFlags: DISPFlagOptimized)
!1011 = !DISubroutineType(types: !1012)
!1012 = !{!80, !962}
!1013 = !DISubprogram(name: "data", linkageName: "_ZNK9IPAddress4dataEv", scope: !955, file: !956, line: 118, type: !1014, scopeLine: 118, flags: DIFlagPublic | DIFlagPrototyped, spFlags: DISPFlagOptimized)
!1014 = !DISubroutineType(types: !1015)
!1015 = !{!274, !998}
!1016 = !DISubprogram(name: "hashcode", linkageName: "_ZNK9IPAddress8hashcodeEv", scope: !955, file: !956, line: 120, type: !1001, scopeLine: 120, flags: DIFlagPublic | DIFlagPrototyped, spFlags: DISPFlagOptimized)
!1017 = !DISubprogram(name: "mask_to_prefix_len", linkageName: "_ZNK9IPAddress18mask_to_prefix_lenEv", scope: !955, file: !956, line: 122, type: !1018, scopeLine: 122, flags: DIFlagPublic | DIFlagPrototyped, spFlags: DISPFlagOptimized)
!1018 = !DISubroutineType(types: !1019)
!1019 = !{!34, !998}
!1020 = !DISubprogram(name: "matches_prefix", linkageName: "_ZNK9IPAddress14matches_prefixES_S_", scope: !955, file: !956, line: 123, type: !1021, scopeLine: 123, flags: DIFlagPublic | DIFlagPrototyped, spFlags: DISPFlagOptimized)
!1021 = !DISubroutineType(types: !1022)
!1022 = !{!53, !998, !955, !955}
!1023 = !DISubprogram(name: "mask_as_specific", linkageName: "_ZNK9IPAddress16mask_as_specificES_", scope: !955, file: !956, line: 124, type: !1024, scopeLine: 124, flags: DIFlagPublic | DIFlagPrototyped, spFlags: DISPFlagOptimized)
!1024 = !DISubroutineType(types: !1025)
!1025 = !{!53, !998, !955}
!1026 = !DISubprogram(name: "mask_more_specific", linkageName: "_ZNK9IPAddress18mask_more_specificES_", scope: !955, file: !956, line: 125, type: !1024, scopeLine: 125, flags: DIFlagPublic | DIFlagPrototyped, spFlags: DISPFlagOptimized)
!1027 = !DISubprogram(name: "operator&=", linkageName: "_ZN9IPAddressaNES_", scope: !955, file: !956, line: 137, type: !1028, scopeLine: 137, flags: DIFlagPublic | DIFlagPrototyped, spFlags: DISPFlagOptimized)
!1028 = !DISubroutineType(types: !1029)
!1029 = !{!1030, !962, !955}
!1030 = !DIDerivedType(tag: DW_TAG_reference_type, baseType: !955, size: 64)
!1031 = !DISubprogram(name: "operator|=", linkageName: "_ZN9IPAddressoRES_", scope: !955, file: !956, line: 138, type: !1028, scopeLine: 138, flags: DIFlagPublic | DIFlagPrototyped, spFlags: DISPFlagOptimized)
!1032 = !DISubprogram(name: "operator^=", linkageName: "_ZN9IPAddresseOES_", scope: !955, file: !956, line: 139, type: !1028, scopeLine: 139, flags: DIFlagPublic | DIFlagPrototyped, spFlags: DISPFlagOptimized)
!1033 = !DISubprogram(name: "unparse", linkageName: "_ZNK9IPAddress7unparseEv", scope: !955, file: !956, line: 141, type: !1034, scopeLine: 141, flags: DIFlagPublic | DIFlagPrototyped, spFlags: DISPFlagOptimized)
!1034 = !DISubroutineType(types: !1035)
!1035 = !{!573, !998}
!1036 = !DISubprogram(name: "unparse_mask", linkageName: "_ZNK9IPAddress12unparse_maskEv", scope: !955, file: !956, line: 142, type: !1034, scopeLine: 142, flags: DIFlagPublic | DIFlagPrototyped, spFlags: DISPFlagOptimized)
!1037 = !DISubprogram(name: "unparse_with_mask", linkageName: "_ZNK9IPAddress17unparse_with_maskES_", scope: !955, file: !956, line: 143, type: !1038, scopeLine: 143, flags: DIFlagPublic | DIFlagPrototyped, spFlags: DISPFlagOptimized)
!1038 = !DISubroutineType(types: !1039)
!1039 = !{!573, !998, !955}
!1040 = !DISubprogram(name: "s", linkageName: "_ZNK9IPAddress1sEv", scope: !955, file: !956, line: 145, type: !1034, scopeLine: 145, flags: DIFlagPublic | DIFlagPrototyped, spFlags: DISPFlagOptimized)
!1041 = !DISubprogram(name: "operator String", linkageName: "_ZNK9IPAddresscv6StringEv", scope: !955, file: !956, line: 146, type: !1034, scopeLine: 146, flags: DIFlagPublic | DIFlagPrototyped, spFlags: DISPFlagOptimized)
!1042 = !DISubprogram(name: "set_dst_ip_anno", linkageName: "_ZN6Packet15set_dst_ip_annoE9IPAddress", scope: !5, file: !4, line: 436, type: !1043, scopeLine: 436, flags: DIFlagPublic | DIFlagPrototyped, spFlags: DISPFlagOptimized)
!1043 = !DISubroutineType(types: !1044)
!1044 = !{null, !260, !955}
!1045 = !DISubprogram(name: "anno", linkageName: "_ZN6Packet4annoEv", scope: !5, file: !4, line: 441, type: !292, scopeLine: 441, flags: DIFlagPublic | DIFlagPrototyped, spFlags: DISPFlagOptimized)
!1046 = !DISubprogram(name: "anno", linkageName: "_ZNK6Packet4annoEv", scope: !5, file: !4, line: 444, type: !1047, scopeLine: 444, flags: DIFlagPublic | DIFlagPrototyped, spFlags: DISPFlagOptimized)
!1047 = !DISubroutineType(types: !1048)
!1048 = !{!243, !264}
!1049 = !DISubprogram(name: "anno_u8", linkageName: "_ZN6Packet7anno_u8Ev", scope: !5, file: !4, line: 447, type: !1050, scopeLine: 447, flags: DIFlagPublic | DIFlagPrototyped, spFlags: DISPFlagOptimized)
!1050 = !DISubroutineType(types: !1051)
!1051 = !{!1052, !260}
!1052 = !DIDerivedType(tag: DW_TAG_pointer_type, baseType: !98, size: 64)
!1053 = !DISubprogram(name: "anno_u8", linkageName: "_ZNK6Packet7anno_u8Ev", scope: !5, file: !4, line: 450, type: !1054, scopeLine: 450, flags: DIFlagPublic | DIFlagPrototyped, spFlags: DISPFlagOptimized)
!1054 = !DISubroutineType(types: !1055)
!1055 = !{!1056, !264}
!1056 = !DIDerivedType(tag: DW_TAG_pointer_type, baseType: !1057, size: 64)
!1057 = !DIDerivedType(tag: DW_TAG_const_type, baseType: !98)
!1058 = !DISubprogram(name: "anno_u32", linkageName: "_ZN6Packet8anno_u32Ev", scope: !5, file: !4, line: 453, type: !1059, scopeLine: 453, flags: DIFlagPublic | DIFlagPrototyped, spFlags: DISPFlagOptimized)
!1059 = !DISubroutineType(types: !1060)
!1060 = !{!1061, !260}
!1061 = !DIDerivedType(tag: DW_TAG_pointer_type, baseType: !12, size: 64)
!1062 = !DISubprogram(name: "anno_u32", linkageName: "_ZNK6Packet8anno_u32Ev", scope: !5, file: !4, line: 456, type: !1063, scopeLine: 456, flags: DIFlagPublic | DIFlagPrototyped, spFlags: DISPFlagOptimized)
!1063 = !DISubroutineType(types: !1064)
!1064 = !{!1065, !264}
!1065 = !DIDerivedType(tag: DW_TAG_pointer_type, baseType: !1066, size: 64)
!1066 = !DIDerivedType(tag: DW_TAG_const_type, baseType: !12)
!1067 = !DISubprogram(name: "anno_u8", linkageName: "_ZNK6Packet7anno_u8Ei", scope: !5, file: !4, line: 460, type: !1068, scopeLine: 460, flags: DIFlagPublic | DIFlagPrototyped, spFlags: DISPFlagOptimized)
!1068 = !DISubroutineType(types: !1069)
!1069 = !{!98, !264, !34}
!1070 = !DISubprogram(name: "set_anno_u8", linkageName: "_ZN6Packet11set_anno_u8Eih", scope: !5, file: !4, line: 469, type: !1071, scopeLine: 469, flags: DIFlagPublic | DIFlagPrototyped, spFlags: DISPFlagOptimized)
!1071 = !DISubroutineType(types: !1072)
!1072 = !{null, !260, !34, !98}
!1073 = !DISubprogram(name: "anno_u16", linkageName: "_ZNK6Packet8anno_u16Ei", scope: !5, file: !4, line: 479, type: !1074, scopeLine: 479, flags: DIFlagPublic | DIFlagPrototyped, spFlags: DISPFlagOptimized)
!1074 = !DISubroutineType(types: !1075)
!1075 = !{!102, !264, !34}
!1076 = !DISubprogram(name: "set_anno_u16", linkageName: "_ZN6Packet12set_anno_u16Eit", scope: !5, file: !4, line: 494, type: !1077, scopeLine: 494, flags: DIFlagPublic | DIFlagPrototyped, spFlags: DISPFlagOptimized)
!1077 = !DISubroutineType(types: !1078)
!1078 = !{null, !260, !34, !102}
!1079 = !DISubprogram(name: "anno_s16", linkageName: "_ZNK6Packet8anno_s16Ei", scope: !5, file: !4, line: 507, type: !1080, scopeLine: 507, flags: DIFlagPublic | DIFlagPrototyped, spFlags: DISPFlagOptimized)
!1080 = !DISubroutineType(types: !1081)
!1081 = !{!1082, !264, !34}
!1082 = !DIDerivedType(tag: DW_TAG_typedef, name: "int16_t", file: !32, line: 25, baseType: !1083)
!1083 = !DIDerivedType(tag: DW_TAG_typedef, name: "__int16_t", file: !15, line: 39, baseType: !1084)
!1084 = !DIBasicType(name: "short", size: 16, encoding: DW_ATE_signed)
!1085 = !DISubprogram(name: "set_anno_s16", linkageName: "_ZN6Packet12set_anno_s16Eis", scope: !5, file: !4, line: 522, type: !1086, scopeLine: 522, flags: DIFlagPublic | DIFlagPrototyped, spFlags: DISPFlagOptimized)
!1086 = !DISubroutineType(types: !1087)
!1087 = !{null, !260, !34, !1082}
!1088 = !DISubprogram(name: "anno_u32", linkageName: "_ZNK6Packet8anno_u32Ei", scope: !5, file: !4, line: 535, type: !1089, scopeLine: 535, flags: DIFlagPublic | DIFlagPrototyped, spFlags: DISPFlagOptimized)
!1089 = !DISubroutineType(types: !1090)
!1090 = !{!12, !264, !34}
!1091 = !DISubprogram(name: "set_anno_u32", linkageName: "_ZN6Packet12set_anno_u32Eij", scope: !5, file: !4, line: 550, type: !1092, scopeLine: 550, flags: DIFlagPublic | DIFlagPrototyped, spFlags: DISPFlagOptimized)
!1092 = !DISubroutineType(types: !1093)
!1093 = !{null, !260, !34, !12}
!1094 = !DISubprogram(name: "anno_s32", linkageName: "_ZNK6Packet8anno_s32Ei", scope: !5, file: !4, line: 556, type: !1095, scopeLine: 556, flags: DIFlagPublic | DIFlagPrototyped, spFlags: DISPFlagOptimized)
!1095 = !DISubroutineType(types: !1096)
!1096 = !{!31, !264, !34}
!1097 = !DISubprogram(name: "set_anno_s32", linkageName: "_ZN6Packet12set_anno_s32Eii", scope: !5, file: !4, line: 571, type: !1098, scopeLine: 571, flags: DIFlagPublic | DIFlagPrototyped, spFlags: DISPFlagOptimized)
!1098 = !DISubroutineType(types: !1099)
!1099 = !{null, !260, !34, !31}
!1100 = !DISubprogram(name: "anno_u64", linkageName: "_ZNK6Packet8anno_u64Ei", scope: !5, file: !4, line: 585, type: !1101, scopeLine: 585, flags: DIFlagPublic | DIFlagPrototyped, spFlags: DISPFlagOptimized)
!1101 = !DISubroutineType(types: !1102)
!1102 = !{!113, !264, !34}
!1103 = !DISubprogram(name: "set_anno_u64", linkageName: "_ZN6Packet12set_anno_u64Eim", scope: !5, file: !4, line: 600, type: !1104, scopeLine: 600, flags: DIFlagPublic | DIFlagPrototyped, spFlags: DISPFlagOptimized)
!1104 = !DISubroutineType(types: !1105)
!1105 = !{null, !260, !34, !113}
!1106 = !DISubprogram(name: "anno_ptr", linkageName: "_ZNK6Packet8anno_ptrEi", scope: !5, file: !4, line: 614, type: !1107, scopeLine: 614, flags: DIFlagPublic | DIFlagPrototyped, spFlags: DISPFlagOptimized)
!1107 = !DISubroutineType(types: !1108)
!1108 = !{!135, !264, !34}
!1109 = !DISubprogram(name: "set_anno_ptr", linkageName: "_ZN6Packet12set_anno_ptrEiPKv", scope: !5, file: !4, line: 629, type: !1110, scopeLine: 629, flags: DIFlagPublic | DIFlagPrototyped, spFlags: DISPFlagOptimized)
!1110 = !DISubroutineType(types: !1111)
!1111 = !{null, !260, !34, !243}
!1112 = !DISubprogram(name: "data_packet", linkageName: "_ZN6Packet11data_packetEv", scope: !5, file: !4, line: 638, type: !266, scopeLine: 638, flags: DIFlagPublic | DIFlagPrototyped, spFlags: DISPFlagOptimized)
!1113 = !DISubprogram(name: "clear_annotations", linkageName: "_ZN6Packet17clear_annotationsEb", scope: !5, file: !4, line: 643, type: !1114, scopeLine: 643, flags: DIFlagPublic | DIFlagPrototyped, spFlags: DISPFlagOptimized)
!1114 = !DISubroutineType(types: !1115)
!1115 = !{null, !260, !53}
!1116 = !DISubprogram(name: "copy_annotations", linkageName: "_ZN6Packet16copy_annotationsEPKS_", scope: !5, file: !4, line: 644, type: !1117, scopeLine: 644, flags: DIFlagPublic | DIFlagPrototyped, spFlags: DISPFlagOptimized)
!1117 = !DISubroutineType(types: !1118)
!1118 = !{null, !260, !1119}
!1119 = !DIDerivedType(tag: DW_TAG_pointer_type, baseType: !232, size: 64)
!1120 = !DISubprogram(name: "buffer_data", linkageName: "_ZNK6Packet11buffer_dataEv", scope: !5, file: !4, line: 661, type: !272, scopeLine: 661, flags: DIFlagPublic | DIFlagPrototyped, spFlags: DISPFlagOptimized)
!1121 = !DISubprogram(name: "addr_anno", linkageName: "_ZN6Packet9addr_annoEv", scope: !5, file: !4, line: 662, type: !292, scopeLine: 662, flags: DIFlagPublic | DIFlagPrototyped, spFlags: DISPFlagOptimized)
!1122 = !DISubprogram(name: "addr_anno", linkageName: "_ZNK6Packet9addr_annoEv", scope: !5, file: !4, line: 663, type: !1047, scopeLine: 663, flags: DIFlagPublic | DIFlagPrototyped, spFlags: DISPFlagOptimized)
!1123 = !DISubprogram(name: "user_anno", linkageName: "_ZN6Packet9user_annoEv", scope: !5, file: !4, line: 664, type: !292, scopeLine: 664, flags: DIFlagPublic | DIFlagPrototyped, spFlags: DISPFlagOptimized)
!1124 = !DISubprogram(name: "user_anno", linkageName: "_ZNK6Packet9user_annoEv", scope: !5, file: !4, line: 665, type: !1047, scopeLine: 665, flags: DIFlagPublic | DIFlagPrototyped, spFlags: DISPFlagOptimized)
!1125 = !DISubprogram(name: "user_anno_u8", linkageName: "_ZN6Packet12user_anno_u8Ev", scope: !5, file: !4, line: 666, type: !1050, scopeLine: 666, flags: DIFlagPublic | DIFlagPrototyped, spFlags: DISPFlagOptimized)
!1126 = !DISubprogram(name: "user_anno_u8", linkageName: "_ZNK6Packet12user_anno_u8Ev", scope: !5, file: !4, line: 667, type: !1054, scopeLine: 667, flags: DIFlagPublic | DIFlagPrototyped, spFlags: DISPFlagOptimized)
!1127 = !DISubprogram(name: "user_anno_u32", linkageName: "_ZN6Packet13user_anno_u32Ev", scope: !5, file: !4, line: 668, type: !1059, scopeLine: 668, flags: DIFlagPublic | DIFlagPrototyped, spFlags: DISPFlagOptimized)
!1128 = !DISubprogram(name: "user_anno_u32", linkageName: "_ZNK6Packet13user_anno_u32Ev", scope: !5, file: !4, line: 669, type: !1063, scopeLine: 669, flags: DIFlagPublic | DIFlagPrototyped, spFlags: DISPFlagOptimized)
!1129 = !DISubprogram(name: "user_anno_u8", linkageName: "_ZNK6Packet12user_anno_u8Ei", scope: !5, file: !4, line: 670, type: !1068, scopeLine: 670, flags: DIFlagPublic | DIFlagPrototyped, spFlags: DISPFlagOptimized)
!1130 = !DISubprogram(name: "set_user_anno_u8", linkageName: "_ZN6Packet16set_user_anno_u8Eih", scope: !5, file: !4, line: 671, type: !1071, scopeLine: 671, flags: DIFlagPublic | DIFlagPrototyped, spFlags: DISPFlagOptimized)
!1131 = !DISubprogram(name: "user_anno_u16", linkageName: "_ZNK6Packet13user_anno_u16Ei", scope: !5, file: !4, line: 672, type: !1074, scopeLine: 672, flags: DIFlagPublic | DIFlagPrototyped, spFlags: DISPFlagOptimized)
!1132 = !DISubprogram(name: "set_user_anno_u16", linkageName: "_ZN6Packet17set_user_anno_u16Eit", scope: !5, file: !4, line: 673, type: !1077, scopeLine: 673, flags: DIFlagPublic | DIFlagPrototyped, spFlags: DISPFlagOptimized)
!1133 = !DISubprogram(name: "user_anno_u32", linkageName: "_ZNK6Packet13user_anno_u32Ei", scope: !5, file: !4, line: 674, type: !1089, scopeLine: 674, flags: DIFlagPublic | DIFlagPrototyped, spFlags: DISPFlagOptimized)
!1134 = !DISubprogram(name: "set_user_anno_u32", linkageName: "_ZN6Packet17set_user_anno_u32Eij", scope: !5, file: !4, line: 675, type: !1092, scopeLine: 675, flags: DIFlagPublic | DIFlagPrototyped, spFlags: DISPFlagOptimized)
!1135 = !DISubprogram(name: "user_anno_s32", linkageName: "_ZNK6Packet13user_anno_s32Ei", scope: !5, file: !4, line: 676, type: !1095, scopeLine: 676, flags: DIFlagPublic | DIFlagPrototyped, spFlags: DISPFlagOptimized)
!1136 = !DISubprogram(name: "set_user_anno_s32", linkageName: "_ZN6Packet17set_user_anno_s32Eii", scope: !5, file: !4, line: 677, type: !1098, scopeLine: 677, flags: DIFlagPublic | DIFlagPrototyped, spFlags: DISPFlagOptimized)
!1137 = !DISubprogram(name: "user_anno_u64", linkageName: "_ZNK6Packet13user_anno_u64Ei", scope: !5, file: !4, line: 679, type: !1101, scopeLine: 679, flags: DIFlagPublic | DIFlagPrototyped, spFlags: DISPFlagOptimized)
!1138 = !DISubprogram(name: "set_user_anno_u64", linkageName: "_ZN6Packet17set_user_anno_u64Eim", scope: !5, file: !4, line: 680, type: !1104, scopeLine: 680, flags: DIFlagPublic | DIFlagPrototyped, spFlags: DISPFlagOptimized)
!1139 = !DISubprogram(name: "all_user_anno", linkageName: "_ZNK6Packet13all_user_annoEv", scope: !5, file: !4, line: 682, type: !1054, scopeLine: 682, flags: DIFlagPublic | DIFlagPrototyped, spFlags: DISPFlagOptimized)
!1140 = !DISubprogram(name: "all_user_anno", linkageName: "_ZN6Packet13all_user_annoEv", scope: !5, file: !4, line: 683, type: !1050, scopeLine: 683, flags: DIFlagPublic | DIFlagPrototyped, spFlags: DISPFlagOptimized)
!1141 = !DISubprogram(name: "all_user_anno_u", linkageName: "_ZNK6Packet15all_user_anno_uEv", scope: !5, file: !4, line: 684, type: !1063, scopeLine: 684, flags: DIFlagPublic | DIFlagPrototyped, spFlags: DISPFlagOptimized)
!1142 = !DISubprogram(name: "all_user_anno_u", linkageName: "_ZN6Packet15all_user_anno_uEv", scope: !5, file: !4, line: 685, type: !1059, scopeLine: 685, flags: DIFlagPublic | DIFlagPrototyped, spFlags: DISPFlagOptimized)
!1143 = !DISubprogram(name: "user_anno_c", linkageName: "_ZNK6Packet11user_anno_cEi", scope: !5, file: !4, line: 686, type: !1068, scopeLine: 686, flags: DIFlagPublic | DIFlagPrototyped, spFlags: DISPFlagOptimized)
!1144 = !DISubprogram(name: "set_user_anno_c", linkageName: "_ZN6Packet15set_user_anno_cEih", scope: !5, file: !4, line: 687, type: !1071, scopeLine: 687, flags: DIFlagPublic | DIFlagPrototyped, spFlags: DISPFlagOptimized)
!1145 = !DISubprogram(name: "user_anno_s", linkageName: "_ZNK6Packet11user_anno_sEi", scope: !5, file: !4, line: 688, type: !1080, scopeLine: 688, flags: DIFlagPublic | DIFlagPrototyped, spFlags: DISPFlagOptimized)
!1146 = !DISubprogram(name: "set_user_anno_s", linkageName: "_ZN6Packet15set_user_anno_sEis", scope: !5, file: !4, line: 689, type: !1086, scopeLine: 689, flags: DIFlagPublic | DIFlagPrototyped, spFlags: DISPFlagOptimized)
!1147 = !DISubprogram(name: "user_anno_us", linkageName: "_ZNK6Packet12user_anno_usEi", scope: !5, file: !4, line: 690, type: !1074, scopeLine: 690, flags: DIFlagPublic | DIFlagPrototyped, spFlags: DISPFlagOptimized)
!1148 = !DISubprogram(name: "set_user_anno_us", linkageName: "_ZN6Packet16set_user_anno_usEit", scope: !5, file: !4, line: 691, type: !1077, scopeLine: 691, flags: DIFlagPublic | DIFlagPrototyped, spFlags: DISPFlagOptimized)
!1149 = !DISubprogram(name: "user_anno_i", linkageName: "_ZNK6Packet11user_anno_iEi", scope: !5, file: !4, line: 692, type: !1095, scopeLine: 692, flags: DIFlagPublic | DIFlagPrototyped, spFlags: DISPFlagOptimized)
!1150 = !DISubprogram(name: "set_user_anno_i", linkageName: "_ZN6Packet15set_user_anno_iEii", scope: !5, file: !4, line: 693, type: !1098, scopeLine: 693, flags: DIFlagPublic | DIFlagPrototyped, spFlags: DISPFlagOptimized)
!1151 = !DISubprogram(name: "user_anno_u", linkageName: "_ZNK6Packet11user_anno_uEi", scope: !5, file: !4, line: 694, type: !1089, scopeLine: 694, flags: DIFlagPublic | DIFlagPrototyped, spFlags: DISPFlagOptimized)
!1152 = !DISubprogram(name: "set_user_anno_u", linkageName: "_ZN6Packet15set_user_anno_uEij", scope: !5, file: !4, line: 695, type: !1092, scopeLine: 695, flags: DIFlagPublic | DIFlagPrototyped, spFlags: DISPFlagOptimized)
!1153 = !DISubprogram(name: "Packet", scope: !5, file: !4, line: 751, type: !258, scopeLine: 751, flags: DIFlagPrototyped, spFlags: DISPFlagOptimized)
!1154 = !DISubprogram(name: "Packet", scope: !5, file: !4, line: 756, type: !1155, scopeLine: 756, flags: DIFlagPrototyped, spFlags: DISPFlagOptimized)
!1155 = !DISubroutineType(types: !1156)
!1156 = !{null, !260, !231}
!1157 = !DISubprogram(name: "~Packet", scope: !5, file: !4, line: 757, type: !258, scopeLine: 757, flags: DIFlagPrototyped, spFlags: DISPFlagOptimized)
!1158 = !DISubprogram(name: "operator=", linkageName: "_ZN6PacketaSERKS_", scope: !5, file: !4, line: 758, type: !1159, scopeLine: 758, flags: DIFlagPrototyped, spFlags: DISPFlagOptimized)
!1159 = !DISubroutineType(types: !1160)
!1160 = !{!1161, !260, !231}
!1161 = !DIDerivedType(tag: DW_TAG_reference_type, baseType: !5, size: 64)
!1162 = !DISubprogram(name: "alloc_data", linkageName: "_ZN6Packet10alloc_dataEjjj", scope: !5, file: !4, line: 761, type: !1163, scopeLine: 761, flags: DIFlagPrototyped, spFlags: DISPFlagOptimized)
!1163 = !DISubroutineType(types: !1164)
!1164 = !{!53, !260, !12, !12, !12}
!1165 = !DISubprogram(name: "shift_header_annotations", linkageName: "_ZN6Packet24shift_header_annotationsEPKhi", scope: !5, file: !4, line: 768, type: !1166, scopeLine: 768, flags: DIFlagPrototyped, spFlags: DISPFlagOptimized)
!1166 = !DISubroutineType(types: !1167)
!1167 = !{null, !260, !274, !31}
